
resizebilinear:     file format elf64-x86-64


Disassembly of section .init:

0000000000404120 <_init>:
  404120:	48 83 ec 08          	sub    $0x8,%rsp
  404124:	48 8b 05 cd 5e 21 00 	mov    0x215ecd(%rip),%rax        # 619ff8 <_DYNAMIC+0x230>
  40412b:	48 85 c0             	test   %rax,%rax
  40412e:	74 05                	je     404135 <_init+0x15>
  404130:	e8 8b 05 00 00       	callq  4046c0 <_ZNSt8ios_base4InitD1Ev@plt+0x10>
  404135:	48 83 c4 08          	add    $0x8,%rsp
  404139:	c3                   	retq   

Disassembly of section .plt:

0000000000404140 <_Znam@plt-0x10>:
  404140:	ff 35 c2 5e 21 00    	pushq  0x215ec2(%rip)        # 61a008 <_GLOBAL_OFFSET_TABLE_+0x8>
  404146:	ff 25 c4 5e 21 00    	jmpq   *0x215ec4(%rip)        # 61a010 <_GLOBAL_OFFSET_TABLE_+0x10>
  40414c:	0f 1f 40 00          	nopl   0x0(%rax)

0000000000404150 <_Znam@plt>:
  404150:	ff 25 c2 5e 21 00    	jmpq   *0x215ec2(%rip)        # 61a018 <_GLOBAL_OFFSET_TABLE_+0x18>
  404156:	68 00 00 00 00       	pushq  $0x0
  40415b:	e9 e0 ff ff ff       	jmpq   404140 <_init+0x20>

0000000000404160 <_ZNSt7__cxx1112basic_stringIcSt11char_traitsIcESaIcEEaSERKS4_@plt>:
  404160:	ff 25 ba 5e 21 00    	jmpq   *0x215eba(%rip)        # 61a020 <_GLOBAL_OFFSET_TABLE_+0x20>
  404166:	68 01 00 00 00       	pushq  $0x1
  40416b:	e9 d0 ff ff ff       	jmpq   404140 <_init+0x20>

0000000000404170 <printf@plt>:
  404170:	ff 25 b2 5e 21 00    	jmpq   *0x215eb2(%rip)        # 61a028 <_GLOBAL_OFFSET_TABLE_+0x28>
  404176:	68 02 00 00 00       	pushq  $0x2
  40417b:	e9 c0 ff ff ff       	jmpq   404140 <_init+0x20>

0000000000404180 <_ZNSt6chrono3_V212system_clock3nowEv@plt>:
  404180:	ff 25 aa 5e 21 00    	jmpq   *0x215eaa(%rip)        # 61a030 <_GLOBAL_OFFSET_TABLE_+0x30>
  404186:	68 03 00 00 00       	pushq  $0x3
  40418b:	e9 b0 ff ff ff       	jmpq   404140 <_init+0x20>

0000000000404190 <_ZN11arm_compute11CLScheduler3getEv@plt>:
  404190:	ff 25 a2 5e 21 00    	jmpq   *0x215ea2(%rip)        # 61a038 <_GLOBAL_OFFSET_TABLE_+0x38>
  404196:	68 04 00 00 00       	pushq  $0x4
  40419b:	e9 a0 ff ff ff       	jmpq   404140 <_init+0x20>

00000000004041a0 <sprintf@plt>:
  4041a0:	ff 25 9a 5e 21 00    	jmpq   *0x215e9a(%rip)        # 61a040 <_GLOBAL_OFFSET_TABLE_+0x40>
  4041a6:	68 05 00 00 00       	pushq  $0x5
  4041ab:	e9 90 ff ff ff       	jmpq   404140 <_init+0x20>

00000000004041b0 <_ZSt11_Hash_bytesPKvmm@plt>:
  4041b0:	ff 25 92 5e 21 00    	jmpq   *0x215e92(%rip)        # 61a048 <_GLOBAL_OFFSET_TABLE_+0x48>
  4041b6:	68 06 00 00 00       	pushq  $0x6
  4041bb:	e9 80 ff ff ff       	jmpq   404140 <_init+0x20>

00000000004041c0 <xopenme_clock_start@plt>:
  4041c0:	ff 25 8a 5e 21 00    	jmpq   *0x215e8a(%rip)        # 61a050 <_GLOBAL_OFFSET_TABLE_+0x50>
  4041c6:	68 07 00 00 00       	pushq  $0x7
  4041cb:	e9 70 ff ff ff       	jmpq   404140 <_init+0x20>

00000000004041d0 <xopenme_dump_state@plt>:
  4041d0:	ff 25 82 5e 21 00    	jmpq   *0x215e82(%rip)        # 61a058 <_GLOBAL_OFFSET_TABLE_+0x58>
  4041d6:	68 08 00 00 00       	pushq  $0x8
  4041db:	e9 60 ff ff ff       	jmpq   404140 <_init+0x20>

00000000004041e0 <clFinish@plt>:
  4041e0:	ff 25 7a 5e 21 00    	jmpq   *0x215e7a(%rip)        # 61a060 <_GLOBAL_OFFSET_TABLE_+0x60>
  4041e6:	68 09 00 00 00       	pushq  $0x9
  4041eb:	e9 50 ff ff ff       	jmpq   404140 <_init+0x20>

00000000004041f0 <xopenme_finish@plt>:
  4041f0:	ff 25 72 5e 21 00    	jmpq   *0x215e72(%rip)        # 61a068 <_GLOBAL_OFFSET_TABLE_+0x68>
  4041f6:	68 0a 00 00 00       	pushq  $0xa
  4041fb:	e9 40 ff ff ff       	jmpq   404140 <_init+0x20>

0000000000404200 <rand@plt>:
  404200:	ff 25 6a 5e 21 00    	jmpq   *0x215e6a(%rip)        # 61a070 <_GLOBAL_OFFSET_TABLE_+0x70>
  404206:	68 0b 00 00 00       	pushq  $0xb
  40420b:	e9 30 ff ff ff       	jmpq   404140 <_init+0x20>

0000000000404210 <_ZN11arm_compute8CLTensor5unmapEv@plt>:
  404210:	ff 25 62 5e 21 00    	jmpq   *0x215e62(%rip)        # 61a078 <_GLOBAL_OFFSET_TABLE_+0x78>
  404216:	68 0c 00 00 00       	pushq  $0xc
  40421b:	e9 20 ff ff ff       	jmpq   404140 <_init+0x20>

0000000000404220 <_ZSt17__throw_bad_allocv@plt>:
  404220:	ff 25 5a 5e 21 00    	jmpq   *0x215e5a(%rip)        # 61a080 <_GLOBAL_OFFSET_TABLE_+0x80>
  404226:	68 0d 00 00 00       	pushq  $0xd
  40422b:	e9 10 ff ff ff       	jmpq   404140 <_init+0x20>

0000000000404230 <xopenme_init@plt>:
  404230:	ff 25 52 5e 21 00    	jmpq   *0x215e52(%rip)        # 61a088 <_GLOBAL_OFFSET_TABLE_+0x88>
  404236:	68 0e 00 00 00       	pushq  $0xe
  40423b:	e9 00 ff ff ff       	jmpq   404140 <_init+0x20>

0000000000404240 <__cxa_begin_catch@plt>:
  404240:	ff 25 4a 5e 21 00    	jmpq   *0x215e4a(%rip)        # 61a090 <_GLOBAL_OFFSET_TABLE_+0x90>
  404246:	68 0f 00 00 00       	pushq  $0xf
  40424b:	e9 f0 fe ff ff       	jmpq   404140 <_init+0x20>

0000000000404250 <_ZNSt7__cxx1112basic_stringIcSt11char_traitsIcESaIcEEC1ERKS4_@plt>:
  404250:	ff 25 42 5e 21 00    	jmpq   *0x215e42(%rip)        # 61a098 <_GLOBAL_OFFSET_TABLE_+0x98>
  404256:	68 10 00 00 00       	pushq  $0x10
  40425b:	e9 e0 fe ff ff       	jmpq   404140 <_init+0x20>

0000000000404260 <strlen@plt>:
  404260:	ff 25 3a 5e 21 00    	jmpq   *0x215e3a(%rip)        # 61a0a0 <_GLOBAL_OFFSET_TABLE_+0xa0>
  404266:	68 11 00 00 00       	pushq  $0x11
  40426b:	e9 d0 fe ff ff       	jmpq   404140 <_init+0x20>

0000000000404270 <xopenme_dump_memory@plt>:
  404270:	ff 25 32 5e 21 00    	jmpq   *0x215e32(%rip)        # 61a0a8 <_GLOBAL_OFFSET_TABLE_+0xa8>
  404276:	68 12 00 00 00       	pushq  $0x12
  40427b:	e9 c0 fe ff ff       	jmpq   404140 <_init+0x20>

0000000000404280 <memcmp@plt>:
  404280:	ff 25 2a 5e 21 00    	jmpq   *0x215e2a(%rip)        # 61a0b0 <_GLOBAL_OFFSET_TABLE_+0xb0>
  404286:	68 13 00 00 00       	pushq  $0x13
  40428b:	e9 b0 fe ff ff       	jmpq   404140 <_init+0x20>

0000000000404290 <clRetainCommandQueue@plt>:
  404290:	ff 25 22 5e 21 00    	jmpq   *0x215e22(%rip)        # 61a0b8 <_GLOBAL_OFFSET_TABLE_+0xb8>
  404296:	68 14 00 00 00       	pushq  $0x14
  40429b:	e9 a0 fe ff ff       	jmpq   404140 <_init+0x20>

00000000004042a0 <clCreateContextFromType@plt>:
  4042a0:	ff 25 1a 5e 21 00    	jmpq   *0x215e1a(%rip)        # 61a0c0 <_GLOBAL_OFFSET_TABLE_+0xc0>
  4042a6:	68 15 00 00 00       	pushq  $0x15
  4042ab:	e9 90 fe ff ff       	jmpq   404140 <_init+0x20>

00000000004042b0 <__cxa_allocate_exception@plt>:
  4042b0:	ff 25 12 5e 21 00    	jmpq   *0x215e12(%rip)        # 61a0c8 <_GLOBAL_OFFSET_TABLE_+0xc8>
  4042b6:	68 16 00 00 00       	pushq  $0x16
  4042bb:	e9 80 fe ff ff       	jmpq   404140 <_init+0x20>

00000000004042c0 <_ZSt20__throw_length_errorPKc@plt>:
  4042c0:	ff 25 0a 5e 21 00    	jmpq   *0x215e0a(%rip)        # 61a0d0 <_GLOBAL_OFFSET_TABLE_+0xd0>
  4042c6:	68 17 00 00 00       	pushq  $0x17
  4042cb:	e9 70 fe ff ff       	jmpq   404140 <_init+0x20>

00000000004042d0 <memset@plt>:
  4042d0:	ff 25 02 5e 21 00    	jmpq   *0x215e02(%rip)        # 61a0d8 <_GLOBAL_OFFSET_TABLE_+0xd8>
  4042d6:	68 18 00 00 00       	pushq  $0x18
  4042db:	e9 60 fe ff ff       	jmpq   404140 <_init+0x20>

00000000004042e0 <_ZN11arm_compute15CLKernelLibrary3getEv@plt>:
  4042e0:	ff 25 fa 5d 21 00    	jmpq   *0x215dfa(%rip)        # 61a0e0 <_GLOBAL_OFFSET_TABLE_+0xe0>
  4042e6:	68 19 00 00 00       	pushq  $0x19
  4042eb:	e9 50 fe ff ff       	jmpq   404140 <_init+0x20>

00000000004042f0 <clReleaseContext@plt>:
  4042f0:	ff 25 f2 5d 21 00    	jmpq   *0x215df2(%rip)        # 61a0e8 <_GLOBAL_OFFSET_TABLE_+0xe8>
  4042f6:	68 1a 00 00 00       	pushq  $0x1a
  4042fb:	e9 40 fe ff ff       	jmpq   404140 <_init+0x20>

0000000000404300 <_ZNSt7__cxx1112basic_stringIcSt11char_traitsIcESaIcEED1Ev@plt>:
  404300:	ff 25 ea 5d 21 00    	jmpq   *0x215dea(%rip)        # 61a0f0 <_GLOBAL_OFFSET_TABLE_+0xf0>
  404306:	68 1b 00 00 00       	pushq  $0x1b
  40430b:	e9 30 fe ff ff       	jmpq   404140 <_init+0x20>

0000000000404310 <_ZSt20__throw_system_errori@plt>:
  404310:	ff 25 e2 5d 21 00    	jmpq   *0x215de2(%rip)        # 61a0f8 <_GLOBAL_OFFSET_TABLE_+0xf8>
  404316:	68 1c 00 00 00       	pushq  $0x1c
  40431b:	e9 20 fe ff ff       	jmpq   404140 <_init+0x20>

0000000000404320 <_ZNKSt7__cxx1112basic_stringIcSt11char_traitsIcESaIcEE4sizeEv@plt>:
  404320:	ff 25 da 5d 21 00    	jmpq   *0x215dda(%rip)        # 61a100 <_GLOBAL_OFFSET_TABLE_+0x100>
  404326:	68 1d 00 00 00       	pushq  $0x1d
  40432b:	e9 10 fe ff ff       	jmpq   404140 <_init+0x20>

0000000000404330 <__cxa_atexit@plt>:
  404330:	ff 25 d2 5d 21 00    	jmpq   *0x215dd2(%rip)        # 61a108 <_GLOBAL_OFFSET_TABLE_+0x108>
  404336:	68 1e 00 00 00       	pushq  $0x1e
  40433b:	e9 00 fe ff ff       	jmpq   404140 <_init+0x20>

0000000000404340 <_ZdlPv@plt>:
  404340:	ff 25 ca 5d 21 00    	jmpq   *0x215dca(%rip)        # 61a110 <_GLOBAL_OFFSET_TABLE_+0x110>
  404346:	68 1f 00 00 00       	pushq  $0x1f
  40434b:	e9 f0 fd ff ff       	jmpq   404140 <_init+0x20>

0000000000404350 <srand@plt>:
  404350:	ff 25 c2 5d 21 00    	jmpq   *0x215dc2(%rip)        # 61a118 <_GLOBAL_OFFSET_TABLE_+0x118>
  404356:	68 20 00 00 00       	pushq  $0x20
  40435b:	e9 e0 fd ff ff       	jmpq   404140 <_init+0x20>

0000000000404360 <_Znwm@plt>:
  404360:	ff 25 ba 5d 21 00    	jmpq   *0x215dba(%rip)        # 61a120 <_GLOBAL_OFFSET_TABLE_+0x120>
  404366:	68 21 00 00 00       	pushq  $0x21
  40436b:	e9 d0 fd ff ff       	jmpq   404140 <_init+0x20>

0000000000404370 <_ZN11arm_compute17ICLSimpleFunction3runEv@plt>:
  404370:	ff 25 b2 5d 21 00    	jmpq   *0x215db2(%rip)        # 61a128 <_GLOBAL_OFFSET_TABLE_+0x128>
  404376:	68 22 00 00 00       	pushq  $0x22
  40437b:	e9 c0 fd ff ff       	jmpq   404140 <_init+0x20>

0000000000404380 <_ZNSaIcED1Ev@plt>:
  404380:	ff 25 aa 5d 21 00    	jmpq   *0x215daa(%rip)        # 61a130 <_GLOBAL_OFFSET_TABLE_+0x130>
  404386:	68 23 00 00 00       	pushq  $0x23
  40438b:	e9 b0 fd ff ff       	jmpq   404140 <_init+0x20>

0000000000404390 <_ZN11arm_compute17ICLSimpleFunctionC2Ev@plt>:
  404390:	ff 25 a2 5d 21 00    	jmpq   *0x215da2(%rip)        # 61a138 <_GLOBAL_OFFSET_TABLE_+0x138>
  404396:	68 24 00 00 00       	pushq  $0x24
  40439b:	e9 a0 fd ff ff       	jmpq   404140 <_init+0x20>

00000000004043a0 <__stack_chk_fail@plt>:
  4043a0:	ff 25 9a 5d 21 00    	jmpq   *0x215d9a(%rip)        # 61a140 <_GLOBAL_OFFSET_TABLE_+0x140>
  4043a6:	68 25 00 00 00       	pushq  $0x25
  4043ab:	e9 90 fd ff ff       	jmpq   404140 <_init+0x20>

00000000004043b0 <_ZNK11arm_compute7IKernel6windowEv@plt>:
  4043b0:	ff 25 92 5d 21 00    	jmpq   *0x215d92(%rip)        # 61a148 <_GLOBAL_OFFSET_TABLE_+0x148>
  4043b6:	68 26 00 00 00       	pushq  $0x26
  4043bb:	e9 80 fd ff ff       	jmpq   404140 <_init+0x20>

00000000004043c0 <_ZN11arm_compute16ITensorAllocator4initERKNS_10TensorInfoE@plt>:
  4043c0:	ff 25 8a 5d 21 00    	jmpq   *0x215d8a(%rip)        # 61a150 <_GLOBAL_OFFSET_TABLE_+0x150>
  4043c6:	68 27 00 00 00       	pushq  $0x27
  4043cb:	e9 70 fd ff ff       	jmpq   404140 <_init+0x20>

00000000004043d0 <xopenme_add_var_i@plt>:
  4043d0:	ff 25 82 5d 21 00    	jmpq   *0x215d82(%rip)        # 61a158 <_GLOBAL_OFFSET_TABLE_+0x158>
  4043d6:	68 28 00 00 00       	pushq  $0x28
  4043db:	e9 60 fd ff ff       	jmpq   404140 <_init+0x20>

00000000004043e0 <_ZN11arm_compute8CLTensor9allocatorEv@plt>:
  4043e0:	ff 25 7a 5d 21 00    	jmpq   *0x215d7a(%rip)        # 61a160 <_GLOBAL_OFFSET_TABLE_+0x160>
  4043e6:	68 29 00 00 00       	pushq  $0x29
  4043eb:	e9 50 fd ff ff       	jmpq   404140 <_init+0x20>

00000000004043f0 <getenv@plt>:
  4043f0:	ff 25 72 5d 21 00    	jmpq   *0x215d72(%rip)        # 61a168 <_GLOBAL_OFFSET_TABLE_+0x168>
  4043f6:	68 2a 00 00 00       	pushq  $0x2a
  4043fb:	e9 40 fd ff ff       	jmpq   404140 <_init+0x20>

0000000000404400 <_ZNSt7__cxx1112basic_stringIcSt11char_traitsIcESaIcEEaSEOS4_@plt>:
  404400:	ff 25 6a 5d 21 00    	jmpq   *0x215d6a(%rip)        # 61a170 <_GLOBAL_OFFSET_TABLE_+0x170>
  404406:	68 2b 00 00 00       	pushq  $0x2b
  40440b:	e9 30 fd ff ff       	jmpq   404140 <_init+0x20>

0000000000404410 <clGetDeviceIDs@plt>:
  404410:	ff 25 62 5d 21 00    	jmpq   *0x215d62(%rip)        # 61a178 <_GLOBAL_OFFSET_TABLE_+0x178>
  404416:	68 2c 00 00 00       	pushq  $0x2c
  40441b:	e9 20 fd ff ff       	jmpq   404140 <_init+0x20>

0000000000404420 <clGetContextInfo@plt>:
  404420:	ff 25 5a 5d 21 00    	jmpq   *0x215d5a(%rip)        # 61a180 <_GLOBAL_OFFSET_TABLE_+0x180>
  404426:	68 2d 00 00 00       	pushq  $0x2d
  40442b:	e9 10 fd ff ff       	jmpq   404140 <_init+0x20>

0000000000404430 <__cxa_get_exception_ptr@plt>:
  404430:	ff 25 52 5d 21 00    	jmpq   *0x215d52(%rip)        # 61a188 <_GLOBAL_OFFSET_TABLE_+0x188>
  404436:	68 2e 00 00 00       	pushq  $0x2e
  40443b:	e9 00 fd ff ff       	jmpq   404140 <_init+0x20>

0000000000404440 <clReleaseCommandQueue@plt>:
  404440:	ff 25 4a 5d 21 00    	jmpq   *0x215d4a(%rip)        # 61a190 <_GLOBAL_OFFSET_TABLE_+0x190>
  404446:	68 2f 00 00 00       	pushq  $0x2f
  40444b:	e9 f0 fc ff ff       	jmpq   404140 <_init+0x20>

0000000000404450 <_ZdaPv@plt>:
  404450:	ff 25 42 5d 21 00    	jmpq   *0x215d42(%rip)        # 61a198 <_GLOBAL_OFFSET_TABLE_+0x198>
  404456:	68 30 00 00 00       	pushq  $0x30
  40445b:	e9 e0 fc ff ff       	jmpq   404140 <_init+0x20>

0000000000404460 <_ZNKSt7__cxx1112basic_stringIcSt11char_traitsIcESaIcEE4dataEv@plt>:
  404460:	ff 25 3a 5d 21 00    	jmpq   *0x215d3a(%rip)        # 61a1a0 <_GLOBAL_OFFSET_TABLE_+0x1a0>
  404466:	68 31 00 00 00       	pushq  $0x31
  40446b:	e9 d0 fc ff ff       	jmpq   404140 <_init+0x20>

0000000000404470 <_ZN11arm_compute22get_target_from_deviceERN2cl6DeviceE@plt>:
  404470:	ff 25 32 5d 21 00    	jmpq   *0x215d32(%rip)        # 61a1a8 <_GLOBAL_OFFSET_TABLE_+0x1a8>
  404476:	68 32 00 00 00       	pushq  $0x32
  40447b:	e9 c0 fc ff ff       	jmpq   404140 <_init+0x20>

0000000000404480 <clGetPlatformIDs@plt>:
  404480:	ff 25 2a 5d 21 00    	jmpq   *0x215d2a(%rip)        # 61a1b0 <_GLOBAL_OFFSET_TABLE_+0x1b0>
  404486:	68 33 00 00 00       	pushq  $0x33
  40448b:	e9 b0 fc ff ff       	jmpq   404140 <_init+0x20>

0000000000404490 <_ZNKSt8__detail20_Prime_rehash_policy14_M_need_rehashEmmm@plt>:
  404490:	ff 25 22 5d 21 00    	jmpq   *0x215d22(%rip)        # 61a1b8 <_GLOBAL_OFFSET_TABLE_+0x1b8>
  404496:	68 34 00 00 00       	pushq  $0x34
  40449b:	e9 a0 fc ff ff       	jmpq   404140 <_init+0x20>

00000000004044a0 <xopenme_clock_end@plt>:
  4044a0:	ff 25 1a 5d 21 00    	jmpq   *0x215d1a(%rip)        # 61a1c0 <_GLOBAL_OFFSET_TABLE_+0x1c0>
  4044a6:	68 35 00 00 00       	pushq  $0x35
  4044ab:	e9 90 fc ff ff       	jmpq   404140 <_init+0x20>

00000000004044b0 <_ZNSt7__cxx1112basic_stringIcSt11char_traitsIcESaIcEEC1EPKcRKS3_@plt>:
  4044b0:	ff 25 12 5d 21 00    	jmpq   *0x215d12(%rip)        # 61a1c8 <_GLOBAL_OFFSET_TABLE_+0x1c8>
  4044b6:	68 36 00 00 00       	pushq  $0x36
  4044bb:	e9 80 fc ff ff       	jmpq   404140 <_init+0x20>

00000000004044c0 <putchar@plt>:
  4044c0:	ff 25 0a 5d 21 00    	jmpq   *0x215d0a(%rip)        # 61a1d0 <_GLOBAL_OFFSET_TABLE_+0x1d0>
  4044c6:	68 37 00 00 00       	pushq  $0x37
  4044cb:	e9 70 fc ff ff       	jmpq   404140 <_init+0x20>

00000000004044d0 <__cxa_throw_bad_array_new_length@plt>:
  4044d0:	ff 25 02 5d 21 00    	jmpq   *0x215d02(%rip)        # 61a1d8 <_GLOBAL_OFFSET_TABLE_+0x1d8>
  4044d6:	68 38 00 00 00       	pushq  $0x38
  4044db:	e9 60 fc ff ff       	jmpq   404140 <_init+0x20>

00000000004044e0 <__cxa_rethrow@plt>:
  4044e0:	ff 25 fa 5c 21 00    	jmpq   *0x215cfa(%rip)        # 61a1e0 <_GLOBAL_OFFSET_TABLE_+0x1e0>
  4044e6:	68 39 00 00 00       	pushq  $0x39
  4044eb:	e9 50 fc ff ff       	jmpq   404140 <_init+0x20>

00000000004044f0 <_ZNKSt7__cxx1112basic_stringIcSt11char_traitsIcESaIcEE6lengthEv@plt>:
  4044f0:	ff 25 f2 5c 21 00    	jmpq   *0x215cf2(%rip)        # 61a1e8 <_GLOBAL_OFFSET_TABLE_+0x1e8>
  4044f6:	68 3a 00 00 00       	pushq  $0x3a
  4044fb:	e9 40 fc ff ff       	jmpq   404140 <_init+0x20>

0000000000404500 <_ZSt24__throw_out_of_range_fmtPKcz@plt>:
  404500:	ff 25 ea 5c 21 00    	jmpq   *0x215cea(%rip)        # 61a1f0 <_GLOBAL_OFFSET_TABLE_+0x1f0>
  404506:	68 3b 00 00 00       	pushq  $0x3b
  40450b:	e9 30 fc ff ff       	jmpq   404140 <_init+0x20>

0000000000404510 <_ZN11arm_compute20get_arch_from_targetENS_9GPUTargetE@plt>:
  404510:	ff 25 e2 5c 21 00    	jmpq   *0x215ce2(%rip)        # 61a1f8 <_GLOBAL_OFFSET_TABLE_+0x1f8>
  404516:	68 3c 00 00 00       	pushq  $0x3c
  40451b:	e9 20 fc ff ff       	jmpq   404140 <_init+0x20>

0000000000404520 <_ZNK11arm_compute7IKernel17is_parallelisableEv@plt>:
  404520:	ff 25 da 5c 21 00    	jmpq   *0x215cda(%rip)        # 61a200 <_GLOBAL_OFFSET_TABLE_+0x200>
  404526:	68 3d 00 00 00       	pushq  $0x3d
  40452b:	e9 10 fc ff ff       	jmpq   404140 <_init+0x20>

0000000000404530 <_ZNSt8ios_base4InitC1Ev@plt>:
  404530:	ff 25 d2 5c 21 00    	jmpq   *0x215cd2(%rip)        # 61a208 <_GLOBAL_OFFSET_TABLE_+0x208>
  404536:	68 3e 00 00 00       	pushq  $0x3e
  40453b:	e9 00 fc ff ff       	jmpq   404140 <_init+0x20>

0000000000404540 <puts@plt>:
  404540:	ff 25 ca 5c 21 00    	jmpq   *0x215cca(%rip)        # 61a210 <_GLOBAL_OFFSET_TABLE_+0x210>
  404546:	68 3f 00 00 00       	pushq  $0x3f
  40454b:	e9 f0 fb ff ff       	jmpq   404140 <_init+0x20>

0000000000404550 <atoi@plt>:
  404550:	ff 25 c2 5c 21 00    	jmpq   *0x215cc2(%rip)        # 61a218 <_GLOBAL_OFFSET_TABLE_+0x218>
  404556:	68 40 00 00 00       	pushq  $0x40
  40455b:	e9 e0 fb ff ff       	jmpq   404140 <_init+0x20>

0000000000404560 <clCreateCommandQueue@plt>:
  404560:	ff 25 ba 5c 21 00    	jmpq   *0x215cba(%rip)        # 61a220 <_GLOBAL_OFFSET_TABLE_+0x220>
  404566:	68 41 00 00 00       	pushq  $0x41
  40456b:	e9 d0 fb ff ff       	jmpq   404140 <_init+0x20>

0000000000404570 <__once_proxy@plt>:
  404570:	ff 25 b2 5c 21 00    	jmpq   *0x215cb2(%rip)        # 61a228 <_GLOBAL_OFFSET_TABLE_+0x228>
  404576:	68 42 00 00 00       	pushq  $0x42
  40457b:	e9 c0 fb ff ff       	jmpq   404140 <_init+0x20>

0000000000404580 <__cxa_end_catch@plt>:
  404580:	ff 25 aa 5c 21 00    	jmpq   *0x215caa(%rip)        # 61a230 <_GLOBAL_OFFSET_TABLE_+0x230>
  404586:	68 43 00 00 00       	pushq  $0x43
  40458b:	e9 b0 fb ff ff       	jmpq   404140 <_init+0x20>

0000000000404590 <pthread_once@plt>:
  404590:	ff 25 a2 5c 21 00    	jmpq   *0x215ca2(%rip)        # 61a238 <_GLOBAL_OFFSET_TABLE_+0x238>
  404596:	68 44 00 00 00       	pushq  $0x44
  40459b:	e9 a0 fb ff ff       	jmpq   404140 <_init+0x20>

00000000004045a0 <__gxx_personality_v0@plt>:
  4045a0:	ff 25 9a 5c 21 00    	jmpq   *0x215c9a(%rip)        # 61a240 <_GLOBAL_OFFSET_TABLE_+0x240>
  4045a6:	68 45 00 00 00       	pushq  $0x45
  4045ab:	e9 90 fb ff ff       	jmpq   404140 <_init+0x20>

00000000004045b0 <__pthread_key_create@plt>:
  4045b0:	ff 25 92 5c 21 00    	jmpq   *0x215c92(%rip)        # 61a248 <_GLOBAL_OFFSET_TABLE_+0x248>
  4045b6:	68 46 00 00 00       	pushq  $0x46
  4045bb:	e9 80 fb ff ff       	jmpq   404140 <_init+0x20>

00000000004045c0 <_ZNK11arm_compute7IKernel11border_sizeEv@plt>:
  4045c0:	ff 25 8a 5c 21 00    	jmpq   *0x215c8a(%rip)        # 61a250 <_GLOBAL_OFFSET_TABLE_+0x250>
  4045c6:	68 47 00 00 00       	pushq  $0x47
  4045cb:	e9 70 fb ff ff       	jmpq   404140 <_init+0x20>

00000000004045d0 <clRetainContext@plt>:
  4045d0:	ff 25 82 5c 21 00    	jmpq   *0x215c82(%rip)        # 61a258 <_GLOBAL_OFFSET_TABLE_+0x258>
  4045d6:	68 48 00 00 00       	pushq  $0x48
  4045db:	e9 60 fb ff ff       	jmpq   404140 <_init+0x20>

00000000004045e0 <_ZN11arm_compute10TensorInfoC1ERKNS_11TensorShapeENS_6FormatE@plt>:
  4045e0:	ff 25 7a 5c 21 00    	jmpq   *0x215c7a(%rip)        # 61a260 <_GLOBAL_OFFSET_TABLE_+0x260>
  4045e6:	68 49 00 00 00       	pushq  $0x49
  4045eb:	e9 50 fb ff ff       	jmpq   404140 <_init+0x20>

00000000004045f0 <__cxa_throw@plt>:
  4045f0:	ff 25 72 5c 21 00    	jmpq   *0x215c72(%rip)        # 61a268 <_GLOBAL_OFFSET_TABLE_+0x268>
  4045f6:	68 4a 00 00 00       	pushq  $0x4a
  4045fb:	e9 40 fb ff ff       	jmpq   404140 <_init+0x20>

0000000000404600 <_Unwind_Resume@plt>:
  404600:	ff 25 6a 5c 21 00    	jmpq   *0x215c6a(%rip)        # 61a270 <_GLOBAL_OFFSET_TABLE_+0x270>
  404606:	68 4b 00 00 00       	pushq  $0x4b
  40460b:	e9 30 fb ff ff       	jmpq   404140 <_init+0x20>

0000000000404610 <_ZNSaIcEC1Ev@plt>:
  404610:	ff 25 62 5c 21 00    	jmpq   *0x215c62(%rip)        # 61a278 <_GLOBAL_OFFSET_TABLE_+0x278>
  404616:	68 4c 00 00 00       	pushq  $0x4c
  40461b:	e9 20 fb ff ff       	jmpq   404140 <_init+0x20>

0000000000404620 <_ZN11arm_compute8CLTensor3mapEb@plt>:
  404620:	ff 25 5a 5c 21 00    	jmpq   *0x215c5a(%rip)        # 61a280 <_GLOBAL_OFFSET_TABLE_+0x280>
  404626:	68 4d 00 00 00       	pushq  $0x4d
  40462b:	e9 10 fb ff ff       	jmpq   404140 <_init+0x20>

0000000000404630 <_ZNSt9exceptionD2Ev@plt>:
  404630:	ff 25 52 5c 21 00    	jmpq   *0x215c52(%rip)        # 61a288 <_GLOBAL_OFFSET_TABLE_+0x288>
  404636:	68 4e 00 00 00       	pushq  $0x4e
  40463b:	e9 00 fb ff ff       	jmpq   404140 <_init+0x20>

0000000000404640 <_ZN11arm_compute7CLScale9configureEPNS_9ICLTensorES2_NS_19InterpolationPolicyENS_10BorderModeENS_10PixelValueENS_14SamplingPolicyE@plt>:
  404640:	ff 25 4a 5c 21 00    	jmpq   *0x215c4a(%rip)        # 61a290 <_GLOBAL_OFFSET_TABLE_+0x290>
  404646:	68 4f 00 00 00       	pushq  $0x4f
  40464b:	e9 f0 fa ff ff       	jmpq   404140 <_init+0x20>

0000000000404650 <clReleaseKernel@plt>:
  404650:	ff 25 42 5c 21 00    	jmpq   *0x215c42(%rip)        # 61a298 <_GLOBAL_OFFSET_TABLE_+0x298>
  404656:	68 50 00 00 00       	pushq  $0x50
  40465b:	e9 e0 fa ff ff       	jmpq   404140 <_init+0x20>

0000000000404660 <__libc_start_main@plt>:
  404660:	ff 25 3a 5c 21 00    	jmpq   *0x215c3a(%rip)        # 61a2a0 <_GLOBAL_OFFSET_TABLE_+0x2a0>
  404666:	68 51 00 00 00       	pushq  $0x51
  40466b:	e9 d0 fa ff ff       	jmpq   404140 <_init+0x20>

0000000000404670 <xopenme_add_var_f@plt>:
  404670:	ff 25 32 5c 21 00    	jmpq   *0x215c32(%rip)        # 61a2a8 <_GLOBAL_OFFSET_TABLE_+0x2a8>
  404676:	68 52 00 00 00       	pushq  $0x52
  40467b:	e9 c0 fa ff ff       	jmpq   404140 <_init+0x20>

0000000000404680 <_ZN11arm_compute8CLTensorC1Ev@plt>:
  404680:	ff 25 2a 5c 21 00    	jmpq   *0x215c2a(%rip)        # 61a2b0 <_GLOBAL_OFFSET_TABLE_+0x2b0>
  404686:	68 53 00 00 00       	pushq  $0x53
  40468b:	e9 b0 fa ff ff       	jmpq   404140 <_init+0x20>

0000000000404690 <__cxa_pure_virtual@plt>:
  404690:	ff 25 22 5c 21 00    	jmpq   *0x215c22(%rip)        # 61a2b8 <_GLOBAL_OFFSET_TABLE_+0x2b8>
  404696:	68 54 00 00 00       	pushq  $0x54
  40469b:	e9 a0 fa ff ff       	jmpq   404140 <_init+0x20>

00000000004046a0 <xopenme_get_timer@plt>:
  4046a0:	ff 25 1a 5c 21 00    	jmpq   *0x215c1a(%rip)        # 61a2c0 <_GLOBAL_OFFSET_TABLE_+0x2c0>
  4046a6:	68 55 00 00 00       	pushq  $0x55
  4046ab:	e9 90 fa ff ff       	jmpq   404140 <_init+0x20>

00000000004046b0 <_ZNSt8ios_base4InitD1Ev@plt>:
  4046b0:	ff 25 12 5c 21 00    	jmpq   *0x215c12(%rip)        # 61a2c8 <_GLOBAL_OFFSET_TABLE_+0x2c8>
  4046b6:	68 56 00 00 00       	pushq  $0x56
  4046bb:	e9 80 fa ff ff       	jmpq   404140 <_init+0x20>

Disassembly of section .plt.got:

00000000004046c0 <.plt.got>:
  4046c0:	ff 25 32 59 21 00    	jmpq   *0x215932(%rip)        # 619ff8 <_DYNAMIC+0x230>
  4046c6:	66 90                	xchg   %ax,%ax

Disassembly of section .text:

00000000004046d0 <_start>:
  4046d0:	31 ed                	xor    %ebp,%ebp
  4046d2:	49 89 d1             	mov    %rdx,%r9
  4046d5:	5e                   	pop    %rsi
  4046d6:	48 89 e2             	mov    %rsp,%rdx
  4046d9:	48 83 e4 f0          	and    $0xfffffffffffffff0,%rsp
  4046dd:	50                   	push   %rax
  4046de:	54                   	push   %rsp
  4046df:	49 c7 c0 e0 0f 41 00 	mov    $0x410fe0,%r8
  4046e6:	48 c7 c1 70 0f 41 00 	mov    $0x410f70,%rcx
  4046ed:	48 c7 c7 cf 4d 40 00 	mov    $0x404dcf,%rdi
  4046f4:	e8 67 ff ff ff       	callq  404660 <__libc_start_main@plt>
  4046f9:	f4                   	hlt    
  4046fa:	66 0f 1f 44 00 00    	nopw   0x0(%rax,%rax,1)

0000000000404700 <deregister_tm_clones>:
  404700:	b8 e7 a2 61 00       	mov    $0x61a2e7,%eax
  404705:	55                   	push   %rbp
  404706:	48 2d e0 a2 61 00    	sub    $0x61a2e0,%rax
  40470c:	48 83 f8 0e          	cmp    $0xe,%rax
  404710:	48 89 e5             	mov    %rsp,%rbp
  404713:	76 1b                	jbe    404730 <deregister_tm_clones+0x30>
  404715:	b8 00 00 00 00       	mov    $0x0,%eax
  40471a:	48 85 c0             	test   %rax,%rax
  40471d:	74 11                	je     404730 <deregister_tm_clones+0x30>
  40471f:	5d                   	pop    %rbp
  404720:	bf e0 a2 61 00       	mov    $0x61a2e0,%edi
  404725:	ff e0                	jmpq   *%rax
  404727:	66 0f 1f 84 00 00 00 	nopw   0x0(%rax,%rax,1)
  40472e:	00 00 
  404730:	5d                   	pop    %rbp
  404731:	c3                   	retq   
  404732:	0f 1f 40 00          	nopl   0x0(%rax)
  404736:	66 2e 0f 1f 84 00 00 	nopw   %cs:0x0(%rax,%rax,1)
  40473d:	00 00 00 

0000000000404740 <register_tm_clones>:
  404740:	be e0 a2 61 00       	mov    $0x61a2e0,%esi
  404745:	55                   	push   %rbp
  404746:	48 81 ee e0 a2 61 00 	sub    $0x61a2e0,%rsi
  40474d:	48 c1 fe 03          	sar    $0x3,%rsi
  404751:	48 89 e5             	mov    %rsp,%rbp
  404754:	48 89 f0             	mov    %rsi,%rax
  404757:	48 c1 e8 3f          	shr    $0x3f,%rax
  40475b:	48 01 c6             	add    %rax,%rsi
  40475e:	48 d1 fe             	sar    %rsi
  404761:	74 15                	je     404778 <register_tm_clones+0x38>
  404763:	b8 00 00 00 00       	mov    $0x0,%eax
  404768:	48 85 c0             	test   %rax,%rax
  40476b:	74 0b                	je     404778 <register_tm_clones+0x38>
  40476d:	5d                   	pop    %rbp
  40476e:	bf e0 a2 61 00       	mov    $0x61a2e0,%edi
  404773:	ff e0                	jmpq   *%rax
  404775:	0f 1f 00             	nopl   (%rax)
  404778:	5d                   	pop    %rbp
  404779:	c3                   	retq   
  40477a:	66 0f 1f 44 00 00    	nopw   0x0(%rax,%rax,1)

0000000000404780 <__do_global_dtors_aux>:
  404780:	80 3d 49 5f 21 00 00 	cmpb   $0x0,0x215f49(%rip)        # 61a6d0 <completed.7593>
  404787:	75 11                	jne    40479a <__do_global_dtors_aux+0x1a>
  404789:	55                   	push   %rbp
  40478a:	48 89 e5             	mov    %rsp,%rbp
  40478d:	e8 6e ff ff ff       	callq  404700 <deregister_tm_clones>
  404792:	5d                   	pop    %rbp
  404793:	c6 05 36 5f 21 00 01 	movb   $0x1,0x215f36(%rip)        # 61a6d0 <completed.7593>
  40479a:	f3 c3                	repz retq 
  40479c:	0f 1f 40 00          	nopl   0x0(%rax)

00000000004047a0 <frame_dummy>:
  4047a0:	bf c0 9d 61 00       	mov    $0x619dc0,%edi
  4047a5:	48 83 3f 00          	cmpq   $0x0,(%rdi)
  4047a9:	75 05                	jne    4047b0 <frame_dummy+0x10>
  4047ab:	eb 93                	jmp    404740 <register_tm_clones>
  4047ad:	0f 1f 00             	nopl   (%rax)
  4047b0:	b8 00 00 00 00       	mov    $0x0,%eax
  4047b5:	48 85 c0             	test   %rax,%rax
  4047b8:	74 f1                	je     4047ab <frame_dummy+0xb>
  4047ba:	55                   	push   %rbp
  4047bb:	48 89 e5             	mov    %rsp,%rbp
  4047be:	ff d0                	callq  *%rax
  4047c0:	5d                   	pop    %rbp
  4047c1:	e9 7a ff ff ff       	jmpq   404740 <register_tm_clones>

00000000004047c6 <_ZL18__gthread_active_pv>:
  4047c6:	55                   	push   %rbp
  4047c7:	48 89 e5             	mov    %rsp,%rbp
  4047ca:	b8 01 00 00 00       	mov    $0x1,%eax
  4047cf:	ba b0 45 40 00       	mov    $0x4045b0,%edx
  4047d4:	48 85 d2             	test   %rdx,%rdx
  4047d7:	75 05                	jne    4047de <_ZL18__gthread_active_pv+0x18>
  4047d9:	b8 00 00 00 00       	mov    $0x0,%eax
  4047de:	0f b6 c0             	movzbl %al,%eax
  4047e1:	5d                   	pop    %rbp
  4047e2:	c3                   	retq   

00000000004047e3 <_ZL14__gthread_oncePiPFvvE>:
  4047e3:	55                   	push   %rbp
  4047e4:	48 89 e5             	mov    %rsp,%rbp
  4047e7:	48 83 ec 10          	sub    $0x10,%rsp
  4047eb:	48 89 7d f8          	mov    %rdi,-0x8(%rbp)
  4047ef:	48 89 75 f0          	mov    %rsi,-0x10(%rbp)
  4047f3:	e8 ce ff ff ff       	callq  4047c6 <_ZL18__gthread_active_pv>
  4047f8:	85 c0                	test   %eax,%eax
  4047fa:	0f 95 c0             	setne  %al
  4047fd:	84 c0                	test   %al,%al
  4047ff:	74 15                	je     404816 <_ZL14__gthread_oncePiPFvvE+0x33>
  404801:	48 8b 55 f0          	mov    -0x10(%rbp),%rdx
  404805:	48 8b 45 f8          	mov    -0x8(%rbp),%rax
  404809:	48 89 d6             	mov    %rdx,%rsi
  40480c:	48 89 c7             	mov    %rax,%rdi
  40480f:	e8 7c fd ff ff       	callq  404590 <pthread_once@plt>
  404814:	eb 05                	jmp    40481b <_ZL14__gthread_oncePiPFvvE+0x38>
  404816:	b8 ff ff ff ff       	mov    $0xffffffff,%eax
  40481b:	c9                   	leaveq 
  40481c:	c3                   	retq   

000000000040481d <_ZN9__gnu_cxxL18__exchange_and_addEPVii>:
  40481d:	55                   	push   %rbp
  40481e:	48 89 e5             	mov    %rsp,%rbp
  404821:	48 89 7d f8          	mov    %rdi,-0x8(%rbp)
  404825:	89 75 f4             	mov    %esi,-0xc(%rbp)
  404828:	8b 55 f4             	mov    -0xc(%rbp),%edx
  40482b:	48 8b 45 f8          	mov    -0x8(%rbp),%rax
  40482f:	f0 0f c1 10          	lock xadd %edx,(%rax)
  404833:	89 d0                	mov    %edx,%eax
  404835:	5d                   	pop    %rbp
  404836:	c3                   	retq   

0000000000404837 <_ZN9__gnu_cxxL25__exchange_and_add_singleEPii>:
  404837:	55                   	push   %rbp
  404838:	48 89 e5             	mov    %rsp,%rbp
  40483b:	48 89 7d e8          	mov    %rdi,-0x18(%rbp)
  40483f:	89 75 e4             	mov    %esi,-0x1c(%rbp)
  404842:	48 8b 45 e8          	mov    -0x18(%rbp),%rax
  404846:	8b 00                	mov    (%rax),%eax
  404848:	89 45 fc             	mov    %eax,-0x4(%rbp)
  40484b:	48 8b 45 e8          	mov    -0x18(%rbp),%rax
  40484f:	8b 10                	mov    (%rax),%edx
  404851:	8b 45 e4             	mov    -0x1c(%rbp),%eax
  404854:	01 c2                	add    %eax,%edx
  404856:	48 8b 45 e8          	mov    -0x18(%rbp),%rax
  40485a:	89 10                	mov    %edx,(%rax)
  40485c:	8b 45 fc             	mov    -0x4(%rbp),%eax
  40485f:	5d                   	pop    %rbp
  404860:	c3                   	retq   

0000000000404861 <_ZN9__gnu_cxxL27__exchange_and_add_dispatchEPii>:
  404861:	55                   	push   %rbp
  404862:	48 89 e5             	mov    %rsp,%rbp
  404865:	48 83 ec 10          	sub    $0x10,%rsp
  404869:	48 89 7d f8          	mov    %rdi,-0x8(%rbp)
  40486d:	89 75 f4             	mov    %esi,-0xc(%rbp)
  404870:	e8 51 ff ff ff       	callq  4047c6 <_ZL18__gthread_active_pv>
  404875:	85 c0                	test   %eax,%eax
  404877:	0f 95 c0             	setne  %al
  40487a:	84 c0                	test   %al,%al
  40487c:	74 13                	je     404891 <_ZN9__gnu_cxxL27__exchange_and_add_dispatchEPii+0x30>
  40487e:	8b 55 f4             	mov    -0xc(%rbp),%edx
  404881:	48 8b 45 f8          	mov    -0x8(%rbp),%rax
  404885:	89 d6                	mov    %edx,%esi
  404887:	48 89 c7             	mov    %rax,%rdi
  40488a:	e8 8e ff ff ff       	callq  40481d <_ZN9__gnu_cxxL18__exchange_and_addEPVii>
  40488f:	eb 11                	jmp    4048a2 <_ZN9__gnu_cxxL27__exchange_and_add_dispatchEPii+0x41>
  404891:	8b 55 f4             	mov    -0xc(%rbp),%edx
  404894:	48 8b 45 f8          	mov    -0x8(%rbp),%rax
  404898:	89 d6                	mov    %edx,%esi
  40489a:	48 89 c7             	mov    %rax,%rdi
  40489d:	e8 95 ff ff ff       	callq  404837 <_ZN9__gnu_cxxL25__exchange_and_add_singleEPii>
  4048a2:	c9                   	leaveq 
  4048a3:	c3                   	retq   

00000000004048a4 <_ZN2cl6detailL10errHandlerEiPKc>:
  4048a4:	55                   	push   %rbp
  4048a5:	48 89 e5             	mov    %rsp,%rbp
  4048a8:	53                   	push   %rbx
  4048a9:	48 83 ec 18          	sub    $0x18,%rsp
  4048ad:	89 7d ec             	mov    %edi,-0x14(%rbp)
  4048b0:	48 89 75 e0          	mov    %rsi,-0x20(%rbp)
  4048b4:	83 7d ec 00          	cmpl   $0x0,-0x14(%rbp)
  4048b8:	74 30                	je     4048ea <_ZN2cl6detailL10errHandlerEiPKc+0x46>
  4048ba:	bf 18 00 00 00       	mov    $0x18,%edi
  4048bf:	e8 ec f9 ff ff       	callq  4042b0 <__cxa_allocate_exception@plt>
  4048c4:	48 89 c3             	mov    %rax,%rbx
  4048c7:	48 8b 55 e0          	mov    -0x20(%rbp),%rdx
  4048cb:	8b 45 ec             	mov    -0x14(%rbp),%eax
  4048ce:	89 c6                	mov    %eax,%esi
  4048d0:	48 89 df             	mov    %rbx,%rdi
  4048d3:	e8 d6 0c 00 00       	callq  4055ae <_ZN2cl5ErrorC1EiPKc>
  4048d8:	ba f2 55 40 00       	mov    $0x4055f2,%edx
  4048dd:	be 98 17 41 00       	mov    $0x411798,%esi
  4048e2:	48 89 df             	mov    %rbx,%rdi
  4048e5:	e8 06 fd ff ff       	callq  4045f0 <__cxa_throw@plt>
  4048ea:	8b 45 ec             	mov    -0x14(%rbp),%eax
  4048ed:	48 83 c4 18          	add    $0x18,%rsp
  4048f1:	5b                   	pop    %rbx
  4048f2:	5d                   	pop    %rbp
  4048f3:	c3                   	retq   

00000000004048f4 <_ZN2cl6detailL10getVersionERKSt6vectorIcSaIcEE>:
  4048f4:	55                   	push   %rbp
  4048f5:	48 89 e5             	mov    %rsp,%rbp
  4048f8:	48 83 ec 20          	sub    $0x20,%rsp
  4048fc:	48 89 7d e8          	mov    %rdi,-0x18(%rbp)
  404900:	c7 45 f4 00 00 00 00 	movl   $0x0,-0xc(%rbp)
  404907:	c7 45 f8 00 00 00 00 	movl   $0x0,-0x8(%rbp)
  40490e:	c7 45 fc 07 00 00 00 	movl   $0x7,-0x4(%rbp)
  404915:	8b 45 fc             	mov    -0x4(%rbp),%eax
  404918:	48 63 d0             	movslq %eax,%rdx
  40491b:	48 8b 45 e8          	mov    -0x18(%rbp),%rax
  40491f:	48 89 d6             	mov    %rdx,%rsi
  404922:	48 89 c7             	mov    %rax,%rdi
  404925:	e8 ac 3d 00 00       	callq  4086d6 <_ZNKSt6vectorIcSaIcEEixEm>
  40492a:	0f b6 00             	movzbl (%rax),%eax
  40492d:	3c 2e                	cmp    $0x2e,%al
  40492f:	0f 95 c0             	setne  %al
  404932:	84 c0                	test   %al,%al
  404934:	74 36                	je     40496c <_ZN2cl6detailL10getVersionERKSt6vectorIcSaIcEE+0x78>
  404936:	8b 55 f4             	mov    -0xc(%rbp),%edx
  404939:	89 d0                	mov    %edx,%eax
  40493b:	c1 e0 02             	shl    $0x2,%eax
  40493e:	01 d0                	add    %edx,%eax
  404940:	01 c0                	add    %eax,%eax
  404942:	89 45 f4             	mov    %eax,-0xc(%rbp)
  404945:	8b 45 fc             	mov    -0x4(%rbp),%eax
  404948:	48 63 d0             	movslq %eax,%rdx
  40494b:	48 8b 45 e8          	mov    -0x18(%rbp),%rax
  40494f:	48 89 d6             	mov    %rdx,%rsi
  404952:	48 89 c7             	mov    %rax,%rdi
  404955:	e8 7c 3d 00 00       	callq  4086d6 <_ZNKSt6vectorIcSaIcEEixEm>
  40495a:	0f b6 00             	movzbl (%rax),%eax
  40495d:	0f be c0             	movsbl %al,%eax
  404960:	83 e8 30             	sub    $0x30,%eax
  404963:	01 45 f4             	add    %eax,-0xc(%rbp)
  404966:	83 45 fc 01          	addl   $0x1,-0x4(%rbp)
  40496a:	eb a9                	jmp    404915 <_ZN2cl6detailL10getVersionERKSt6vectorIcSaIcEE+0x21>
  40496c:	83 45 fc 01          	addl   $0x1,-0x4(%rbp)
  404970:	8b 45 fc             	mov    -0x4(%rbp),%eax
  404973:	48 63 d0             	movslq %eax,%rdx
  404976:	48 8b 45 e8          	mov    -0x18(%rbp),%rax
  40497a:	48 89 d6             	mov    %rdx,%rsi
  40497d:	48 89 c7             	mov    %rax,%rdi
  404980:	e8 51 3d 00 00       	callq  4086d6 <_ZNKSt6vectorIcSaIcEEixEm>
  404985:	0f b6 00             	movzbl (%rax),%eax
  404988:	3c 20                	cmp    $0x20,%al
  40498a:	74 23                	je     4049af <_ZN2cl6detailL10getVersionERKSt6vectorIcSaIcEE+0xbb>
  40498c:	8b 45 fc             	mov    -0x4(%rbp),%eax
  40498f:	48 63 d0             	movslq %eax,%rdx
  404992:	48 8b 45 e8          	mov    -0x18(%rbp),%rax
  404996:	48 89 d6             	mov    %rdx,%rsi
  404999:	48 89 c7             	mov    %rax,%rdi
  40499c:	e8 35 3d 00 00       	callq  4086d6 <_ZNKSt6vectorIcSaIcEEixEm>
  4049a1:	0f b6 00             	movzbl (%rax),%eax
  4049a4:	84 c0                	test   %al,%al
  4049a6:	74 07                	je     4049af <_ZN2cl6detailL10getVersionERKSt6vectorIcSaIcEE+0xbb>
  4049a8:	b8 01 00 00 00       	mov    $0x1,%eax
  4049ad:	eb 05                	jmp    4049b4 <_ZN2cl6detailL10getVersionERKSt6vectorIcSaIcEE+0xc0>
  4049af:	b8 00 00 00 00       	mov    $0x0,%eax
  4049b4:	84 c0                	test   %al,%al
  4049b6:	74 36                	je     4049ee <_ZN2cl6detailL10getVersionERKSt6vectorIcSaIcEE+0xfa>
  4049b8:	8b 55 f8             	mov    -0x8(%rbp),%edx
  4049bb:	89 d0                	mov    %edx,%eax
  4049bd:	c1 e0 02             	shl    $0x2,%eax
  4049c0:	01 d0                	add    %edx,%eax
  4049c2:	01 c0                	add    %eax,%eax
  4049c4:	89 45 f8             	mov    %eax,-0x8(%rbp)
  4049c7:	8b 45 fc             	mov    -0x4(%rbp),%eax
  4049ca:	48 63 d0             	movslq %eax,%rdx
  4049cd:	48 8b 45 e8          	mov    -0x18(%rbp),%rax
  4049d1:	48 89 d6             	mov    %rdx,%rsi
  4049d4:	48 89 c7             	mov    %rax,%rdi
  4049d7:	e8 fa 3c 00 00       	callq  4086d6 <_ZNKSt6vectorIcSaIcEEixEm>
  4049dc:	0f b6 00             	movzbl (%rax),%eax
  4049df:	0f be c0             	movsbl %al,%eax
  4049e2:	83 e8 30             	sub    $0x30,%eax
  4049e5:	01 45 f8             	add    %eax,-0x8(%rbp)
  4049e8:	83 45 fc 01          	addl   $0x1,-0x4(%rbp)
  4049ec:	eb 82                	jmp    404970 <_ZN2cl6detailL10getVersionERKSt6vectorIcSaIcEE+0x7c>
  4049ee:	8b 45 f4             	mov    -0xc(%rbp),%eax
  4049f1:	c1 e0 10             	shl    $0x10,%eax
  4049f4:	0b 45 f8             	or     -0x8(%rbp),%eax
  4049f7:	c9                   	leaveq 
  4049f8:	c3                   	retq   

00000000004049f9 <_ZN2CK16store_setup_timeEf>:
  4049f9:	55                   	push   %rbp
  4049fa:	48 89 e5             	mov    %rsp,%rbp
  4049fd:	48 83 ec 10          	sub    $0x10,%rsp
  404a01:	f3 0f 11 45 fc       	movss  %xmm0,-0x4(%rbp)
  404a06:	8b 45 fc             	mov    -0x4(%rbp),%eax
  404a09:	89 45 f8             	mov    %eax,-0x8(%rbp)
  404a0c:	f3 0f 10 45 f8       	movss  -0x8(%rbp),%xmm0
  404a11:	be f8 11 41 00       	mov    $0x4111f8,%esi
  404a16:	bf 0a 00 00 00       	mov    $0xa,%edi
  404a1b:	e8 10 32 00 00       	callq  407c30 <_ZN2CK13store_value_fEiPKcf>
  404a20:	90                   	nop
  404a21:	c9                   	leaveq 
  404a22:	c3                   	retq   

0000000000404a23 <_ZN2CK15store_test_timeEf>:
  404a23:	55                   	push   %rbp
  404a24:	48 89 e5             	mov    %rsp,%rbp
  404a27:	48 83 ec 10          	sub    $0x10,%rsp
  404a2b:	f3 0f 11 45 fc       	movss  %xmm0,-0x4(%rbp)
  404a30:	8b 45 fc             	mov    -0x4(%rbp),%eax
  404a33:	89 45 f8             	mov    %eax,-0x8(%rbp)
  404a36:	f3 0f 10 45 f8       	movss  -0x8(%rbp),%xmm0
  404a3b:	be 03 12 41 00       	mov    $0x411203,%esi
  404a40:	bf 0b 00 00 00       	mov    $0xb,%edi
  404a45:	e8 e6 31 00 00       	callq  407c30 <_ZN2CK13store_value_fEiPKcf>
  404a4a:	90                   	nop
  404a4b:	c9                   	leaveq 
  404a4c:	c3                   	retq   

0000000000404a4d <_ZN2CK5armcl15printf_callbackEPKcjmPv>:
  404a4d:	55                   	push   %rbp
  404a4e:	48 89 e5             	mov    %rsp,%rbp
  404a51:	48 83 ec 20          	sub    $0x20,%rsp
  404a55:	48 89 7d f8          	mov    %rdi,-0x8(%rbp)
  404a59:	89 75 f4             	mov    %esi,-0xc(%rbp)
  404a5c:	48 89 55 e8          	mov    %rdx,-0x18(%rbp)
  404a60:	48 89 4d e0          	mov    %rcx,-0x20(%rbp)
  404a64:	48 8b 55 f8          	mov    -0x8(%rbp),%rdx
  404a68:	8b 45 f4             	mov    -0xc(%rbp),%eax
  404a6b:	89 c6                	mov    %eax,%esi
  404a6d:	bf 0d 12 41 00       	mov    $0x41120d,%edi
  404a72:	b8 00 00 00 00       	mov    $0x0,%eax
  404a77:	e8 f4 f6 ff ff       	callq  404170 <printf@plt>
  404a7c:	90                   	nop
  404a7d:	c9                   	leaveq 
  404a7e:	c3                   	retq   
  404a7f:	90                   	nop

0000000000404a80 <_ZZ4mainENKUlvE_clEv>:
  404a80:	55                   	push   %rbp
  404a81:	48 89 e5             	mov    %rsp,%rbp
  404a84:	53                   	push   %rbx
  404a85:	48 81 ec e8 01 00 00 	sub    $0x1e8,%rsp
  404a8c:	48 89 bd 18 fe ff ff 	mov    %rdi,-0x1e8(%rbp)
  404a93:	64 48 8b 04 25 28 00 	mov    %fs:0x28,%rax
  404a9a:	00 00 
  404a9c:	48 89 45 e8          	mov    %rax,-0x18(%rbp)
  404aa0:	31 c0                	xor    %eax,%eax
  404aa2:	48 8b 85 18 fe ff ff 	mov    -0x1e8(%rbp),%rax
  404aa9:	48 8b 00             	mov    (%rax),%rax
  404aac:	8b 00                	mov    (%rax),%eax
  404aae:	89 c7                	mov    %eax,%edi
  404ab0:	48 8b 85 18 fe ff ff 	mov    -0x1e8(%rbp),%rax
  404ab7:	48 8b 00             	mov    (%rax),%rax
  404aba:	8b 40 04             	mov    0x4(%rax),%eax
  404abd:	89 c1                	mov    %eax,%ecx
  404abf:	48 8b 85 18 fe ff ff 	mov    -0x1e8(%rbp),%rax
  404ac6:	48 8b 00             	mov    (%rax),%rax
  404ac9:	8b 40 08             	mov    0x8(%rax),%eax
  404acc:	89 c2                	mov    %eax,%edx
  404ace:	48 8b 85 18 fe ff ff 	mov    -0x1e8(%rbp),%rax
  404ad5:	48 8b 00             	mov    (%rax),%rax
  404ad8:	8b 40 0c             	mov    0xc(%rax),%eax
  404adb:	89 c6                	mov    %eax,%esi
  404add:	48 8d 85 40 fe ff ff 	lea    -0x1c0(%rbp),%rax
  404ae4:	41 89 f8             	mov    %edi,%r8d
  404ae7:	48 89 c7             	mov    %rax,%rdi
  404aea:	e8 97 49 00 00       	callq  409486 <_ZN11arm_compute11TensorShapeC1IJjjjjEEEDpT_>
  404aef:	48 8b 85 18 fe ff ff 	mov    -0x1e8(%rbp),%rax
  404af6:	48 8b 00             	mov    (%rax),%rax
  404af9:	8b 00                	mov    (%rax),%eax
  404afb:	89 c7                	mov    %eax,%edi
  404afd:	48 8b 85 18 fe ff ff 	mov    -0x1e8(%rbp),%rax
  404b04:	48 8b 40 08          	mov    0x8(%rax),%rax
  404b08:	8b 40 04             	mov    0x4(%rax),%eax
  404b0b:	89 c1                	mov    %eax,%ecx
  404b0d:	48 8b 85 18 fe ff ff 	mov    -0x1e8(%rbp),%rax
  404b14:	48 8b 40 08          	mov    0x8(%rax),%rax
  404b18:	8b 40 08             	mov    0x8(%rax),%eax
  404b1b:	89 c2                	mov    %eax,%edx
  404b1d:	48 8b 85 18 fe ff ff 	mov    -0x1e8(%rbp),%rax
  404b24:	48 8b 40 08          	mov    0x8(%rax),%rax
  404b28:	8b 40 0c             	mov    0xc(%rax),%eax
  404b2b:	89 c6                	mov    %eax,%esi
  404b2d:	48 8d 85 80 fe ff ff 	lea    -0x180(%rbp),%rax
  404b34:	41 89 f8             	mov    %edi,%r8d
  404b37:	48 89 c7             	mov    %rax,%rdi
  404b3a:	e8 47 49 00 00       	callq  409486 <_ZN11arm_compute11TensorShapeC1IJjjjjEEEDpT_>
  404b3f:	48 8d 8d 40 fe ff ff 	lea    -0x1c0(%rbp),%rcx
  404b46:	48 8d 85 c0 fe ff ff 	lea    -0x140(%rbp),%rax
  404b4d:	ba 07 00 00 00       	mov    $0x7,%edx
  404b52:	48 89 ce             	mov    %rcx,%rsi
  404b55:	48 89 c7             	mov    %rax,%rdi
  404b58:	e8 83 fa ff ff       	callq  4045e0 <_ZN11arm_compute10TensorInfoC1ERKNS_11TensorShapeENS_6FormatE@plt>
  404b5d:	48 8b 85 18 fe ff ff 	mov    -0x1e8(%rbp),%rax
  404b64:	48 8b 40 10          	mov    0x10(%rax),%rax
  404b68:	48 89 c7             	mov    %rax,%rdi
  404b6b:	e8 70 f8 ff ff       	callq  4043e0 <_ZN11arm_compute8CLTensor9allocatorEv@plt>
  404b70:	48 89 c2             	mov    %rax,%rdx
  404b73:	48 8d 85 c0 fe ff ff 	lea    -0x140(%rbp),%rax
  404b7a:	48 89 c6             	mov    %rax,%rsi
  404b7d:	48 89 d7             	mov    %rdx,%rdi
  404b80:	e8 3b f8 ff ff       	callq  4043c0 <_ZN11arm_compute16ITensorAllocator4initERKNS_10TensorInfoE@plt>
  404b85:	48 8d 85 c0 fe ff ff 	lea    -0x140(%rbp),%rax
  404b8c:	48 89 c7             	mov    %rax,%rdi
  404b8f:	e8 e8 8a 00 00       	callq  40d67c <_ZN11arm_compute10TensorInfoD1Ev>
  404b94:	48 8d 8d 80 fe ff ff 	lea    -0x180(%rbp),%rcx
  404b9b:	48 8d 85 c0 fe ff ff 	lea    -0x140(%rbp),%rax
  404ba2:	ba 07 00 00 00       	mov    $0x7,%edx
  404ba7:	48 89 ce             	mov    %rcx,%rsi
  404baa:	48 89 c7             	mov    %rax,%rdi
  404bad:	e8 2e fa ff ff       	callq  4045e0 <_ZN11arm_compute10TensorInfoC1ERKNS_11TensorShapeENS_6FormatE@plt>
  404bb2:	48 8b 85 18 fe ff ff 	mov    -0x1e8(%rbp),%rax
  404bb9:	48 8b 40 18          	mov    0x18(%rax),%rax
  404bbd:	48 89 c7             	mov    %rax,%rdi
  404bc0:	e8 1b f8 ff ff       	callq  4043e0 <_ZN11arm_compute8CLTensor9allocatorEv@plt>
  404bc5:	48 89 c2             	mov    %rax,%rdx
  404bc8:	48 8d 85 c0 fe ff ff 	lea    -0x140(%rbp),%rax
  404bcf:	48 89 c6             	mov    %rax,%rsi
  404bd2:	48 89 d7             	mov    %rdx,%rdi
  404bd5:	e8 e6 f7 ff ff       	callq  4043c0 <_ZN11arm_compute16ITensorAllocator4initERKNS_10TensorInfoE@plt>
  404bda:	48 8d 85 c0 fe ff ff 	lea    -0x140(%rbp),%rax
  404be1:	48 89 c7             	mov    %rax,%rdi
  404be4:	e8 93 8a 00 00       	callq  40d67c <_ZN11arm_compute10TensorInfoD1Ev>
  404be9:	c7 85 2c fe ff ff 01 	movl   $0x1,-0x1d4(%rbp)
  404bf0:	00 00 00 
  404bf3:	c7 85 30 fe ff ff 00 	movl   $0x0,-0x1d0(%rbp)
  404bfa:	00 00 00 
  404bfd:	be 00 00 00 00       	mov    $0x0,%esi
  404c02:	bf 52 12 41 00       	mov    $0x411252,%edi
  404c07:	e8 77 2f 00 00       	callq  407b83 <_ZN2CK8getenv_iEPKci>
  404c0c:	66 0f ef c0          	pxor   %xmm0,%xmm0
  404c10:	f3 0f 2a c0          	cvtsi2ss %eax,%xmm0
  404c14:	f3 0f 11 85 34 fe ff 	movss  %xmm0,-0x1cc(%rbp)
  404c1b:	ff 
  404c1c:	8b 95 34 fe ff ff    	mov    -0x1cc(%rbp),%edx
  404c22:	48 8d 85 c0 fe ff ff 	lea    -0x140(%rbp),%rax
  404c29:	89 95 14 fe ff ff    	mov    %edx,-0x1ec(%rbp)
  404c2f:	f3 0f 10 85 14 fe ff 	movss  -0x1ec(%rbp),%xmm0
  404c36:	ff 
  404c37:	48 89 c7             	mov    %rax,%rdi
  404c3a:	e8 9d 2a 00 00       	callq  4076dc <_ZN11arm_compute10PixelValueC1Ef>
  404c3f:	48 8b 85 18 fe ff ff 	mov    -0x1e8(%rbp),%rax
  404c46:	48 8b 40 18          	mov    0x18(%rax),%rax
  404c4a:	48 89 c7             	mov    %rax,%rdi
  404c4d:	48 8b 85 18 fe ff ff 	mov    -0x1e8(%rbp),%rax
  404c54:	48 8b 40 10          	mov    0x10(%rax),%rax
  404c58:	48 89 c6             	mov    %rax,%rsi
  404c5b:	48 8b 85 18 fe ff ff 	mov    -0x1e8(%rbp),%rax
  404c62:	48 8b 40 20          	mov    0x20(%rax),%rax
  404c66:	8b 8d 30 fe ff ff    	mov    -0x1d0(%rbp),%ecx
  404c6c:	8b 95 2c fe ff ff    	mov    -0x1d4(%rbp),%edx
  404c72:	48 83 ec 08          	sub    $0x8,%rsp
  404c76:	6a 01                	pushq  $0x1
  404c78:	4c 8b 8d c0 fe ff ff 	mov    -0x140(%rbp),%r9
  404c7f:	41 89 c8             	mov    %ecx,%r8d
  404c82:	89 d1                	mov    %edx,%ecx
  404c84:	48 89 fa             	mov    %rdi,%rdx
  404c87:	48 89 c7             	mov    %rax,%rdi
  404c8a:	e8 b1 f9 ff ff       	callq  404640 <_ZN11arm_compute7CLScale9configureEPNS_9ICLTensorES2_NS_19InterpolationPolicyENS_10BorderModeENS_10PixelValueENS_14SamplingPolicyE@plt>
  404c8f:	48 83 c4 10          	add    $0x10,%rsp
  404c93:	48 8b 85 18 fe ff ff 	mov    -0x1e8(%rbp),%rax
  404c9a:	48 8b 40 10          	mov    0x10(%rax),%rax
  404c9e:	48 89 c7             	mov    %rax,%rdi
  404ca1:	e8 3a f7 ff ff       	callq  4043e0 <_ZN11arm_compute8CLTensor9allocatorEv@plt>
  404ca6:	48 8b 10             	mov    (%rax),%rdx
  404ca9:	48 83 c2 10          	add    $0x10,%rdx
  404cad:	48 8b 12             	mov    (%rdx),%rdx
  404cb0:	48 89 c7             	mov    %rax,%rdi
  404cb3:	ff d2                	callq  *%rdx
  404cb5:	48 8b 85 18 fe ff ff 	mov    -0x1e8(%rbp),%rax
  404cbc:	48 8b 40 18          	mov    0x18(%rax),%rax
  404cc0:	48 89 c7             	mov    %rax,%rdi
  404cc3:	e8 18 f7 ff ff       	callq  4043e0 <_ZN11arm_compute8CLTensor9allocatorEv@plt>
  404cc8:	48 8b 10             	mov    (%rax),%rdx
  404ccb:	48 83 c2 10          	add    $0x10,%rdx
  404ccf:	48 8b 12             	mov    (%rdx),%rdx
  404cd2:	48 89 c7             	mov    %rax,%rdi
  404cd5:	ff d2                	callq  *%rdx
  404cd7:	48 8b 85 18 fe ff ff 	mov    -0x1e8(%rbp),%rax
  404cde:	48 8b 00             	mov    (%rax),%rax
  404ce1:	48 89 c7             	mov    %rax,%rdi
  404ce4:	e8 5d 48 00 00       	callq  409546 <_ZN2CK19get_random_raw_dataIfEEPT_RKNS_5ShapeE>
  404ce9:	48 89 85 38 fe ff ff 	mov    %rax,-0x1c8(%rbp)
  404cf0:	48 8b 85 18 fe ff ff 	mov    -0x1e8(%rbp),%rax
  404cf7:	48 8b 10             	mov    (%rax),%rdx
  404cfa:	48 8b 85 38 fe ff ff 	mov    -0x1c8(%rbp),%rax
  404d01:	48 89 d6             	mov    %rdx,%rsi
  404d04:	48 89 c7             	mov    %rax,%rdi
  404d07:	e8 21 49 00 00       	callq  40962d <_ZN2CK20print_input_raw_dataIfEEvPT_RKNS_5ShapeE>
  404d0c:	48 8b 85 18 fe ff ff 	mov    -0x1e8(%rbp),%rax
  404d13:	48 8b 10             	mov    (%rax),%rdx
  404d16:	48 8b 85 18 fe ff ff 	mov    -0x1e8(%rbp),%rax
  404d1d:	48 8b 40 10          	mov    0x10(%rax),%rax
  404d21:	48 8b 8d 38 fe ff ff 	mov    -0x1c8(%rbp),%rcx
  404d28:	48 89 ce             	mov    %rcx,%rsi
  404d2b:	48 89 c7             	mov    %rax,%rdi
  404d2e:	e8 8b 49 00 00       	callq  4096be <_ZN2CK5armcl23copy_raw_data_to_tensorIfEEvPN11arm_compute8CLTensorEPT_RKNS_5ShapeE>
  404d33:	48 83 bd 38 fe ff ff 	cmpq   $0x0,-0x1c8(%rbp)
  404d3a:	00 
  404d3b:	74 4b                	je     404d88 <_ZZ4mainENKUlvE_clEv+0x308>
  404d3d:	48 8b 85 38 fe ff ff 	mov    -0x1c8(%rbp),%rax
  404d44:	48 89 c7             	mov    %rax,%rdi
  404d47:	e8 04 f7 ff ff       	callq  404450 <_ZdaPv@plt>
  404d4c:	eb 3a                	jmp    404d88 <_ZZ4mainENKUlvE_clEv+0x308>
  404d4e:	48 89 c3             	mov    %rax,%rbx
  404d51:	48 8d 85 c0 fe ff ff 	lea    -0x140(%rbp),%rax
  404d58:	48 89 c7             	mov    %rax,%rdi
  404d5b:	e8 1c 89 00 00       	callq  40d67c <_ZN11arm_compute10TensorInfoD1Ev>
  404d60:	48 89 d8             	mov    %rbx,%rax
  404d63:	48 89 c7             	mov    %rax,%rdi
  404d66:	e8 95 f8 ff ff       	callq  404600 <_Unwind_Resume@plt>
  404d6b:	48 89 c3             	mov    %rax,%rbx
  404d6e:	48 8d 85 c0 fe ff ff 	lea    -0x140(%rbp),%rax
  404d75:	48 89 c7             	mov    %rax,%rdi
  404d78:	e8 ff 88 00 00       	callq  40d67c <_ZN11arm_compute10TensorInfoD1Ev>
  404d7d:	48 89 d8             	mov    %rbx,%rax
  404d80:	48 89 c7             	mov    %rax,%rdi
  404d83:	e8 78 f8 ff ff       	callq  404600 <_Unwind_Resume@plt>
  404d88:	90                   	nop
  404d89:	48 8b 45 e8          	mov    -0x18(%rbp),%rax
  404d8d:	64 48 33 04 25 28 00 	xor    %fs:0x28,%rax
  404d94:	00 00 
  404d96:	74 05                	je     404d9d <_ZZ4mainENKUlvE_clEv+0x31d>
  404d98:	e8 03 f6 ff ff       	callq  4043a0 <__stack_chk_fail@plt>
  404d9d:	48 8b 5d f8          	mov    -0x8(%rbp),%rbx
  404da1:	c9                   	leaveq 
  404da2:	c3                   	retq   
  404da3:	90                   	nop

0000000000404da4 <_ZZ4mainENKUlvE0_clEv>:
  404da4:	55                   	push   %rbp
  404da5:	48 89 e5             	mov    %rsp,%rbp
  404da8:	48 83 ec 10          	sub    $0x10,%rsp
  404dac:	48 89 7d f8          	mov    %rdi,-0x8(%rbp)
  404db0:	48 8b 45 f8          	mov    -0x8(%rbp),%rax
  404db4:	48 8b 00             	mov    (%rax),%rax
  404db7:	48 89 c7             	mov    %rax,%rdi
  404dba:	e8 b1 f5 ff ff       	callq  404370 <_ZN11arm_compute17ICLSimpleFunction3runEv@plt>
  404dbf:	e8 cc f3 ff ff       	callq  404190 <_ZN11arm_compute11CLScheduler3getEv@plt>
  404dc4:	48 89 c7             	mov    %rax,%rdi
  404dc7:	e8 a4 2c 00 00       	callq  407a70 <_ZN11arm_compute11CLScheduler4syncEv>
  404dcc:	90                   	nop
  404dcd:	c9                   	leaveq 
  404dce:	c3                   	retq   

0000000000404dcf <main>:
  404dcf:	55                   	push   %rbp
  404dd0:	48 89 e5             	mov    %rsp,%rbp
  404dd3:	41 54                	push   %r12
  404dd5:	53                   	push   %rbx
  404dd6:	48 81 ec 10 04 00 00 	sub    $0x410,%rsp
  404ddd:	64 48 8b 04 25 28 00 	mov    %fs:0x28,%rax
  404de4:	00 00 
  404de6:	48 89 45 e8          	mov    %rax,-0x18(%rbp)
  404dea:	31 c0                	xor    %eax,%eax
  404dec:	e8 d0 2f 00 00       	callq  407dc1 <_ZN2CK9init_testEv>
  404df1:	48 c7 85 f0 fb ff ff 	movq   $0x0,-0x410(%rbp)
  404df8:	00 00 00 00 
  404dfc:	bf 65 12 41 00       	mov    $0x411265,%edi
  404e01:	e8 ea f5 ff ff       	callq  4043f0 <getenv@plt>
  404e06:	48 85 c0             	test   %rax,%rax
  404e09:	0f 95 c0             	setne  %al
  404e0c:	88 85 ef fb ff ff    	mov    %al,-0x411(%rbp)
  404e12:	80 bd ef fb ff ff 00 	cmpb   $0x0,-0x411(%rbp)
  404e19:	74 1c                	je     404e37 <main+0x68>
  404e1b:	bf 40 00 00 00       	mov    $0x40,%edi
  404e20:	e8 3b f5 ff ff       	callq  404360 <_Znwm@plt>
  404e25:	48 89 c3             	mov    %rax,%rbx
  404e28:	48 89 df             	mov    %rbx,%rdi
  404e2b:	e8 96 8a 00 00       	callq  40d8c6 <_ZN11arm_compute13CLTuner_ScaleC1Ev>
  404e30:	48 89 9d f0 fb ff ff 	mov    %rbx,-0x410(%rbp)
  404e37:	48 8b 85 f0 fb ff ff 	mov    -0x410(%rbp),%rax
  404e3e:	48 89 c7             	mov    %rax,%rdi
  404e41:	e8 33 31 00 00       	callq  407f79 <_ZN2CK5armcl10init_armclEPN11arm_compute8ICLTunerE>
  404e46:	b9 01 00 00 00       	mov    $0x1,%ecx
  404e4b:	ba 01 00 00 00       	mov    $0x1,%edx
  404e50:	be 03 00 00 00       	mov    $0x3,%esi
  404e55:	bf 01 00 00 00       	mov    $0x1,%edi
  404e5a:	e8 4d 2e 00 00       	callq  407cac <_ZN2CK24get_input_shape_from_envEiiii>
  404e5f:	48 89 85 00 fc ff ff 	mov    %rax,-0x400(%rbp)
  404e66:	48 89 95 08 fc ff ff 	mov    %rdx,-0x3f8(%rbp)
  404e6d:	c7 85 10 fc ff ff 01 	movl   $0x1,-0x3f0(%rbp)
  404e74:	00 00 00 
  404e77:	c7 85 14 fc ff ff 01 	movl   $0x1,-0x3ec(%rbp)
  404e7e:	00 00 00 
  404e81:	c7 85 18 fc ff ff 01 	movl   $0x1,-0x3e8(%rbp)
  404e88:	00 00 00 
  404e8b:	c7 85 1c fc ff ff 01 	movl   $0x1,-0x3e4(%rbp)
  404e92:	00 00 00 
  404e95:	8b 85 00 fc ff ff    	mov    -0x400(%rbp),%eax
  404e9b:	89 85 10 fc ff ff    	mov    %eax,-0x3f0(%rbp)
  404ea1:	be 01 00 00 00       	mov    $0x1,%esi
  404ea6:	bf 79 12 41 00       	mov    $0x411279,%edi
  404eab:	e8 d3 2c 00 00       	callq  407b83 <_ZN2CK8getenv_iEPKci>
  404eb0:	89 85 18 fc ff ff    	mov    %eax,-0x3e8(%rbp)
  404eb6:	be 01 00 00 00       	mov    $0x1,%esi
  404ebb:	bf 88 12 41 00       	mov    $0x411288,%edi
  404ec0:	e8 be 2c 00 00       	callq  407b83 <_ZN2CK8getenv_iEPKci>
  404ec5:	89 85 1c fc ff ff    	mov    %eax,-0x3e4(%rbp)
  404ecb:	be 01 00 00 00       	mov    $0x1,%esi
  404ed0:	bf 97 12 41 00       	mov    $0x411297,%edi
  404ed5:	e8 a9 2c 00 00       	callq  407b83 <_ZN2CK8getenv_iEPKci>
  404eda:	89 85 14 fc ff ff    	mov    %eax,-0x3ec(%rbp)
  404ee0:	48 8d 85 10 fd ff ff 	lea    -0x2f0(%rbp),%rax
  404ee7:	48 89 c7             	mov    %rax,%rdi
  404eea:	e8 91 f7 ff ff       	callq  404680 <_ZN11arm_compute8CLTensorC1Ev@plt>
  404eef:	48 8d 85 80 fe ff ff 	lea    -0x180(%rbp),%rax
  404ef6:	48 89 c7             	mov    %rax,%rdi
  404ef9:	e8 82 f7 ff ff       	callq  404680 <_ZN11arm_compute8CLTensorC1Ev@plt>
  404efe:	48 8d 85 50 fc ff ff 	lea    -0x3b0(%rbp),%rax
  404f05:	48 89 c7             	mov    %rax,%rdi
  404f08:	e8 2b 34 00 00       	callq  408338 <_ZN11arm_compute7CLScaleC1Ev>
  404f0d:	48 8d 85 00 fc ff ff 	lea    -0x400(%rbp),%rax
  404f14:	48 89 85 20 fc ff ff 	mov    %rax,-0x3e0(%rbp)
  404f1b:	48 8d 85 10 fc ff ff 	lea    -0x3f0(%rbp),%rax
  404f22:	48 89 85 28 fc ff ff 	mov    %rax,-0x3d8(%rbp)
  404f29:	48 8d 85 10 fd ff ff 	lea    -0x2f0(%rbp),%rax
  404f30:	48 89 85 30 fc ff ff 	mov    %rax,-0x3d0(%rbp)
  404f37:	48 8d 85 80 fe ff ff 	lea    -0x180(%rbp),%rax
  404f3e:	48 89 85 38 fc ff ff 	mov    %rax,-0x3c8(%rbp)
  404f45:	48 8d 85 50 fc ff ff 	lea    -0x3b0(%rbp),%rax
  404f4c:	48 89 85 40 fc ff ff 	mov    %rax,-0x3c0(%rbp)
  404f53:	48 8d 85 20 fc ff ff 	lea    -0x3e0(%rbp),%rax
  404f5a:	48 89 c7             	mov    %rax,%rdi
  404f5d:	e8 e4 01 00 00       	callq  405146 <_ZN2CK13measure_setupIZ4mainEUlvE_EEvOT_>
  404f62:	48 8d 85 50 fc ff ff 	lea    -0x3b0(%rbp),%rax
  404f69:	48 89 85 20 fc ff ff 	mov    %rax,-0x3e0(%rbp)
  404f70:	48 8d 85 20 fc ff ff 	lea    -0x3e0(%rbp),%rax
  404f77:	48 89 c7             	mov    %rax,%rdi
  404f7a:	e8 fa 01 00 00       	callq  405179 <_ZN2CK12measure_testIZ4mainEUlvE0_EEvOT_>
  404f7f:	48 8d 85 10 fc ff ff 	lea    -0x3f0(%rbp),%rax
  404f86:	48 89 c7             	mov    %rax,%rdi
  404f89:	e8 4a 2b 00 00       	callq  407ad8 <_ZNK2CK5Shape10data_countEv>
  404f8e:	48 98                	cltq   
  404f90:	48 ba fe ff ff ff ff 	movabs $0x1ffffffffffffffe,%rdx
  404f97:	ff ff 1f 
  404f9a:	48 39 d0             	cmp    %rdx,%rax
  404f9d:	77 0e                	ja     404fad <main+0x1de>
  404f9f:	48 c1 e0 02          	shl    $0x2,%rax
  404fa3:	48 89 c7             	mov    %rax,%rdi
  404fa6:	e8 a5 f1 ff ff       	callq  404150 <_Znam@plt>
  404fab:	eb 05                	jmp    404fb2 <main+0x1e3>
  404fad:	e8 1e f5 ff ff       	callq  4044d0 <__cxa_throw_bad_array_new_length@plt>
  404fb2:	48 89 85 f8 fb ff ff 	mov    %rax,-0x408(%rbp)
  404fb9:	48 8d 95 10 fc ff ff 	lea    -0x3f0(%rbp),%rdx
  404fc0:	48 8b 8d f8 fb ff ff 	mov    -0x408(%rbp),%rcx
  404fc7:	48 8d 85 80 fe ff ff 	lea    -0x180(%rbp),%rax
  404fce:	48 89 ce             	mov    %rcx,%rsi
  404fd1:	48 89 c7             	mov    %rax,%rdi
  404fd4:	e8 d8 48 00 00       	callq  4098b1 <_ZN2CK5armcl25copy_raw_data_from_tensorIfEEvPN11arm_compute8CLTensorEPT_RKNS_5ShapeE>
  404fd9:	48 8d 95 10 fc ff ff 	lea    -0x3f0(%rbp),%rdx
  404fe0:	48 8b 85 f8 fb ff ff 	mov    -0x408(%rbp),%rax
  404fe7:	48 89 d6             	mov    %rdx,%rsi
  404fea:	48 89 c7             	mov    %rax,%rdi
  404fed:	e8 57 4a 00 00       	callq  409a49 <_ZN2CK21print_output_raw_dataIfEEvPT_RKNS_5ShapeE>
  404ff2:	48 8d 95 10 fc ff ff 	lea    -0x3f0(%rbp),%rdx
  404ff9:	48 8b 85 f8 fb ff ff 	mov    -0x408(%rbp),%rax
  405000:	48 89 d6             	mov    %rdx,%rsi
  405003:	48 89 c7             	mov    %rax,%rdi
  405006:	e8 6b 4a 00 00       	callq  409a76 <_ZN2CK20dump_output_raw_dataIfEEvPT_RKNS_5ShapeE>
  40500b:	48 83 bd f8 fb ff ff 	cmpq   $0x0,-0x408(%rbp)
  405012:	00 
  405013:	74 0f                	je     405024 <main+0x255>
  405015:	48 8b 85 f8 fb ff ff 	mov    -0x408(%rbp),%rax
  40501c:	48 89 c7             	mov    %rax,%rdi
  40501f:	e8 2c f4 ff ff       	callq  404450 <_ZdaPv@plt>
  405024:	48 8d 85 10 fd ff ff 	lea    -0x2f0(%rbp),%rax
  40502b:	48 89 c7             	mov    %rax,%rdi
  40502e:	e8 ad f3 ff ff       	callq  4043e0 <_ZN11arm_compute8CLTensor9allocatorEv@plt>
  405033:	48 8b 10             	mov    (%rax),%rdx
  405036:	48 83 c2 18          	add    $0x18,%rdx
  40503a:	48 8b 12             	mov    (%rdx),%rdx
  40503d:	48 89 c7             	mov    %rax,%rdi
  405040:	ff d2                	callq  *%rdx
  405042:	48 8d 85 80 fe ff ff 	lea    -0x180(%rbp),%rax
  405049:	48 89 c7             	mov    %rax,%rdi
  40504c:	e8 8f f3 ff ff       	callq  4043e0 <_ZN11arm_compute8CLTensor9allocatorEv@plt>
  405051:	48 8b 10             	mov    (%rax),%rdx
  405054:	48 83 c2 18          	add    $0x18,%rdx
  405058:	48 8b 12             	mov    (%rdx),%rdx
  40505b:	48 89 c7             	mov    %rax,%rdi
  40505e:	ff d2                	callq  *%rdx
  405060:	80 bd ef fb ff ff 00 	cmpb   $0x0,-0x411(%rbp)
  405067:	74 27                	je     405090 <main+0x2c1>
  405069:	48 83 bd f0 fb ff ff 	cmpq   $0x0,-0x410(%rbp)
  405070:	00 
  405071:	74 1d                	je     405090 <main+0x2c1>
  405073:	48 8b 85 f0 fb ff ff 	mov    -0x410(%rbp),%rax
  40507a:	48 8b 00             	mov    (%rax),%rax
  40507d:	48 83 c0 08          	add    $0x8,%rax
  405081:	48 8b 00             	mov    (%rax),%rax
  405084:	48 8b 95 f0 fb ff ff 	mov    -0x410(%rbp),%rdx
  40508b:	48 89 d7             	mov    %rdx,%rdi
  40508e:	ff d0                	callq  *%rax
  405090:	e8 76 2d 00 00       	callq  407e0b <_ZN2CK11finish_testEv>
  405095:	bb 00 00 00 00       	mov    $0x0,%ebx
  40509a:	48 8d 85 50 fc ff ff 	lea    -0x3b0(%rbp),%rax
  4050a1:	48 89 c7             	mov    %rax,%rdi
  4050a4:	e8 b3 82 00 00       	callq  40d35c <_ZN11arm_compute7CLScaleD1Ev>
  4050a9:	48 8d 85 80 fe ff ff 	lea    -0x180(%rbp),%rax
  4050b0:	48 89 c7             	mov    %rax,%rdi
  4050b3:	e8 8c 84 00 00       	callq  40d544 <_ZN11arm_compute8CLTensorD1Ev>
  4050b8:	48 8d 85 10 fd ff ff 	lea    -0x2f0(%rbp),%rax
  4050bf:	48 89 c7             	mov    %rax,%rdi
  4050c2:	e8 7d 84 00 00       	callq  40d544 <_ZN11arm_compute8CLTensorD1Ev>
  4050c7:	89 d8                	mov    %ebx,%eax
  4050c9:	48 8b 4d e8          	mov    -0x18(%rbp),%rcx
  4050cd:	64 48 33 0c 25 28 00 	xor    %fs:0x28,%rcx
  4050d4:	00 00 
  4050d6:	74 62                	je     40513a <main+0x36b>
  4050d8:	eb 5b                	jmp    405135 <main+0x366>
  4050da:	49 89 c4             	mov    %rax,%r12
  4050dd:	48 89 df             	mov    %rbx,%rdi
  4050e0:	e8 5b f2 ff ff       	callq  404340 <_ZdlPv@plt>
  4050e5:	4c 89 e0             	mov    %r12,%rax
  4050e8:	48 89 c7             	mov    %rax,%rdi
  4050eb:	e8 10 f5 ff ff       	callq  404600 <_Unwind_Resume@plt>
  4050f0:	48 89 c3             	mov    %rax,%rbx
  4050f3:	48 8d 85 50 fc ff ff 	lea    -0x3b0(%rbp),%rax
  4050fa:	48 89 c7             	mov    %rax,%rdi
  4050fd:	e8 5a 82 00 00       	callq  40d35c <_ZN11arm_compute7CLScaleD1Ev>
  405102:	eb 03                	jmp    405107 <main+0x338>
  405104:	48 89 c3             	mov    %rax,%rbx
  405107:	48 8d 85 80 fe ff ff 	lea    -0x180(%rbp),%rax
  40510e:	48 89 c7             	mov    %rax,%rdi
  405111:	e8 2e 84 00 00       	callq  40d544 <_ZN11arm_compute8CLTensorD1Ev>
  405116:	eb 03                	jmp    40511b <main+0x34c>
  405118:	48 89 c3             	mov    %rax,%rbx
  40511b:	48 8d 85 10 fd ff ff 	lea    -0x2f0(%rbp),%rax
  405122:	48 89 c7             	mov    %rax,%rdi
  405125:	e8 1a 84 00 00       	callq  40d544 <_ZN11arm_compute8CLTensorD1Ev>
  40512a:	48 89 d8             	mov    %rbx,%rax
  40512d:	48 89 c7             	mov    %rax,%rdi
  405130:	e8 cb f4 ff ff       	callq  404600 <_Unwind_Resume@plt>
  405135:	e8 66 f2 ff ff       	callq  4043a0 <__stack_chk_fail@plt>
  40513a:	48 81 c4 10 04 00 00 	add    $0x410,%rsp
  405141:	5b                   	pop    %rbx
  405142:	41 5c                	pop    %r12
  405144:	5d                   	pop    %rbp
  405145:	c3                   	retq   

0000000000405146 <_ZN2CK13measure_setupIZ4mainEUlvE_EEvOT_>:
  405146:	55                   	push   %rbp
  405147:	48 89 e5             	mov    %rsp,%rbp
  40514a:	48 83 ec 10          	sub    $0x10,%rsp
  40514e:	48 89 7d f8          	mov    %rdi,-0x8(%rbp)
  405152:	48 8b 45 f8          	mov    -0x8(%rbp),%rax
  405156:	be 00 00 00 00       	mov    $0x0,%esi
  40515b:	48 89 c7             	mov    %rax,%rdi
  40515e:	e8 49 00 00 00       	callq  4051ac <_ZN2CK11do_measuredIRZ4mainEUlvE_EEvOT_i>
  405163:	bf 00 00 00 00       	mov    $0x0,%edi
  405168:	e8 33 f5 ff ff       	callq  4046a0 <xopenme_get_timer@plt>
  40516d:	f2 0f 5a c0          	cvtsd2ss %xmm0,%xmm0
  405171:	e8 83 f8 ff ff       	callq  4049f9 <_ZN2CK16store_setup_timeEf>
  405176:	90                   	nop
  405177:	c9                   	leaveq 
  405178:	c3                   	retq   

0000000000405179 <_ZN2CK12measure_testIZ4mainEUlvE0_EEvOT_>:
  405179:	55                   	push   %rbp
  40517a:	48 89 e5             	mov    %rsp,%rbp
  40517d:	48 83 ec 10          	sub    $0x10,%rsp
  405181:	48 89 7d f8          	mov    %rdi,-0x8(%rbp)
  405185:	48 8b 45 f8          	mov    -0x8(%rbp),%rax
  405189:	be 01 00 00 00       	mov    $0x1,%esi
  40518e:	48 89 c7             	mov    %rax,%rdi
  405191:	e8 48 00 00 00       	callq  4051de <_ZN2CK11do_measuredIRZ4mainEUlvE0_EEvOT_i>
  405196:	bf 01 00 00 00       	mov    $0x1,%edi
  40519b:	e8 00 f5 ff ff       	callq  4046a0 <xopenme_get_timer@plt>
  4051a0:	f2 0f 5a c0          	cvtsd2ss %xmm0,%xmm0
  4051a4:	e8 7a f8 ff ff       	callq  404a23 <_ZN2CK15store_test_timeEf>
  4051a9:	90                   	nop
  4051aa:	c9                   	leaveq 
  4051ab:	c3                   	retq   

00000000004051ac <_ZN2CK11do_measuredIRZ4mainEUlvE_EEvOT_i>:
  4051ac:	55                   	push   %rbp
  4051ad:	48 89 e5             	mov    %rsp,%rbp
  4051b0:	48 83 ec 10          	sub    $0x10,%rsp
  4051b4:	48 89 7d f8          	mov    %rdi,-0x8(%rbp)
  4051b8:	89 75 f4             	mov    %esi,-0xc(%rbp)
  4051bb:	8b 45 f4             	mov    -0xc(%rbp),%eax
  4051be:	89 c7                	mov    %eax,%edi
  4051c0:	e8 fb ef ff ff       	callq  4041c0 <xopenme_clock_start@plt>
  4051c5:	48 8b 45 f8          	mov    -0x8(%rbp),%rax
  4051c9:	48 89 c7             	mov    %rax,%rdi
  4051cc:	e8 af f8 ff ff       	callq  404a80 <_ZZ4mainENKUlvE_clEv>
  4051d1:	8b 45 f4             	mov    -0xc(%rbp),%eax
  4051d4:	89 c7                	mov    %eax,%edi
  4051d6:	e8 c5 f2 ff ff       	callq  4044a0 <xopenme_clock_end@plt>
  4051db:	90                   	nop
  4051dc:	c9                   	leaveq 
  4051dd:	c3                   	retq   

00000000004051de <_ZN2CK11do_measuredIRZ4mainEUlvE0_EEvOT_i>:
  4051de:	55                   	push   %rbp
  4051df:	48 89 e5             	mov    %rsp,%rbp
  4051e2:	48 83 ec 10          	sub    $0x10,%rsp
  4051e6:	48 89 7d f8          	mov    %rdi,-0x8(%rbp)
  4051ea:	89 75 f4             	mov    %esi,-0xc(%rbp)
  4051ed:	8b 45 f4             	mov    -0xc(%rbp),%eax
  4051f0:	89 c7                	mov    %eax,%edi
  4051f2:	e8 c9 ef ff ff       	callq  4041c0 <xopenme_clock_start@plt>
  4051f7:	48 8b 45 f8          	mov    -0x8(%rbp),%rax
  4051fb:	48 89 c7             	mov    %rax,%rdi
  4051fe:	e8 a1 fb ff ff       	callq  404da4 <_ZZ4mainENKUlvE0_clEv>
  405203:	8b 45 f4             	mov    -0xc(%rbp),%eax
  405206:	89 c7                	mov    %eax,%edi
  405208:	e8 93 f2 ff ff       	callq  4044a0 <xopenme_clock_end@plt>
  40520d:	90                   	nop
  40520e:	c9                   	leaveq 
  40520f:	c3                   	retq   

0000000000405210 <_Z41__static_initialization_and_destruction_0ii>:
  405210:	55                   	push   %rbp
  405211:	48 89 e5             	mov    %rsp,%rbp
  405214:	53                   	push   %rbx
  405215:	48 83 ec 28          	sub    $0x28,%rsp
  405219:	89 7d dc             	mov    %edi,-0x24(%rbp)
  40521c:	89 75 d8             	mov    %esi,-0x28(%rbp)
  40521f:	64 48 8b 04 25 28 00 	mov    %fs:0x28,%rax
  405226:	00 00 
  405228:	48 89 45 e8          	mov    %rax,-0x18(%rbp)
  40522c:	31 c0                	xor    %eax,%eax
  40522e:	83 7d dc 01          	cmpl   $0x1,-0x24(%rbp)
  405232:	0f 85 6f 01 00 00    	jne    4053a7 <_Z41__static_initialization_and_destruction_0ii+0x197>
  405238:	81 7d d8 ff ff 00 00 	cmpl   $0xffff,-0x28(%rbp)
  40523f:	0f 85 62 01 00 00    	jne    4053a7 <_Z41__static_initialization_and_destruction_0ii+0x197>
  405245:	bf 58 a7 61 00       	mov    $0x61a758,%edi
  40524a:	e8 e1 f2 ff ff       	callq  404530 <_ZNSt8ios_base4InitC1Ev@plt>
  40524f:	ba d8 a2 61 00       	mov    $0x61a2d8,%edx
  405254:	be 58 a7 61 00       	mov    $0x61a758,%esi
  405259:	bf b0 46 40 00       	mov    $0x4046b0,%edi
  40525e:	e8 cd f0 ff ff       	callq  404330 <__cxa_atexit@plt>
  405263:	b8 38 a7 61 00       	mov    $0x61a738,%eax
  405268:	0f b6 00             	movzbl (%rax),%eax
  40526b:	84 c0                	test   %al,%al
  40526d:	75 26                	jne    405295 <_Z41__static_initialization_and_destruction_0ii+0x85>
  40526f:	b8 38 a7 61 00       	mov    $0x61a738,%eax
  405274:	c6 00 01             	movb   $0x1,(%rax)
  405277:	bf f0 a6 61 00       	mov    $0x61a6f0,%edi
  40527c:	e8 a3 07 00 00       	callq  405a24 <_ZN2cl6DeviceC1Ev>
  405281:	ba d8 a2 61 00       	mov    $0x61a2d8,%edx
  405286:	be f0 a6 61 00       	mov    $0x61a6f0,%esi
  40528b:	bf 70 5a 40 00       	mov    $0x405a70,%edi
  405290:	e8 9b f0 ff ff       	callq  404330 <__cxa_atexit@plt>
  405295:	b8 40 a7 61 00       	mov    $0x61a740,%eax
  40529a:	0f b6 00             	movzbl (%rax),%eax
  40529d:	84 c0                	test   %al,%al
  40529f:	75 26                	jne    4052c7 <_Z41__static_initialization_and_destruction_0ii+0xb7>
  4052a1:	b8 40 a7 61 00       	mov    $0x61a740,%eax
  4052a6:	c6 00 01             	movb   $0x1,(%rax)
  4052a9:	bf 08 a7 61 00       	mov    $0x61a708,%edi
  4052ae:	e8 fb 0a 00 00       	callq  405dae <_ZN2cl8PlatformC1Ev>
  4052b3:	ba d8 a2 61 00       	mov    $0x61a2d8,%edx
  4052b8:	be 08 a7 61 00       	mov    $0x61a708,%esi
  4052bd:	bf aa 5b 40 00       	mov    $0x405baa,%edi
  4052c2:	e8 69 f0 ff ff       	callq  404330 <__cxa_atexit@plt>
  4052c7:	b8 48 a7 61 00       	mov    $0x61a748,%eax
  4052cc:	0f b6 00             	movzbl (%rax),%eax
  4052cf:	84 c0                	test   %al,%al
  4052d1:	75 26                	jne    4052f9 <_Z41__static_initialization_and_destruction_0ii+0xe9>
  4052d3:	b8 48 a7 61 00       	mov    $0x61a748,%eax
  4052d8:	c6 00 01             	movb   $0x1,(%rax)
  4052db:	bf 18 a7 61 00       	mov    $0x61a718,%edi
  4052e0:	e8 bb 16 00 00       	callq  4069a0 <_ZN2cl7ContextC1Ev>
  4052e5:	ba d8 a2 61 00       	mov    $0x61a2d8,%edx
  4052ea:	be 18 a7 61 00       	mov    $0x61a718,%esi
  4052ef:	bf 28 63 40 00       	mov    $0x406328,%edi
  4052f4:	e8 37 f0 ff ff       	callq  404330 <__cxa_atexit@plt>
  4052f9:	bf 60 a7 61 00       	mov    $0x61a760,%edi
  4052fe:	e8 e5 17 00 00       	callq  406ae8 <_ZN2cl7NDRangeC1Ev>
  405303:	b8 50 a7 61 00       	mov    $0x61a750,%eax
  405308:	0f b6 00             	movzbl (%rax),%eax
  40530b:	84 c0                	test   %al,%al
  40530d:	75 26                	jne    405335 <_Z41__static_initialization_and_destruction_0ii+0x125>
  40530f:	b8 50 a7 61 00       	mov    $0x61a750,%eax
  405314:	c6 00 01             	movb   $0x1,(%rax)
  405317:	bf 28 a7 61 00       	mov    $0x61a728,%edi
  40531c:	e8 d7 1a 00 00       	callq  406df8 <_ZN2cl12CommandQueueC1Ev>
  405321:	ba d8 a2 61 00       	mov    $0x61a2d8,%edx
  405326:	be 28 a7 61 00       	mov    $0x61a728,%esi
  40532b:	bf 80 6b 40 00       	mov    $0x406b80,%edi
  405330:	e8 fb ef ff ff       	callq  404330 <__cxa_atexit@plt>
  405335:	ba 01 00 00 00       	mov    $0x1,%edx
  40533a:	be 80 00 00 00       	mov    $0x80,%esi
  40533f:	bf 80 a7 61 00       	mov    $0x61a780,%edi
  405344:	e8 d9 17 00 00       	callq  406b22 <_ZN2cl7NDRangeC1Emm>
  405349:	48 8d 45 e7          	lea    -0x19(%rbp),%rax
  40534d:	48 89 c7             	mov    %rax,%rdi
  405350:	e8 bb f2 ff ff       	callq  404610 <_ZNSaIcEC1Ev@plt>
  405355:	48 8d 45 e7          	lea    -0x19(%rbp),%rax
  405359:	48 89 c2             	mov    %rax,%rdx
  40535c:	be ad 13 41 00       	mov    $0x4113ad,%esi
  405361:	bf a0 a7 61 00       	mov    $0x61a7a0,%edi
  405366:	e8 45 f1 ff ff       	callq  4044b0 <_ZNSt7__cxx1112basic_stringIcSt11char_traitsIcESaIcEEC1EPKcRKS3_@plt>
  40536b:	48 8d 45 e7          	lea    -0x19(%rbp),%rax
  40536f:	48 89 c7             	mov    %rax,%rdi
  405372:	e8 09 f0 ff ff       	callq  404380 <_ZNSaIcED1Ev@plt>
  405377:	ba d8 a2 61 00       	mov    $0x61a2d8,%edx
  40537c:	be a0 a7 61 00       	mov    $0x61a7a0,%esi
  405381:	bf 00 43 40 00       	mov    $0x404300,%edi
  405386:	e8 a5 ef ff ff       	callq  404330 <__cxa_atexit@plt>
  40538b:	eb 1a                	jmp    4053a7 <_Z41__static_initialization_and_destruction_0ii+0x197>
  40538d:	48 89 c3             	mov    %rax,%rbx
  405390:	48 8d 45 e7          	lea    -0x19(%rbp),%rax
  405394:	48 89 c7             	mov    %rax,%rdi
  405397:	e8 e4 ef ff ff       	callq  404380 <_ZNSaIcED1Ev@plt>
  40539c:	48 89 d8             	mov    %rbx,%rax
  40539f:	48 89 c7             	mov    %rax,%rdi
  4053a2:	e8 59 f2 ff ff       	callq  404600 <_Unwind_Resume@plt>
  4053a7:	48 8b 45 e8          	mov    -0x18(%rbp),%rax
  4053ab:	64 48 33 04 25 28 00 	xor    %fs:0x28,%rax
  4053b2:	00 00 
  4053b4:	74 05                	je     4053bb <_Z41__static_initialization_and_destruction_0ii+0x1ab>
  4053b6:	e8 e5 ef ff ff       	callq  4043a0 <__stack_chk_fail@plt>
  4053bb:	48 83 c4 28          	add    $0x28,%rsp
  4053bf:	5b                   	pop    %rbx
  4053c0:	5d                   	pop    %rbp
  4053c1:	c3                   	retq   

00000000004053c2 <_GLOBAL__sub_I__ZN2CK16store_setup_timeEf>:
  4053c2:	55                   	push   %rbp
  4053c3:	48 89 e5             	mov    %rsp,%rbp
  4053c6:	be ff ff 00 00       	mov    $0xffff,%esi
  4053cb:	bf 01 00 00 00       	mov    $0x1,%edi
  4053d0:	e8 3b fe ff ff       	callq  405210 <_Z41__static_initialization_and_destruction_0ii>
  4053d5:	5d                   	pop    %rbp
  4053d6:	c3                   	retq   
  4053d7:	90                   	nop

00000000004053d8 <_ZNSt9exceptionC1Ev>:
  4053d8:	55                   	push   %rbp
  4053d9:	48 89 e5             	mov    %rsp,%rbp
  4053dc:	48 89 7d f8          	mov    %rdi,-0x8(%rbp)
  4053e0:	ba 40 a5 61 00       	mov    $0x61a540,%edx
  4053e5:	48 8b 45 f8          	mov    -0x8(%rbp),%rax
  4053e9:	48 89 10             	mov    %rdx,(%rax)
  4053ec:	90                   	nop
  4053ed:	5d                   	pop    %rbp
  4053ee:	c3                   	retq   

00000000004053ef <_ZnwmPv>:
  4053ef:	55                   	push   %rbp
  4053f0:	48 89 e5             	mov    %rsp,%rbp
  4053f3:	48 89 7d f8          	mov    %rdi,-0x8(%rbp)
  4053f7:	48 89 75 f0          	mov    %rsi,-0x10(%rbp)
  4053fb:	48 8b 45 f0          	mov    -0x10(%rbp),%rax
  4053ff:	5d                   	pop    %rbp
  405400:	c3                   	retq   

0000000000405401 <_ZdlPvS_>:
  405401:	55                   	push   %rbp
  405402:	48 89 e5             	mov    %rsp,%rbp
  405405:	48 89 7d f8          	mov    %rdi,-0x8(%rbp)
  405409:	48 89 75 f0          	mov    %rsi,-0x10(%rbp)
  40540d:	90                   	nop
  40540e:	5d                   	pop    %rbp
  40540f:	c3                   	retq   

0000000000405410 <_ZNSt9exceptionC1ERKS_>:
  405410:	55                   	push   %rbp
  405411:	48 89 e5             	mov    %rsp,%rbp
  405414:	48 89 7d f8          	mov    %rdi,-0x8(%rbp)
  405418:	48 89 75 f0          	mov    %rsi,-0x10(%rbp)
  40541c:	ba 40 a5 61 00       	mov    $0x61a540,%edx
  405421:	48 8b 45 f8          	mov    -0x8(%rbp),%rax
  405425:	48 89 10             	mov    %rdx,(%rax)
  405428:	90                   	nop
  405429:	5d                   	pop    %rbp
  40542a:	c3                   	retq   
  40542b:	90                   	nop

000000000040542c <_ZN11arm_compute11TensorShape3setEmmb>:
  40542c:	55                   	push   %rbp
  40542d:	48 89 e5             	mov    %rsp,%rbp
  405430:	53                   	push   %rbx
  405431:	48 83 ec 38          	sub    $0x38,%rsp
  405435:	48 89 7d d8          	mov    %rdi,-0x28(%rbp)
  405439:	48 89 75 d0          	mov    %rsi,-0x30(%rbp)
  40543d:	48 89 55 c8          	mov    %rdx,-0x38(%rbp)
  405441:	89 c8                	mov    %ecx,%eax
  405443:	88 45 c4             	mov    %al,-0x3c(%rbp)
  405446:	64 48 8b 04 25 28 00 	mov    %fs:0x28,%rax
  40544d:	00 00 
  40544f:	48 89 45 e8          	mov    %rax,-0x18(%rbp)
  405453:	31 c0                	xor    %eax,%eax
  405455:	48 83 7d c8 00       	cmpq   $0x0,-0x38(%rbp)
  40545a:	75 45                	jne    4054a1 <_ZN11arm_compute11TensorShape3setEmmb+0x75>
  40545c:	48 8b 45 d8          	mov    -0x28(%rbp),%rax
  405460:	48 c7 40 30 00 00 00 	movq   $0x0,0x30(%rax)
  405467:	00 
  405468:	c7 45 e4 00 00 00 00 	movl   $0x0,-0x1c(%rbp)
  40546f:	48 8b 45 d8          	mov    -0x28(%rbp),%rax
  405473:	48 89 c7             	mov    %rax,%rdi
  405476:	e8 4b 2f 00 00       	callq  4083c6 <_ZNSt5arrayImLm6EE3endEv>
  40547b:	48 89 c3             	mov    %rax,%rbx
  40547e:	48 8b 45 d8          	mov    -0x28(%rbp),%rax
  405482:	48 89 c7             	mov    %rax,%rdi
  405485:	e8 22 2f 00 00       	callq  4083ac <_ZNSt5arrayImLm6EE5beginEv>
  40548a:	48 89 c1             	mov    %rax,%rcx
  40548d:	48 8d 45 e4          	lea    -0x1c(%rbp),%rax
  405491:	48 89 c2             	mov    %rax,%rdx
  405494:	48 89 de             	mov    %rbx,%rsi
  405497:	48 89 cf             	mov    %rcx,%rdi
  40549a:	e8 c0 2e 00 00       	callq  40835f <_ZSt4fillIPmiEvT_S1_RKT0_>
  40549f:	eb 70                	jmp    405511 <_ZN11arm_compute11TensorShape3setEmmb+0xe5>
  4054a1:	c7 45 e4 01 00 00 00 	movl   $0x1,-0x1c(%rbp)
  4054a8:	48 8b 45 d8          	mov    -0x28(%rbp),%rax
  4054ac:	48 89 c7             	mov    %rax,%rdi
  4054af:	e8 12 2f 00 00       	callq  4083c6 <_ZNSt5arrayImLm6EE3endEv>
  4054b4:	48 89 c3             	mov    %rax,%rbx
  4054b7:	48 8b 45 d8          	mov    -0x28(%rbp),%rax
  4054bb:	48 89 c7             	mov    %rax,%rdi
  4054be:	e8 e9 2e 00 00       	callq  4083ac <_ZNSt5arrayImLm6EE5beginEv>
  4054c3:	48 89 c2             	mov    %rax,%rdx
  4054c6:	48 8b 45 d8          	mov    -0x28(%rbp),%rax
  4054ca:	48 8b 40 30          	mov    0x30(%rax),%rax
  4054ce:	48 c1 e0 03          	shl    $0x3,%rax
  4054d2:	48 8d 0c 02          	lea    (%rdx,%rax,1),%rcx
  4054d6:	48 8d 45 e4          	lea    -0x1c(%rbp),%rax
  4054da:	48 89 c2             	mov    %rax,%rdx
  4054dd:	48 89 de             	mov    %rbx,%rsi
  4054e0:	48 89 cf             	mov    %rcx,%rdi
  4054e3:	e8 77 2e 00 00       	callq  40835f <_ZSt4fillIPmiEvT_S1_RKT0_>
  4054e8:	48 8b 45 d8          	mov    -0x28(%rbp),%rax
  4054ec:	48 8b 55 c8          	mov    -0x38(%rbp),%rdx
  4054f0:	48 8b 4d d0          	mov    -0x30(%rbp),%rcx
  4054f4:	48 89 ce             	mov    %rcx,%rsi
  4054f7:	48 89 c7             	mov    %rax,%rdi
  4054fa:	e8 e5 2e 00 00       	callq  4083e4 <_ZN11arm_compute10DimensionsImE3setEmm>
  4054ff:	80 7d c4 00          	cmpb   $0x0,-0x3c(%rbp)
  405503:	74 0c                	je     405511 <_ZN11arm_compute11TensorShape3setEmmb+0xe5>
  405505:	48 8b 45 d8          	mov    -0x28(%rbp),%rax
  405509:	48 89 c7             	mov    %rax,%rdi
  40550c:	e8 1f 00 00 00       	callq  405530 <_ZN11arm_compute11TensorShape26apply_dimension_correctionEv>
  405511:	48 8b 45 d8          	mov    -0x28(%rbp),%rax
  405515:	48 8b 75 e8          	mov    -0x18(%rbp),%rsi
  405519:	64 48 33 34 25 28 00 	xor    %fs:0x28,%rsi
  405520:	00 00 
  405522:	74 05                	je     405529 <_ZN11arm_compute11TensorShape3setEmmb+0xfd>
  405524:	e8 77 ee ff ff       	callq  4043a0 <__stack_chk_fail@plt>
  405529:	48 83 c4 38          	add    $0x38,%rsp
  40552d:	5b                   	pop    %rbx
  40552e:	5d                   	pop    %rbp
  40552f:	c3                   	retq   

0000000000405530 <_ZN11arm_compute11TensorShape26apply_dimension_correctionEv>:
  405530:	55                   	push   %rbp
  405531:	48 89 e5             	mov    %rsp,%rbp
  405534:	48 83 ec 20          	sub    $0x20,%rsp
  405538:	48 89 7d e8          	mov    %rdi,-0x18(%rbp)
  40553c:	48 8b 45 e8          	mov    -0x18(%rbp),%rax
  405540:	48 8b 40 30          	mov    0x30(%rax),%rax
  405544:	83 e8 01             	sub    $0x1,%eax
  405547:	89 45 fc             	mov    %eax,-0x4(%rbp)
  40554a:	83 7d fc 00          	cmpl   $0x0,-0x4(%rbp)
  40554e:	7e 3e                	jle    40558e <_ZN11arm_compute11TensorShape26apply_dimension_correctionEv+0x5e>
  405550:	8b 45 fc             	mov    -0x4(%rbp),%eax
  405553:	48 63 d0             	movslq %eax,%rdx
  405556:	48 8b 45 e8          	mov    -0x18(%rbp),%rax
  40555a:	48 89 d6             	mov    %rdx,%rsi
  40555d:	48 89 c7             	mov    %rax,%rdi
  405560:	e8 39 2f 00 00       	callq  40849e <_ZNSt5arrayImLm6EEixEm>
  405565:	48 8b 00             	mov    (%rax),%rax
  405568:	48 83 f8 01          	cmp    $0x1,%rax
  40556c:	0f 94 c0             	sete   %al
  40556f:	84 c0                	test   %al,%al
  405571:	74 1a                	je     40558d <_ZN11arm_compute11TensorShape26apply_dimension_correctionEv+0x5d>
  405573:	48 8b 45 e8          	mov    -0x18(%rbp),%rax
  405577:	48 8b 40 30          	mov    0x30(%rax),%rax
  40557b:	48 8d 50 ff          	lea    -0x1(%rax),%rdx
  40557f:	48 8b 45 e8          	mov    -0x18(%rbp),%rax
  405583:	48 89 50 30          	mov    %rdx,0x30(%rax)
  405587:	83 6d fc 01          	subl   $0x1,-0x4(%rbp)
  40558b:	eb bd                	jmp    40554a <_ZN11arm_compute11TensorShape26apply_dimension_correctionEv+0x1a>
  40558d:	90                   	nop
  40558e:	90                   	nop
  40558f:	c9                   	leaveq 
  405590:	c3                   	retq   
  405591:	90                   	nop

0000000000405592 <_ZN11arm_compute11CoordinatesC1IJEEEDpT_>:
  405592:	55                   	push   %rbp
  405593:	48 89 e5             	mov    %rsp,%rbp
  405596:	48 83 ec 10          	sub    $0x10,%rsp
  40559a:	48 89 7d f8          	mov    %rdi,-0x8(%rbp)
  40559e:	48 8b 45 f8          	mov    -0x8(%rbp),%rax
  4055a2:	48 89 c7             	mov    %rax,%rdi
  4055a5:	e8 1a 2f 00 00       	callq  4084c4 <_ZN11arm_compute10DimensionsIiEC1IJEEEDpT_>
  4055aa:	90                   	nop
  4055ab:	c9                   	leaveq 
  4055ac:	c3                   	retq   
  4055ad:	90                   	nop

00000000004055ae <_ZN2cl5ErrorC1EiPKc>:
  4055ae:	55                   	push   %rbp
  4055af:	48 89 e5             	mov    %rsp,%rbp
  4055b2:	48 83 ec 20          	sub    $0x20,%rsp
  4055b6:	48 89 7d f8          	mov    %rdi,-0x8(%rbp)
  4055ba:	89 75 f4             	mov    %esi,-0xc(%rbp)
  4055bd:	48 89 55 e8          	mov    %rdx,-0x18(%rbp)
  4055c1:	48 8b 45 f8          	mov    -0x8(%rbp),%rax
  4055c5:	48 89 c7             	mov    %rax,%rdi
  4055c8:	e8 0b fe ff ff       	callq  4053d8 <_ZNSt9exceptionC1Ev>
  4055cd:	ba 58 16 41 00       	mov    $0x411658,%edx
  4055d2:	48 8b 45 f8          	mov    -0x8(%rbp),%rax
  4055d6:	48 89 10             	mov    %rdx,(%rax)
  4055d9:	48 8b 45 f8          	mov    -0x8(%rbp),%rax
  4055dd:	8b 55 f4             	mov    -0xc(%rbp),%edx
  4055e0:	89 50 08             	mov    %edx,0x8(%rax)
  4055e3:	48 8b 45 f8          	mov    -0x8(%rbp),%rax
  4055e7:	48 8b 55 e8          	mov    -0x18(%rbp),%rdx
  4055eb:	48 89 50 10          	mov    %rdx,0x10(%rax)
  4055ef:	90                   	nop
  4055f0:	c9                   	leaveq 
  4055f1:	c3                   	retq   

00000000004055f2 <_ZN2cl5ErrorD1Ev>:
  4055f2:	55                   	push   %rbp
  4055f3:	48 89 e5             	mov    %rsp,%rbp
  4055f6:	48 83 ec 10          	sub    $0x10,%rsp
  4055fa:	48 89 7d f8          	mov    %rdi,-0x8(%rbp)
  4055fe:	ba 58 16 41 00       	mov    $0x411658,%edx
  405603:	48 8b 45 f8          	mov    -0x8(%rbp),%rax
  405607:	48 89 10             	mov    %rdx,(%rax)
  40560a:	48 8b 45 f8          	mov    -0x8(%rbp),%rax
  40560e:	48 89 c7             	mov    %rax,%rdi
  405611:	e8 1a f0 ff ff       	callq  404630 <_ZNSt9exceptionD2Ev@plt>
  405616:	90                   	nop
  405617:	c9                   	leaveq 
  405618:	c3                   	retq   
  405619:	90                   	nop

000000000040561a <_ZN2cl5ErrorD0Ev>:
  40561a:	55                   	push   %rbp
  40561b:	48 89 e5             	mov    %rsp,%rbp
  40561e:	48 83 ec 10          	sub    $0x10,%rsp
  405622:	48 89 7d f8          	mov    %rdi,-0x8(%rbp)
  405626:	48 8b 45 f8          	mov    -0x8(%rbp),%rax
  40562a:	48 89 c7             	mov    %rax,%rdi
  40562d:	e8 c0 ff ff ff       	callq  4055f2 <_ZN2cl5ErrorD1Ev>
  405632:	48 8b 45 f8          	mov    -0x8(%rbp),%rax
  405636:	48 89 c7             	mov    %rax,%rdi
  405639:	e8 02 ed ff ff       	callq  404340 <_ZdlPv@plt>
  40563e:	c9                   	leaveq 
  40563f:	c3                   	retq   

0000000000405640 <_ZNK2cl5Error4whatEv>:
  405640:	55                   	push   %rbp
  405641:	48 89 e5             	mov    %rsp,%rbp
  405644:	48 89 7d f8          	mov    %rdi,-0x8(%rbp)
  405648:	48 8b 45 f8          	mov    -0x8(%rbp),%rax
  40564c:	48 8b 40 10          	mov    0x10(%rax),%rax
  405650:	48 85 c0             	test   %rax,%rax
  405653:	75 07                	jne    40565c <_ZNK2cl5Error4whatEv+0x1c>
  405655:	b8 3b 10 41 00       	mov    $0x41103b,%eax
  40565a:	eb 08                	jmp    405664 <_ZNK2cl5Error4whatEv+0x24>
  40565c:	48 8b 45 f8          	mov    -0x8(%rbp),%rax
  405660:	48 8b 40 10          	mov    0x10(%rax),%rax
  405664:	5d                   	pop    %rbp
  405665:	c3                   	retq   

0000000000405666 <_ZNK2cl5Error3errEv>:
  405666:	55                   	push   %rbp
  405667:	48 89 e5             	mov    %rsp,%rbp
  40566a:	48 89 7d f8          	mov    %rdi,-0x8(%rbp)
  40566e:	48 8b 45 f8          	mov    -0x8(%rbp),%rax
  405672:	8b 40 08             	mov    0x8(%rax),%eax
  405675:	5d                   	pop    %rbp
  405676:	c3                   	retq   
  405677:	90                   	nop

0000000000405678 <_ZN2cl5ErrorC1ERKS0_>:
  405678:	55                   	push   %rbp
  405679:	48 89 e5             	mov    %rsp,%rbp
  40567c:	48 83 ec 10          	sub    $0x10,%rsp
  405680:	48 89 7d f8          	mov    %rdi,-0x8(%rbp)
  405684:	48 89 75 f0          	mov    %rsi,-0x10(%rbp)
  405688:	48 8b 55 f0          	mov    -0x10(%rbp),%rdx
  40568c:	48 8b 45 f8          	mov    -0x8(%rbp),%rax
  405690:	48 89 d6             	mov    %rdx,%rsi
  405693:	48 89 c7             	mov    %rax,%rdi
  405696:	e8 75 fd ff ff       	callq  405410 <_ZNSt9exceptionC1ERKS_>
  40569b:	ba 58 16 41 00       	mov    $0x411658,%edx
  4056a0:	48 8b 45 f8          	mov    -0x8(%rbp),%rax
  4056a4:	48 89 10             	mov    %rdx,(%rax)
  4056a7:	48 8b 45 f0          	mov    -0x10(%rbp),%rax
  4056ab:	8b 50 08             	mov    0x8(%rax),%edx
  4056ae:	48 8b 45 f8          	mov    -0x8(%rbp),%rax
  4056b2:	89 50 08             	mov    %edx,0x8(%rax)
  4056b5:	48 8b 45 f0          	mov    -0x10(%rbp),%rax
  4056b9:	48 8b 50 10          	mov    0x10(%rax),%rdx
  4056bd:	48 8b 45 f8          	mov    -0x8(%rbp),%rax
  4056c1:	48 89 50 10          	mov    %rdx,0x10(%rax)
  4056c5:	90                   	nop
  4056c6:	c9                   	leaveq 
  4056c7:	c3                   	retq   

00000000004056c8 <_ZN2cl6detail16ReferenceHandlerIP13_cl_device_idE6retainES3_>:
  4056c8:	55                   	push   %rbp
  4056c9:	48 89 e5             	mov    %rsp,%rbp
  4056cc:	48 89 7d f8          	mov    %rdi,-0x8(%rbp)
  4056d0:	b8 00 00 00 00       	mov    $0x0,%eax
  4056d5:	5d                   	pop    %rbp
  4056d6:	c3                   	retq   

00000000004056d7 <_ZN2cl6detail16ReferenceHandlerIP13_cl_device_idE7releaseES3_>:
  4056d7:	55                   	push   %rbp
  4056d8:	48 89 e5             	mov    %rsp,%rbp
  4056db:	48 89 7d f8          	mov    %rdi,-0x8(%rbp)
  4056df:	b8 00 00 00 00       	mov    $0x0,%eax
  4056e4:	5d                   	pop    %rbp
  4056e5:	c3                   	retq   

00000000004056e6 <_ZN2cl6detail16ReferenceHandlerIP15_cl_platform_idE6retainES3_>:
  4056e6:	55                   	push   %rbp
  4056e7:	48 89 e5             	mov    %rsp,%rbp
  4056ea:	48 89 7d f8          	mov    %rdi,-0x8(%rbp)
  4056ee:	b8 00 00 00 00       	mov    $0x0,%eax
  4056f3:	5d                   	pop    %rbp
  4056f4:	c3                   	retq   

00000000004056f5 <_ZN2cl6detail16ReferenceHandlerIP15_cl_platform_idE7releaseES3_>:
  4056f5:	55                   	push   %rbp
  4056f6:	48 89 e5             	mov    %rsp,%rbp
  4056f9:	48 89 7d f8          	mov    %rdi,-0x8(%rbp)
  4056fd:	b8 00 00 00 00       	mov    $0x0,%eax
  405702:	5d                   	pop    %rbp
  405703:	c3                   	retq   

0000000000405704 <_ZN2cl6detail16ReferenceHandlerIP11_cl_contextE6retainES3_>:
  405704:	55                   	push   %rbp
  405705:	48 89 e5             	mov    %rsp,%rbp
  405708:	48 83 ec 10          	sub    $0x10,%rsp
  40570c:	48 89 7d f8          	mov    %rdi,-0x8(%rbp)
  405710:	48 8b 45 f8          	mov    -0x8(%rbp),%rax
  405714:	48 89 c7             	mov    %rax,%rdi
  405717:	e8 b4 ee ff ff       	callq  4045d0 <clRetainContext@plt>
  40571c:	c9                   	leaveq 
  40571d:	c3                   	retq   

000000000040571e <_ZN2cl6detail16ReferenceHandlerIP11_cl_contextE7releaseES3_>:
  40571e:	55                   	push   %rbp
  40571f:	48 89 e5             	mov    %rsp,%rbp
  405722:	48 83 ec 10          	sub    $0x10,%rsp
  405726:	48 89 7d f8          	mov    %rdi,-0x8(%rbp)
  40572a:	48 8b 45 f8          	mov    -0x8(%rbp),%rax
  40572e:	48 89 c7             	mov    %rax,%rdi
  405731:	e8 ba eb ff ff       	callq  4042f0 <clReleaseContext@plt>
  405736:	c9                   	leaveq 
  405737:	c3                   	retq   

0000000000405738 <_ZN2cl6detail16ReferenceHandlerIP17_cl_command_queueE6retainES3_>:
  405738:	55                   	push   %rbp
  405739:	48 89 e5             	mov    %rsp,%rbp
  40573c:	48 83 ec 10          	sub    $0x10,%rsp
  405740:	48 89 7d f8          	mov    %rdi,-0x8(%rbp)
  405744:	48 8b 45 f8          	mov    -0x8(%rbp),%rax
  405748:	48 89 c7             	mov    %rax,%rdi
  40574b:	e8 40 eb ff ff       	callq  404290 <clRetainCommandQueue@plt>
  405750:	c9                   	leaveq 
  405751:	c3                   	retq   

0000000000405752 <_ZN2cl6detail16ReferenceHandlerIP17_cl_command_queueE7releaseES3_>:
  405752:	55                   	push   %rbp
  405753:	48 89 e5             	mov    %rsp,%rbp
  405756:	48 83 ec 10          	sub    $0x10,%rsp
  40575a:	48 89 7d f8          	mov    %rdi,-0x8(%rbp)
  40575e:	48 8b 45 f8          	mov    -0x8(%rbp),%rax
  405762:	48 89 c7             	mov    %rax,%rdi
  405765:	e8 d6 ec ff ff       	callq  404440 <clReleaseCommandQueue@plt>
  40576a:	c9                   	leaveq 
  40576b:	c3                   	retq   

000000000040576c <_ZN2cl6detail16ReferenceHandlerIP10_cl_kernelE7releaseES3_>:
  40576c:	55                   	push   %rbp
  40576d:	48 89 e5             	mov    %rsp,%rbp
  405770:	48 83 ec 10          	sub    $0x10,%rsp
  405774:	48 89 7d f8          	mov    %rdi,-0x8(%rbp)
  405778:	48 8b 45 f8          	mov    -0x8(%rbp),%rax
  40577c:	48 89 c7             	mov    %rax,%rdi
  40577f:	e8 cc ee ff ff       	callq  404650 <clReleaseKernel@plt>
  405784:	c9                   	leaveq 
  405785:	c3                   	retq   

0000000000405786 <_ZN2cl6detail7WrapperIP13_cl_device_idE20isReferenceCountableES3_>:
  405786:	55                   	push   %rbp
  405787:	48 89 e5             	mov    %rsp,%rbp
  40578a:	48 89 7d e8          	mov    %rdi,-0x18(%rbp)
  40578e:	c6 45 ff 00          	movb   $0x0,-0x1(%rbp)
  405792:	0f b6 45 ff          	movzbl -0x1(%rbp),%eax
  405796:	5d                   	pop    %rbp
  405797:	c3                   	retq   

0000000000405798 <_ZN2cl6detail7WrapperIP13_cl_device_idEC1Ev>:
  405798:	55                   	push   %rbp
  405799:	48 89 e5             	mov    %rsp,%rbp
  40579c:	48 89 7d f8          	mov    %rdi,-0x8(%rbp)
  4057a0:	48 8b 45 f8          	mov    -0x8(%rbp),%rax
  4057a4:	48 c7 00 00 00 00 00 	movq   $0x0,(%rax)
  4057ab:	48 8b 45 f8          	mov    -0x8(%rbp),%rax
  4057af:	c6 40 08 00          	movb   $0x0,0x8(%rax)
  4057b3:	90                   	nop
  4057b4:	5d                   	pop    %rbp
  4057b5:	c3                   	retq   

00000000004057b6 <_ZN2cl6detail7WrapperIP13_cl_device_idEC1ERKS3_b>:
  4057b6:	55                   	push   %rbp
  4057b7:	48 89 e5             	mov    %rsp,%rbp
  4057ba:	48 83 ec 20          	sub    $0x20,%rsp
  4057be:	48 89 7d f8          	mov    %rdi,-0x8(%rbp)
  4057c2:	48 89 75 f0          	mov    %rsi,-0x10(%rbp)
  4057c6:	89 d0                	mov    %edx,%eax
  4057c8:	88 45 ec             	mov    %al,-0x14(%rbp)
  4057cb:	48 8b 45 f0          	mov    -0x10(%rbp),%rax
  4057cf:	48 8b 10             	mov    (%rax),%rdx
  4057d2:	48 8b 45 f8          	mov    -0x8(%rbp),%rax
  4057d6:	48 89 10             	mov    %rdx,(%rax)
  4057d9:	48 8b 45 f8          	mov    -0x8(%rbp),%rax
  4057dd:	c6 40 08 00          	movb   $0x0,0x8(%rax)
  4057e1:	48 8b 45 f0          	mov    -0x10(%rbp),%rax
  4057e5:	48 8b 00             	mov    (%rax),%rax
  4057e8:	48 89 c7             	mov    %rax,%rdi
  4057eb:	e8 96 ff ff ff       	callq  405786 <_ZN2cl6detail7WrapperIP13_cl_device_idE20isReferenceCountableES3_>
  4057f0:	89 c2                	mov    %eax,%edx
  4057f2:	48 8b 45 f8          	mov    -0x8(%rbp),%rax
  4057f6:	88 50 08             	mov    %dl,0x8(%rax)
  4057f9:	80 7d ec 00          	cmpb   $0x0,-0x14(%rbp)
  4057fd:	74 18                	je     405817 <_ZN2cl6detail7WrapperIP13_cl_device_idEC1ERKS3_b+0x61>
  4057ff:	48 8b 45 f8          	mov    -0x8(%rbp),%rax
  405803:	48 89 c7             	mov    %rax,%rdi
  405806:	e8 a1 01 00 00       	callq  4059ac <_ZNK2cl6detail7WrapperIP13_cl_device_idE6retainEv>
  40580b:	be 41 10 41 00       	mov    $0x411041,%esi
  405810:	89 c7                	mov    %eax,%edi
  405812:	e8 8d f0 ff ff       	callq  4048a4 <_ZN2cl6detailL10errHandlerEiPKc>
  405817:	90                   	nop
  405818:	c9                   	leaveq 
  405819:	c3                   	retq   

000000000040581a <_ZN2cl6detail7WrapperIP13_cl_device_idED1Ev>:
  40581a:	55                   	push   %rbp
  40581b:	48 89 e5             	mov    %rsp,%rbp
  40581e:	48 83 ec 10          	sub    $0x10,%rsp
  405822:	48 89 7d f8          	mov    %rdi,-0x8(%rbp)
  405826:	48 8b 45 f8          	mov    -0x8(%rbp),%rax
  40582a:	48 89 c7             	mov    %rax,%rdi
  40582d:	e8 b6 01 00 00       	callq  4059e8 <_ZNK2cl6detail7WrapperIP13_cl_device_idE7releaseEv>
  405832:	90                   	nop
  405833:	c9                   	leaveq 
  405834:	c3                   	retq   
  405835:	90                   	nop

0000000000405836 <_ZN2cl6detail7WrapperIP13_cl_device_idEC1ERKS4_>:
  405836:	55                   	push   %rbp
  405837:	48 89 e5             	mov    %rsp,%rbp
  40583a:	48 83 ec 10          	sub    $0x10,%rsp
  40583e:	48 89 7d f8          	mov    %rdi,-0x8(%rbp)
  405842:	48 89 75 f0          	mov    %rsi,-0x10(%rbp)
  405846:	48 8b 45 f0          	mov    -0x10(%rbp),%rax
  40584a:	48 8b 10             	mov    (%rax),%rdx
  40584d:	48 8b 45 f8          	mov    -0x8(%rbp),%rax
  405851:	48 89 10             	mov    %rdx,(%rax)
  405854:	48 8b 45 f8          	mov    -0x8(%rbp),%rax
  405858:	48 8b 00             	mov    (%rax),%rax
  40585b:	48 89 c7             	mov    %rax,%rdi
  40585e:	e8 23 ff ff ff       	callq  405786 <_ZN2cl6detail7WrapperIP13_cl_device_idE20isReferenceCountableES3_>
  405863:	89 c2                	mov    %eax,%edx
  405865:	48 8b 45 f8          	mov    -0x8(%rbp),%rax
  405869:	88 50 08             	mov    %dl,0x8(%rax)
  40586c:	48 8b 45 f8          	mov    -0x8(%rbp),%rax
  405870:	48 89 c7             	mov    %rax,%rdi
  405873:	e8 34 01 00 00       	callq  4059ac <_ZNK2cl6detail7WrapperIP13_cl_device_idE6retainEv>
  405878:	be 41 10 41 00       	mov    $0x411041,%esi
  40587d:	89 c7                	mov    %eax,%edi
  40587f:	e8 20 f0 ff ff       	callq  4048a4 <_ZN2cl6detailL10errHandlerEiPKc>
  405884:	90                   	nop
  405885:	c9                   	leaveq 
  405886:	c3                   	retq   
  405887:	90                   	nop

0000000000405888 <_ZN2cl6detail7WrapperIP13_cl_device_idEC1EOS4_>:
  405888:	55                   	push   %rbp
  405889:	48 89 e5             	mov    %rsp,%rbp
  40588c:	48 89 7d f8          	mov    %rdi,-0x8(%rbp)
  405890:	48 89 75 f0          	mov    %rsi,-0x10(%rbp)
  405894:	48 8b 45 f0          	mov    -0x10(%rbp),%rax
  405898:	48 8b 10             	mov    (%rax),%rdx
  40589b:	48 8b 45 f8          	mov    -0x8(%rbp),%rax
  40589f:	48 89 10             	mov    %rdx,(%rax)
  4058a2:	48 8b 45 f0          	mov    -0x10(%rbp),%rax
  4058a6:	0f b6 50 08          	movzbl 0x8(%rax),%edx
  4058aa:	48 8b 45 f8          	mov    -0x8(%rbp),%rax
  4058ae:	88 50 08             	mov    %dl,0x8(%rax)
  4058b1:	48 8b 45 f0          	mov    -0x10(%rbp),%rax
  4058b5:	48 c7 00 00 00 00 00 	movq   $0x0,(%rax)
  4058bc:	48 8b 45 f0          	mov    -0x10(%rbp),%rax
  4058c0:	c6 40 08 00          	movb   $0x0,0x8(%rax)
  4058c4:	90                   	nop
  4058c5:	5d                   	pop    %rbp
  4058c6:	c3                   	retq   
  4058c7:	90                   	nop

00000000004058c8 <_ZN2cl6detail7WrapperIP13_cl_device_idEaSERKS4_>:
  4058c8:	55                   	push   %rbp
  4058c9:	48 89 e5             	mov    %rsp,%rbp
  4058cc:	48 83 ec 10          	sub    $0x10,%rsp
  4058d0:	48 89 7d f8          	mov    %rdi,-0x8(%rbp)
  4058d4:	48 89 75 f0          	mov    %rsi,-0x10(%rbp)
  4058d8:	48 8b 45 f8          	mov    -0x8(%rbp),%rax
  4058dc:	48 3b 45 f0          	cmp    -0x10(%rbp),%rax
  4058e0:	74 4d                	je     40592f <_ZN2cl6detail7WrapperIP13_cl_device_idEaSERKS4_+0x67>
  4058e2:	48 8b 45 f8          	mov    -0x8(%rbp),%rax
  4058e6:	48 89 c7             	mov    %rax,%rdi
  4058e9:	e8 fa 00 00 00       	callq  4059e8 <_ZNK2cl6detail7WrapperIP13_cl_device_idE7releaseEv>
  4058ee:	be 4f 10 41 00       	mov    $0x41104f,%esi
  4058f3:	89 c7                	mov    %eax,%edi
  4058f5:	e8 aa ef ff ff       	callq  4048a4 <_ZN2cl6detailL10errHandlerEiPKc>
  4058fa:	48 8b 45 f0          	mov    -0x10(%rbp),%rax
  4058fe:	48 8b 10             	mov    (%rax),%rdx
  405901:	48 8b 45 f8          	mov    -0x8(%rbp),%rax
  405905:	48 89 10             	mov    %rdx,(%rax)
  405908:	48 8b 45 f0          	mov    -0x10(%rbp),%rax
  40590c:	0f b6 50 08          	movzbl 0x8(%rax),%edx
  405910:	48 8b 45 f8          	mov    -0x8(%rbp),%rax
  405914:	88 50 08             	mov    %dl,0x8(%rax)
  405917:	48 8b 45 f8          	mov    -0x8(%rbp),%rax
  40591b:	48 89 c7             	mov    %rax,%rdi
  40591e:	e8 89 00 00 00       	callq  4059ac <_ZNK2cl6detail7WrapperIP13_cl_device_idE6retainEv>
  405923:	be 41 10 41 00       	mov    $0x411041,%esi
  405928:	89 c7                	mov    %eax,%edi
  40592a:	e8 75 ef ff ff       	callq  4048a4 <_ZN2cl6detailL10errHandlerEiPKc>
  40592f:	48 8b 45 f8          	mov    -0x8(%rbp),%rax
  405933:	c9                   	leaveq 
  405934:	c3                   	retq   
  405935:	90                   	nop

0000000000405936 <_ZN2cl6detail7WrapperIP13_cl_device_idEaSEOS4_>:
  405936:	55                   	push   %rbp
  405937:	48 89 e5             	mov    %rsp,%rbp
  40593a:	48 83 ec 10          	sub    $0x10,%rsp
  40593e:	48 89 7d f8          	mov    %rdi,-0x8(%rbp)
  405942:	48 89 75 f0          	mov    %rsi,-0x10(%rbp)
  405946:	48 8b 45 f8          	mov    -0x8(%rbp),%rax
  40594a:	48 3b 45 f0          	cmp    -0x10(%rbp),%rax
  40594e:	74 48                	je     405998 <_ZN2cl6detail7WrapperIP13_cl_device_idEaSEOS4_+0x62>
  405950:	48 8b 45 f8          	mov    -0x8(%rbp),%rax
  405954:	48 89 c7             	mov    %rax,%rdi
  405957:	e8 8c 00 00 00       	callq  4059e8 <_ZNK2cl6detail7WrapperIP13_cl_device_idE7releaseEv>
  40595c:	be 4f 10 41 00       	mov    $0x41104f,%esi
  405961:	89 c7                	mov    %eax,%edi
  405963:	e8 3c ef ff ff       	callq  4048a4 <_ZN2cl6detailL10errHandlerEiPKc>
  405968:	48 8b 45 f0          	mov    -0x10(%rbp),%rax
  40596c:	48 8b 10             	mov    (%rax),%rdx
  40596f:	48 8b 45 f8          	mov    -0x8(%rbp),%rax
  405973:	48 89 10             	mov    %rdx,(%rax)
  405976:	48 8b 45 f0          	mov    -0x10(%rbp),%rax
  40597a:	0f b6 50 08          	movzbl 0x8(%rax),%edx
  40597e:	48 8b 45 f8          	mov    -0x8(%rbp),%rax
  405982:	88 50 08             	mov    %dl,0x8(%rax)
  405985:	48 8b 45 f0          	mov    -0x10(%rbp),%rax
  405989:	48 c7 00 00 00 00 00 	movq   $0x0,(%rax)
  405990:	48 8b 45 f0          	mov    -0x10(%rbp),%rax
  405994:	c6 40 08 00          	movb   $0x0,0x8(%rax)
  405998:	48 8b 45 f8          	mov    -0x8(%rbp),%rax
  40599c:	c9                   	leaveq 
  40599d:	c3                   	retq   

000000000040599e <_ZNK2cl6detail7WrapperIP13_cl_device_idEclEv>:
  40599e:	55                   	push   %rbp
  40599f:	48 89 e5             	mov    %rsp,%rbp
  4059a2:	48 89 7d f8          	mov    %rdi,-0x8(%rbp)
  4059a6:	48 8b 45 f8          	mov    -0x8(%rbp),%rax
  4059aa:	5d                   	pop    %rbp
  4059ab:	c3                   	retq   

00000000004059ac <_ZNK2cl6detail7WrapperIP13_cl_device_idE6retainEv>:
  4059ac:	55                   	push   %rbp
  4059ad:	48 89 e5             	mov    %rsp,%rbp
  4059b0:	48 83 ec 10          	sub    $0x10,%rsp
  4059b4:	48 89 7d f8          	mov    %rdi,-0x8(%rbp)
  4059b8:	48 8b 45 f8          	mov    -0x8(%rbp),%rax
  4059bc:	48 8b 00             	mov    (%rax),%rax
  4059bf:	48 85 c0             	test   %rax,%rax
  4059c2:	74 1d                	je     4059e1 <_ZNK2cl6detail7WrapperIP13_cl_device_idE6retainEv+0x35>
  4059c4:	48 8b 45 f8          	mov    -0x8(%rbp),%rax
  4059c8:	0f b6 40 08          	movzbl 0x8(%rax),%eax
  4059cc:	84 c0                	test   %al,%al
  4059ce:	74 11                	je     4059e1 <_ZNK2cl6detail7WrapperIP13_cl_device_idE6retainEv+0x35>
  4059d0:	48 8b 45 f8          	mov    -0x8(%rbp),%rax
  4059d4:	48 8b 00             	mov    (%rax),%rax
  4059d7:	48 89 c7             	mov    %rax,%rdi
  4059da:	e8 e9 fc ff ff       	callq  4056c8 <_ZN2cl6detail16ReferenceHandlerIP13_cl_device_idE6retainES3_>
  4059df:	eb 05                	jmp    4059e6 <_ZNK2cl6detail7WrapperIP13_cl_device_idE6retainEv+0x3a>
  4059e1:	b8 00 00 00 00       	mov    $0x0,%eax
  4059e6:	c9                   	leaveq 
  4059e7:	c3                   	retq   

00000000004059e8 <_ZNK2cl6detail7WrapperIP13_cl_device_idE7releaseEv>:
  4059e8:	55                   	push   %rbp
  4059e9:	48 89 e5             	mov    %rsp,%rbp
  4059ec:	48 83 ec 10          	sub    $0x10,%rsp
  4059f0:	48 89 7d f8          	mov    %rdi,-0x8(%rbp)
  4059f4:	48 8b 45 f8          	mov    -0x8(%rbp),%rax
  4059f8:	48 8b 00             	mov    (%rax),%rax
  4059fb:	48 85 c0             	test   %rax,%rax
  4059fe:	74 1d                	je     405a1d <_ZNK2cl6detail7WrapperIP13_cl_device_idE7releaseEv+0x35>
  405a00:	48 8b 45 f8          	mov    -0x8(%rbp),%rax
  405a04:	0f b6 40 08          	movzbl 0x8(%rax),%eax
  405a08:	84 c0                	test   %al,%al
  405a0a:	74 11                	je     405a1d <_ZNK2cl6detail7WrapperIP13_cl_device_idE7releaseEv+0x35>
  405a0c:	48 8b 45 f8          	mov    -0x8(%rbp),%rax
  405a10:	48 8b 00             	mov    (%rax),%rax
  405a13:	48 89 c7             	mov    %rax,%rdi
  405a16:	e8 bc fc ff ff       	callq  4056d7 <_ZN2cl6detail16ReferenceHandlerIP13_cl_device_idE7releaseES3_>
  405a1b:	eb 05                	jmp    405a22 <_ZNK2cl6detail7WrapperIP13_cl_device_idE7releaseEv+0x3a>
  405a1d:	b8 00 00 00 00       	mov    $0x0,%eax
  405a22:	c9                   	leaveq 
  405a23:	c3                   	retq   

0000000000405a24 <_ZN2cl6DeviceC1Ev>:
  405a24:	55                   	push   %rbp
  405a25:	48 89 e5             	mov    %rsp,%rbp
  405a28:	48 83 ec 10          	sub    $0x10,%rsp
  405a2c:	48 89 7d f8          	mov    %rdi,-0x8(%rbp)
  405a30:	48 8b 45 f8          	mov    -0x8(%rbp),%rax
  405a34:	48 89 c7             	mov    %rax,%rdi
  405a37:	e8 5c fd ff ff       	callq  405798 <_ZN2cl6detail7WrapperIP13_cl_device_idEC1Ev>
  405a3c:	90                   	nop
  405a3d:	c9                   	leaveq 
  405a3e:	c3                   	retq   
  405a3f:	90                   	nop

0000000000405a40 <_ZN2cl6DeviceC1ERKP13_cl_device_idb>:
  405a40:	55                   	push   %rbp
  405a41:	48 89 e5             	mov    %rsp,%rbp
  405a44:	48 83 ec 20          	sub    $0x20,%rsp
  405a48:	48 89 7d f8          	mov    %rdi,-0x8(%rbp)
  405a4c:	48 89 75 f0          	mov    %rsi,-0x10(%rbp)
  405a50:	89 d0                	mov    %edx,%eax
  405a52:	88 45 ec             	mov    %al,-0x14(%rbp)
  405a55:	0f b6 55 ec          	movzbl -0x14(%rbp),%edx
  405a59:	48 8b 45 f8          	mov    -0x8(%rbp),%rax
  405a5d:	48 8b 4d f0          	mov    -0x10(%rbp),%rcx
  405a61:	48 89 ce             	mov    %rcx,%rsi
  405a64:	48 89 c7             	mov    %rax,%rdi
  405a67:	e8 4a fd ff ff       	callq  4057b6 <_ZN2cl6detail7WrapperIP13_cl_device_idEC1ERKS3_b>
  405a6c:	90                   	nop
  405a6d:	c9                   	leaveq 
  405a6e:	c3                   	retq   
  405a6f:	90                   	nop

0000000000405a70 <_ZN2cl6DeviceD1Ev>:
  405a70:	55                   	push   %rbp
  405a71:	48 89 e5             	mov    %rsp,%rbp
  405a74:	48 83 ec 10          	sub    $0x10,%rsp
  405a78:	48 89 7d f8          	mov    %rdi,-0x8(%rbp)
  405a7c:	48 8b 45 f8          	mov    -0x8(%rbp),%rax
  405a80:	48 89 c7             	mov    %rax,%rdi
  405a83:	e8 92 fd ff ff       	callq  40581a <_ZN2cl6detail7WrapperIP13_cl_device_idED1Ev>
  405a88:	90                   	nop
  405a89:	c9                   	leaveq 
  405a8a:	c3                   	retq   

0000000000405a8b <_ZN2cl6Device10getDefaultEPi>:
  405a8b:	55                   	push   %rbp
  405a8c:	48 89 e5             	mov    %rsp,%rbp
  405a8f:	48 83 ec 10          	sub    $0x10,%rsp
  405a93:	48 89 7d f8          	mov    %rdi,-0x8(%rbp)
  405a97:	48 89 75 f0          	mov    %rsi,-0x10(%rbp)
  405a9b:	be bc 69 40 00       	mov    $0x4069bc,%esi
  405aa0:	bf e0 a6 61 00       	mov    $0x61a6e0,%edi
  405aa5:	e8 bd 2c 00 00       	callq  408767 <_ZSt9call_onceIRFvvEJEEvRSt9once_flagOT_DpOT0_>
  405aaa:	8b 05 50 4c 21 00    	mov    0x214c50(%rip),%eax        # 61a700 <_ZN2cl6Device14default_error_E>
  405ab0:	be 00 00 00 00       	mov    $0x0,%esi
  405ab5:	89 c7                	mov    %eax,%edi
  405ab7:	e8 e8 ed ff ff       	callq  4048a4 <_ZN2cl6detailL10errHandlerEiPKc>
  405abc:	48 83 7d f0 00       	cmpq   $0x0,-0x10(%rbp)
  405ac1:	74 0c                	je     405acf <_ZN2cl6Device10getDefaultEPi+0x44>
  405ac3:	8b 15 37 4c 21 00    	mov    0x214c37(%rip),%edx        # 61a700 <_ZN2cl6Device14default_error_E>
  405ac9:	48 8b 45 f0          	mov    -0x10(%rbp),%rax
  405acd:	89 10                	mov    %edx,(%rax)
  405acf:	48 8b 45 f8          	mov    -0x8(%rbp),%rax
  405ad3:	be f0 a6 61 00       	mov    $0x61a6f0,%esi
  405ad8:	48 89 c7             	mov    %rax,%rdi
  405adb:	e8 06 00 00 00       	callq  405ae6 <_ZN2cl6DeviceC1ERKS0_>
  405ae0:	48 8b 45 f8          	mov    -0x8(%rbp),%rax
  405ae4:	c9                   	leaveq 
  405ae5:	c3                   	retq   

0000000000405ae6 <_ZN2cl6DeviceC1ERKS0_>:
  405ae6:	55                   	push   %rbp
  405ae7:	48 89 e5             	mov    %rsp,%rbp
  405aea:	48 83 ec 10          	sub    $0x10,%rsp
  405aee:	48 89 7d f8          	mov    %rdi,-0x8(%rbp)
  405af2:	48 89 75 f0          	mov    %rsi,-0x10(%rbp)
  405af6:	48 8b 55 f0          	mov    -0x10(%rbp),%rdx
  405afa:	48 8b 45 f8          	mov    -0x8(%rbp),%rax
  405afe:	48 89 d6             	mov    %rdx,%rsi
  405b01:	48 89 c7             	mov    %rax,%rdi
  405b04:	e8 2d fd ff ff       	callq  405836 <_ZN2cl6detail7WrapperIP13_cl_device_idEC1ERKS4_>
  405b09:	90                   	nop
  405b0a:	c9                   	leaveq 
  405b0b:	c3                   	retq   

0000000000405b0c <_ZN2cl6DeviceaSERKS0_>:
  405b0c:	55                   	push   %rbp
  405b0d:	48 89 e5             	mov    %rsp,%rbp
  405b10:	48 83 ec 10          	sub    $0x10,%rsp
  405b14:	48 89 7d f8          	mov    %rdi,-0x8(%rbp)
  405b18:	48 89 75 f0          	mov    %rsi,-0x10(%rbp)
  405b1c:	48 8b 55 f0          	mov    -0x10(%rbp),%rdx
  405b20:	48 8b 45 f8          	mov    -0x8(%rbp),%rax
  405b24:	48 89 d6             	mov    %rdx,%rsi
  405b27:	48 89 c7             	mov    %rax,%rdi
  405b2a:	e8 99 fd ff ff       	callq  4058c8 <_ZN2cl6detail7WrapperIP13_cl_device_idEaSERKS4_>
  405b2f:	48 8b 45 f8          	mov    -0x8(%rbp),%rax
  405b33:	c9                   	leaveq 
  405b34:	c3                   	retq   

0000000000405b35 <_ZSt4moveIRN2cl6DeviceEEONSt16remove_referenceIT_E4typeEOS4_>:
  405b35:	55                   	push   %rbp
  405b36:	48 89 e5             	mov    %rsp,%rbp
  405b39:	48 89 7d f8          	mov    %rdi,-0x8(%rbp)
  405b3d:	48 8b 45 f8          	mov    -0x8(%rbp),%rax
  405b41:	5d                   	pop    %rbp
  405b42:	c3                   	retq   
  405b43:	90                   	nop

0000000000405b44 <_ZN2cl6DeviceC1EOS0_>:
  405b44:	55                   	push   %rbp
  405b45:	48 89 e5             	mov    %rsp,%rbp
  405b48:	48 83 ec 10          	sub    $0x10,%rsp
  405b4c:	48 89 7d f8          	mov    %rdi,-0x8(%rbp)
  405b50:	48 89 75 f0          	mov    %rsi,-0x10(%rbp)
  405b54:	48 8b 45 f0          	mov    -0x10(%rbp),%rax
  405b58:	48 89 c7             	mov    %rax,%rdi
  405b5b:	e8 d5 ff ff ff       	callq  405b35 <_ZSt4moveIRN2cl6DeviceEEONSt16remove_referenceIT_E4typeEOS4_>
  405b60:	48 89 c2             	mov    %rax,%rdx
  405b63:	48 8b 45 f8          	mov    -0x8(%rbp),%rax
  405b67:	48 89 d6             	mov    %rdx,%rsi
  405b6a:	48 89 c7             	mov    %rax,%rdi
  405b6d:	e8 16 fd ff ff       	callq  405888 <_ZN2cl6detail7WrapperIP13_cl_device_idEC1EOS4_>
  405b72:	90                   	nop
  405b73:	c9                   	leaveq 
  405b74:	c3                   	retq   
  405b75:	90                   	nop

0000000000405b76 <_ZN2cl6DeviceaSEOS0_>:
  405b76:	55                   	push   %rbp
  405b77:	48 89 e5             	mov    %rsp,%rbp
  405b7a:	48 83 ec 10          	sub    $0x10,%rsp
  405b7e:	48 89 7d f8          	mov    %rdi,-0x8(%rbp)
  405b82:	48 89 75 f0          	mov    %rsi,-0x10(%rbp)
  405b86:	48 8b 45 f0          	mov    -0x10(%rbp),%rax
  405b8a:	48 89 c7             	mov    %rax,%rdi
  405b8d:	e8 a3 ff ff ff       	callq  405b35 <_ZSt4moveIRN2cl6DeviceEEONSt16remove_referenceIT_E4typeEOS4_>
  405b92:	48 89 c2             	mov    %rax,%rdx
  405b95:	48 8b 45 f8          	mov    -0x8(%rbp),%rax
  405b99:	48 89 d6             	mov    %rdx,%rsi
  405b9c:	48 89 c7             	mov    %rax,%rdi
  405b9f:	e8 92 fd ff ff       	callq  405936 <_ZN2cl6detail7WrapperIP13_cl_device_idEaSEOS4_>
  405ba4:	48 8b 45 f8          	mov    -0x8(%rbp),%rax
  405ba8:	c9                   	leaveq 
  405ba9:	c3                   	retq   

0000000000405baa <_ZN2cl8PlatformD1Ev>:
  405baa:	55                   	push   %rbp
  405bab:	48 89 e5             	mov    %rsp,%rbp
  405bae:	48 83 ec 10          	sub    $0x10,%rsp
  405bb2:	48 89 7d f8          	mov    %rdi,-0x8(%rbp)
  405bb6:	48 8b 45 f8          	mov    -0x8(%rbp),%rax
  405bba:	48 89 c7             	mov    %rax,%rdi
  405bbd:	e8 5e 2d 00 00       	callq  408920 <_ZN2cl6detail7WrapperIP15_cl_platform_idED1Ev>
  405bc2:	90                   	nop
  405bc3:	c9                   	leaveq 
  405bc4:	c3                   	retq   
  405bc5:	90                   	nop

0000000000405bc6 <_ZN2cl8PlatformaSEOS0_>:
  405bc6:	55                   	push   %rbp
  405bc7:	48 89 e5             	mov    %rsp,%rbp
  405bca:	48 83 ec 10          	sub    $0x10,%rsp
  405bce:	48 89 7d f8          	mov    %rdi,-0x8(%rbp)
  405bd2:	48 89 75 f0          	mov    %rsi,-0x10(%rbp)
  405bd6:	48 8b 55 f0          	mov    -0x10(%rbp),%rdx
  405bda:	48 8b 45 f8          	mov    -0x8(%rbp),%rax
  405bde:	48 89 d6             	mov    %rdx,%rsi
  405be1:	48 89 c7             	mov    %rax,%rdi
  405be4:	e8 5f 2d 00 00       	callq  408948 <_ZN2cl6detail7WrapperIP15_cl_platform_idEaSEOS4_>
  405be9:	48 8b 45 f8          	mov    -0x8(%rbp),%rax
  405bed:	c9                   	leaveq 
  405bee:	c3                   	retq   

0000000000405bef <_ZN2cl8Platform11makeDefaultEv>:
  405bef:	55                   	push   %rbp
  405bf0:	48 89 e5             	mov    %rsp,%rbp
  405bf3:	41 54                	push   %r12
  405bf5:	53                   	push   %rbx
  405bf6:	48 83 ec 40          	sub    $0x40,%rsp
  405bfa:	64 48 8b 04 25 28 00 	mov    %fs:0x28,%rax
  405c01:	00 00 
  405c03:	48 89 45 e8          	mov    %rax,-0x18(%rbp)
  405c07:	31 c0                	xor    %eax,%eax
  405c09:	c7 45 b8 00 00 00 00 	movl   $0x0,-0x48(%rbp)
  405c10:	48 8d 45 b8          	lea    -0x48(%rbp),%rax
  405c14:	48 89 c2             	mov    %rax,%rdx
  405c17:	be 00 00 00 00       	mov    $0x0,%esi
  405c1c:	bf 00 00 00 00       	mov    $0x0,%edi
  405c21:	e8 5a e8 ff ff       	callq  404480 <clGetPlatformIDs@plt>
  405c26:	89 45 bc             	mov    %eax,-0x44(%rbp)
  405c29:	83 7d bc 00          	cmpl   $0x0,-0x44(%rbp)
  405c2d:	74 0e                	je     405c3d <_ZN2cl8Platform11makeDefaultEv+0x4e>
  405c2f:	8b 45 bc             	mov    -0x44(%rbp),%eax
  405c32:	89 05 d8 4a 21 00    	mov    %eax,0x214ad8(%rip)        # 61a710 <_ZN2cl8Platform14default_error_E>
  405c38:	e9 54 01 00 00       	jmpq   405d91 <_ZN2cl8Platform11makeDefaultEv+0x1a2>
  405c3d:	8b 45 b8             	mov    -0x48(%rbp),%eax
  405c40:	85 c0                	test   %eax,%eax
  405c42:	75 0f                	jne    405c53 <_ZN2cl8Platform11makeDefaultEv+0x64>
  405c44:	c7 05 c2 4a 21 00 e0 	movl   $0xffffffe0,0x214ac2(%rip)        # 61a710 <_ZN2cl8Platform14default_error_E>
  405c4b:	ff ff ff 
  405c4e:	e9 3e 01 00 00       	jmpq   405d91 <_ZN2cl8Platform11makeDefaultEv+0x1a2>
  405c53:	48 8d 45 c0          	lea    -0x40(%rbp),%rax
  405c57:	48 89 c7             	mov    %rax,%rdi
  405c5a:	e8 9f 2b 00 00       	callq  4087fe <_ZNSaIP15_cl_platform_idEC1Ev>
  405c5f:	8b 45 b8             	mov    -0x48(%rbp),%eax
  405c62:	89 c1                	mov    %eax,%ecx
  405c64:	48 8d 55 c0          	lea    -0x40(%rbp),%rdx
  405c68:	48 8d 45 d0          	lea    -0x30(%rbp),%rax
  405c6c:	48 89 ce             	mov    %rcx,%rsi
  405c6f:	48 89 c7             	mov    %rax,%rdi
  405c72:	e8 bf 2b 00 00       	callq  408836 <_ZNSt6vectorIP15_cl_platform_idSaIS1_EEC1EmRKS2_>
  405c77:	48 8d 45 c0          	lea    -0x40(%rbp),%rax
  405c7b:	48 89 c7             	mov    %rax,%rdi
  405c7e:	e8 97 2b 00 00       	callq  40881a <_ZNSaIP15_cl_platform_idED1Ev>
  405c83:	48 8d 45 d0          	lea    -0x30(%rbp),%rax
  405c87:	48 89 c7             	mov    %rax,%rdi
  405c8a:	e8 4d 2c 00 00       	callq  4088dc <_ZNSt6vectorIP15_cl_platform_idSaIS1_EE4dataEv>
  405c8f:	48 89 c1             	mov    %rax,%rcx
  405c92:	8b 45 b8             	mov    -0x48(%rbp),%eax
  405c95:	ba 00 00 00 00       	mov    $0x0,%edx
  405c9a:	48 89 ce             	mov    %rcx,%rsi
  405c9d:	89 c7                	mov    %eax,%edi
  405c9f:	e8 dc e7 ff ff       	callq  404480 <clGetPlatformIDs@plt>
  405ca4:	89 45 bc             	mov    %eax,-0x44(%rbp)
  405ca7:	83 7d bc 00          	cmpl   $0x0,-0x44(%rbp)
  405cab:	74 10                	je     405cbd <_ZN2cl8Platform11makeDefaultEv+0xce>
  405cad:	8b 45 bc             	mov    -0x44(%rbp),%eax
  405cb0:	89 05 5a 4a 21 00    	mov    %eax,0x214a5a(%rip)        # 61a710 <_ZN2cl8Platform14default_error_E>
  405cb6:	bb 00 00 00 00       	mov    $0x0,%ebx
  405cbb:	eb 4a                	jmp    405d07 <_ZN2cl8Platform11makeDefaultEv+0x118>
  405cbd:	48 8d 45 d0          	lea    -0x30(%rbp),%rax
  405cc1:	be 00 00 00 00       	mov    $0x0,%esi
  405cc6:	48 89 c7             	mov    %rax,%rdi
  405cc9:	e8 32 2c 00 00       	callq  408900 <_ZNSt6vectorIP15_cl_platform_idSaIS1_EEixEm>
  405cce:	48 89 c1             	mov    %rax,%rcx
  405cd1:	48 8d 45 c0          	lea    -0x40(%rbp),%rax
  405cd5:	ba 00 00 00 00       	mov    $0x0,%edx
  405cda:	48 89 ce             	mov    %rcx,%rsi
  405cdd:	48 89 c7             	mov    %rax,%rdi
  405ce0:	e8 e5 00 00 00       	callq  405dca <_ZN2cl8PlatformC1ERKP15_cl_platform_idb>
  405ce5:	48 8d 45 c0          	lea    -0x40(%rbp),%rax
  405ce9:	48 89 c6             	mov    %rax,%rsi
  405cec:	bf 08 a7 61 00       	mov    $0x61a708,%edi
  405cf1:	e8 d0 fe ff ff       	callq  405bc6 <_ZN2cl8PlatformaSEOS0_>
  405cf6:	48 8d 45 c0          	lea    -0x40(%rbp),%rax
  405cfa:	48 89 c7             	mov    %rax,%rdi
  405cfd:	e8 a8 fe ff ff       	callq  405baa <_ZN2cl8PlatformD1Ev>
  405d02:	bb 01 00 00 00       	mov    $0x1,%ebx
  405d07:	48 8d 45 d0          	lea    -0x30(%rbp),%rax
  405d0b:	48 89 c7             	mov    %rax,%rdi
  405d0e:	e8 85 2b 00 00       	callq  408898 <_ZNSt6vectorIP15_cl_platform_idSaIS1_EED1Ev>
  405d13:	83 fb 01             	cmp    $0x1,%ebx
  405d16:	eb 79                	jmp    405d91 <_ZN2cl8Platform11makeDefaultEv+0x1a2>
  405d18:	49 89 c4             	mov    %rax,%r12
  405d1b:	48 89 d3             	mov    %rdx,%rbx
  405d1e:	48 8d 45 c0          	lea    -0x40(%rbp),%rax
  405d22:	48 89 c7             	mov    %rax,%rdi
  405d25:	e8 f0 2a 00 00       	callq  40881a <_ZNSaIP15_cl_platform_idED1Ev>
  405d2a:	4c 89 e0             	mov    %r12,%rax
  405d2d:	48 89 da             	mov    %rbx,%rdx
  405d30:	eb 2e                	jmp    405d60 <_ZN2cl8Platform11makeDefaultEv+0x171>
  405d32:	49 89 c4             	mov    %rax,%r12
  405d35:	48 89 d3             	mov    %rdx,%rbx
  405d38:	48 8d 45 c0          	lea    -0x40(%rbp),%rax
  405d3c:	48 89 c7             	mov    %rax,%rdi
  405d3f:	e8 66 fe ff ff       	callq  405baa <_ZN2cl8PlatformD1Ev>
  405d44:	eb 06                	jmp    405d4c <_ZN2cl8Platform11makeDefaultEv+0x15d>
  405d46:	49 89 c4             	mov    %rax,%r12
  405d49:	48 89 d3             	mov    %rdx,%rbx
  405d4c:	48 8d 45 d0          	lea    -0x30(%rbp),%rax
  405d50:	48 89 c7             	mov    %rax,%rdi
  405d53:	e8 40 2b 00 00       	callq  408898 <_ZNSt6vectorIP15_cl_platform_idSaIS1_EED1Ev>
  405d58:	4c 89 e0             	mov    %r12,%rax
  405d5b:	48 89 da             	mov    %rbx,%rdx
  405d5e:	eb 00                	jmp    405d60 <_ZN2cl8Platform11makeDefaultEv+0x171>
  405d60:	48 83 fa 01          	cmp    $0x1,%rdx
  405d64:	74 08                	je     405d6e <_ZN2cl8Platform11makeDefaultEv+0x17f>
  405d66:	48 89 c7             	mov    %rax,%rdi
  405d69:	e8 92 e8 ff ff       	callq  404600 <_Unwind_Resume@plt>
  405d6e:	48 89 c7             	mov    %rax,%rdi
  405d71:	e8 ca e4 ff ff       	callq  404240 <__cxa_begin_catch@plt>
  405d76:	48 89 45 c8          	mov    %rax,-0x38(%rbp)
  405d7a:	48 8b 45 c8          	mov    -0x38(%rbp),%rax
  405d7e:	48 89 c7             	mov    %rax,%rdi
  405d81:	e8 e0 f8 ff ff       	callq  405666 <_ZNK2cl5Error3errEv>
  405d86:	89 05 84 49 21 00    	mov    %eax,0x214984(%rip)        # 61a710 <_ZN2cl8Platform14default_error_E>
  405d8c:	e8 ef e7 ff ff       	callq  404580 <__cxa_end_catch@plt>
  405d91:	48 8b 45 e8          	mov    -0x18(%rbp),%rax
  405d95:	64 48 33 04 25 28 00 	xor    %fs:0x28,%rax
  405d9c:	00 00 
  405d9e:	74 05                	je     405da5 <_ZN2cl8Platform11makeDefaultEv+0x1b6>
  405da0:	e8 fb e5 ff ff       	callq  4043a0 <__stack_chk_fail@plt>
  405da5:	48 83 c4 40          	add    $0x40,%rsp
  405da9:	5b                   	pop    %rbx
  405daa:	41 5c                	pop    %r12
  405dac:	5d                   	pop    %rbp
  405dad:	c3                   	retq   

0000000000405dae <_ZN2cl8PlatformC1Ev>:
  405dae:	55                   	push   %rbp
  405daf:	48 89 e5             	mov    %rsp,%rbp
  405db2:	48 83 ec 10          	sub    $0x10,%rsp
  405db6:	48 89 7d f8          	mov    %rdi,-0x8(%rbp)
  405dba:	48 8b 45 f8          	mov    -0x8(%rbp),%rax
  405dbe:	48 89 c7             	mov    %rax,%rdi
  405dc1:	e8 d4 2b 00 00       	callq  40899a <_ZN2cl6detail7WrapperIP15_cl_platform_idEC1Ev>
  405dc6:	90                   	nop
  405dc7:	c9                   	leaveq 
  405dc8:	c3                   	retq   
  405dc9:	90                   	nop

0000000000405dca <_ZN2cl8PlatformC1ERKP15_cl_platform_idb>:
  405dca:	55                   	push   %rbp
  405dcb:	48 89 e5             	mov    %rsp,%rbp
  405dce:	48 83 ec 20          	sub    $0x20,%rsp
  405dd2:	48 89 7d f8          	mov    %rdi,-0x8(%rbp)
  405dd6:	48 89 75 f0          	mov    %rsi,-0x10(%rbp)
  405dda:	89 d0                	mov    %edx,%eax
  405ddc:	88 45 ec             	mov    %al,-0x14(%rbp)
  405ddf:	0f b6 55 ec          	movzbl -0x14(%rbp),%edx
  405de3:	48 8b 45 f8          	mov    -0x8(%rbp),%rax
  405de7:	48 8b 4d f0          	mov    -0x10(%rbp),%rcx
  405deb:	48 89 ce             	mov    %rcx,%rsi
  405dee:	48 89 c7             	mov    %rax,%rdi
  405df1:	e8 ba 2b 00 00       	callq  4089b0 <_ZN2cl6detail7WrapperIP15_cl_platform_idEC1ERKS3_b>
  405df6:	90                   	nop
  405df7:	c9                   	leaveq 
  405df8:	c3                   	retq   
  405df9:	90                   	nop

0000000000405dfa <_ZN2cl8PlatformC1ERKS0_>:
  405dfa:	55                   	push   %rbp
  405dfb:	48 89 e5             	mov    %rsp,%rbp
  405dfe:	48 83 ec 10          	sub    $0x10,%rsp
  405e02:	48 89 7d f8          	mov    %rdi,-0x8(%rbp)
  405e06:	48 89 75 f0          	mov    %rsi,-0x10(%rbp)
  405e0a:	48 8b 55 f0          	mov    -0x10(%rbp),%rdx
  405e0e:	48 8b 45 f8          	mov    -0x8(%rbp),%rax
  405e12:	48 89 d6             	mov    %rdx,%rsi
  405e15:	48 89 c7             	mov    %rax,%rdi
  405e18:	e8 d7 2b 00 00       	callq  4089f4 <_ZN2cl6detail7WrapperIP15_cl_platform_idEC1ERKS4_>
  405e1d:	90                   	nop
  405e1e:	c9                   	leaveq 
  405e1f:	c3                   	retq   

0000000000405e20 <_ZN2cl8Platform10getDefaultEPi>:
  405e20:	55                   	push   %rbp
  405e21:	48 89 e5             	mov    %rsp,%rbp
  405e24:	48 83 ec 10          	sub    $0x10,%rsp
  405e28:	48 89 7d f8          	mov    %rdi,-0x8(%rbp)
  405e2c:	48 89 75 f0          	mov    %rsi,-0x10(%rbp)
  405e30:	be ef 5b 40 00       	mov    $0x405bef,%esi
  405e35:	bf 04 a7 61 00       	mov    $0x61a704,%edi
  405e3a:	e8 28 29 00 00       	callq  408767 <_ZSt9call_onceIRFvvEJEEvRSt9once_flagOT_DpOT0_>
  405e3f:	8b 05 cb 48 21 00    	mov    0x2148cb(%rip),%eax        # 61a710 <_ZN2cl8Platform14default_error_E>
  405e45:	be 00 00 00 00       	mov    $0x0,%esi
  405e4a:	89 c7                	mov    %eax,%edi
  405e4c:	e8 53 ea ff ff       	callq  4048a4 <_ZN2cl6detailL10errHandlerEiPKc>
  405e51:	48 83 7d f0 00       	cmpq   $0x0,-0x10(%rbp)
  405e56:	74 0c                	je     405e64 <_ZN2cl8Platform10getDefaultEPi+0x44>
  405e58:	8b 15 b2 48 21 00    	mov    0x2148b2(%rip),%edx        # 61a710 <_ZN2cl8Platform14default_error_E>
  405e5e:	48 8b 45 f0          	mov    -0x10(%rbp),%rax
  405e62:	89 10                	mov    %edx,(%rax)
  405e64:	48 8b 45 f8          	mov    -0x8(%rbp),%rax
  405e68:	be 08 a7 61 00       	mov    $0x61a708,%esi
  405e6d:	48 89 c7             	mov    %rax,%rdi
  405e70:	e8 85 ff ff ff       	callq  405dfa <_ZN2cl8PlatformC1ERKS0_>
  405e75:	48 8b 45 f8          	mov    -0x8(%rbp),%rax
  405e79:	c9                   	leaveq 
  405e7a:	c3                   	retq   
  405e7b:	90                   	nop

0000000000405e7c <_ZNK2cl8Platform10getDevicesEmPSt6vectorINS_6DeviceESaIS2_EE>:
  405e7c:	55                   	push   %rbp
  405e7d:	48 89 e5             	mov    %rsp,%rbp
  405e80:	53                   	push   %rbx
  405e81:	48 83 ec 68          	sub    $0x68,%rsp
  405e85:	48 89 7d a8          	mov    %rdi,-0x58(%rbp)
  405e89:	48 89 75 a0          	mov    %rsi,-0x60(%rbp)
  405e8d:	48 89 55 98          	mov    %rdx,-0x68(%rbp)
  405e91:	64 48 8b 04 25 28 00 	mov    %fs:0x28,%rax
  405e98:	00 00 
  405e9a:	48 89 45 e8          	mov    %rax,-0x18(%rbp)
  405e9e:	31 c0                	xor    %eax,%eax
  405ea0:	c7 45 b0 00 00 00 00 	movl   $0x0,-0x50(%rbp)
  405ea7:	48 83 7d 98 00       	cmpq   $0x0,-0x68(%rbp)
  405eac:	75 16                	jne    405ec4 <_ZNK2cl8Platform10getDevicesEmPSt6vectorINS_6DeviceESaIS2_EE+0x48>
  405eae:	be 5e 10 41 00       	mov    $0x41105e,%esi
  405eb3:	bf ce ff ff ff       	mov    $0xffffffce,%edi
  405eb8:	e8 e7 e9 ff ff       	callq  4048a4 <_ZN2cl6detailL10errHandlerEiPKc>
  405ebd:	89 c3                	mov    %eax,%ebx
  405ebf:	e9 78 01 00 00       	jmpq   40603c <_ZNK2cl8Platform10getDevicesEmPSt6vectorINS_6DeviceESaIS2_EE+0x1c0>
  405ec4:	48 8b 45 a8          	mov    -0x58(%rbp),%rax
  405ec8:	48 8b 00             	mov    (%rax),%rax
  405ecb:	48 8d 55 b0          	lea    -0x50(%rbp),%rdx
  405ecf:	48 8b 75 a0          	mov    -0x60(%rbp),%rsi
  405ed3:	49 89 d0             	mov    %rdx,%r8
  405ed6:	b9 00 00 00 00       	mov    $0x0,%ecx
  405edb:	ba 00 00 00 00       	mov    $0x0,%edx
  405ee0:	48 89 c7             	mov    %rax,%rdi
  405ee3:	e8 28 e5 ff ff       	callq  404410 <clGetDeviceIDs@plt>
  405ee8:	89 45 b4             	mov    %eax,-0x4c(%rbp)
  405eeb:	83 7d b4 00          	cmpl   $0x0,-0x4c(%rbp)
  405eef:	74 16                	je     405f07 <_ZNK2cl8Platform10getDevicesEmPSt6vectorINS_6DeviceESaIS2_EE+0x8b>
  405ef1:	8b 45 b4             	mov    -0x4c(%rbp),%eax
  405ef4:	be 5e 10 41 00       	mov    $0x41105e,%esi
  405ef9:	89 c7                	mov    %eax,%edi
  405efb:	e8 a4 e9 ff ff       	callq  4048a4 <_ZN2cl6detailL10errHandlerEiPKc>
  405f00:	89 c3                	mov    %eax,%ebx
  405f02:	e9 35 01 00 00       	jmpq   40603c <_ZNK2cl8Platform10getDevicesEmPSt6vectorINS_6DeviceESaIS2_EE+0x1c0>
  405f07:	48 8d 45 c0          	lea    -0x40(%rbp),%rax
  405f0b:	48 89 c7             	mov    %rax,%rdi
  405f0e:	e8 1b 2b 00 00       	callq  408a2e <_ZNSaIP13_cl_device_idEC1Ev>
  405f13:	8b 45 b0             	mov    -0x50(%rbp),%eax
  405f16:	89 c1                	mov    %eax,%ecx
  405f18:	48 8d 55 c0          	lea    -0x40(%rbp),%rdx
  405f1c:	48 8d 45 d0          	lea    -0x30(%rbp),%rax
  405f20:	48 89 ce             	mov    %rcx,%rsi
  405f23:	48 89 c7             	mov    %rax,%rdi
  405f26:	e8 3b 2b 00 00       	callq  408a66 <_ZNSt6vectorIP13_cl_device_idSaIS1_EEC1EmRKS2_>
  405f2b:	48 8d 45 c0          	lea    -0x40(%rbp),%rax
  405f2f:	48 89 c7             	mov    %rax,%rdi
  405f32:	e8 13 2b 00 00       	callq  408a4a <_ZNSaIP13_cl_device_idED1Ev>
  405f37:	48 8d 45 d0          	lea    -0x30(%rbp),%rax
  405f3b:	48 89 c7             	mov    %rax,%rdi
  405f3e:	e8 c9 2b 00 00       	callq  408b0c <_ZNSt6vectorIP13_cl_device_idSaIS1_EE4dataEv>
  405f43:	48 89 c1             	mov    %rax,%rcx
  405f46:	8b 55 b0             	mov    -0x50(%rbp),%edx
  405f49:	48 8b 45 a8          	mov    -0x58(%rbp),%rax
  405f4d:	48 8b 00             	mov    (%rax),%rax
  405f50:	48 8b 75 a0          	mov    -0x60(%rbp),%rsi
  405f54:	41 b8 00 00 00 00    	mov    $0x0,%r8d
  405f5a:	48 89 c7             	mov    %rax,%rdi
  405f5d:	e8 ae e4 ff ff       	callq  404410 <clGetDeviceIDs@plt>
  405f62:	89 45 b4             	mov    %eax,-0x4c(%rbp)
  405f65:	83 7d b4 00          	cmpl   $0x0,-0x4c(%rbp)
  405f69:	74 16                	je     405f81 <_ZNK2cl8Platform10getDevicesEmPSt6vectorINS_6DeviceESaIS2_EE+0x105>
  405f6b:	8b 45 b4             	mov    -0x4c(%rbp),%eax
  405f6e:	be 5e 10 41 00       	mov    $0x41105e,%esi
  405f73:	89 c7                	mov    %eax,%edi
  405f75:	e8 2a e9 ff ff       	callq  4048a4 <_ZN2cl6detailL10errHandlerEiPKc>
  405f7a:	89 c3                	mov    %eax,%ebx
  405f7c:	e9 af 00 00 00       	jmpq   406030 <_ZNK2cl8Platform10getDevicesEmPSt6vectorINS_6DeviceESaIS2_EE+0x1b4>
  405f81:	48 83 7d 98 00       	cmpq   $0x0,-0x68(%rbp)
  405f86:	0f 84 9f 00 00 00    	je     40602b <_ZNK2cl8Platform10getDevicesEmPSt6vectorINS_6DeviceESaIS2_EE+0x1af>
  405f8c:	48 8d 45 d0          	lea    -0x30(%rbp),%rax
  405f90:	48 89 c7             	mov    %rax,%rdi
  405f93:	e8 98 2b 00 00       	callq  408b30 <_ZNKSt6vectorIP13_cl_device_idSaIS1_EE4sizeEv>
  405f98:	48 89 c2             	mov    %rax,%rdx
  405f9b:	48 8b 45 98          	mov    -0x68(%rbp),%rax
  405f9f:	48 89 d6             	mov    %rdx,%rsi
  405fa2:	48 89 c7             	mov    %rax,%rdi
  405fa5:	e8 ac 2b 00 00       	callq  408b56 <_ZNSt6vectorIN2cl6DeviceESaIS1_EE6resizeEm>
  405faa:	48 c7 45 b8 00 00 00 	movq   $0x0,-0x48(%rbp)
  405fb1:	00 
  405fb2:	48 8d 45 d0          	lea    -0x30(%rbp),%rax
  405fb6:	48 89 c7             	mov    %rax,%rdi
  405fb9:	e8 72 2b 00 00       	callq  408b30 <_ZNKSt6vectorIP13_cl_device_idSaIS1_EE4sizeEv>
  405fbe:	48 3b 45 b8          	cmp    -0x48(%rbp),%rax
  405fc2:	0f 97 c0             	seta   %al
  405fc5:	84 c0                	test   %al,%al
  405fc7:	74 62                	je     40602b <_ZNK2cl8Platform10getDevicesEmPSt6vectorINS_6DeviceESaIS2_EE+0x1af>
  405fc9:	48 8b 55 b8          	mov    -0x48(%rbp),%rdx
  405fcd:	48 8d 45 d0          	lea    -0x30(%rbp),%rax
  405fd1:	48 89 d6             	mov    %rdx,%rsi
  405fd4:	48 89 c7             	mov    %rax,%rdi
  405fd7:	e8 26 2c 00 00       	callq  408c02 <_ZNSt6vectorIP13_cl_device_idSaIS1_EEixEm>
  405fdc:	48 89 c1             	mov    %rax,%rcx
  405fdf:	48 8d 45 c0          	lea    -0x40(%rbp),%rax
  405fe3:	ba 01 00 00 00       	mov    $0x1,%edx
  405fe8:	48 89 ce             	mov    %rcx,%rsi
  405feb:	48 89 c7             	mov    %rax,%rdi
  405fee:	e8 4d fa ff ff       	callq  405a40 <_ZN2cl6DeviceC1ERKP13_cl_device_idb>
  405ff3:	48 8b 55 b8          	mov    -0x48(%rbp),%rdx
  405ff7:	48 8b 45 98          	mov    -0x68(%rbp),%rax
  405ffb:	48 89 d6             	mov    %rdx,%rsi
  405ffe:	48 89 c7             	mov    %rax,%rdi
  406001:	e8 dc 2b 00 00       	callq  408be2 <_ZNSt6vectorIN2cl6DeviceESaIS1_EEixEm>
  406006:	48 89 c2             	mov    %rax,%rdx
  406009:	48 8d 45 c0          	lea    -0x40(%rbp),%rax
  40600d:	48 89 c6             	mov    %rax,%rsi
  406010:	48 89 d7             	mov    %rdx,%rdi
  406013:	e8 5e fb ff ff       	callq  405b76 <_ZN2cl6DeviceaSEOS0_>
  406018:	48 8d 45 c0          	lea    -0x40(%rbp),%rax
  40601c:	48 89 c7             	mov    %rax,%rdi
  40601f:	e8 4c fa ff ff       	callq  405a70 <_ZN2cl6DeviceD1Ev>
  406024:	48 83 45 b8 01       	addq   $0x1,-0x48(%rbp)
  406029:	eb 87                	jmp    405fb2 <_ZNK2cl8Platform10getDevicesEmPSt6vectorINS_6DeviceESaIS2_EE+0x136>
  40602b:	bb 00 00 00 00       	mov    $0x0,%ebx
  406030:	48 8d 45 d0          	lea    -0x30(%rbp),%rax
  406034:	48 89 c7             	mov    %rax,%rdi
  406037:	e8 8c 2a 00 00       	callq  408ac8 <_ZNSt6vectorIP13_cl_device_idSaIS1_EED1Ev>
  40603c:	89 d8                	mov    %ebx,%eax
  40603e:	48 8b 4d e8          	mov    -0x18(%rbp),%rcx
  406042:	64 48 33 0c 25 28 00 	xor    %fs:0x28,%rcx
  406049:	00 00 
  40604b:	74 4c                	je     406099 <_ZNK2cl8Platform10getDevicesEmPSt6vectorINS_6DeviceESaIS2_EE+0x21d>
  40604d:	eb 45                	jmp    406094 <_ZNK2cl8Platform10getDevicesEmPSt6vectorINS_6DeviceESaIS2_EE+0x218>
  40604f:	48 89 c3             	mov    %rax,%rbx
  406052:	48 8d 45 c0          	lea    -0x40(%rbp),%rax
  406056:	48 89 c7             	mov    %rax,%rdi
  406059:	e8 ec 29 00 00       	callq  408a4a <_ZNSaIP13_cl_device_idED1Ev>
  40605e:	48 89 d8             	mov    %rbx,%rax
  406061:	48 89 c7             	mov    %rax,%rdi
  406064:	e8 97 e5 ff ff       	callq  404600 <_Unwind_Resume@plt>
  406069:	48 89 c3             	mov    %rax,%rbx
  40606c:	48 8d 45 c0          	lea    -0x40(%rbp),%rax
  406070:	48 89 c7             	mov    %rax,%rdi
  406073:	e8 f8 f9 ff ff       	callq  405a70 <_ZN2cl6DeviceD1Ev>
  406078:	eb 03                	jmp    40607d <_ZNK2cl8Platform10getDevicesEmPSt6vectorINS_6DeviceESaIS2_EE+0x201>
  40607a:	48 89 c3             	mov    %rax,%rbx
  40607d:	48 8d 45 d0          	lea    -0x30(%rbp),%rax
  406081:	48 89 c7             	mov    %rax,%rdi
  406084:	e8 3f 2a 00 00       	callq  408ac8 <_ZNSt6vectorIP13_cl_device_idSaIS1_EED1Ev>
  406089:	48 89 d8             	mov    %rbx,%rax
  40608c:	48 89 c7             	mov    %rax,%rdi
  40608f:	e8 6c e5 ff ff       	callq  404600 <_Unwind_Resume@plt>
  406094:	e8 07 e3 ff ff       	callq  4043a0 <__stack_chk_fail@plt>
  406099:	48 83 c4 68          	add    $0x68,%rsp
  40609d:	5b                   	pop    %rbx
  40609e:	5d                   	pop    %rbp
  40609f:	c3                   	retq   

00000000004060a0 <_ZN2cl8Platform3getEPSt6vectorIS0_SaIS0_EE>:
  4060a0:	55                   	push   %rbp
  4060a1:	48 89 e5             	mov    %rsp,%rbp
  4060a4:	53                   	push   %rbx
  4060a5:	48 83 ec 58          	sub    $0x58,%rsp
  4060a9:	48 89 7d a8          	mov    %rdi,-0x58(%rbp)
  4060ad:	64 48 8b 04 25 28 00 	mov    %fs:0x28,%rax
  4060b4:	00 00 
  4060b6:	48 89 45 e8          	mov    %rax,-0x18(%rbp)
  4060ba:	31 c0                	xor    %eax,%eax
  4060bc:	c7 45 b8 00 00 00 00 	movl   $0x0,-0x48(%rbp)
  4060c3:	48 83 7d a8 00       	cmpq   $0x0,-0x58(%rbp)
  4060c8:	75 16                	jne    4060e0 <_ZN2cl8Platform3getEPSt6vectorIS0_SaIS0_EE+0x40>
  4060ca:	be 6d 10 41 00       	mov    $0x41106d,%esi
  4060cf:	bf ce ff ff ff       	mov    $0xffffffce,%edi
  4060d4:	e8 cb e7 ff ff       	callq  4048a4 <_ZN2cl6detailL10errHandlerEiPKc>
  4060d9:	89 c3                	mov    %eax,%ebx
  4060db:	e9 60 01 00 00       	jmpq   406240 <_ZN2cl8Platform3getEPSt6vectorIS0_SaIS0_EE+0x1a0>
  4060e0:	48 8d 45 b8          	lea    -0x48(%rbp),%rax
  4060e4:	48 89 c2             	mov    %rax,%rdx
  4060e7:	be 00 00 00 00       	mov    $0x0,%esi
  4060ec:	bf 00 00 00 00       	mov    $0x0,%edi
  4060f1:	e8 8a e3 ff ff       	callq  404480 <clGetPlatformIDs@plt>
  4060f6:	89 45 bc             	mov    %eax,-0x44(%rbp)
  4060f9:	83 7d bc 00          	cmpl   $0x0,-0x44(%rbp)
  4060fd:	74 16                	je     406115 <_ZN2cl8Platform3getEPSt6vectorIS0_SaIS0_EE+0x75>
  4060ff:	8b 45 bc             	mov    -0x44(%rbp),%eax
  406102:	be 6d 10 41 00       	mov    $0x41106d,%esi
  406107:	89 c7                	mov    %eax,%edi
  406109:	e8 96 e7 ff ff       	callq  4048a4 <_ZN2cl6detailL10errHandlerEiPKc>
  40610e:	89 c3                	mov    %eax,%ebx
  406110:	e9 2b 01 00 00       	jmpq   406240 <_ZN2cl8Platform3getEPSt6vectorIS0_SaIS0_EE+0x1a0>
  406115:	48 8d 45 c0          	lea    -0x40(%rbp),%rax
  406119:	48 89 c7             	mov    %rax,%rdi
  40611c:	e8 dd 26 00 00       	callq  4087fe <_ZNSaIP15_cl_platform_idEC1Ev>
  406121:	8b 45 b8             	mov    -0x48(%rbp),%eax
  406124:	89 c1                	mov    %eax,%ecx
  406126:	48 8d 55 c0          	lea    -0x40(%rbp),%rdx
  40612a:	48 8d 45 d0          	lea    -0x30(%rbp),%rax
  40612e:	48 89 ce             	mov    %rcx,%rsi
  406131:	48 89 c7             	mov    %rax,%rdi
  406134:	e8 fd 26 00 00       	callq  408836 <_ZNSt6vectorIP15_cl_platform_idSaIS1_EEC1EmRKS2_>
  406139:	48 8d 45 c0          	lea    -0x40(%rbp),%rax
  40613d:	48 89 c7             	mov    %rax,%rdi
  406140:	e8 d5 26 00 00       	callq  40881a <_ZNSaIP15_cl_platform_idED1Ev>
  406145:	48 8d 45 d0          	lea    -0x30(%rbp),%rax
  406149:	48 89 c7             	mov    %rax,%rdi
  40614c:	e8 8b 27 00 00       	callq  4088dc <_ZNSt6vectorIP15_cl_platform_idSaIS1_EE4dataEv>
  406151:	48 89 c1             	mov    %rax,%rcx
  406154:	8b 45 b8             	mov    -0x48(%rbp),%eax
  406157:	ba 00 00 00 00       	mov    $0x0,%edx
  40615c:	48 89 ce             	mov    %rcx,%rsi
  40615f:	89 c7                	mov    %eax,%edi
  406161:	e8 1a e3 ff ff       	callq  404480 <clGetPlatformIDs@plt>
  406166:	89 45 bc             	mov    %eax,-0x44(%rbp)
  406169:	83 7d bc 00          	cmpl   $0x0,-0x44(%rbp)
  40616d:	74 16                	je     406185 <_ZN2cl8Platform3getEPSt6vectorIS0_SaIS0_EE+0xe5>
  40616f:	8b 45 bc             	mov    -0x44(%rbp),%eax
  406172:	be 6d 10 41 00       	mov    $0x41106d,%esi
  406177:	89 c7                	mov    %eax,%edi
  406179:	e8 26 e7 ff ff       	callq  4048a4 <_ZN2cl6detailL10errHandlerEiPKc>
  40617e:	89 c3                	mov    %eax,%ebx
  406180:	e9 af 00 00 00       	jmpq   406234 <_ZN2cl8Platform3getEPSt6vectorIS0_SaIS0_EE+0x194>
  406185:	48 83 7d a8 00       	cmpq   $0x0,-0x58(%rbp)
  40618a:	0f 84 9f 00 00 00    	je     40622f <_ZN2cl8Platform3getEPSt6vectorIS0_SaIS0_EE+0x18f>
  406190:	48 8d 45 d0          	lea    -0x30(%rbp),%rax
  406194:	48 89 c7             	mov    %rax,%rdi
  406197:	e8 86 2a 00 00       	callq  408c22 <_ZNKSt6vectorIP15_cl_platform_idSaIS1_EE4sizeEv>
  40619c:	48 89 c2             	mov    %rax,%rdx
  40619f:	48 8b 45 a8          	mov    -0x58(%rbp),%rax
  4061a3:	48 89 d6             	mov    %rdx,%rsi
  4061a6:	48 89 c7             	mov    %rax,%rdi
  4061a9:	e8 9a 2a 00 00       	callq  408c48 <_ZNSt6vectorIN2cl8PlatformESaIS1_EE6resizeEm>
  4061ae:	48 c7 45 c8 00 00 00 	movq   $0x0,-0x38(%rbp)
  4061b5:	00 
  4061b6:	48 8d 45 d0          	lea    -0x30(%rbp),%rax
  4061ba:	48 89 c7             	mov    %rax,%rdi
  4061bd:	e8 60 2a 00 00       	callq  408c22 <_ZNKSt6vectorIP15_cl_platform_idSaIS1_EE4sizeEv>
  4061c2:	48 3b 45 c8          	cmp    -0x38(%rbp),%rax
  4061c6:	0f 97 c0             	seta   %al
  4061c9:	84 c0                	test   %al,%al
  4061cb:	74 62                	je     40622f <_ZN2cl8Platform3getEPSt6vectorIS0_SaIS0_EE+0x18f>
  4061cd:	48 8b 55 c8          	mov    -0x38(%rbp),%rdx
  4061d1:	48 8d 45 d0          	lea    -0x30(%rbp),%rax
  4061d5:	48 89 d6             	mov    %rdx,%rsi
  4061d8:	48 89 c7             	mov    %rax,%rdi
  4061db:	e8 20 27 00 00       	callq  408900 <_ZNSt6vectorIP15_cl_platform_idSaIS1_EEixEm>
  4061e0:	48 89 c1             	mov    %rax,%rcx
  4061e3:	48 8d 45 c0          	lea    -0x40(%rbp),%rax
  4061e7:	ba 00 00 00 00       	mov    $0x0,%edx
  4061ec:	48 89 ce             	mov    %rcx,%rsi
  4061ef:	48 89 c7             	mov    %rax,%rdi
  4061f2:	e8 d3 fb ff ff       	callq  405dca <_ZN2cl8PlatformC1ERKP15_cl_platform_idb>
  4061f7:	48 8b 55 c8          	mov    -0x38(%rbp),%rdx
  4061fb:	48 8b 45 a8          	mov    -0x58(%rbp),%rax
  4061ff:	48 89 d6             	mov    %rdx,%rsi
  406202:	48 89 c7             	mov    %rax,%rdi
  406205:	e8 ca 2a 00 00       	callq  408cd4 <_ZNSt6vectorIN2cl8PlatformESaIS1_EEixEm>
  40620a:	48 89 c2             	mov    %rax,%rdx
  40620d:	48 8d 45 c0          	lea    -0x40(%rbp),%rax
  406211:	48 89 c6             	mov    %rax,%rsi
  406214:	48 89 d7             	mov    %rdx,%rdi
  406217:	e8 aa f9 ff ff       	callq  405bc6 <_ZN2cl8PlatformaSEOS0_>
  40621c:	48 8d 45 c0          	lea    -0x40(%rbp),%rax
  406220:	48 89 c7             	mov    %rax,%rdi
  406223:	e8 82 f9 ff ff       	callq  405baa <_ZN2cl8PlatformD1Ev>
  406228:	48 83 45 c8 01       	addq   $0x1,-0x38(%rbp)
  40622d:	eb 87                	jmp    4061b6 <_ZN2cl8Platform3getEPSt6vectorIS0_SaIS0_EE+0x116>
  40622f:	bb 00 00 00 00       	mov    $0x0,%ebx
  406234:	48 8d 45 d0          	lea    -0x30(%rbp),%rax
  406238:	48 89 c7             	mov    %rax,%rdi
  40623b:	e8 58 26 00 00       	callq  408898 <_ZNSt6vectorIP15_cl_platform_idSaIS1_EED1Ev>
  406240:	89 d8                	mov    %ebx,%eax
  406242:	48 8b 4d e8          	mov    -0x18(%rbp),%rcx
  406246:	64 48 33 0c 25 28 00 	xor    %fs:0x28,%rcx
  40624d:	00 00 
  40624f:	74 4c                	je     40629d <_ZN2cl8Platform3getEPSt6vectorIS0_SaIS0_EE+0x1fd>
  406251:	eb 45                	jmp    406298 <_ZN2cl8Platform3getEPSt6vectorIS0_SaIS0_EE+0x1f8>
  406253:	48 89 c3             	mov    %rax,%rbx
  406256:	48 8d 45 c0          	lea    -0x40(%rbp),%rax
  40625a:	48 89 c7             	mov    %rax,%rdi
  40625d:	e8 b8 25 00 00       	callq  40881a <_ZNSaIP15_cl_platform_idED1Ev>
  406262:	48 89 d8             	mov    %rbx,%rax
  406265:	48 89 c7             	mov    %rax,%rdi
  406268:	e8 93 e3 ff ff       	callq  404600 <_Unwind_Resume@plt>
  40626d:	48 89 c3             	mov    %rax,%rbx
  406270:	48 8d 45 c0          	lea    -0x40(%rbp),%rax
  406274:	48 89 c7             	mov    %rax,%rdi
  406277:	e8 2e f9 ff ff       	callq  405baa <_ZN2cl8PlatformD1Ev>
  40627c:	eb 03                	jmp    406281 <_ZN2cl8Platform3getEPSt6vectorIS0_SaIS0_EE+0x1e1>
  40627e:	48 89 c3             	mov    %rax,%rbx
  406281:	48 8d 45 d0          	lea    -0x30(%rbp),%rax
  406285:	48 89 c7             	mov    %rax,%rdi
  406288:	e8 0b 26 00 00       	callq  408898 <_ZNSt6vectorIP15_cl_platform_idSaIS1_EED1Ev>
  40628d:	48 89 d8             	mov    %rbx,%rax
  406290:	48 89 c7             	mov    %rax,%rdi
  406293:	e8 68 e3 ff ff       	callq  404600 <_Unwind_Resume@plt>
  406298:	e8 03 e1 ff ff       	callq  4043a0 <__stack_chk_fail@plt>
  40629d:	48 83 c4 58          	add    $0x58,%rsp
  4062a1:	5b                   	pop    %rbx
  4062a2:	5d                   	pop    %rbp
  4062a3:	c3                   	retq   

00000000004062a4 <_ZN2cl8PlatformC1EOS0_>:
  4062a4:	55                   	push   %rbp
  4062a5:	48 89 e5             	mov    %rsp,%rbp
  4062a8:	48 83 ec 10          	sub    $0x10,%rsp
  4062ac:	48 89 7d f8          	mov    %rdi,-0x8(%rbp)
  4062b0:	48 89 75 f0          	mov    %rsi,-0x10(%rbp)
  4062b4:	48 8b 55 f0          	mov    -0x10(%rbp),%rdx
  4062b8:	48 8b 45 f8          	mov    -0x8(%rbp),%rax
  4062bc:	48 89 d6             	mov    %rdx,%rsi
  4062bf:	48 89 c7             	mov    %rax,%rdi
  4062c2:	e8 2d 2a 00 00       	callq  408cf4 <_ZN2cl6detail7WrapperIP15_cl_platform_idEC1EOS4_>
  4062c7:	90                   	nop
  4062c8:	c9                   	leaveq 
  4062c9:	c3                   	retq   

00000000004062ca <_ZN2cl8Platform3getEPi>:
  4062ca:	55                   	push   %rbp
  4062cb:	48 89 e5             	mov    %rsp,%rbp
  4062ce:	48 83 ec 20          	sub    $0x20,%rsp
  4062d2:	48 89 7d e8          	mov    %rdi,-0x18(%rbp)
  4062d6:	48 89 75 e0          	mov    %rsi,-0x20(%rbp)
  4062da:	64 48 8b 04 25 28 00 	mov    %fs:0x28,%rax
  4062e1:	00 00 
  4062e3:	48 89 45 f8          	mov    %rax,-0x8(%rbp)
  4062e7:	31 c0                	xor    %eax,%eax
  4062e9:	48 8b 45 e8          	mov    -0x18(%rbp),%rax
  4062ed:	48 8d 55 f4          	lea    -0xc(%rbp),%rdx
  4062f1:	48 89 d6             	mov    %rdx,%rsi
  4062f4:	48 89 c7             	mov    %rax,%rdi
  4062f7:	e8 24 fb ff ff       	callq  405e20 <_ZN2cl8Platform10getDefaultEPi>
  4062fc:	48 83 7d e0 00       	cmpq   $0x0,-0x20(%rbp)
  406301:	74 0a                	je     40630d <_ZN2cl8Platform3getEPi+0x43>
  406303:	8b 55 f4             	mov    -0xc(%rbp),%edx
  406306:	48 8b 45 e0          	mov    -0x20(%rbp),%rax
  40630a:	89 10                	mov    %edx,(%rax)
  40630c:	90                   	nop
  40630d:	90                   	nop
  40630e:	48 8b 45 e8          	mov    -0x18(%rbp),%rax
  406312:	48 8b 4d f8          	mov    -0x8(%rbp),%rcx
  406316:	64 48 33 0c 25 28 00 	xor    %fs:0x28,%rcx
  40631d:	00 00 
  40631f:	74 05                	je     406326 <_ZN2cl8Platform3getEPi+0x5c>
  406321:	e8 7a e0 ff ff       	callq  4043a0 <__stack_chk_fail@plt>
  406326:	c9                   	leaveq 
  406327:	c3                   	retq   

0000000000406328 <_ZN2cl7ContextD1Ev>:
  406328:	55                   	push   %rbp
  406329:	48 89 e5             	mov    %rsp,%rbp
  40632c:	48 83 ec 10          	sub    $0x10,%rsp
  406330:	48 89 7d f8          	mov    %rdi,-0x8(%rbp)
  406334:	48 8b 45 f8          	mov    -0x8(%rbp),%rax
  406338:	48 89 c7             	mov    %rax,%rdi
  40633b:	e8 ea 29 00 00       	callq  408d2a <_ZN2cl6detail7WrapperIP11_cl_contextED1Ev>
  406340:	90                   	nop
  406341:	c9                   	leaveq 
  406342:	c3                   	retq   

0000000000406343 <_ZN2cl7Context11makeDefaultEv>:
  406343:	55                   	push   %rbp
  406344:	48 89 e5             	mov    %rsp,%rbp
  406347:	41 54                	push   %r12
  406349:	53                   	push   %rbx
  40634a:	48 83 ec 50          	sub    $0x50,%rsp
  40634e:	64 48 8b 04 25 28 00 	mov    %fs:0x28,%rax
  406355:	00 00 
  406357:	48 89 45 e8          	mov    %rax,-0x18(%rbp)
  40635b:	31 c0                	xor    %eax,%eax
  40635d:	48 8d 45 a8          	lea    -0x58(%rbp),%rax
  406361:	be 00 00 00 00       	mov    $0x0,%esi
  406366:	48 89 c7             	mov    %rax,%rdi
  406369:	e8 b2 fa ff ff       	callq  405e20 <_ZN2cl8Platform10getDefaultEPi>
  40636e:	48 8d 45 a8          	lea    -0x58(%rbp),%rax
  406372:	48 89 45 b8          	mov    %rax,-0x48(%rbp)
  406376:	48 8b 45 b8          	mov    -0x48(%rbp),%rax
  40637a:	48 89 c7             	mov    %rax,%rdi
  40637d:	e8 9a 29 00 00       	callq  408d1c <_ZNK2cl6detail7WrapperIP15_cl_platform_idEclEv>
  406382:	48 8b 00             	mov    (%rax),%rax
  406385:	48 89 45 c0          	mov    %rax,-0x40(%rbp)
  406389:	48 c7 45 d0 00 00 00 	movq   $0x0,-0x30(%rbp)
  406390:	00 
  406391:	48 c7 45 d8 00 00 00 	movq   $0x0,-0x28(%rbp)
  406398:	00 
  406399:	48 c7 45 e0 00 00 00 	movq   $0x0,-0x20(%rbp)
  4063a0:	00 
  4063a1:	48 c7 45 d0 84 10 00 	movq   $0x1084,-0x30(%rbp)
  4063a8:	00 
  4063a9:	48 8b 45 c0          	mov    -0x40(%rbp),%rax
  4063ad:	48 89 45 d8          	mov    %rax,-0x28(%rbp)
  4063b1:	48 8d 55 d0          	lea    -0x30(%rbp),%rdx
  4063b5:	48 8d 45 b0          	lea    -0x50(%rbp),%rax
  4063b9:	41 b9 20 a7 61 00    	mov    $0x61a720,%r9d
  4063bf:	41 b8 00 00 00 00    	mov    $0x0,%r8d
  4063c5:	b9 00 00 00 00       	mov    $0x0,%ecx
  4063ca:	be 01 00 00 00       	mov    $0x1,%esi
  4063cf:	48 89 c7             	mov    %rax,%rdi
  4063d2:	e8 c9 00 00 00       	callq  4064a0 <_ZN2cl7ContextC1EmPlPFvPKcPKvmPvES6_Pi>
  4063d7:	48 8d 45 b0          	lea    -0x50(%rbp),%rax
  4063db:	48 89 c6             	mov    %rax,%rsi
  4063de:	bf 18 a7 61 00       	mov    $0x61a718,%edi
  4063e3:	e8 a6 04 00 00       	callq  40688e <_ZN2cl7ContextaSEOS0_>
  4063e8:	48 8d 45 b0          	lea    -0x50(%rbp),%rax
  4063ec:	48 89 c7             	mov    %rax,%rdi
  4063ef:	e8 34 ff ff ff       	callq  406328 <_ZN2cl7ContextD1Ev>
  4063f4:	48 8d 45 a8          	lea    -0x58(%rbp),%rax
  4063f8:	48 89 c7             	mov    %rax,%rdi
  4063fb:	e8 aa f7 ff ff       	callq  405baa <_ZN2cl8PlatformD1Ev>
  406400:	eb 5f                	jmp    406461 <_ZN2cl7Context11makeDefaultEv+0x11e>
  406402:	49 89 c4             	mov    %rax,%r12
  406405:	48 89 d3             	mov    %rdx,%rbx
  406408:	48 8d 45 b0          	lea    -0x50(%rbp),%rax
  40640c:	48 89 c7             	mov    %rax,%rdi
  40640f:	e8 14 ff ff ff       	callq  406328 <_ZN2cl7ContextD1Ev>
  406414:	eb 06                	jmp    40641c <_ZN2cl7Context11makeDefaultEv+0xd9>
  406416:	49 89 c4             	mov    %rax,%r12
  406419:	48 89 d3             	mov    %rdx,%rbx
  40641c:	48 8d 45 a8          	lea    -0x58(%rbp),%rax
  406420:	48 89 c7             	mov    %rax,%rdi
  406423:	e8 82 f7 ff ff       	callq  405baa <_ZN2cl8PlatformD1Ev>
  406428:	4c 89 e0             	mov    %r12,%rax
  40642b:	48 89 da             	mov    %rbx,%rdx
  40642e:	eb 00                	jmp    406430 <_ZN2cl7Context11makeDefaultEv+0xed>
  406430:	48 83 fa 01          	cmp    $0x1,%rdx
  406434:	74 08                	je     40643e <_ZN2cl7Context11makeDefaultEv+0xfb>
  406436:	48 89 c7             	mov    %rax,%rdi
  406439:	e8 c2 e1 ff ff       	callq  404600 <_Unwind_Resume@plt>
  40643e:	48 89 c7             	mov    %rax,%rdi
  406441:	e8 fa dd ff ff       	callq  404240 <__cxa_begin_catch@plt>
  406446:	48 89 45 c8          	mov    %rax,-0x38(%rbp)
  40644a:	48 8b 45 c8          	mov    -0x38(%rbp),%rax
  40644e:	48 89 c7             	mov    %rax,%rdi
  406451:	e8 10 f2 ff ff       	callq  405666 <_ZNK2cl5Error3errEv>
  406456:	89 05 c4 42 21 00    	mov    %eax,0x2142c4(%rip)        # 61a720 <_ZN2cl7Context14default_error_E>
  40645c:	e8 1f e1 ff ff       	callq  404580 <__cxa_end_catch@plt>
  406461:	90                   	nop
  406462:	48 8b 45 e8          	mov    -0x18(%rbp),%rax
  406466:	64 48 33 04 25 28 00 	xor    %fs:0x28,%rax
  40646d:	00 00 
  40646f:	74 05                	je     406476 <_ZN2cl7Context11makeDefaultEv+0x133>
  406471:	e8 2a df ff ff       	callq  4043a0 <__stack_chk_fail@plt>
  406476:	48 83 c4 50          	add    $0x50,%rsp
  40647a:	5b                   	pop    %rbx
  40647b:	41 5c                	pop    %r12
  40647d:	5d                   	pop    %rbp
  40647e:	c3                   	retq   

000000000040647f <_ZN2cl7Context19makeDefaultProvidedERKS0_>:
  40647f:	55                   	push   %rbp
  406480:	48 89 e5             	mov    %rsp,%rbp
  406483:	48 83 ec 10          	sub    $0x10,%rsp
  406487:	48 89 7d f8          	mov    %rdi,-0x8(%rbp)
  40648b:	48 8b 45 f8          	mov    -0x8(%rbp),%rax
  40648f:	48 89 c6             	mov    %rax,%rsi
  406492:	bf 18 a7 61 00       	mov    $0x61a718,%edi
  406497:	e8 ba 03 00 00       	callq  406856 <_ZN2cl7ContextaSERKS0_>
  40649c:	90                   	nop
  40649d:	c9                   	leaveq 
  40649e:	c3                   	retq   
  40649f:	90                   	nop

00000000004064a0 <_ZN2cl7ContextC1EmPlPFvPKcPKvmPvES6_Pi>:
  4064a0:	55                   	push   %rbp
  4064a1:	48 89 e5             	mov    %rsp,%rbp
  4064a4:	53                   	push   %rbx
  4064a5:	48 81 ec d8 00 00 00 	sub    $0xd8,%rsp
  4064ac:	48 89 bd 48 ff ff ff 	mov    %rdi,-0xb8(%rbp)
  4064b3:	48 89 b5 40 ff ff ff 	mov    %rsi,-0xc0(%rbp)
  4064ba:	48 89 95 38 ff ff ff 	mov    %rdx,-0xc8(%rbp)
  4064c1:	48 89 8d 30 ff ff ff 	mov    %rcx,-0xd0(%rbp)
  4064c8:	4c 89 85 28 ff ff ff 	mov    %r8,-0xd8(%rbp)
  4064cf:	4c 89 8d 20 ff ff ff 	mov    %r9,-0xe0(%rbp)
  4064d6:	64 48 8b 04 25 28 00 	mov    %fs:0x28,%rax
  4064dd:	00 00 
  4064df:	48 89 45 e8          	mov    %rax,-0x18(%rbp)
  4064e3:	31 c0                	xor    %eax,%eax
  4064e5:	48 8b 85 48 ff ff ff 	mov    -0xb8(%rbp),%rax
  4064ec:	48 89 c7             	mov    %rax,%rdi
  4064ef:	e8 5e 28 00 00       	callq  408d52 <_ZN2cl6detail7WrapperIP11_cl_contextEC1Ev>
  4064f4:	48 c7 45 c0 84 10 00 	movq   $0x1084,-0x40(%rbp)
  4064fb:	00 
  4064fc:	48 c7 45 c8 00 00 00 	movq   $0x0,-0x38(%rbp)
  406503:	00 
  406504:	48 c7 45 d0 00 00 00 	movq   $0x0,-0x30(%rbp)
  40650b:	00 
  40650c:	48 c7 45 d8 00 00 00 	movq   $0x0,-0x28(%rbp)
  406513:	00 
  406514:	48 83 bd 38 ff ff ff 	cmpq   $0x0,-0xc8(%rbp)
  40651b:	00 
  40651c:	0f 85 f3 01 00 00    	jne    406715 <_ZN2cl7ContextC1EmPlPFvPKcPKvmPvES6_Pi+0x275>
  406522:	48 8d 85 60 ff ff ff 	lea    -0xa0(%rbp),%rax
  406529:	48 89 c7             	mov    %rax,%rdi
  40652c:	e8 7d 28 00 00       	callq  408dae <_ZNSt6vectorIN2cl8PlatformESaIS1_EEC1Ev>
  406531:	48 8d 85 60 ff ff ff 	lea    -0xa0(%rbp),%rax
  406538:	48 89 c7             	mov    %rax,%rdi
  40653b:	e8 60 fb ff ff       	callq  4060a0 <_ZN2cl8Platform3getEPSt6vectorIS0_SaIS0_EE>
  406540:	89 85 50 ff ff ff    	mov    %eax,-0xb0(%rbp)
  406546:	8b 85 50 ff ff ff    	mov    -0xb0(%rbp),%eax
  40654c:	85 c0                	test   %eax,%eax
  40654e:	74 35                	je     406585 <_ZN2cl7ContextC1EmPlPFvPKcPKvmPvES6_Pi+0xe5>
  406550:	8b 85 50 ff ff ff    	mov    -0xb0(%rbp),%eax
  406556:	be 7e 10 41 00       	mov    $0x41107e,%esi
  40655b:	89 c7                	mov    %eax,%edi
  40655d:	e8 42 e3 ff ff       	callq  4048a4 <_ZN2cl6detailL10errHandlerEiPKc>
  406562:	48 83 bd 20 ff ff ff 	cmpq   $0x0,-0xe0(%rbp)
  406569:	00 
  40656a:	74 0f                	je     40657b <_ZN2cl7ContextC1EmPlPFvPKcPKvmPvES6_Pi+0xdb>
  40656c:	8b 95 50 ff ff ff    	mov    -0xb0(%rbp),%edx
  406572:	48 8b 85 20 ff ff ff 	mov    -0xe0(%rbp),%rax
  406579:	89 10                	mov    %edx,(%rax)
  40657b:	bb 00 00 00 00       	mov    $0x0,%ebx
  406580:	e9 77 01 00 00       	jmpq   4066fc <_ZN2cl7ContextC1EmPlPFvPKcPKvmPvES6_Pi+0x25c>
  406585:	48 c7 85 58 ff ff ff 	movq   $0x0,-0xa8(%rbp)
  40658c:	00 00 00 00 
  406590:	c7 85 54 ff ff ff 00 	movl   $0x0,-0xac(%rbp)
  406597:	00 00 00 
  40659a:	8b 9d 54 ff ff ff    	mov    -0xac(%rbp),%ebx
  4065a0:	48 8d 85 60 ff ff ff 	lea    -0xa0(%rbp),%rax
  4065a7:	48 89 c7             	mov    %rax,%rdi
  4065aa:	e8 5f 28 00 00       	callq  408e0e <_ZNKSt6vectorIN2cl8PlatformESaIS1_EE4sizeEv>
  4065af:	48 39 c3             	cmp    %rax,%rbx
  4065b2:	0f 92 c0             	setb   %al
  4065b5:	84 c0                	test   %al,%al
  4065b7:	0f 84 ed 00 00 00    	je     4066aa <_ZN2cl7ContextC1EmPlPFvPKcPKvmPvES6_Pi+0x20a>
  4065bd:	48 8d 45 80          	lea    -0x80(%rbp),%rax
  4065c1:	48 89 c7             	mov    %rax,%rdi
  4065c4:	e8 6b 28 00 00       	callq  408e34 <_ZNSt6vectorIN2cl6DeviceESaIS1_EEC1Ev>
  4065c9:	8b 95 54 ff ff ff    	mov    -0xac(%rbp),%edx
  4065cf:	48 8d 85 60 ff ff ff 	lea    -0xa0(%rbp),%rax
  4065d6:	48 89 d6             	mov    %rdx,%rsi
  4065d9:	48 89 c7             	mov    %rax,%rdi
  4065dc:	e8 f3 26 00 00       	callq  408cd4 <_ZNSt6vectorIN2cl8PlatformESaIS1_EEixEm>
  4065e1:	48 89 c1             	mov    %rax,%rcx
  4065e4:	48 8d 55 80          	lea    -0x80(%rbp),%rdx
  4065e8:	48 8b 85 40 ff ff ff 	mov    -0xc0(%rbp),%rax
  4065ef:	48 89 c6             	mov    %rax,%rsi
  4065f2:	48 89 cf             	mov    %rcx,%rdi
  4065f5:	e8 82 f8 ff ff       	callq  405e7c <_ZNK2cl8Platform10getDevicesEmPSt6vectorINS_6DeviceESaIS2_EE>
  4065fa:	89 85 50 ff ff ff    	mov    %eax,-0xb0(%rbp)
  406600:	8b 85 50 ff ff ff    	mov    -0xb0(%rbp),%eax
  406606:	85 c0                	test   %eax,%eax
  406608:	74 36                	je     406640 <_ZN2cl7ContextC1EmPlPFvPKcPKvmPvES6_Pi+0x1a0>
  40660a:	8b 85 50 ff ff ff    	mov    -0xb0(%rbp),%eax
  406610:	83 f8 ff             	cmp    $0xffffffff,%eax
  406613:	74 2b                	je     406640 <_ZN2cl7ContextC1EmPlPFvPKcPKvmPvES6_Pi+0x1a0>
  406615:	8b 85 50 ff ff ff    	mov    -0xb0(%rbp),%eax
  40661b:	be 7e 10 41 00       	mov    $0x41107e,%esi
  406620:	89 c7                	mov    %eax,%edi
  406622:	e8 7d e2 ff ff       	callq  4048a4 <_ZN2cl6detailL10errHandlerEiPKc>
  406627:	48 83 bd 20 ff ff ff 	cmpq   $0x0,-0xe0(%rbp)
  40662e:	00 
  40662f:	74 0f                	je     406640 <_ZN2cl7ContextC1EmPlPFvPKcPKvmPvES6_Pi+0x1a0>
  406631:	8b 95 50 ff ff ff    	mov    -0xb0(%rbp),%edx
  406637:	48 8b 85 20 ff ff ff 	mov    -0xe0(%rbp),%rax
  40663e:	89 10                	mov    %edx,(%rax)
  406640:	48 8d 45 80          	lea    -0x80(%rbp),%rax
  406644:	48 89 c7             	mov    %rax,%rdi
  406647:	e8 1c 27 00 00       	callq  408d68 <_ZNKSt6vectorIN2cl6DeviceESaIS1_EE4sizeEv>
  40664c:	48 85 c0             	test   %rax,%rax
  40664f:	0f 95 c0             	setne  %al
  406652:	84 c0                	test   %al,%al
  406654:	74 31                	je     406687 <_ZN2cl7ContextC1EmPlPFvPKcPKvmPvES6_Pi+0x1e7>
  406656:	8b 95 54 ff ff ff    	mov    -0xac(%rbp),%edx
  40665c:	48 8d 85 60 ff ff ff 	lea    -0xa0(%rbp),%rax
  406663:	48 89 d6             	mov    %rdx,%rsi
  406666:	48 89 c7             	mov    %rax,%rdi
  406669:	e8 66 26 00 00       	callq  408cd4 <_ZNSt6vectorIN2cl8PlatformESaIS1_EEixEm>
  40666e:	48 89 c7             	mov    %rax,%rdi
  406671:	e8 1e 28 00 00       	callq  408e94 <_ZN2cl6detail7WrapperIP15_cl_platform_idEclEv>
  406676:	48 8b 00             	mov    (%rax),%rax
  406679:	48 89 85 58 ff ff ff 	mov    %rax,-0xa8(%rbp)
  406680:	bb 00 00 00 00       	mov    $0x0,%ebx
  406685:	eb 05                	jmp    40668c <_ZN2cl7ContextC1EmPlPFvPKcPKvmPvES6_Pi+0x1ec>
  406687:	bb 01 00 00 00       	mov    $0x1,%ebx
  40668c:	48 8d 45 80          	lea    -0x80(%rbp),%rax
  406690:	48 89 c7             	mov    %rax,%rdi
  406693:	e8 b8 27 00 00       	callq  408e50 <_ZNSt6vectorIN2cl6DeviceESaIS1_EED1Ev>
  406698:	83 fb 01             	cmp    $0x1,%ebx
  40669b:	75 0d                	jne    4066aa <_ZN2cl7ContextC1EmPlPFvPKcPKvmPvES6_Pi+0x20a>
  40669d:	90                   	nop
  40669e:	83 85 54 ff ff ff 01 	addl   $0x1,-0xac(%rbp)
  4066a5:	e9 f0 fe ff ff       	jmpq   40659a <_ZN2cl7ContextC1EmPlPFvPKcPKvmPvES6_Pi+0xfa>
  4066aa:	48 83 bd 58 ff ff ff 	cmpq   $0x0,-0xa8(%rbp)
  4066b1:	00 
  4066b2:	75 2d                	jne    4066e1 <_ZN2cl7ContextC1EmPlPFvPKcPKvmPvES6_Pi+0x241>
  4066b4:	be 7e 10 41 00       	mov    $0x41107e,%esi
  4066b9:	bf ff ff ff ff       	mov    $0xffffffff,%edi
  4066be:	e8 e1 e1 ff ff       	callq  4048a4 <_ZN2cl6detailL10errHandlerEiPKc>
  4066c3:	48 83 bd 20 ff ff ff 	cmpq   $0x0,-0xe0(%rbp)
  4066ca:	00 
  4066cb:	74 0d                	je     4066da <_ZN2cl7ContextC1EmPlPFvPKcPKvmPvES6_Pi+0x23a>
  4066cd:	48 8b 85 20 ff ff ff 	mov    -0xe0(%rbp),%rax
  4066d4:	c7 00 ff ff ff ff    	movl   $0xffffffff,(%rax)
  4066da:	bb 00 00 00 00       	mov    $0x0,%ebx
  4066df:	eb 1b                	jmp    4066fc <_ZN2cl7ContextC1EmPlPFvPKcPKvmPvES6_Pi+0x25c>
  4066e1:	48 8b 85 58 ff ff ff 	mov    -0xa8(%rbp),%rax
  4066e8:	48 89 45 c8          	mov    %rax,-0x38(%rbp)
  4066ec:	48 8d 45 c0          	lea    -0x40(%rbp),%rax
  4066f0:	48 89 85 38 ff ff ff 	mov    %rax,-0xc8(%rbp)
  4066f7:	bb 01 00 00 00       	mov    $0x1,%ebx
  4066fc:	48 8d 85 60 ff ff ff 	lea    -0xa0(%rbp),%rax
  406703:	48 89 c7             	mov    %rax,%rdi
  406706:	e8 bf 26 00 00       	callq  408dca <_ZNSt6vectorIN2cl8PlatformESaIS1_EED1Ev>
  40670b:	83 fb 01             	cmp    $0x1,%ebx
  40670e:	0f 85 fe 00 00 00    	jne    406812 <_ZN2cl7ContextC1EmPlPFvPKcPKvmPvES6_Pi+0x372>
  406714:	90                   	nop
  406715:	48 8d bd 50 ff ff ff 	lea    -0xb0(%rbp),%rdi
  40671c:	48 8b 8d 28 ff ff ff 	mov    -0xd8(%rbp),%rcx
  406723:	48 8b 95 30 ff ff ff 	mov    -0xd0(%rbp),%rdx
  40672a:	48 8b b5 40 ff ff ff 	mov    -0xc0(%rbp),%rsi
  406731:	48 8b 85 38 ff ff ff 	mov    -0xc8(%rbp),%rax
  406738:	49 89 f8             	mov    %rdi,%r8
  40673b:	48 89 c7             	mov    %rax,%rdi
  40673e:	e8 5d db ff ff       	callq  4042a0 <clCreateContextFromType@plt>
  406743:	48 89 c2             	mov    %rax,%rdx
  406746:	48 8b 85 48 ff ff ff 	mov    -0xb8(%rbp),%rax
  40674d:	48 89 10             	mov    %rdx,(%rax)
  406750:	8b 85 50 ff ff ff    	mov    -0xb0(%rbp),%eax
  406756:	be 7e 10 41 00       	mov    $0x41107e,%esi
  40675b:	89 c7                	mov    %eax,%edi
  40675d:	e8 42 e1 ff ff       	callq  4048a4 <_ZN2cl6detailL10errHandlerEiPKc>
  406762:	48 83 bd 20 ff ff ff 	cmpq   $0x0,-0xe0(%rbp)
  406769:	00 
  40676a:	0f 84 a2 00 00 00    	je     406812 <_ZN2cl7ContextC1EmPlPFvPKcPKvmPvES6_Pi+0x372>
  406770:	8b 95 50 ff ff ff    	mov    -0xb0(%rbp),%edx
  406776:	48 8b 85 20 ff ff ff 	mov    -0xe0(%rbp),%rax
  40677d:	89 10                	mov    %edx,(%rax)
  40677f:	e9 8e 00 00 00       	jmpq   406812 <_ZN2cl7ContextC1EmPlPFvPKcPKvmPvES6_Pi+0x372>
  406784:	48 89 c3             	mov    %rax,%rbx
  406787:	48 89 d0             	mov    %rdx,%rax
  40678a:	48 83 f8 01          	cmp    $0x1,%rax
  40678e:	74 02                	je     406792 <_ZN2cl7ContextC1EmPlPFvPKcPKvmPvES6_Pi+0x2f2>
  406790:	eb 41                	jmp    4067d3 <_ZN2cl7ContextC1EmPlPFvPKcPKvmPvES6_Pi+0x333>
  406792:	48 89 d8             	mov    %rbx,%rax
  406795:	48 89 c7             	mov    %rax,%rdi
  406798:	e8 93 dc ff ff       	callq  404430 <__cxa_get_exception_ptr@plt>
  40679d:	48 89 c2             	mov    %rax,%rdx
  4067a0:	48 8d 45 a0          	lea    -0x60(%rbp),%rax
  4067a4:	48 89 d6             	mov    %rdx,%rsi
  4067a7:	48 89 c7             	mov    %rax,%rdi
  4067aa:	e8 c9 ee ff ff       	callq  405678 <_ZN2cl5ErrorC1ERKS0_>
  4067af:	48 89 d8             	mov    %rbx,%rax
  4067b2:	48 89 c7             	mov    %rax,%rdi
  4067b5:	e8 86 da ff ff       	callq  404240 <__cxa_begin_catch@plt>
  4067ba:	48 8d 45 a0          	lea    -0x60(%rbp),%rax
  4067be:	48 89 c7             	mov    %rax,%rdi
  4067c1:	e8 2c ee ff ff       	callq  4055f2 <_ZN2cl5ErrorD1Ev>
  4067c6:	e8 b5 dd ff ff       	callq  404580 <__cxa_end_catch@plt>
  4067cb:	e9 30 fe ff ff       	jmpq   406600 <_ZN2cl7ContextC1EmPlPFvPKcPKvmPvES6_Pi+0x160>
  4067d0:	48 89 c3             	mov    %rax,%rbx
  4067d3:	48 8d 45 80          	lea    -0x80(%rbp),%rax
  4067d7:	48 89 c7             	mov    %rax,%rdi
  4067da:	e8 71 26 00 00       	callq  408e50 <_ZNSt6vectorIN2cl6DeviceESaIS1_EED1Ev>
  4067df:	eb 03                	jmp    4067e4 <_ZN2cl7ContextC1EmPlPFvPKcPKvmPvES6_Pi+0x344>
  4067e1:	48 89 c3             	mov    %rax,%rbx
  4067e4:	48 8d 85 60 ff ff ff 	lea    -0xa0(%rbp),%rax
  4067eb:	48 89 c7             	mov    %rax,%rdi
  4067ee:	e8 d7 25 00 00       	callq  408dca <_ZNSt6vectorIN2cl8PlatformESaIS1_EED1Ev>
  4067f3:	eb 03                	jmp    4067f8 <_ZN2cl7ContextC1EmPlPFvPKcPKvmPvES6_Pi+0x358>
  4067f5:	48 89 c3             	mov    %rax,%rbx
  4067f8:	48 8b 85 48 ff ff ff 	mov    -0xb8(%rbp),%rax
  4067ff:	48 89 c7             	mov    %rax,%rdi
  406802:	e8 23 25 00 00       	callq  408d2a <_ZN2cl6detail7WrapperIP11_cl_contextED1Ev>
  406807:	48 89 d8             	mov    %rbx,%rax
  40680a:	48 89 c7             	mov    %rax,%rdi
  40680d:	e8 ee dd ff ff       	callq  404600 <_Unwind_Resume@plt>
  406812:	48 8b 45 e8          	mov    -0x18(%rbp),%rax
  406816:	64 48 33 04 25 28 00 	xor    %fs:0x28,%rax
  40681d:	00 00 
  40681f:	74 05                	je     406826 <_ZN2cl7ContextC1EmPlPFvPKcPKvmPvES6_Pi+0x386>
  406821:	e8 7a db ff ff       	callq  4043a0 <__stack_chk_fail@plt>
  406826:	48 81 c4 d8 00 00 00 	add    $0xd8,%rsp
  40682d:	5b                   	pop    %rbx
  40682e:	5d                   	pop    %rbp
  40682f:	c3                   	retq   

0000000000406830 <_ZN2cl7ContextC1ERKS0_>:
  406830:	55                   	push   %rbp
  406831:	48 89 e5             	mov    %rsp,%rbp
  406834:	48 83 ec 10          	sub    $0x10,%rsp
  406838:	48 89 7d f8          	mov    %rdi,-0x8(%rbp)
  40683c:	48 89 75 f0          	mov    %rsi,-0x10(%rbp)
  406840:	48 8b 55 f0          	mov    -0x10(%rbp),%rdx
  406844:	48 8b 45 f8          	mov    -0x8(%rbp),%rax
  406848:	48 89 d6             	mov    %rdx,%rsi
  40684b:	48 89 c7             	mov    %rax,%rdi
  40684e:	e8 4f 26 00 00       	callq  408ea2 <_ZN2cl6detail7WrapperIP11_cl_contextEC1ERKS4_>
  406853:	90                   	nop
  406854:	c9                   	leaveq 
  406855:	c3                   	retq   

0000000000406856 <_ZN2cl7ContextaSERKS0_>:
  406856:	55                   	push   %rbp
  406857:	48 89 e5             	mov    %rsp,%rbp
  40685a:	48 83 ec 10          	sub    $0x10,%rsp
  40685e:	48 89 7d f8          	mov    %rdi,-0x8(%rbp)
  406862:	48 89 75 f0          	mov    %rsi,-0x10(%rbp)
  406866:	48 8b 55 f0          	mov    -0x10(%rbp),%rdx
  40686a:	48 8b 45 f8          	mov    -0x8(%rbp),%rax
  40686e:	48 89 d6             	mov    %rdx,%rsi
  406871:	48 89 c7             	mov    %rax,%rdi
  406874:	e8 63 26 00 00       	callq  408edc <_ZN2cl6detail7WrapperIP11_cl_contextEaSERKS4_>
  406879:	48 8b 45 f8          	mov    -0x8(%rbp),%rax
  40687d:	c9                   	leaveq 
  40687e:	c3                   	retq   

000000000040687f <_ZSt4moveIRN2cl7ContextEEONSt16remove_referenceIT_E4typeEOS4_>:
  40687f:	55                   	push   %rbp
  406880:	48 89 e5             	mov    %rsp,%rbp
  406883:	48 89 7d f8          	mov    %rdi,-0x8(%rbp)
  406887:	48 8b 45 f8          	mov    -0x8(%rbp),%rax
  40688b:	5d                   	pop    %rbp
  40688c:	c3                   	retq   
  40688d:	90                   	nop

000000000040688e <_ZN2cl7ContextaSEOS0_>:
  40688e:	55                   	push   %rbp
  40688f:	48 89 e5             	mov    %rsp,%rbp
  406892:	48 83 ec 10          	sub    $0x10,%rsp
  406896:	48 89 7d f8          	mov    %rdi,-0x8(%rbp)
  40689a:	48 89 75 f0          	mov    %rsi,-0x10(%rbp)
  40689e:	48 8b 45 f0          	mov    -0x10(%rbp),%rax
  4068a2:	48 89 c7             	mov    %rax,%rdi
  4068a5:	e8 d5 ff ff ff       	callq  40687f <_ZSt4moveIRN2cl7ContextEEONSt16remove_referenceIT_E4typeEOS4_>
  4068aa:	48 89 c2             	mov    %rax,%rdx
  4068ad:	48 8b 45 f8          	mov    -0x8(%rbp),%rax
  4068b1:	48 89 d6             	mov    %rdx,%rsi
  4068b4:	48 89 c7             	mov    %rax,%rdi
  4068b7:	e8 7e 26 00 00       	callq  408f3a <_ZN2cl6detail7WrapperIP11_cl_contextEaSEOS4_>
  4068bc:	48 8b 45 f8          	mov    -0x8(%rbp),%rax
  4068c0:	c9                   	leaveq 
  4068c1:	c3                   	retq   

00000000004068c2 <_ZN2cl7Context10getDefaultEPi>:
  4068c2:	55                   	push   %rbp
  4068c3:	48 89 e5             	mov    %rsp,%rbp
  4068c6:	48 83 ec 10          	sub    $0x10,%rsp
  4068ca:	48 89 7d f8          	mov    %rdi,-0x8(%rbp)
  4068ce:	48 89 75 f0          	mov    %rsi,-0x10(%rbp)
  4068d2:	be 43 63 40 00       	mov    $0x406343,%esi
  4068d7:	bf 14 a7 61 00       	mov    $0x61a714,%edi
  4068dc:	e8 86 1e 00 00       	callq  408767 <_ZSt9call_onceIRFvvEJEEvRSt9once_flagOT_DpOT0_>
  4068e1:	8b 05 39 3e 21 00    	mov    0x213e39(%rip),%eax        # 61a720 <_ZN2cl7Context14default_error_E>
  4068e7:	be 00 00 00 00       	mov    $0x0,%esi
  4068ec:	89 c7                	mov    %eax,%edi
  4068ee:	e8 b1 df ff ff       	callq  4048a4 <_ZN2cl6detailL10errHandlerEiPKc>
  4068f3:	48 83 7d f0 00       	cmpq   $0x0,-0x10(%rbp)
  4068f8:	74 0c                	je     406906 <_ZN2cl7Context10getDefaultEPi+0x44>
  4068fa:	8b 15 20 3e 21 00    	mov    0x213e20(%rip),%edx        # 61a720 <_ZN2cl7Context14default_error_E>
  406900:	48 8b 45 f0          	mov    -0x10(%rbp),%rax
  406904:	89 10                	mov    %edx,(%rax)
  406906:	48 8b 45 f8          	mov    -0x8(%rbp),%rax
  40690a:	be 18 a7 61 00       	mov    $0x61a718,%esi
  40690f:	48 89 c7             	mov    %rax,%rdi
  406912:	e8 19 ff ff ff       	callq  406830 <_ZN2cl7ContextC1ERKS0_>
  406917:	48 8b 45 f8          	mov    -0x8(%rbp),%rax
  40691b:	c9                   	leaveq 
  40691c:	c3                   	retq   

000000000040691d <_ZN2cl7Context10setDefaultERKS0_>:
  40691d:	55                   	push   %rbp
  40691e:	48 89 e5             	mov    %rsp,%rbp
  406921:	48 83 ec 20          	sub    $0x20,%rsp
  406925:	48 89 7d e8          	mov    %rdi,-0x18(%rbp)
  406929:	48 89 75 e0          	mov    %rsi,-0x20(%rbp)
  40692d:	64 48 8b 04 25 28 00 	mov    %fs:0x28,%rax
  406934:	00 00 
  406936:	48 89 45 f8          	mov    %rax,-0x8(%rbp)
  40693a:	31 c0                	xor    %eax,%eax
  40693c:	48 8b 45 e0          	mov    -0x20(%rbp),%rax
  406940:	48 89 c7             	mov    %rax,%rdi
  406943:	e8 43 26 00 00       	callq  408f8b <_ZSt4crefIN2cl7ContextEESt17reference_wrapperIKT_ERS4_>
  406948:	48 89 45 f0          	mov    %rax,-0x10(%rbp)
  40694c:	48 8d 45 f0          	lea    -0x10(%rbp),%rax
  406950:	48 89 c2             	mov    %rax,%rdx
  406953:	be 7f 64 40 00       	mov    $0x40647f,%esi
  406958:	bf 14 a7 61 00       	mov    $0x61a714,%edi
  40695d:	e8 11 27 00 00       	callq  409073 <_ZSt9call_onceIRFvRKN2cl7ContextEEJSt17reference_wrapperIS2_EEEvRSt9once_flagOT_DpOT0_>
  406962:	8b 05 b8 3d 21 00    	mov    0x213db8(%rip),%eax        # 61a720 <_ZN2cl7Context14default_error_E>
  406968:	be 00 00 00 00       	mov    $0x0,%esi
  40696d:	89 c7                	mov    %eax,%edi
  40696f:	e8 30 df ff ff       	callq  4048a4 <_ZN2cl6detailL10errHandlerEiPKc>
  406974:	48 8b 45 e8          	mov    -0x18(%rbp),%rax
  406978:	be 18 a7 61 00       	mov    $0x61a718,%esi
  40697d:	48 89 c7             	mov    %rax,%rdi
  406980:	e8 ab fe ff ff       	callq  406830 <_ZN2cl7ContextC1ERKS0_>
  406985:	48 8b 45 e8          	mov    -0x18(%rbp),%rax
  406989:	48 8b 4d f8          	mov    -0x8(%rbp),%rcx
  40698d:	64 48 33 0c 25 28 00 	xor    %fs:0x28,%rcx
  406994:	00 00 
  406996:	74 05                	je     40699d <_ZN2cl7Context10setDefaultERKS0_+0x80>
  406998:	e8 03 da ff ff       	callq  4043a0 <__stack_chk_fail@plt>
  40699d:	c9                   	leaveq 
  40699e:	c3                   	retq   
  40699f:	90                   	nop

00000000004069a0 <_ZN2cl7ContextC1Ev>:
  4069a0:	55                   	push   %rbp
  4069a1:	48 89 e5             	mov    %rsp,%rbp
  4069a4:	48 83 ec 10          	sub    $0x10,%rsp
  4069a8:	48 89 7d f8          	mov    %rdi,-0x8(%rbp)
  4069ac:	48 8b 45 f8          	mov    -0x8(%rbp),%rax
  4069b0:	48 89 c7             	mov    %rax,%rdi
  4069b3:	e8 9a 23 00 00       	callq  408d52 <_ZN2cl6detail7WrapperIP11_cl_contextEC1Ev>
  4069b8:	90                   	nop
  4069b9:	c9                   	leaveq 
  4069ba:	c3                   	retq   
  4069bb:	90                   	nop

00000000004069bc <_ZN2cl6Device11makeDefaultEv>:
  4069bc:	55                   	push   %rbp
  4069bd:	48 89 e5             	mov    %rsp,%rbp
  4069c0:	41 54                	push   %r12
  4069c2:	53                   	push   %rbx
  4069c3:	48 83 ec 40          	sub    $0x40,%rsp
  4069c7:	64 48 8b 04 25 28 00 	mov    %fs:0x28,%rax
  4069ce:	00 00 
  4069d0:	48 89 45 e8          	mov    %rax,-0x18(%rbp)
  4069d4:	31 c0                	xor    %eax,%eax
  4069d6:	c7 45 bc 00 00 00 00 	movl   $0x0,-0x44(%rbp)
  4069dd:	48 8d 45 c0          	lea    -0x40(%rbp),%rax
  4069e1:	48 8d 55 bc          	lea    -0x44(%rbp),%rdx
  4069e5:	48 89 d6             	mov    %rdx,%rsi
  4069e8:	48 89 c7             	mov    %rax,%rdi
  4069eb:	e8 d2 fe ff ff       	callq  4068c2 <_ZN2cl7Context10getDefaultEPi>
  4069f0:	8b 45 bc             	mov    -0x44(%rbp),%eax
  4069f3:	be 96 10 41 00       	mov    $0x411096,%esi
  4069f8:	89 c7                	mov    %eax,%edi
  4069fa:	e8 a5 de ff ff       	callq  4048a4 <_ZN2cl6detailL10errHandlerEiPKc>
  4069ff:	8b 45 bc             	mov    -0x44(%rbp),%eax
  406a02:	85 c0                	test   %eax,%eax
  406a04:	74 0b                	je     406a11 <_ZN2cl6Device11makeDefaultEv+0x55>
  406a06:	8b 45 bc             	mov    -0x44(%rbp),%eax
  406a09:	89 05 f1 3c 21 00    	mov    %eax,0x213cf1(%rip)        # 61a700 <_ZN2cl6Device14default_error_E>
  406a0f:	eb 4c                	jmp    406a5d <_ZN2cl6Device11makeDefaultEv+0xa1>
  406a11:	48 8d 45 d0          	lea    -0x30(%rbp),%rax
  406a15:	48 8d 4d c0          	lea    -0x40(%rbp),%rcx
  406a19:	ba 00 00 00 00       	mov    $0x0,%edx
  406a1e:	48 89 ce             	mov    %rcx,%rsi
  406a21:	48 89 c7             	mov    %rax,%rdi
  406a24:	e8 ed 26 00 00       	callq  409116 <_ZNK2cl7Context7getInfoILi4225EEENS_6detail12param_traitsINS2_15cl_context_infoEXT_EE10param_typeEPi>
  406a29:	48 8d 45 d0          	lea    -0x30(%rbp),%rax
  406a2d:	be 00 00 00 00       	mov    $0x0,%esi
  406a32:	48 89 c7             	mov    %rax,%rdi
  406a35:	e8 a8 21 00 00       	callq  408be2 <_ZNSt6vectorIN2cl6DeviceESaIS1_EEixEm>
  406a3a:	48 89 c6             	mov    %rax,%rsi
  406a3d:	bf f0 a6 61 00       	mov    $0x61a6f0,%edi
  406a42:	e8 c5 f0 ff ff       	callq  405b0c <_ZN2cl6DeviceaSERKS0_>
  406a47:	48 8d 45 d0          	lea    -0x30(%rbp),%rax
  406a4b:	48 89 c7             	mov    %rax,%rdi
  406a4e:	e8 fd 23 00 00       	callq  408e50 <_ZNSt6vectorIN2cl6DeviceESaIS1_EED1Ev>
  406a53:	c7 05 a3 3c 21 00 00 	movl   $0x0,0x213ca3(%rip)        # 61a700 <_ZN2cl6Device14default_error_E>
  406a5a:	00 00 00 
  406a5d:	48 8d 45 c0          	lea    -0x40(%rbp),%rax
  406a61:	48 89 c7             	mov    %rax,%rdi
  406a64:	e8 bf f8 ff ff       	callq  406328 <_ZN2cl7ContextD1Ev>
  406a69:	eb 5f                	jmp    406aca <_ZN2cl6Device11makeDefaultEv+0x10e>
  406a6b:	49 89 c4             	mov    %rax,%r12
  406a6e:	48 89 d3             	mov    %rdx,%rbx
  406a71:	48 8d 45 d0          	lea    -0x30(%rbp),%rax
  406a75:	48 89 c7             	mov    %rax,%rdi
  406a78:	e8 d3 23 00 00       	callq  408e50 <_ZNSt6vectorIN2cl6DeviceESaIS1_EED1Ev>
  406a7d:	eb 06                	jmp    406a85 <_ZN2cl6Device11makeDefaultEv+0xc9>
  406a7f:	49 89 c4             	mov    %rax,%r12
  406a82:	48 89 d3             	mov    %rdx,%rbx
  406a85:	48 8d 45 c0          	lea    -0x40(%rbp),%rax
  406a89:	48 89 c7             	mov    %rax,%rdi
  406a8c:	e8 97 f8 ff ff       	callq  406328 <_ZN2cl7ContextD1Ev>
  406a91:	4c 89 e0             	mov    %r12,%rax
  406a94:	48 89 da             	mov    %rbx,%rdx
  406a97:	eb 00                	jmp    406a99 <_ZN2cl6Device11makeDefaultEv+0xdd>
  406a99:	48 83 fa 01          	cmp    $0x1,%rdx
  406a9d:	74 08                	je     406aa7 <_ZN2cl6Device11makeDefaultEv+0xeb>
  406a9f:	48 89 c7             	mov    %rax,%rdi
  406aa2:	e8 59 db ff ff       	callq  404600 <_Unwind_Resume@plt>
  406aa7:	48 89 c7             	mov    %rax,%rdi
  406aaa:	e8 91 d7 ff ff       	callq  404240 <__cxa_begin_catch@plt>
  406aaf:	48 89 45 c8          	mov    %rax,-0x38(%rbp)
  406ab3:	48 8b 45 c8          	mov    -0x38(%rbp),%rax
  406ab7:	48 89 c7             	mov    %rax,%rdi
  406aba:	e8 a7 eb ff ff       	callq  405666 <_ZNK2cl5Error3errEv>
  406abf:	89 05 3b 3c 21 00    	mov    %eax,0x213c3b(%rip)        # 61a700 <_ZN2cl6Device14default_error_E>
  406ac5:	e8 b6 da ff ff       	callq  404580 <__cxa_end_catch@plt>
  406aca:	90                   	nop
  406acb:	48 8b 45 e8          	mov    -0x18(%rbp),%rax
  406acf:	64 48 33 04 25 28 00 	xor    %fs:0x28,%rax
  406ad6:	00 00 
  406ad8:	74 05                	je     406adf <_ZN2cl6Device11makeDefaultEv+0x123>
  406ada:	e8 c1 d8 ff ff       	callq  4043a0 <__stack_chk_fail@plt>
  406adf:	48 83 c4 40          	add    $0x40,%rsp
  406ae3:	5b                   	pop    %rbx
  406ae4:	41 5c                	pop    %r12
  406ae6:	5d                   	pop    %rbp
  406ae7:	c3                   	retq   

0000000000406ae8 <_ZN2cl7NDRangeC1Ev>:
  406ae8:	55                   	push   %rbp
  406ae9:	48 89 e5             	mov    %rsp,%rbp
  406aec:	48 89 7d f8          	mov    %rdi,-0x8(%rbp)
  406af0:	48 8b 45 f8          	mov    -0x8(%rbp),%rax
  406af4:	c7 40 18 00 00 00 00 	movl   $0x0,0x18(%rax)
  406afb:	48 8b 45 f8          	mov    -0x8(%rbp),%rax
  406aff:	48 c7 00 00 00 00 00 	movq   $0x0,(%rax)
  406b06:	48 8b 45 f8          	mov    -0x8(%rbp),%rax
  406b0a:	48 c7 40 08 00 00 00 	movq   $0x0,0x8(%rax)
  406b11:	00 
  406b12:	48 8b 45 f8          	mov    -0x8(%rbp),%rax
  406b16:	48 c7 40 10 00 00 00 	movq   $0x0,0x10(%rax)
  406b1d:	00 
  406b1e:	90                   	nop
  406b1f:	5d                   	pop    %rbp
  406b20:	c3                   	retq   
  406b21:	90                   	nop

0000000000406b22 <_ZN2cl7NDRangeC1Emm>:
  406b22:	55                   	push   %rbp
  406b23:	48 89 e5             	mov    %rsp,%rbp
  406b26:	48 89 7d f8          	mov    %rdi,-0x8(%rbp)
  406b2a:	48 89 75 f0          	mov    %rsi,-0x10(%rbp)
  406b2e:	48 89 55 e8          	mov    %rdx,-0x18(%rbp)
  406b32:	48 8b 45 f8          	mov    -0x8(%rbp),%rax
  406b36:	c7 40 18 02 00 00 00 	movl   $0x2,0x18(%rax)
  406b3d:	48 8b 45 f8          	mov    -0x8(%rbp),%rax
  406b41:	48 8b 55 f0          	mov    -0x10(%rbp),%rdx
  406b45:	48 89 10             	mov    %rdx,(%rax)
  406b48:	48 8b 45 f8          	mov    -0x8(%rbp),%rax
  406b4c:	48 8b 55 e8          	mov    -0x18(%rbp),%rdx
  406b50:	48 89 50 08          	mov    %rdx,0x8(%rax)
  406b54:	48 8b 45 f8          	mov    -0x8(%rbp),%rax
  406b58:	48 c7 40 10 01 00 00 	movq   $0x1,0x10(%rax)
  406b5f:	00 
  406b60:	90                   	nop
  406b61:	5d                   	pop    %rbp
  406b62:	c3                   	retq   
  406b63:	90                   	nop

0000000000406b64 <_ZN2cl6KernelD1Ev>:
  406b64:	55                   	push   %rbp
  406b65:	48 89 e5             	mov    %rsp,%rbp
  406b68:	48 83 ec 10          	sub    $0x10,%rsp
  406b6c:	48 89 7d f8          	mov    %rdi,-0x8(%rbp)
  406b70:	48 8b 45 f8          	mov    -0x8(%rbp),%rax
  406b74:	48 89 c7             	mov    %rax,%rdi
  406b77:	e8 3c 26 00 00       	callq  4091b8 <_ZN2cl6detail7WrapperIP10_cl_kernelED1Ev>
  406b7c:	90                   	nop
  406b7d:	c9                   	leaveq 
  406b7e:	c3                   	retq   
  406b7f:	90                   	nop

0000000000406b80 <_ZN2cl12CommandQueueD1Ev>:
  406b80:	55                   	push   %rbp
  406b81:	48 89 e5             	mov    %rsp,%rbp
  406b84:	48 83 ec 10          	sub    $0x10,%rsp
  406b88:	48 89 7d f8          	mov    %rdi,-0x8(%rbp)
  406b8c:	48 8b 45 f8          	mov    -0x8(%rbp),%rax
  406b90:	48 89 c7             	mov    %rax,%rdi
  406b93:	e8 48 26 00 00       	callq  4091e0 <_ZN2cl6detail7WrapperIP17_cl_command_queueED1Ev>
  406b98:	90                   	nop
  406b99:	c9                   	leaveq 
  406b9a:	c3                   	retq   

0000000000406b9b <_ZN2cl12CommandQueue11makeDefaultEv>:
  406b9b:	55                   	push   %rbp
  406b9c:	48 89 e5             	mov    %rsp,%rbp
  406b9f:	41 54                	push   %r12
  406ba1:	53                   	push   %rbx
  406ba2:	48 83 ec 40          	sub    $0x40,%rsp
  406ba6:	64 48 8b 04 25 28 00 	mov    %fs:0x28,%rax
  406bad:	00 00 
  406baf:	48 89 45 e8          	mov    %rax,-0x18(%rbp)
  406bb3:	31 c0                	xor    %eax,%eax
  406bb5:	48 8d 45 b8          	lea    -0x48(%rbp),%rax
  406bb9:	48 8d 55 b4          	lea    -0x4c(%rbp),%rdx
  406bbd:	48 89 d6             	mov    %rdx,%rsi
  406bc0:	48 89 c7             	mov    %rax,%rdi
  406bc3:	e8 fa fc ff ff       	callq  4068c2 <_ZN2cl7Context10getDefaultEPi>
  406bc8:	8b 45 b4             	mov    -0x4c(%rbp),%eax
  406bcb:	85 c0                	test   %eax,%eax
  406bcd:	74 0b                	je     406bda <_ZN2cl12CommandQueue11makeDefaultEv+0x3f>
  406bcf:	8b 45 b4             	mov    -0x4c(%rbp),%eax
  406bd2:	89 05 58 3b 21 00    	mov    %eax,0x213b58(%rip)        # 61a730 <_ZN2cl12CommandQueue14default_error_E>
  406bd8:	eb 59                	jmp    406c33 <_ZN2cl12CommandQueue11makeDefaultEv+0x98>
  406bda:	48 8d 45 d0          	lea    -0x30(%rbp),%rax
  406bde:	be 00 00 00 00       	mov    $0x0,%esi
  406be3:	48 89 c7             	mov    %rax,%rdi
  406be6:	e8 a0 ee ff ff       	callq  405a8b <_ZN2cl6Device10getDefaultEPi>
  406beb:	48 8d 55 d0          	lea    -0x30(%rbp),%rdx
  406bef:	48 8d 75 b8          	lea    -0x48(%rbp),%rsi
  406bf3:	48 8d 45 c0          	lea    -0x40(%rbp),%rax
  406bf7:	41 b8 30 a7 61 00    	mov    $0x61a730,%r8d
  406bfd:	b9 00 00 00 00       	mov    $0x0,%ecx
  406c02:	48 89 c7             	mov    %rax,%rdi
  406c05:	e8 c8 00 00 00       	callq  406cd2 <_ZN2cl12CommandQueueC1ERKNS_7ContextERKNS_6DeviceEmPi>
  406c0a:	48 8d 45 c0          	lea    -0x40(%rbp),%rax
  406c0e:	48 89 c6             	mov    %rax,%rsi
  406c11:	bf 28 a7 61 00       	mov    $0x61a728,%edi
  406c16:	e8 2d 02 00 00       	callq  406e48 <_ZN2cl12CommandQueueaSEOS0_>
  406c1b:	48 8d 45 c0          	lea    -0x40(%rbp),%rax
  406c1f:	48 89 c7             	mov    %rax,%rdi
  406c22:	e8 59 ff ff ff       	callq  406b80 <_ZN2cl12CommandQueueD1Ev>
  406c27:	48 8d 45 d0          	lea    -0x30(%rbp),%rax
  406c2b:	48 89 c7             	mov    %rax,%rdi
  406c2e:	e8 3d ee ff ff       	callq  405a70 <_ZN2cl6DeviceD1Ev>
  406c33:	48 8d 45 b8          	lea    -0x48(%rbp),%rax
  406c37:	48 89 c7             	mov    %rax,%rdi
  406c3a:	e8 e9 f6 ff ff       	callq  406328 <_ZN2cl7ContextD1Ev>
  406c3f:	eb 73                	jmp    406cb4 <_ZN2cl12CommandQueue11makeDefaultEv+0x119>
  406c41:	49 89 c4             	mov    %rax,%r12
  406c44:	48 89 d3             	mov    %rdx,%rbx
  406c47:	48 8d 45 c0          	lea    -0x40(%rbp),%rax
  406c4b:	48 89 c7             	mov    %rax,%rdi
  406c4e:	e8 2d ff ff ff       	callq  406b80 <_ZN2cl12CommandQueueD1Ev>
  406c53:	eb 06                	jmp    406c5b <_ZN2cl12CommandQueue11makeDefaultEv+0xc0>
  406c55:	49 89 c4             	mov    %rax,%r12
  406c58:	48 89 d3             	mov    %rdx,%rbx
  406c5b:	48 8d 45 d0          	lea    -0x30(%rbp),%rax
  406c5f:	48 89 c7             	mov    %rax,%rdi
  406c62:	e8 09 ee ff ff       	callq  405a70 <_ZN2cl6DeviceD1Ev>
  406c67:	eb 06                	jmp    406c6f <_ZN2cl12CommandQueue11makeDefaultEv+0xd4>
  406c69:	49 89 c4             	mov    %rax,%r12
  406c6c:	48 89 d3             	mov    %rdx,%rbx
  406c6f:	48 8d 45 b8          	lea    -0x48(%rbp),%rax
  406c73:	48 89 c7             	mov    %rax,%rdi
  406c76:	e8 ad f6 ff ff       	callq  406328 <_ZN2cl7ContextD1Ev>
  406c7b:	4c 89 e0             	mov    %r12,%rax
  406c7e:	48 89 da             	mov    %rbx,%rdx
  406c81:	eb 00                	jmp    406c83 <_ZN2cl12CommandQueue11makeDefaultEv+0xe8>
  406c83:	48 83 fa 01          	cmp    $0x1,%rdx
  406c87:	74 08                	je     406c91 <_ZN2cl12CommandQueue11makeDefaultEv+0xf6>
  406c89:	48 89 c7             	mov    %rax,%rdi
  406c8c:	e8 6f d9 ff ff       	callq  404600 <_Unwind_Resume@plt>
  406c91:	48 89 c7             	mov    %rax,%rdi
  406c94:	e8 a7 d5 ff ff       	callq  404240 <__cxa_begin_catch@plt>
  406c99:	48 89 45 c8          	mov    %rax,-0x38(%rbp)
  406c9d:	48 8b 45 c8          	mov    -0x38(%rbp),%rax
  406ca1:	48 89 c7             	mov    %rax,%rdi
  406ca4:	e8 bd e9 ff ff       	callq  405666 <_ZNK2cl5Error3errEv>
  406ca9:	89 05 81 3a 21 00    	mov    %eax,0x213a81(%rip)        # 61a730 <_ZN2cl12CommandQueue14default_error_E>
  406caf:	e8 cc d8 ff ff       	callq  404580 <__cxa_end_catch@plt>
  406cb4:	90                   	nop
  406cb5:	48 8b 45 e8          	mov    -0x18(%rbp),%rax
  406cb9:	64 48 33 04 25 28 00 	xor    %fs:0x28,%rax
  406cc0:	00 00 
  406cc2:	74 05                	je     406cc9 <_ZN2cl12CommandQueue11makeDefaultEv+0x12e>
  406cc4:	e8 d7 d6 ff ff       	callq  4043a0 <__stack_chk_fail@plt>
  406cc9:	48 83 c4 40          	add    $0x40,%rsp
  406ccd:	5b                   	pop    %rbx
  406cce:	41 5c                	pop    %r12
  406cd0:	5d                   	pop    %rbp
  406cd1:	c3                   	retq   

0000000000406cd2 <_ZN2cl12CommandQueueC1ERKNS_7ContextERKNS_6DeviceEmPi>:
  406cd2:	55                   	push   %rbp
  406cd3:	48 89 e5             	mov    %rsp,%rbp
  406cd6:	53                   	push   %rbx
  406cd7:	48 83 ec 48          	sub    $0x48,%rsp
  406cdb:	48 89 7d d8          	mov    %rdi,-0x28(%rbp)
  406cdf:	48 89 75 d0          	mov    %rsi,-0x30(%rbp)
  406ce3:	48 89 55 c8          	mov    %rdx,-0x38(%rbp)
  406ce7:	48 89 4d c0          	mov    %rcx,-0x40(%rbp)
  406ceb:	4c 89 45 b8          	mov    %r8,-0x48(%rbp)
  406cef:	64 48 8b 04 25 28 00 	mov    %fs:0x28,%rax
  406cf6:	00 00 
  406cf8:	48 89 45 e8          	mov    %rax,-0x18(%rbp)
  406cfc:	31 c0                	xor    %eax,%eax
  406cfe:	48 8b 45 d8          	mov    -0x28(%rbp),%rax
  406d02:	48 89 c7             	mov    %rax,%rdi
  406d05:	e8 fe 24 00 00       	callq  409208 <_ZN2cl6detail7WrapperIP17_cl_command_queueEC1Ev>
  406d0a:	48 8b 45 c8          	mov    -0x38(%rbp),%rax
  406d0e:	48 89 c7             	mov    %rax,%rdi
  406d11:	e8 88 ec ff ff       	callq  40599e <_ZNK2cl6detail7WrapperIP13_cl_device_idEclEv>
  406d16:	48 8b 18             	mov    (%rax),%rbx
  406d19:	48 8b 45 d0          	mov    -0x30(%rbp),%rax
  406d1d:	48 89 c7             	mov    %rax,%rdi
  406d20:	e8 85 24 00 00       	callq  4091aa <_ZNK2cl6detail7WrapperIP11_cl_contextEclEv>
  406d25:	48 8b 00             	mov    (%rax),%rax
  406d28:	48 8d 4d e4          	lea    -0x1c(%rbp),%rcx
  406d2c:	48 8b 55 c0          	mov    -0x40(%rbp),%rdx
  406d30:	48 89 de             	mov    %rbx,%rsi
  406d33:	48 89 c7             	mov    %rax,%rdi
  406d36:	e8 25 d8 ff ff       	callq  404560 <clCreateCommandQueue@plt>
  406d3b:	48 89 c2             	mov    %rax,%rdx
  406d3e:	48 8b 45 d8          	mov    -0x28(%rbp),%rax
  406d42:	48 89 10             	mov    %rdx,(%rax)
  406d45:	8b 45 e4             	mov    -0x1c(%rbp),%eax
  406d48:	be a6 10 41 00       	mov    $0x4110a6,%esi
  406d4d:	89 c7                	mov    %eax,%edi
  406d4f:	e8 50 db ff ff       	callq  4048a4 <_ZN2cl6detailL10errHandlerEiPKc>
  406d54:	48 83 7d b8 00       	cmpq   $0x0,-0x48(%rbp)
  406d59:	74 25                	je     406d80 <_ZN2cl12CommandQueueC1ERKNS_7ContextERKNS_6DeviceEmPi+0xae>
  406d5b:	8b 55 e4             	mov    -0x1c(%rbp),%edx
  406d5e:	48 8b 45 b8          	mov    -0x48(%rbp),%rax
  406d62:	89 10                	mov    %edx,(%rax)
  406d64:	eb 1a                	jmp    406d80 <_ZN2cl12CommandQueueC1ERKNS_7ContextERKNS_6DeviceEmPi+0xae>
  406d66:	48 89 c3             	mov    %rax,%rbx
  406d69:	48 8b 45 d8          	mov    -0x28(%rbp),%rax
  406d6d:	48 89 c7             	mov    %rax,%rdi
  406d70:	e8 6b 24 00 00       	callq  4091e0 <_ZN2cl6detail7WrapperIP17_cl_command_queueED1Ev>
  406d75:	48 89 d8             	mov    %rbx,%rax
  406d78:	48 89 c7             	mov    %rax,%rdi
  406d7b:	e8 80 d8 ff ff       	callq  404600 <_Unwind_Resume@plt>
  406d80:	90                   	nop
  406d81:	48 8b 45 e8          	mov    -0x18(%rbp),%rax
  406d85:	64 48 33 04 25 28 00 	xor    %fs:0x28,%rax
  406d8c:	00 00 
  406d8e:	74 05                	je     406d95 <_ZN2cl12CommandQueueC1ERKNS_7ContextERKNS_6DeviceEmPi+0xc3>
  406d90:	e8 0b d6 ff ff       	callq  4043a0 <__stack_chk_fail@plt>
  406d95:	48 83 c4 48          	add    $0x48,%rsp
  406d99:	5b                   	pop    %rbx
  406d9a:	5d                   	pop    %rbp
  406d9b:	c3                   	retq   

0000000000406d9c <_ZN2cl12CommandQueue10getDefaultEPi>:
  406d9c:	55                   	push   %rbp
  406d9d:	48 89 e5             	mov    %rsp,%rbp
  406da0:	48 83 ec 10          	sub    $0x10,%rsp
  406da4:	48 89 7d f8          	mov    %rdi,-0x8(%rbp)
  406da8:	48 89 75 f0          	mov    %rsi,-0x10(%rbp)
  406dac:	be 9b 6b 40 00       	mov    $0x406b9b,%esi
  406db1:	bf 24 a7 61 00       	mov    $0x61a724,%edi
  406db6:	e8 ac 19 00 00       	callq  408767 <_ZSt9call_onceIRFvvEJEEvRSt9once_flagOT_DpOT0_>
  406dbb:	8b 05 6f 39 21 00    	mov    0x21396f(%rip),%eax        # 61a730 <_ZN2cl12CommandQueue14default_error_E>
  406dc1:	be a6 10 41 00       	mov    $0x4110a6,%esi
  406dc6:	89 c7                	mov    %eax,%edi
  406dc8:	e8 d7 da ff ff       	callq  4048a4 <_ZN2cl6detailL10errHandlerEiPKc>
  406dcd:	48 83 7d f0 00       	cmpq   $0x0,-0x10(%rbp)
  406dd2:	74 0c                	je     406de0 <_ZN2cl12CommandQueue10getDefaultEPi+0x44>
  406dd4:	8b 15 56 39 21 00    	mov    0x213956(%rip),%edx        # 61a730 <_ZN2cl12CommandQueue14default_error_E>
  406dda:	48 8b 45 f0          	mov    -0x10(%rbp),%rax
  406dde:	89 10                	mov    %edx,(%rax)
  406de0:	48 8b 45 f8          	mov    -0x8(%rbp),%rax
  406de4:	be 28 a7 61 00       	mov    $0x61a728,%esi
  406de9:	48 89 c7             	mov    %rax,%rdi
  406dec:	e8 23 00 00 00       	callq  406e14 <_ZN2cl12CommandQueueC1ERKS0_>
  406df1:	48 8b 45 f8          	mov    -0x8(%rbp),%rax
  406df5:	c9                   	leaveq 
  406df6:	c3                   	retq   
  406df7:	90                   	nop

0000000000406df8 <_ZN2cl12CommandQueueC1Ev>:
  406df8:	55                   	push   %rbp
  406df9:	48 89 e5             	mov    %rsp,%rbp
  406dfc:	48 83 ec 10          	sub    $0x10,%rsp
  406e00:	48 89 7d f8          	mov    %rdi,-0x8(%rbp)
  406e04:	48 8b 45 f8          	mov    -0x8(%rbp),%rax
  406e08:	48 89 c7             	mov    %rax,%rdi
  406e0b:	e8 f8 23 00 00       	callq  409208 <_ZN2cl6detail7WrapperIP17_cl_command_queueEC1Ev>
  406e10:	90                   	nop
  406e11:	c9                   	leaveq 
  406e12:	c3                   	retq   
  406e13:	90                   	nop

0000000000406e14 <_ZN2cl12CommandQueueC1ERKS0_>:
  406e14:	55                   	push   %rbp
  406e15:	48 89 e5             	mov    %rsp,%rbp
  406e18:	48 83 ec 10          	sub    $0x10,%rsp
  406e1c:	48 89 7d f8          	mov    %rdi,-0x8(%rbp)
  406e20:	48 89 75 f0          	mov    %rsi,-0x10(%rbp)
  406e24:	48 8b 55 f0          	mov    -0x10(%rbp),%rdx
  406e28:	48 8b 45 f8          	mov    -0x8(%rbp),%rax
  406e2c:	48 89 d6             	mov    %rdx,%rsi
  406e2f:	48 89 c7             	mov    %rax,%rdi
  406e32:	e8 21 24 00 00       	callq  409258 <_ZN2cl6detail7WrapperIP17_cl_command_queueEC1ERKS4_>
  406e37:	90                   	nop
  406e38:	c9                   	leaveq 
  406e39:	c3                   	retq   

0000000000406e3a <_ZSt4moveIRN2cl12CommandQueueEEONSt16remove_referenceIT_E4typeEOS4_>:
  406e3a:	55                   	push   %rbp
  406e3b:	48 89 e5             	mov    %rsp,%rbp
  406e3e:	48 89 7d f8          	mov    %rdi,-0x8(%rbp)
  406e42:	48 8b 45 f8          	mov    -0x8(%rbp),%rax
  406e46:	5d                   	pop    %rbp
  406e47:	c3                   	retq   

0000000000406e48 <_ZN2cl12CommandQueueaSEOS0_>:
  406e48:	55                   	push   %rbp
  406e49:	48 89 e5             	mov    %rsp,%rbp
  406e4c:	48 83 ec 10          	sub    $0x10,%rsp
  406e50:	48 89 7d f8          	mov    %rdi,-0x8(%rbp)
  406e54:	48 89 75 f0          	mov    %rsi,-0x10(%rbp)
  406e58:	48 8b 45 f0          	mov    -0x10(%rbp),%rax
  406e5c:	48 89 c7             	mov    %rax,%rdi
  406e5f:	e8 d6 ff ff ff       	callq  406e3a <_ZSt4moveIRN2cl12CommandQueueEEONSt16remove_referenceIT_E4typeEOS4_>
  406e64:	48 89 c2             	mov    %rax,%rdx
  406e67:	48 8b 45 f8          	mov    -0x8(%rbp),%rax
  406e6b:	48 89 d6             	mov    %rdx,%rsi
  406e6e:	48 89 c7             	mov    %rax,%rdi
  406e71:	e8 1c 24 00 00       	callq  409292 <_ZN2cl6detail7WrapperIP17_cl_command_queueEaSEOS4_>
  406e76:	48 8b 45 f8          	mov    -0x8(%rbp),%rax
  406e7a:	c9                   	leaveq 
  406e7b:	c3                   	retq   

0000000000406e7c <_ZNK2cl12CommandQueue6finishEv>:
  406e7c:	55                   	push   %rbp
  406e7d:	48 89 e5             	mov    %rsp,%rbp
  406e80:	48 83 ec 10          	sub    $0x10,%rsp
  406e84:	48 89 7d f8          	mov    %rdi,-0x8(%rbp)
  406e88:	48 8b 45 f8          	mov    -0x8(%rbp),%rax
  406e8c:	48 8b 00             	mov    (%rax),%rax
  406e8f:	48 89 c7             	mov    %rax,%rdi
  406e92:	e8 49 d3 ff ff       	callq  4041e0 <clFinish@plt>
  406e97:	be bb 10 41 00       	mov    $0x4110bb,%esi
  406e9c:	89 c7                	mov    %eax,%edi
  406e9e:	e8 01 da ff ff       	callq  4048a4 <_ZN2cl6detailL10errHandlerEiPKc>
  406ea3:	c9                   	leaveq 
  406ea4:	c3                   	retq   

0000000000406ea5 <_ZSt4moveIRNSt7__cxx1112basic_stringIcSt11char_traitsIcESaIcEEEEONSt16remove_referenceIT_E4typeEOS8_>:
  406ea5:	55                   	push   %rbp
  406ea6:	48 89 e5             	mov    %rsp,%rbp
  406ea9:	48 89 7d f8          	mov    %rdi,-0x8(%rbp)
  406ead:	48 8b 45 f8          	mov    -0x8(%rbp),%rax
  406eb1:	5d                   	pop    %rbp
  406eb2:	c3                   	retq   
  406eb3:	90                   	nop

0000000000406eb4 <_ZN11arm_compute15CLKernelLibrary4initENSt7__cxx1112basic_stringIcSt11char_traitsIcESaIcEEEN2cl7ContextENS7_6DeviceE>:
  406eb4:	55                   	push   %rbp
  406eb5:	48 89 e5             	mov    %rsp,%rbp
  406eb8:	48 83 ec 20          	sub    $0x20,%rsp
  406ebc:	48 89 7d f8          	mov    %rdi,-0x8(%rbp)
  406ec0:	48 89 75 f0          	mov    %rsi,-0x10(%rbp)
  406ec4:	48 89 55 e8          	mov    %rdx,-0x18(%rbp)
  406ec8:	48 89 4d e0          	mov    %rcx,-0x20(%rbp)
  406ecc:	48 8b 45 f0          	mov    -0x10(%rbp),%rax
  406ed0:	48 89 c7             	mov    %rax,%rdi
  406ed3:	e8 cd ff ff ff       	callq  406ea5 <_ZSt4moveIRNSt7__cxx1112basic_stringIcSt11char_traitsIcESaIcEEEEONSt16remove_referenceIT_E4typeEOS8_>
  406ed8:	48 89 c2             	mov    %rax,%rdx
  406edb:	48 8b 45 f8          	mov    -0x8(%rbp),%rax
  406edf:	48 83 c0 18          	add    $0x18,%rax
  406ee3:	48 89 d6             	mov    %rdx,%rsi
  406ee6:	48 89 c7             	mov    %rax,%rdi
  406ee9:	e8 12 d5 ff ff       	callq  404400 <_ZNSt7__cxx1112basic_stringIcSt11char_traitsIcESaIcEEaSEOS4_@plt>
  406eee:	48 8b 45 e8          	mov    -0x18(%rbp),%rax
  406ef2:	48 89 c7             	mov    %rax,%rdi
  406ef5:	e8 85 f9 ff ff       	callq  40687f <_ZSt4moveIRN2cl7ContextEEONSt16remove_referenceIT_E4typeEOS4_>
  406efa:	48 89 c2             	mov    %rax,%rdx
  406efd:	48 8b 45 f8          	mov    -0x8(%rbp),%rax
  406f01:	48 89 d6             	mov    %rdx,%rsi
  406f04:	48 89 c7             	mov    %rax,%rdi
  406f07:	e8 82 f9 ff ff       	callq  40688e <_ZN2cl7ContextaSEOS0_>
  406f0c:	48 8b 45 e0          	mov    -0x20(%rbp),%rax
  406f10:	48 89 c7             	mov    %rax,%rdi
  406f13:	e8 1d ec ff ff       	callq  405b35 <_ZSt4moveIRN2cl6DeviceEEONSt16remove_referenceIT_E4typeEOS4_>
  406f18:	48 89 c2             	mov    %rax,%rdx
  406f1b:	48 8b 45 f8          	mov    -0x8(%rbp),%rax
  406f1f:	48 83 c0 08          	add    $0x8,%rax
  406f23:	48 89 d6             	mov    %rdx,%rsi
  406f26:	48 89 c7             	mov    %rax,%rdi
  406f29:	e8 48 ec ff ff       	callq  405b76 <_ZN2cl6DeviceaSEOS0_>
  406f2e:	90                   	nop
  406f2f:	c9                   	leaveq 
  406f30:	c3                   	retq   
  406f31:	90                   	nop

0000000000406f32 <_ZN11arm_compute15CLKernelLibrary15set_kernel_pathERKNSt7__cxx1112basic_stringIcSt11char_traitsIcESaIcEEE>:
  406f32:	55                   	push   %rbp
  406f33:	48 89 e5             	mov    %rsp,%rbp
  406f36:	48 83 ec 10          	sub    $0x10,%rsp
  406f3a:	48 89 7d f8          	mov    %rdi,-0x8(%rbp)
  406f3e:	48 89 75 f0          	mov    %rsi,-0x10(%rbp)
  406f42:	48 8b 45 f8          	mov    -0x8(%rbp),%rax
  406f46:	48 8d 50 18          	lea    0x18(%rax),%rdx
  406f4a:	48 8b 45 f0          	mov    -0x10(%rbp),%rax
  406f4e:	48 89 c6             	mov    %rax,%rsi
  406f51:	48 89 d7             	mov    %rdx,%rdi
  406f54:	e8 07 d2 ff ff       	callq  404160 <_ZNSt7__cxx1112basic_stringIcSt11char_traitsIcESaIcEEaSERKS4_@plt>
  406f59:	90                   	nop
  406f5a:	c9                   	leaveq 
  406f5b:	c3                   	retq   

0000000000406f5c <_ZN11arm_compute15CLKernelLibrary11set_contextEN2cl7ContextE>:
  406f5c:	55                   	push   %rbp
  406f5d:	48 89 e5             	mov    %rsp,%rbp
  406f60:	53                   	push   %rbx
  406f61:	48 83 ec 48          	sub    $0x48,%rsp
  406f65:	48 89 7d b8          	mov    %rdi,-0x48(%rbp)
  406f69:	48 89 75 b0          	mov    %rsi,-0x50(%rbp)
  406f6d:	64 48 8b 04 25 28 00 	mov    %fs:0x28,%rax
  406f74:	00 00 
  406f76:	48 89 45 e8          	mov    %rax,-0x18(%rbp)
  406f7a:	31 c0                	xor    %eax,%eax
  406f7c:	48 8b 45 b0          	mov    -0x50(%rbp),%rax
  406f80:	48 89 c7             	mov    %rax,%rdi
  406f83:	e8 f7 f8 ff ff       	callq  40687f <_ZSt4moveIRN2cl7ContextEEONSt16remove_referenceIT_E4typeEOS4_>
  406f88:	48 89 c2             	mov    %rax,%rdx
  406f8b:	48 8b 45 b8          	mov    -0x48(%rbp),%rax
  406f8f:	48 89 d6             	mov    %rdx,%rsi
  406f92:	48 89 c7             	mov    %rax,%rdi
  406f95:	e8 f4 f8 ff ff       	callq  40688e <_ZN2cl7ContextaSEOS0_>
  406f9a:	48 8b 45 b8          	mov    -0x48(%rbp),%rax
  406f9e:	48 89 c7             	mov    %rax,%rdi
  406fa1:	e8 3e 23 00 00       	callq  4092e4 <_ZN2cl6detail7WrapperIP11_cl_contextE3getEv>
  406fa6:	48 85 c0             	test   %rax,%rax
  406fa9:	0f 94 c0             	sete   %al
  406fac:	84 c0                	test   %al,%al
  406fae:	74 34                	je     406fe4 <_ZN11arm_compute15CLKernelLibrary11set_contextEN2cl7ContextE+0x88>
  406fb0:	48 8d 45 d0          	lea    -0x30(%rbp),%rax
  406fb4:	48 89 c7             	mov    %rax,%rdi
  406fb7:	e8 68 ea ff ff       	callq  405a24 <_ZN2cl6DeviceC1Ev>
  406fbc:	48 8b 45 b8          	mov    -0x48(%rbp),%rax
  406fc0:	48 8d 50 08          	lea    0x8(%rax),%rdx
  406fc4:	48 8d 45 d0          	lea    -0x30(%rbp),%rax
  406fc8:	48 89 c6             	mov    %rax,%rsi
  406fcb:	48 89 d7             	mov    %rdx,%rdi
  406fce:	e8 a3 eb ff ff       	callq  405b76 <_ZN2cl6DeviceaSEOS0_>
  406fd3:	48 8d 45 d0          	lea    -0x30(%rbp),%rax
  406fd7:	48 89 c7             	mov    %rax,%rdi
  406fda:	e8 91 ea ff ff       	callq  405a70 <_ZN2cl6DeviceD1Ev>
  406fdf:	e9 d3 00 00 00       	jmpq   4070b7 <_ZN11arm_compute15CLKernelLibrary11set_contextEN2cl7ContextE+0x15b>
  406fe4:	48 8b 4d b8          	mov    -0x48(%rbp),%rcx
  406fe8:	48 8d 45 d0          	lea    -0x30(%rbp),%rax
  406fec:	ba 00 00 00 00       	mov    $0x0,%edx
  406ff1:	48 89 ce             	mov    %rcx,%rsi
  406ff4:	48 89 c7             	mov    %rax,%rdi
  406ff7:	e8 1a 21 00 00       	callq  409116 <_ZNK2cl7Context7getInfoILi4225EEENS_6detail12param_traitsINS2_15cl_context_infoEXT_EE10param_typeEPi>
  406ffc:	48 8d 45 d0          	lea    -0x30(%rbp),%rax
  407000:	48 89 c7             	mov    %rax,%rdi
  407003:	e8 ee 22 00 00       	callq  4092f6 <_ZNKSt6vectorIN2cl6DeviceESaIS1_EE5emptyEv>
  407008:	84 c0                	test   %al,%al
  40700a:	74 31                	je     40703d <_ZN11arm_compute15CLKernelLibrary11set_contextEN2cl7ContextE+0xe1>
  40700c:	48 8d 45 c0          	lea    -0x40(%rbp),%rax
  407010:	48 89 c7             	mov    %rax,%rdi
  407013:	e8 0c ea ff ff       	callq  405a24 <_ZN2cl6DeviceC1Ev>
  407018:	48 8b 45 b8          	mov    -0x48(%rbp),%rax
  40701c:	48 8d 50 08          	lea    0x8(%rax),%rdx
  407020:	48 8d 45 c0          	lea    -0x40(%rbp),%rax
  407024:	48 89 c6             	mov    %rax,%rsi
  407027:	48 89 d7             	mov    %rdx,%rdi
  40702a:	e8 47 eb ff ff       	callq  405b76 <_ZN2cl6DeviceaSEOS0_>
  40702f:	48 8d 45 c0          	lea    -0x40(%rbp),%rax
  407033:	48 89 c7             	mov    %rax,%rdi
  407036:	e8 35 ea ff ff       	callq  405a70 <_ZN2cl6DeviceD1Ev>
  40703b:	eb 27                	jmp    407064 <_ZN11arm_compute15CLKernelLibrary11set_contextEN2cl7ContextE+0x108>
  40703d:	48 8d 45 d0          	lea    -0x30(%rbp),%rax
  407041:	be 00 00 00 00       	mov    $0x0,%esi
  407046:	48 89 c7             	mov    %rax,%rdi
  407049:	e8 40 1d 00 00       	callq  408d8e <_ZNKSt6vectorIN2cl6DeviceESaIS1_EEixEm>
  40704e:	48 89 c2             	mov    %rax,%rdx
  407051:	48 8b 45 b8          	mov    -0x48(%rbp),%rax
  407055:	48 83 c0 08          	add    $0x8,%rax
  407059:	48 89 d6             	mov    %rdx,%rsi
  40705c:	48 89 c7             	mov    %rax,%rdi
  40705f:	e8 a8 ea ff ff       	callq  405b0c <_ZN2cl6DeviceaSERKS0_>
  407064:	48 8d 45 d0          	lea    -0x30(%rbp),%rax
  407068:	48 89 c7             	mov    %rax,%rdi
  40706b:	e8 e0 1d 00 00       	callq  408e50 <_ZNSt6vectorIN2cl6DeviceESaIS1_EED1Ev>
  407070:	eb 45                	jmp    4070b7 <_ZN11arm_compute15CLKernelLibrary11set_contextEN2cl7ContextE+0x15b>
  407072:	48 89 c3             	mov    %rax,%rbx
  407075:	48 8d 45 d0          	lea    -0x30(%rbp),%rax
  407079:	48 89 c7             	mov    %rax,%rdi
  40707c:	e8 ef e9 ff ff       	callq  405a70 <_ZN2cl6DeviceD1Ev>
  407081:	48 89 d8             	mov    %rbx,%rax
  407084:	48 89 c7             	mov    %rax,%rdi
  407087:	e8 74 d5 ff ff       	callq  404600 <_Unwind_Resume@plt>
  40708c:	48 89 c3             	mov    %rax,%rbx
  40708f:	48 8d 45 c0          	lea    -0x40(%rbp),%rax
  407093:	48 89 c7             	mov    %rax,%rdi
  407096:	e8 d5 e9 ff ff       	callq  405a70 <_ZN2cl6DeviceD1Ev>
  40709b:	eb 03                	jmp    4070a0 <_ZN11arm_compute15CLKernelLibrary11set_contextEN2cl7ContextE+0x144>
  40709d:	48 89 c3             	mov    %rax,%rbx
  4070a0:	48 8d 45 d0          	lea    -0x30(%rbp),%rax
  4070a4:	48 89 c7             	mov    %rax,%rdi
  4070a7:	e8 a4 1d 00 00       	callq  408e50 <_ZNSt6vectorIN2cl6DeviceESaIS1_EED1Ev>
  4070ac:	48 89 d8             	mov    %rbx,%rax
  4070af:	48 89 c7             	mov    %rax,%rdi
  4070b2:	e8 49 d5 ff ff       	callq  404600 <_Unwind_Resume@plt>
  4070b7:	48 8b 45 e8          	mov    -0x18(%rbp),%rax
  4070bb:	64 48 33 04 25 28 00 	xor    %fs:0x28,%rax
  4070c2:	00 00 
  4070c4:	74 05                	je     4070cb <_ZN11arm_compute15CLKernelLibrary11set_contextEN2cl7ContextE+0x16f>
  4070c6:	e8 d5 d2 ff ff       	callq  4043a0 <__stack_chk_fail@plt>
  4070cb:	48 83 c4 48          	add    $0x48,%rsp
  4070cf:	5b                   	pop    %rbx
  4070d0:	5d                   	pop    %rbp
  4070d1:	c3                   	retq   

00000000004070d2 <_ZN11arm_compute6Window9DimensionC1Eiii>:
  4070d2:	55                   	push   %rbp
  4070d3:	48 89 e5             	mov    %rsp,%rbp
  4070d6:	48 89 7d f8          	mov    %rdi,-0x8(%rbp)
  4070da:	89 75 f4             	mov    %esi,-0xc(%rbp)
  4070dd:	89 55 f0             	mov    %edx,-0x10(%rbp)
  4070e0:	89 4d ec             	mov    %ecx,-0x14(%rbp)
  4070e3:	48 8b 45 f8          	mov    -0x8(%rbp),%rax
  4070e7:	8b 55 f4             	mov    -0xc(%rbp),%edx
  4070ea:	89 10                	mov    %edx,(%rax)
  4070ec:	48 8b 45 f8          	mov    -0x8(%rbp),%rax
  4070f0:	8b 55 f0             	mov    -0x10(%rbp),%edx
  4070f3:	89 50 04             	mov    %edx,0x4(%rax)
  4070f6:	48 8b 45 f8          	mov    -0x8(%rbp),%rax
  4070fa:	8b 55 ec             	mov    -0x14(%rbp),%edx
  4070fd:	89 50 08             	mov    %edx,0x8(%rax)
  407100:	90                   	nop
  407101:	5d                   	pop    %rbp
  407102:	c3                   	retq   
  407103:	90                   	nop

0000000000407104 <_ZNK11arm_compute6Window9Dimension5startEv>:
  407104:	55                   	push   %rbp
  407105:	48 89 e5             	mov    %rsp,%rbp
  407108:	48 89 7d f8          	mov    %rdi,-0x8(%rbp)
  40710c:	48 8b 45 f8          	mov    -0x8(%rbp),%rax
  407110:	8b 00                	mov    (%rax),%eax
  407112:	5d                   	pop    %rbp
  407113:	c3                   	retq   

0000000000407114 <_ZNK11arm_compute6Window9Dimension3endEv>:
  407114:	55                   	push   %rbp
  407115:	48 89 e5             	mov    %rsp,%rbp
  407118:	48 89 7d f8          	mov    %rdi,-0x8(%rbp)
  40711c:	48 8b 45 f8          	mov    -0x8(%rbp),%rax
  407120:	8b 40 04             	mov    0x4(%rax),%eax
  407123:	5d                   	pop    %rbp
  407124:	c3                   	retq   
  407125:	90                   	nop

0000000000407126 <_ZNK11arm_compute6Window9Dimension4stepEv>:
  407126:	55                   	push   %rbp
  407127:	48 89 e5             	mov    %rsp,%rbp
  40712a:	48 89 7d f8          	mov    %rdi,-0x8(%rbp)
  40712e:	48 8b 45 f8          	mov    -0x8(%rbp),%rax
  407132:	8b 40 08             	mov    0x8(%rax),%eax
  407135:	5d                   	pop    %rbp
  407136:	c3                   	retq   

0000000000407137 <_ZNSt14__array_traitsIN11arm_compute6Window9DimensionELm6EE6_S_refERA6_KS2_m>:
  407137:	55                   	push   %rbp
  407138:	48 89 e5             	mov    %rsp,%rbp
  40713b:	48 89 7d f8          	mov    %rdi,-0x8(%rbp)
  40713f:	48 89 75 f0          	mov    %rsi,-0x10(%rbp)
  407143:	48 8b 55 f0          	mov    -0x10(%rbp),%rdx
  407147:	48 89 d0             	mov    %rdx,%rax
  40714a:	48 01 c0             	add    %rax,%rax
  40714d:	48 01 d0             	add    %rdx,%rax
  407150:	48 c1 e0 02          	shl    $0x2,%rax
  407154:	48 8b 55 f8          	mov    -0x8(%rbp),%rdx
  407158:	48 01 d0             	add    %rdx,%rax
  40715b:	5d                   	pop    %rbp
  40715c:	c3                   	retq   
  40715d:	90                   	nop

000000000040715e <_ZNKSt5arrayIN11arm_compute6Window9DimensionELm6EE2atEm>:
  40715e:	55                   	push   %rbp
  40715f:	48 89 e5             	mov    %rsp,%rbp
  407162:	48 83 ec 10          	sub    $0x10,%rsp
  407166:	48 89 7d f8          	mov    %rdi,-0x8(%rbp)
  40716a:	48 89 75 f0          	mov    %rsi,-0x10(%rbp)
  40716e:	48 83 7d f0 05       	cmpq   $0x5,-0x10(%rbp)
  407173:	77 15                	ja     40718a <_ZNKSt5arrayIN11arm_compute6Window9DimensionELm6EE2atEm+0x2c>
  407175:	48 8b 45 f8          	mov    -0x8(%rbp),%rax
  407179:	48 8b 55 f0          	mov    -0x10(%rbp),%rdx
  40717d:	48 89 d6             	mov    %rdx,%rsi
  407180:	48 89 c7             	mov    %rax,%rdi
  407183:	e8 af ff ff ff       	callq  407137 <_ZNSt14__array_traitsIN11arm_compute6Window9DimensionELm6EE6_S_refERA6_KS2_m>
  407188:	eb 1b                	jmp    4071a5 <_ZNKSt5arrayIN11arm_compute6Window9DimensionELm6EE2atEm+0x47>
  40718a:	48 8b 45 f0          	mov    -0x10(%rbp),%rax
  40718e:	ba 06 00 00 00       	mov    $0x6,%edx
  407193:	48 89 c6             	mov    %rax,%rsi
  407196:	bf c8 10 41 00       	mov    $0x4110c8,%edi
  40719b:	b8 00 00 00 00       	mov    $0x0,%eax
  4071a0:	e8 5b d3 ff ff       	callq  404500 <_ZSt24__throw_out_of_range_fmtPKcz@plt>
  4071a5:	c9                   	leaveq 
  4071a6:	c3                   	retq   
  4071a7:	90                   	nop

00000000004071a8 <_ZNK11arm_compute6WindowixEm>:
  4071a8:	55                   	push   %rbp
  4071a9:	48 89 e5             	mov    %rsp,%rbp
  4071ac:	48 83 ec 10          	sub    $0x10,%rsp
  4071b0:	48 89 7d f8          	mov    %rdi,-0x8(%rbp)
  4071b4:	48 89 75 f0          	mov    %rsi,-0x10(%rbp)
  4071b8:	48 8b 45 f8          	mov    -0x8(%rbp),%rax
  4071bc:	48 8b 55 f0          	mov    -0x10(%rbp),%rdx
  4071c0:	48 89 d6             	mov    %rdx,%rsi
  4071c3:	48 89 c7             	mov    %rax,%rdi
  4071c6:	e8 93 ff ff ff       	callq  40715e <_ZNKSt5arrayIN11arm_compute6Window9DimensionELm6EE2atEm>
  4071cb:	c9                   	leaveq 
  4071cc:	c3                   	retq   
  4071cd:	90                   	nop

00000000004071ce <_ZN11arm_compute6Window3setEmRKNS0_9DimensionE>:
  4071ce:	55                   	push   %rbp
  4071cf:	48 89 e5             	mov    %rsp,%rbp
  4071d2:	48 83 ec 20          	sub    $0x20,%rsp
  4071d6:	48 89 7d f8          	mov    %rdi,-0x8(%rbp)
  4071da:	48 89 75 f0          	mov    %rsi,-0x10(%rbp)
  4071de:	48 89 55 e8          	mov    %rdx,-0x18(%rbp)
  4071e2:	48 8b 45 f8          	mov    -0x8(%rbp),%rax
  4071e6:	48 8b 55 f0          	mov    -0x10(%rbp),%rdx
  4071ea:	48 89 d6             	mov    %rdx,%rsi
  4071ed:	48 89 c7             	mov    %rax,%rdi
  4071f0:	e8 65 21 00 00       	callq  40935a <_ZNSt5arrayIN11arm_compute6Window9DimensionELm6EEixEm>
  4071f5:	48 89 c2             	mov    %rax,%rdx
  4071f8:	48 8b 45 e8          	mov    -0x18(%rbp),%rax
  4071fc:	48 8b 08             	mov    (%rax),%rcx
  4071ff:	48 89 0a             	mov    %rcx,(%rdx)
  407202:	8b 40 08             	mov    0x8(%rax),%eax
  407205:	89 42 08             	mov    %eax,0x8(%rdx)
  407208:	90                   	nop
  407209:	c9                   	leaveq 
  40720a:	c3                   	retq   
  40720b:	90                   	nop

000000000040720c <_ZNK11arm_compute6Window8validateEv>:
  40720c:	55                   	push   %rbp
  40720d:	48 89 e5             	mov    %rsp,%rbp
  407210:	48 89 7d e8          	mov    %rdi,-0x18(%rbp)
  407214:	48 c7 45 f8 00 00 00 	movq   $0x0,-0x8(%rbp)
  40721b:	00 
  40721c:	48 83 7d f8 05       	cmpq   $0x5,-0x8(%rbp)
  407221:	77 07                	ja     40722a <_ZNK11arm_compute6Window8validateEv+0x1e>
  407223:	48 83 45 f8 01       	addq   $0x1,-0x8(%rbp)
  407228:	eb f2                	jmp    40721c <_ZNK11arm_compute6Window8validateEv+0x10>
  40722a:	90                   	nop
  40722b:	5d                   	pop    %rbp
  40722c:	c3                   	retq   
  40722d:	90                   	nop

000000000040722e <_ZN11arm_compute6Window21use_tensor_dimensionsERKNS_11TensorShapeEm>:
  40722e:	55                   	push   %rbp
  40722f:	48 89 e5             	mov    %rsp,%rbp
  407232:	48 83 ec 50          	sub    $0x50,%rsp
  407236:	48 89 7d c8          	mov    %rdi,-0x38(%rbp)
  40723a:	48 89 75 c0          	mov    %rsi,-0x40(%rbp)
  40723e:	48 89 55 b8          	mov    %rdx,-0x48(%rbp)
  407242:	64 48 8b 04 25 28 00 	mov    %fs:0x28,%rax
  407249:	00 00 
  40724b:	48 89 45 f8          	mov    %rax,-0x8(%rbp)
  40724f:	31 c0                	xor    %eax,%eax
  407251:	48 8b 45 b8          	mov    -0x48(%rbp),%rax
  407255:	89 45 dc             	mov    %eax,-0x24(%rbp)
  407258:	48 8b 45 c0          	mov    -0x40(%rbp),%rax
  40725c:	48 89 c7             	mov    %rax,%rdi
  40725f:	e8 06 12 00 00       	callq  40846a <_ZNK11arm_compute10DimensionsImE14num_dimensionsEv>
  407264:	3b 45 dc             	cmp    -0x24(%rbp),%eax
  407267:	0f 97 c0             	seta   %al
  40726a:	84 c0                	test   %al,%al
  40726c:	74 63                	je     4072d1 <_ZN11arm_compute6Window21use_tensor_dimensionsERKNS_11TensorShapeEm+0xa3>
  40726e:	48 c7 45 e0 01 00 00 	movq   $0x1,-0x20(%rbp)
  407275:	00 
  407276:	8b 55 dc             	mov    -0x24(%rbp),%edx
  407279:	48 8b 45 c0          	mov    -0x40(%rbp),%rax
  40727d:	48 89 d6             	mov    %rdx,%rsi
  407280:	48 89 c7             	mov    %rax,%rdi
  407283:	e8 a6 13 00 00       	callq  40862e <_ZNK11arm_compute10DimensionsImEixEm>
  407288:	48 89 c2             	mov    %rax,%rdx
  40728b:	48 8d 45 e0          	lea    -0x20(%rbp),%rax
  40728f:	48 89 c6             	mov    %rax,%rsi
  407292:	48 89 d7             	mov    %rdx,%rdi
  407295:	e8 e5 20 00 00       	callq  40937f <_ZSt3maxImERKT_S2_S2_>
  40729a:	48 8b 00             	mov    (%rax),%rax
  40729d:	89 c2                	mov    %eax,%edx
  40729f:	48 8d 45 ec          	lea    -0x14(%rbp),%rax
  4072a3:	b9 01 00 00 00       	mov    $0x1,%ecx
  4072a8:	be 00 00 00 00       	mov    $0x0,%esi
  4072ad:	48 89 c7             	mov    %rax,%rdi
  4072b0:	e8 1d fe ff ff       	callq  4070d2 <_ZN11arm_compute6Window9DimensionC1Eiii>
  4072b5:	8b 4d dc             	mov    -0x24(%rbp),%ecx
  4072b8:	48 8d 55 ec          	lea    -0x14(%rbp),%rdx
  4072bc:	48 8b 45 c8          	mov    -0x38(%rbp),%rax
  4072c0:	48 89 ce             	mov    %rcx,%rsi
  4072c3:	48 89 c7             	mov    %rax,%rdi
  4072c6:	e8 03 ff ff ff       	callq  4071ce <_ZN11arm_compute6Window3setEmRKNS0_9DimensionE>
  4072cb:	83 45 dc 01          	addl   $0x1,-0x24(%rbp)
  4072cf:	eb 87                	jmp    407258 <_ZN11arm_compute6Window21use_tensor_dimensionsERKNS_11TensorShapeEm+0x2a>
  4072d1:	90                   	nop
  4072d2:	48 8b 45 f8          	mov    -0x8(%rbp),%rax
  4072d6:	64 48 33 04 25 28 00 	xor    %fs:0x28,%rax
  4072dd:	00 00 
  4072df:	74 05                	je     4072e6 <_ZN11arm_compute6Window21use_tensor_dimensionsERKNS_11TensorShapeEm+0xb8>
  4072e1:	e8 ba d0 ff ff       	callq  4043a0 <__stack_chk_fail@plt>
  4072e6:	c9                   	leaveq 
  4072e7:	c3                   	retq   

00000000004072e8 <_ZNSt5arrayIN11arm_compute8Iterator9DimensionELm6EEC1Ev>:
  4072e8:	55                   	push   %rbp
  4072e9:	48 89 e5             	mov    %rsp,%rbp
  4072ec:	48 89 7d f8          	mov    %rdi,-0x8(%rbp)
  4072f0:	48 8b 45 f8          	mov    -0x8(%rbp),%rax
  4072f4:	b9 30 00 00 00       	mov    $0x30,%ecx
  4072f9:	be 00 00 00 00       	mov    $0x0,%esi
  4072fe:	48 89 30             	mov    %rsi,(%rax)
  407301:	89 ca                	mov    %ecx,%edx
  407303:	48 01 c2             	add    %rax,%rdx
  407306:	48 83 c2 08          	add    $0x8,%rdx
  40730a:	48 89 72 f0          	mov    %rsi,-0x10(%rdx)
  40730e:	48 8d 50 08          	lea    0x8(%rax),%rdx
  407312:	48 83 e2 f8          	and    $0xfffffffffffffff8,%rdx
  407316:	48 29 d0             	sub    %rdx,%rax
  407319:	01 c1                	add    %eax,%ecx
  40731b:	83 e1 f8             	and    $0xfffffff8,%ecx
  40731e:	89 c8                	mov    %ecx,%eax
  407320:	c1 e8 03             	shr    $0x3,%eax
  407323:	89 c1                	mov    %eax,%ecx
  407325:	48 89 d7             	mov    %rdx,%rdi
  407328:	48 89 f0             	mov    %rsi,%rax
  40732b:	f3 48 ab             	rep stos %rax,%es:(%rdi)
  40732e:	90                   	nop
  40732f:	5d                   	pop    %rbp
  407330:	c3                   	retq   
  407331:	90                   	nop

0000000000407332 <_ZN11arm_compute8IteratorC1Ev>:
  407332:	55                   	push   %rbp
  407333:	48 89 e5             	mov    %rsp,%rbp
  407336:	48 83 ec 10          	sub    $0x10,%rsp
  40733a:	48 89 7d f8          	mov    %rdi,-0x8(%rbp)
  40733e:	48 8b 45 f8          	mov    -0x8(%rbp),%rax
  407342:	48 c7 00 00 00 00 00 	movq   $0x0,(%rax)
  407349:	48 8b 45 f8          	mov    -0x8(%rbp),%rax
  40734d:	48 8d 50 08          	lea    0x8(%rax),%rdx
  407351:	b8 00 00 00 00       	mov    $0x0,%eax
  407356:	b9 06 00 00 00       	mov    $0x6,%ecx
  40735b:	48 89 d7             	mov    %rdx,%rdi
  40735e:	f3 48 ab             	rep stos %rax,%es:(%rdi)
  407361:	48 8b 45 f8          	mov    -0x8(%rbp),%rax
  407365:	48 83 c0 08          	add    $0x8,%rax
  407369:	48 89 c7             	mov    %rax,%rdi
  40736c:	e8 77 ff ff ff       	callq  4072e8 <_ZNSt5arrayIN11arm_compute8Iterator9DimensionELm6EEC1Ev>
  407371:	90                   	nop
  407372:	c9                   	leaveq 
  407373:	c3                   	retq   

0000000000407374 <_ZNSt14__array_traitsIN11arm_compute8Iterator9DimensionELm6EE6_S_refERA6_KS2_m>:
  407374:	55                   	push   %rbp
  407375:	48 89 e5             	mov    %rsp,%rbp
  407378:	48 89 7d f8          	mov    %rdi,-0x8(%rbp)
  40737c:	48 89 75 f0          	mov    %rsi,-0x10(%rbp)
  407380:	48 8b 45 f0          	mov    -0x10(%rbp),%rax
  407384:	48 8d 14 c5 00 00 00 	lea    0x0(,%rax,8),%rdx
  40738b:	00 
  40738c:	48 8b 45 f8          	mov    -0x8(%rbp),%rax
  407390:	48 01 d0             	add    %rdx,%rax
  407393:	5d                   	pop    %rbp
  407394:	c3                   	retq   

0000000000407395 <_ZSt3getILm0EN11arm_compute8Iterator9DimensionELm6EERT0_RSt5arrayIS3_XT1_EE>:
  407395:	55                   	push   %rbp
  407396:	48 89 e5             	mov    %rsp,%rbp
  407399:	48 83 ec 10          	sub    $0x10,%rsp
  40739d:	48 89 7d f8          	mov    %rdi,-0x8(%rbp)
  4073a1:	48 8b 45 f8          	mov    -0x8(%rbp),%rax
  4073a5:	be 00 00 00 00       	mov    $0x0,%esi
  4073aa:	48 89 c7             	mov    %rax,%rdi
  4073ad:	e8 c2 ff ff ff       	callq  407374 <_ZNSt14__array_traitsIN11arm_compute8Iterator9DimensionELm6EE6_S_refERA6_KS2_m>
  4073b2:	c9                   	leaveq 
  4073b3:	c3                   	retq   

00000000004073b4 <_ZN11arm_compute8IteratorC1EPKNS_7ITensorERKNS_6WindowE>:
  4073b4:	55                   	push   %rbp
  4073b5:	48 89 e5             	mov    %rsp,%rbp
  4073b8:	41 54                	push   %r12
  4073ba:	53                   	push   %rbx
  4073bb:	48 83 ec 40          	sub    $0x40,%rsp
  4073bf:	48 89 7d c8          	mov    %rdi,-0x38(%rbp)
  4073c3:	48 89 75 c0          	mov    %rsi,-0x40(%rbp)
  4073c7:	48 89 55 b8          	mov    %rdx,-0x48(%rbp)
  4073cb:	48 8b 45 c8          	mov    -0x38(%rbp),%rax
  4073cf:	48 89 c7             	mov    %rax,%rdi
  4073d2:	e8 5b ff ff ff       	callq  407332 <_ZN11arm_compute8IteratorC1Ev>
  4073d7:	48 8b 45 c0          	mov    -0x40(%rbp),%rax
  4073db:	48 8b 00             	mov    (%rax),%rax
  4073de:	48 8b 00             	mov    (%rax),%rax
  4073e1:	48 8b 55 c0          	mov    -0x40(%rbp),%rdx
  4073e5:	48 89 d7             	mov    %rdx,%rdi
  4073e8:	ff d0                	callq  *%rax
  4073ea:	48 89 45 e0          	mov    %rax,-0x20(%rbp)
  4073ee:	48 8b 45 e0          	mov    -0x20(%rbp),%rax
  4073f2:	48 8b 00             	mov    (%rax),%rax
  4073f5:	48 83 c0 78          	add    $0x78,%rax
  4073f9:	48 8b 00             	mov    (%rax),%rax
  4073fc:	48 8b 55 e0          	mov    -0x20(%rbp),%rdx
  407400:	48 89 d7             	mov    %rdx,%rdi
  407403:	ff d0                	callq  *%rax
  407405:	48 89 45 e8          	mov    %rax,-0x18(%rbp)
  407409:	48 8b 45 c0          	mov    -0x40(%rbp),%rax
  40740d:	48 8b 00             	mov    (%rax),%rax
  407410:	48 83 c0 20          	add    $0x20,%rax
  407414:	48 8b 00             	mov    (%rax),%rax
  407417:	48 8b 55 c0          	mov    -0x40(%rbp),%rdx
  40741b:	48 89 d7             	mov    %rdx,%rdi
  40741e:	ff d0                	callq  *%rax
  407420:	48 89 c3             	mov    %rax,%rbx
  407423:	48 8b 45 e0          	mov    -0x20(%rbp),%rax
  407427:	48 8b 00             	mov    (%rax),%rax
  40742a:	48 83 e8 80          	sub    $0xffffffffffffff80,%rax
  40742e:	48 8b 00             	mov    (%rax),%rax
  407431:	48 8b 55 e0          	mov    -0x20(%rbp),%rdx
  407435:	48 89 d7             	mov    %rdx,%rdi
  407438:	ff d0                	callq  *%rax
  40743a:	48 8d 14 03          	lea    (%rbx,%rax,1),%rdx
  40743e:	48 8b 45 c8          	mov    -0x38(%rbp),%rax
  407442:	48 89 10             	mov    %rdx,(%rax)
  407445:	c7 45 d8 00 00 00 00 	movl   $0x0,-0x28(%rbp)
  40744c:	8b 5d d8             	mov    -0x28(%rbp),%ebx
  40744f:	48 8b 45 e0          	mov    -0x20(%rbp),%rax
  407453:	48 8b 00             	mov    (%rax),%rax
  407456:	48 05 a0 00 00 00    	add    $0xa0,%rax
  40745c:	48 8b 00             	mov    (%rax),%rax
  40745f:	48 8b 55 e0          	mov    -0x20(%rbp),%rdx
  407463:	48 89 d7             	mov    %rdx,%rdi
  407466:	ff d0                	callq  *%rax
  407468:	48 39 c3             	cmp    %rax,%rbx
  40746b:	0f 92 c0             	setb   %al
  40746e:	84 c0                	test   %al,%al
  407470:	0f 84 ac 00 00 00    	je     407522 <_ZN11arm_compute8IteratorC1EPKNS_7ITensorERKNS_6WindowE+0x16e>
  407476:	8b 45 d8             	mov    -0x28(%rbp),%eax
  407479:	48 8b 55 c8          	mov    -0x38(%rbp),%rdx
  40747d:	48 83 c2 08          	add    $0x8,%rdx
  407481:	48 89 c6             	mov    %rax,%rsi
  407484:	48 89 d7             	mov    %rdx,%rdi
  407487:	e8 1e 1f 00 00       	callq  4093aa <_ZNSt5arrayIN11arm_compute8Iterator9DimensionELm6EEixEm>
  40748c:	48 89 c3             	mov    %rax,%rbx
  40748f:	8b 55 d8             	mov    -0x28(%rbp),%edx
  407492:	48 8b 45 b8          	mov    -0x48(%rbp),%rax
  407496:	48 89 d6             	mov    %rdx,%rsi
  407499:	48 89 c7             	mov    %rax,%rdi
  40749c:	e8 07 fd ff ff       	callq  4071a8 <_ZNK11arm_compute6WindowixEm>
  4074a1:	48 89 c7             	mov    %rax,%rdi
  4074a4:	e8 7d fc ff ff       	callq  407126 <_ZNK11arm_compute6Window9Dimension4stepEv>
  4074a9:	48 98                	cltq   
  4074ab:	41 89 c4             	mov    %eax,%r12d
  4074ae:	8b 55 d8             	mov    -0x28(%rbp),%edx
  4074b1:	48 8b 45 e8          	mov    -0x18(%rbp),%rax
  4074b5:	48 89 d6             	mov    %rdx,%rsi
  4074b8:	48 89 c7             	mov    %rax,%rdi
  4074bb:	e8 6e 11 00 00       	callq  40862e <_ZNK11arm_compute10DimensionsImEixEm>
  4074c0:	48 8b 00             	mov    (%rax),%rax
  4074c3:	41 0f af c4          	imul   %r12d,%eax
  4074c7:	89 43 04             	mov    %eax,0x4(%rbx)
  4074ca:	8b 55 d8             	mov    -0x28(%rbp),%edx
  4074cd:	48 8b 45 e8          	mov    -0x18(%rbp),%rax
  4074d1:	48 89 d6             	mov    %rdx,%rsi
  4074d4:	48 89 c7             	mov    %rax,%rdi
  4074d7:	e8 52 11 00 00       	callq  40862e <_ZNK11arm_compute10DimensionsImEixEm>
  4074dc:	48 8b 18             	mov    (%rax),%rbx
  4074df:	8b 55 d8             	mov    -0x28(%rbp),%edx
  4074e2:	48 8b 45 b8          	mov    -0x48(%rbp),%rax
  4074e6:	48 89 d6             	mov    %rdx,%rsi
  4074e9:	48 89 c7             	mov    %rax,%rdi
  4074ec:	e8 b7 fc ff ff       	callq  4071a8 <_ZNK11arm_compute6WindowixEm>
  4074f1:	48 89 c7             	mov    %rax,%rdi
  4074f4:	e8 0b fc ff ff       	callq  407104 <_ZNK11arm_compute6Window9Dimension5startEv>
  4074f9:	48 98                	cltq   
  4074fb:	48 0f af d8          	imul   %rax,%rbx
  4074ff:	48 8b 45 c8          	mov    -0x38(%rbp),%rax
  407503:	48 83 c0 08          	add    $0x8,%rax
  407507:	48 89 c7             	mov    %rax,%rdi
  40750a:	e8 86 fe ff ff       	callq  407395 <_ZSt3getILm0EN11arm_compute8Iterator9DimensionELm6EERT0_RSt5arrayIS3_XT1_EE>
  40750f:	8b 10                	mov    (%rax),%edx
  407511:	89 d1                	mov    %edx,%ecx
  407513:	89 da                	mov    %ebx,%edx
  407515:	01 ca                	add    %ecx,%edx
  407517:	89 10                	mov    %edx,(%rax)
  407519:	83 45 d8 01          	addl   $0x1,-0x28(%rbp)
  40751d:	e9 2a ff ff ff       	jmpq   40744c <_ZN11arm_compute8IteratorC1EPKNS_7ITensorERKNS_6WindowE+0x98>
  407522:	c7 45 dc 01 00 00 00 	movl   $0x1,-0x24(%rbp)
  407529:	83 7d dc 05          	cmpl   $0x5,-0x24(%rbp)
  40752d:	77 33                	ja     407562 <_ZN11arm_compute8IteratorC1EPKNS_7ITensorERKNS_6WindowE+0x1ae>
  40752f:	8b 45 dc             	mov    -0x24(%rbp),%eax
  407532:	48 8b 55 c8          	mov    -0x38(%rbp),%rdx
  407536:	48 83 c2 08          	add    $0x8,%rdx
  40753a:	48 89 c6             	mov    %rax,%rsi
  40753d:	48 89 d7             	mov    %rdx,%rdi
  407540:	e8 65 1e 00 00       	callq  4093aa <_ZNSt5arrayIN11arm_compute8Iterator9DimensionELm6EEixEm>
  407545:	48 89 c3             	mov    %rax,%rbx
  407548:	48 8b 45 c8          	mov    -0x38(%rbp),%rax
  40754c:	48 83 c0 08          	add    $0x8,%rax
  407550:	48 89 c7             	mov    %rax,%rdi
  407553:	e8 3d fe ff ff       	callq  407395 <_ZSt3getILm0EN11arm_compute8Iterator9DimensionELm6EERT0_RSt5arrayIS3_XT1_EE>
  407558:	8b 00                	mov    (%rax),%eax
  40755a:	89 03                	mov    %eax,(%rbx)
  40755c:	83 45 dc 01          	addl   $0x1,-0x24(%rbp)
  407560:	eb c7                	jmp    407529 <_ZN11arm_compute8IteratorC1EPKNS_7ITensorERKNS_6WindowE+0x175>
  407562:	90                   	nop
  407563:	48 83 c4 40          	add    $0x40,%rsp
  407567:	5b                   	pop    %rbx
  407568:	41 5c                	pop    %r12
  40756a:	5d                   	pop    %rbp
  40756b:	c3                   	retq   

000000000040756c <_ZN11arm_compute8Iterator9incrementEm>:
  40756c:	55                   	push   %rbp
  40756d:	48 89 e5             	mov    %rsp,%rbp
  407570:	53                   	push   %rbx
  407571:	48 83 ec 28          	sub    $0x28,%rsp
  407575:	48 89 7d d8          	mov    %rdi,-0x28(%rbp)
  407579:	48 89 75 d0          	mov    %rsi,-0x30(%rbp)
  40757d:	48 8b 45 d8          	mov    -0x28(%rbp),%rax
  407581:	48 8d 50 08          	lea    0x8(%rax),%rdx
  407585:	48 8b 45 d0          	mov    -0x30(%rbp),%rax
  407589:	48 89 c6             	mov    %rax,%rsi
  40758c:	48 89 d7             	mov    %rdx,%rdi
  40758f:	e8 16 1e 00 00       	callq  4093aa <_ZNSt5arrayIN11arm_compute8Iterator9DimensionELm6EEixEm>
  407594:	8b 58 04             	mov    0x4(%rax),%ebx
  407597:	48 8b 45 d8          	mov    -0x28(%rbp),%rax
  40759b:	48 8d 50 08          	lea    0x8(%rax),%rdx
  40759f:	48 8b 45 d0          	mov    -0x30(%rbp),%rax
  4075a3:	48 89 c6             	mov    %rax,%rsi
  4075a6:	48 89 d7             	mov    %rdx,%rdi
  4075a9:	e8 fc 1d 00 00       	callq  4093aa <_ZNSt5arrayIN11arm_compute8Iterator9DimensionELm6EEixEm>
  4075ae:	8b 10                	mov    (%rax),%edx
  4075b0:	01 da                	add    %ebx,%edx
  4075b2:	89 10                	mov    %edx,(%rax)
  4075b4:	c7 45 ec 00 00 00 00 	movl   $0x0,-0x14(%rbp)
  4075bb:	8b 45 ec             	mov    -0x14(%rbp),%eax
  4075be:	48 3b 45 d0          	cmp    -0x30(%rbp),%rax
  4075c2:	73 3a                	jae    4075fe <_ZN11arm_compute8Iterator9incrementEm+0x92>
  4075c4:	8b 45 ec             	mov    -0x14(%rbp),%eax
  4075c7:	48 8b 55 d8          	mov    -0x28(%rbp),%rdx
  4075cb:	48 83 c2 08          	add    $0x8,%rdx
  4075cf:	48 89 c6             	mov    %rax,%rsi
  4075d2:	48 89 d7             	mov    %rdx,%rdi
  4075d5:	e8 d0 1d 00 00       	callq  4093aa <_ZNSt5arrayIN11arm_compute8Iterator9DimensionELm6EEixEm>
  4075da:	48 89 c3             	mov    %rax,%rbx
  4075dd:	48 8b 45 d8          	mov    -0x28(%rbp),%rax
  4075e1:	48 8d 50 08          	lea    0x8(%rax),%rdx
  4075e5:	48 8b 45 d0          	mov    -0x30(%rbp),%rax
  4075e9:	48 89 c6             	mov    %rax,%rsi
  4075ec:	48 89 d7             	mov    %rdx,%rdi
  4075ef:	e8 b6 1d 00 00       	callq  4093aa <_ZNSt5arrayIN11arm_compute8Iterator9DimensionELm6EEixEm>
  4075f4:	8b 00                	mov    (%rax),%eax
  4075f6:	89 03                	mov    %eax,(%rbx)
  4075f8:	83 45 ec 01          	addl   $0x1,-0x14(%rbp)
  4075fc:	eb bd                	jmp    4075bb <_ZN11arm_compute8Iterator9incrementEm+0x4f>
  4075fe:	90                   	nop
  4075ff:	48 83 c4 28          	add    $0x28,%rsp
  407603:	5b                   	pop    %rbx
  407604:	5d                   	pop    %rbp
  407605:	c3                   	retq   

0000000000407606 <_ZNKSt5arrayIN11arm_compute8Iterator9DimensionELm6EE2atEm>:
  407606:	55                   	push   %rbp
  407607:	48 89 e5             	mov    %rsp,%rbp
  40760a:	48 83 ec 10          	sub    $0x10,%rsp
  40760e:	48 89 7d f8          	mov    %rdi,-0x8(%rbp)
  407612:	48 89 75 f0          	mov    %rsi,-0x10(%rbp)
  407616:	48 83 7d f0 05       	cmpq   $0x5,-0x10(%rbp)
  40761b:	77 15                	ja     407632 <_ZNKSt5arrayIN11arm_compute8Iterator9DimensionELm6EE2atEm+0x2c>
  40761d:	48 8b 45 f8          	mov    -0x8(%rbp),%rax
  407621:	48 8b 55 f0          	mov    -0x10(%rbp),%rdx
  407625:	48 89 d6             	mov    %rdx,%rsi
  407628:	48 89 c7             	mov    %rax,%rdi
  40762b:	e8 44 fd ff ff       	callq  407374 <_ZNSt14__array_traitsIN11arm_compute8Iterator9DimensionELm6EE6_S_refERA6_KS2_m>
  407630:	eb 1b                	jmp    40764d <_ZNKSt5arrayIN11arm_compute8Iterator9DimensionELm6EE2atEm+0x47>
  407632:	48 8b 45 f0          	mov    -0x10(%rbp),%rax
  407636:	ba 06 00 00 00       	mov    $0x6,%edx
  40763b:	48 89 c6             	mov    %rax,%rsi
  40763e:	bf c8 10 41 00       	mov    $0x4110c8,%edi
  407643:	b8 00 00 00 00       	mov    $0x0,%eax
  407648:	e8 b3 ce ff ff       	callq  404500 <_ZSt24__throw_out_of_range_fmtPKcz@plt>
  40764d:	c9                   	leaveq 
  40764e:	c3                   	retq   
  40764f:	90                   	nop

0000000000407650 <_ZNK11arm_compute8Iterator3ptrEv>:
  407650:	55                   	push   %rbp
  407651:	48 89 e5             	mov    %rsp,%rbp
  407654:	53                   	push   %rbx
  407655:	48 83 ec 18          	sub    $0x18,%rsp
  407659:	48 89 7d e8          	mov    %rdi,-0x18(%rbp)
  40765d:	48 8b 45 e8          	mov    -0x18(%rbp),%rax
  407661:	48 8b 18             	mov    (%rax),%rbx
  407664:	48 8b 45 e8          	mov    -0x18(%rbp),%rax
  407668:	48 83 c0 08          	add    $0x8,%rax
  40766c:	be 00 00 00 00       	mov    $0x0,%esi
  407671:	48 89 c7             	mov    %rax,%rdi
  407674:	e8 8d ff ff ff       	callq  407606 <_ZNKSt5arrayIN11arm_compute8Iterator9DimensionELm6EE2atEm>
  407679:	8b 00                	mov    (%rax),%eax
  40767b:	48 98                	cltq   
  40767d:	48 01 d8             	add    %rbx,%rax
  407680:	48 83 c4 18          	add    $0x18,%rsp
  407684:	5b                   	pop    %rbx
  407685:	5d                   	pop    %rbp
  407686:	c3                   	retq   
  407687:	90                   	nop

0000000000407688 <_ZN11arm_compute7IKernelD1Ev>:
  407688:	55                   	push   %rbp
  407689:	48 89 e5             	mov    %rsp,%rbp
  40768c:	48 89 7d f8          	mov    %rdi,-0x8(%rbp)
  407690:	ba 10 a6 61 00       	mov    $0x61a610,%edx
  407695:	48 8b 45 f8          	mov    -0x8(%rbp),%rax
  407699:	48 89 10             	mov    %rdx,(%rax)
  40769c:	90                   	nop
  40769d:	5d                   	pop    %rbp
  40769e:	c3                   	retq   
  40769f:	90                   	nop

00000000004076a0 <_ZN11arm_compute7IKernelD0Ev>:
  4076a0:	55                   	push   %rbp
  4076a1:	48 89 e5             	mov    %rsp,%rbp
  4076a4:	48 83 ec 10          	sub    $0x10,%rsp
  4076a8:	48 89 7d f8          	mov    %rdi,-0x8(%rbp)
  4076ac:	48 8b 45 f8          	mov    -0x8(%rbp),%rax
  4076b0:	48 89 c7             	mov    %rax,%rdi
  4076b3:	e8 d0 ff ff ff       	callq  407688 <_ZN11arm_compute7IKernelD1Ev>
  4076b8:	48 8b 45 f8          	mov    -0x8(%rbp),%rax
  4076bc:	48 89 c7             	mov    %rax,%rdi
  4076bf:	e8 7c cc ff ff       	callq  404340 <_ZdlPv@plt>
  4076c4:	c9                   	leaveq 
  4076c5:	c3                   	retq   

00000000004076c6 <_ZN11arm_compute10PixelValueC1Ev>:
  4076c6:	55                   	push   %rbp
  4076c7:	48 89 e5             	mov    %rsp,%rbp
  4076ca:	48 89 7d f8          	mov    %rdi,-0x8(%rbp)
  4076ce:	48 8b 45 f8          	mov    -0x8(%rbp),%rax
  4076d2:	48 c7 00 00 00 00 00 	movq   $0x0,(%rax)
  4076d9:	90                   	nop
  4076da:	5d                   	pop    %rbp
  4076db:	c3                   	retq   

00000000004076dc <_ZN11arm_compute10PixelValueC1Ef>:
  4076dc:	55                   	push   %rbp
  4076dd:	48 89 e5             	mov    %rsp,%rbp
  4076e0:	48 83 ec 10          	sub    $0x10,%rsp
  4076e4:	48 89 7d f8          	mov    %rdi,-0x8(%rbp)
  4076e8:	f3 0f 11 45 f4       	movss  %xmm0,-0xc(%rbp)
  4076ed:	48 8b 45 f8          	mov    -0x8(%rbp),%rax
  4076f1:	48 89 c7             	mov    %rax,%rdi
  4076f4:	e8 cd ff ff ff       	callq  4076c6 <_ZN11arm_compute10PixelValueC1Ev>
  4076f9:	48 8b 45 f8          	mov    -0x8(%rbp),%rax
  4076fd:	f3 0f 10 45 f4       	movss  -0xc(%rbp),%xmm0
  407702:	f3 0f 11 00          	movss  %xmm0,(%rax)
  407706:	90                   	nop
  407707:	c9                   	leaveq 
  407708:	c3                   	retq   
  407709:	90                   	nop

000000000040770a <_ZN11arm_compute9IFunction7prepareEv>:
  40770a:	55                   	push   %rbp
  40770b:	48 89 e5             	mov    %rsp,%rbp
  40770e:	48 89 7d f8          	mov    %rdi,-0x8(%rbp)
  407712:	90                   	nop
  407713:	5d                   	pop    %rbp
  407714:	c3                   	retq   
  407715:	90                   	nop

0000000000407716 <_ZN11arm_compute11CLScheduler12default_initEPNS_8ICLTunerE>:
  407716:	55                   	push   %rbp
  407717:	48 89 e5             	mov    %rsp,%rbp
  40771a:	53                   	push   %rbx
  40771b:	48 83 ec 68          	sub    $0x68,%rsp
  40771f:	48 89 7d 98          	mov    %rdi,-0x68(%rbp)
  407723:	48 89 75 90          	mov    %rsi,-0x70(%rbp)
  407727:	64 48 8b 04 25 28 00 	mov    %fs:0x28,%rax
  40772e:	00 00 
  407730:	48 89 45 e8          	mov    %rax,-0x18(%rbp)
  407734:	31 c0                	xor    %eax,%eax
  407736:	48 8b 45 98          	mov    -0x68(%rbp),%rax
  40773a:	0f b6 40 0c          	movzbl 0xc(%rax),%eax
  40773e:	83 f0 01             	xor    $0x1,%eax
  407741:	84 c0                	test   %al,%al
  407743:	0f 84 0a 01 00 00    	je     407853 <_ZN11arm_compute11CLScheduler12default_initEPNS_8ICLTunerE+0x13d>
  407749:	48 8d 45 b0          	lea    -0x50(%rbp),%rax
  40774d:	be 00 00 00 00       	mov    $0x0,%esi
  407752:	48 89 c7             	mov    %rax,%rdi
  407755:	e8 31 e3 ff ff       	callq  405a8b <_ZN2cl6Device10getDefaultEPi>
  40775a:	48 8d 45 a8          	lea    -0x58(%rbp),%rax
  40775e:	be 00 00 00 00       	mov    $0x0,%esi
  407763:	48 89 c7             	mov    %rax,%rdi
  407766:	e8 57 f1 ff ff       	callq  4068c2 <_ZN2cl7Context10getDefaultEPi>
  40776b:	48 8d 45 a0          	lea    -0x60(%rbp),%rax
  40776f:	48 89 c7             	mov    %rax,%rdi
  407772:	e8 99 ce ff ff       	callq  404610 <_ZNSaIcEC1Ev@plt>
  407777:	48 8d 55 a0          	lea    -0x60(%rbp),%rdx
  40777b:	48 8d 45 c0          	lea    -0x40(%rbp),%rax
  40777f:	be 00 11 41 00       	mov    $0x411100,%esi
  407784:	48 89 c7             	mov    %rax,%rdi
  407787:	e8 24 cd ff ff       	callq  4044b0 <_ZNSt7__cxx1112basic_stringIcSt11char_traitsIcESaIcEEC1EPKcRKS3_@plt>
  40778c:	e8 4f cb ff ff       	callq  4042e0 <_ZN11arm_compute15CLKernelLibrary3getEv@plt>
  407791:	48 89 c7             	mov    %rax,%rdi
  407794:	48 8d 4d b0          	lea    -0x50(%rbp),%rcx
  407798:	48 8d 55 a8          	lea    -0x58(%rbp),%rdx
  40779c:	48 8d 45 c0          	lea    -0x40(%rbp),%rax
  4077a0:	48 89 c6             	mov    %rax,%rsi
  4077a3:	e8 0c f7 ff ff       	callq  406eb4 <_ZN11arm_compute15CLKernelLibrary4initENSt7__cxx1112basic_stringIcSt11char_traitsIcESaIcEEEN2cl7ContextENS7_6DeviceE>
  4077a8:	48 8d 45 c0          	lea    -0x40(%rbp),%rax
  4077ac:	48 89 c7             	mov    %rax,%rdi
  4077af:	e8 4c cb ff ff       	callq  404300 <_ZNSt7__cxx1112basic_stringIcSt11char_traitsIcESaIcEED1Ev@plt>
  4077b4:	48 8d 45 a0          	lea    -0x60(%rbp),%rax
  4077b8:	48 89 c7             	mov    %rax,%rdi
  4077bb:	e8 c0 cb ff ff       	callq  404380 <_ZNSaIcED1Ev@plt>
  4077c0:	48 8d 45 a8          	lea    -0x58(%rbp),%rax
  4077c4:	48 89 c7             	mov    %rax,%rdi
  4077c7:	e8 5c eb ff ff       	callq  406328 <_ZN2cl7ContextD1Ev>
  4077cc:	48 8d 45 b0          	lea    -0x50(%rbp),%rax
  4077d0:	48 89 c7             	mov    %rax,%rdi
  4077d3:	e8 98 e2 ff ff       	callq  405a70 <_ZN2cl6DeviceD1Ev>
  4077d8:	48 8d 45 b0          	lea    -0x50(%rbp),%rax
  4077dc:	be 00 00 00 00       	mov    $0x0,%esi
  4077e1:	48 89 c7             	mov    %rax,%rdi
  4077e4:	e8 a2 e2 ff ff       	callq  405a8b <_ZN2cl6Device10getDefaultEPi>
  4077e9:	48 8d 45 a8          	lea    -0x58(%rbp),%rax
  4077ed:	be 00 00 00 00       	mov    $0x0,%esi
  4077f2:	48 89 c7             	mov    %rax,%rdi
  4077f5:	e8 a2 f5 ff ff       	callq  406d9c <_ZN2cl12CommandQueue10getDefaultEPi>
  4077fa:	48 8d 45 a0          	lea    -0x60(%rbp),%rax
  4077fe:	be 00 00 00 00       	mov    $0x0,%esi
  407803:	48 89 c7             	mov    %rax,%rdi
  407806:	e8 b7 f0 ff ff       	callq  4068c2 <_ZN2cl7Context10getDefaultEPi>
  40780b:	48 8b 7d 90          	mov    -0x70(%rbp),%rdi
  40780f:	48 8d 4d b0          	lea    -0x50(%rbp),%rcx
  407813:	48 8d 55 a8          	lea    -0x58(%rbp),%rdx
  407817:	48 8d 75 a0          	lea    -0x60(%rbp),%rsi
  40781b:	48 8b 45 98          	mov    -0x68(%rbp),%rax
  40781f:	49 89 f8             	mov    %rdi,%r8
  407822:	48 89 c7             	mov    %rax,%rdi
  407825:	e8 da 00 00 00       	callq  407904 <_ZN11arm_compute11CLScheduler4initEN2cl7ContextENS1_12CommandQueueENS1_6DeviceEPNS_8ICLTunerE>
  40782a:	48 8d 45 a0          	lea    -0x60(%rbp),%rax
  40782e:	48 89 c7             	mov    %rax,%rdi
  407831:	e8 f2 ea ff ff       	callq  406328 <_ZN2cl7ContextD1Ev>
  407836:	48 8d 45 a8          	lea    -0x58(%rbp),%rax
  40783a:	48 89 c7             	mov    %rax,%rdi
  40783d:	e8 3e f3 ff ff       	callq  406b80 <_ZN2cl12CommandQueueD1Ev>
  407842:	48 8d 45 b0          	lea    -0x50(%rbp),%rax
  407846:	48 89 c7             	mov    %rax,%rdi
  407849:	e8 22 e2 ff ff       	callq  405a70 <_ZN2cl6DeviceD1Ev>
  40784e:	e9 95 00 00 00       	jmpq   4078e8 <_ZN11arm_compute11CLScheduler12default_initEPNS_8ICLTunerE+0x1d2>
  407853:	48 8b 45 98          	mov    -0x68(%rbp),%rax
  407857:	48 8b 55 90          	mov    -0x70(%rbp),%rdx
  40785b:	48 89 50 10          	mov    %rdx,0x10(%rax)
  40785f:	e9 84 00 00 00       	jmpq   4078e8 <_ZN11arm_compute11CLScheduler12default_initEPNS_8ICLTunerE+0x1d2>
  407864:	48 89 c3             	mov    %rax,%rbx
  407867:	48 8d 45 c0          	lea    -0x40(%rbp),%rax
  40786b:	48 89 c7             	mov    %rax,%rdi
  40786e:	e8 8d ca ff ff       	callq  404300 <_ZNSt7__cxx1112basic_stringIcSt11char_traitsIcESaIcEED1Ev@plt>
  407873:	eb 03                	jmp    407878 <_ZN11arm_compute11CLScheduler12default_initEPNS_8ICLTunerE+0x162>
  407875:	48 89 c3             	mov    %rax,%rbx
  407878:	48 8d 45 a0          	lea    -0x60(%rbp),%rax
  40787c:	48 89 c7             	mov    %rax,%rdi
  40787f:	e8 fc ca ff ff       	callq  404380 <_ZNSaIcED1Ev@plt>
  407884:	48 8d 45 a8          	lea    -0x58(%rbp),%rax
  407888:	48 89 c7             	mov    %rax,%rdi
  40788b:	e8 98 ea ff ff       	callq  406328 <_ZN2cl7ContextD1Ev>
  407890:	eb 03                	jmp    407895 <_ZN11arm_compute11CLScheduler12default_initEPNS_8ICLTunerE+0x17f>
  407892:	48 89 c3             	mov    %rax,%rbx
  407895:	48 8d 45 b0          	lea    -0x50(%rbp),%rax
  407899:	48 89 c7             	mov    %rax,%rdi
  40789c:	e8 cf e1 ff ff       	callq  405a70 <_ZN2cl6DeviceD1Ev>
  4078a1:	48 89 d8             	mov    %rbx,%rax
  4078a4:	48 89 c7             	mov    %rax,%rdi
  4078a7:	e8 54 cd ff ff       	callq  404600 <_Unwind_Resume@plt>
  4078ac:	48 89 c3             	mov    %rax,%rbx
  4078af:	48 8d 45 a0          	lea    -0x60(%rbp),%rax
  4078b3:	48 89 c7             	mov    %rax,%rdi
  4078b6:	e8 6d ea ff ff       	callq  406328 <_ZN2cl7ContextD1Ev>
  4078bb:	eb 03                	jmp    4078c0 <_ZN11arm_compute11CLScheduler12default_initEPNS_8ICLTunerE+0x1aa>
  4078bd:	48 89 c3             	mov    %rax,%rbx
  4078c0:	48 8d 45 a8          	lea    -0x58(%rbp),%rax
  4078c4:	48 89 c7             	mov    %rax,%rdi
  4078c7:	e8 b4 f2 ff ff       	callq  406b80 <_ZN2cl12CommandQueueD1Ev>
  4078cc:	eb 03                	jmp    4078d1 <_ZN11arm_compute11CLScheduler12default_initEPNS_8ICLTunerE+0x1bb>
  4078ce:	48 89 c3             	mov    %rax,%rbx
  4078d1:	48 8d 45 b0          	lea    -0x50(%rbp),%rax
  4078d5:	48 89 c7             	mov    %rax,%rdi
  4078d8:	e8 93 e1 ff ff       	callq  405a70 <_ZN2cl6DeviceD1Ev>
  4078dd:	48 89 d8             	mov    %rbx,%rax
  4078e0:	48 89 c7             	mov    %rax,%rdi
  4078e3:	e8 18 cd ff ff       	callq  404600 <_Unwind_Resume@plt>
  4078e8:	48 8b 45 e8          	mov    -0x18(%rbp),%rax
  4078ec:	64 48 33 04 25 28 00 	xor    %fs:0x28,%rax
  4078f3:	00 00 
  4078f5:	74 05                	je     4078fc <_ZN11arm_compute11CLScheduler12default_initEPNS_8ICLTunerE+0x1e6>
  4078f7:	e8 a4 ca ff ff       	callq  4043a0 <__stack_chk_fail@plt>
  4078fc:	48 83 c4 68          	add    $0x68,%rsp
  407900:	5b                   	pop    %rbx
  407901:	5d                   	pop    %rbp
  407902:	c3                   	retq   
  407903:	90                   	nop

0000000000407904 <_ZN11arm_compute11CLScheduler4initEN2cl7ContextENS1_12CommandQueueENS1_6DeviceEPNS_8ICLTunerE>:
  407904:	55                   	push   %rbp
  407905:	48 89 e5             	mov    %rsp,%rbp
  407908:	53                   	push   %rbx
  407909:	48 83 ec 48          	sub    $0x48,%rsp
  40790d:	48 89 7d d8          	mov    %rdi,-0x28(%rbp)
  407911:	48 89 75 d0          	mov    %rsi,-0x30(%rbp)
  407915:	48 89 55 c8          	mov    %rdx,-0x38(%rbp)
  407919:	48 89 4d c0          	mov    %rcx,-0x40(%rbp)
  40791d:	4c 89 45 b8          	mov    %r8,-0x48(%rbp)
  407921:	64 48 8b 04 25 28 00 	mov    %fs:0x28,%rax
  407928:	00 00 
  40792a:	48 89 45 e8          	mov    %rax,-0x18(%rbp)
  40792e:	31 c0                	xor    %eax,%eax
  407930:	48 8b 55 d0          	mov    -0x30(%rbp),%rdx
  407934:	48 8d 45 e0          	lea    -0x20(%rbp),%rax
  407938:	48 89 d6             	mov    %rdx,%rsi
  40793b:	48 89 c7             	mov    %rax,%rdi
  40793e:	e8 ed ee ff ff       	callq  406830 <_ZN2cl7ContextC1ERKS0_>
  407943:	48 8d 55 e0          	lea    -0x20(%rbp),%rdx
  407947:	48 8b 45 d8          	mov    -0x28(%rbp),%rax
  40794b:	48 89 d6             	mov    %rdx,%rsi
  40794e:	48 89 c7             	mov    %rax,%rdi
  407951:	e8 8c 00 00 00       	callq  4079e2 <_ZN11arm_compute11CLScheduler11set_contextEN2cl7ContextE>
  407956:	48 8d 45 e0          	lea    -0x20(%rbp),%rax
  40795a:	48 89 c7             	mov    %rax,%rdi
  40795d:	e8 c6 e9 ff ff       	callq  406328 <_ZN2cl7ContextD1Ev>
  407962:	48 8b 45 c8          	mov    -0x38(%rbp),%rax
  407966:	48 89 c7             	mov    %rax,%rdi
  407969:	e8 cc f4 ff ff       	callq  406e3a <_ZSt4moveIRN2cl12CommandQueueEEONSt16remove_referenceIT_E4typeEOS4_>
  40796e:	48 89 c2             	mov    %rax,%rdx
  407971:	48 8b 45 d8          	mov    -0x28(%rbp),%rax
  407975:	48 89 d6             	mov    %rdx,%rsi
  407978:	48 89 c7             	mov    %rax,%rdi
  40797b:	e8 c8 f4 ff ff       	callq  406e48 <_ZN2cl12CommandQueueaSEOS0_>
  407980:	48 8b 45 c0          	mov    -0x40(%rbp),%rax
  407984:	48 89 c7             	mov    %rax,%rdi
  407987:	e8 e4 ca ff ff       	callq  404470 <_ZN11arm_compute22get_target_from_deviceERN2cl6DeviceE@plt>
  40798c:	89 c2                	mov    %eax,%edx
  40798e:	48 8b 45 d8          	mov    -0x28(%rbp),%rax
  407992:	89 50 08             	mov    %edx,0x8(%rax)
  407995:	48 8b 45 d8          	mov    -0x28(%rbp),%rax
  407999:	c6 40 0c 01          	movb   $0x1,0xc(%rax)
  40799d:	48 8b 45 d8          	mov    -0x28(%rbp),%rax
  4079a1:	48 8b 55 b8          	mov    -0x48(%rbp),%rdx
  4079a5:	48 89 50 10          	mov    %rdx,0x10(%rax)
  4079a9:	90                   	nop
  4079aa:	48 8b 45 e8          	mov    -0x18(%rbp),%rax
  4079ae:	64 48 33 04 25 28 00 	xor    %fs:0x28,%rax
  4079b5:	00 00 
  4079b7:	74 21                	je     4079da <_ZN11arm_compute11CLScheduler4initEN2cl7ContextENS1_12CommandQueueENS1_6DeviceEPNS_8ICLTunerE+0xd6>
  4079b9:	eb 1a                	jmp    4079d5 <_ZN11arm_compute11CLScheduler4initEN2cl7ContextENS1_12CommandQueueENS1_6DeviceEPNS_8ICLTunerE+0xd1>
  4079bb:	48 89 c3             	mov    %rax,%rbx
  4079be:	48 8d 45 e0          	lea    -0x20(%rbp),%rax
  4079c2:	48 89 c7             	mov    %rax,%rdi
  4079c5:	e8 5e e9 ff ff       	callq  406328 <_ZN2cl7ContextD1Ev>
  4079ca:	48 89 d8             	mov    %rbx,%rax
  4079cd:	48 89 c7             	mov    %rax,%rdi
  4079d0:	e8 2b cc ff ff       	callq  404600 <_Unwind_Resume@plt>
  4079d5:	e8 c6 c9 ff ff       	callq  4043a0 <__stack_chk_fail@plt>
  4079da:	48 83 c4 48          	add    $0x48,%rsp
  4079de:	5b                   	pop    %rbx
  4079df:	5d                   	pop    %rbp
  4079e0:	c3                   	retq   
  4079e1:	90                   	nop

00000000004079e2 <_ZN11arm_compute11CLScheduler11set_contextEN2cl7ContextE>:
  4079e2:	55                   	push   %rbp
  4079e3:	48 89 e5             	mov    %rsp,%rbp
  4079e6:	53                   	push   %rbx
  4079e7:	48 83 ec 28          	sub    $0x28,%rsp
  4079eb:	48 89 7d d8          	mov    %rdi,-0x28(%rbp)
  4079ef:	48 89 75 d0          	mov    %rsi,-0x30(%rbp)
  4079f3:	64 48 8b 04 25 28 00 	mov    %fs:0x28,%rax
  4079fa:	00 00 
  4079fc:	48 89 45 e8          	mov    %rax,-0x18(%rbp)
  407a00:	31 c0                	xor    %eax,%eax
  407a02:	48 8b 55 d0          	mov    -0x30(%rbp),%rdx
  407a06:	48 8d 45 e0          	lea    -0x20(%rbp),%rax
  407a0a:	48 89 d6             	mov    %rdx,%rsi
  407a0d:	48 89 c7             	mov    %rax,%rdi
  407a10:	e8 1b ee ff ff       	callq  406830 <_ZN2cl7ContextC1ERKS0_>
  407a15:	e8 c6 c8 ff ff       	callq  4042e0 <_ZN11arm_compute15CLKernelLibrary3getEv@plt>
  407a1a:	48 89 c2             	mov    %rax,%rdx
  407a1d:	48 8d 45 e0          	lea    -0x20(%rbp),%rax
  407a21:	48 89 c6             	mov    %rax,%rsi
  407a24:	48 89 d7             	mov    %rdx,%rdi
  407a27:	e8 30 f5 ff ff       	callq  406f5c <_ZN11arm_compute15CLKernelLibrary11set_contextEN2cl7ContextE>
  407a2c:	48 8d 45 e0          	lea    -0x20(%rbp),%rax
  407a30:	48 89 c7             	mov    %rax,%rdi
  407a33:	e8 f0 e8 ff ff       	callq  406328 <_ZN2cl7ContextD1Ev>
  407a38:	90                   	nop
  407a39:	48 8b 45 e8          	mov    -0x18(%rbp),%rax
  407a3d:	64 48 33 04 25 28 00 	xor    %fs:0x28,%rax
  407a44:	00 00 
  407a46:	74 21                	je     407a69 <_ZN11arm_compute11CLScheduler11set_contextEN2cl7ContextE+0x87>
  407a48:	eb 1a                	jmp    407a64 <_ZN11arm_compute11CLScheduler11set_contextEN2cl7ContextE+0x82>
  407a4a:	48 89 c3             	mov    %rax,%rbx
  407a4d:	48 8d 45 e0          	lea    -0x20(%rbp),%rax
  407a51:	48 89 c7             	mov    %rax,%rdi
  407a54:	e8 cf e8 ff ff       	callq  406328 <_ZN2cl7ContextD1Ev>
  407a59:	48 89 d8             	mov    %rbx,%rax
  407a5c:	48 89 c7             	mov    %rax,%rdi
  407a5f:	e8 9c cb ff ff       	callq  404600 <_Unwind_Resume@plt>
  407a64:	e8 37 c9 ff ff       	callq  4043a0 <__stack_chk_fail@plt>
  407a69:	48 83 c4 28          	add    $0x28,%rsp
  407a6d:	5b                   	pop    %rbx
  407a6e:	5d                   	pop    %rbp
  407a6f:	c3                   	retq   

0000000000407a70 <_ZN11arm_compute11CLScheduler4syncEv>:
  407a70:	55                   	push   %rbp
  407a71:	48 89 e5             	mov    %rsp,%rbp
  407a74:	48 83 ec 10          	sub    $0x10,%rsp
  407a78:	48 89 7d f8          	mov    %rdi,-0x8(%rbp)
  407a7c:	48 8b 45 f8          	mov    -0x8(%rbp),%rax
  407a80:	48 89 c7             	mov    %rax,%rdi
  407a83:	e8 f4 f3 ff ff       	callq  406e7c <_ZNK2cl12CommandQueue6finishEv>
  407a88:	90                   	nop
  407a89:	c9                   	leaveq 
  407a8a:	c3                   	retq   
  407a8b:	90                   	nop

0000000000407a8c <_ZNK11arm_compute10TensorInfo9dimensionEm>:
  407a8c:	55                   	push   %rbp
  407a8d:	48 89 e5             	mov    %rsp,%rbp
  407a90:	48 83 ec 10          	sub    $0x10,%rsp
  407a94:	48 89 7d f8          	mov    %rdi,-0x8(%rbp)
  407a98:	48 89 75 f0          	mov    %rsi,-0x10(%rbp)
  407a9c:	48 8b 45 f8          	mov    -0x8(%rbp),%rax
  407aa0:	48 8d 50 60          	lea    0x60(%rax),%rdx
  407aa4:	48 8b 45 f0          	mov    -0x10(%rbp),%rax
  407aa8:	48 89 c6             	mov    %rax,%rsi
  407aab:	48 89 d7             	mov    %rdx,%rdi
  407aae:	e8 7b 0b 00 00       	callq  40862e <_ZNK11arm_compute10DimensionsImEixEm>
  407ab3:	48 8b 00             	mov    (%rax),%rax
  407ab6:	c9                   	leaveq 
  407ab7:	c3                   	retq   

0000000000407ab8 <_ZNK11arm_compute10TensorInfo14num_dimensionsEv>:
  407ab8:	55                   	push   %rbp
  407ab9:	48 89 e5             	mov    %rsp,%rbp
  407abc:	48 83 ec 10          	sub    $0x10,%rsp
  407ac0:	48 89 7d f8          	mov    %rdi,-0x8(%rbp)
  407ac4:	48 8b 45 f8          	mov    -0x8(%rbp),%rax
  407ac8:	48 83 c0 60          	add    $0x60,%rax
  407acc:	48 89 c7             	mov    %rax,%rdi
  407acf:	e8 96 09 00 00       	callq  40846a <_ZNK11arm_compute10DimensionsImE14num_dimensionsEv>
  407ad4:	89 c0                	mov    %eax,%eax
  407ad6:	c9                   	leaveq 
  407ad7:	c3                   	retq   

0000000000407ad8 <_ZNK2CK5Shape10data_countEv>:
  407ad8:	55                   	push   %rbp
  407ad9:	48 89 e5             	mov    %rsp,%rbp
  407adc:	48 89 7d f8          	mov    %rdi,-0x8(%rbp)
  407ae0:	48 8b 45 f8          	mov    -0x8(%rbp),%rax
  407ae4:	8b 10                	mov    (%rax),%edx
  407ae6:	48 8b 45 f8          	mov    -0x8(%rbp),%rax
  407aea:	8b 40 04             	mov    0x4(%rax),%eax
  407aed:	0f af d0             	imul   %eax,%edx
  407af0:	48 8b 45 f8          	mov    -0x8(%rbp),%rax
  407af4:	8b 40 08             	mov    0x8(%rax),%eax
  407af7:	0f af d0             	imul   %eax,%edx
  407afa:	48 8b 45 f8          	mov    -0x8(%rbp),%rax
  407afe:	8b 40 0c             	mov    0xc(%rax),%eax
  407b01:	0f af c2             	imul   %edx,%eax
  407b04:	5d                   	pop    %rbp
  407b05:	c3                   	retq   

0000000000407b06 <_ZNK2CK5Shape14get_flat_indexEiiii>:
  407b06:	55                   	push   %rbp
  407b07:	48 89 e5             	mov    %rsp,%rbp
  407b0a:	48 83 ec 20          	sub    $0x20,%rsp
  407b0e:	48 89 7d f8          	mov    %rdi,-0x8(%rbp)
  407b12:	89 75 f4             	mov    %esi,-0xc(%rbp)
  407b15:	89 55 f0             	mov    %edx,-0x10(%rbp)
  407b18:	89 4d ec             	mov    %ecx,-0x14(%rbp)
  407b1b:	44 89 45 e8          	mov    %r8d,-0x18(%rbp)
  407b1f:	8b 7d e8             	mov    -0x18(%rbp),%edi
  407b22:	8b 4d ec             	mov    -0x14(%rbp),%ecx
  407b25:	8b 55 f0             	mov    -0x10(%rbp),%edx
  407b28:	8b 75 f4             	mov    -0xc(%rbp),%esi
  407b2b:	48 8b 45 f8          	mov    -0x8(%rbp),%rax
  407b2f:	41 89 f8             	mov    %edi,%r8d
  407b32:	48 89 c7             	mov    %rax,%rdi
  407b35:	e8 02 00 00 00       	callq  407b3c <_ZNK2CK5Shape19get_flat_index_nchwEiiii>
  407b3a:	c9                   	leaveq 
  407b3b:	c3                   	retq   

0000000000407b3c <_ZNK2CK5Shape19get_flat_index_nchwEiiii>:
  407b3c:	55                   	push   %rbp
  407b3d:	48 89 e5             	mov    %rsp,%rbp
  407b40:	48 89 7d f8          	mov    %rdi,-0x8(%rbp)
  407b44:	89 75 f4             	mov    %esi,-0xc(%rbp)
  407b47:	89 55 f0             	mov    %edx,-0x10(%rbp)
  407b4a:	89 4d ec             	mov    %ecx,-0x14(%rbp)
  407b4d:	44 89 45 e8          	mov    %r8d,-0x18(%rbp)
  407b51:	48 8b 45 f8          	mov    -0x8(%rbp),%rax
  407b55:	8b 40 04             	mov    0x4(%rax),%eax
  407b58:	0f af 45 f4          	imul   -0xc(%rbp),%eax
  407b5c:	89 c2                	mov    %eax,%edx
  407b5e:	8b 45 f0             	mov    -0x10(%rbp),%eax
  407b61:	01 c2                	add    %eax,%edx
  407b63:	48 8b 45 f8          	mov    -0x8(%rbp),%rax
  407b67:	8b 40 08             	mov    0x8(%rax),%eax
  407b6a:	0f af d0             	imul   %eax,%edx
  407b6d:	8b 45 ec             	mov    -0x14(%rbp),%eax
  407b70:	01 c2                	add    %eax,%edx
  407b72:	48 8b 45 f8          	mov    -0x8(%rbp),%rax
  407b76:	8b 40 0c             	mov    0xc(%rax),%eax
  407b79:	0f af d0             	imul   %eax,%edx
  407b7c:	8b 45 e8             	mov    -0x18(%rbp),%eax
  407b7f:	01 d0                	add    %edx,%eax
  407b81:	5d                   	pop    %rbp
  407b82:	c3                   	retq   

0000000000407b83 <_ZN2CK8getenv_iEPKci>:
  407b83:	55                   	push   %rbp
  407b84:	48 89 e5             	mov    %rsp,%rbp
  407b87:	48 83 ec 10          	sub    $0x10,%rsp
  407b8b:	48 89 7d f8          	mov    %rdi,-0x8(%rbp)
  407b8f:	89 75 f4             	mov    %esi,-0xc(%rbp)
  407b92:	48 8b 45 f8          	mov    -0x8(%rbp),%rax
  407b96:	48 89 c7             	mov    %rax,%rdi
  407b99:	e8 52 c8 ff ff       	callq  4043f0 <getenv@plt>
  407b9e:	48 85 c0             	test   %rax,%rax
  407ba1:	74 16                	je     407bb9 <_ZN2CK8getenv_iEPKci+0x36>
  407ba3:	48 8b 45 f8          	mov    -0x8(%rbp),%rax
  407ba7:	48 89 c7             	mov    %rax,%rdi
  407baa:	e8 41 c8 ff ff       	callq  4043f0 <getenv@plt>
  407baf:	48 89 c7             	mov    %rax,%rdi
  407bb2:	e8 99 c9 ff ff       	callq  404550 <atoi@plt>
  407bb7:	eb 03                	jmp    407bbc <_ZN2CK8getenv_iEPKci+0x39>
  407bb9:	8b 45 f4             	mov    -0xc(%rbp),%eax
  407bbc:	c9                   	leaveq 
  407bbd:	c3                   	retq   

0000000000407bbe <_ZN2CK13store_value_iEiPKci>:
  407bbe:	55                   	push   %rbp
  407bbf:	48 89 e5             	mov    %rsp,%rbp
  407bc2:	48 83 ec 20          	sub    $0x20,%rsp
  407bc6:	89 7d ec             	mov    %edi,-0x14(%rbp)
