
conv:     file format elf64-x86-64


Disassembly of section .init:

0000000000404cd8 <_init>:
  404cd8:	48 83 ec 08          	sub    $0x8,%rsp
  404cdc:	48 8b 05 15 e3 20 00 	mov    0x20e315(%rip),%rax        # 612ff8 <_DYNAMIC+0x220>
  404ce3:	48 85 c0             	test   %rax,%rax
  404ce6:	74 05                	je     404ced <_init+0x15>
  404ce8:	e8 03 06 00 00       	callq  4052f0 <_ZNSaIcED1Ev@plt+0x10>
  404ced:	48 83 c4 08          	add    $0x8,%rsp
  404cf1:	c3                   	retq   

Disassembly of section .plt:

0000000000404d00 <xopenme_init@plt-0x10>:
  404d00:	ff 35 02 e3 20 00    	pushq  0x20e302(%rip)        # 613008 <_GLOBAL_OFFSET_TABLE_+0x8>
  404d06:	ff 25 04 e3 20 00    	jmpq   *0x20e304(%rip)        # 613010 <_GLOBAL_OFFSET_TABLE_+0x10>
  404d0c:	0f 1f 40 00          	nopl   0x0(%rax)

0000000000404d10 <xopenme_init@plt>:
  404d10:	ff 25 02 e3 20 00    	jmpq   *0x20e302(%rip)        # 613018 <_GLOBAL_OFFSET_TABLE_+0x18>
  404d16:	68 00 00 00 00       	pushq  $0x0
  404d1b:	e9 e0 ff ff ff       	jmpq   404d00 <_init+0x28>

0000000000404d20 <xopenme_add_var_f@plt>:
  404d20:	ff 25 fa e2 20 00    	jmpq   *0x20e2fa(%rip)        # 613020 <_GLOBAL_OFFSET_TABLE_+0x20>
  404d26:	68 01 00 00 00       	pushq  $0x1
  404d2b:	e9 d0 ff ff ff       	jmpq   404d00 <_init+0x28>

0000000000404d30 <__cxa_begin_catch@plt>:
  404d30:	ff 25 f2 e2 20 00    	jmpq   *0x20e2f2(%rip)        # 613028 <_GLOBAL_OFFSET_TABLE_+0x28>
  404d36:	68 02 00 00 00       	pushq  $0x2
  404d3b:	e9 c0 ff ff ff       	jmpq   404d00 <_init+0x28>

0000000000404d40 <_ZN5caffe14LayerParameterC1Ev@plt>:
  404d40:	ff 25 ea e2 20 00    	jmpq   *0x20e2ea(%rip)        # 613030 <_GLOBAL_OFFSET_TABLE_+0x30>
  404d46:	68 03 00 00 00       	pushq  $0x3
  404d4b:	e9 b0 ff ff ff       	jmpq   404d00 <_init+0x28>

0000000000404d50 <printf@plt>:
  404d50:	ff 25 e2 e2 20 00    	jmpq   *0x20e2e2(%rip)        # 613038 <_GLOBAL_OFFSET_TABLE_+0x38>
  404d56:	68 04 00 00 00       	pushq  $0x4
  404d5b:	e9 a0 ff ff ff       	jmpq   404d00 <_init+0x28>

0000000000404d60 <_ZN6google4base21CheckOpMessageBuilder7ForVar2Ev@plt>:
  404d60:	ff 25 da e2 20 00    	jmpq   *0x20e2da(%rip)        # 613040 <_GLOBAL_OFFSET_TABLE_+0x40>
  404d66:	68 05 00 00 00       	pushq  $0x5
  404d6b:	e9 90 ff ff ff       	jmpq   404d00 <_init+0x28>

0000000000404d70 <memcpy@plt>:
  404d70:	ff 25 d2 e2 20 00    	jmpq   *0x20e2d2(%rip)        # 613048 <_GLOBAL_OFFSET_TABLE_+0x48>
  404d76:	68 06 00 00 00       	pushq  $0x6
  404d7b:	e9 80 ff ff ff       	jmpq   404d00 <_init+0x28>

0000000000404d80 <_ZSt17__throw_bad_allocv@plt>:
  404d80:	ff 25 ca e2 20 00    	jmpq   *0x20e2ca(%rip)        # 613050 <_GLOBAL_OFFSET_TABLE_+0x50>
  404d86:	68 07 00 00 00       	pushq  $0x7
  404d8b:	e9 70 ff ff ff       	jmpq   404d00 <_init+0x28>

0000000000404d90 <_ZN6google4base21CheckOpMessageBuilderC1EPKc@plt>:
  404d90:	ff 25 c2 e2 20 00    	jmpq   *0x20e2c2(%rip)        # 613058 <_GLOBAL_OFFSET_TABLE_+0x58>
  404d96:	68 08 00 00 00       	pushq  $0x8
  404d9b:	e9 60 ff ff ff       	jmpq   404d00 <_init+0x28>

0000000000404da0 <_ZNSt7__cxx1112basic_stringIcSt11char_traitsIcESaIcEEC1ERKS4_@plt>:
  404da0:	ff 25 ba e2 20 00    	jmpq   *0x20e2ba(%rip)        # 613060 <_GLOBAL_OFFSET_TABLE_+0x60>
  404da6:	68 09 00 00 00       	pushq  $0x9
  404dab:	e9 50 ff ff ff       	jmpq   404d00 <_init+0x28>

0000000000404db0 <_Znwm@plt>:
  404db0:	ff 25 b2 e2 20 00    	jmpq   *0x20e2b2(%rip)        # 613068 <_GLOBAL_OFFSET_TABLE_+0x68>
  404db6:	68 0a 00 00 00       	pushq  $0xa
  404dbb:	e9 40 ff ff ff       	jmpq   404d00 <_init+0x28>

0000000000404dc0 <memmove@plt>:
  404dc0:	ff 25 aa e2 20 00    	jmpq   *0x20e2aa(%rip)        # 613070 <_GLOBAL_OFFSET_TABLE_+0x70>
  404dc6:	68 0b 00 00 00       	pushq  $0xb
  404dcb:	e9 30 ff ff ff       	jmpq   404d00 <_init+0x28>

0000000000404dd0 <__assert_fail@plt>:
  404dd0:	ff 25 a2 e2 20 00    	jmpq   *0x20e2a2(%rip)        # 613078 <_GLOBAL_OFFSET_TABLE_+0x78>
  404dd6:	68 0c 00 00 00       	pushq  $0xc
  404ddb:	e9 20 ff ff ff       	jmpq   404d00 <_init+0x28>

0000000000404de0 <_ZN5caffe14LayerParameter8CopyFromERKS0_@plt>:
  404de0:	ff 25 9a e2 20 00    	jmpq   *0x20e29a(%rip)        # 613080 <_GLOBAL_OFFSET_TABLE_+0x80>
  404de6:	68 0d 00 00 00       	pushq  $0xd
  404deb:	e9 10 ff ff ff       	jmpq   404d00 <_init+0x28>

0000000000404df0 <_ZN5caffe20ConvolutionParameterC1Ev@plt>:
  404df0:	ff 25 92 e2 20 00    	jmpq   *0x20e292(%rip)        # 613088 <_GLOBAL_OFFSET_TABLE_+0x88>
  404df6:	68 0e 00 00 00       	pushq  $0xe
  404dfb:	e9 00 ff ff ff       	jmpq   404d00 <_init+0x28>

0000000000404e00 <_ZN5caffe4BlobIfE16mutable_cpu_dataEv@plt>:
  404e00:	ff 25 8a e2 20 00    	jmpq   *0x20e28a(%rip)        # 613090 <_GLOBAL_OFFSET_TABLE_+0x90>
  404e06:	68 0f 00 00 00       	pushq  $0xf
  404e0b:	e9 f0 fe ff ff       	jmpq   404d00 <_init+0x28>

0000000000404e10 <_ZN5caffe4BlobIfE16mutable_cpu_diffEv@plt>:
  404e10:	ff 25 82 e2 20 00    	jmpq   *0x20e282(%rip)        # 613098 <_GLOBAL_OFFSET_TABLE_+0x98>
  404e16:	68 10 00 00 00       	pushq  $0x10
  404e1b:	e9 e0 fe ff ff       	jmpq   404d00 <_init+0x28>

0000000000404e20 <__stack_chk_fail@plt>:
  404e20:	ff 25 7a e2 20 00    	jmpq   *0x20e27a(%rip)        # 6130a0 <_GLOBAL_OFFSET_TABLE_+0xa0>
  404e26:	68 11 00 00 00       	pushq  $0x11
  404e2b:	e9 d0 fe ff ff       	jmpq   404d00 <_init+0x28>

0000000000404e30 <_ZN5caffe20BaseConvolutionLayerIfE10LayerSetUpERKSt6vectorIPNS_4BlobIfEESaIS5_EES9_@plt>:
  404e30:	ff 25 72 e2 20 00    	jmpq   *0x20e272(%rip)        # 6130a8 <_GLOBAL_OFFSET_TABLE_+0xa8>
  404e36:	68 12 00 00 00       	pushq  $0x12
  404e3b:	e9 c0 fe ff ff       	jmpq   404d00 <_init+0x28>

0000000000404e40 <_ZStlsIcSt11char_traitsIcESaIcEERSt13basic_ostreamIT_T0_ES7_RKNSt7__cxx1112basic_stringIS4_S5_T1_EE@plt>:
  404e40:	ff 25 6a e2 20 00    	jmpq   *0x20e26a(%rip)        # 6130b0 <_GLOBAL_OFFSET_TABLE_+0xb0>
  404e46:	68 13 00 00 00       	pushq  $0x13
  404e4b:	e9 b0 fe ff ff       	jmpq   404d00 <_init+0x28>

0000000000404e50 <_ZN6google4base21CheckOpMessageBuilderD1Ev@plt>:
  404e50:	ff 25 62 e2 20 00    	jmpq   *0x20e262(%rip)        # 6130b8 <_GLOBAL_OFFSET_TABLE_+0xb8>
  404e56:	68 14 00 00 00       	pushq  $0x14
  404e5b:	e9 a0 fe ff ff       	jmpq   404d00 <_init+0x28>

0000000000404e60 <_ZNSolsEi@plt>:
  404e60:	ff 25 5a e2 20 00    	jmpq   *0x20e25a(%rip)        # 6130c0 <_GLOBAL_OFFSET_TABLE_+0xc0>
  404e66:	68 15 00 00 00       	pushq  $0x15
  404e6b:	e9 90 fe ff ff       	jmpq   404d00 <_init+0x28>

0000000000404e70 <_ZN6google8protobuf5Arena11AddListNodeEPvPFvS2_E@plt>:
  404e70:	ff 25 52 e2 20 00    	jmpq   *0x20e252(%rip)        # 6130c8 <_GLOBAL_OFFSET_TABLE_+0xc8>
  404e76:	68 16 00 00 00       	pushq  $0x16
  404e7b:	e9 80 fe ff ff       	jmpq   404d00 <_init+0x28>

0000000000404e80 <atoi@plt>:
  404e80:	ff 25 4a e2 20 00    	jmpq   *0x20e24a(%rip)        # 6130d0 <_GLOBAL_OFFSET_TABLE_+0xd0>
  404e86:	68 17 00 00 00       	pushq  $0x17
  404e8b:	e9 70 fe ff ff       	jmpq   404d00 <_init+0x28>

0000000000404e90 <_ZNSt7__cxx1112basic_stringIcSt11char_traitsIcESaIcEEC1Ev@plt>:
  404e90:	ff 25 42 e2 20 00    	jmpq   *0x20e242(%rip)        # 6130d8 <_GLOBAL_OFFSET_TABLE_+0xd8>
  404e96:	68 18 00 00 00       	pushq  $0x18
  404e9b:	e9 60 fe ff ff       	jmpq   404d00 <_init+0x28>

0000000000404ea0 <_ZdaPv@plt>:
  404ea0:	ff 25 3a e2 20 00    	jmpq   *0x20e23a(%rip)        # 6130e0 <_GLOBAL_OFFSET_TABLE_+0xe0>
  404ea6:	68 19 00 00 00       	pushq  $0x19
  404eab:	e9 50 fe ff ff       	jmpq   404d00 <_init+0x28>

0000000000404eb0 <strlen@plt>:
  404eb0:	ff 25 32 e2 20 00    	jmpq   *0x20e232(%rip)        # 6130e8 <_GLOBAL_OFFSET_TABLE_+0xe8>
  404eb6:	68 1a 00 00 00       	pushq  $0x1a
  404ebb:	e9 40 fe ff ff       	jmpq   404d00 <_init+0x28>

0000000000404ec0 <_ZN5caffe16ConvolutionLayerIfE12Backward_gpuERKSt6vectorIPNS_4BlobIfEESaIS5_EERKS2_IbSaIbEES9_@plt>:
  404ec0:	ff 25 2a e2 20 00    	jmpq   *0x20e22a(%rip)        # 6130f0 <_GLOBAL_OFFSET_TABLE_+0xf0>
  404ec6:	68 1b 00 00 00       	pushq  $0x1b
  404ecb:	e9 30 fe ff ff       	jmpq   404d00 <_init+0x28>

0000000000404ed0 <_ZN5caffe20BaseConvolutionLayerIfE7ReshapeERKSt6vectorIPNS_4BlobIfEESaIS5_EES9_@plt>:
  404ed0:	ff 25 22 e2 20 00    	jmpq   *0x20e222(%rip)        # 6130f8 <_GLOBAL_OFFSET_TABLE_+0xf8>
  404ed6:	68 1c 00 00 00       	pushq  $0x1c
  404edb:	e9 20 fe ff ff       	jmpq   404d00 <_init+0x28>

0000000000404ee0 <_Znam@plt>:
  404ee0:	ff 25 1a e2 20 00    	jmpq   *0x20e21a(%rip)        # 613100 <_GLOBAL_OFFSET_TABLE_+0x100>
  404ee6:	68 1d 00 00 00       	pushq  $0x1d
  404eeb:	e9 10 fe ff ff       	jmpq   404d00 <_init+0x28>

0000000000404ef0 <xopenme_add_var_i@plt>:
  404ef0:	ff 25 12 e2 20 00    	jmpq   *0x20e212(%rip)        # 613108 <_GLOBAL_OFFSET_TABLE_+0x108>
  404ef6:	68 1e 00 00 00       	pushq  $0x1e
  404efb:	e9 00 fe ff ff       	jmpq   404d00 <_init+0x28>

0000000000404f00 <xopenme_get_timer@plt>:
  404f00:	ff 25 0a e2 20 00    	jmpq   *0x20e20a(%rip)        # 613110 <_GLOBAL_OFFSET_TABLE_+0x110>
  404f06:	68 1f 00 00 00       	pushq  $0x1f
  404f0b:	e9 f0 fd ff ff       	jmpq   404d00 <_init+0x28>

0000000000404f10 <xopenme_clock_end@plt>:
  404f10:	ff 25 02 e2 20 00    	jmpq   *0x20e202(%rip)        # 613118 <_GLOBAL_OFFSET_TABLE_+0x118>
  404f16:	68 20 00 00 00       	pushq  $0x20
  404f1b:	e9 e0 fd ff ff       	jmpq   404d00 <_init+0x28>

0000000000404f20 <_ZdlPv@plt>:
  404f20:	ff 25 fa e1 20 00    	jmpq   *0x20e1fa(%rip)        # 613120 <_GLOBAL_OFFSET_TABLE_+0x120>
  404f26:	68 21 00 00 00       	pushq  $0x21
  404f2b:	e9 d0 fd ff ff       	jmpq   404d00 <_init+0x28>

0000000000404f30 <_ZN5caffe16ConvolutionLayerIfE20compute_output_shapeEv@plt>:
  404f30:	ff 25 f2 e1 20 00    	jmpq   *0x20e1f2(%rip)        # 613128 <_GLOBAL_OFFSET_TABLE_+0x128>
  404f36:	68 22 00 00 00       	pushq  $0x22
  404f3b:	e9 c0 fd ff ff       	jmpq   404d00 <_init+0x28>

0000000000404f40 <_ZStlsISt11char_traitsIcEERSt13basic_ostreamIcT_ES5_PKc@plt>:
  404f40:	ff 25 ea e1 20 00    	jmpq   *0x20e1ea(%rip)        # 613130 <_GLOBAL_OFFSET_TABLE_+0x130>
  404f46:	68 23 00 00 00       	pushq  $0x23
  404f4b:	e9 b0 fd ff ff       	jmpq   404d00 <_init+0x28>

0000000000404f50 <xopenme_clock_start@plt>:
  404f50:	ff 25 e2 e1 20 00    	jmpq   *0x20e1e2(%rip)        # 613138 <_GLOBAL_OFFSET_TABLE_+0x138>
  404f56:	68 24 00 00 00       	pushq  $0x24
  404f5b:	e9 a0 fd ff ff       	jmpq   404d00 <_init+0x28>

0000000000404f60 <_ZN6google8protobuf8internal10LogMessageC1ENS0_8LogLevelEPKci@plt>:
  404f60:	ff 25 da e1 20 00    	jmpq   *0x20e1da(%rip)        # 613140 <_GLOBAL_OFFSET_TABLE_+0x140>
  404f66:	68 25 00 00 00       	pushq  $0x25
  404f6b:	e9 90 fd ff ff       	jmpq   404d00 <_init+0x28>

0000000000404f70 <__gxx_personality_v0@plt>:
  404f70:	ff 25 d2 e1 20 00    	jmpq   *0x20e1d2(%rip)        # 613148 <_GLOBAL_OFFSET_TABLE_+0x148>
  404f76:	68 26 00 00 00       	pushq  $0x26
  404f7b:	e9 80 fd ff ff       	jmpq   404d00 <_init+0x28>

0000000000404f80 <_ZSt20__throw_length_errorPKc@plt>:
  404f80:	ff 25 ca e1 20 00    	jmpq   *0x20e1ca(%rip)        # 613150 <_GLOBAL_OFFSET_TABLE_+0x150>
  404f86:	68 27 00 00 00       	pushq  $0x27
  404f8b:	e9 70 fd ff ff       	jmpq   404d00 <_init+0x28>

0000000000404f90 <_ZNK5caffe4BlobIfE8cpu_dataEv@plt>:
  404f90:	ff 25 c2 e1 20 00    	jmpq   *0x20e1c2(%rip)        # 613158 <_GLOBAL_OFFSET_TABLE_+0x158>
  404f96:	68 28 00 00 00       	pushq  $0x28
  404f9b:	e9 60 fd ff ff       	jmpq   404d00 <_init+0x28>

0000000000404fa0 <_ZN6google15LogMessageFatalC1EPKciRKNS_13CheckOpStringE@plt>:
  404fa0:	ff 25 ba e1 20 00    	jmpq   *0x20e1ba(%rip)        # 613160 <_GLOBAL_OFFSET_TABLE_+0x160>
  404fa6:	68 29 00 00 00       	pushq  $0x29
  404fab:	e9 50 fd ff ff       	jmpq   404d00 <_init+0x28>

0000000000404fb0 <_Unwind_Resume@plt>:
  404fb0:	ff 25 b2 e1 20 00    	jmpq   *0x20e1b2(%rip)        # 613168 <_GLOBAL_OFFSET_TABLE_+0x168>
  404fb6:	68 2a 00 00 00       	pushq  $0x2a
  404fbb:	e9 40 fd ff ff       	jmpq   404d00 <_init+0x28>

0000000000404fc0 <_ZNSt8ios_base4InitD1Ev@plt>:
  404fc0:	ff 25 aa e1 20 00    	jmpq   *0x20e1aa(%rip)        # 613170 <_GLOBAL_OFFSET_TABLE_+0x170>
  404fc6:	68 2b 00 00 00       	pushq  $0x2b
  404fcb:	e9 30 fd ff ff       	jmpq   404d00 <_init+0x28>

0000000000404fd0 <_ZN5caffe9BlobProtoC1Ev@plt>:
  404fd0:	ff 25 a2 e1 20 00    	jmpq   *0x20e1a2(%rip)        # 613178 <_GLOBAL_OFFSET_TABLE_+0x178>
  404fd6:	68 2c 00 00 00       	pushq  $0x2c
  404fdb:	e9 20 fd ff ff       	jmpq   404d00 <_init+0x28>

0000000000404fe0 <_ZNK5caffe4BlobIfE8cpu_diffEv@plt>:
  404fe0:	ff 25 9a e1 20 00    	jmpq   *0x20e19a(%rip)        # 613180 <_GLOBAL_OFFSET_TABLE_+0x180>
  404fe6:	68 2d 00 00 00       	pushq  $0x2d
  404feb:	e9 10 fd ff ff       	jmpq   404d00 <_init+0x28>

0000000000404ff0 <_ZN5caffe16ConvolutionLayerIfE12Backward_cpuERKSt6vectorIPNS_4BlobIfEESaIS5_EERKS2_IbSaIbEES9_@plt>:
  404ff0:	ff 25 92 e1 20 00    	jmpq   *0x20e192(%rip)        # 613188 <_GLOBAL_OFFSET_TABLE_+0x188>
  404ff6:	68 2e 00 00 00       	pushq  $0x2e
  404ffb:	e9 00 fd ff ff       	jmpq   404d00 <_init+0x28>

0000000000405000 <_ZN5caffe16ConvolutionLayerIfE11Forward_gpuERKSt6vectorIPNS_4BlobIfEESaIS5_EES9_@plt>:
  405000:	ff 25 8a e1 20 00    	jmpq   *0x20e18a(%rip)        # 613190 <_GLOBAL_OFFSET_TABLE_+0x190>
  405006:	68 2f 00 00 00       	pushq  $0x2f
  40500b:	e9 f0 fc ff ff       	jmpq   404d00 <_init+0x28>

0000000000405010 <_ZN5caffe9caffe_setIfEEviT_PS1_@plt>:
  405010:	ff 25 82 e1 20 00    	jmpq   *0x20e182(%rip)        # 613198 <_GLOBAL_OFFSET_TABLE_+0x198>
  405016:	68 30 00 00 00       	pushq  $0x30
  40501b:	e9 e0 fc ff ff       	jmpq   404d00 <_init+0x28>

0000000000405020 <getenv@plt>:
  405020:	ff 25 7a e1 20 00    	jmpq   *0x20e17a(%rip)        # 6131a0 <_GLOBAL_OFFSET_TABLE_+0x1a0>
  405026:	68 31 00 00 00       	pushq  $0x31
  40502b:	e9 d0 fc ff ff       	jmpq   404d00 <_init+0x28>

0000000000405030 <_ZNSt7__cxx1112basic_stringIcSt11char_traitsIcESaIcEED1Ev@plt>:
  405030:	ff 25 72 e1 20 00    	jmpq   *0x20e172(%rip)        # 6131a8 <_GLOBAL_OFFSET_TABLE_+0x1a8>
  405036:	68 32 00 00 00       	pushq  $0x32
  40503b:	e9 c0 fc ff ff       	jmpq   404d00 <_init+0x28>

0000000000405040 <__cxa_end_catch@plt>:
  405040:	ff 25 6a e1 20 00    	jmpq   *0x20e16a(%rip)        # 6131b0 <_GLOBAL_OFFSET_TABLE_+0x1b0>
  405046:	68 33 00 00 00       	pushq  $0x33
  40504b:	e9 b0 fc ff ff       	jmpq   404d00 <_init+0x28>

0000000000405050 <_ZN6google8protobuf5Arena15AllocateAlignedEPKSt9type_infom@plt>:
  405050:	ff 25 62 e1 20 00    	jmpq   *0x20e162(%rip)        # 6131b8 <_GLOBAL_OFFSET_TABLE_+0x1b8>
  405056:	68 34 00 00 00       	pushq  $0x34
  40505b:	e9 a0 fc ff ff       	jmpq   404d00 <_init+0x28>

0000000000405060 <_ZN6google8protobuf8internal11LogFinisheraSERNS1_10LogMessageE@plt>:
  405060:	ff 25 5a e1 20 00    	jmpq   *0x20e15a(%rip)        # 6131c0 <_GLOBAL_OFFSET_TABLE_+0x1c0>
  405066:	68 35 00 00 00       	pushq  $0x35
  40506b:	e9 90 fc ff ff       	jmpq   404d00 <_init+0x28>

0000000000405070 <__cxa_rethrow@plt>:
  405070:	ff 25 52 e1 20 00    	jmpq   *0x20e152(%rip)        # 6131c8 <_GLOBAL_OFFSET_TABLE_+0x1c8>
  405076:	68 36 00 00 00       	pushq  $0x36
  40507b:	e9 80 fc ff ff       	jmpq   404d00 <_init+0x28>

0000000000405080 <__cxa_throw_bad_array_new_length@plt>:
  405080:	ff 25 4a e1 20 00    	jmpq   *0x20e14a(%rip)        # 6131d0 <_GLOBAL_OFFSET_TABLE_+0x1d0>
  405086:	68 37 00 00 00       	pushq  $0x37
  40508b:	e9 70 fc ff ff       	jmpq   404d00 <_init+0x28>

0000000000405090 <atof@plt>:
  405090:	ff 25 42 e1 20 00    	jmpq   *0x20e142(%rip)        # 6131d8 <_GLOBAL_OFFSET_TABLE_+0x1d8>
  405096:	68 38 00 00 00       	pushq  $0x38
  40509b:	e9 60 fc ff ff       	jmpq   404d00 <_init+0x28>

00000000004050a0 <_ZNSt7__cxx1112basic_stringIcSt11char_traitsIcESaIcEEC1EPKcRKS3_@plt>:
  4050a0:	ff 25 3a e1 20 00    	jmpq   *0x20e13a(%rip)        # 6131e0 <_GLOBAL_OFFSET_TABLE_+0x1e0>
  4050a6:	68 39 00 00 00       	pushq  $0x39
  4050ab:	e9 50 fc ff ff       	jmpq   404d00 <_init+0x28>

00000000004050b0 <_ZN5caffe5Caffe3GetEv@plt>:
  4050b0:	ff 25 32 e1 20 00    	jmpq   *0x20e132(%rip)        # 6131e8 <_GLOBAL_OFFSET_TABLE_+0x1e8>
  4050b6:	68 3a 00 00 00       	pushq  $0x3a
  4050bb:	e9 40 fc ff ff       	jmpq   404d00 <_init+0x28>

00000000004050c0 <_ZN5caffe12SyncedMemory8cpu_dataEv@plt>:
  4050c0:	ff 25 2a e1 20 00    	jmpq   *0x20e12a(%rip)        # 6131f0 <_GLOBAL_OFFSET_TABLE_+0x1f0>
  4050c6:	68 3b 00 00 00       	pushq  $0x3b
  4050cb:	e9 30 fc ff ff       	jmpq   404d00 <_init+0x28>

00000000004050d0 <__cxa_atexit@plt>:
  4050d0:	ff 25 22 e1 20 00    	jmpq   *0x20e122(%rip)        # 6131f8 <_GLOBAL_OFFSET_TABLE_+0x1f8>
  4050d6:	68 3c 00 00 00       	pushq  $0x3c
  4050db:	e9 20 fc ff ff       	jmpq   404d00 <_init+0x28>

00000000004050e0 <_ZN6google15LogMessageFatalD1Ev@plt>:
  4050e0:	ff 25 1a e1 20 00    	jmpq   *0x20e11a(%rip)        # 613200 <_GLOBAL_OFFSET_TABLE_+0x200>
  4050e6:	68 3d 00 00 00       	pushq  $0x3d
  4050eb:	e9 10 fc ff ff       	jmpq   404d00 <_init+0x28>

00000000004050f0 <_ZNSt7__cxx1119basic_ostringstreamIcSt11char_traitsIcESaIcEED1Ev@plt>:
  4050f0:	ff 25 12 e1 20 00    	jmpq   *0x20e112(%rip)        # 613208 <_GLOBAL_OFFSET_TABLE_+0x208>
  4050f6:	68 3e 00 00 00       	pushq  $0x3e
  4050fb:	e9 00 fc ff ff       	jmpq   404d00 <_init+0x28>

0000000000405100 <_ZN6google8protobuf8internal10LogMessageD1Ev@plt>:
  405100:	ff 25 0a e1 20 00    	jmpq   *0x20e10a(%rip)        # 613210 <_GLOBAL_OFFSET_TABLE_+0x210>
  405106:	68 3f 00 00 00       	pushq  $0x3f
  40510b:	e9 f0 fb ff ff       	jmpq   404d00 <_init+0x28>

0000000000405110 <__cxa_pure_virtual@plt>:
  405110:	ff 25 02 e1 20 00    	jmpq   *0x20e102(%rip)        # 613218 <_GLOBAL_OFFSET_TABLE_+0x218>
  405116:	68 40 00 00 00       	pushq  $0x40
  40511b:	e9 e0 fb ff ff       	jmpq   404d00 <_init+0x28>

0000000000405120 <_ZN6google4base21CheckOpMessageBuilder9NewStringB5cxx11Ev@plt>:
  405120:	ff 25 fa e0 20 00    	jmpq   *0x20e0fa(%rip)        # 613220 <_GLOBAL_OFFSET_TABLE_+0x220>
  405126:	68 41 00 00 00       	pushq  $0x41
  40512b:	e9 d0 fb ff ff       	jmpq   404d00 <_init+0x28>

0000000000405130 <__libc_start_main@plt>:
  405130:	ff 25 f2 e0 20 00    	jmpq   *0x20e0f2(%rip)        # 613228 <_GLOBAL_OFFSET_TABLE_+0x228>
  405136:	68 42 00 00 00       	pushq  $0x42
  40513b:	e9 c0 fb ff ff       	jmpq   404d00 <_init+0x28>

0000000000405140 <_ZNSaIcEC1Ev@plt>:
  405140:	ff 25 ea e0 20 00    	jmpq   *0x20e0ea(%rip)        # 613230 <_GLOBAL_OFFSET_TABLE_+0x230>
  405146:	68 43 00 00 00       	pushq  $0x43
  40514b:	e9 b0 fb ff ff       	jmpq   404d00 <_init+0x28>

0000000000405150 <rand@plt>:
  405150:	ff 25 e2 e0 20 00    	jmpq   *0x20e0e2(%rip)        # 613238 <_GLOBAL_OFFSET_TABLE_+0x238>
  405156:	68 44 00 00 00       	pushq  $0x44
  40515b:	e9 a0 fb ff ff       	jmpq   404d00 <_init+0x28>

0000000000405160 <_ZN5caffe4BlobIfEC1Eiiii@plt>:
  405160:	ff 25 da e0 20 00    	jmpq   *0x20e0da(%rip)        # 613240 <_GLOBAL_OFFSET_TABLE_+0x240>
  405166:	68 45 00 00 00       	pushq  $0x45
  40516b:	e9 90 fb ff ff       	jmpq   404d00 <_init+0x28>

0000000000405170 <_ZNSt8ios_base4InitC1Ev@plt>:
  405170:	ff 25 d2 e0 20 00    	jmpq   *0x20e0d2(%rip)        # 613248 <_GLOBAL_OFFSET_TABLE_+0x248>
  405176:	68 46 00 00 00       	pushq  $0x46
  40517b:	e9 80 fb ff ff       	jmpq   404d00 <_init+0x28>

0000000000405180 <_ZN6google10LogMessage6streamEv@plt>:
  405180:	ff 25 ca e0 20 00    	jmpq   *0x20e0ca(%rip)        # 613250 <_GLOBAL_OFFSET_TABLE_+0x250>
  405186:	68 47 00 00 00       	pushq  $0x47
  40518b:	e9 70 fb ff ff       	jmpq   404d00 <_init+0x28>

0000000000405190 <puts@plt>:
  405190:	ff 25 c2 e0 20 00    	jmpq   *0x20e0c2(%rip)        # 613258 <_GLOBAL_OFFSET_TABLE_+0x258>
  405196:	68 48 00 00 00       	pushq  $0x48
  40519b:	e9 60 fb ff ff       	jmpq   404d00 <_init+0x28>

00000000004051a0 <sprintf@plt>:
  4051a0:	ff 25 ba e0 20 00    	jmpq   *0x20e0ba(%rip)        # 613260 <_GLOBAL_OFFSET_TABLE_+0x260>
  4051a6:	68 49 00 00 00       	pushq  $0x49
  4051ab:	e9 50 fb ff ff       	jmpq   404d00 <_init+0x28>

00000000004051b0 <_ZN5caffe16ConvolutionLayerIfE11Forward_cpuERKSt6vectorIPNS_4BlobIfEESaIS5_EES9_@plt>:
  4051b0:	ff 25 b2 e0 20 00    	jmpq   *0x20e0b2(%rip)        # 613268 <_GLOBAL_OFFSET_TABLE_+0x268>
  4051b6:	68 4a 00 00 00       	pushq  $0x4a
  4051bb:	e9 40 fb ff ff       	jmpq   404d00 <_init+0x28>

00000000004051c0 <_ZNSolsEm@plt>:
  4051c0:	ff 25 aa e0 20 00    	jmpq   *0x20e0aa(%rip)        # 613270 <_GLOBAL_OFFSET_TABLE_+0x270>
  4051c6:	68 4b 00 00 00       	pushq  $0x4b
  4051cb:	e9 30 fb ff ff       	jmpq   404d00 <_init+0x28>

00000000004051d0 <_ZNK5caffe4BlobIfE7ToProtoEPNS_9BlobProtoEb@plt>:
  4051d0:	ff 25 a2 e0 20 00    	jmpq   *0x20e0a2(%rip)        # 613278 <_GLOBAL_OFFSET_TABLE_+0x278>
  4051d6:	68 4c 00 00 00       	pushq  $0x4c
  4051db:	e9 20 fb ff ff       	jmpq   404d00 <_init+0x28>

00000000004051e0 <putchar@plt>:
  4051e0:	ff 25 9a e0 20 00    	jmpq   *0x20e09a(%rip)        # 613280 <_GLOBAL_OFFSET_TABLE_+0x280>
  4051e6:	68 4d 00 00 00       	pushq  $0x4d
  4051eb:	e9 10 fb ff ff       	jmpq   404d00 <_init+0x28>

00000000004051f0 <_ZNSt7__cxx1119basic_ostringstreamIcSt11char_traitsIcESaIcEEC1ESt13_Ios_Openmode@plt>:
  4051f0:	ff 25 92 e0 20 00    	jmpq   *0x20e092(%rip)        # 613288 <_GLOBAL_OFFSET_TABLE_+0x288>
  4051f6:	68 4e 00 00 00       	pushq  $0x4e
  4051fb:	e9 00 fb ff ff       	jmpq   404d00 <_init+0x28>

0000000000405200 <_ZN5caffe14LayerParameterC1ERKS0_@plt>:
  405200:	ff 25 8a e0 20 00    	jmpq   *0x20e08a(%rip)        # 613290 <_GLOBAL_OFFSET_TABLE_+0x290>
  405206:	68 4f 00 00 00       	pushq  $0x4f
  40520b:	e9 f0 fa ff ff       	jmpq   404d00 <_init+0x28>

0000000000405210 <xopenme_dump_state@plt>:
  405210:	ff 25 82 e0 20 00    	jmpq   *0x20e082(%rip)        # 613298 <_GLOBAL_OFFSET_TABLE_+0x298>
  405216:	68 50 00 00 00       	pushq  $0x50
  40521b:	e9 e0 fa ff ff       	jmpq   404d00 <_init+0x28>

0000000000405220 <_ZN5caffe13caffe_cpu_dotIfEET_iPKS1_S3_@plt>:
  405220:	ff 25 7a e0 20 00    	jmpq   *0x20e07a(%rip)        # 6132a0 <_GLOBAL_OFFSET_TABLE_+0x2a0>
  405226:	68 51 00 00 00       	pushq  $0x51
  40522b:	e9 d0 fa ff ff       	jmpq   404d00 <_init+0x28>

0000000000405230 <_ZNSt7__cxx1112basic_stringIcSt11char_traitsIcESaIcEEaSERKS4_@plt>:
  405230:	ff 25 72 e0 20 00    	jmpq   *0x20e072(%rip)        # 6132a8 <_GLOBAL_OFFSET_TABLE_+0x2a8>
  405236:	68 52 00 00 00       	pushq  $0x52
  40523b:	e9 c0 fa ff ff       	jmpq   404d00 <_init+0x28>

0000000000405240 <_ZNKSt7__cxx1119basic_ostringstreamIcSt11char_traitsIcESaIcEE3strEv@plt>:
  405240:	ff 25 6a e0 20 00    	jmpq   *0x20e06a(%rip)        # 6132b0 <_GLOBAL_OFFSET_TABLE_+0x2b0>
  405246:	68 53 00 00 00       	pushq  $0x53
  40524b:	e9 b0 fa ff ff       	jmpq   404d00 <_init+0x28>

0000000000405250 <_ZN5caffe15FillerParameterC1Ev@plt>:
  405250:	ff 25 62 e0 20 00    	jmpq   *0x20e062(%rip)        # 6132b8 <_GLOBAL_OFFSET_TABLE_+0x2b8>
  405256:	68 54 00 00 00       	pushq  $0x54
  40525b:	e9 a0 fa ff ff       	jmpq   404d00 <_init+0x28>

0000000000405260 <srand@plt>:
  405260:	ff 25 5a e0 20 00    	jmpq   *0x20e05a(%rip)        # 6132c0 <_GLOBAL_OFFSET_TABLE_+0x2c0>
  405266:	68 55 00 00 00       	pushq  $0x55
  40526b:	e9 90 fa ff ff       	jmpq   404d00 <_init+0x28>

0000000000405270 <_ZN6google8protobuf8internal20RepeatedPtrFieldBase7ReserveEi@plt>:
  405270:	ff 25 52 e0 20 00    	jmpq   *0x20e052(%rip)        # 6132c8 <_GLOBAL_OFFSET_TABLE_+0x2c8>
  405276:	68 56 00 00 00       	pushq  $0x56
  40527b:	e9 80 fa ff ff       	jmpq   404d00 <_init+0x28>

0000000000405280 <xopenme_finish@plt>:
  405280:	ff 25 4a e0 20 00    	jmpq   *0x20e04a(%rip)        # 6132d0 <_GLOBAL_OFFSET_TABLE_+0x2d0>
  405286:	68 57 00 00 00       	pushq  $0x57
  40528b:	e9 70 fa ff ff       	jmpq   404d00 <_init+0x28>

0000000000405290 <xopenme_dump_memory@plt>:
  405290:	ff 25 42 e0 20 00    	jmpq   *0x20e042(%rip)        # 6132d8 <_GLOBAL_OFFSET_TABLE_+0x2d8>
  405296:	68 58 00 00 00       	pushq  $0x58
  40529b:	e9 60 fa ff ff       	jmpq   404d00 <_init+0x28>

00000000004052a0 <_ZN6google15LogMessageFatalC1EPKci@plt>:
  4052a0:	ff 25 3a e0 20 00    	jmpq   *0x20e03a(%rip)        # 6132e0 <_GLOBAL_OFFSET_TABLE_+0x2e0>
  4052a6:	68 59 00 00 00       	pushq  $0x59
  4052ab:	e9 50 fa ff ff       	jmpq   404d00 <_init+0x28>

00000000004052b0 <_ZN5caffe14LayerParameterD1Ev@plt>:
  4052b0:	ff 25 32 e0 20 00    	jmpq   *0x20e032(%rip)        # 6132e8 <_GLOBAL_OFFSET_TABLE_+0x2e8>
  4052b6:	68 5a 00 00 00       	pushq  $0x5a
  4052bb:	e9 40 fa ff ff       	jmpq   404d00 <_init+0x28>

00000000004052c0 <_ZN6google8protobuf8internal10LogMessagelsEPKc@plt>:
  4052c0:	ff 25 2a e0 20 00    	jmpq   *0x20e02a(%rip)        # 6132f0 <_GLOBAL_OFFSET_TABLE_+0x2f0>
  4052c6:	68 5b 00 00 00       	pushq  $0x5b
  4052cb:	e9 30 fa ff ff       	jmpq   404d00 <_init+0x28>

00000000004052d0 <_ZN5caffe4BlobIfE9FromProtoERKNS_9BlobProtoEb@plt>:
  4052d0:	ff 25 22 e0 20 00    	jmpq   *0x20e022(%rip)        # 6132f8 <_GLOBAL_OFFSET_TABLE_+0x2f8>
  4052d6:	68 5c 00 00 00       	pushq  $0x5c
  4052db:	e9 20 fa ff ff       	jmpq   404d00 <_init+0x28>

00000000004052e0 <_ZNSaIcED1Ev@plt>:
  4052e0:	ff 25 1a e0 20 00    	jmpq   *0x20e01a(%rip)        # 613300 <_GLOBAL_OFFSET_TABLE_+0x300>
  4052e6:	68 5d 00 00 00       	pushq  $0x5d
  4052eb:	e9 10 fa ff ff       	jmpq   404d00 <_init+0x28>

Disassembly of section .plt.got:

00000000004052f0 <.plt.got>:
  4052f0:	ff 25 02 dd 20 00    	jmpq   *0x20dd02(%rip)        # 612ff8 <_DYNAMIC+0x220>
  4052f6:	66 90                	xchg   %ax,%ax

Disassembly of section .text:

0000000000405300 <_start>:
  405300:	31 ed                	xor    %ebp,%ebp
  405302:	49 89 d1             	mov    %rdx,%r9
  405305:	5e                   	pop    %rsi
  405306:	48 89 e2             	mov    %rsp,%rdx
  405309:	48 83 e4 f0          	and    $0xfffffffffffffff0,%rsp
  40530d:	50                   	push   %rax
  40530e:	54                   	push   %rsp
  40530f:	49 c7 c0 60 d0 40 00 	mov    $0x40d060,%r8
  405316:	48 c7 c1 f0 cf 40 00 	mov    $0x40cff0,%rcx
  40531d:	48 c7 c7 4a 54 40 00 	mov    $0x40544a,%rdi
  405324:	e8 07 fe ff ff       	callq  405130 <__libc_start_main@plt>
  405329:	f4                   	hlt    
  40532a:	66 0f 1f 44 00 00    	nopw   0x0(%rax,%rax,1)

0000000000405330 <deregister_tm_clones>:
  405330:	b8 1f 33 61 00       	mov    $0x61331f,%eax
  405335:	55                   	push   %rbp
  405336:	48 2d 18 33 61 00    	sub    $0x613318,%rax
  40533c:	48 83 f8 0e          	cmp    $0xe,%rax
  405340:	48 89 e5             	mov    %rsp,%rbp
  405343:	76 1b                	jbe    405360 <deregister_tm_clones+0x30>
  405345:	b8 00 00 00 00       	mov    $0x0,%eax
  40534a:	48 85 c0             	test   %rax,%rax
  40534d:	74 11                	je     405360 <deregister_tm_clones+0x30>
  40534f:	5d                   	pop    %rbp
  405350:	bf 18 33 61 00       	mov    $0x613318,%edi
  405355:	ff e0                	jmpq   *%rax
  405357:	66 0f 1f 84 00 00 00 	nopw   0x0(%rax,%rax,1)
  40535e:	00 00 
  405360:	5d                   	pop    %rbp
  405361:	c3                   	retq   
  405362:	0f 1f 40 00          	nopl   0x0(%rax)
  405366:	66 2e 0f 1f 84 00 00 	nopw   %cs:0x0(%rax,%rax,1)
  40536d:	00 00 00 

0000000000405370 <register_tm_clones>:
  405370:	be 18 33 61 00       	mov    $0x613318,%esi
  405375:	55                   	push   %rbp
  405376:	48 81 ee 18 33 61 00 	sub    $0x613318,%rsi
  40537d:	48 c1 fe 03          	sar    $0x3,%rsi
  405381:	48 89 e5             	mov    %rsp,%rbp
  405384:	48 89 f0             	mov    %rsi,%rax
  405387:	48 c1 e8 3f          	shr    $0x3f,%rax
  40538b:	48 01 c6             	add    %rax,%rsi
  40538e:	48 d1 fe             	sar    %rsi
  405391:	74 15                	je     4053a8 <register_tm_clones+0x38>
  405393:	b8 00 00 00 00       	mov    $0x0,%eax
  405398:	48 85 c0             	test   %rax,%rax
  40539b:	74 0b                	je     4053a8 <register_tm_clones+0x38>
  40539d:	5d                   	pop    %rbp
  40539e:	bf 18 33 61 00       	mov    $0x613318,%edi
  4053a3:	ff e0                	jmpq   *%rax
  4053a5:	0f 1f 00             	nopl   (%rax)
  4053a8:	5d                   	pop    %rbp
  4053a9:	c3                   	retq   
  4053aa:	66 0f 1f 44 00 00    	nopw   0x0(%rax,%rax,1)

00000000004053b0 <__do_global_dtors_aux>:
  4053b0:	80 3d 31 e0 20 00 00 	cmpb   $0x0,0x20e031(%rip)        # 6133e8 <completed.7583>
  4053b7:	75 11                	jne    4053ca <__do_global_dtors_aux+0x1a>
  4053b9:	55                   	push   %rbp
  4053ba:	48 89 e5             	mov    %rsp,%rbp
  4053bd:	e8 6e ff ff ff       	callq  405330 <deregister_tm_clones>
  4053c2:	5d                   	pop    %rbp
  4053c3:	c6 05 1e e0 20 00 01 	movb   $0x1,0x20e01e(%rip)        # 6133e8 <completed.7583>
  4053ca:	f3 c3                	repz retq 
  4053cc:	0f 1f 40 00          	nopl   0x0(%rax)

00000000004053d0 <frame_dummy>:
  4053d0:	bf d0 2d 61 00       	mov    $0x612dd0,%edi
  4053d5:	48 83 3f 00          	cmpq   $0x0,(%rdi)
  4053d9:	75 05                	jne    4053e0 <frame_dummy+0x10>
  4053db:	eb 93                	jmp    405370 <register_tm_clones>
  4053dd:	0f 1f 00             	nopl   (%rax)
  4053e0:	b8 00 00 00 00       	mov    $0x0,%eax
  4053e5:	48 85 c0             	test   %rax,%rax
  4053e8:	74 f1                	je     4053db <frame_dummy+0xb>
  4053ea:	55                   	push   %rbp
  4053eb:	48 89 e5             	mov    %rsp,%rbp
  4053ee:	ff d0                	callq  *%rax
  4053f0:	5d                   	pop    %rbp
  4053f1:	e9 7a ff ff ff       	jmpq   405370 <register_tm_clones>

00000000004053f6 <_ZN2CK16store_setup_timeEf>:
  4053f6:	55                   	push   %rbp
  4053f7:	48 89 e5             	mov    %rsp,%rbp
  4053fa:	48 83 ec 10          	sub    $0x10,%rsp
  4053fe:	f3 0f 11 45 fc       	movss  %xmm0,-0x4(%rbp)
  405403:	8b 45 fc             	mov    -0x4(%rbp),%eax
  405406:	89 45 f8             	mov    %eax,-0x8(%rbp)
  405409:	f3 0f 10 45 f8       	movss  -0x8(%rbp),%xmm0
  40540e:	be 83 d3 40 00       	mov    $0x40d383,%esi
  405413:	bf 0a 00 00 00       	mov    $0xa,%edi
  405418:	e8 f5 0d 00 00       	callq  406212 <_ZN2CK13store_value_fEiPKcf>
  40541d:	90                   	nop
  40541e:	c9                   	leaveq 
  40541f:	c3                   	retq   

0000000000405420 <_ZN2CK15store_test_timeEf>:
  405420:	55                   	push   %rbp
  405421:	48 89 e5             	mov    %rsp,%rbp
  405424:	48 83 ec 10          	sub    $0x10,%rsp
  405428:	f3 0f 11 45 fc       	movss  %xmm0,-0x4(%rbp)
  40542d:	8b 45 fc             	mov    -0x4(%rbp),%eax
  405430:	89 45 f8             	mov    %eax,-0x8(%rbp)
  405433:	f3 0f 10 45 f8       	movss  -0x8(%rbp),%xmm0
  405438:	be 8e d3 40 00       	mov    $0x40d38e,%esi
  40543d:	bf 0b 00 00 00       	mov    $0xb,%edi
  405442:	e8 cb 0d 00 00       	callq  406212 <_ZN2CK13store_value_fEiPKcf>
  405447:	90                   	nop
  405448:	c9                   	leaveq 
  405449:	c3                   	retq   

000000000040544a <main>:
  40544a:	55                   	push   %rbp
  40544b:	48 89 e5             	mov    %rsp,%rbp
  40544e:	bf 00 00 00 00       	mov    $0x0,%edi
  405453:	e8 ad 03 00 00       	callq  405805 <_ZN5caffe5Caffe8set_modeENS0_4BrewE>
  405458:	bf 00 00 00 00       	mov    $0x0,%edi
  40545d:	e8 59 11 00 00       	callq  4065bb <_ZN2CK5Caffe16test_convolutionEb>
  405462:	b8 00 00 00 00       	mov    $0x0,%eax
  405467:	5d                   	pop    %rbp
  405468:	c3                   	retq   

0000000000405469 <_Z41__static_initialization_and_destruction_0ii>:
  405469:	55                   	push   %rbp
  40546a:	48 89 e5             	mov    %rsp,%rbp
  40546d:	48 83 ec 10          	sub    $0x10,%rsp
  405471:	89 7d fc             	mov    %edi,-0x4(%rbp)
  405474:	89 75 f8             	mov    %esi,-0x8(%rbp)
  405477:	83 7d fc 01          	cmpl   $0x1,-0x4(%rbp)
  40547b:	75 27                	jne    4054a4 <_Z41__static_initialization_and_destruction_0ii+0x3b>
  40547d:	81 7d f8 ff ff 00 00 	cmpl   $0xffff,-0x8(%rbp)
  405484:	75 1e                	jne    4054a4 <_Z41__static_initialization_and_destruction_0ii+0x3b>
  405486:	bf e9 33 61 00       	mov    $0x6133e9,%edi
  40548b:	e8 e0 fc ff ff       	callq  405170 <_ZNSt8ios_base4InitC1Ev@plt>
  405490:	ba 10 33 61 00       	mov    $0x613310,%edx
  405495:	be e9 33 61 00       	mov    $0x6133e9,%esi
  40549a:	bf c0 4f 40 00       	mov    $0x404fc0,%edi
  40549f:	e8 2c fc ff ff       	callq  4050d0 <__cxa_atexit@plt>
  4054a4:	90                   	nop
  4054a5:	c9                   	leaveq 
  4054a6:	c3                   	retq   

00000000004054a7 <_GLOBAL__sub_I__ZN2CK16store_setup_timeEf>:
  4054a7:	55                   	push   %rbp
  4054a8:	48 89 e5             	mov    %rsp,%rbp
  4054ab:	be ff ff 00 00       	mov    $0xffff,%esi
  4054b0:	bf 01 00 00 00       	mov    $0x1,%edi
  4054b5:	e8 af ff ff ff       	callq  405469 <_Z41__static_initialization_and_destruction_0ii>
  4054ba:	5d                   	pop    %rbp
  4054bb:	c3                   	retq   

00000000004054bc <_ZnwmPv>:
  4054bc:	55                   	push   %rbp
  4054bd:	48 89 e5             	mov    %rsp,%rbp
  4054c0:	48 89 7d f8          	mov    %rdi,-0x8(%rbp)
  4054c4:	48 89 75 f0          	mov    %rsi,-0x10(%rbp)
  4054c8:	48 8b 45 f0          	mov    -0x10(%rbp),%rax
  4054cc:	5d                   	pop    %rbp
  4054cd:	c3                   	retq   

00000000004054ce <_ZdlPvS_>:
  4054ce:	55                   	push   %rbp
  4054cf:	48 89 e5             	mov    %rsp,%rbp
  4054d2:	48 89 7d f8          	mov    %rdi,-0x8(%rbp)
  4054d6:	48 89 75 f0          	mov    %rsi,-0x10(%rbp)
  4054da:	90                   	nop
  4054db:	5d                   	pop    %rbp
  4054dc:	c3                   	retq   
  4054dd:	90                   	nop

00000000004054de <_ZNSt8iteratorISt26random_access_iterator_tagblPbRbEC1Ev>:
  4054de:	55                   	push   %rbp
  4054df:	48 89 e5             	mov    %rsp,%rbp
  4054e2:	48 89 7d f8          	mov    %rdi,-0x8(%rbp)
  4054e6:	90                   	nop
  4054e7:	5d                   	pop    %rbp
  4054e8:	c3                   	retq   
  4054e9:	90                   	nop

00000000004054ea <_ZNSt18_Bit_iterator_baseC1EPmj>:
  4054ea:	55                   	push   %rbp
  4054eb:	48 89 e5             	mov    %rsp,%rbp
  4054ee:	48 83 ec 20          	sub    $0x20,%rsp
  4054f2:	48 89 7d f8          	mov    %rdi,-0x8(%rbp)
  4054f6:	48 89 75 f0          	mov    %rsi,-0x10(%rbp)
  4054fa:	89 55 ec             	mov    %edx,-0x14(%rbp)
  4054fd:	48 8b 45 f8          	mov    -0x8(%rbp),%rax
  405501:	48 89 c7             	mov    %rax,%rdi
  405504:	e8 d5 ff ff ff       	callq  4054de <_ZNSt8iteratorISt26random_access_iterator_tagblPbRbEC1Ev>
  405509:	48 8b 45 f8          	mov    -0x8(%rbp),%rax
  40550d:	48 8b 55 f0          	mov    -0x10(%rbp),%rdx
  405511:	48 89 10             	mov    %rdx,(%rax)
  405514:	48 8b 45 f8          	mov    -0x8(%rbp),%rax
  405518:	8b 55 ec             	mov    -0x14(%rbp),%edx
  40551b:	89 50 08             	mov    %edx,0x8(%rax)
  40551e:	90                   	nop
  40551f:	c9                   	leaveq 
  405520:	c3                   	retq   
  405521:	90                   	nop

0000000000405522 <_ZNSt13_Bit_iteratorC1Ev>:
  405522:	55                   	push   %rbp
  405523:	48 89 e5             	mov    %rsp,%rbp
  405526:	48 83 ec 10          	sub    $0x10,%rsp
  40552a:	48 89 7d f8          	mov    %rdi,-0x8(%rbp)
  40552e:	48 8b 45 f8          	mov    -0x8(%rbp),%rax
  405532:	ba 00 00 00 00       	mov    $0x0,%edx
  405537:	be 00 00 00 00       	mov    $0x0,%esi
  40553c:	48 89 c7             	mov    %rax,%rdi
  40553f:	e8 a6 ff ff ff       	callq  4054ea <_ZNSt18_Bit_iterator_baseC1EPmj>
  405544:	90                   	nop
  405545:	c9                   	leaveq 
  405546:	c3                   	retq   

0000000000405547 <_ZN5boost6detail23atomic_exchange_and_addEPii>:
  405547:	55                   	push   %rbp
  405548:	48 89 e5             	mov    %rsp,%rbp
  40554b:	48 89 7d e8          	mov    %rdi,-0x18(%rbp)
  40554f:	89 75 e4             	mov    %esi,-0x1c(%rbp)
  405552:	48 8b 55 e8          	mov    -0x18(%rbp),%rdx
  405556:	48 8b 4d e8          	mov    -0x18(%rbp),%rcx
  40555a:	8b 45 e4             	mov    -0x1c(%rbp),%eax
  40555d:	f0 0f c1 02          	lock xadd %eax,(%rdx)
  405561:	89 45 fc             	mov    %eax,-0x4(%rbp)
  405564:	8b 45 fc             	mov    -0x4(%rbp),%eax
  405567:	5d                   	pop    %rbp
  405568:	c3                   	retq   
  405569:	90                   	nop

000000000040556a <_ZN5boost6detail15sp_counted_baseC1Ev>:
  40556a:	55                   	push   %rbp
  40556b:	48 89 e5             	mov    %rsp,%rbp
  40556e:	48 89 7d f8          	mov    %rdi,-0x8(%rbp)
  405572:	ba 18 df 40 00       	mov    $0x40df18,%edx
  405577:	48 8b 45 f8          	mov    -0x8(%rbp),%rax
  40557b:	48 89 10             	mov    %rdx,(%rax)
  40557e:	48 8b 45 f8          	mov    -0x8(%rbp),%rax
  405582:	c7 40 08 01 00 00 00 	movl   $0x1,0x8(%rax)
  405589:	48 8b 45 f8          	mov    -0x8(%rbp),%rax
  40558d:	c7 40 0c 01 00 00 00 	movl   $0x1,0xc(%rax)
  405594:	90                   	nop
  405595:	5d                   	pop    %rbp
  405596:	c3                   	retq   
  405597:	90                   	nop

0000000000405598 <_ZN5boost6detail15sp_counted_baseD1Ev>:
  405598:	55                   	push   %rbp
  405599:	48 89 e5             	mov    %rsp,%rbp
  40559c:	48 89 7d f8          	mov    %rdi,-0x8(%rbp)
  4055a0:	ba 18 df 40 00       	mov    $0x40df18,%edx
  4055a5:	48 8b 45 f8          	mov    -0x8(%rbp),%rax
  4055a9:	48 89 10             	mov    %rdx,(%rax)
  4055ac:	90                   	nop
  4055ad:	5d                   	pop    %rbp
  4055ae:	c3                   	retq   
  4055af:	90                   	nop

00000000004055b0 <_ZN5boost6detail15sp_counted_baseD0Ev>:
  4055b0:	55                   	push   %rbp
  4055b1:	48 89 e5             	mov    %rsp,%rbp
  4055b4:	48 83 ec 10          	sub    $0x10,%rsp
  4055b8:	48 89 7d f8          	mov    %rdi,-0x8(%rbp)
  4055bc:	48 8b 45 f8          	mov    -0x8(%rbp),%rax
  4055c0:	48 89 c7             	mov    %rax,%rdi
  4055c3:	e8 d0 ff ff ff       	callq  405598 <_ZN5boost6detail15sp_counted_baseD1Ev>
  4055c8:	48 8b 45 f8          	mov    -0x8(%rbp),%rax
  4055cc:	48 89 c7             	mov    %rax,%rdi
  4055cf:	e8 4c f9 ff ff       	callq  404f20 <_ZdlPv@plt>
  4055d4:	c9                   	leaveq 
  4055d5:	c3                   	retq   

00000000004055d6 <_ZN5boost6detail15sp_counted_base7destroyEv>:
  4055d6:	55                   	push   %rbp
  4055d7:	48 89 e5             	mov    %rsp,%rbp
  4055da:	48 83 ec 10          	sub    $0x10,%rsp
  4055de:	48 89 7d f8          	mov    %rdi,-0x8(%rbp)
  4055e2:	48 83 7d f8 00       	cmpq   $0x0,-0x8(%rbp)
  4055e7:	74 17                	je     405600 <_ZN5boost6detail15sp_counted_base7destroyEv+0x2a>
  4055e9:	48 8b 45 f8          	mov    -0x8(%rbp),%rax
  4055ed:	48 8b 00             	mov    (%rax),%rax
  4055f0:	48 83 c0 08          	add    $0x8,%rax
  4055f4:	48 8b 00             	mov    (%rax),%rax
  4055f7:	48 8b 55 f8          	mov    -0x8(%rbp),%rdx
  4055fb:	48 89 d7             	mov    %rdx,%rdi
  4055fe:	ff d0                	callq  *%rax
  405600:	90                   	nop
  405601:	c9                   	leaveq 
  405602:	c3                   	retq   
  405603:	90                   	nop

0000000000405604 <_ZN5boost6detail15sp_counted_base7releaseEv>:
  405604:	55                   	push   %rbp
  405605:	48 89 e5             	mov    %rsp,%rbp
  405608:	48 83 ec 10          	sub    $0x10,%rsp
  40560c:	48 89 7d f8          	mov    %rdi,-0x8(%rbp)
  405610:	48 8b 45 f8          	mov    -0x8(%rbp),%rax
  405614:	48 83 c0 08          	add    $0x8,%rax
  405618:	be ff ff ff ff       	mov    $0xffffffff,%esi
  40561d:	48 89 c7             	mov    %rax,%rdi
  405620:	e8 22 ff ff ff       	callq  405547 <_ZN5boost6detail23atomic_exchange_and_addEPii>
  405625:	83 f8 01             	cmp    $0x1,%eax
  405628:	0f 94 c0             	sete   %al
  40562b:	84 c0                	test   %al,%al
  40562d:	74 23                	je     405652 <_ZN5boost6detail15sp_counted_base7releaseEv+0x4e>
  40562f:	48 8b 45 f8          	mov    -0x8(%rbp),%rax
  405633:	48 8b 00             	mov    (%rax),%rax
  405636:	48 83 c0 10          	add    $0x10,%rax
  40563a:	48 8b 00             	mov    (%rax),%rax
  40563d:	48 8b 55 f8          	mov    -0x8(%rbp),%rdx
  405641:	48 89 d7             	mov    %rdx,%rdi
  405644:	ff d0                	callq  *%rax
  405646:	48 8b 45 f8          	mov    -0x8(%rbp),%rax
  40564a:	48 89 c7             	mov    %rax,%rdi
  40564d:	e8 04 00 00 00       	callq  405656 <_ZN5boost6detail15sp_counted_base12weak_releaseEv>
  405652:	90                   	nop
  405653:	c9                   	leaveq 
  405654:	c3                   	retq   
  405655:	90                   	nop

0000000000405656 <_ZN5boost6detail15sp_counted_base12weak_releaseEv>:
  405656:	55                   	push   %rbp
  405657:	48 89 e5             	mov    %rsp,%rbp
  40565a:	48 83 ec 10          	sub    $0x10,%rsp
  40565e:	48 89 7d f8          	mov    %rdi,-0x8(%rbp)
  405662:	48 8b 45 f8          	mov    -0x8(%rbp),%rax
  405666:	48 83 c0 0c          	add    $0xc,%rax
  40566a:	be ff ff ff ff       	mov    $0xffffffff,%esi
  40566f:	48 89 c7             	mov    %rax,%rdi
  405672:	e8 d0 fe ff ff       	callq  405547 <_ZN5boost6detail23atomic_exchange_and_addEPii>
  405677:	83 f8 01             	cmp    $0x1,%eax
  40567a:	0f 94 c0             	sete   %al
  40567d:	84 c0                	test   %al,%al
  40567f:	74 17                	je     405698 <_ZN5boost6detail15sp_counted_base12weak_releaseEv+0x42>
  405681:	48 8b 45 f8          	mov    -0x8(%rbp),%rax
  405685:	48 8b 00             	mov    (%rax),%rax
  405688:	48 83 c0 18          	add    $0x18,%rax
  40568c:	48 8b 00             	mov    (%rax),%rax
  40568f:	48 8b 55 f8          	mov    -0x8(%rbp),%rdx
  405693:	48 89 d7             	mov    %rdx,%rdi
  405696:	ff d0                	callq  *%rax
  405698:	90                   	nop
  405699:	c9                   	leaveq 
  40569a:	c3                   	retq   
  40569b:	90                   	nop

000000000040569c <_ZN5boost6detail12shared_countC1Ev>:
  40569c:	55                   	push   %rbp
  40569d:	48 89 e5             	mov    %rsp,%rbp
  4056a0:	48 89 7d f8          	mov    %rdi,-0x8(%rbp)
  4056a4:	48 8b 45 f8          	mov    -0x8(%rbp),%rax
  4056a8:	48 c7 00 00 00 00 00 	movq   $0x0,(%rax)
  4056af:	90                   	nop
  4056b0:	5d                   	pop    %rbp
  4056b1:	c3                   	retq   

00000000004056b2 <_ZN5boost6detail12shared_countD1Ev>:
  4056b2:	55                   	push   %rbp
  4056b3:	48 89 e5             	mov    %rsp,%rbp
  4056b6:	48 83 ec 10          	sub    $0x10,%rsp
  4056ba:	48 89 7d f8          	mov    %rdi,-0x8(%rbp)
  4056be:	48 8b 45 f8          	mov    -0x8(%rbp),%rax
  4056c2:	48 8b 00             	mov    (%rax),%rax
  4056c5:	48 85 c0             	test   %rax,%rax
  4056c8:	74 0f                	je     4056d9 <_ZN5boost6detail12shared_countD1Ev+0x27>
  4056ca:	48 8b 45 f8          	mov    -0x8(%rbp),%rax
  4056ce:	48 8b 00             	mov    (%rax),%rax
  4056d1:	48 89 c7             	mov    %rax,%rdi
  4056d4:	e8 2b ff ff ff       	callq  405604 <_ZN5boost6detail15sp_counted_base7releaseEv>
  4056d9:	90                   	nop
  4056da:	c9                   	leaveq 
  4056db:	c3                   	retq   

00000000004056dc <_ZN5boost6detail12shared_count4swapERS1_>:
  4056dc:	55                   	push   %rbp
  4056dd:	48 89 e5             	mov    %rsp,%rbp
  4056e0:	48 89 7d e8          	mov    %rdi,-0x18(%rbp)
  4056e4:	48 89 75 e0          	mov    %rsi,-0x20(%rbp)
  4056e8:	48 8b 45 e0          	mov    -0x20(%rbp),%rax
  4056ec:	48 8b 00             	mov    (%rax),%rax
  4056ef:	48 89 45 f8          	mov    %rax,-0x8(%rbp)
  4056f3:	48 8b 45 e8          	mov    -0x18(%rbp),%rax
  4056f7:	48 8b 10             	mov    (%rax),%rdx
  4056fa:	48 8b 45 e0          	mov    -0x20(%rbp),%rax
  4056fe:	48 89 10             	mov    %rdx,(%rax)
  405701:	48 8b 45 e8          	mov    -0x18(%rbp),%rax
  405705:	48 8b 55 f8          	mov    -0x8(%rbp),%rdx
  405709:	48 89 10             	mov    %rdx,(%rax)
  40570c:	90                   	nop
  40570d:	5d                   	pop    %rbp
  40570e:	c3                   	retq   

000000000040570f <_ZN5boost6detail26sp_enable_shared_from_thisEz>:
  40570f:	55                   	push   %rbp
  405710:	48 89 e5             	mov    %rsp,%rbp
  405713:	90                   	nop
  405714:	5d                   	pop    %rbp
  405715:	c3                   	retq   

0000000000405716 <_ZN6google13CheckOpStringC1EPNSt7__cxx1112basic_stringIcSt11char_traitsIcESaIcEEE>:
  405716:	55                   	push   %rbp
  405717:	48 89 e5             	mov    %rsp,%rbp
  40571a:	48 89 7d f8          	mov    %rdi,-0x8(%rbp)
  40571e:	48 89 75 f0          	mov    %rsi,-0x10(%rbp)
  405722:	48 8b 45 f8          	mov    -0x8(%rbp),%rax
  405726:	48 8b 55 f0          	mov    -0x10(%rbp),%rdx
  40572a:	48 89 10             	mov    %rdx,(%rax)
  40572d:	90                   	nop
  40572e:	5d                   	pop    %rbp
  40572f:	c3                   	retq   

0000000000405730 <_ZN6google21GetReferenceableValueEi>:
  405730:	55                   	push   %rbp
  405731:	48 89 e5             	mov    %rsp,%rbp
  405734:	89 7d fc             	mov    %edi,-0x4(%rbp)
  405737:	8b 45 fc             	mov    -0x4(%rbp),%eax
  40573a:	5d                   	pop    %rbp
  40573b:	c3                   	retq   

000000000040573c <_ZN6google21GetReferenceableValueEm>:
  40573c:	55                   	push   %rbp
  40573d:	48 89 e5             	mov    %rsp,%rbp
  405740:	48 89 7d f8          	mov    %rdi,-0x8(%rbp)
  405744:	48 8b 45 f8          	mov    -0x8(%rbp),%rax
  405748:	5d                   	pop    %rbp
  405749:	c3                   	retq   

000000000040574a <_ZN6google4base21CheckOpMessageBuilder7ForVar1Ev>:
  40574a:	55                   	push   %rbp
  40574b:	48 89 e5             	mov    %rsp,%rbp
  40574e:	48 89 7d f8          	mov    %rdi,-0x8(%rbp)
  405752:	48 8b 45 f8          	mov    -0x8(%rbp),%rax
  405756:	48 8b 00             	mov    (%rax),%rax
  405759:	5d                   	pop    %rbp
  40575a:	c3                   	retq   

000000000040575b <_ZN6google12Check_LEImplB5cxx11EiiPKc>:
  40575b:	55                   	push   %rbp
  40575c:	48 89 e5             	mov    %rsp,%rbp
  40575f:	48 83 ec 10          	sub    $0x10,%rsp
  405763:	89 7d fc             	mov    %edi,-0x4(%rbp)
  405766:	89 75 f8             	mov    %esi,-0x8(%rbp)
  405769:	48 89 55 f0          	mov    %rdx,-0x10(%rbp)
  40576d:	48 8b 55 f0          	mov    -0x10(%rbp),%rdx
  405771:	48 8d 4d f8          	lea    -0x8(%rbp),%rcx
  405775:	48 8d 45 fc          	lea    -0x4(%rbp),%rax
  405779:	48 89 ce             	mov    %rcx,%rsi
  40577c:	48 89 c7             	mov    %rax,%rdi
  40577f:	e8 7a 14 00 00       	callq  406bfe <_ZN6google12Check_LEImplIiiEEPNSt7__cxx1112basic_stringIcSt11char_traitsIcESaIcEEERKT_RKT0_PKc>
  405784:	c9                   	leaveq 
  405785:	c3                   	retq   

0000000000405786 <_ZN6google12Check_LTImplB5cxx11EiiPKc>:
  405786:	55                   	push   %rbp
  405787:	48 89 e5             	mov    %rsp,%rbp
  40578a:	48 83 ec 10          	sub    $0x10,%rsp
  40578e:	89 7d fc             	mov    %edi,-0x4(%rbp)
  405791:	89 75 f8             	mov    %esi,-0x8(%rbp)
  405794:	48 89 55 f0          	mov    %rdx,-0x10(%rbp)
  405798:	48 8b 55 f0          	mov    -0x10(%rbp),%rdx
  40579c:	48 8d 4d f8          	lea    -0x8(%rbp),%rcx
  4057a0:	48 8d 45 fc          	lea    -0x4(%rbp),%rax
  4057a4:	48 89 ce             	mov    %rcx,%rsi
  4057a7:	48 89 c7             	mov    %rax,%rdi
  4057aa:	e8 9c 14 00 00       	callq  406c4b <_ZN6google12Check_LTImplIiiEEPNSt7__cxx1112basic_stringIcSt11char_traitsIcESaIcEEERKT_RKT0_PKc>
  4057af:	c9                   	leaveq 
  4057b0:	c3                   	retq   

00000000004057b1 <_ZN6google12Check_GEImplB5cxx11EiiPKc>:
  4057b1:	55                   	push   %rbp
  4057b2:	48 89 e5             	mov    %rsp,%rbp
  4057b5:	48 83 ec 10          	sub    $0x10,%rsp
  4057b9:	89 7d fc             	mov    %edi,-0x4(%rbp)
  4057bc:	89 75 f8             	mov    %esi,-0x8(%rbp)
  4057bf:	48 89 55 f0          	mov    %rdx,-0x10(%rbp)
  4057c3:	48 8b 55 f0          	mov    -0x10(%rbp),%rdx
  4057c7:	48 8d 4d f8          	lea    -0x8(%rbp),%rcx
  4057cb:	48 8d 45 fc          	lea    -0x4(%rbp),%rax
  4057cf:	48 89 ce             	mov    %rcx,%rsi
  4057d2:	48 89 c7             	mov    %rax,%rdi
  4057d5:	e8 be 14 00 00       	callq  406c98 <_ZN6google12Check_GEImplIiiEEPNSt7__cxx1112basic_stringIcSt11char_traitsIcESaIcEEERKT_RKT0_PKc>
  4057da:	c9                   	leaveq 
  4057db:	c3                   	retq   

00000000004057dc <_ZN6google17LogMessageVoidifyC1Ev>:
  4057dc:	55                   	push   %rbp
  4057dd:	48 89 e5             	mov    %rsp,%rbp
  4057e0:	48 89 7d f8          	mov    %rdi,-0x8(%rbp)
  4057e4:	90                   	nop
  4057e5:	5d                   	pop    %rbp
  4057e6:	c3                   	retq   
  4057e7:	90                   	nop

00000000004057e8 <_ZN6google17LogMessageVoidifyanERSo>:
  4057e8:	55                   	push   %rbp
  4057e9:	48 89 e5             	mov    %rsp,%rbp
  4057ec:	48 89 7d f8          	mov    %rdi,-0x8(%rbp)
  4057f0:	48 89 75 f0          	mov    %rsi,-0x10(%rbp)
  4057f4:	90                   	nop
  4057f5:	5d                   	pop    %rbp
  4057f6:	c3                   	retq   

00000000004057f7 <_ZN5caffe5Caffe4modeEv>:
  4057f7:	55                   	push   %rbp
  4057f8:	48 89 e5             	mov    %rsp,%rbp
  4057fb:	e8 b0 f8 ff ff       	callq  4050b0 <_ZN5caffe5Caffe3GetEv@plt>
  405800:	8b 40 10             	mov    0x10(%rax),%eax
  405803:	5d                   	pop    %rbp
  405804:	c3                   	retq   

0000000000405805 <_ZN5caffe5Caffe8set_modeENS0_4BrewE>:
  405805:	55                   	push   %rbp
  405806:	48 89 e5             	mov    %rsp,%rbp
  405809:	48 83 ec 10          	sub    $0x10,%rsp
  40580d:	89 7d fc             	mov    %edi,-0x4(%rbp)
  405810:	e8 9b f8 ff ff       	callq  4050b0 <_ZN5caffe5Caffe3GetEv@plt>
  405815:	48 89 c2             	mov    %rax,%rdx
  405818:	8b 45 fc             	mov    -0x4(%rbp),%eax
  40581b:	89 42 10             	mov    %eax,0x10(%rdx)
  40581e:	90                   	nop
  40581f:	c9                   	leaveq 
  405820:	c3                   	retq   
  405821:	90                   	nop

0000000000405822 <_ZN6google8protobuf8internal14ArenaStringPtr10SetNoArenaEPKNSt7__cxx1112basic_stringIcSt11char_traitsIcESaIcEEERS9_>:
  405822:	55                   	push   %rbp
  405823:	48 89 e5             	mov    %rsp,%rbp
  405826:	48 83 ec 20          	sub    $0x20,%rsp
  40582a:	48 89 7d f8          	mov    %rdi,-0x8(%rbp)
  40582e:	48 89 75 f0          	mov    %rsi,-0x10(%rbp)
  405832:	48 89 55 e8          	mov    %rdx,-0x18(%rbp)
  405836:	48 8b 45 f8          	mov    -0x8(%rbp),%rax
  40583a:	48 8b 00             	mov    (%rax),%rax
  40583d:	48 3b 45 f0          	cmp    -0x10(%rbp),%rax
  405841:	75 15                	jne    405858 <_ZN6google8protobuf8internal14ArenaStringPtr10SetNoArenaEPKNSt7__cxx1112basic_stringIcSt11char_traitsIcESaIcEEERS9_+0x36>
  405843:	48 8b 55 e8          	mov    -0x18(%rbp),%rdx
  405847:	48 8b 45 f8          	mov    -0x8(%rbp),%rax
  40584b:	48 89 d6             	mov    %rdx,%rsi
  40584e:	48 89 c7             	mov    %rax,%rdi
  405851:	e8 1c 00 00 00       	callq  405872 <_ZN6google8protobuf8internal14ArenaStringPtr21CreateInstanceNoArenaEPKNSt7__cxx1112basic_stringIcSt11char_traitsIcESaIcEEE>
  405856:	eb 16                	jmp    40586e <_ZN6google8protobuf8internal14ArenaStringPtr10SetNoArenaEPKNSt7__cxx1112basic_stringIcSt11char_traitsIcESaIcEEERS9_+0x4c>
  405858:	48 8b 45 f8          	mov    -0x8(%rbp),%rax
  40585c:	48 8b 00             	mov    (%rax),%rax
  40585f:	48 8b 55 e8          	mov    -0x18(%rbp),%rdx
  405863:	48 89 d6             	mov    %rdx,%rsi
  405866:	48 89 c7             	mov    %rax,%rdi
  405869:	e8 c2 f9 ff ff       	callq  405230 <_ZNSt7__cxx1112basic_stringIcSt11char_traitsIcESaIcEEaSERKS4_@plt>
  40586e:	90                   	nop
  40586f:	c9                   	leaveq 
  405870:	c3                   	retq   
  405871:	90                   	nop

0000000000405872 <_ZN6google8protobuf8internal14ArenaStringPtr21CreateInstanceNoArenaEPKNSt7__cxx1112basic_stringIcSt11char_traitsIcESaIcEEE>:
  405872:	55                   	push   %rbp
  405873:	48 89 e5             	mov    %rsp,%rbp
  405876:	41 54                	push   %r12
  405878:	53                   	push   %rbx
  405879:	48 83 ec 10          	sub    $0x10,%rsp
  40587d:	48 89 7d e8          	mov    %rdi,-0x18(%rbp)
  405881:	48 89 75 e0          	mov    %rsi,-0x20(%rbp)
  405885:	48 83 7d e0 00       	cmpq   $0x0,-0x20(%rbp)
  40588a:	74 25                	je     4058b1 <_ZN6google8protobuf8internal14ArenaStringPtr21CreateInstanceNoArenaEPKNSt7__cxx1112basic_stringIcSt11char_traitsIcESaIcEEE+0x3f>
  40588c:	bf 20 00 00 00       	mov    $0x20,%edi
  405891:	e8 1a f5 ff ff       	callq  404db0 <_Znwm@plt>
  405896:	48 89 c3             	mov    %rax,%rbx
  405899:	48 8b 45 e0          	mov    -0x20(%rbp),%rax
  40589d:	48 89 c6             	mov    %rax,%rsi
  4058a0:	48 89 df             	mov    %rbx,%rdi
  4058a3:	e8 f8 f4 ff ff       	callq  404da0 <_ZNSt7__cxx1112basic_stringIcSt11char_traitsIcESaIcEEC1ERKS4_@plt>
  4058a8:	48 8b 45 e8          	mov    -0x18(%rbp),%rax
  4058ac:	48 89 18             	mov    %rbx,(%rax)
  4058af:	eb 34                	jmp    4058e5 <_ZN6google8protobuf8internal14ArenaStringPtr21CreateInstanceNoArenaEPKNSt7__cxx1112basic_stringIcSt11char_traitsIcESaIcEEE+0x73>
  4058b1:	bf 20 00 00 00       	mov    $0x20,%edi
  4058b6:	e8 f5 f4 ff ff       	callq  404db0 <_Znwm@plt>
  4058bb:	48 89 c3             	mov    %rax,%rbx
  4058be:	48 89 df             	mov    %rbx,%rdi
  4058c1:	e8 ca f5 ff ff       	callq  404e90 <_ZNSt7__cxx1112basic_stringIcSt11char_traitsIcESaIcEEC1Ev@plt>
  4058c6:	48 8b 45 e8          	mov    -0x18(%rbp),%rax
  4058ca:	48 89 18             	mov    %rbx,(%rax)
  4058cd:	eb 16                	jmp    4058e5 <_ZN6google8protobuf8internal14ArenaStringPtr21CreateInstanceNoArenaEPKNSt7__cxx1112basic_stringIcSt11char_traitsIcESaIcEEE+0x73>
  4058cf:	49 89 c4             	mov    %rax,%r12
  4058d2:	48 89 df             	mov    %rbx,%rdi
  4058d5:	e8 46 f6 ff ff       	callq  404f20 <_ZdlPv@plt>
  4058da:	4c 89 e0             	mov    %r12,%rax
  4058dd:	48 89 c7             	mov    %rax,%rdi
  4058e0:	e8 cb f6 ff ff       	callq  404fb0 <_Unwind_Resume@plt>
  4058e5:	48 83 c4 10          	add    $0x10,%rsp
  4058e9:	5b                   	pop    %rbx
  4058ea:	41 5c                	pop    %r12
  4058ec:	5d                   	pop    %rbp
  4058ed:	c3                   	retq   

00000000004058ee <_ZNK6google8protobuf8internal20RepeatedPtrFieldBase4sizeEv>:
  4058ee:	55                   	push   %rbp
  4058ef:	48 89 e5             	mov    %rsp,%rbp
  4058f2:	48 89 7d f8          	mov    %rdi,-0x8(%rbp)
  4058f6:	48 8b 45 f8          	mov    -0x8(%rbp),%rax
  4058fa:	8b 40 08             	mov    0x8(%rax),%eax
  4058fd:	5d                   	pop    %rbp
  4058fe:	c3                   	retq   
  4058ff:	90                   	nop

0000000000405900 <_ZN5caffe15FillerParameter12set_has_typeEv>:
  405900:	55                   	push   %rbp
  405901:	48 89 e5             	mov    %rsp,%rbp
  405904:	48 89 7d e8          	mov    %rdi,-0x18(%rbp)
  405908:	48 8b 45 e8          	mov    -0x18(%rbp),%rax
  40590c:	48 83 c0 10          	add    $0x10,%rax
  405910:	48 89 45 f8          	mov    %rax,-0x8(%rbp)
  405914:	c7 45 f4 00 00 00 00 	movl   $0x0,-0xc(%rbp)
  40591b:	8b 45 f4             	mov    -0xc(%rbp),%eax
  40591e:	48 98                	cltq   
  405920:	48 8d 14 85 00 00 00 	lea    0x0(,%rax,4),%rdx
  405927:	00 
  405928:	48 8b 45 f8          	mov    -0x8(%rbp),%rax
  40592c:	48 01 d0             	add    %rdx,%rax
  40592f:	8b 10                	mov    (%rax),%edx
  405931:	83 ca 01             	or     $0x1,%edx
  405934:	89 10                	mov    %edx,(%rax)
  405936:	90                   	nop
  405937:	5d                   	pop    %rbp
  405938:	c3                   	retq   
  405939:	90                   	nop

000000000040593a <_ZN5caffe15FillerParameter8set_typeEPKc>:
  40593a:	55                   	push   %rbp
  40593b:	48 89 e5             	mov    %rsp,%rbp
  40593e:	53                   	push   %rbx
  40593f:	48 83 ec 58          	sub    $0x58,%rsp
  405943:	48 89 7d a8          	mov    %rdi,-0x58(%rbp)
  405947:	48 89 75 a0          	mov    %rsi,-0x60(%rbp)
  40594b:	64 48 8b 04 25 28 00 	mov    %fs:0x28,%rax
  405952:	00 00 
  405954:	48 89 45 e8          	mov    %rax,-0x18(%rbp)
  405958:	31 c0                	xor    %eax,%eax
  40595a:	48 8b 45 a8          	mov    -0x58(%rbp),%rax
  40595e:	48 89 c7             	mov    %rax,%rdi
  405961:	e8 9a ff ff ff       	callq  405900 <_ZN5caffe15FillerParameter12set_has_typeEv>
  405966:	48 8d 45 bf          	lea    -0x41(%rbp),%rax
  40596a:	48 89 c7             	mov    %rax,%rdi
  40596d:	e8 ce f7 ff ff       	callq  405140 <_ZNSaIcEC1Ev@plt>
  405972:	48 8d 55 bf          	lea    -0x41(%rbp),%rdx
  405976:	48 8b 4d a0          	mov    -0x60(%rbp),%rcx
  40597a:	48 8d 45 c0          	lea    -0x40(%rbp),%rax
  40597e:	48 89 ce             	mov    %rcx,%rsi
  405981:	48 89 c7             	mov    %rax,%rdi
  405984:	e8 17 f7 ff ff       	callq  4050a0 <_ZNSt7__cxx1112basic_stringIcSt11char_traitsIcESaIcEEC1EPKcRKS3_@plt>
  405989:	48 8b 05 38 da 20 00 	mov    0x20da38(%rip),%rax        # 6133c8 <_ZN5caffe15FillerParameter14_default_type_B5cxx11E>
  405990:	48 8b 55 a8          	mov    -0x58(%rbp),%rdx
  405994:	48 8d 4a 18          	lea    0x18(%rdx),%rcx
  405998:	48 8d 55 c0          	lea    -0x40(%rbp),%rdx
  40599c:	48 89 c6             	mov    %rax,%rsi
  40599f:	48 89 cf             	mov    %rcx,%rdi
  4059a2:	e8 7b fe ff ff       	callq  405822 <_ZN6google8protobuf8internal14ArenaStringPtr10SetNoArenaEPKNSt7__cxx1112basic_stringIcSt11char_traitsIcESaIcEEERS9_>
  4059a7:	48 8d 45 c0          	lea    -0x40(%rbp),%rax
  4059ab:	48 89 c7             	mov    %rax,%rdi
  4059ae:	e8 7d f6 ff ff       	callq  405030 <_ZNSt7__cxx1112basic_stringIcSt11char_traitsIcESaIcEED1Ev@plt>
  4059b3:	48 8d 45 bf          	lea    -0x41(%rbp),%rax
  4059b7:	48 89 c7             	mov    %rax,%rdi
  4059ba:	e8 21 f9 ff ff       	callq  4052e0 <_ZNSaIcED1Ev@plt>
  4059bf:	90                   	nop
  4059c0:	48 8b 45 e8          	mov    -0x18(%rbp),%rax
  4059c4:	64 48 33 04 25 28 00 	xor    %fs:0x28,%rax
  4059cb:	00 00 
  4059cd:	74 32                	je     405a01 <_ZN5caffe15FillerParameter8set_typeEPKc+0xc7>
  4059cf:	eb 2b                	jmp    4059fc <_ZN5caffe15FillerParameter8set_typeEPKc+0xc2>
  4059d1:	48 89 c3             	mov    %rax,%rbx
  4059d4:	48 8d 45 c0          	lea    -0x40(%rbp),%rax
  4059d8:	48 89 c7             	mov    %rax,%rdi
  4059db:	e8 50 f6 ff ff       	callq  405030 <_ZNSt7__cxx1112basic_stringIcSt11char_traitsIcESaIcEED1Ev@plt>
  4059e0:	eb 03                	jmp    4059e5 <_ZN5caffe15FillerParameter8set_typeEPKc+0xab>
  4059e2:	48 89 c3             	mov    %rax,%rbx
  4059e5:	48 8d 45 bf          	lea    -0x41(%rbp),%rax
  4059e9:	48 89 c7             	mov    %rax,%rdi
  4059ec:	e8 ef f8 ff ff       	callq  4052e0 <_ZNSaIcED1Ev@plt>
  4059f1:	48 89 d8             	mov    %rbx,%rax
  4059f4:	48 89 c7             	mov    %rax,%rdi
  4059f7:	e8 b4 f5 ff ff       	callq  404fb0 <_Unwind_Resume@plt>
  4059fc:	e8 1f f4 ff ff       	callq  404e20 <__stack_chk_fail@plt>
  405a01:	48 83 c4 58          	add    $0x58,%rsp
  405a05:	5b                   	pop    %rbx
  405a06:	5d                   	pop    %rbp
  405a07:	c3                   	retq   

0000000000405a08 <_ZN5caffe15FillerParameter13set_has_valueEv>:
  405a08:	55                   	push   %rbp
  405a09:	48 89 e5             	mov    %rsp,%rbp
  405a0c:	48 89 7d e8          	mov    %rdi,-0x18(%rbp)
  405a10:	48 8b 45 e8          	mov    -0x18(%rbp),%rax
  405a14:	48 83 c0 10          	add    $0x10,%rax
  405a18:	48 89 45 f8          	mov    %rax,-0x8(%rbp)
  405a1c:	c7 45 f4 00 00 00 00 	movl   $0x0,-0xc(%rbp)
  405a23:	8b 45 f4             	mov    -0xc(%rbp),%eax
  405a26:	48 98                	cltq   
  405a28:	48 8d 14 85 00 00 00 	lea    0x0(,%rax,4),%rdx
  405a2f:	00 
  405a30:	48 8b 45 f8          	mov    -0x8(%rbp),%rax
  405a34:	48 01 d0             	add    %rdx,%rax
  405a37:	8b 10                	mov    (%rax),%edx
  405a39:	83 ca 02             	or     $0x2,%edx
  405a3c:	89 10                	mov    %edx,(%rax)
  405a3e:	90                   	nop
  405a3f:	5d                   	pop    %rbp
  405a40:	c3                   	retq   
  405a41:	90                   	nop

0000000000405a42 <_ZN5caffe15FillerParameter9set_valueEf>:
  405a42:	55                   	push   %rbp
  405a43:	48 89 e5             	mov    %rsp,%rbp
  405a46:	48 83 ec 10          	sub    $0x10,%rsp
  405a4a:	48 89 7d f8          	mov    %rdi,-0x8(%rbp)
  405a4e:	f3 0f 11 45 f4       	movss  %xmm0,-0xc(%rbp)
  405a53:	48 8b 45 f8          	mov    -0x8(%rbp),%rax
  405a57:	48 89 c7             	mov    %rax,%rdi
  405a5a:	e8 a9 ff ff ff       	callq  405a08 <_ZN5caffe15FillerParameter13set_has_valueEv>
  405a5f:	48 8b 45 f8          	mov    -0x8(%rbp),%rax
  405a63:	f3 0f 10 45 f4       	movss  -0xc(%rbp),%xmm0
  405a68:	f3 0f 11 40 20       	movss  %xmm0,0x20(%rax)
  405a6d:	90                   	nop
  405a6e:	c9                   	leaveq 
  405a6f:	c3                   	retq   

0000000000405a70 <_ZNK5caffe14LayerParameter5phaseEv>:
  405a70:	55                   	push   %rbp
  405a71:	48 89 e5             	mov    %rsp,%rbp
  405a74:	48 89 7d f8          	mov    %rdi,-0x8(%rbp)
  405a78:	48 8b 45 f8          	mov    -0x8(%rbp),%rax
  405a7c:	8b 80 50 02 00 00    	mov    0x250(%rax),%eax
  405a82:	5d                   	pop    %rbp
  405a83:	c3                   	retq   

0000000000405a84 <_ZNK5caffe14LayerParameter16loss_weight_sizeEv>:
  405a84:	55                   	push   %rbp
  405a85:	48 89 e5             	mov    %rsp,%rbp
  405a88:	48 83 ec 10          	sub    $0x10,%rsp
  405a8c:	48 89 7d f8          	mov    %rdi,-0x8(%rbp)
  405a90:	48 8b 45 f8          	mov    -0x8(%rbp),%rax
  405a94:	48 83 c0 48          	add    $0x48,%rax
  405a98:	48 89 c7             	mov    %rax,%rdi
  405a9b:	e8 46 12 00 00       	callq  406ce6 <_ZNK6google8protobuf13RepeatedFieldIfE4sizeEv>
  405aa0:	c9                   	leaveq 
  405aa1:	c3                   	retq   

0000000000405aa2 <_ZNK5caffe14LayerParameter11loss_weightEi>:
  405aa2:	55                   	push   %rbp
  405aa3:	48 89 e5             	mov    %rsp,%rbp
  405aa6:	48 83 ec 10          	sub    $0x10,%rsp
  405aaa:	48 89 7d f8          	mov    %rdi,-0x8(%rbp)
  405aae:	89 75 f4             	mov    %esi,-0xc(%rbp)
  405ab1:	48 8b 45 f8          	mov    -0x8(%rbp),%rax
  405ab5:	48 8d 50 48          	lea    0x48(%rax),%rdx
  405ab9:	8b 45 f4             	mov    -0xc(%rbp),%eax
  405abc:	89 c6                	mov    %eax,%esi
  405abe:	48 89 d7             	mov    %rdx,%rdi
  405ac1:	e8 30 12 00 00       	callq  406cf6 <_ZNK6google8protobuf13RepeatedFieldIfE3GetEi>
  405ac6:	f3 0f 10 00          	movss  (%rax),%xmm0
  405aca:	c9                   	leaveq 
  405acb:	c3                   	retq   

0000000000405acc <_ZNK5caffe14LayerParameter10blobs_sizeEv>:
  405acc:	55                   	push   %rbp
  405acd:	48 89 e5             	mov    %rsp,%rbp
  405ad0:	48 83 ec 10          	sub    $0x10,%rsp
  405ad4:	48 89 7d f8          	mov    %rdi,-0x8(%rbp)
  405ad8:	48 8b 45 f8          	mov    -0x8(%rbp),%rax
  405adc:	48 83 c0 70          	add    $0x70,%rax
  405ae0:	48 89 c7             	mov    %rax,%rdi
  405ae3:	e8 c6 13 00 00       	callq  406eae <_ZNK6google8protobuf16RepeatedPtrFieldIN5caffe9BlobProtoEE4sizeEv>
  405ae8:	c9                   	leaveq 
  405ae9:	c3                   	retq   

0000000000405aea <_ZN5caffe14LayerParameter11clear_blobsEv>:
  405aea:	55                   	push   %rbp
  405aeb:	48 89 e5             	mov    %rsp,%rbp
  405aee:	48 83 ec 10          	sub    $0x10,%rsp
  405af2:	48 89 7d f8          	mov    %rdi,-0x8(%rbp)
  405af6:	48 8b 45 f8          	mov    -0x8(%rbp),%rax
  405afa:	48 83 c0 70          	add    $0x70,%rax
  405afe:	48 89 c7             	mov    %rax,%rdi
  405b01:	e8 c2 13 00 00       	callq  406ec8 <_ZN6google8protobuf16RepeatedPtrFieldIN5caffe9BlobProtoEE5ClearEv>
  405b06:	90                   	nop
  405b07:	c9                   	leaveq 
  405b08:	c3                   	retq   
  405b09:	90                   	nop

0000000000405b0a <_ZNK5caffe14LayerParameter5blobsEi>:
  405b0a:	55                   	push   %rbp
  405b0b:	48 89 e5             	mov    %rsp,%rbp
  405b0e:	48 83 ec 10          	sub    $0x10,%rsp
  405b12:	48 89 7d f8          	mov    %rdi,-0x8(%rbp)
  405b16:	89 75 f4             	mov    %esi,-0xc(%rbp)
  405b19:	48 8b 45 f8          	mov    -0x8(%rbp),%rax
  405b1d:	48 8d 50 70          	lea    0x70(%rax),%rdx
  405b21:	8b 45 f4             	mov    -0xc(%rbp),%eax
  405b24:	89 c6                	mov    %eax,%esi
  405b26:	48 89 d7             	mov    %rdx,%rdi
  405b29:	e8 b6 13 00 00       	callq  406ee4 <_ZNK6google8protobuf16RepeatedPtrFieldIN5caffe9BlobProtoEE3GetEi>
  405b2e:	c9                   	leaveq 
  405b2f:	c3                   	retq   

0000000000405b30 <_ZN5caffe14LayerParameter9add_blobsEv>:
  405b30:	55                   	push   %rbp
  405b31:	48 89 e5             	mov    %rsp,%rbp
  405b34:	48 83 ec 10          	sub    $0x10,%rsp
  405b38:	48 89 7d f8          	mov    %rdi,-0x8(%rbp)
  405b3c:	48 8b 45 f8          	mov    -0x8(%rbp),%rax
  405b40:	48 83 c0 70          	add    $0x70,%rax
  405b44:	48 89 c7             	mov    %rax,%rdi
  405b47:	e8 ba 13 00 00       	callq  406f06 <_ZN6google8protobuf16RepeatedPtrFieldIN5caffe9BlobProtoEE3AddEv>
  405b4c:	c9                   	leaveq 
  405b4d:	c3                   	retq   

0000000000405b4e <_ZN5caffe14LayerParameter25set_has_convolution_paramEv>:
  405b4e:	55                   	push   %rbp
  405b4f:	48 89 e5             	mov    %rsp,%rbp
  405b52:	48 89 7d e8          	mov    %rdi,-0x18(%rbp)
  405b56:	48 8b 45 e8          	mov    -0x18(%rbp),%rax
  405b5a:	48 83 c0 10          	add    $0x10,%rax
  405b5e:	48 89 45 f8          	mov    %rax,-0x8(%rbp)
  405b62:	c7 45 f4 00 00 00 00 	movl   $0x0,-0xc(%rbp)
  405b69:	8b 45 f4             	mov    -0xc(%rbp),%eax
  405b6c:	48 98                	cltq   
  405b6e:	48 8d 14 85 00 00 00 	lea    0x0(,%rax,4),%rdx
  405b75:	00 
  405b76:	48 8b 45 f8          	mov    -0x8(%rbp),%rax
  405b7a:	48 01 d0             	add    %rdx,%rax
  405b7d:	8b 10                	mov    (%rax),%edx
  405b7f:	81 ca 00 00 08 00    	or     $0x80000,%edx
  405b85:	89 10                	mov    %edx,(%rax)
  405b87:	90                   	nop
  405b88:	5d                   	pop    %rbp
  405b89:	c3                   	retq   

0000000000405b8a <_ZN5caffe14LayerParameter25mutable_convolution_paramEv>:
  405b8a:	55                   	push   %rbp
  405b8b:	48 89 e5             	mov    %rsp,%rbp
  405b8e:	41 54                	push   %r12
  405b90:	53                   	push   %rbx
  405b91:	48 83 ec 10          	sub    $0x10,%rsp
  405b95:	48 89 7d e8          	mov    %rdi,-0x18(%rbp)
  405b99:	48 8b 45 e8          	mov    -0x18(%rbp),%rax
  405b9d:	48 89 c7             	mov    %rax,%rdi
  405ba0:	e8 a9 ff ff ff       	callq  405b4e <_ZN5caffe14LayerParameter25set_has_convolution_paramEv>
  405ba5:	48 8b 45 e8          	mov    -0x18(%rbp),%rax
  405ba9:	48 8b 80 18 01 00 00 	mov    0x118(%rax),%rax
  405bb0:	48 85 c0             	test   %rax,%rax
  405bb3:	75 20                	jne    405bd5 <_ZN5caffe14LayerParameter25mutable_convolution_paramEv+0x4b>
  405bb5:	bf 98 00 00 00       	mov    $0x98,%edi
  405bba:	e8 f1 f1 ff ff       	callq  404db0 <_Znwm@plt>
  405bbf:	48 89 c3             	mov    %rax,%rbx
  405bc2:	48 89 df             	mov    %rbx,%rdi
  405bc5:	e8 26 f2 ff ff       	callq  404df0 <_ZN5caffe20ConvolutionParameterC1Ev@plt>
  405bca:	48 8b 45 e8          	mov    -0x18(%rbp),%rax
  405bce:	48 89 98 18 01 00 00 	mov    %rbx,0x118(%rax)
  405bd5:	48 8b 45 e8          	mov    -0x18(%rbp),%rax
  405bd9:	48 8b 80 18 01 00 00 	mov    0x118(%rax),%rax
  405be0:	eb 16                	jmp    405bf8 <_ZN5caffe14LayerParameter25mutable_convolution_paramEv+0x6e>
  405be2:	49 89 c4             	mov    %rax,%r12
  405be5:	48 89 df             	mov    %rbx,%rdi
  405be8:	e8 33 f3 ff ff       	callq  404f20 <_ZdlPv@plt>
  405bed:	4c 89 e0             	mov    %r12,%rax
  405bf0:	48 89 c7             	mov    %rax,%rdi
  405bf3:	e8 b8 f3 ff ff       	callq  404fb0 <_Unwind_Resume@plt>
  405bf8:	48 83 c4 10          	add    $0x10,%rsp
  405bfc:	5b                   	pop    %rbx
  405bfd:	41 5c                	pop    %r12
  405bff:	5d                   	pop    %rbp
  405c00:	c3                   	retq   
  405c01:	90                   	nop

0000000000405c02 <_ZN5caffe20ConvolutionParameter18set_has_num_outputEv>:
  405c02:	55                   	push   %rbp
  405c03:	48 89 e5             	mov    %rsp,%rbp
  405c06:	48 89 7d e8          	mov    %rdi,-0x18(%rbp)
  405c0a:	48 8b 45 e8          	mov    -0x18(%rbp),%rax
  405c0e:	48 83 c0 10          	add    $0x10,%rax
  405c12:	48 89 45 f8          	mov    %rax,-0x8(%rbp)
  405c16:	c7 45 f4 00 00 00 00 	movl   $0x0,-0xc(%rbp)
  405c1d:	8b 45 f4             	mov    -0xc(%rbp),%eax
  405c20:	48 98                	cltq   
  405c22:	48 8d 14 85 00 00 00 	lea    0x0(,%rax,4),%rdx
  405c29:	00 
  405c2a:	48 8b 45 f8          	mov    -0x8(%rbp),%rax
  405c2e:	48 01 d0             	add    %rdx,%rax
  405c31:	8b 10                	mov    (%rax),%edx
  405c33:	83 ca 01             	or     $0x1,%edx
  405c36:	89 10                	mov    %edx,(%rax)
  405c38:	90                   	nop
  405c39:	5d                   	pop    %rbp
  405c3a:	c3                   	retq   
  405c3b:	90                   	nop

0000000000405c3c <_ZN5caffe20ConvolutionParameter14set_num_outputEj>:
  405c3c:	55                   	push   %rbp
  405c3d:	48 89 e5             	mov    %rsp,%rbp
  405c40:	48 83 ec 10          	sub    $0x10,%rsp
  405c44:	48 89 7d f8          	mov    %rdi,-0x8(%rbp)
  405c48:	89 75 f4             	mov    %esi,-0xc(%rbp)
  405c4b:	48 8b 45 f8          	mov    -0x8(%rbp),%rax
  405c4f:	48 89 c7             	mov    %rax,%rdi
  405c52:	e8 ab ff ff ff       	callq  405c02 <_ZN5caffe20ConvolutionParameter18set_has_num_outputEv>
  405c57:	48 8b 45 f8          	mov    -0x8(%rbp),%rax
  405c5b:	8b 55 f4             	mov    -0xc(%rbp),%edx
  405c5e:	89 50 68             	mov    %edx,0x68(%rax)
  405c61:	90                   	nop
  405c62:	c9                   	leaveq 
  405c63:	c3                   	retq   

0000000000405c64 <_ZN5caffe20ConvolutionParameter13set_has_pad_hEv>:
  405c64:	55                   	push   %rbp
  405c65:	48 89 e5             	mov    %rsp,%rbp
  405c68:	48 89 7d e8          	mov    %rdi,-0x18(%rbp)
  405c6c:	48 8b 45 e8          	mov    -0x18(%rbp),%rax
  405c70:	48 83 c0 10          	add    $0x10,%rax
  405c74:	48 89 45 f8          	mov    %rax,-0x8(%rbp)
  405c78:	c7 45 f4 00 00 00 00 	movl   $0x0,-0xc(%rbp)
  405c7f:	8b 45 f4             	mov    -0xc(%rbp),%eax
  405c82:	48 98                	cltq   
  405c84:	48 8d 14 85 00 00 00 	lea    0x0(,%rax,4),%rdx
  405c8b:	00 
  405c8c:	48 8b 45 f8          	mov    -0x8(%rbp),%rax
  405c90:	48 01 d0             	add    %rdx,%rax
  405c93:	8b 10                	mov    (%rax),%edx
  405c95:	83 ca 40             	or     $0x40,%edx
  405c98:	89 10                	mov    %edx,(%rax)
  405c9a:	90                   	nop
  405c9b:	5d                   	pop    %rbp
  405c9c:	c3                   	retq   
  405c9d:	90                   	nop

0000000000405c9e <_ZN5caffe20ConvolutionParameter9set_pad_hEj>:
  405c9e:	55                   	push   %rbp
  405c9f:	48 89 e5             	mov    %rsp,%rbp
  405ca2:	48 83 ec 10          	sub    $0x10,%rsp
  405ca6:	48 89 7d f8          	mov    %rdi,-0x8(%rbp)
  405caa:	89 75 f4             	mov    %esi,-0xc(%rbp)
  405cad:	48 8b 45 f8          	mov    -0x8(%rbp),%rax
  405cb1:	48 89 c7             	mov    %rax,%rdi
  405cb4:	e8 ab ff ff ff       	callq  405c64 <_ZN5caffe20ConvolutionParameter13set_has_pad_hEv>
  405cb9:	48 8b 45 f8          	mov    -0x8(%rbp),%rax
  405cbd:	8b 55 f4             	mov    -0xc(%rbp),%edx
  405cc0:	89 50 6c             	mov    %edx,0x6c(%rax)
  405cc3:	90                   	nop
  405cc4:	c9                   	leaveq 
  405cc5:	c3                   	retq   

0000000000405cc6 <_ZN5caffe20ConvolutionParameter13set_has_pad_wEv>:
  405cc6:	55                   	push   %rbp
  405cc7:	48 89 e5             	mov    %rsp,%rbp
  405cca:	48 89 7d e8          	mov    %rdi,-0x18(%rbp)
  405cce:	48 8b 45 e8          	mov    -0x18(%rbp),%rax
  405cd2:	48 83 c0 10          	add    $0x10,%rax
  405cd6:	48 89 45 f8          	mov    %rax,-0x8(%rbp)
  405cda:	c7 45 f4 00 00 00 00 	movl   $0x0,-0xc(%rbp)
  405ce1:	8b 45 f4             	mov    -0xc(%rbp),%eax
  405ce4:	48 98                	cltq   
  405ce6:	48 8d 14 85 00 00 00 	lea    0x0(,%rax,4),%rdx
  405ced:	00 
  405cee:	48 8b 45 f8          	mov    -0x8(%rbp),%rax
  405cf2:	48 01 d0             	add    %rdx,%rax
  405cf5:	8b 10                	mov    (%rax),%edx
  405cf7:	80 ca 80             	or     $0x80,%dl
  405cfa:	89 10                	mov    %edx,(%rax)
  405cfc:	90                   	nop
  405cfd:	5d                   	pop    %rbp
  405cfe:	c3                   	retq   
  405cff:	90                   	nop

0000000000405d00 <_ZN5caffe20ConvolutionParameter9set_pad_wEj>:
  405d00:	55                   	push   %rbp
  405d01:	48 89 e5             	mov    %rsp,%rbp
  405d04:	48 83 ec 10          	sub    $0x10,%rsp
  405d08:	48 89 7d f8          	mov    %rdi,-0x8(%rbp)
  405d0c:	89 75 f4             	mov    %esi,-0xc(%rbp)
  405d0f:	48 8b 45 f8          	mov    -0x8(%rbp),%rax
  405d13:	48 89 c7             	mov    %rax,%rdi
  405d16:	e8 ab ff ff ff       	callq  405cc6 <_ZN5caffe20ConvolutionParameter13set_has_pad_wEv>
  405d1b:	48 8b 45 f8          	mov    -0x8(%rbp),%rax
  405d1f:	8b 55 f4             	mov    -0xc(%rbp),%edx
  405d22:	89 50 70             	mov    %edx,0x70(%rax)
  405d25:	90                   	nop
  405d26:	c9                   	leaveq 
  405d27:	c3                   	retq   

0000000000405d28 <_ZN5caffe20ConvolutionParameter16set_has_kernel_hEv>:
  405d28:	55                   	push   %rbp
  405d29:	48 89 e5             	mov    %rsp,%rbp
  405d2c:	48 89 7d e8          	mov    %rdi,-0x18(%rbp)
  405d30:	48 8b 45 e8          	mov    -0x18(%rbp),%rax
  405d34:	48 83 c0 10          	add    $0x10,%rax
  405d38:	48 89 45 f8          	mov    %rax,-0x8(%rbp)
  405d3c:	c7 45 f4 00 00 00 00 	movl   $0x0,-0xc(%rbp)
  405d43:	8b 45 f4             	mov    -0xc(%rbp),%eax
  405d46:	48 98                	cltq   
  405d48:	48 8d 14 85 00 00 00 	lea    0x0(,%rax,4),%rdx
  405d4f:	00 
  405d50:	48 8b 45 f8          	mov    -0x8(%rbp),%rax
  405d54:	48 01 d0             	add    %rdx,%rax
  405d57:	8b 10                	mov    (%rax),%edx
  405d59:	80 ce 01             	or     $0x1,%dh
  405d5c:	89 10                	mov    %edx,(%rax)
  405d5e:	90                   	nop
  405d5f:	5d                   	pop    %rbp
  405d60:	c3                   	retq   
  405d61:	90                   	nop

0000000000405d62 <_ZN5caffe20ConvolutionParameter12set_kernel_hEj>:
  405d62:	55                   	push   %rbp
  405d63:	48 89 e5             	mov    %rsp,%rbp
  405d66:	48 83 ec 10          	sub    $0x10,%rsp
  405d6a:	48 89 7d f8          	mov    %rdi,-0x8(%rbp)
  405d6e:	89 75 f4             	mov    %esi,-0xc(%rbp)
  405d71:	48 8b 45 f8          	mov    -0x8(%rbp),%rax
  405d75:	48 89 c7             	mov    %rax,%rdi
  405d78:	e8 ab ff ff ff       	callq  405d28 <_ZN5caffe20ConvolutionParameter16set_has_kernel_hEv>
  405d7d:	48 8b 45 f8          	mov    -0x8(%rbp),%rax
  405d81:	8b 55 f4             	mov    -0xc(%rbp),%edx
  405d84:	89 50 74             	mov    %edx,0x74(%rax)
  405d87:	90                   	nop
  405d88:	c9                   	leaveq 
  405d89:	c3                   	retq   

0000000000405d8a <_ZN5caffe20ConvolutionParameter16set_has_kernel_wEv>:
  405d8a:	55                   	push   %rbp
  405d8b:	48 89 e5             	mov    %rsp,%rbp
  405d8e:	48 89 7d e8          	mov    %rdi,-0x18(%rbp)
  405d92:	48 8b 45 e8          	mov    -0x18(%rbp),%rax
  405d96:	48 83 c0 10          	add    $0x10,%rax
  405d9a:	48 89 45 f8          	mov    %rax,-0x8(%rbp)
  405d9e:	c7 45 f4 00 00 00 00 	movl   $0x0,-0xc(%rbp)
  405da5:	8b 45 f4             	mov    -0xc(%rbp),%eax
  405da8:	48 98                	cltq   
  405daa:	48 8d 14 85 00 00 00 	lea    0x0(,%rax,4),%rdx
  405db1:	00 
  405db2:	48 8b 45 f8          	mov    -0x8(%rbp),%rax
  405db6:	48 01 d0             	add    %rdx,%rax
  405db9:	8b 10                	mov    (%rax),%edx
  405dbb:	80 ce 02             	or     $0x2,%dh
  405dbe:	89 10                	mov    %edx,(%rax)
  405dc0:	90                   	nop
  405dc1:	5d                   	pop    %rbp
  405dc2:	c3                   	retq   
  405dc3:	90                   	nop

0000000000405dc4 <_ZN5caffe20ConvolutionParameter12set_kernel_wEj>:
  405dc4:	55                   	push   %rbp
  405dc5:	48 89 e5             	mov    %rsp,%rbp
  405dc8:	48 83 ec 10          	sub    $0x10,%rsp
  405dcc:	48 89 7d f8          	mov    %rdi,-0x8(%rbp)
  405dd0:	89 75 f4             	mov    %esi,-0xc(%rbp)
  405dd3:	48 8b 45 f8          	mov    -0x8(%rbp),%rax
  405dd7:	48 89 c7             	mov    %rax,%rdi
  405dda:	e8 ab ff ff ff       	callq  405d8a <_ZN5caffe20ConvolutionParameter16set_has_kernel_wEv>
  405ddf:	48 8b 45 f8          	mov    -0x8(%rbp),%rax
  405de3:	8b 55 f4             	mov    -0xc(%rbp),%edx
  405de6:	89 50 78             	mov    %edx,0x78(%rax)
  405de9:	90                   	nop
  405dea:	c9                   	leaveq 
  405deb:	c3                   	retq   

0000000000405dec <_ZN5caffe20ConvolutionParameter16set_has_stride_hEv>:
  405dec:	55                   	push   %rbp
  405ded:	48 89 e5             	mov    %rsp,%rbp
  405df0:	48 89 7d e8          	mov    %rdi,-0x18(%rbp)
  405df4:	48 8b 45 e8          	mov    -0x18(%rbp),%rax
  405df8:	48 83 c0 10          	add    $0x10,%rax
  405dfc:	48 89 45 f8          	mov    %rax,-0x8(%rbp)
  405e00:	c7 45 f4 00 00 00 00 	movl   $0x0,-0xc(%rbp)
  405e07:	8b 45 f4             	mov    -0xc(%rbp),%eax
  405e0a:	48 98                	cltq   
  405e0c:	48 8d 14 85 00 00 00 	lea    0x0(,%rax,4),%rdx
  405e13:	00 
  405e14:	48 8b 45 f8          	mov    -0x8(%rbp),%rax
  405e18:	48 01 d0             	add    %rdx,%rax
  405e1b:	8b 10                	mov    (%rax),%edx
  405e1d:	80 ce 04             	or     $0x4,%dh
  405e20:	89 10                	mov    %edx,(%rax)
  405e22:	90                   	nop
  405e23:	5d                   	pop    %rbp
  405e24:	c3                   	retq   
  405e25:	90                   	nop

0000000000405e26 <_ZN5caffe20ConvolutionParameter12set_stride_hEj>:
  405e26:	55                   	push   %rbp
  405e27:	48 89 e5             	mov    %rsp,%rbp
  405e2a:	48 83 ec 10          	sub    $0x10,%rsp
  405e2e:	48 89 7d f8          	mov    %rdi,-0x8(%rbp)
  405e32:	89 75 f4             	mov    %esi,-0xc(%rbp)
  405e35:	48 8b 45 f8          	mov    -0x8(%rbp),%rax
  405e39:	48 89 c7             	mov    %rax,%rdi
  405e3c:	e8 ab ff ff ff       	callq  405dec <_ZN5caffe20ConvolutionParameter16set_has_stride_hEv>
  405e41:	48 8b 45 f8          	mov    -0x8(%rbp),%rax
  405e45:	8b 55 f4             	mov    -0xc(%rbp),%edx
  405e48:	89 50 7c             	mov    %edx,0x7c(%rax)
  405e4b:	90                   	nop
  405e4c:	c9                   	leaveq 
  405e4d:	c3                   	retq   

0000000000405e4e <_ZN5caffe20ConvolutionParameter16set_has_stride_wEv>:
  405e4e:	55                   	push   %rbp
  405e4f:	48 89 e5             	mov    %rsp,%rbp
  405e52:	48 89 7d e8          	mov    %rdi,-0x18(%rbp)
  405e56:	48 8b 45 e8          	mov    -0x18(%rbp),%rax
  405e5a:	48 83 c0 10          	add    $0x10,%rax
  405e5e:	48 89 45 f8          	mov    %rax,-0x8(%rbp)
  405e62:	c7 45 f4 00 00 00 00 	movl   $0x0,-0xc(%rbp)
  405e69:	8b 45 f4             	mov    -0xc(%rbp),%eax
  405e6c:	48 98                	cltq   
  405e6e:	48 8d 14 85 00 00 00 	lea    0x0(,%rax,4),%rdx
  405e75:	00 
  405e76:	48 8b 45 f8          	mov    -0x8(%rbp),%rax
  405e7a:	48 01 d0             	add    %rdx,%rax
  405e7d:	8b 10                	mov    (%rax),%edx
  405e7f:	80 ce 08             	or     $0x8,%dh
  405e82:	89 10                	mov    %edx,(%rax)
  405e84:	90                   	nop
  405e85:	5d                   	pop    %rbp
  405e86:	c3                   	retq   
  405e87:	90                   	nop

0000000000405e88 <_ZN5caffe20ConvolutionParameter12set_stride_wEj>:
  405e88:	55                   	push   %rbp
  405e89:	48 89 e5             	mov    %rsp,%rbp
  405e8c:	48 83 ec 10          	sub    $0x10,%rsp
  405e90:	48 89 7d f8          	mov    %rdi,-0x8(%rbp)
  405e94:	89 75 f4             	mov    %esi,-0xc(%rbp)
  405e97:	48 8b 45 f8          	mov    -0x8(%rbp),%rax
  405e9b:	48 89 c7             	mov    %rax,%rdi
  405e9e:	e8 ab ff ff ff       	callq  405e4e <_ZN5caffe20ConvolutionParameter16set_has_stride_wEv>
  405ea3:	48 8b 45 f8          	mov    -0x8(%rbp),%rax
  405ea7:	8b 55 f4             	mov    -0xc(%rbp),%edx
  405eaa:	89 90 80 00 00 00    	mov    %edx,0x80(%rax)
  405eb0:	90                   	nop
  405eb1:	c9                   	leaveq 
  405eb2:	c3                   	retq   
  405eb3:	90                   	nop

0000000000405eb4 <_ZN5caffe20ConvolutionParameter21set_has_weight_fillerEv>:
  405eb4:	55                   	push   %rbp
  405eb5:	48 89 e5             	mov    %rsp,%rbp
  405eb8:	48 89 7d e8          	mov    %rdi,-0x18(%rbp)
  405ebc:	48 8b 45 e8          	mov    -0x18(%rbp),%rax
  405ec0:	48 83 c0 10          	add    $0x10,%rax
  405ec4:	48 89 45 f8          	mov    %rax,-0x8(%rbp)
  405ec8:	c7 45 f4 00 00 00 00 	movl   $0x0,-0xc(%rbp)
  405ecf:	8b 45 f4             	mov    -0xc(%rbp),%eax
  405ed2:	48 98                	cltq   
  405ed4:	48 8d 14 85 00 00 00 	lea    0x0(,%rax,4),%rdx
  405edb:	00 
  405edc:	48 8b 45 f8          	mov    -0x8(%rbp),%rax
  405ee0:	48 01 d0             	add    %rdx,%rax
  405ee3:	8b 10                	mov    (%rax),%edx
  405ee5:	80 ce 20             	or     $0x20,%dh
  405ee8:	89 10                	mov    %edx,(%rax)
  405eea:	90                   	nop
  405eeb:	5d                   	pop    %rbp
  405eec:	c3                   	retq   
  405eed:	90                   	nop

0000000000405eee <_ZN5caffe20ConvolutionParameter21mutable_weight_fillerEv>:
  405eee:	55                   	push   %rbp
  405eef:	48 89 e5             	mov    %rsp,%rbp
  405ef2:	41 54                	push   %r12
  405ef4:	53                   	push   %rbx
  405ef5:	48 83 ec 10          	sub    $0x10,%rsp
  405ef9:	48 89 7d e8          	mov    %rdi,-0x18(%rbp)
  405efd:	48 8b 45 e8          	mov    -0x18(%rbp),%rax
  405f01:	48 89 c7             	mov    %rax,%rdi
  405f04:	e8 ab ff ff ff       	callq  405eb4 <_ZN5caffe20ConvolutionParameter21set_has_weight_fillerEv>
  405f09:	48 8b 45 e8          	mov    -0x18(%rbp),%rax
  405f0d:	48 8b 40 58          	mov    0x58(%rax),%rax
  405f11:	48 85 c0             	test   %rax,%rax
  405f14:	75 1d                	jne    405f33 <_ZN5caffe20ConvolutionParameter21mutable_weight_fillerEv+0x45>
  405f16:	bf 40 00 00 00       	mov    $0x40,%edi
  405f1b:	e8 90 ee ff ff       	callq  404db0 <_Znwm@plt>
  405f20:	48 89 c3             	mov    %rax,%rbx
  405f23:	48 89 df             	mov    %rbx,%rdi
  405f26:	e8 25 f3 ff ff       	callq  405250 <_ZN5caffe15FillerParameterC1Ev@plt>
  405f2b:	48 8b 45 e8          	mov    -0x18(%rbp),%rax
  405f2f:	48 89 58 58          	mov    %rbx,0x58(%rax)
  405f33:	48 8b 45 e8          	mov    -0x18(%rbp),%rax
  405f37:	48 8b 40 58          	mov    0x58(%rax),%rax
  405f3b:	eb 16                	jmp    405f53 <_ZN5caffe20ConvolutionParameter21mutable_weight_fillerEv+0x65>
  405f3d:	49 89 c4             	mov    %rax,%r12
  405f40:	48 89 df             	mov    %rbx,%rdi
  405f43:	e8 d8 ef ff ff       	callq  404f20 <_ZdlPv@plt>
  405f48:	4c 89 e0             	mov    %r12,%rax
  405f4b:	48 89 c7             	mov    %rax,%rdi
  405f4e:	e8 5d f0 ff ff       	callq  404fb0 <_Unwind_Resume@plt>
  405f53:	48 83 c4 10          	add    $0x10,%rsp
  405f57:	5b                   	pop    %rbx
  405f58:	41 5c                	pop    %r12
  405f5a:	5d                   	pop    %rbp
  405f5b:	c3                   	retq   

0000000000405f5c <_ZN5caffe20ConvolutionParameter19set_has_bias_fillerEv>:
  405f5c:	55                   	push   %rbp
  405f5d:	48 89 e5             	mov    %rsp,%rbp
  405f60:	48 89 7d e8          	mov    %rdi,-0x18(%rbp)
  405f64:	48 8b 45 e8          	mov    -0x18(%rbp),%rax
  405f68:	48 83 c0 10          	add    $0x10,%rax
  405f6c:	48 89 45 f8          	mov    %rax,-0x8(%rbp)
  405f70:	c7 45 f4 00 00 00 00 	movl   $0x0,-0xc(%rbp)
  405f77:	8b 45 f4             	mov    -0xc(%rbp),%eax
  405f7a:	48 98                	cltq   
  405f7c:	48 8d 14 85 00 00 00 	lea    0x0(,%rax,4),%rdx
  405f83:	00 
  405f84:	48 8b 45 f8          	mov    -0x8(%rbp),%rax
  405f88:	48 01 d0             	add    %rdx,%rax
  405f8b:	8b 10                	mov    (%rax),%edx
  405f8d:	80 ce 40             	or     $0x40,%dh
  405f90:	89 10                	mov    %edx,(%rax)
  405f92:	90                   	nop
  405f93:	5d                   	pop    %rbp
  405f94:	c3                   	retq   
  405f95:	90                   	nop

0000000000405f96 <_ZN5caffe20ConvolutionParameter19mutable_bias_fillerEv>:
  405f96:	55                   	push   %rbp
  405f97:	48 89 e5             	mov    %rsp,%rbp
  405f9a:	41 54                	push   %r12
  405f9c:	53                   	push   %rbx
  405f9d:	48 83 ec 10          	sub    $0x10,%rsp
  405fa1:	48 89 7d e8          	mov    %rdi,-0x18(%rbp)
  405fa5:	48 8b 45 e8          	mov    -0x18(%rbp),%rax
  405fa9:	48 89 c7             	mov    %rax,%rdi
  405fac:	e8 ab ff ff ff       	callq  405f5c <_ZN5caffe20ConvolutionParameter19set_has_bias_fillerEv>
  405fb1:	48 8b 45 e8          	mov    -0x18(%rbp),%rax
  405fb5:	48 8b 40 60          	mov    0x60(%rax),%rax
  405fb9:	48 85 c0             	test   %rax,%rax
  405fbc:	75 1d                	jne    405fdb <_ZN5caffe20ConvolutionParameter19mutable_bias_fillerEv+0x45>
  405fbe:	bf 40 00 00 00       	mov    $0x40,%edi
  405fc3:	e8 e8 ed ff ff       	callq  404db0 <_Znwm@plt>
  405fc8:	48 89 c3             	mov    %rax,%rbx
  405fcb:	48 89 df             	mov    %rbx,%rdi
  405fce:	e8 7d f2 ff ff       	callq  405250 <_ZN5caffe15FillerParameterC1Ev@plt>
  405fd3:	48 8b 45 e8          	mov    -0x18(%rbp),%rax
  405fd7:	48 89 58 60          	mov    %rbx,0x60(%rax)
  405fdb:	48 8b 45 e8          	mov    -0x18(%rbp),%rax
  405fdf:	48 8b 40 60          	mov    0x60(%rax),%rax
  405fe3:	eb 16                	jmp    405ffb <_ZN5caffe20ConvolutionParameter19mutable_bias_fillerEv+0x65>
  405fe5:	49 89 c4             	mov    %rax,%r12
  405fe8:	48 89 df             	mov    %rbx,%rdi
  405feb:	e8 30 ef ff ff       	callq  404f20 <_ZdlPv@plt>
  405ff0:	4c 89 e0             	mov    %r12,%rax
  405ff3:	48 89 c7             	mov    %rax,%rdi
  405ff6:	e8 b5 ef ff ff       	callq  404fb0 <_Unwind_Resume@plt>
  405ffb:	48 83 c4 10          	add    $0x10,%rsp
  405fff:	5b                   	pop    %rbx
  406000:	41 5c                	pop    %r12
  406002:	5d                   	pop    %rbp
  406003:	c3                   	retq   

0000000000406004 <_ZN5caffe20ConvolutionParameter23set_has_force_nd_im2colEv>:
  406004:	55                   	push   %rbp
  406005:	48 89 e5             	mov    %rsp,%rbp
  406008:	48 89 7d e8          	mov    %rdi,-0x18(%rbp)
  40600c:	48 8b 45 e8          	mov    -0x18(%rbp),%rax
  406010:	48 83 c0 10          	add    $0x10,%rax
  406014:	48 89 45 f8          	mov    %rax,-0x8(%rbp)
  406018:	c7 45 f4 00 00 00 00 	movl   $0x0,-0xc(%rbp)
  40601f:	8b 45 f4             	mov    -0xc(%rbp),%eax
  406022:	48 98                	cltq   
  406024:	48 8d 14 85 00 00 00 	lea    0x0(,%rax,4),%rdx
  40602b:	00 
  40602c:	48 8b 45 f8          	mov    -0x8(%rbp),%rax
  406030:	48 01 d0             	add    %rdx,%rax
  406033:	8b 10                	mov    (%rax),%edx
  406035:	81 ca 00 00 02 00    	or     $0x20000,%edx
  40603b:	89 10                	mov    %edx,(%rax)
  40603d:	90                   	nop
  40603e:	5d                   	pop    %rbp
  40603f:	c3                   	retq   

0000000000406040 <_ZN5caffe20ConvolutionParameter19set_force_nd_im2colEb>:
  406040:	55                   	push   %rbp
  406041:	48 89 e5             	mov    %rsp,%rbp
  406044:	48 83 ec 10          	sub    $0x10,%rsp
  406048:	48 89 7d f8          	mov    %rdi,-0x8(%rbp)
  40604c:	89 f0                	mov    %esi,%eax
  40604e:	88 45 f4             	mov    %al,-0xc(%rbp)
  406051:	48 8b 45 f8          	mov    -0x8(%rbp),%rax
  406055:	48 89 c7             	mov    %rax,%rdi
  406058:	e8 a7 ff ff ff       	callq  406004 <_ZN5caffe20ConvolutionParameter23set_has_force_nd_im2colEv>
  40605d:	48 8b 45 f8          	mov    -0x8(%rbp),%rax
  406061:	0f b6 55 f4          	movzbl -0xc(%rbp),%edx
  406065:	88 90 88 00 00 00    	mov    %dl,0x88(%rax)
  40606b:	90                   	nop
  40606c:	c9                   	leaveq 
  40606d:	c3                   	retq   

000000000040606e <_ZNK2CK5Shape10data_countEv>:
  40606e:	55                   	push   %rbp
  40606f:	48 89 e5             	mov    %rsp,%rbp
  406072:	48 89 7d f8          	mov    %rdi,-0x8(%rbp)
  406076:	48 8b 45 f8          	mov    -0x8(%rbp),%rax
  40607a:	8b 10                	mov    (%rax),%edx
  40607c:	48 8b 45 f8          	mov    -0x8(%rbp),%rax
  406080:	8b 40 04             	mov    0x4(%rax),%eax
  406083:	0f af d0             	imul   %eax,%edx
  406086:	48 8b 45 f8          	mov    -0x8(%rbp),%rax
  40608a:	8b 40 08             	mov    0x8(%rax),%eax
  40608d:	0f af d0             	imul   %eax,%edx
  406090:	48 8b 45 f8          	mov    -0x8(%rbp),%rax
  406094:	8b 40 0c             	mov    0xc(%rax),%eax
  406097:	0f af c2             	imul   %edx,%eax
  40609a:	5d                   	pop    %rbp
  40609b:	c3                   	retq   

000000000040609c <_ZNK2CK5Shape14get_flat_indexEiiii>:
  40609c:	55                   	push   %rbp
  40609d:	48 89 e5             	mov    %rsp,%rbp
  4060a0:	48 83 ec 20          	sub    $0x20,%rsp
  4060a4:	48 89 7d f8          	mov    %rdi,-0x8(%rbp)
  4060a8:	89 75 f4             	mov    %esi,-0xc(%rbp)
  4060ab:	89 55 f0             	mov    %edx,-0x10(%rbp)
  4060ae:	89 4d ec             	mov    %ecx,-0x14(%rbp)
  4060b1:	44 89 45 e8          	mov    %r8d,-0x18(%rbp)
  4060b5:	8b 7d e8             	mov    -0x18(%rbp),%edi
  4060b8:	8b 4d ec             	mov    -0x14(%rbp),%ecx
  4060bb:	8b 55 f0             	mov    -0x10(%rbp),%edx
  4060be:	8b 75 f4             	mov    -0xc(%rbp),%esi
  4060c1:	48 8b 45 f8          	mov    -0x8(%rbp),%rax
  4060c5:	41 89 f8             	mov    %edi,%r8d
  4060c8:	48 89 c7             	mov    %rax,%rdi
  4060cb:	e8 02 00 00 00       	callq  4060d2 <_ZNK2CK5Shape19get_flat_index_nchwEiiii>
  4060d0:	c9                   	leaveq 
  4060d1:	c3                   	retq   

00000000004060d2 <_ZNK2CK5Shape19get_flat_index_nchwEiiii>:
  4060d2:	55                   	push   %rbp
  4060d3:	48 89 e5             	mov    %rsp,%rbp
  4060d6:	48 89 7d f8          	mov    %rdi,-0x8(%rbp)
  4060da:	89 75 f4             	mov    %esi,-0xc(%rbp)
  4060dd:	89 55 f0             	mov    %edx,-0x10(%rbp)
  4060e0:	89 4d ec             	mov    %ecx,-0x14(%rbp)
  4060e3:	44 89 45 e8          	mov    %r8d,-0x18(%rbp)
  4060e7:	48 8b 45 f8          	mov    -0x8(%rbp),%rax
  4060eb:	8b 40 04             	mov    0x4(%rax),%eax
  4060ee:	0f af 45 f4          	imul   -0xc(%rbp),%eax
  4060f2:	89 c2                	mov    %eax,%edx
  4060f4:	8b 45 f0             	mov    -0x10(%rbp),%eax
  4060f7:	01 c2                	add    %eax,%edx
  4060f9:	48 8b 45 f8          	mov    -0x8(%rbp),%rax
  4060fd:	8b 40 08             	mov    0x8(%rax),%eax
  406100:	0f af d0             	imul   %eax,%edx
  406103:	8b 45 ec             	mov    -0x14(%rbp),%eax
  406106:	01 c2                	add    %eax,%edx
  406108:	48 8b 45 f8          	mov    -0x8(%rbp),%rax
  40610c:	8b 40 0c             	mov    0xc(%rax),%eax
  40610f:	0f af d0             	imul   %eax,%edx
  406112:	8b 45 e8             	mov    -0x18(%rbp),%eax
  406115:	01 d0                	add    %edx,%eax
  406117:	5d                   	pop    %rbp
  406118:	c3                   	retq   

0000000000406119 <_ZN2CK8getenv_iEPKci>:
  406119:	55                   	push   %rbp
  40611a:	48 89 e5             	mov    %rsp,%rbp
  40611d:	48 83 ec 10          	sub    $0x10,%rsp
  406121:	48 89 7d f8          	mov    %rdi,-0x8(%rbp)
  406125:	89 75 f4             	mov    %esi,-0xc(%rbp)
  406128:	48 8b 45 f8          	mov    -0x8(%rbp),%rax
  40612c:	48 89 c7             	mov    %rax,%rdi
  40612f:	e8 ec ee ff ff       	callq  405020 <getenv@plt>
  406134:	48 85 c0             	test   %rax,%rax
  406137:	74 16                	je     40614f <_ZN2CK8getenv_iEPKci+0x36>
  406139:	48 8b 45 f8          	mov    -0x8(%rbp),%rax
  40613d:	48 89 c7             	mov    %rax,%rdi
  406140:	e8 db ee ff ff       	callq  405020 <getenv@plt>
  406145:	48 89 c7             	mov    %rax,%rdi
  406148:	e8 33 ed ff ff       	callq  404e80 <atoi@plt>
  40614d:	eb 03                	jmp    406152 <_ZN2CK8getenv_iEPKci+0x39>
  40614f:	8b 45 f4             	mov    -0xc(%rbp),%eax
  406152:	c9                   	leaveq 
  406153:	c3                   	retq   

0000000000406154 <_ZN2CK8getenv_fEPKcd>:
  406154:	55                   	push   %rbp
  406155:	48 89 e5             	mov    %rsp,%rbp
  406158:	48 83 ec 20          	sub    $0x20,%rsp
  40615c:	48 89 7d f8          	mov    %rdi,-0x8(%rbp)
  406160:	f2 0f 11 45 f0       	movsd  %xmm0,-0x10(%rbp)
  406165:	48 8b 45 f8          	mov    -0x8(%rbp),%rax
  406169:	48 89 c7             	mov    %rax,%rdi
  40616c:	e8 af ee ff ff       	callq  405020 <getenv@plt>
  406171:	48 85 c0             	test   %rax,%rax
  406174:	74 1b                	je     406191 <_ZN2CK8getenv_fEPKcd+0x3d>
  406176:	48 8b 45 f8          	mov    -0x8(%rbp),%rax
  40617a:	48 89 c7             	mov    %rax,%rdi
  40617d:	e8 9e ee ff ff       	callq  405020 <getenv@plt>
  406182:	48 89 c7             	mov    %rax,%rdi
  406185:	e8 06 ef ff ff       	callq  405090 <atof@plt>
  40618a:	66 48 0f 7e c0       	movq   %xmm0,%rax
  40618f:	eb 04                	jmp    406195 <_ZN2CK8getenv_fEPKcd+0x41>
  406191:	48 8b 45 f0          	mov    -0x10(%rbp),%rax
  406195:	48 89 45 e8          	mov    %rax,-0x18(%rbp)
  406199:	f2 0f 10 45 e8       	movsd  -0x18(%rbp),%xmm0
  40619e:	c9                   	leaveq 
  40619f:	c3                   	retq   

00000000004061a0 <_ZN2CK13store_value_iEiPKci>:
  4061a0:	55                   	push   %rbp
  4061a1:	48 89 e5             	mov    %rsp,%rbp
  4061a4:	48 83 ec 20          	sub    $0x20,%rsp
  4061a8:	89 7d ec             	mov    %edi,-0x14(%rbp)
  4061ab:	48 89 75 e0          	mov    %rsi,-0x20(%rbp)
  4061af:	89 55 e8             	mov    %edx,-0x18(%rbp)
  4061b2:	48 8b 45 e0          	mov    -0x20(%rbp),%rax
  4061b6:	48 89 c7             	mov    %rax,%rdi
  4061b9:	e8 f2 ec ff ff       	callq  404eb0 <strlen@plt>
  4061be:	48 83 c0 06          	add    $0x6,%rax
  4061c2:	48 89 c7             	mov    %rax,%rdi
  4061c5:	e8 16 ed ff ff       	callq  404ee0 <_Znam@plt>
  4061ca:	48 89 45 f8          	mov    %rax,-0x8(%rbp)
  4061ce:	48 8b 55 e0          	mov    -0x20(%rbp),%rdx
  4061d2:	48 8b 45 f8          	mov    -0x8(%rbp),%rax
  4061d6:	be 34 d2 40 00       	mov    $0x40d234,%esi
  4061db:	48 89 c7             	mov    %rax,%rdi
  4061de:	b8 00 00 00 00       	mov    $0x0,%eax
  4061e3:	e8 b8 ef ff ff       	callq  4051a0 <sprintf@plt>
  4061e8:	8b 55 e8             	mov    -0x18(%rbp),%edx
  4061eb:	48 8b 4d f8          	mov    -0x8(%rbp),%rcx
  4061ef:	8b 45 ec             	mov    -0x14(%rbp),%eax
  4061f2:	48 89 ce             	mov    %rcx,%rsi
  4061f5:	89 c7                	mov    %eax,%edi
  4061f7:	e8 f4 ec ff ff       	callq  404ef0 <xopenme_add_var_i@plt>
  4061fc:	48 83 7d f8 00       	cmpq   $0x0,-0x8(%rbp)
  406201:	74 0c                	je     40620f <_ZN2CK13store_value_iEiPKci+0x6f>
  406203:	48 8b 45 f8          	mov    -0x8(%rbp),%rax
  406207:	48 89 c7             	mov    %rax,%rdi
  40620a:	e8 91 ec ff ff       	callq  404ea0 <_ZdaPv@plt>
  40620f:	90                   	nop
  406210:	c9                   	leaveq 
  406211:	c3                   	retq   

0000000000406212 <_ZN2CK13store_value_fEiPKcf>:
  406212:	55                   	push   %rbp
  406213:	48 89 e5             	mov    %rsp,%rbp
  406216:	48 83 ec 30          	sub    $0x30,%rsp
  40621a:	89 7d ec             	mov    %edi,-0x14(%rbp)
  40621d:	48 89 75 e0          	mov    %rsi,-0x20(%rbp)
  406221:	f3 0f 11 45 e8       	movss  %xmm0,-0x18(%rbp)
  406226:	48 8b 45 e0          	mov    -0x20(%rbp),%rax
  40622a:	48 89 c7             	mov    %rax,%rdi
  40622d:	e8 7e ec ff ff       	callq  404eb0 <strlen@plt>
  406232:	48 83 c0 06          	add    $0x6,%rax
  406236:	48 89 c7             	mov    %rax,%rdi
  406239:	e8 a2 ec ff ff       	callq  404ee0 <_Znam@plt>
  40623e:	48 89 45 f8          	mov    %rax,-0x8(%rbp)
  406242:	48 8b 55 e0          	mov    -0x20(%rbp),%rdx
  406246:	48 8b 45 f8          	mov    -0x8(%rbp),%rax
  40624a:	be 3d d2 40 00       	mov    $0x40d23d,%esi
  40624f:	48 89 c7             	mov    %rax,%rdi
  406252:	b8 00 00 00 00       	mov    $0x0,%eax
  406257:	e8 44 ef ff ff       	callq  4051a0 <sprintf@plt>
  40625c:	8b 4d e8             	mov    -0x18(%rbp),%ecx
  40625f:	48 8b 55 f8          	mov    -0x8(%rbp),%rdx
  406263:	8b 45 ec             	mov    -0x14(%rbp),%eax
  406266:	89 4d dc             	mov    %ecx,-0x24(%rbp)
  406269:	f3 0f 10 45 dc       	movss  -0x24(%rbp),%xmm0
  40626e:	48 89 d6             	mov    %rdx,%rsi
  406271:	89 c7                	mov    %eax,%edi
  406273:	e8 a8 ea ff ff       	callq  404d20 <xopenme_add_var_f@plt>
  406278:	48 83 7d f8 00       	cmpq   $0x0,-0x8(%rbp)
  40627d:	74 0c                	je     40628b <_ZN2CK13store_value_fEiPKcf+0x79>
  40627f:	48 8b 45 f8          	mov    -0x8(%rbp),%rax
  406283:	48 89 c7             	mov    %rax,%rdi
  406286:	e8 15 ec ff ff       	callq  404ea0 <_ZdaPv@plt>
  40628b:	90                   	nop
  40628c:	c9                   	leaveq 
  40628d:	c3                   	retq   

000000000040628e <_ZN2CK24get_input_shape_from_envEiiii>:
  40628e:	55                   	push   %rbp
  40628f:	48 89 e5             	mov    %rsp,%rbp
  406292:	48 83 ec 30          	sub    $0x30,%rsp
  406296:	89 7d dc             	mov    %edi,-0x24(%rbp)
  406299:	89 75 d8             	mov    %esi,-0x28(%rbp)
  40629c:	89 55 d4             	mov    %edx,-0x2c(%rbp)
  40629f:	89 4d d0             	mov    %ecx,-0x30(%rbp)
  4062a2:	64 48 8b 04 25 28 00 	mov    %fs:0x28,%rax
  4062a9:	00 00 
  4062ab:	48 89 45 f8          	mov    %rax,-0x8(%rbp)
  4062af:	31 c0                	xor    %eax,%eax
  4062b1:	c7 45 e0 01 00 00 00 	movl   $0x1,-0x20(%rbp)
  4062b8:	c7 45 e4 01 00 00 00 	movl   $0x1,-0x1c(%rbp)
  4062bf:	c7 45 e8 01 00 00 00 	movl   $0x1,-0x18(%rbp)
  4062c6:	c7 45 ec 01 00 00 00 	movl   $0x1,-0x14(%rbp)
  4062cd:	8b 45 dc             	mov    -0x24(%rbp),%eax
  4062d0:	89 c6                	mov    %eax,%esi
  4062d2:	bf 46 d2 40 00       	mov    $0x40d246,%edi
  4062d7:	e8 3d fe ff ff       	callq  406119 <_ZN2CK8getenv_iEPKci>
  4062dc:	89 45 e0             	mov    %eax,-0x20(%rbp)
  4062df:	8b 45 d8             	mov    -0x28(%rbp),%eax
  4062e2:	89 c6                	mov    %eax,%esi
  4062e4:	bf 54 d2 40 00       	mov    $0x40d254,%edi
  4062e9:	e8 2b fe ff ff       	callq  406119 <_ZN2CK8getenv_iEPKci>
  4062ee:	89 45 e4             	mov    %eax,-0x1c(%rbp)
  4062f1:	8b 45 d4             	mov    -0x2c(%rbp),%eax
  4062f4:	89 c6                	mov    %eax,%esi
  4062f6:	bf 62 d2 40 00       	mov    $0x40d262,%edi
  4062fb:	e8 19 fe ff ff       	callq  406119 <_ZN2CK8getenv_iEPKci>
  406300:	89 45 e8             	mov    %eax,-0x18(%rbp)
  406303:	8b 45 d0             	mov    -0x30(%rbp),%eax
  406306:	89 c6                	mov    %eax,%esi
  406308:	bf 70 d2 40 00       	mov    $0x40d270,%edi
  40630d:	e8 07 fe ff ff       	callq  406119 <_ZN2CK8getenv_iEPKci>
  406312:	89 45 ec             	mov    %eax,-0x14(%rbp)
  406315:	8b 45 e0             	mov    -0x20(%rbp),%eax
  406318:	89 c2                	mov    %eax,%edx
  40631a:	be 7e d2 40 00       	mov    $0x40d27e,%esi
  40631f:	bf 04 00 00 00       	mov    $0x4,%edi
  406324:	e8 77 fe ff ff       	callq  4061a0 <_ZN2CK13store_value_iEiPKci>
  406329:	8b 45 e4             	mov    -0x1c(%rbp),%eax
  40632c:	89 c2                	mov    %eax,%edx
  40632e:	be 89 d2 40 00       	mov    $0x40d289,%esi
  406333:	bf 05 00 00 00       	mov    $0x5,%edi
  406338:	e8 63 fe ff ff       	callq  4061a0 <_ZN2CK13store_value_iEiPKci>
  40633d:	8b 45 e8             	mov    -0x18(%rbp),%eax
  406340:	89 c2                	mov    %eax,%edx
  406342:	be 94 d2 40 00       	mov    $0x40d294,%esi
  406347:	bf 06 00 00 00       	mov    $0x6,%edi
  40634c:	e8 4f fe ff ff       	callq  4061a0 <_ZN2CK13store_value_iEiPKci>
  406351:	8b 45 ec             	mov    -0x14(%rbp),%eax
  406354:	89 c2                	mov    %eax,%edx
  406356:	be 9f d2 40 00       	mov    $0x40d29f,%esi
  40635b:	bf 07 00 00 00       	mov    $0x7,%edi
  406360:	e8 3b fe ff ff       	callq  4061a0 <_ZN2CK13store_value_iEiPKci>
  406365:	8b 75 ec             	mov    -0x14(%rbp),%esi
  406368:	8b 4d e8             	mov    -0x18(%rbp),%ecx
  40636b:	8b 55 e4             	mov    -0x1c(%rbp),%edx
  40636e:	8b 45 e0             	mov    -0x20(%rbp),%eax
  406371:	41 89 f0             	mov    %esi,%r8d
  406374:	89 c6                	mov    %eax,%esi
  406376:	bf b0 d2 40 00       	mov    $0x40d2b0,%edi
  40637b:	b8 00 00 00 00       	mov    $0x0,%eax
  406380:	e8 cb e9 ff ff       	callq  404d50 <printf@plt>
  406385:	48 8b 45 e0          	mov    -0x20(%rbp),%rax
  406389:	48 8b 55 e8          	mov    -0x18(%rbp),%rdx
  40638d:	48 8b 4d f8          	mov    -0x8(%rbp),%rcx
  406391:	64 48 33 0c 25 28 00 	xor    %fs:0x28,%rcx
  406398:	00 00 
  40639a:	74 05                	je     4063a1 <_ZN2CK24get_input_shape_from_envEiiii+0x113>
  40639c:	e8 7f ea ff ff       	callq  404e20 <__stack_chk_fail@plt>
  4063a1:	c9                   	leaveq 
  4063a2:	c3                   	retq   

00000000004063a3 <_ZN2CK24get_conv_params_from_envEiii>:
  4063a3:	55                   	push   %rbp
  4063a4:	48 89 e5             	mov    %rsp,%rbp
  4063a7:	48 83 ec 40          	sub    $0x40,%rsp
  4063ab:	89 7d dc             	mov    %edi,-0x24(%rbp)
  4063ae:	89 75 d8             	mov    %esi,-0x28(%rbp)
  4063b1:	89 55 d4             	mov    %edx,-0x2c(%rbp)
  4063b4:	64 48 8b 04 25 28 00 	mov    %fs:0x28,%rax
  4063bb:	00 00 
  4063bd:	48 89 45 f8          	mov    %rax,-0x8(%rbp)
  4063c1:	31 c0                	xor    %eax,%eax
  4063c3:	48 c7 45 e0 00 00 00 	movq   $0x0,-0x20(%rbp)
  4063ca:	00 
  4063cb:	c7 45 e8 00 00 00 00 	movl   $0x0,-0x18(%rbp)
  4063d2:	8b 45 dc             	mov    -0x24(%rbp),%eax
  4063d5:	89 c6                	mov    %eax,%esi
  4063d7:	bf e7 d2 40 00       	mov    $0x40d2e7,%edi
  4063dc:	e8 38 fd ff ff       	callq  406119 <_ZN2CK8getenv_iEPKci>
  4063e1:	89 45 e0             	mov    %eax,-0x20(%rbp)
  4063e4:	8b 45 d8             	mov    -0x28(%rbp),%eax
  4063e7:	89 c6                	mov    %eax,%esi
  4063e9:	bf f6 d2 40 00       	mov    $0x40d2f6,%edi
  4063ee:	e8 26 fd ff ff       	callq  406119 <_ZN2CK8getenv_iEPKci>
  4063f3:	89 45 e4             	mov    %eax,-0x1c(%rbp)
  4063f6:	8b 45 d4             	mov    -0x2c(%rbp),%eax
  4063f9:	89 c6                	mov    %eax,%esi
  4063fb:	bf 05 d3 40 00       	mov    $0x40d305,%edi
  406400:	e8 14 fd ff ff       	callq  406119 <_ZN2CK8getenv_iEPKci>
  406405:	89 45 e8             	mov    %eax,-0x18(%rbp)
  406408:	8b 4d e8             	mov    -0x18(%rbp),%ecx
  40640b:	8b 55 e4             	mov    -0x1c(%rbp),%edx
  40640e:	8b 45 e0             	mov    -0x20(%rbp),%eax
  406411:	89 c6                	mov    %eax,%esi
  406413:	bf 18 d3 40 00       	mov    $0x40d318,%edi
  406418:	b8 00 00 00 00       	mov    $0x0,%eax
  40641d:	e8 2e e9 ff ff       	callq  404d50 <printf@plt>
  406422:	48 8b 45 e0          	mov    -0x20(%rbp),%rax
  406426:	48 89 45 ec          	mov    %rax,-0x14(%rbp)
  40642a:	8b 45 e8             	mov    -0x18(%rbp),%eax
  40642d:	89 45 f4             	mov    %eax,-0xc(%rbp)
  406430:	48 8b 55 ec          	mov    -0x14(%rbp),%rdx
  406434:	8b 45 f4             	mov    -0xc(%rbp),%eax
  406437:	48 89 d1             	mov    %rdx,%rcx
  40643a:	89 c2                	mov    %eax,%edx
  40643c:	48 89 c8             	mov    %rcx,%rax
  40643f:	48 8b 4d f8          	mov    -0x8(%rbp),%rcx
  406443:	64 48 33 0c 25 28 00 	xor    %fs:0x28,%rcx
  40644a:	00 00 
  40644c:	74 05                	je     406453 <_ZN2CK24get_conv_params_from_envEiii+0xb0>
  40644e:	e8 cd e9 ff ff       	callq  404e20 <__stack_chk_fail@plt>
  406453:	c9                   	leaveq 
  406454:	c3                   	retq   

0000000000406455 <_ZN2CK9init_testEv>:
  406455:	55                   	push   %rbp
  406456:	48 89 e5             	mov    %rsp,%rbp
  406459:	48 83 ec 10          	sub    $0x10,%rsp
  40645d:	be 0c 00 00 00       	mov    $0xc,%esi
  406462:	bf 02 00 00 00       	mov    $0x2,%edi
  406467:	e8 a4 e8 ff ff       	callq  404d10 <xopenme_init@plt>
  40646c:	be 2a 00 00 00       	mov    $0x2a,%esi
  406471:	bf 4a d3 40 00       	mov    $0x40d34a,%edi
  406476:	e8 9e fc ff ff       	callq  406119 <_ZN2CK8getenv_iEPKci>
  40647b:	89 45 fc             	mov    %eax,-0x4(%rbp)
  40647e:	8b 45 fc             	mov    -0x4(%rbp),%eax
  406481:	89 c2                	mov    %eax,%edx
  406483:	be 52 d3 40 00       	mov    $0x40d352,%esi
  406488:	bf 08 00 00 00       	mov    $0x8,%edi
  40648d:	e8 0e fd ff ff       	callq  4061a0 <_ZN2CK13store_value_iEiPKci>
  406492:	8b 45 fc             	mov    -0x4(%rbp),%eax
  406495:	89 c7                	mov    %eax,%edi
  406497:	e8 c4 ed ff ff       	callq  405260 <srand@plt>
  40649c:	90                   	nop
  40649d:	c9                   	leaveq 
  40649e:	c3                   	retq   

000000000040649f <_ZN2CK11finish_testEv>:
  40649f:	55                   	push   %rbp
  4064a0:	48 89 e5             	mov    %rsp,%rbp
  4064a3:	bf 00 00 00 00       	mov    $0x0,%edi
  4064a8:	e8 53 ea ff ff       	callq  404f00 <xopenme_get_timer@plt>
  4064ad:	be 00 00 00 00       	mov    $0x0,%esi
  4064b2:	bf 5b d3 40 00       	mov    $0x40d35b,%edi
  4064b7:	b8 01 00 00 00       	mov    $0x1,%eax
  4064bc:	e8 8f e8 ff ff       	callq  404d50 <printf@plt>
  4064c1:	bf 01 00 00 00       	mov    $0x1,%edi
  4064c6:	e8 35 ea ff ff       	callq  404f00 <xopenme_get_timer@plt>
  4064cb:	be 01 00 00 00       	mov    $0x1,%esi
  4064d0:	bf 6f d3 40 00       	mov    $0x40d36f,%edi
  4064d5:	b8 01 00 00 00       	mov    $0x1,%eax
  4064da:	e8 71 e8 ff ff       	callq  404d50 <printf@plt>
  4064df:	e8 2c ed ff ff       	callq  405210 <xopenme_dump_state@plt>
  4064e4:	e8 97 ed ff ff       	callq  405280 <xopenme_finish@plt>
  4064e9:	90                   	nop
  4064ea:	5d                   	pop    %rbp
  4064eb:	c3                   	retq   

00000000004064ec <_ZZN2CK5Caffe16test_convolutionEbENKUlvE_clEv>:
  4064ec:	55                   	push   %rbp
  4064ed:	48 89 e5             	mov    %rsp,%rbp
  4064f0:	48 83 ec 10          	sub    $0x10,%rsp
  4064f4:	48 89 7d f8          	mov    %rdi,-0x8(%rbp)
  4064f8:	48 8b 45 f8          	mov    -0x8(%rbp),%rax
  4064fc:	48 8b 50 10          	mov    0x10(%rax),%rdx
  406500:	48 8b 45 f8          	mov    -0x8(%rbp),%rax
  406504:	48 8b 40 08          	mov    0x8(%rax),%rax
  406508:	48 8b 4d f8          	mov    -0x8(%rbp),%rcx
  40650c:	48 8b 09             	mov    (%rcx),%rcx
  40650f:	48 89 c6             	mov    %rax,%rsi
  406512:	48 89 cf             	mov    %rcx,%rdi
  406515:	e8 a8 0c 00 00       	callq  4071c2 <_ZN5caffe5LayerIfE5SetUpERKSt6vectorIPNS_4BlobIfEESaIS5_EES9_>
  40651a:	90                   	nop
  40651b:	c9                   	leaveq 
  40651c:	c3                   	retq   
  40651d:	90                   	nop

000000000040651e <_ZZN2CK5Caffe16test_convolutionEbENKUlvE0_clEv>:
  40651e:	55                   	push   %rbp
  40651f:	48 89 e5             	mov    %rsp,%rbp
  406522:	48 83 ec 10          	sub    $0x10,%rsp
  406526:	48 89 7d f8          	mov    %rdi,-0x8(%rbp)
  40652a:	48 8b 45 f8          	mov    -0x8(%rbp),%rax
  40652e:	48 8b 50 10          	mov    0x10(%rax),%rdx
  406532:	48 8b 45 f8          	mov    -0x8(%rbp),%rax
  406536:	48 8b 40 08          	mov    0x8(%rax),%rax
  40653a:	48 8b 4d f8          	mov    -0x8(%rbp),%rcx
  40653e:	48 8b 09             	mov    (%rcx),%rcx
  406541:	48 89 c6             	mov    %rax,%rsi
  406544:	48 89 cf             	mov    %rcx,%rdi
  406547:	e8 46 0e 00 00       	callq  407392 <_ZN5caffe5LayerIfE7ForwardERKSt6vectorIPNS_4BlobIfEESaIS5_EES9_>
  40654c:	90                   	nop
  40654d:	c9                   	leaveq 
  40654e:	c3                   	retq   
  40654f:	90                   	nop

0000000000406550 <_ZN5boost10shared_ptrIN5caffe12SyncedMemoryEED1Ev>:
  406550:	55                   	push   %rbp
  406551:	48 89 e5             	mov    %rsp,%rbp
  406554:	48 83 ec 10          	sub    $0x10,%rsp
  406558:	48 89 7d f8          	mov    %rdi,-0x8(%rbp)
  40655c:	48 8b 45 f8          	mov    -0x8(%rbp),%rax
  406560:	48 83 c0 08          	add    $0x8,%rax
  406564:	48 89 c7             	mov    %rax,%rdi
  406567:	e8 46 f1 ff ff       	callq  4056b2 <_ZN5boost6detail12shared_countD1Ev>
  40656c:	90                   	nop
  40656d:	c9                   	leaveq 
  40656e:	c3                   	retq   
  40656f:	90                   	nop

0000000000406570 <_ZN5caffe4BlobIfED1Ev>:
  406570:	55                   	push   %rbp
  406571:	48 89 e5             	mov    %rsp,%rbp
  406574:	48 83 ec 10          	sub    $0x10,%rsp
  406578:	48 89 7d f8          	mov    %rdi,-0x8(%rbp)
  40657c:	48 8b 45 f8          	mov    -0x8(%rbp),%rax
  406580:	48 83 c0 30          	add    $0x30,%rax
  406584:	48 89 c7             	mov    %rax,%rdi
  406587:	e8 c6 12 00 00       	callq  407852 <_ZNSt6vectorIiSaIiEED1Ev>
  40658c:	48 8b 45 f8          	mov    -0x8(%rbp),%rax
  406590:	48 83 c0 20          	add    $0x20,%rax
  406594:	48 89 c7             	mov    %rax,%rdi
  406597:	e8 b4 ff ff ff       	callq  406550 <_ZN5boost10shared_ptrIN5caffe12SyncedMemoryEED1Ev>
  40659c:	48 8b 45 f8          	mov    -0x8(%rbp),%rax
  4065a0:	48 83 c0 10          	add    $0x10,%rax
  4065a4:	48 89 c7             	mov    %rax,%rdi
  4065a7:	e8 a4 ff ff ff       	callq  406550 <_ZN5boost10shared_ptrIN5caffe12SyncedMemoryEED1Ev>
  4065ac:	48 8b 45 f8          	mov    -0x8(%rbp),%rax
  4065b0:	48 89 c7             	mov    %rax,%rdi
  4065b3:	e8 98 ff ff ff       	callq  406550 <_ZN5boost10shared_ptrIN5caffe12SyncedMemoryEED1Ev>
  4065b8:	90                   	nop
  4065b9:	c9                   	leaveq 
  4065ba:	c3                   	retq   

00000000004065bb <_ZN2CK5Caffe16test_convolutionEb>:
  4065bb:	55                   	push   %rbp
  4065bc:	48 89 e5             	mov    %rsp,%rbp
  4065bf:	41 54                	push   %r12
  4065c1:	53                   	push   %rbx
  4065c2:	48 81 ec a0 08 00 00 	sub    $0x8a0,%rsp
  4065c9:	89 f8                	mov    %edi,%eax
  4065cb:	88 85 5c f7 ff ff    	mov    %al,-0x8a4(%rbp)
  4065d1:	64 48 8b 04 25 28 00 	mov    %fs:0x28,%rax
  4065d8:	00 00 
  4065da:	48 89 45 e8          	mov    %rax,-0x18(%rbp)
  4065de:	31 c0                	xor    %eax,%eax
  4065e0:	e8 70 fe ff ff       	callq  406455 <_ZN2CK9init_testEv>
  4065e5:	b9 07 00 00 00       	mov    $0x7,%ecx
  4065ea:	ba 07 00 00 00       	mov    $0x7,%edx
  4065ef:	be 01 00 00 00       	mov    $0x1,%esi
  4065f4:	bf 01 00 00 00       	mov    $0x1,%edi
  4065f9:	e8 90 fc ff ff       	callq  40628e <_ZN2CK24get_input_shape_from_envEiiii>
  4065fe:	48 89 85 a0 f7 ff ff 	mov    %rax,-0x860(%rbp)
  406605:	48 89 95 a8 f7 ff ff 	mov    %rdx,-0x858(%rbp)
  40660c:	bf 50 00 00 00       	mov    $0x50,%edi
  406611:	e8 9a e7 ff ff       	callq  404db0 <_Znwm@plt>
  406616:	48 89 c3             	mov    %rax,%rbx
  406619:	8b b5 ac f7 ff ff    	mov    -0x854(%rbp),%esi
  40661f:	8b 8d a8 f7 ff ff    	mov    -0x858(%rbp),%ecx
  406625:	8b 95 a4 f7 ff ff    	mov    -0x85c(%rbp),%edx
  40662b:	8b 85 a0 f7 ff ff    	mov    -0x860(%rbp),%eax
  406631:	41 89 f0             	mov    %esi,%r8d
  406634:	89 c6                	mov    %eax,%esi
  406636:	48 89 df             	mov    %rbx,%rdi
  406639:	e8 22 eb ff ff       	callq  405160 <_ZN5caffe4BlobIfEC1Eiiii@plt>
  40663e:	48 89 9d 68 f7 ff ff 	mov    %rbx,-0x898(%rbp)
  406645:	48 8d 85 b0 f7 ff ff 	lea    -0x850(%rbp),%rax
  40664c:	48 89 c7             	mov    %rax,%rdi
  40664f:	e8 d2 08 00 00       	callq  406f26 <_ZNSt6vectorIPN5caffe4BlobIfEESaIS3_EEC1Ev>
  406654:	48 8d 95 68 f7 ff ff 	lea    -0x898(%rbp),%rdx
  40665b:	48 8d 85 b0 f7 ff ff 	lea    -0x850(%rbp),%rax
  406662:	48 89 d6             	mov    %rdx,%rsi
  406665:	48 89 c7             	mov    %rax,%rdi
  406668:	e8 19 09 00 00       	callq  406f86 <_ZNSt6vectorIPN5caffe4BlobIfEESaIS3_EE9push_backERKS3_>
  40666d:	bf 50 00 00 00       	mov    $0x50,%edi
  406672:	e8 39 e7 ff ff       	callq  404db0 <_Znwm@plt>
  406677:	48 89 c3             	mov    %rax,%rbx
  40667a:	48 89 df             	mov    %rbx,%rdi
  40667d:	e8 70 09 00 00       	callq  406ff2 <_ZN5caffe4BlobIfEC1Ev>
  406682:	48 89 9d 70 f7 ff ff 	mov    %rbx,-0x890(%rbp)
  406689:	48 8d 85 d0 f7 ff ff 	lea    -0x830(%rbp),%rax
  406690:	48 89 c7             	mov    %rax,%rdi
  406693:	e8 8e 08 00 00       	callq  406f26 <_ZNSt6vectorIPN5caffe4BlobIfEESaIS3_EEC1Ev>
  406698:	48 8d 95 70 f7 ff ff 	lea    -0x890(%rbp),%rdx
  40669f:	48 8d 85 d0 f7 ff ff 	lea    -0x830(%rbp),%rax
  4066a6:	48 89 d6             	mov    %rdx,%rsi
  4066a9:	48 89 c7             	mov    %rax,%rdi
  4066ac:	e8 d5 08 00 00       	callq  406f86 <_ZNSt6vectorIPN5caffe4BlobIfEESaIS3_EE9push_backERKS3_>
  4066b1:	be 01 00 00 00       	mov    $0x1,%esi
  4066b6:	bf 98 d3 40 00       	mov    $0x40d398,%edi
  4066bb:	e8 59 fa ff ff       	callq  406119 <_ZN2CK8getenv_iEPKci>
  4066c0:	89 85 64 f7 ff ff    	mov    %eax,-0x89c(%rbp)
  4066c6:	8b 85 64 f7 ff ff    	mov    -0x89c(%rbp),%eax
  4066cc:	89 c6                	mov    %eax,%esi
  4066ce:	bf a7 d3 40 00       	mov    $0x40d3a7,%edi
  4066d3:	b8 00 00 00 00       	mov    $0x0,%eax
  4066d8:	e8 73 e6 ff ff       	callq  404d50 <printf@plt>
  4066dd:	ba 00 00 00 00       	mov    $0x0,%edx
  4066e2:	be 01 00 00 00       	mov    $0x1,%esi
  4066e7:	bf 07 00 00 00       	mov    $0x7,%edi
  4066ec:	e8 b2 fc ff ff       	callq  4063a3 <_ZN2CK24get_conv_params_from_envEiii>
  4066f1:	48 89 c1             	mov    %rax,%rcx
  4066f4:	89 d0                	mov    %edx,%eax
  4066f6:	48 89 8d 94 f7 ff ff 	mov    %rcx,-0x86c(%rbp)
  4066fd:	89 85 9c f7 ff ff    	mov    %eax,-0x864(%rbp)
  406703:	48 8d 85 10 f8 ff ff 	lea    -0x7f0(%rbp),%rax
  40670a:	48 89 c7             	mov    %rax,%rdi
  40670d:	e8 2e e6 ff ff       	callq  404d40 <_ZN5caffe14LayerParameterC1Ev@plt>
  406712:	48 8d 85 10 f8 ff ff 	lea    -0x7f0(%rbp),%rax
  406719:	48 89 c7             	mov    %rax,%rdi
  40671c:	e8 69 f4 ff ff       	callq  405b8a <_ZN5caffe14LayerParameter25mutable_convolution_paramEv>
  406721:	48 89 85 78 f7 ff ff 	mov    %rax,-0x888(%rbp)
  406728:	8b 95 64 f7 ff ff    	mov    -0x89c(%rbp),%edx
  40672e:	48 8b 85 78 f7 ff ff 	mov    -0x888(%rbp),%rax
  406735:	89 d6                	mov    %edx,%esi
  406737:	48 89 c7             	mov    %rax,%rdi
  40673a:	e8 fd f4 ff ff       	callq  405c3c <_ZN5caffe20ConvolutionParameter14set_num_outputEj>
  40673f:	8b 95 94 f7 ff ff    	mov    -0x86c(%rbp),%edx
  406745:	48 8b 85 78 f7 ff ff 	mov    -0x888(%rbp),%rax
  40674c:	89 d6                	mov    %edx,%esi
  40674e:	48 89 c7             	mov    %rax,%rdi
  406751:	e8 0c f6 ff ff       	callq  405d62 <_ZN5caffe20ConvolutionParameter12set_kernel_hEj>
  406756:	8b 95 94 f7 ff ff    	mov    -0x86c(%rbp),%edx
  40675c:	48 8b 85 78 f7 ff ff 	mov    -0x888(%rbp),%rax
  406763:	89 d6                	mov    %edx,%esi
  406765:	48 89 c7             	mov    %rax,%rdi
  406768:	e8 57 f6 ff ff       	callq  405dc4 <_ZN5caffe20ConvolutionParameter12set_kernel_wEj>
  40676d:	8b 95 98 f7 ff ff    	mov    -0x868(%rbp),%edx
  406773:	48 8b 85 78 f7 ff ff 	mov    -0x888(%rbp),%rax
  40677a:	89 d6                	mov    %edx,%esi
  40677c:	48 89 c7             	mov    %rax,%rdi
  40677f:	e8 a2 f6 ff ff       	callq  405e26 <_ZN5caffe20ConvolutionParameter12set_stride_hEj>
  406784:	8b 95 98 f7 ff ff    	mov    -0x868(%rbp),%edx
  40678a:	48 8b 85 78 f7 ff ff 	mov    -0x888(%rbp),%rax
  406791:	89 d6                	mov    %edx,%esi
  406793:	48 89 c7             	mov    %rax,%rdi
  406796:	e8 ed f6 ff ff       	callq  405e88 <_ZN5caffe20ConvolutionParameter12set_stride_wEj>
  40679b:	8b 95 9c f7 ff ff    	mov    -0x864(%rbp),%edx
  4067a1:	48 8b 85 78 f7 ff ff 	mov    -0x888(%rbp),%rax
  4067a8:	89 d6                	mov    %edx,%esi
  4067aa:	48 89 c7             	mov    %rax,%rdi
  4067ad:	e8 ec f4 ff ff       	callq  405c9e <_ZN5caffe20ConvolutionParameter9set_pad_hEj>
  4067b2:	8b 95 9c f7 ff ff    	mov    -0x864(%rbp),%edx
  4067b8:	48 8b 85 78 f7 ff ff 	mov    -0x888(%rbp),%rax
  4067bf:	89 d6                	mov    %edx,%esi
  4067c1:	48 89 c7             	mov    %rax,%rdi
  4067c4:	e8 37 f5 ff ff       	callq  405d00 <_ZN5caffe20ConvolutionParameter9set_pad_wEj>
  4067c9:	0f b6 95 5c f7 ff ff 	movzbl -0x8a4(%rbp),%edx
  4067d0:	48 8b 85 78 f7 ff ff 	mov    -0x888(%rbp),%rax
  4067d7:	89 d6                	mov    %edx,%esi
  4067d9:	48 89 c7             	mov    %rax,%rdi
  4067dc:	e8 5f f8 ff ff       	callq  406040 <_ZN5caffe20ConvolutionParameter19set_force_nd_im2colEb>
  4067e1:	48 8b 85 78 f7 ff ff 	mov    -0x888(%rbp),%rax
  4067e8:	48 89 c7             	mov    %rax,%rdi
  4067eb:	e8 fe f6 ff ff       	callq  405eee <_ZN5caffe20ConvolutionParameter21mutable_weight_fillerEv>
  4067f0:	be bc d3 40 00       	mov    $0x40d3bc,%esi
  4067f5:	48 89 c7             	mov    %rax,%rdi
  4067f8:	e8 3d f1 ff ff       	callq  40593a <_ZN5caffe15FillerParameter8set_typeEPKc>
  4067fd:	f2 0f 10 05 83 74 00 	movsd  0x7483(%rip),%xmm0        # 40dc88 <_ZZNK5boost10shared_ptrIN5caffe12SyncedMemoryEEptEvE19__PRETTY_FUNCTION__+0xc8>
  406804:	00 
  406805:	bf c5 d3 40 00       	mov    $0x40d3c5,%edi
  40680a:	e8 45 f9 ff ff       	callq  406154 <_ZN2CK8getenv_fEPKcd>
  40680f:	f2 0f 5a c8          	cvtsd2ss %xmm0,%xmm1
  406813:	f3 0f 11 8d 58 f7 ff 	movss  %xmm1,-0x8a8(%rbp)
  40681a:	ff 
  40681b:	48 8b 85 78 f7 ff ff 	mov    -0x888(%rbp),%rax
  406822:	48 89 c7             	mov    %rax,%rdi
  406825:	e8 c4 f6 ff ff       	callq  405eee <_ZN5caffe20ConvolutionParameter21mutable_weight_fillerEv>
  40682a:	f3 0f 10 85 58 f7 ff 	movss  -0x8a8(%rbp),%xmm0
  406831:	ff 
  406832:	48 89 c7             	mov    %rax,%rdi
  406835:	e8 08 f2 ff ff       	callq  405a42 <_ZN5caffe15FillerParameter9set_valueEf>
  40683a:	48 8b 85 78 f7 ff ff 	mov    -0x888(%rbp),%rax
  406841:	48 89 c7             	mov    %rax,%rdi
  406844:	e8 4d f7 ff ff       	callq  405f96 <_ZN5caffe20ConvolutionParameter19mutable_bias_fillerEv>
  406849:	be bc d3 40 00       	mov    $0x40d3bc,%esi
  40684e:	48 89 c7             	mov    %rax,%rdi
  406851:	e8 e4 f0 ff ff       	callq  40593a <_ZN5caffe15FillerParameter8set_typeEPKc>
  406856:	66 0f ef c0          	pxor   %xmm0,%xmm0
  40685a:	bf df d3 40 00       	mov    $0x40d3df,%edi
  40685f:	e8 f0 f8 ff ff       	callq  406154 <_ZN2CK8getenv_fEPKcd>
  406864:	f2 0f 5a d0          	cvtsd2ss %xmm0,%xmm2
  406868:	f3 0f 11 95 58 f7 ff 	movss  %xmm2,-0x8a8(%rbp)
  40686f:	ff 
  406870:	48 8b 85 78 f7 ff ff 	mov    -0x888(%rbp),%rax
  406877:	48 89 c7             	mov    %rax,%rdi
  40687a:	e8 17 f7 ff ff       	callq  405f96 <_ZN5caffe20ConvolutionParameter19mutable_bias_fillerEv>
  40687f:	f3 0f 10 85 58 f7 ff 	movss  -0x8a8(%rbp),%xmm0
  406886:	ff 
  406887:	48 89 c7             	mov    %rax,%rdi
  40688a:	e8 b3 f1 ff ff       	callq  405a42 <_ZN5caffe15FillerParameter9set_valueEf>
  40688f:	48 8d 95 10 f8 ff ff 	lea    -0x7f0(%rbp),%rdx
  406896:	48 8d 85 70 fa ff ff 	lea    -0x590(%rbp),%rax
  40689d:	48 89 d6             	mov    %rdx,%rsi
  4068a0:	48 89 c7             	mov    %rax,%rdi
  4068a3:	e8 e8 08 00 00       	callq  407190 <_ZN5caffe16ConvolutionLayerIfEC1ERKNS_14LayerParameterE>
  4068a8:	48 8d 85 70 fa ff ff 	lea    -0x590(%rbp),%rax
  4068af:	48 89 85 f0 f7 ff ff 	mov    %rax,-0x810(%rbp)
  4068b6:	48 8d 85 b0 f7 ff ff 	lea    -0x850(%rbp),%rax
  4068bd:	48 89 85 f8 f7 ff ff 	mov    %rax,-0x808(%rbp)
  4068c4:	48 8d 85 d0 f7 ff ff 	lea    -0x830(%rbp),%rax
  4068cb:	48 89 85 00 f8 ff ff 	mov    %rax,-0x800(%rbp)
  4068d2:	48 8d 85 f0 f7 ff ff 	lea    -0x810(%rbp),%rax
  4068d9:	48 89 c7             	mov    %rax,%rdi
  4068dc:	e8 6a 09 00 00       	callq  40724b <_ZN2CK13measure_setupIZNS_5Caffe16test_convolutionEbEUlvE_EEvOT_>
  4068e1:	48 8d 85 a0 f7 ff ff 	lea    -0x860(%rbp),%rax
  4068e8:	48 89 c7             	mov    %rax,%rdi
  4068eb:	e8 8e 09 00 00       	callq  40727e <_ZN2CK19get_random_raw_dataIfEEPT_RKNS_5ShapeE>
  4068f0:	48 89 85 80 f7 ff ff 	mov    %rax,-0x880(%rbp)
  4068f7:	48 8d 95 a0 f7 ff ff 	lea    -0x860(%rbp),%rdx
  4068fe:	48 8b 85 80 f7 ff ff 	mov    -0x880(%rbp),%rax
  406905:	48 89 d6             	mov    %rdx,%rsi
  406908:	48 89 c7             	mov    %rax,%rdi
  40690b:	e8 55 0a 00 00       	callq  407365 <_ZN2CK20print_input_raw_dataIfEEvPT_RKNS_5ShapeE>
  406910:	48 8d 85 a0 f7 ff ff 	lea    -0x860(%rbp),%rax
  406917:	48 89 c7             	mov    %rax,%rdi
  40691a:	e8 4f f7 ff ff       	callq  40606e <_ZNK2CK5Shape10data_countEv>
  40691f:	48 98                	cltq   
  406921:	48 8d 1c 85 00 00 00 	lea    0x0(,%rax,4),%rbx
  406928:	00 
  406929:	48 8b 85 68 f7 ff ff 	mov    -0x898(%rbp),%rax
  406930:	48 89 c7             	mov    %rax,%rdi
  406933:	e8 c8 e4 ff ff       	callq  404e00 <_ZN5caffe4BlobIfE16mutable_cpu_dataEv@plt>
  406938:	48 89 c1             	mov    %rax,%rcx
  40693b:	48 8b 85 80 f7 ff ff 	mov    -0x880(%rbp),%rax
  406942:	48 89 da             	mov    %rbx,%rdx
  406945:	48 89 c6             	mov    %rax,%rsi
  406948:	48 89 cf             	mov    %rcx,%rdi
  40694b:	e8 20 e4 ff ff       	callq  404d70 <memcpy@plt>
  406950:	48 83 bd 80 f7 ff ff 	cmpq   $0x0,-0x880(%rbp)
  406957:	00 
  406958:	74 0f                	je     406969 <_ZN2CK5Caffe16test_convolutionEb+0x3ae>
  40695a:	48 8b 85 80 f7 ff ff 	mov    -0x880(%rbp),%rax
  406961:	48 89 c7             	mov    %rax,%rdi
  406964:	e8 37 e5 ff ff       	callq  404ea0 <_ZdaPv@plt>
  406969:	48 8d 85 70 fa ff ff 	lea    -0x590(%rbp),%rax
  406970:	48 89 85 f0 f7 ff ff 	mov    %rax,-0x810(%rbp)
  406977:	48 8d 85 b0 f7 ff ff 	lea    -0x850(%rbp),%rax
  40697e:	48 89 85 f8 f7 ff ff 	mov    %rax,-0x808(%rbp)
  406985:	48 8d 85 d0 f7 ff ff 	lea    -0x830(%rbp),%rax
  40698c:	48 89 85 00 f8 ff ff 	mov    %rax,-0x800(%rbp)
  406993:	48 8d 85 f0 f7 ff ff 	lea    -0x810(%rbp),%rax
  40699a:	48 89 c7             	mov    %rax,%rdi
  40699d:	e8 f3 0b 00 00       	callq  407595 <_ZN2CK12measure_testIZNS_5Caffe16test_convolutionEbEUlvE0_EEvOT_>
  4069a2:	c7 85 f0 f7 ff ff 01 	movl   $0x1,-0x810(%rbp)
  4069a9:	00 00 00 
  4069ac:	c7 85 f4 f7 ff ff 01 	movl   $0x1,-0x80c(%rbp)
  4069b3:	00 00 00 
  4069b6:	c7 85 f8 f7 ff ff 01 	movl   $0x1,-0x808(%rbp)
  4069bd:	00 00 00 
  4069c0:	c7 85 fc f7 ff ff 01 	movl   $0x1,-0x804(%rbp)
  4069c7:	00 00 00 
  4069ca:	48 8b 85 70 f7 ff ff 	mov    -0x890(%rbp),%rax
  4069d1:	48 89 c7             	mov    %rax,%rdi
  4069d4:	e8 ef 0b 00 00       	callq  4075c8 <_ZNK5caffe4BlobIfE3numEv>
  4069d9:	89 85 f0 f7 ff ff    	mov    %eax,-0x810(%rbp)
  4069df:	48 8b 85 70 f7 ff ff 	mov    -0x890(%rbp),%rax
  4069e6:	48 89 c7             	mov    %rax,%rdi
  4069e9:	e8 fa 0b 00 00       	callq  4075e8 <_ZNK5caffe4BlobIfE8channelsEv>
  4069ee:	89 85 f4 f7 ff ff    	mov    %eax,-0x80c(%rbp)
  4069f4:	48 8b 85 70 f7 ff ff 	mov    -0x890(%rbp),%rax
  4069fb:	48 89 c7             	mov    %rax,%rdi
  4069fe:	e8 05 0c 00 00       	callq  407608 <_ZNK5caffe4BlobIfE6heightEv>
  406a03:	89 85 f8 f7 ff ff    	mov    %eax,-0x808(%rbp)
  406a09:	48 8b 85 70 f7 ff ff 	mov    -0x890(%rbp),%rax
  406a10:	48 89 c7             	mov    %rax,%rdi
  406a13:	e8 10 0c 00 00       	callq  407628 <_ZNK5caffe4BlobIfE5widthEv>
  406a18:	89 85 fc f7 ff ff    	mov    %eax,-0x804(%rbp)
  406a1e:	48 8d 85 f0 f7 ff ff 	lea    -0x810(%rbp),%rax
  406a25:	48 89 c7             	mov    %rax,%rdi
  406a28:	e8 41 f6 ff ff       	callq  40606e <_ZNK2CK5Shape10data_countEv>
  406a2d:	48 98                	cltq   
  406a2f:	48 ba fe ff ff ff ff 	movabs $0x1ffffffffffffffe,%rdx
  406a36:	ff ff 1f 
  406a39:	48 39 d0             	cmp    %rdx,%rax
  406a3c:	77 0e                	ja     406a4c <_ZN2CK5Caffe16test_convolutionEb+0x491>
  406a3e:	48 c1 e0 02          	shl    $0x2,%rax
  406a42:	48 89 c7             	mov    %rax,%rdi
  406a45:	e8 96 e4 ff ff       	callq  404ee0 <_Znam@plt>
  406a4a:	eb 05                	jmp    406a51 <_ZN2CK5Caffe16test_convolutionEb+0x496>
  406a4c:	e8 2f e6 ff ff       	callq  405080 <__cxa_throw_bad_array_new_length@plt>
  406a51:	48 89 85 88 f7 ff ff 	mov    %rax,-0x878(%rbp)
  406a58:	48 8d 85 f0 f7 ff ff 	lea    -0x810(%rbp),%rax
  406a5f:	48 89 c7             	mov    %rax,%rdi
  406a62:	e8 07 f6 ff ff       	callq  40606e <_ZNK2CK5Shape10data_countEv>
  406a67:	48 98                	cltq   
  406a69:	48 8d 1c 85 00 00 00 	lea    0x0(,%rax,4),%rbx
  406a70:	00 
  406a71:	48 8b 85 70 f7 ff ff 	mov    -0x890(%rbp),%rax
  406a78:	48 89 c7             	mov    %rax,%rdi
  406a7b:	e8 c8 0b 00 00       	callq  407648 <_ZNK5caffe4BlobIfE4dataEv>
  406a80:	48 89 c7             	mov    %rax,%rdi
  406a83:	e8 ae 0c 00 00       	callq  407736 <_ZNK5boost10shared_ptrIN5caffe12SyncedMemoryEEptEv>
  406a88:	48 89 c7             	mov    %rax,%rdi
  406a8b:	e8 30 e6 ff ff       	callq  4050c0 <_ZN5caffe12SyncedMemory8cpu_dataEv@plt>
  406a90:	48 89 c1             	mov    %rax,%rcx
  406a93:	48 8b 85 88 f7 ff ff 	mov    -0x878(%rbp),%rax
  406a9a:	48 89 da             	mov    %rbx,%rdx
  406a9d:	48 89 ce             	mov    %rcx,%rsi
  406aa0:	48 89 c7             	mov    %rax,%rdi
  406aa3:	e8 c8 e2 ff ff       	callq  404d70 <memcpy@plt>
  406aa8:	48 8d 95 f0 f7 ff ff 	lea    -0x810(%rbp),%rdx
  406aaf:	48 8b 85 88 f7 ff ff 	mov    -0x878(%rbp),%rax
  406ab6:	48 89 d6             	mov    %rdx,%rsi
  406ab9:	48 89 c7             	mov    %rax,%rdi
  406abc:	e8 af 0c 00 00       	callq  407770 <_ZN2CK21print_output_raw_dataIfEEvPT_RKNS_5ShapeE>
  406ac1:	48 8d 95 f0 f7 ff ff 	lea    -0x810(%rbp),%rdx
  406ac8:	48 8b 85 88 f7 ff ff 	mov    -0x878(%rbp),%rax
  406acf:	48 89 d6             	mov    %rdx,%rsi
  406ad2:	48 89 c7             	mov    %rax,%rdi
  406ad5:	e8 c3 0c 00 00       	callq  40779d <_ZN2CK20dump_output_raw_dataIfEEvPT_RKNS_5ShapeE>
  406ada:	48 83 bd 88 f7 ff ff 	cmpq   $0x0,-0x878(%rbp)
  406ae1:	00 
  406ae2:	74 0f                	je     406af3 <_ZN2CK5Caffe16test_convolutionEb+0x538>
  406ae4:	48 8b 85 88 f7 ff ff 	mov    -0x878(%rbp),%rax
  406aeb:	48 89 c7             	mov    %rax,%rdi
  406aee:	e8 ad e3 ff ff       	callq  404ea0 <_ZdaPv@plt>
  406af3:	48 8b 9d 68 f7 ff ff 	mov    -0x898(%rbp),%rbx
  406afa:	48 85 db             	test   %rbx,%rbx
  406afd:	74 10                	je     406b0f <_ZN2CK5Caffe16test_convolutionEb+0x554>
  406aff:	48 89 df             	mov    %rbx,%rdi
  406b02:	e8 69 fa ff ff       	callq  406570 <_ZN5caffe4BlobIfED1Ev>
  406b07:	48 89 df             	mov    %rbx,%rdi
  406b0a:	e8 11 e4 ff ff       	callq  404f20 <_ZdlPv@plt>
  406b0f:	48 8b 9d 70 f7 ff ff 	mov    -0x890(%rbp),%rbx
  406b16:	48 85 db             	test   %rbx,%rbx
  406b19:	74 10                	je     406b2b <_ZN2CK5Caffe16test_convolutionEb+0x570>
  406b1b:	48 89 df             	mov    %rbx,%rdi
  406b1e:	e8 4d fa ff ff       	callq  406570 <_ZN5caffe4BlobIfED1Ev>
  406b23:	48 89 df             	mov    %rbx,%rdi
  406b26:	e8 f5 e3 ff ff       	callq  404f20 <_ZdlPv@plt>
  406b2b:	e8 6f f9 ff ff       	callq  40649f <_ZN2CK11finish_testEv>
  406b30:	48 8d 85 70 fa ff ff 	lea    -0x590(%rbp),%rax
  406b37:	48 89 c7             	mov    %rax,%rdi
  406b3a:	e8 9d 62 00 00       	callq  40cddc <_ZN5caffe16ConvolutionLayerIfED1Ev>
  406b3f:	48 8d 85 10 f8 ff ff 	lea    -0x7f0(%rbp),%rax
  406b46:	48 89 c7             	mov    %rax,%rdi
  406b49:	e8 62 e7 ff ff       	callq  4052b0 <_ZN5caffe14LayerParameterD1Ev@plt>
  406b4e:	48 8d 85 d0 f7 ff ff 	lea    -0x830(%rbp),%rax
  406b55:	48 89 c7             	mov    %rax,%rdi
  406b58:	e8 e5 03 00 00       	callq  406f42 <_ZNSt6vectorIPN5caffe4BlobIfEESaIS3_EED1Ev>
  406b5d:	48 8d 85 b0 f7 ff ff 	lea    -0x850(%rbp),%rax
  406b64:	48 89 c7             	mov    %rax,%rdi
  406b67:	e8 d6 03 00 00       	callq  406f42 <_ZNSt6vectorIPN5caffe4BlobIfEESaIS3_EED1Ev>
  406b6c:	90                   	nop
  406b6d:	48 8b 45 e8          	mov    -0x18(%rbp),%rax
  406b71:	64 48 33 04 25 28 00 	xor    %fs:0x28,%rax
  406b78:	00 00 
  406b7a:	74 76                	je     406bf2 <_ZN2CK5Caffe16test_convolutionEb+0x637>
  406b7c:	eb 6f                	jmp    406bed <_ZN2CK5Caffe16test_convolutionEb+0x632>
  406b7e:	49 89 c4             	mov    %rax,%r12
  406b81:	48 89 df             	mov    %rbx,%rdi
  406b84:	e8 97 e3 ff ff       	callq  404f20 <_ZdlPv@plt>
  406b89:	4c 89 e0             	mov    %r12,%rax
  406b8c:	48 89 c7             	mov    %rax,%rdi
  406b8f:	e8 1c e4 ff ff       	callq  404fb0 <_Unwind_Resume@plt>
  406b94:	48 89 c3             	mov    %rax,%rbx
  406b97:	48 8d 85 70 fa ff ff 	lea    -0x590(%rbp),%rax
  406b9e:	48 89 c7             	mov    %rax,%rdi
  406ba1:	e8 36 62 00 00       	callq  40cddc <_ZN5caffe16ConvolutionLayerIfED1Ev>
  406ba6:	eb 03                	jmp    406bab <_ZN2CK5Caffe16test_convolutionEb+0x5f0>
  406ba8:	48 89 c3             	mov    %rax,%rbx
  406bab:	48 8d 85 10 f8 ff ff 	lea    -0x7f0(%rbp),%rax
  406bb2:	48 89 c7             	mov    %rax,%rdi
  406bb5:	e8 f6 e6 ff ff       	callq  4052b0 <_ZN5caffe14LayerParameterD1Ev@plt>
  406bba:	eb 03                	jmp    406bbf <_ZN2CK5Caffe16test_convolutionEb+0x604>
  406bbc:	48 89 c3             	mov    %rax,%rbx
  406bbf:	48 8d 85 d0 f7 ff ff 	lea    -0x830(%rbp),%rax
  406bc6:	48 89 c7             	mov    %rax,%rdi
  406bc9:	e8 74 03 00 00       	callq  406f42 <_ZNSt6vectorIPN5caffe4BlobIfEESaIS3_EED1Ev>
  406bce:	eb 03                	jmp    406bd3 <_ZN2CK5Caffe16test_convolutionEb+0x618>
  406bd0:	48 89 c3             	mov    %rax,%rbx
  406bd3:	48 8d 85 b0 f7 ff ff 	lea    -0x850(%rbp),%rax
  406bda:	48 89 c7             	mov    %rax,%rdi
  406bdd:	e8 60 03 00 00       	callq  406f42 <_ZNSt6vectorIPN5caffe4BlobIfEESaIS3_EED1Ev>
  406be2:	48 89 d8             	mov    %rbx,%rax
  406be5:	48 89 c7             	mov    %rax,%rdi
  406be8:	e8 c3 e3 ff ff       	callq  404fb0 <_Unwind_Resume@plt>
  406bed:	e8 2e e2 ff ff       	callq  404e20 <__stack_chk_fail@plt>
  406bf2:	48 81 c4 a0 08 00 00 	add    $0x8a0,%rsp
  406bf9:	5b                   	pop    %rbx
  406bfa:	41 5c                	pop    %r12
  406bfc:	5d                   	pop    %rbp
  406bfd:	c3                   	retq   

0000000000406bfe <_ZN6google12Check_LEImplIiiEEPNSt7__cxx1112basic_stringIcSt11char_traitsIcESaIcEEERKT_RKT0_PKc>:
  406bfe:	55                   	push   %rbp
  406bff:	48 89 e5             	mov    %rsp,%rbp
  406c02:	48 83 ec 20          	sub    $0x20,%rsp
  406c06:	48 89 7d f8          	mov    %rdi,-0x8(%rbp)
  406c0a:	48 89 75 f0          	mov    %rsi,-0x10(%rbp)
  406c0e:	48 89 55 e8          	mov    %rdx,-0x18(%rbp)
  406c12:	48 8b 45 f8          	mov    -0x8(%rbp),%rax
  406c16:	8b 10                	mov    (%rax),%edx
  406c18:	48 8b 45 f0          	mov    -0x10(%rbp),%rax
  406c1c:	8b 00                	mov    (%rax),%eax
  406c1e:	39 c2                	cmp    %eax,%edx
  406c20:	0f 9e c0             	setle  %al
  406c23:	0f b6 c0             	movzbl %al,%eax
  406c26:	48 85 c0             	test   %rax,%rax
  406c29:	74 07                	je     406c32 <_ZN6google12Check_LEImplIiiEEPNSt7__cxx1112basic_stringIcSt11char_traitsIcESaIcEEERKT_RKT0_PKc+0x34>
  406c2b:	b8 00 00 00 00       	mov    $0x0,%eax
  406c30:	eb 17                	jmp    406c49 <_ZN6google12Check_LEImplIiiEEPNSt7__cxx1112basic_stringIcSt11char_traitsIcESaIcEEERKT_RKT0_PKc+0x4b>
  406c32:	48 8b 55 e8          	mov    -0x18(%rbp),%rdx
  406c36:	48 8b 4d f0          	mov    -0x10(%rbp),%rcx
  406c3a:	48 8b 45 f8          	mov    -0x8(%rbp),%rax
  406c3e:	48 89 ce             	mov    %rcx,%rsi
  406c41:	48 89 c7             	mov    %rax,%rdi
  406c44:	e8 4d 0c 00 00       	callq  407896 <_ZN6google17MakeCheckOpStringIiiEEPNSt7__cxx1112basic_stringIcSt11char_traitsIcESaIcEEERKT_RKT0_PKc>
  406c49:	c9                   	leaveq 
  406c4a:	c3                   	retq   

0000000000406c4b <_ZN6google12Check_LTImplIiiEEPNSt7__cxx1112basic_stringIcSt11char_traitsIcESaIcEEERKT_RKT0_PKc>:
  406c4b:	55                   	push   %rbp
  406c4c:	48 89 e5             	mov    %rsp,%rbp
  406c4f:	48 83 ec 20          	sub    $0x20,%rsp
  406c53:	48 89 7d f8          	mov    %rdi,-0x8(%rbp)
  406c57:	48 89 75 f0          	mov    %rsi,-0x10(%rbp)
  406c5b:	48 89 55 e8          	mov    %rdx,-0x18(%rbp)
  406c5f:	48 8b 45 f8          	mov    -0x8(%rbp),%rax
  406c63:	8b 10                	mov    (%rax),%edx
  406c65:	48 8b 45 f0          	mov    -0x10(%rbp),%rax
  406c69:	8b 00                	mov    (%rax),%eax
  406c6b:	39 c2                	cmp    %eax,%edx
  406c6d:	0f 9c c0             	setl   %al
  406c70:	0f b6 c0             	movzbl %al,%eax
  406c73:	48 85 c0             	test   %rax,%rax
  406c76:	74 07                	je     406c7f <_ZN6google12Check_LTImplIiiEEPNSt7__cxx1112basic_stringIcSt11char_traitsIcESaIcEEERKT_RKT0_PKc+0x34>
  406c78:	b8 00 00 00 00       	mov    $0x0,%eax
  406c7d:	eb 17                	jmp    406c96 <_ZN6google12Check_LTImplIiiEEPNSt7__cxx1112basic_stringIcSt11char_traitsIcESaIcEEERKT_RKT0_PKc+0x4b>
  406c7f:	48 8b 55 e8          	mov    -0x18(%rbp),%rdx
  406c83:	48 8b 4d f0          	mov    -0x10(%rbp),%rcx
  406c87:	48 8b 45 f8          	mov    -0x8(%rbp),%rax
  406c8b:	48 89 ce             	mov    %rcx,%rsi
  406c8e:	48 89 c7             	mov    %rax,%rdi
  406c91:	e8 00 0c 00 00       	callq  407896 <_ZN6google17MakeCheckOpStringIiiEEPNSt7__cxx1112basic_stringIcSt11char_traitsIcESaIcEEERKT_RKT0_PKc>
  406c96:	c9                   	leaveq 
  406c97:	c3                   	retq   

0000000000406c98 <_ZN6google12Check_GEImplIiiEEPNSt7__cxx1112basic_stringIcSt11char_traitsIcESaIcEEERKT_RKT0_PKc>:
  406c98:	55                   	push   %rbp
  406c99:	48 89 e5             	mov    %rsp,%rbp
  406c9c:	48 83 ec 20          	sub    $0x20,%rsp
  406ca0:	48 89 7d f8          	mov    %rdi,-0x8(%rbp)
  406ca4:	48 89 75 f0          	mov    %rsi,-0x10(%rbp)
  406ca8:	48 89 55 e8          	mov    %rdx,-0x18(%rbp)
  406cac:	48 8b 45 f8          	mov    -0x8(%rbp),%rax
  406cb0:	8b 10                	mov    (%rax),%edx
  406cb2:	48 8b 45 f0          	mov    -0x10(%rbp),%rax
  406cb6:	8b 00                	mov    (%rax),%eax
  406cb8:	39 c2                	cmp    %eax,%edx
  406cba:	0f 9d c0             	setge  %al
  406cbd:	0f b6 c0             	movzbl %al,%eax
  406cc0:	48 85 c0             	test   %rax,%rax
  406cc3:	74 07                	je     406ccc <_ZN6google12Check_GEImplIiiEEPNSt7__cxx1112basic_stringIcSt11char_traitsIcESaIcEEERKT_RKT0_PKc+0x34>
  406cc5:	b8 00 00 00 00       	mov    $0x0,%eax
  406cca:	eb 17                	jmp    406ce3 <_ZN6google12Check_GEImplIiiEEPNSt7__cxx1112basic_stringIcSt11char_traitsIcESaIcEEERKT_RKT0_PKc+0x4b>
  406ccc:	48 8b 55 e8          	mov    -0x18(%rbp),%rdx
  406cd0:	48 8b 4d f0          	mov    -0x10(%rbp),%rcx
  406cd4:	48 8b 45 f8          	mov    -0x8(%rbp),%rax
  406cd8:	48 89 ce             	mov    %rcx,%rsi
  406cdb:	48 89 c7             	mov    %rax,%rdi
  406cde:	e8 b3 0b 00 00       	callq  407896 <_ZN6google17MakeCheckOpStringIiiEEPNSt7__cxx1112basic_stringIcSt11char_traitsIcESaIcEEERKT_RKT0_PKc>
  406ce3:	c9                   	leaveq 
  406ce4:	c3                   	retq   
  406ce5:	90                   	nop

0000000000406ce6 <_ZNK6google8protobuf13RepeatedFieldIfE4sizeEv>:
  406ce6:	55                   	push   %rbp
  406ce7:	48 89 e5             	mov    %rsp,%rbp
  406cea:	48 89 7d f8          	mov    %rdi,-0x8(%rbp)
  406cee:	48 8b 45 f8          	mov    -0x8(%rbp),%rax
  406cf2:	8b 00                	mov    (%rax),%eax
  406cf4:	5d                   	pop    %rbp
  406cf5:	c3                   	retq   

0000000000406cf6 <_ZNK6google8protobuf13RepeatedFieldIfE3GetEi>:
  406cf6:	55                   	push   %rbp
  406cf7:	48 89 e5             	mov    %rsp,%rbp
  406cfa:	41 54                	push   %r12
  406cfc:	53                   	push   %rbx
  406cfd:	48 81 ec a0 00 00 00 	sub    $0xa0,%rsp
  406d04:	48 89 bd 58 ff ff ff 	mov    %rdi,-0xa8(%rbp)
  406d0b:	89 b5 54 ff ff ff    	mov    %esi,-0xac(%rbp)
  406d11:	64 48 8b 04 25 28 00 	mov    %fs:0x28,%rax
  406d18:	00 00 
  406d1a:	48 89 45 e8          	mov    %rax,-0x18(%rbp)
  406d1e:	31 c0                	xor    %eax,%eax
  406d20:	bb 00 00 00 00       	mov    $0x0,%ebx
  406d25:	41 bc 00 00 00 00    	mov    $0x0,%r12d
  406d2b:	83 bd 54 ff ff ff 00 	cmpl   $0x0,-0xac(%rbp)
  406d32:	79 52                	jns    406d86 <_ZNK6google8protobuf13RepeatedFieldIfE3GetEi+0x90>
  406d34:	48 8d 85 70 ff ff ff 	lea    -0x90(%rbp),%rax
  406d3b:	b9 43 04 00 00       	mov    $0x443,%ecx
  406d40:	ba f8 d3 40 00       	mov    $0x40d3f8,%edx
  406d45:	be 03 00 00 00       	mov    $0x3,%esi
  406d4a:	48 89 c7             	mov    %rax,%rdi
  406d4d:	e8 0e e2 ff ff       	callq  404f60 <_ZN6google8protobuf8internal10LogMessageC1ENS0_8LogLevelEPKci@plt>
  406d52:	bb 01 00 00 00       	mov    $0x1,%ebx
  406d57:	48 8d 85 70 ff ff ff 	lea    -0x90(%rbp),%rax
  406d5e:	be 68 d4 40 00       	mov    $0x40d468,%esi
  406d63:	48 89 c7             	mov    %rax,%rdi
  406d66:	e8 55 e5 ff ff       	callq  4052c0 <_ZN6google8protobuf8internal10LogMessagelsEPKc@plt>
  406d6b:	48 89 c2             	mov    %rax,%rdx
  406d6e:	41 bc 01 00 00 00    	mov    $0x1,%r12d
  406d74:	48 8d 85 6e ff ff ff 	lea    -0x92(%rbp),%rax
  406d7b:	48 89 d6             	mov    %rdx,%rsi
  406d7e:	48 89 c7             	mov    %rax,%rdi
  406d81:	e8 da e2 ff ff       	callq  405060 <_ZN6google8protobuf8internal11LogFinisheraSERNS1_10LogMessageE@plt>
  406d86:	45 84 e4             	test   %r12b,%r12b
  406d89:	84 db                	test   %bl,%bl
  406d8b:	74 12                	je     406d9f <_ZNK6google8protobuf13RepeatedFieldIfE3GetEi+0xa9>
  406d8d:	90                   	nop
  406d8e:	48 8d 85 70 ff ff ff 	lea    -0x90(%rbp),%rax
  406d95:	48 89 c7             	mov    %rax,%rdi
  406d98:	e8 63 e3 ff ff       	callq  405100 <_ZN6google8protobuf8internal10LogMessageD1Ev@plt>
  406d9d:	eb 01                	jmp    406da0 <_ZNK6google8protobuf13RepeatedFieldIfE3GetEi+0xaa>
  406d9f:	90                   	nop
  406da0:	48 8b 85 58 ff ff ff 	mov    -0xa8(%rbp),%rax
  406da7:	8b 00                	mov    (%rax),%eax
  406da9:	bb 00 00 00 00       	mov    $0x0,%ebx
  406dae:	41 bc 00 00 00 00    	mov    $0x0,%r12d
  406db4:	3b 85 54 ff ff ff    	cmp    -0xac(%rbp),%eax
  406dba:	7f 4c                	jg     406e08 <_ZNK6google8protobuf13RepeatedFieldIfE3GetEi+0x112>
  406dbc:	48 8d 45 b0          	lea    -0x50(%rbp),%rax
  406dc0:	b9 44 04 00 00       	mov    $0x444,%ecx
  406dc5:	ba f8 d3 40 00       	mov    $0x40d3f8,%edx
  406dca:	be 03 00 00 00       	mov    $0x3,%esi
  406dcf:	48 89 c7             	mov    %rax,%rdi
  406dd2:	e8 89 e1 ff ff       	callq  404f60 <_ZN6google8protobuf8internal10LogMessageC1ENS0_8LogLevelEPKci@plt>
  406dd7:	bb 01 00 00 00       	mov    $0x1,%ebx
  406ddc:	48 8d 45 b0          	lea    -0x50(%rbp),%rax
  406de0:	be 88 d4 40 00       	mov    $0x40d488,%esi
  406de5:	48 89 c7             	mov    %rax,%rdi
  406de8:	e8 d3 e4 ff ff       	callq  4052c0 <_ZN6google8protobuf8internal10LogMessagelsEPKc@plt>
  406ded:	48 89 c2             	mov    %rax,%rdx
  406df0:	41 bc 01 00 00 00    	mov    $0x1,%r12d
  406df6:	48 8d 85 6f ff ff ff 	lea    -0x91(%rbp),%rax
  406dfd:	48 89 d6             	mov    %rdx,%rsi
  406e00:	48 89 c7             	mov    %rax,%rdi
  406e03:	e8 58 e2 ff ff       	callq  405060 <_ZN6google8protobuf8internal11LogFinisheraSERNS1_10LogMessageE@plt>
  406e08:	45 84 e4             	test   %r12b,%r12b
  406e0b:	84 db                	test   %bl,%bl
  406e0d:	74 0f                	je     406e1e <_ZNK6google8protobuf13RepeatedFieldIfE3GetEi+0x128>
  406e0f:	90                   	nop
  406e10:	48 8d 45 b0          	lea    -0x50(%rbp),%rax
  406e14:	48 89 c7             	mov    %rax,%rdi
  406e17:	e8 e4 e2 ff ff       	callq  405100 <_ZN6google8protobuf8internal10LogMessageD1Ev@plt>
  406e1c:	eb 01                	jmp    406e1f <_ZNK6google8protobuf13RepeatedFieldIfE3GetEi+0x129>
  406e1e:	90                   	nop
  406e1f:	48 8b 85 58 ff ff ff 	mov    -0xa8(%rbp),%rax
  406e26:	48 8b 40 08          	mov    0x8(%rax),%rax
  406e2a:	8b 95 54 ff ff ff    	mov    -0xac(%rbp),%edx
  406e30:	48 63 d2             	movslq %edx,%rdx
  406e33:	48 c1 e2 02          	shl    $0x2,%rdx
  406e37:	48 01 d0             	add    %rdx,%rax
  406e3a:	48 83 c0 08          	add    $0x8,%rax
  406e3e:	48 8b 4d e8          	mov    -0x18(%rbp),%rcx
  406e42:	64 48 33 0c 25 28 00 	xor    %fs:0x28,%rcx
  406e49:	00 00 
  406e4b:	74 54                	je     406ea1 <_ZNK6google8protobuf13RepeatedFieldIfE3GetEi+0x1ab>
  406e4d:	eb 4d                	jmp    406e9c <_ZNK6google8protobuf13RepeatedFieldIfE3GetEi+0x1a6>
  406e4f:	45 84 e4             	test   %r12b,%r12b
  406e52:	49 89 c4             	mov    %rax,%r12
  406e55:	84 db                	test   %bl,%bl
  406e57:	74 12                	je     406e6b <_ZNK6google8protobuf13RepeatedFieldIfE3GetEi+0x175>
  406e59:	90                   	nop
  406e5a:	48 8d 85 70 ff ff ff 	lea    -0x90(%rbp),%rax
  406e61:	48 89 c7             	mov    %rax,%rdi
  406e64:	e8 97 e2 ff ff       	callq  405100 <_ZN6google8protobuf8internal10LogMessageD1Ev@plt>
  406e69:	eb 01                	jmp    406e6c <_ZNK6google8protobuf13RepeatedFieldIfE3GetEi+0x176>
  406e6b:	90                   	nop
  406e6c:	4c 89 e0             	mov    %r12,%rax
  406e6f:	48 89 c7             	mov    %rax,%rdi
  406e72:	e8 39 e1 ff ff       	callq  404fb0 <_Unwind_Resume@plt>
  406e77:	45 84 e4             	test   %r12b,%r12b
  406e7a:	49 89 c4             	mov    %rax,%r12
  406e7d:	84 db                	test   %bl,%bl
  406e7f:	74 0f                	je     406e90 <_ZNK6google8protobuf13RepeatedFieldIfE3GetEi+0x19a>
  406e81:	90                   	nop
  406e82:	48 8d 45 b0          	lea    -0x50(%rbp),%rax
  406e86:	48 89 c7             	mov    %rax,%rdi
  406e89:	e8 72 e2 ff ff       	callq  405100 <_ZN6google8protobuf8internal10LogMessageD1Ev@plt>
  406e8e:	eb 01                	jmp    406e91 <_ZNK6google8protobuf13RepeatedFieldIfE3GetEi+0x19b>
  406e90:	90                   	nop
  406e91:	4c 89 e0             	mov    %r12,%rax
  406e94:	48 89 c7             	mov    %rax,%rdi
  406e97:	e8 14 e1 ff ff       	callq  404fb0 <_Unwind_Resume@plt>
  406e9c:	e8 7f df ff ff       	callq  404e20 <__stack_chk_fail@plt>
  406ea1:	48 81 c4 a0 00 00 00 	add    $0xa0,%rsp
  406ea8:	5b                   	pop    %rbx
  406ea9:	41 5c                	pop    %r12
  406eab:	5d                   	pop    %rbp
  406eac:	c3                   	retq   
  406ead:	90                   	nop

0000000000406eae <_ZNK6google8protobuf16RepeatedPtrFieldIN5caffe9BlobProtoEE4sizeEv>:
  406eae:	55                   	push   %rbp
  406eaf:	48 89 e5             	mov    %rsp,%rbp
  406eb2:	48 83 ec 10          	sub    $0x10,%rsp
  406eb6:	48 89 7d f8          	mov    %rdi,-0x8(%rbp)
  406eba:	48 8b 45 f8          	mov    -0x8(%rbp),%rax
  406ebe:	48 89 c7             	mov    %rax,%rdi
  406ec1:	e8 28 ea ff ff       	callq  4058ee <_ZNK6google8protobuf8internal20RepeatedPtrFieldBase4sizeEv>
  406ec6:	c9                   	leaveq 
  406ec7:	c3                   	retq   

0000000000406ec8 <_ZN6google8protobuf16RepeatedPtrFieldIN5caffe9BlobProtoEE5ClearEv>:
  406ec8:	55                   	push   %rbp
  406ec9:	48 89 e5             	mov    %rsp,%rbp
  406ecc:	48 83 ec 10          	sub    $0x10,%rsp
  406ed0:	48 89 7d f8          	mov    %rdi,-0x8(%rbp)
  406ed4:	48 8b 45 f8          	mov    -0x8(%rbp),%rax
  406ed8:	48 89 c7             	mov    %rax,%rdi
  406edb:	e8 7e 0a 00 00       	callq  40795e <_ZN6google8protobuf8internal20RepeatedPtrFieldBase5ClearINS0_16RepeatedPtrFieldIN5caffe9BlobProtoEE11TypeHandlerEEEvv>
  406ee0:	90                   	nop
  406ee1:	c9                   	leaveq 
  406ee2:	c3                   	retq   
  406ee3:	90                   	nop

0000000000406ee4 <_ZNK6google8protobuf16RepeatedPtrFieldIN5caffe9BlobProtoEE3GetEi>:
  406ee4:	55                   	push   %rbp
  406ee5:	48 89 e5             	mov    %rsp,%rbp
  406ee8:	48 83 ec 10          	sub    $0x10,%rsp
  406eec:	48 89 7d f8          	mov    %rdi,-0x8(%rbp)
  406ef0:	89 75 f4             	mov    %esi,-0xc(%rbp)
  406ef3:	48 8b 45 f8          	mov    -0x8(%rbp),%rax
  406ef7:	8b 55 f4             	mov    -0xc(%rbp),%edx
  406efa:	89 d6                	mov    %edx,%esi
  406efc:	48 89 c7             	mov    %rax,%rdi
  406eff:	e8 9c 0b 00 00       	callq  407aa0 <_ZNK6google8protobuf8internal20RepeatedPtrFieldBase3GetINS0_16RepeatedPtrFieldIN5caffe9BlobProtoEE11TypeHandlerEEERKNT_4TypeEi>
  406f04:	c9                   	leaveq 
  406f05:	c3                   	retq   

0000000000406f06 <_ZN6google8protobuf16RepeatedPtrFieldIN5caffe9BlobProtoEE3AddEv>:
  406f06:	55                   	push   %rbp
  406f07:	48 89 e5             	mov    %rsp,%rbp
  406f0a:	48 83 ec 10          	sub    $0x10,%rsp
  406f0e:	48 89 7d f8          	mov    %rdi,-0x8(%rbp)
  406f12:	48 8b 45 f8          	mov    -0x8(%rbp),%rax
  406f16:	be 00 00 00 00       	mov    $0x0,%esi
  406f1b:	48 89 c7             	mov    %rax,%rdi
  406f1e:	e8 37 0d 00 00       	callq  407c5a <_ZN6google8protobuf8internal20RepeatedPtrFieldBase3AddINS0_16RepeatedPtrFieldIN5caffe9BlobProtoEE11TypeHandlerEEEPNT_4TypeESB_>
  406f23:	c9                   	leaveq 
  406f24:	c3                   	retq   
  406f25:	90                   	nop

0000000000406f26 <_ZNSt6vectorIPN5caffe4BlobIfEESaIS3_EEC1Ev>:
  406f26:	55                   	push   %rbp
  406f27:	48 89 e5             	mov    %rsp,%rbp
  406f2a:	48 83 ec 10          	sub    $0x10,%rsp
  406f2e:	48 89 7d f8          	mov    %rdi,-0x8(%rbp)
  406f32:	48 8b 45 f8          	mov    -0x8(%rbp),%rax
  406f36:	48 89 c7             	mov    %rax,%rdi
  406f39:	e8 24 0e 00 00       	callq  407d62 <_ZNSt12_Vector_baseIPN5caffe4BlobIfEESaIS3_EEC1Ev>
  406f3e:	90                   	nop
  406f3f:	c9                   	leaveq 
  406f40:	c3                   	retq   
  406f41:	90                   	nop

0000000000406f42 <_ZNSt6vectorIPN5caffe4BlobIfEESaIS3_EED1Ev>:
  406f42:	55                   	push   %rbp
  406f43:	48 89 e5             	mov    %rsp,%rbp
  406f46:	48 83 ec 10          	sub    $0x10,%rsp
  406f4a:	48 89 7d f8          	mov    %rdi,-0x8(%rbp)
  406f4e:	48 8b 45 f8          	mov    -0x8(%rbp),%rax
  406f52:	48 89 c7             	mov    %rax,%rdi
  406f55:	e8 74 0e 00 00       	callq  407dce <_ZNSt12_Vector_baseIPN5caffe4BlobIfEESaIS3_EE19_M_get_Tp_allocatorEv>
  406f5a:	48 89 c2             	mov    %rax,%rdx
  406f5d:	48 8b 45 f8          	mov    -0x8(%rbp),%rax
  406f61:	48 8b 48 08          	mov    0x8(%rax),%rcx
  406f65:	48 8b 45 f8          	mov    -0x8(%rbp),%rax
  406f69:	48 8b 00             	mov    (%rax),%rax
  406f6c:	48 89 ce             	mov    %rcx,%rsi
  406f6f:	48 89 c7             	mov    %rax,%rdi
  406f72:	e8 65 0e 00 00       	callq  407ddc <_ZSt8_DestroyIPPN5caffe4BlobIfEES3_EvT_S5_RSaIT0_E>
  406f77:	48 8b 45 f8          	mov    -0x8(%rbp),%rax
  406f7b:	48 89 c7             	mov    %rax,%rdi
  406f7e:	e8 fb 0d 00 00       	callq  407d7e <_ZNSt12_Vector_baseIPN5caffe4BlobIfEESaIS3_EED1Ev>
  406f83:	90                   	nop
  406f84:	c9                   	leaveq 
  406f85:	c3                   	retq   

0000000000406f86 <_ZNSt6vectorIPN5caffe4BlobIfEESaIS3_EE9push_backERKS3_>:
  406f86:	55                   	push   %rbp
  406f87:	48 89 e5             	mov    %rsp,%rbp
  406f8a:	48 83 ec 10          	sub    $0x10,%rsp
  406f8e:	48 89 7d f8          	mov    %rdi,-0x8(%rbp)
  406f92:	48 89 75 f0          	mov    %rsi,-0x10(%rbp)
  406f96:	48 8b 45 f8          	mov    -0x8(%rbp),%rax
  406f9a:	48 8b 50 08          	mov    0x8(%rax),%rdx
  406f9e:	48 8b 45 f8          	mov    -0x8(%rbp),%rax
  406fa2:	48 8b 40 10          	mov    0x10(%rax),%rax
  406fa6:	48 39 c2             	cmp    %rax,%rdx
  406fa9:	74 31                	je     406fdc <_ZNSt6vectorIPN5caffe4BlobIfEESaIS3_EE9push_backERKS3_+0x56>
  406fab:	48 8b 45 f8          	mov    -0x8(%rbp),%rax
  406faf:	48 8b 48 08          	mov    0x8(%rax),%rcx
  406fb3:	48 8b 45 f8          	mov    -0x8(%rbp),%rax
  406fb7:	48 8b 55 f0          	mov    -0x10(%rbp),%rdx
  406fbb:	48 89 ce             	mov    %rcx,%rsi
  406fbe:	48 89 c7             	mov    %rax,%rdi
  406fc1:	e8 4e 0e 00 00       	callq  407e14 <_ZNSt16allocator_traitsISaIPN5caffe4BlobIfEEEE9constructIS3_JRKS3_EEEvRS4_PT_DpOT0_>
  406fc6:	48 8b 45 f8          	mov    -0x8(%rbp),%rax
  406fca:	48 8b 40 08          	mov    0x8(%rax),%rax
  406fce:	48 8d 50 08          	lea    0x8(%rax),%rdx
  406fd2:	48 8b 45 f8          	mov    -0x8(%rbp),%rax
  406fd6:	48 89 50 08          	mov    %rdx,0x8(%rax)
  406fda:	eb 13                	jmp    406fef <_ZNSt6vectorIPN5caffe4BlobIfEESaIS3_EE9push_backERKS3_+0x69>
  406fdc:	48 8b 55 f0          	mov    -0x10(%rbp),%rdx
  406fe0:	48 8b 45 f8          	mov    -0x8(%rbp),%rax
  406fe4:	48 89 d6             	mov    %rdx,%rsi
  406fe7:	48 89 c7             	mov    %rax,%rdi
  406fea:	e8 5f 0e 00 00       	callq  407e4e <_ZNSt6vectorIPN5caffe4BlobIfEESaIS3_EE19_M_emplace_back_auxIJRKS3_EEEvDpOT_>
  406fef:	90                   	nop
  406ff0:	c9                   	leaveq 
  406ff1:	c3                   	retq   

0000000000406ff2 <_ZN5caffe4BlobIfEC1Ev>:
  406ff2:	55                   	push   %rbp
  406ff3:	48 89 e5             	mov    %rsp,%rbp
  406ff6:	48 83 ec 10          	sub    $0x10,%rsp
  406ffa:	48 89 7d f8          	mov    %rdi,-0x8(%rbp)
  406ffe:	48 8b 45 f8          	mov    -0x8(%rbp),%rax
  407002:	48 89 c7             	mov    %rax,%rdi
  407005:	e8 2e 10 00 00       	callq  408038 <_ZN5boost10shared_ptrIN5caffe12SyncedMemoryEEC1Ev>
  40700a:	48 8b 45 f8          	mov    -0x8(%rbp),%rax
  40700e:	48 83 c0 10          	add    $0x10,%rax
  407012:	48 89 c7             	mov    %rax,%rdi
  407015:	e8 1e 10 00 00       	callq  408038 <_ZN5boost10shared_ptrIN5caffe12SyncedMemoryEEC1Ev>
  40701a:	48 8b 45 f8          	mov    -0x8(%rbp),%rax
  40701e:	48 83 c0 20          	add    $0x20,%rax
  407022:	48 89 c7             	mov    %rax,%rdi
  407025:	e8 0e 10 00 00       	callq  408038 <_ZN5boost10shared_ptrIN5caffe12SyncedMemoryEEC1Ev>
  40702a:	48 8b 45 f8          	mov    -0x8(%rbp),%rax
  40702e:	48 83 c0 30          	add    $0x30,%rax
  407032:	48 89 c7             	mov    %rax,%rdi
  407035:	e8 28 10 00 00       	callq  408062 <_ZNSt6vectorIiSaIiEEC1Ev>
  40703a:	48 8b 45 f8          	mov    -0x8(%rbp),%rax
  40703e:	c7 40 48 00 00 00 00 	movl   $0x0,0x48(%rax)
  407045:	48 8b 45 f8          	mov    -0x8(%rbp),%rax
  407049:	c7 40 4c 00 00 00 00 	movl   $0x0,0x4c(%rax)
  407050:	90                   	nop
  407051:	c9                   	leaveq 
  407052:	c3                   	retq   
  407053:	90                   	nop

0000000000407054 <_ZN5caffe4BlobIiED1Ev>:
  407054:	55                   	push   %rbp
  407055:	48 89 e5             	mov    %rsp,%rbp
  407058:	48 83 ec 10          	sub    $0x10,%rsp
  40705c:	48 89 7d f8          	mov    %rdi,-0x8(%rbp)
  407060:	48 8b 45 f8          	mov    -0x8(%rbp),%rax
  407064:	48 83 c0 30          	add    $0x30,%rax
  407068:	48 89 c7             	mov    %rax,%rdi
  40706b:	e8 e2 07 00 00       	callq  407852 <_ZNSt6vectorIiSaIiEED1Ev>
  407070:	48 8b 45 f8          	mov    -0x8(%rbp),%rax
  407074:	48 83 c0 20          	add    $0x20,%rax
  407078:	48 89 c7             	mov    %rax,%rdi
  40707b:	e8 d0 f4 ff ff       	callq  406550 <_ZN5boost10shared_ptrIN5caffe12SyncedMemoryEED1Ev>
  407080:	48 8b 45 f8          	mov    -0x8(%rbp),%rax
  407084:	48 83 c0 10          	add    $0x10,%rax
  407088:	48 89 c7             	mov    %rax,%rdi
  40708b:	e8 c0 f4 ff ff       	callq  406550 <_ZN5boost10shared_ptrIN5caffe12SyncedMemoryEED1Ev>
  407090:	48 8b 45 f8          	mov    -0x8(%rbp),%rax
  407094:	48 89 c7             	mov    %rax,%rdi
  407097:	e8 b4 f4 ff ff       	callq  406550 <_ZN5boost10shared_ptrIN5caffe12SyncedMemoryEED1Ev>
  40709c:	90                   	nop
  40709d:	c9                   	leaveq 
  40709e:	c3                   	retq   
  40709f:	90                   	nop

00000000004070a0 <_ZN5caffe20BaseConvolutionLayerIfED1Ev>:
  4070a0:	55                   	push   %rbp
  4070a1:	48 89 e5             	mov    %rsp,%rbp
  4070a4:	48 83 ec 10          	sub    $0x10,%rsp
  4070a8:	48 89 7d f8          	mov    %rdi,-0x8(%rbp)
  4070ac:	ba a8 dd 40 00       	mov    $0x40dda8,%edx
  4070b1:	48 8b 45 f8          	mov    -0x8(%rbp),%rax
  4070b5:	48 89 10             	mov    %rdx,(%rax)
  4070b8:	48 8b 45 f8          	mov    -0x8(%rbp),%rax
  4070bc:	48 05 28 05 00 00    	add    $0x528,%rax
  4070c2:	48 89 c7             	mov    %rax,%rdi
  4070c5:	e8 a6 f4 ff ff       	callq  406570 <_ZN5caffe4BlobIfED1Ev>
  4070ca:	48 8b 45 f8          	mov    -0x8(%rbp),%rax
  4070ce:	48 05 d8 04 00 00    	add    $0x4d8,%rax
  4070d4:	48 89 c7             	mov    %rax,%rdi
  4070d7:	e8 94 f4 ff ff       	callq  406570 <_ZN5caffe4BlobIfED1Ev>
  4070dc:	48 8b 45 f8          	mov    -0x8(%rbp),%rax
  4070e0:	48 05 68 04 00 00    	add    $0x468,%rax
  4070e6:	48 89 c7             	mov    %rax,%rdi
  4070e9:	e8 64 07 00 00       	callq  407852 <_ZNSt6vectorIiSaIiEED1Ev>
  4070ee:	48 8b 45 f8          	mov    -0x8(%rbp),%rax
  4070f2:	48 05 50 04 00 00    	add    $0x450,%rax
  4070f8:	48 89 c7             	mov    %rax,%rdi
  4070fb:	e8 52 07 00 00       	callq  407852 <_ZNSt6vectorIiSaIiEED1Ev>
  407100:	48 8b 45 f8          	mov    -0x8(%rbp),%rax
  407104:	48 05 00 04 00 00    	add    $0x400,%rax
  40710a:	48 89 c7             	mov    %rax,%rdi
  40710d:	e8 42 ff ff ff       	callq  407054 <_ZN5caffe4BlobIiED1Ev>
  407112:	48 8b 45 f8          	mov    -0x8(%rbp),%rax
  407116:	48 05 b0 03 00 00    	add    $0x3b0,%rax
  40711c:	48 89 c7             	mov    %rax,%rdi
  40711f:	e8 30 ff ff ff       	callq  407054 <_ZN5caffe4BlobIiED1Ev>
  407124:	48 8b 45 f8          	mov    -0x8(%rbp),%rax
  407128:	48 05 60 03 00 00    	add    $0x360,%rax
  40712e:	48 89 c7             	mov    %rax,%rdi
  407131:	e8 1e ff ff ff       	callq  407054 <_ZN5caffe4BlobIiED1Ev>
  407136:	48 8b 45 f8          	mov    -0x8(%rbp),%rax
  40713a:	48 05 10 03 00 00    	add    $0x310,%rax
  407140:	48 89 c7             	mov    %rax,%rdi
  407143:	e8 0c ff ff ff       	callq  407054 <_ZN5caffe4BlobIiED1Ev>
  407148:	48 8b 45 f8          	mov    -0x8(%rbp),%rax
  40714c:	48 05 c0 02 00 00    	add    $0x2c0,%rax
  407152:	48 89 c7             	mov    %rax,%rdi
  407155:	e8 fa fe ff ff       	callq  407054 <_ZN5caffe4BlobIiED1Ev>
  40715a:	48 8b 45 f8          	mov    -0x8(%rbp),%rax
  40715e:	48 89 c7             	mov    %rax,%rdi
  407161:	e8 ec 0f 00 00       	callq  408152 <_ZN5caffe5LayerIfED1Ev>
  407166:	90                   	nop
  407167:	c9                   	leaveq 
  407168:	c3                   	retq   
  407169:	90                   	nop

000000000040716a <_ZN5caffe20BaseConvolutionLayerIfED0Ev>:
  40716a:	55                   	push   %rbp
  40716b:	48 89 e5             	mov    %rsp,%rbp
  40716e:	48 83 ec 10          	sub    $0x10,%rsp
  407172:	48 89 7d f8          	mov    %rdi,-0x8(%rbp)
  407176:	48 8b 45 f8          	mov    -0x8(%rbp),%rax
  40717a:	48 89 c7             	mov    %rax,%rdi
  40717d:	e8 1e ff ff ff       	callq  4070a0 <_ZN5caffe20BaseConvolutionLayerIfED1Ev>
  407182:	48 8b 45 f8          	mov    -0x8(%rbp),%rax
  407186:	48 89 c7             	mov    %rax,%rdi
  407189:	e8 92 dd ff ff       	callq  404f20 <_ZdlPv@plt>
  40718e:	c9                   	leaveq 
  40718f:	c3                   	retq   

0000000000407190 <_ZN5caffe16ConvolutionLayerIfEC1ERKNS_14LayerParameterE>:
  407190:	55                   	push   %rbp
  407191:	48 89 e5             	mov    %rsp,%rbp
  407194:	48 83 ec 10          	sub    $0x10,%rsp
  407198:	48 89 7d f8          	mov    %rdi,-0x8(%rbp)
  40719c:	48 89 75 f0          	mov    %rsi,-0x10(%rbp)
  4071a0:	48 8b 45 f8          	mov    -0x8(%rbp),%rax
  4071a4:	48 8b 55 f0          	mov    -0x10(%rbp),%rdx
  4071a8:	48 89 d6             	mov    %rdx,%rsi
  4071ab:	48 89 c7             	mov    %rax,%rdi
  4071ae:	e8 cb 0e 00 00       	callq  40807e <_ZN5caffe20BaseConvolutionLayerIfEC1ERKNS_14LayerParameterE>
  4071b3:	ba e8 dc 40 00       	mov    $0x40dce8,%edx
  4071b8:	48 8b 45 f8          	mov    -0x8(%rbp),%rax
  4071bc:	48 89 10             	mov    %rdx,(%rax)
  4071bf:	90                   	nop
  4071c0:	c9                   	leaveq 
  4071c1:	c3                   	retq   

00000000004071c2 <_ZN5caffe5LayerIfE5SetUpERKSt6vectorIPNS_4BlobIfEESaIS5_EES9_>:
  4071c2:	55                   	push   %rbp
  4071c3:	48 89 e5             	mov    %rsp,%rbp
  4071c6:	48 83 ec 20          	sub    $0x20,%rsp
  4071ca:	48 89 7d f8          	mov    %rdi,-0x8(%rbp)
  4071ce:	48 89 75 f0          	mov    %rsi,-0x10(%rbp)
  4071d2:	48 89 55 e8          	mov    %rdx,-0x18(%rbp)
  4071d6:	48 8b 45 f8          	mov    -0x8(%rbp),%rax
  4071da:	48 8b 00             	mov    (%rax),%rax
  4071dd:	48 05 98 00 00 00    	add    $0x98,%rax
  4071e3:	48 8b 00             	mov    (%rax),%rax
  4071e6:	48 8b 55 e8          	mov    -0x18(%rbp),%rdx
  4071ea:	48 8b 75 f0          	mov    -0x10(%rbp),%rsi
  4071ee:	48 8b 4d f8          	mov    -0x8(%rbp),%rcx
  4071f2:	48 89 cf             	mov    %rcx,%rdi
  4071f5:	ff d0                	callq  *%rax
  4071f7:	48 8b 45 f8          	mov    -0x8(%rbp),%rax
  4071fb:	48 8b 00             	mov    (%rax),%rax
  4071fe:	48 83 c0 10          	add    $0x10,%rax
  407202:	48 8b 00             	mov    (%rax),%rax
  407205:	48 8b 55 e8          	mov    -0x18(%rbp),%rdx
  407209:	48 8b 75 f0          	mov    -0x10(%rbp),%rsi
  40720d:	48 8b 4d f8          	mov    -0x8(%rbp),%rcx
  407211:	48 89 cf             	mov    %rcx,%rdi
  407214:	ff d0                	callq  *%rax
  407216:	48 8b 45 f8          	mov    -0x8(%rbp),%rax
  40721a:	48 8b 00             	mov    (%rax),%rax
  40721d:	48 83 c0 18          	add    $0x18,%rax
  407221:	48 8b 00             	mov    (%rax),%rax
  407224:	48 8b 55 e8          	mov    -0x18(%rbp),%rdx
  407228:	48 8b 75 f0          	mov    -0x10(%rbp),%rsi
  40722c:	48 8b 4d f8          	mov    -0x8(%rbp),%rcx
  407230:	48 89 cf             	mov    %rcx,%rdi
  407233:	ff d0                	callq  *%rax
  407235:	48 8b 55 e8          	mov    -0x18(%rbp),%rdx
  407239:	48 8b 45 f8          	mov    -0x8(%rbp),%rax
  40723d:	48 89 d6             	mov    %rdx,%rsi
  407240:	48 89 c7             	mov    %rax,%rdi
  407243:	e8 5e 18 00 00       	callq  408aa6 <_ZN5caffe5LayerIfE14SetLossWeightsERKSt6vectorIPNS_4BlobIfEESaIS5_EE>
  407248:	90                   	nop
  407249:	c9                   	leaveq 
  40724a:	c3                   	retq   

000000000040724b <_ZN2CK13measure_setupIZNS_5Caffe16test_convolutionEbEUlvE_EEvOT_>:
  40724b:	55                   	push   %rbp
  40724c:	48 89 e5             	mov    %rsp,%rbp
  40724f:	48 83 ec 10          	sub    $0x10,%rsp
  407253:	48 89 7d f8          	mov    %rdi,-0x8(%rbp)
  407257:	48 8b 45 f8          	mov    -0x8(%rbp),%rax
  40725b:	be 00 00 00 00       	mov    $0x0,%esi
  407260:	48 89 c7             	mov    %rax,%rdi
  407263:	e8 26 1a 00 00       	callq  408c8e <_ZN2CK11do_measuredIRZNS_5Caffe16test_convolutionEbEUlvE_EEvOT_i>
  407268:	bf 00 00 00 00       	mov    $0x0,%edi
  40726d:	e8 8e dc ff ff       	callq  404f00 <xopenme_get_timer@plt>
  407272:	f2 0f 5a c0          	cvtsd2ss %xmm0,%xmm0
  407276:	e8 7b e1 ff ff       	callq  4053f6 <_ZN2CK16store_setup_timeEf>
  40727b:	90                   	nop
  40727c:	c9                   	leaveq 
  40727d:	c3                   	retq   

000000000040727e <_ZN2CK19get_random_raw_dataIfEEPT_RKNS_5ShapeE>:
  40727e:	55                   	push   %rbp
  40727f:	48 89 e5             	mov    %rsp,%rbp
  407282:	53                   	push   %rbx
  407283:	48 83 ec 38          	sub    $0x38,%rsp
  407287:	48 89 7d c8          	mov    %rdi,-0x38(%rbp)
  40728b:	ba 20 00 00 00       	mov    $0x20,%edx
  407290:	be b2 d4 40 00       	mov    $0x40d4b2,%esi
  407295:	bf 09 00 00 00       	mov    $0x9,%edi
  40729a:	e8 01 ef ff ff       	callq  4061a0 <_ZN2CK13store_value_iEiPKci>
  40729f:	c7 45 dc 40 42 0f 00 	movl   $0xf4240,-0x24(%rbp)
  4072a6:	c7 45 e0 81 84 1e 00 	movl   $0x1e8481,-0x20(%rbp)
  4072ad:	48 8b 45 c8          	mov    -0x38(%rbp),%rax
  4072b1:	48 89 c7             	mov    %rax,%rdi
  4072b4:	e8 b5 ed ff ff       	callq  40606e <_ZNK2CK5Shape10data_countEv>
  4072b9:	89 45 e4             	mov    %eax,-0x1c(%rbp)
  4072bc:	8b 45 e4             	mov    -0x1c(%rbp),%eax
  4072bf:	48 63 d0             	movslq %eax,%rdx
  4072c2:	48 b8 fe ff ff ff ff 	movabs $0x1ffffffffffffffe,%rax
  4072c9:	ff ff 1f 
  4072cc:	48 39 c2             	cmp    %rax,%rdx
  4072cf:	77 1e                	ja     4072ef <_ZN2CK19get_random_raw_dataIfEEPT_RKNS_5ShapeE+0x71>
  4072d1:	8b 45 e4             	mov    -0x1c(%rbp),%eax
  4072d4:	48 98                	cltq   
  4072d6:	48 c1 e0 02          	shl    $0x2,%rax
  4072da:	48 89 c7             	mov    %rax,%rdi
  4072dd:	e8 fe db ff ff       	callq  404ee0 <_Znam@plt>
  4072e2:	48 89 45 e8          	mov    %rax,-0x18(%rbp)
  4072e6:	c7 45 d8 00 00 00 00 	movl   $0x0,-0x28(%rbp)
  4072ed:	eb 05                	jmp    4072f4 <_ZN2CK19get_random_raw_dataIfEEPT_RKNS_5ShapeE+0x76>
  4072ef:	e8 8c dd ff ff       	callq  405080 <__cxa_throw_bad_array_new_length@plt>
  4072f4:	8b 45 d8             	mov    -0x28(%rbp),%eax
  4072f7:	3b 45 e4             	cmp    -0x1c(%rbp),%eax
  4072fa:	7d 5e                	jge    40735a <_ZN2CK19get_random_raw_dataIfEEPT_RKNS_5ShapeE+0xdc>
  4072fc:	8b 45 d8             	mov    -0x28(%rbp),%eax
  4072ff:	48 98                	cltq   
  407301:	48 8d 14 85 00 00 00 	lea    0x0(,%rax,4),%rdx
  407308:	00 
  407309:	48 8b 45 e8          	mov    -0x18(%rbp),%rax
  40730d:	48 8d 1c 02          	lea    (%rdx,%rax,1),%rbx
  407311:	e8 3a de ff ff       	callq  405150 <rand@plt>
  407316:	89 c1                	mov    %eax,%ecx
  407318:	ba c5 bd 31 04       	mov    $0x431bdc5,%edx
  40731d:	89 c8                	mov    %ecx,%eax
  40731f:	f7 ea                	imul   %edx
  407321:	c1 fa 0f             	sar    $0xf,%edx
  407324:	89 c8                	mov    %ecx,%eax
  407326:	c1 f8 1f             	sar    $0x1f,%eax
  407329:	29 c2                	sub    %eax,%edx
  40732b:	89 d0                	mov    %edx,%eax
  40732d:	69 c0 81 84 1e 00    	imul   $0x1e8481,%eax,%eax
  407333:	29 c1                	sub    %eax,%ecx
  407335:	89 c8                	mov    %ecx,%eax
  407337:	2d 40 42 0f 00       	sub    $0xf4240,%eax
  40733c:	66 0f ef c0          	pxor   %xmm0,%xmm0
  407340:	f3 0f 2a c0          	cvtsi2ss %eax,%xmm0
  407344:	f3 0f 10 0d 44 69 00 	movss  0x6944(%rip),%xmm1        # 40dc90 <_ZZNK5boost10shared_ptrIN5caffe12SyncedMemoryEEptEvE19__PRETTY_FUNCTION__+0xd0>
  40734b:	00 
  40734c:	f3 0f 5e c1          	divss  %xmm1,%xmm0
  407350:	f3 0f 11 03          	movss  %xmm0,(%rbx)
  407354:	83 45 d8 01          	addl   $0x1,-0x28(%rbp)
  407358:	eb 9a                	jmp    4072f4 <_ZN2CK19get_random_raw_dataIfEEPT_RKNS_5ShapeE+0x76>
  40735a:	48 8b 45 e8          	mov    -0x18(%rbp),%rax
  40735e:	48 83 c4 38          	add    $0x38,%rsp
  407362:	5b                   	pop    %rbx
  407363:	5d                   	pop    %rbp
  407364:	c3                   	retq   

0000000000407365 <_ZN2CK20print_input_raw_dataIfEEvPT_RKNS_5ShapeE>:
  407365:	55                   	push   %rbp
  407366:	48 89 e5             	mov    %rsp,%rbp
  407369:	48 83 ec 10          	sub    $0x10,%rsp
  40736d:	48 89 7d f8          	mov    %rdi,-0x8(%rbp)
  407371:	48 89 75 f0          	mov    %rsi,-0x10(%rbp)
  407375:	48 8b 75 f0          	mov    -0x10(%rbp),%rsi
  407379:	48 8b 45 f8          	mov    -0x8(%rbp),%rax
  40737d:	b9 bc d4 40 00       	mov    $0x40d4bc,%ecx
  407382:	ba c2 d4 40 00       	mov    $0x40d4c2,%edx
  407387:	48 89 c7             	mov    %rax,%rdi
  40738a:	e8 31 19 00 00       	callq  408cc0 <_ZN2CK12log_raw_dataIfEEvPT_RKNS_5ShapeEPKcS7_>
  40738f:	90                   	nop
  407390:	c9                   	leaveq 
  407391:	c3                   	retq   

0000000000407392 <_ZN5caffe5LayerIfE7ForwardERKSt6vectorIPNS_4BlobIfEESaIS5_EES9_>:
  407392:	55                   	push   %rbp
  407393:	48 89 e5             	mov    %rsp,%rbp
  407396:	53                   	push   %rbx
  407397:	48 83 ec 68          	sub    $0x68,%rsp
  40739b:	48 89 7d a8          	mov    %rdi,-0x58(%rbp)
  40739f:	48 89 75 a0          	mov    %rsi,-0x60(%rbp)
  4073a3:	48 89 55 98          	mov    %rdx,-0x68(%rbp)
  4073a7:	64 48 8b 04 25 28 00 	mov    %fs:0x28,%rax
  4073ae:	00 00 
  4073b0:	48 89 45 e8          	mov    %rax,-0x18(%rbp)
  4073b4:	31 c0                	xor    %eax,%eax
  4073b6:	66 0f ef c0          	pxor   %xmm0,%xmm0
  4073ba:	f3 0f 11 45 b4       	movss  %xmm0,-0x4c(%rbp)
  4073bf:	48 8b 45 a8          	mov    -0x58(%rbp),%rax
  4073c3:	48 8b 00             	mov    (%rax),%rax
  4073c6:	48 83 c0 18          	add    $0x18,%rax
  4073ca:	48 8b 00             	mov    (%rax),%rax
  4073cd:	48 8b 55 98          	mov    -0x68(%rbp),%rdx
  4073d1:	48 8b 75 a0          	mov    -0x60(%rbp),%rsi
  4073d5:	48 8b 4d a8          	mov    -0x58(%rbp),%rcx
  4073d9:	48 89 cf             	mov    %rcx,%rdi
  4073dc:	ff d0                	callq  *%rax
  4073de:	e8 14 e4 ff ff       	callq  4057f7 <_ZN5caffe5Caffe4modeEv>
  4073e3:	85 c0                	test   %eax,%eax
  4073e5:	74 0e                	je     4073f5 <_ZN5caffe5LayerIfE7ForwardERKSt6vectorIPNS_4BlobIfEESaIS5_EES9_+0x63>
  4073e7:	83 f8 01             	cmp    $0x1,%eax
  4073ea:	0f 84 1a 01 00 00    	je     40750a <_ZN5caffe5LayerIfE7ForwardERKSt6vectorIPNS_4BlobIfEESaIS5_EES9_+0x178>
  4073f0:	e9 36 01 00 00       	jmpq   40752b <_ZN5caffe5LayerIfE7ForwardERKSt6vectorIPNS_4BlobIfEESaIS5_EES9_+0x199>
  4073f5:	48 8b 45 a8          	mov    -0x58(%rbp),%rax
  4073f9:	48 8b 00             	mov    (%rax),%rax
  4073fc:	48 83 c0 78          	add    $0x78,%rax
  407400:	48 8b 00             	mov    (%rax),%rax
  407403:	48 8b 55 98          	mov    -0x68(%rbp),%rdx
  407407:	48 8b 75 a0          	mov    -0x60(%rbp),%rsi
  40740b:	48 8b 4d a8          	mov    -0x58(%rbp),%rcx
  40740f:	48 89 cf             	mov    %rcx,%rdi
  407412:	ff d0                	callq  *%rax
  407414:	c7 45 b8 00 00 00 00 	movl   $0x0,-0x48(%rbp)
  40741b:	8b 45 b8             	mov    -0x48(%rbp),%eax
  40741e:	48 63 d8             	movslq %eax,%rbx
  407421:	48 8b 45 98          	mov    -0x68(%rbp),%rax
  407425:	48 89 c7             	mov    %rax,%rdi
  407428:	e8 0b 19 00 00       	callq  408d38 <_ZNKSt6vectorIPN5caffe4BlobIfEESaIS3_EE4sizeEv>
  40742d:	48 39 c3             	cmp    %rax,%rbx
  407430:	0f 92 c0             	setb   %al
  407433:	84 c0                	test   %al,%al
  407435:	0f 84 2b 01 00 00    	je     407566 <_ZN5caffe5LayerIfE7ForwardERKSt6vectorIPNS_4BlobIfEESaIS5_EES9_+0x1d4>
  40743b:	8b 55 b8             	mov    -0x48(%rbp),%edx
  40743e:	48 8b 45 a8          	mov    -0x58(%rbp),%rax
  407442:	89 d6                	mov    %edx,%esi
  407444:	48 89 c7             	mov    %rax,%rdi
  407447:	e8 12 19 00 00       	callq  408d5e <_ZNK5caffe5LayerIfE4lossEi>
  40744c:	66 0f ef c9          	pxor   %xmm1,%xmm1
  407450:	0f 2e c1             	ucomiss %xmm1,%xmm0
  407453:	0f 9b c0             	setnp  %al
  407456:	ba 00 00 00 00       	mov    $0x0,%edx
  40745b:	66 0f ef c9          	pxor   %xmm1,%xmm1
  40745f:	0f 2e c1             	ucomiss %xmm1,%xmm0
  407462:	0f 45 c2             	cmovne %edx,%eax
  407465:	84 c0                	test   %al,%al
  407467:	0f 85 93 00 00 00    	jne    407500 <_ZN5caffe5LayerIfE7ForwardERKSt6vectorIPNS_4BlobIfEESaIS5_EES9_+0x16e>
  40746d:	8b 45 b8             	mov    -0x48(%rbp),%eax
  407470:	48 63 d0             	movslq %eax,%rdx
  407473:	48 8b 45 98          	mov    -0x68(%rbp),%rax
  407477:	48 89 d6             	mov    %rdx,%rsi
  40747a:	48 89 c7             	mov    %rax,%rdi
  40747d:	e8 32 19 00 00       	callq  408db4 <_ZNKSt6vectorIPN5caffe4BlobIfEESaIS3_EEixEm>
  407482:	48 8b 00             	mov    (%rax),%rax
  407485:	48 89 c7             	mov    %rax,%rdi
  407488:	e8 47 19 00 00       	callq  408dd4 <_ZNK5caffe4BlobIfE5countEv>
  40748d:	89 45 bc             	mov    %eax,-0x44(%rbp)
  407490:	8b 45 b8             	mov    -0x48(%rbp),%eax
  407493:	48 63 d0             	movslq %eax,%rdx
  407496:	48 8b 45 98          	mov    -0x68(%rbp),%rax
  40749a:	48 89 d6             	mov    %rdx,%rsi
  40749d:	48 89 c7             	mov    %rax,%rdi
  4074a0:	e8 0f 19 00 00       	callq  408db4 <_ZNKSt6vectorIPN5caffe4BlobIfEESaIS3_EEixEm>
  4074a5:	48 8b 00             	mov    (%rax),%rax
  4074a8:	48 89 c7             	mov    %rax,%rdi
  4074ab:	e8 e0 da ff ff       	callq  404f90 <_ZNK5caffe4BlobIfE8cpu_dataEv@plt>
  4074b0:	48 89 45 c0          	mov    %rax,-0x40(%rbp)
  4074b4:	8b 45 b8             	mov    -0x48(%rbp),%eax
  4074b7:	48 63 d0             	movslq %eax,%rdx
  4074ba:	48 8b 45 98          	mov    -0x68(%rbp),%rax
  4074be:	48 89 d6             	mov    %rdx,%rsi
  4074c1:	48 89 c7             	mov    %rax,%rdi
  4074c4:	e8 eb 18 00 00       	callq  408db4 <_ZNKSt6vectorIPN5caffe4BlobIfEESaIS3_EEixEm>
  4074c9:	48 8b 00             	mov    (%rax),%rax
  4074cc:	48 89 c7             	mov    %rax,%rdi
  4074cf:	e8 0c db ff ff       	callq  404fe0 <_ZNK5caffe4BlobIfE8cpu_diffEv@plt>
  4074d4:	48 89 45 c8          	mov    %rax,-0x38(%rbp)
  4074d8:	48 8b 55 c8          	mov    -0x38(%rbp),%rdx
  4074dc:	48 8b 4d c0          	mov    -0x40(%rbp),%rcx
  4074e0:	8b 45 bc             	mov    -0x44(%rbp),%eax
  4074e3:	48 89 ce             	mov    %rcx,%rsi
  4074e6:	89 c7                	mov    %eax,%edi
  4074e8:	e8 33 dd ff ff       	callq  405220 <_ZN5caffe13caffe_cpu_dotIfEET_iPKS1_S3_@plt>
  4074ed:	0f 28 c8             	movaps %xmm0,%xmm1
  4074f0:	f3 0f 10 45 b4       	movss  -0x4c(%rbp),%xmm0
  4074f5:	f3 0f 58 c1          	addss  %xmm1,%xmm0
  4074f9:	f3 0f 11 45 b4       	movss  %xmm0,-0x4c(%rbp)
  4074fe:	eb 01                	jmp    407501 <_ZN5caffe5LayerIfE7ForwardERKSt6vectorIPNS_4BlobIfEESaIS5_EES9_+0x16f>
  407500:	90                   	nop
  407501:	83 45 b8 01          	addl   $0x1,-0x48(%rbp)
  407505:	e9 11 ff ff ff       	jmpq   40741b <_ZN5caffe5LayerIfE7ForwardERKSt6vectorIPNS_4BlobIfEESaIS5_EES9_+0x89>
  40750a:	48 8b 45 a8          	mov    -0x58(%rbp),%rax
  40750e:	48 8b 00             	mov    (%rax),%rax
  407511:	48 83 e8 80          	sub    $0xffffffffffffff80,%rax
  407515:	48 8b 00             	mov    (%rax),%rax
  407518:	48 8b 55 98          	mov    -0x68(%rbp),%rdx
  40751c:	48 8b 75 a0          	mov    -0x60(%rbp),%rsi
  407520:	48 8b 4d a8          	mov    -0x58(%rbp),%rcx
  407524:	48 89 cf             	mov    %rcx,%rdi
  407527:	ff d0                	callq  *%rax
  407529:	eb 3c                	jmp    407567 <_ZN5caffe5LayerIfE7ForwardERKSt6vectorIPNS_4BlobIfEESaIS5_EES9_+0x1d5>
  40752b:	48 8d 45 d0          	lea    -0x30(%rbp),%rax
  40752f:	ba bb 01 00 00       	mov    $0x1bb,%edx
  407534:	be d8 d4 40 00       	mov    $0x40d4d8,%esi
  407539:	48 89 c7             	mov    %rax,%rdi
  40753c:	e8 5f dd ff ff       	callq  4052a0 <_ZN6google15LogMessageFatalC1EPKci@plt>
  407541:	48 8d 45 d0          	lea    -0x30(%rbp),%rax
  407545:	48 89 c7             	mov    %rax,%rdi
  407548:	e8 33 dc ff ff       	callq  405180 <_ZN6google10LogMessage6streamEv@plt>
  40754d:	be 45 d5 40 00       	mov    $0x40d545,%esi
  407552:	48 89 c7             	mov    %rax,%rdi
  407555:	e8 e6 d9 ff ff       	callq  404f40 <_ZStlsISt11char_traitsIcEERSt13basic_ostreamIcT_ES5_PKc@plt>
  40755a:	48 8d 45 d0          	lea    -0x30(%rbp),%rax
  40755e:	48 89 c7             	mov    %rax,%rdi
  407561:	e8 7a db ff ff       	callq  4050e0 <_ZN6google15LogMessageFatalD1Ev@plt>
  407566:	90                   	nop
  407567:	f3 0f 10 45 b4       	movss  -0x4c(%rbp),%xmm0
  40756c:	48 8b 45 e8          	mov    -0x18(%rbp),%rax
  407570:	64 48 33 04 25 28 00 	xor    %fs:0x28,%rax
  407577:	00 00 
  407579:	74 13                	je     40758e <_ZN5caffe5LayerIfE7ForwardERKSt6vectorIPNS_4BlobIfEESaIS5_EES9_+0x1fc>
  40757b:	eb 0c                	jmp    407589 <_ZN5caffe5LayerIfE7ForwardERKSt6vectorIPNS_4BlobIfEESaIS5_EES9_+0x1f7>
  40757d:	48 8d 45 d0          	lea    -0x30(%rbp),%rax
  407581:	48 89 c7             	mov    %rax,%rdi
  407584:	e8 57 db ff ff       	callq  4050e0 <_ZN6google15LogMessageFatalD1Ev@plt>
  407589:	e8 92 d8 ff ff       	callq  404e20 <__stack_chk_fail@plt>
  40758e:	48 83 c4 68          	add    $0x68,%rsp
  407592:	5b                   	pop    %rbx
  407593:	5d                   	pop    %rbp
  407594:	c3                   	retq   

0000000000407595 <_ZN2CK12measure_testIZNS_5Caffe16test_convolutionEbEUlvE0_EEvOT_>:
  407595:	55                   	push   %rbp
  407596:	48 89 e5             	mov    %rsp,%rbp
  407599:	48 83 ec 10          	sub    $0x10,%rsp
  40759d:	48 89 7d f8          	mov    %rdi,-0x8(%rbp)
  4075a1:	48 8b 45 f8          	mov    -0x8(%rbp),%rax
  4075a5:	be 01 00 00 00       	mov    $0x1,%esi
  4075aa:	48 89 c7             	mov    %rax,%rdi
  4075ad:	e8 69 18 00 00       	callq  408e1b <_ZN2CK11do_measuredIRZNS_5Caffe16test_convolutionEbEUlvE0_EEvOT_i>
  4075b2:	bf 01 00 00 00       	mov    $0x1,%edi
  4075b7:	e8 44 d9 ff ff       	callq  404f00 <xopenme_get_timer@plt>
  4075bc:	f2 0f 5a c0          	cvtsd2ss %xmm0,%xmm0
  4075c0:	e8 5b de ff ff       	callq  405420 <_ZN2CK15store_test_timeEf>
  4075c5:	90                   	nop
  4075c6:	c9                   	leaveq 
  4075c7:	c3                   	retq   

00000000004075c8 <_ZNK5caffe4BlobIfE3numEv>:
  4075c8:	55                   	push   %rbp
  4075c9:	48 89 e5             	mov    %rsp,%rbp
  4075cc:	48 83 ec 10          	sub    $0x10,%rsp
  4075d0:	48 89 7d f8          	mov    %rdi,-0x8(%rbp)
  4075d4:	48 8b 45 f8          	mov    -0x8(%rbp),%rax
  4075d8:	be 00 00 00 00       	mov    $0x0,%esi
  4075dd:	48 89 c7             	mov    %rax,%rdi
  4075e0:	e8 69 18 00 00       	callq  408e4e <_ZNK5caffe4BlobIfE11LegacyShapeEi>
  4075e5:	c9                   	leaveq 
  4075e6:	c3                   	retq   
  4075e7:	90                   	nop

00000000004075e8 <_ZNK5caffe4BlobIfE8channelsEv>:
  4075e8:	55                   	push   %rbp
  4075e9:	48 89 e5             	mov    %rsp,%rbp
  4075ec:	48 83 ec 10          	sub    $0x10,%rsp
  4075f0:	48 89 7d f8          	mov    %rdi,-0x8(%rbp)
  4075f4:	48 8b 45 f8          	mov    -0x8(%rbp),%rax
  4075f8:	be 01 00 00 00       	mov    $0x1,%esi
  4075fd:	48 89 c7             	mov    %rax,%rdi
  407600:	e8 49 18 00 00       	callq  408e4e <_ZNK5caffe4BlobIfE11LegacyShapeEi>
  407605:	c9                   	leaveq 
  407606:	c3                   	retq   
  407607:	90                   	nop

0000000000407608 <_ZNK5caffe4BlobIfE6heightEv>:
  407608:	55                   	push   %rbp
  407609:	48 89 e5             	mov    %rsp,%rbp
  40760c:	48 83 ec 10          	sub    $0x10,%rsp
  407610:	48 89 7d f8          	mov    %rdi,-0x8(%rbp)
  407614:	48 8b 45 f8          	mov    -0x8(%rbp),%rax
  407618:	be 02 00 00 00       	mov    $0x2,%esi
  40761d:	48 89 c7             	mov    %rax,%rdi
  407620:	e8 29 18 00 00       	callq  408e4e <_ZNK5caffe4BlobIfE11LegacyShapeEi>
  407625:	c9                   	leaveq 
  407626:	c3                   	retq   
  407627:	90                   	nop

0000000000407628 <_ZNK5caffe4BlobIfE5widthEv>:
  407628:	55                   	push   %rbp
  407629:	48 89 e5             	mov    %rsp,%rbp
  40762c:	48 83 ec 10          	sub    $0x10,%rsp
  407630:	48 89 7d f8          	mov    %rdi,-0x8(%rbp)
  407634:	48 8b 45 f8          	mov    -0x8(%rbp),%rax
  407638:	be 03 00 00 00       	mov    $0x3,%esi
  40763d:	48 89 c7             	mov    %rax,%rdi
  407640:	e8 09 18 00 00       	callq  408e4e <_ZNK5caffe4BlobIfE11LegacyShapeEi>
  407645:	c9                   	leaveq 
  407646:	c3                   	retq   
  407647:	90                   	nop

0000000000407648 <_ZNK5caffe4BlobIfE4dataEv>:
  407648:	55                   	push   %rbp
  407649:	48 89 e5             	mov    %rsp,%rbp
  40764c:	41 55                	push   %r13
  40764e:	41 54                	push   %r12
  407650:	53                   	push   %rbx
  407651:	48 83 ec 48          	sub    $0x48,%rsp
  407655:	48 89 7d a8          	mov    %rdi,-0x58(%rbp)
  407659:	64 48 8b 04 25 28 00 	mov    %fs:0x28,%rax
  407660:	00 00 
  407662:	48 89 45 d8          	mov    %rax,-0x28(%rbp)
  407666:	31 c0                	xor    %eax,%eax
  407668:	48 8b 45 a8          	mov    -0x58(%rbp),%rax
  40766c:	48 89 c7             	mov    %rax,%rdi
  40766f:	e8 02 1a 00 00       	callq  409076 <_ZNK5boost10shared_ptrIN5caffe12SyncedMemoryEEntEv>
  407674:	0f b6 c0             	movzbl %al,%eax
  407677:	bb 00 00 00 00       	mov    $0x0,%ebx
  40767c:	41 bc 00 00 00 00    	mov    $0x0,%r12d
  407682:	48 85 c0             	test   %rax,%rax
  407685:	74 58                	je     4076df <_ZNK5caffe4BlobIfE4dataEv+0x97>
  407687:	48 8d 45 c0          	lea    -0x40(%rbp),%rax
  40768b:	ba d2 00 00 00       	mov    $0xd2,%edx
  407690:	be 60 d5 40 00       	mov    $0x40d560,%esi
  407695:	48 89 c7             	mov    %rax,%rdi
  407698:	e8 03 dc ff ff       	callq  4052a0 <_ZN6google15LogMessageFatalC1EPKci@plt>
  40769d:	bb 01 00 00 00       	mov    $0x1,%ebx
  4076a2:	48 8d 45 c0          	lea    -0x40(%rbp),%rax
  4076a6:	48 89 c7             	mov    %rax,%rdi
  4076a9:	e8 d2 da ff ff       	callq  405180 <_ZN6google10LogMessage6streamEv@plt>
  4076ae:	be cc d5 40 00       	mov    $0x40d5cc,%esi
  4076b3:	48 89 c7             	mov    %rax,%rdi
  4076b6:	e8 85 d8 ff ff       	callq  404f40 <_ZStlsISt11char_traitsIcEERSt13basic_ostreamIcT_ES5_PKc@plt>
  4076bb:	49 89 c5             	mov    %rax,%r13
  4076be:	48 8d 45 bf          	lea    -0x41(%rbp),%rax
  4076c2:	48 89 c7             	mov    %rax,%rdi
  4076c5:	e8 12 e1 ff ff       	callq  4057dc <_ZN6google17LogMessageVoidifyC1Ev>
  4076ca:	41 bc 01 00 00 00    	mov    $0x1,%r12d
  4076d0:	48 8d 45 bf          	lea    -0x41(%rbp),%rax
  4076d4:	4c 89 ee             	mov    %r13,%rsi
  4076d7:	48 89 c7             	mov    %rax,%rdi
  4076da:	e8 09 e1 ff ff       	callq  4057e8 <_ZN6google17LogMessageVoidifyanERSo>
  4076df:	45 84 e4             	test   %r12b,%r12b
  4076e2:	84 db                	test   %bl,%bl
  4076e4:	74 0d                	je     4076f3 <_ZNK5caffe4BlobIfE4dataEv+0xab>
  4076e6:	90                   	nop
  4076e7:	48 8d 45 c0          	lea    -0x40(%rbp),%rax
  4076eb:	48 89 c7             	mov    %rax,%rdi
  4076ee:	e8 ed d9 ff ff       	callq  4050e0 <_ZN6google15LogMessageFatalD1Ev@plt>
  4076f3:	90                   	nop
  4076f4:	48 8b 45 a8          	mov    -0x58(%rbp),%rax
  4076f8:	48 8b 4d d8          	mov    -0x28(%rbp),%rcx
  4076fc:	64 48 33 0c 25 28 00 	xor    %fs:0x28,%rcx
  407703:	00 00 
  407705:	74 24                	je     40772b <_ZNK5caffe4BlobIfE4dataEv+0xe3>
  407707:	eb 1d                	jmp    407726 <_ZNK5caffe4BlobIfE4dataEv+0xde>
  407709:	45 84 e4             	test   %r12b,%r12b
  40770c:	84 db                	test   %bl,%bl
  40770e:	74 0d                	je     40771d <_ZNK5caffe4BlobIfE4dataEv+0xd5>
  407710:	90                   	nop
  407711:	48 8d 45 c0          	lea    -0x40(%rbp),%rax
  407715:	48 89 c7             	mov    %rax,%rdi
  407718:	e8 c3 d9 ff ff       	callq  4050e0 <_ZN6google15LogMessageFatalD1Ev@plt>
  40771d:	90                   	nop
  40771e:	48 89 c7             	mov    %rax,%rdi
  407721:	e8 8a d8 ff ff       	callq  404fb0 <_Unwind_Resume@plt>
  407726:	e8 f5 d6 ff ff       	callq  404e20 <__stack_chk_fail@plt>
  40772b:	48 83 c4 48          	add    $0x48,%rsp
  40772f:	5b                   	pop    %rbx
  407730:	41 5c                	pop    %r12
  407732:	41 5d                	pop    %r13
  407734:	5d                   	pop    %rbp
  407735:	c3                   	retq   

0000000000407736 <_ZNK5boost10shared_ptrIN5caffe12SyncedMemoryEEptEv>:
  407736:	55                   	push   %rbp
  407737:	48 89 e5             	mov    %rsp,%rbp
  40773a:	48 83 ec 10          	sub    $0x10,%rsp
  40773e:	48 89 7d f8          	mov    %rdi,-0x8(%rbp)
  407742:	48 8b 45 f8          	mov    -0x8(%rbp),%rax
  407746:	48 8b 00             	mov    (%rax),%rax
  407749:	48 85 c0             	test   %rax,%rax
  40774c:	75 19                	jne    407767 <_ZNK5boost10shared_ptrIN5caffe12SyncedMemoryEEptEv+0x31>
  40774e:	b9 c0 db 40 00       	mov    $0x40dbc0,%ecx
  407753:	ba 88 02 00 00       	mov    $0x288,%edx
  407758:	be e8 d5 40 00       	mov    $0x40d5e8,%esi
  40775d:	bf 14 d6 40 00       	mov    $0x40d614,%edi
  407762:	e8 69 d6 ff ff       	callq  404dd0 <__assert_fail@plt>
  407767:	48 8b 45 f8          	mov    -0x8(%rbp),%rax
  40776b:	48 8b 00             	mov    (%rax),%rax
  40776e:	c9                   	leaveq 
  40776f:	c3                   	retq   

0000000000407770 <_ZN2CK21print_output_raw_dataIfEEvPT_RKNS_5ShapeE>:
  407770:	55                   	push   %rbp
  407771:	48 89 e5             	mov    %rsp,%rbp
  407774:	48 83 ec 10          	sub    $0x10,%rsp
  407778:	48 89 7d f8          	mov    %rdi,-0x8(%rbp)
  40777c:	48 89 75 f0          	mov    %rsi,-0x10(%rbp)
  407780:	48 8b 75 f0          	mov    -0x10(%rbp),%rsi
  407784:	48 8b 45 f8          	mov    -0x8(%rbp),%rax
  407788:	b9 1c d6 40 00       	mov    $0x40d61c,%ecx
  40778d:	ba 23 d6 40 00       	mov    $0x40d623,%edx
  407792:	48 89 c7             	mov    %rax,%rdi
  407795:	e8 26 15 00 00       	callq  408cc0 <_ZN2CK12log_raw_dataIfEEvPT_RKNS_5ShapeEPKcS7_>
  40779a:	90                   	nop
  40779b:	c9                   	leaveq 
  40779c:	c3                   	retq   

000000000040779d <_ZN2CK20dump_output_raw_dataIfEEvPT_RKNS_5ShapeE>:
  40779d:	55                   	push   %rbp
  40779e:	48 89 e5             	mov    %rsp,%rbp
  4077a1:	48 83 ec 20          	sub    $0x20,%rsp
  4077a5:	48 89 7d e8          	mov    %rdi,-0x18(%rbp)
  4077a9:	48 89 75 e0          	mov    %rsi,-0x20(%rbp)
  4077ad:	bf 37 d6 40 00       	mov    $0x40d637,%edi
  4077b2:	e8 69 d8 ff ff       	callq  405020 <getenv@plt>
  4077b7:	48 89 45 f8          	mov    %rax,-0x8(%rbp)
  4077bb:	48 83 7d f8 00       	cmpq   $0x0,-0x8(%rbp)
  4077c0:	0f 84 89 00 00 00    	je     40784f <_ZN2CK20dump_output_raw_dataIfEEvPT_RKNS_5ShapeE+0xb2>
  4077c6:	48 8b 45 e0          	mov    -0x20(%rbp),%rax
  4077ca:	48 89 c7             	mov    %rax,%rdi
  4077cd:	e8 9c e8 ff ff       	callq  40606e <_ZNK2CK5Shape10data_countEv>
  4077d2:	48 98                	cltq   
  4077d4:	48 c1 e0 02          	shl    $0x2,%rax
  4077d8:	48 89 c2             	mov    %rax,%rdx
  4077db:	48 8b 4d e8          	mov    -0x18(%rbp),%rcx
  4077df:	48 8b 45 f8          	mov    -0x8(%rbp),%rax
  4077e3:	48 89 ce             	mov    %rcx,%rsi
  4077e6:	48 89 c7             	mov    %rax,%rdi
  4077e9:	e8 a2 da ff ff       	callq  405290 <xopenme_dump_memory@plt>
  4077ee:	48 8b 45 e0          	mov    -0x20(%rbp),%rax
  4077f2:	8b 00                	mov    (%rax),%eax
  4077f4:	89 c2                	mov    %eax,%edx
  4077f6:	be 47 d6 40 00       	mov    $0x40d647,%esi
  4077fb:	bf 00 00 00 00       	mov    $0x0,%edi
  407800:	e8 9b e9 ff ff       	callq  4061a0 <_ZN2CK13store_value_iEiPKci>
  407805:	48 8b 45 e0          	mov    -0x20(%rbp),%rax
  407809:	8b 40 04             	mov    0x4(%rax),%eax
  40780c:	89 c2                	mov    %eax,%edx
  40780e:	be 53 d6 40 00       	mov    $0x40d653,%esi
  407813:	bf 01 00 00 00       	mov    $0x1,%edi
  407818:	e8 83 e9 ff ff       	callq  4061a0 <_ZN2CK13store_value_iEiPKci>
  40781d:	48 8b 45 e0          	mov    -0x20(%rbp),%rax
  407821:	8b 40 08             	mov    0x8(%rax),%eax
  407824:	89 c2                	mov    %eax,%edx
  407826:	be 5f d6 40 00       	mov    $0x40d65f,%esi
  40782b:	bf 02 00 00 00       	mov    $0x2,%edi
  407830:	e8 6b e9 ff ff       	callq  4061a0 <_ZN2CK13store_value_iEiPKci>
  407835:	48 8b 45 e0          	mov    -0x20(%rbp),%rax
  407839:	8b 40 0c             	mov    0xc(%rax),%eax
  40783c:	89 c2                	mov    %eax,%edx
  40783e:	be 6b d6 40 00       	mov    $0x40d66b,%esi
  407843:	bf 03 00 00 00       	mov    $0x3,%edi
  407848:	e8 53 e9 ff ff       	callq  4061a0 <_ZN2CK13store_value_iEiPKci>
  40784d:	eb 01                	jmp    407850 <_ZN2CK20dump_output_raw_dataIfEEvPT_RKNS_5ShapeE+0xb3>
  40784f:	90                   	nop
  407850:	c9                   	leaveq 
  407851:	c3                   	retq   

0000000000407852 <_ZNSt6vectorIiSaIiEED1Ev>:
  407852:	55                   	push   %rbp
  407853:	48 89 e5             	mov    %rsp,%rbp
  407856:	48 83 ec 10          	sub    $0x10,%rsp
  40785a:	48 89 7d f8          	mov    %rdi,-0x8(%rbp)
  40785e:	48 8b 45 f8          	mov    -0x8(%rbp),%rax
  407862:	48 89 c7             	mov    %rax,%rdi
  407865:	e8 90 18 00 00       	callq  4090fa <_ZNSt12_Vector_baseIiSaIiEE19_M_get_Tp_allocatorEv>
  40786a:	48 89 c2             	mov    %rax,%rdx
  40786d:	48 8b 45 f8          	mov    -0x8(%rbp),%rax
  407871:	48 8b 48 08          	mov    0x8(%rax),%rcx
  407875:	48 8b 45 f8          	mov    -0x8(%rbp),%rax
  407879:	48 8b 00             	mov    (%rax),%rax
  40787c:	48 89 ce             	mov    %rcx,%rsi
  40787f:	48 89 c7             	mov    %rax,%rdi
  407882:	e8 81 18 00 00       	callq  409108 <_ZSt8_DestroyIPiiEvT_S1_RSaIT0_E>
  407887:	48 8b 45 f8          	mov    -0x8(%rbp),%rax
  40788b:	48 89 c7             	mov    %rax,%rdi
  40788e:	e8 17 18 00 00       	callq  4090aa <_ZNSt12_Vector_baseIiSaIiEED1Ev>
  407893:	90                   	nop
  407894:	c9                   	leaveq 
  407895:	c3                   	retq   

0000000000407896 <_ZN6google17MakeCheckOpStringIiiEEPNSt7__cxx1112basic_stringIcSt11char_traitsIcESaIcEEERKT_RKT0_PKc>:
  407896:	55                   	push   %rbp
  407897:	48 89 e5             	mov    %rsp,%rbp
  40789a:	53                   	push   %rbx
  40789b:	48 83 ec 38          	sub    $0x38,%rsp
  40789f:	48 89 7d d8          	mov    %rdi,-0x28(%rbp)
  4078a3:	48 89 75 d0          	mov    %rsi,-0x30(%rbp)
  4078a7:	48 89 55 c8          	mov    %rdx,-0x38(%rbp)
  4078ab:	64 48 8b 04 25 28 00 	mov    %fs:0x28,%rax
  4078b2:	00 00 
  4078b4:	48 89 45 e8          	mov    %rax,-0x18(%rbp)
  4078b8:	31 c0                	xor    %eax,%eax
  4078ba:	48 8b 55 c8          	mov    -0x38(%rbp),%rdx
  4078be:	48 8d 45 e0          	lea    -0x20(%rbp),%rax
  4078c2:	48 89 d6             	mov    %rdx,%rsi
  4078c5:	48 89 c7             	mov    %rax,%rdi
  4078c8:	e8 c3 d4 ff ff       	callq  404d90 <_ZN6google4base21CheckOpMessageBuilderC1EPKc@plt>
  4078cd:	48 8d 45 e0          	lea    -0x20(%rbp),%rax
  4078d1:	48 89 c7             	mov    %rax,%rdi
  4078d4:	e8 71 de ff ff       	callq  40574a <_ZN6google4base21CheckOpMessageBuilder7ForVar1Ev>
  4078d9:	48 89 c2             	mov    %rax,%rdx
  4078dc:	48 8b 45 d8          	mov    -0x28(%rbp),%rax
  4078e0:	48 89 c6             	mov    %rax,%rsi
  4078e3:	48 89 d7             	mov    %rdx,%rdi
  4078e6:	e8 47 18 00 00       	callq  409132 <_ZN6google22MakeCheckOpValueStringIiEEvPSoRKT_>
  4078eb:	48 8d 45 e0          	lea    -0x20(%rbp),%rax
  4078ef:	48 89 c7             	mov    %rax,%rdi
  4078f2:	e8 69 d4 ff ff       	callq  404d60 <_ZN6google4base21CheckOpMessageBuilder7ForVar2Ev@plt>
  4078f7:	48 89 c2             	mov    %rax,%rdx
  4078fa:	48 8b 45 d0          	mov    -0x30(%rbp),%rax
  4078fe:	48 89 c6             	mov    %rax,%rsi
  407901:	48 89 d7             	mov    %rdx,%rdi
  407904:	e8 29 18 00 00       	callq  409132 <_ZN6google22MakeCheckOpValueStringIiEEvPSoRKT_>
  407909:	48 8d 45 e0          	lea    -0x20(%rbp),%rax
  40790d:	48 89 c7             	mov    %rax,%rdi
  407910:	e8 0b d8 ff ff       	callq  405120 <_ZN6google4base21CheckOpMessageBuilder9NewStringB5cxx11Ev@plt>
  407915:	48 89 c3             	mov    %rax,%rbx
  407918:	48 8d 45 e0          	lea    -0x20(%rbp),%rax
  40791c:	48 89 c7             	mov    %rax,%rdi
  40791f:	e8 2c d5 ff ff       	callq  404e50 <_ZN6google4base21CheckOpMessageBuilderD1Ev@plt>
  407924:	48 89 d8             	mov    %rbx,%rax
  407927:	48 8b 4d e8          	mov    -0x18(%rbp),%rcx
  40792b:	64 48 33 0c 25 28 00 	xor    %fs:0x28,%rcx
  407932:	00 00 
  407934:	74 21                	je     407957 <_ZN6google17MakeCheckOpStringIiiEEPNSt7__cxx1112basic_stringIcSt11char_traitsIcESaIcEEERKT_RKT0_PKc+0xc1>
  407936:	eb 1a                	jmp    407952 <_ZN6google17MakeCheckOpStringIiiEEPNSt7__cxx1112basic_stringIcSt11char_traitsIcESaIcEEERKT_RKT0_PKc+0xbc>
  407938:	48 89 c3             	mov    %rax,%rbx
  40793b:	48 8d 45 e0          	lea    -0x20(%rbp),%rax
  40793f:	48 89 c7             	mov    %rax,%rdi
  407942:	e8 09 d5 ff ff       	callq  404e50 <_ZN6google4base21CheckOpMessageBuilderD1Ev@plt>
  407947:	48 89 d8             	mov    %rbx,%rax
  40794a:	48 89 c7             	mov    %rax,%rdi
  40794d:	e8 5e d6 ff ff       	callq  404fb0 <_Unwind_Resume@plt>
  407952:	e8 c9 d4 ff ff       	callq  404e20 <__stack_chk_fail@plt>
  407957:	48 83 c4 38          	add    $0x38,%rsp
  40795b:	5b                   	pop    %rbx
  40795c:	5d                   	pop    %rbp
  40795d:	c3                   	retq   

000000000040795e <_ZN6google8protobuf8internal20RepeatedPtrFieldBase5ClearINS0_16RepeatedPtrFieldIN5caffe9BlobProtoEE11TypeHandlerEEEvv>:
  40795e:	55                   	push   %rbp
  40795f:	48 89 e5             	mov    %rsp,%rbp
  407962:	41 54                	push   %r12
  407964:	53                   	push   %rbx
  407965:	48 83 ec 70          	sub    $0x70,%rsp
  407969:	48 89 7d 88          	mov    %rdi,-0x78(%rbp)
  40796d:	64 48 8b 04 25 28 00 	mov    %fs:0x28,%rax
  407974:	00 00 
  407976:	48 89 45 e8          	mov    %rax,-0x18(%rbp)
  40797a:	31 c0                	xor    %eax,%eax
  40797c:	48 8b 45 88          	mov    -0x78(%rbp),%rax
  407980:	8b 40 08             	mov    0x8(%rax),%eax
  407983:	89 45 a4             	mov    %eax,-0x5c(%rbp)
  407986:	bb 00 00 00 00       	mov    $0x0,%ebx
  40798b:	41 bc 00 00 00 00    	mov    $0x0,%r12d
  407991:	83 7d a4 00          	cmpl   $0x0,-0x5c(%rbp)
  407995:	79 49                	jns    4079e0 <_ZN6google8protobuf8internal20RepeatedPtrFieldBase5ClearINS0_16RepeatedPtrFieldIN5caffe9BlobProtoEE11TypeHandlerEEEvv+0x82>
  407997:	48 8d 45 b0          	lea    -0x50(%rbp),%rax
  40799b:	b9 c4 05 00 00       	mov    $0x5c4,%ecx
  4079a0:	ba f8 d3 40 00       	mov    $0x40d3f8,%edx
  4079a5:	be 03 00 00 00       	mov    $0x3,%esi
  4079aa:	48 89 c7             	mov    %rax,%rdi
  4079ad:	e8 ae d5 ff ff       	callq  404f60 <_ZN6google8protobuf8internal10LogMessageC1ENS0_8LogLevelEPKci@plt>
  4079b2:	bb 01 00 00 00       	mov    $0x1,%ebx
  4079b7:	48 8d 45 b0          	lea    -0x50(%rbp),%rax
  4079bb:	be 77 d6 40 00       	mov    $0x40d677,%esi
  4079c0:	48 89 c7             	mov    %rax,%rdi
  4079c3:	e8 f8 d8 ff ff       	callq  4052c0 <_ZN6google8protobuf8internal10LogMessagelsEPKc@plt>
  4079c8:	48 89 c2             	mov    %rax,%rdx
  4079cb:	41 bc 01 00 00 00    	mov    $0x1,%r12d
  4079d1:	48 8d 45 9f          	lea    -0x61(%rbp),%rax
  4079d5:	48 89 d6             	mov    %rdx,%rsi
  4079d8:	48 89 c7             	mov    %rax,%rdi
  4079db:	e8 80 d6 ff ff       	callq  405060 <_ZN6google8protobuf8internal11LogFinisheraSERNS1_10LogMessageE@plt>
  4079e0:	45 84 e4             	test   %r12b,%r12b
  4079e3:	84 db                	test   %bl,%bl
  4079e5:	74 0f                	je     4079f6 <_ZN6google8protobuf8internal20RepeatedPtrFieldBase5ClearINS0_16RepeatedPtrFieldIN5caffe9BlobProtoEE11TypeHandlerEEEvv+0x98>
  4079e7:	90                   	nop
  4079e8:	48 8d 45 b0          	lea    -0x50(%rbp),%rax
  4079ec:	48 89 c7             	mov    %rax,%rdi
  4079ef:	e8 0c d7 ff ff       	callq  405100 <_ZN6google8protobuf8internal10LogMessageD1Ev@plt>
  4079f4:	eb 01                	jmp    4079f7 <_ZN6google8protobuf8internal20RepeatedPtrFieldBase5ClearINS0_16RepeatedPtrFieldIN5caffe9BlobProtoEE11TypeHandlerEEEvv+0x99>
  4079f6:	90                   	nop
  4079f7:	83 7d a4 00          	cmpl   $0x0,-0x5c(%rbp)
  4079fb:	0f 8e 80 00 00 00    	jle    407a81 <_ZN6google8protobuf8internal20RepeatedPtrFieldBase5ClearINS0_16RepeatedPtrFieldIN5caffe9BlobProtoEE11TypeHandlerEEEvv+0x123>
  407a01:	48 8b 45 88          	mov    -0x78(%rbp),%rax
  407a05:	48 8b 40 10          	mov    0x10(%rax),%rax
  407a09:	48 83 c0 08          	add    $0x8,%rax
  407a0d:	48 89 45 a8          	mov    %rax,-0x58(%rbp)
  407a11:	c7 45 a0 00 00 00 00 	movl   $0x0,-0x60(%rbp)
  407a18:	8b 45 a0             	mov    -0x60(%rbp),%eax
  407a1b:	8d 50 01             	lea    0x1(%rax),%edx
  407a1e:	89 55 a0             	mov    %edx,-0x60(%rbp)
  407a21:	48 98                	cltq   
  407a23:	48 8d 14 c5 00 00 00 	lea    0x0(,%rax,8),%rdx
  407a2a:	00 
  407a2b:	48 8b 45 a8          	mov    -0x58(%rbp),%rax
  407a2f:	48 01 d0             	add    %rdx,%rax
  407a32:	48 8b 00             	mov    (%rax),%rax
  407a35:	48 89 c7             	mov    %rax,%rdi
  407a38:	e8 42 17 00 00       	callq  40917f <_ZN6google8protobuf8internal20RepeatedPtrFieldBase4castINS0_16RepeatedPtrFieldIN5caffe9BlobProtoEE11TypeHandlerEEEPNT_4TypeEPv>
  407a3d:	48 89 c7             	mov    %rax,%rdi
  407a40:	e8 14 17 00 00       	callq  409159 <_ZN6google8protobuf8internal18GenericTypeHandlerIN5caffe9BlobProtoEE5ClearEPS4_>
  407a45:	8b 45 a0             	mov    -0x60(%rbp),%eax
  407a48:	3b 45 a4             	cmp    -0x5c(%rbp),%eax
  407a4b:	7d 02                	jge    407a4f <_ZN6google8protobuf8internal20RepeatedPtrFieldBase5ClearINS0_16RepeatedPtrFieldIN5caffe9BlobProtoEE11TypeHandlerEEEvv+0xf1>
  407a4d:	eb c9                	jmp    407a18 <_ZN6google8protobuf8internal20RepeatedPtrFieldBase5ClearINS0_16RepeatedPtrFieldIN5caffe9BlobProtoEE11TypeHandlerEEEvv+0xba>
  407a4f:	48 8b 45 88          	mov    -0x78(%rbp),%rax
  407a53:	c7 40 08 00 00 00 00 	movl   $0x0,0x8(%rax)
  407a5a:	eb 25                	jmp    407a81 <_ZN6google8protobuf8internal20RepeatedPtrFieldBase5ClearINS0_16RepeatedPtrFieldIN5caffe9BlobProtoEE11TypeHandlerEEEvv+0x123>
  407a5c:	45 84 e4             	test   %r12b,%r12b
  407a5f:	49 89 c4             	mov    %rax,%r12
  407a62:	84 db                	test   %bl,%bl
  407a64:	74 0f                	je     407a75 <_ZN6google8protobuf8internal20RepeatedPtrFieldBase5ClearINS0_16RepeatedPtrFieldIN5caffe9BlobProtoEE11TypeHandlerEEEvv+0x117>
  407a66:	90                   	nop
  407a67:	48 8d 45 b0          	lea    -0x50(%rbp),%rax
  407a6b:	48 89 c7             	mov    %rax,%rdi
  407a6e:	e8 8d d6 ff ff       	callq  405100 <_ZN6google8protobuf8internal10LogMessageD1Ev@plt>
  407a73:	eb 01                	jmp    407a76 <_ZN6google8protobuf8internal20RepeatedPtrFieldBase5ClearINS0_16RepeatedPtrFieldIN5caffe9BlobProtoEE11TypeHandlerEEEvv+0x118>
  407a75:	90                   	nop
  407a76:	4c 89 e0             	mov    %r12,%rax
  407a79:	48 89 c7             	mov    %rax,%rdi
  407a7c:	e8 2f d5 ff ff       	callq  404fb0 <_Unwind_Resume@plt>
  407a81:	90                   	nop
  407a82:	48 8b 45 e8          	mov    -0x18(%rbp),%rax
  407a86:	64 48 33 04 25 28 00 	xor    %fs:0x28,%rax
  407a8d:	00 00 
  407a8f:	74 05                	je     407a96 <_ZN6google8protobuf8internal20RepeatedPtrFieldBase5ClearINS0_16RepeatedPtrFieldIN5caffe9BlobProtoEE11TypeHandlerEEEvv+0x138>
  407a91:	e8 8a d3 ff ff       	callq  404e20 <__stack_chk_fail@plt>
  407a96:	48 83 c4 70          	add    $0x70,%rsp
  407a9a:	5b                   	pop    %rbx
  407a9b:	41 5c                	pop    %r12
  407a9d:	5d                   	pop    %rbp
  407a9e:	c3                   	retq   
  407a9f:	90                   	nop

0000000000407aa0 <_ZNK6google8protobuf8internal20RepeatedPtrFieldBase3GetINS0_16RepeatedPtrFieldIN5caffe9BlobProtoEE11TypeHandlerEEERKNT_4TypeEi>:
  407aa0:	55                   	push   %rbp
  407aa1:	48 89 e5             	mov    %rsp,%rbp
  407aa4:	41 54                	push   %r12
  407aa6:	53                   	push   %rbx
  407aa7:	48 81 ec a0 00 00 00 	sub    $0xa0,%rsp
  407aae:	48 89 bd 58 ff ff ff 	mov    %rdi,-0xa8(%rbp)
  407ab5:	89 b5 54 ff ff ff    	mov    %esi,-0xac(%rbp)
  407abb:	64 48 8b 04 25 28 00 	mov    %fs:0x28,%rax
  407ac2:	00 00 
  407ac4:	48 89 45 e8          	mov    %rax,-0x18(%rbp)
  407ac8:	31 c0                	xor    %eax,%eax
  407aca:	bb 00 00 00 00       	mov    $0x0,%ebx
  407acf:	41 bc 00 00 00 00    	mov    $0x0,%r12d
  407ad5:	83 bd 54 ff ff ff 00 	cmpl   $0x0,-0xac(%rbp)
  407adc:	79 52                	jns    407b30 <_ZNK6google8protobuf8internal20RepeatedPtrFieldBase3GetINS0_16RepeatedPtrFieldIN5caffe9BlobProtoEE11TypeHandlerEEERKNT_4TypeEi+0x90>
  407ade:	48 8d 85 70 ff ff ff 	lea    -0x90(%rbp),%rax
  407ae5:	b9 96 05 00 00       	mov    $0x596,%ecx
  407aea:	ba f8 d3 40 00       	mov    $0x40d3f8,%edx
  407aef:	be 03 00 00 00       	mov    $0x3,%esi
  407af4:	48 89 c7             	mov    %rax,%rdi
  407af7:	e8 64 d4 ff ff       	callq  404f60 <_ZN6google8protobuf8internal10LogMessageC1ENS0_8LogLevelEPKci@plt>
  407afc:	bb 01 00 00 00       	mov    $0x1,%ebx
  407b01:	48 8d 85 70 ff ff ff 	lea    -0x90(%rbp),%rax
  407b08:	be 68 d4 40 00       	mov    $0x40d468,%esi
  407b0d:	48 89 c7             	mov    %rax,%rdi
  407b10:	e8 ab d7 ff ff       	callq  4052c0 <_ZN6google8protobuf8internal10LogMessagelsEPKc@plt>
  407b15:	48 89 c2             	mov    %rax,%rdx
  407b18:	41 bc 01 00 00 00    	mov    $0x1,%r12d
  407b1e:	48 8d 85 6e ff ff ff 	lea    -0x92(%rbp),%rax
  407b25:	48 89 d6             	mov    %rdx,%rsi
  407b28:	48 89 c7             	mov    %rax,%rdi
  407b2b:	e8 30 d5 ff ff       	callq  405060 <_ZN6google8protobuf8internal11LogFinisheraSERNS1_10LogMessageE@plt>
  407b30:	45 84 e4             	test   %r12b,%r12b
  407b33:	84 db                	test   %bl,%bl
  407b35:	74 12                	je     407b49 <_ZNK6google8protobuf8internal20RepeatedPtrFieldBase3GetINS0_16RepeatedPtrFieldIN5caffe9BlobProtoEE11TypeHandlerEEERKNT_4TypeEi+0xa9>
  407b37:	90                   	nop
  407b38:	48 8d 85 70 ff ff ff 	lea    -0x90(%rbp),%rax
  407b3f:	48 89 c7             	mov    %rax,%rdi
  407b42:	e8 b9 d5 ff ff       	callq  405100 <_ZN6google8protobuf8internal10LogMessageD1Ev@plt>
  407b47:	eb 01                	jmp    407b4a <_ZNK6google8protobuf8internal20RepeatedPtrFieldBase3GetINS0_16RepeatedPtrFieldIN5caffe9BlobProtoEE11TypeHandlerEEERKNT_4TypeEi+0xaa>
  407b49:	90                   	nop
  407b4a:	48 8b 85 58 ff ff ff 	mov    -0xa8(%rbp),%rax
  407b51:	8b 40 08             	mov    0x8(%rax),%eax
  407b54:	bb 00 00 00 00       	mov    $0x0,%ebx
  407b59:	41 bc 00 00 00 00    	mov    $0x0,%r12d
  407b5f:	3b 85 54 ff ff ff    	cmp    -0xac(%rbp),%eax
  407b65:	7f 4c                	jg     407bb3 <_ZNK6google8protobuf8internal20RepeatedPtrFieldBase3GetINS0_16RepeatedPtrFieldIN5caffe9BlobProtoEE11TypeHandlerEEERKNT_4TypeEi+0x113>
  407b67:	48 8d 45 b0          	lea    -0x50(%rbp),%rax
  407b6b:	b9 97 05 00 00       	mov    $0x597,%ecx
  407b70:	ba f8 d3 40 00       	mov    $0x40d3f8,%edx
  407b75:	be 03 00 00 00       	mov    $0x3,%esi
  407b7a:	48 89 c7             	mov    %rax,%rdi
  407b7d:	e8 de d3 ff ff       	callq  404f60 <_ZN6google8protobuf8internal10LogMessageC1ENS0_8LogLevelEPKci@plt>
  407b82:	bb 01 00 00 00       	mov    $0x1,%ebx
  407b87:	48 8d 45 b0          	lea    -0x50(%rbp),%rax
  407b8b:	be 88 d4 40 00       	mov    $0x40d488,%esi
  407b90:	48 89 c7             	mov    %rax,%rdi
  407b93:	e8 28 d7 ff ff       	callq  4052c0 <_ZN6google8protobuf8internal10LogMessagelsEPKc@plt>
  407b98:	48 89 c2             	mov    %rax,%rdx
  407b9b:	41 bc 01 00 00 00    	mov    $0x1,%r12d
  407ba1:	48 8d 85 6f ff ff ff 	lea    -0x91(%rbp),%rax
  407ba8:	48 89 d6             	mov    %rdx,%rsi
  407bab:	48 89 c7             	mov    %rax,%rdi
  407bae:	e8 ad d4 ff ff       	callq  405060 <_ZN6google8protobuf8internal11LogFinisheraSERNS1_10LogMessageE@plt>
  407bb3:	45 84 e4             	test   %r12b,%r12b
  407bb6:	84 db                	test   %bl,%bl
  407bb8:	74 0f                	je     407bc9 <_ZNK6google8protobuf8internal20RepeatedPtrFieldBase3GetINS0_16RepeatedPtrFieldIN5caffe9BlobProtoEE11TypeHandlerEEERKNT_4TypeEi+0x129>
  407bba:	90                   	nop
  407bbb:	48 8d 45 b0          	lea    -0x50(%rbp),%rax
  407bbf:	48 89 c7             	mov    %rax,%rdi
  407bc2:	e8 39 d5 ff ff       	callq  405100 <_ZN6google8protobuf8internal10LogMessageD1Ev@plt>
  407bc7:	eb 01                	jmp    407bca <_ZNK6google8protobuf8internal20RepeatedPtrFieldBase3GetINS0_16RepeatedPtrFieldIN5caffe9BlobProtoEE11TypeHandlerEEERKNT_4TypeEi+0x12a>
  407bc9:	90                   	nop
  407bca:	48 8b 85 58 ff ff ff 	mov    -0xa8(%rbp),%rax
  407bd1:	48 8b 40 10          	mov    0x10(%rax),%rax
  407bd5:	8b 95 54 ff ff ff    	mov    -0xac(%rbp),%edx
  407bdb:	48 63 d2             	movslq %edx,%rdx
  407bde:	48 8b 44 d0 08       	mov    0x8(%rax,%rdx,8),%rax
  407be3:	48 89 c7             	mov    %rax,%rdi
  407be6:	e8 94 15 00 00       	callq  40917f <_ZN6google8protobuf8internal20RepeatedPtrFieldBase4castINS0_16RepeatedPtrFieldIN5caffe9BlobProtoEE11TypeHandlerEEEPNT_4TypeEPv>
  407beb:	48 8b 4d e8          	mov    -0x18(%rbp),%rcx
  407bef:	64 48 33 0c 25 28 00 	xor    %fs:0x28,%rcx
  407bf6:	00 00 
  407bf8:	74 54                	je     407c4e <_ZNK6google8protobuf8internal20RepeatedPtrFieldBase3GetINS0_16RepeatedPtrFieldIN5caffe9BlobProtoEE11TypeHandlerEEERKNT_4TypeEi+0x1ae>
  407bfa:	eb 4d                	jmp    407c49 <_ZNK6google8protobuf8internal20RepeatedPtrFieldBase3GetINS0_16RepeatedPtrFieldIN5caffe9BlobProtoEE11TypeHandlerEEERKNT_4TypeEi+0x1a9>
  407bfc:	45 84 e4             	test   %r12b,%r12b
  407bff:	49 89 c4             	mov    %rax,%r12
  407c02:	84 db                	test   %bl,%bl
  407c04:	74 12                	je     407c18 <_ZNK6google8protobuf8internal20RepeatedPtrFieldBase3GetINS0_16RepeatedPtrFieldIN5caffe9BlobProtoEE11TypeHandlerEEERKNT_4TypeEi+0x178>
  407c06:	90                   	nop
  407c07:	48 8d 85 70 ff ff ff 	lea    -0x90(%rbp),%rax
  407c0e:	48 89 c7             	mov    %rax,%rdi
  407c11:	e8 ea d4 ff ff       	callq  405100 <_ZN6google8protobuf8internal10LogMessageD1Ev@plt>
  407c16:	eb 01                	jmp    407c19 <_ZNK6google8protobuf8internal20RepeatedPtrFieldBase3GetINS0_16RepeatedPtrFieldIN5caffe9BlobProtoEE11TypeHandlerEEERKNT_4TypeEi+0x179>
  407c18:	90                   	nop
  407c19:	4c 89 e0             	mov    %r12,%rax
  407c1c:	48 89 c7             	mov    %rax,%rdi
  407c1f:	e8 8c d3 ff ff       	callq  404fb0 <_Unwind_Resume@plt>
  407c24:	45 84 e4             	test   %r12b,%r12b
  407c27:	49 89 c4             	mov    %rax,%r12
  407c2a:	84 db                	test   %bl,%bl
  407c2c:	74 0f                	je     407c3d <_ZNK6google8protobuf8internal20RepeatedPtrFieldBase3GetINS0_16RepeatedPtrFieldIN5caffe9BlobProtoEE11TypeHandlerEEERKNT_4TypeEi+0x19d>
  407c2e:	90                   	nop
  407c2f:	48 8d 45 b0          	lea    -0x50(%rbp),%rax
  407c33:	48 89 c7             	mov    %rax,%rdi
  407c36:	e8 c5 d4 ff ff       	callq  405100 <_ZN6google8protobuf8internal10LogMessageD1Ev@plt>
  407c3b:	eb 01                	jmp    407c3e <_ZNK6google8protobuf8internal20RepeatedPtrFieldBase3GetINS0_16RepeatedPtrFieldIN5caffe9BlobProtoEE11TypeHandlerEEERKNT_4TypeEi+0x19e>
  407c3d:	90                   	nop
  407c3e:	4c 89 e0             	mov    %r12,%rax
  407c41:	48 89 c7             	mov    %rax,%rdi
  407c44:	e8 67 d3 ff ff       	callq  404fb0 <_Unwind_Resume@plt>
  407c49:	e8 d2 d1 ff ff       	callq  404e20 <__stack_chk_fail@plt>
  407c4e:	48 81 c4 a0 00 00 00 	add    $0xa0,%rsp
  407c55:	5b                   	pop    %rbx
  407c56:	41 5c                	pop    %r12
  407c58:	5d                   	pop    %rbp
  407c59:	c3                   	retq   

0000000000407c5a <_ZN6google8protobuf8internal20RepeatedPtrFieldBase3AddINS0_16RepeatedPtrFieldIN5caffe9BlobProtoEE11TypeHandlerEEEPNT_4TypeESB_>:
  407c5a:	55                   	push   %rbp
  407c5b:	48 89 e5             	mov    %rsp,%rbp
  407c5e:	48 83 ec 20          	sub    $0x20,%rsp
  407c62:	48 89 7d e8          	mov    %rdi,-0x18(%rbp)
  407c66:	48 89 75 e0          	mov    %rsi,-0x20(%rbp)
  407c6a:	48 8b 45 e8          	mov    -0x18(%rbp),%rax
  407c6e:	48 8b 40 10          	mov    0x10(%rax),%rax
  407c72:	48 85 c0             	test   %rax,%rax
  407c75:	74 42                	je     407cb9 <_ZN6google8protobuf8internal20RepeatedPtrFieldBase3AddINS0_16RepeatedPtrFieldIN5caffe9BlobProtoEE11TypeHandlerEEEPNT_4TypeESB_+0x5f>
  407c77:	48 8b 45 e8          	mov    -0x18(%rbp),%rax
  407c7b:	8b 50 08             	mov    0x8(%rax),%edx
  407c7e:	48 8b 45 e8          	mov    -0x18(%rbp),%rax
  407c82:	48 8b 40 10          	mov    0x10(%rax),%rax
  407c86:	8b 00                	mov    (%rax),%eax
  407c88:	39 c2                	cmp    %eax,%edx
  407c8a:	7d 2d                	jge    407cb9 <_ZN6google8protobuf8internal20RepeatedPtrFieldBase3AddINS0_16RepeatedPtrFieldIN5caffe9BlobProtoEE11TypeHandlerEEEPNT_4TypeESB_+0x5f>
  407c8c:	48 8b 45 e8          	mov    -0x18(%rbp),%rax
  407c90:	48 8b 50 10          	mov    0x10(%rax),%rdx
  407c94:	48 8b 45 e8          	mov    -0x18(%rbp),%rax
  407c98:	8b 40 08             	mov    0x8(%rax),%eax
  407c9b:	8d 70 01             	lea    0x1(%rax),%esi
  407c9e:	48 8b 4d e8          	mov    -0x18(%rbp),%rcx
  407ca2:	89 71 08             	mov    %esi,0x8(%rcx)
  407ca5:	48 98                	cltq   
  407ca7:	48 8b 44 c2 08       	mov    0x8(%rdx,%rax,8),%rax
  407cac:	48 89 c7             	mov    %rax,%rdi
  407caf:	e8 cb 14 00 00       	callq  40917f <_ZN6google8protobuf8internal20RepeatedPtrFieldBase4castINS0_16RepeatedPtrFieldIN5caffe9BlobProtoEE11TypeHandlerEEEPNT_4TypeEPv>
  407cb4:	e9 8b 00 00 00       	jmpq   407d44 <_ZN6google8protobuf8internal20RepeatedPtrFieldBase3AddINS0_16RepeatedPtrFieldIN5caffe9BlobProtoEE11TypeHandlerEEEPNT_4TypeESB_+0xea>
  407cb9:	48 8b 45 e8          	mov    -0x18(%rbp),%rax
  407cbd:	48 8b 40 10          	mov    0x10(%rax),%rax
  407cc1:	48 85 c0             	test   %rax,%rax
  407cc4:	74 15                	je     407cdb <_ZN6google8protobuf8internal20RepeatedPtrFieldBase3AddINS0_16RepeatedPtrFieldIN5caffe9BlobProtoEE11TypeHandlerEEEPNT_4TypeESB_+0x81>
  407cc6:	48 8b 45 e8          	mov    -0x18(%rbp),%rax
  407cca:	48 8b 40 10          	mov    0x10(%rax),%rax
  407cce:	8b 10                	mov    (%rax),%edx
  407cd0:	48 8b 45 e8          	mov    -0x18(%rbp),%rax
  407cd4:	8b 40 0c             	mov    0xc(%rax),%eax
  407cd7:	39 c2                	cmp    %eax,%edx
  407cd9:	75 18                	jne    407cf3 <_ZN6google8protobuf8internal20RepeatedPtrFieldBase3AddINS0_16RepeatedPtrFieldIN5caffe9BlobProtoEE11TypeHandlerEEEPNT_4TypeESB_+0x99>
  407cdb:	48 8b 45 e8          	mov    -0x18(%rbp),%rax
  407cdf:	8b 40 0c             	mov    0xc(%rax),%eax
  407ce2:	8d 50 01             	lea    0x1(%rax),%edx
  407ce5:	48 8b 45 e8          	mov    -0x18(%rbp),%rax
  407ce9:	89 d6                	mov    %edx,%esi
  407ceb:	48 89 c7             	mov    %rax,%rdi
  407cee:	e8 7d d5 ff ff       	callq  405270 <_ZN6google8protobuf8internal20RepeatedPtrFieldBase7ReserveEi@plt>
  407cf3:	48 8b 45 e8          	mov    -0x18(%rbp),%rax
  407cf7:	48 8b 40 10          	mov    0x10(%rax),%rax
  407cfb:	8b 10                	mov    (%rax),%edx
  407cfd:	83 c2 01             	add    $0x1,%edx
  407d00:	89 10                	mov    %edx,(%rax)
  407d02:	48 8b 45 e8          	mov    -0x18(%rbp),%rax
  407d06:	48 8b 10             	mov    (%rax),%rdx
  407d09:	48 8b 45 e0          	mov    -0x20(%rbp),%rax
  407d0d:	48 89 d6             	mov    %rdx,%rsi
  407d10:	48 89 c7             	mov    %rax,%rdi
  407d13:	e8 76 14 00 00       	callq  40918e <_ZN6google8protobuf8internal18GenericTypeHandlerIN5caffe9BlobProtoEE16NewFromPrototypeEPKS4_PNS0_5ArenaE>
  407d18:	48 89 45 f8          	mov    %rax,-0x8(%rbp)
  407d1c:	48 8b 45 e8          	mov    -0x18(%rbp),%rax
  407d20:	48 8b 50 10          	mov    0x10(%rax),%rdx
  407d24:	48 8b 45 e8          	mov    -0x18(%rbp),%rax
  407d28:	8b 40 08             	mov    0x8(%rax),%eax
  407d2b:	8d 70 01             	lea    0x1(%rax),%esi
  407d2e:	48 8b 4d e8          	mov    -0x18(%rbp),%rcx
  407d32:	89 71 08             	mov    %esi,0x8(%rcx)
  407d35:	48 98                	cltq   
  407d37:	48 8b 4d f8          	mov    -0x8(%rbp),%rcx
  407d3b:	48 89 4c c2 08       	mov    %rcx,0x8(%rdx,%rax,8)
  407d40:	48 8b 45 f8          	mov    -0x8(%rbp),%rax
  407d44:	c9                   	leaveq 
  407d45:	c3                   	retq   

0000000000407d46 <_ZNSt12_Vector_baseIPN5caffe4BlobIfEESaIS3_EE12_Vector_implD1Ev>:
  407d46:	55                   	push   %rbp
  407d47:	48 89 e5             	mov    %rsp,%rbp
  407d4a:	48 83 ec 10          	sub    $0x10,%rsp
  407d4e:	48 89 7d f8          	mov    %rdi,-0x8(%rbp)
  407d52:	48 8b 45 f8          	mov    -0x8(%rbp),%rax
  407d56:	48 89 c7             	mov    %rax,%rdi
  407d59:	e8 8c 14 00 00       	callq  4091ea <_ZNSaIPN5caffe4BlobIfEEED1Ev>
  407d5e:	90                   	nop
  407d5f:	c9                   	leaveq 
  407d60:	c3                   	retq   
  407d61:	90                   	nop

0000000000407d62 <_ZNSt12_Vector_baseIPN5caffe4BlobIfEESaIS3_EEC1Ev>:
  407d62:	55                   	push   %rbp
  407d63:	48 89 e5             	mov    %rsp,%rbp
  407d66:	48 83 ec 10          	sub    $0x10,%rsp
  407d6a:	48 89 7d f8          	mov    %rdi,-0x8(%rbp)
  407d6e:	48 8b 45 f8          	mov    -0x8(%rbp),%rax
  407d72:	48 89 c7             	mov    %rax,%rdi
  407d75:	e8 32 14 00 00       	callq  4091ac <_ZNSt12_Vector_baseIPN5caffe4BlobIfEESaIS3_EE12_Vector_implC1Ev>
  407d7a:	90                   	nop
  407d7b:	c9                   	leaveq 
  407d7c:	c3                   	retq   
  407d7d:	90                   	nop

0000000000407d7e <_ZNSt12_Vector_baseIPN5caffe4BlobIfEESaIS3_EED1Ev>:
  407d7e:	55                   	push   %rbp
  407d7f:	48 89 e5             	mov    %rsp,%rbp
  407d82:	48 83 ec 10          	sub    $0x10,%rsp
  407d86:	48 89 7d f8          	mov    %rdi,-0x8(%rbp)
  407d8a:	48 8b 45 f8          	mov    -0x8(%rbp),%rax
  407d8e:	48 8b 40 10          	mov    0x10(%rax),%rax
  407d92:	48 89 c2             	mov    %rax,%rdx
  407d95:	48 8b 45 f8          	mov    -0x8(%rbp),%rax
  407d99:	48 8b 00             	mov    (%rax),%rax
  407d9c:	48 29 c2             	sub    %rax,%rdx
  407d9f:	48 89 d0             	mov    %rdx,%rax
  407da2:	48 c1 f8 03          	sar    $0x3,%rax
  407da6:	48 89 c2             	mov    %rax,%rdx
  407da9:	48 8b 45 f8          	mov    -0x8(%rbp),%rax
  407dad:	48 8b 08             	mov    (%rax),%rcx
  407db0:	48 8b 45 f8          	mov    -0x8(%rbp),%rax
  407db4:	48 89 ce             	mov    %rcx,%rsi
  407db7:	48 89 c7             	mov    %rax,%rdi
  407dba:	e8 47 14 00 00       	callq  409206 <_ZNSt12_Vector_baseIPN5caffe4BlobIfEESaIS3_EE13_M_deallocateEPS3_m>
  407dbf:	48 8b 45 f8          	mov    -0x8(%rbp),%rax
  407dc3:	48 89 c7             	mov    %rax,%rdi
  407dc6:	e8 7b ff ff ff       	callq  407d46 <_ZNSt12_Vector_baseIPN5caffe4BlobIfEESaIS3_EE12_Vector_implD1Ev>
  407dcb:	90                   	nop
  407dcc:	c9                   	leaveq 
  407dcd:	c3                   	retq   

0000000000407dce <_ZNSt12_Vector_baseIPN5caffe4BlobIfEESaIS3_EE19_M_get_Tp_allocatorEv>:
  407dce:	55                   	push   %rbp
  407dcf:	48 89 e5             	mov    %rsp,%rbp
  407dd2:	48 89 7d f8          	mov    %rdi,-0x8(%rbp)
  407dd6:	48 8b 45 f8          	mov    -0x8(%rbp),%rax
  407dda:	5d                   	pop    %rbp
  407ddb:	c3                   	retq   

0000000000407ddc <_ZSt8_DestroyIPPN5caffe4BlobIfEES3_EvT_S5_RSaIT0_E>:
  407ddc:	55                   	push   %rbp
  407ddd:	48 89 e5             	mov    %rsp,%rbp
  407de0:	48 83 ec 20          	sub    $0x20,%rsp
  407de4:	48 89 7d f8          	mov    %rdi,-0x8(%rbp)
  407de8:	48 89 75 f0          	mov    %rsi,-0x10(%rbp)
  407dec:	48 89 55 e8          	mov    %rdx,-0x18(%rbp)
  407df0:	48 8b 55 f0          	mov    -0x10(%rbp),%rdx
  407df4:	48 8b 45 f8          	mov    -0x8(%rbp),%rax
  407df8:	48 89 d6             	mov    %rdx,%rsi
  407dfb:	48 89 c7             	mov    %rax,%rdi
  407dfe:	e8 38 14 00 00       	callq  40923b <_ZSt8_DestroyIPPN5caffe4BlobIfEEEvT_S5_>
  407e03:	90                   	nop
  407e04:	c9                   	leaveq 
  407e05:	c3                   	retq   

0000000000407e06 <_ZSt7forwardIRKPN5caffe4BlobIfEEEOT_RNSt16remove_referenceIS6_E4typeE>:
  407e06:	55                   	push   %rbp
  407e07:	48 89 e5             	mov    %rsp,%rbp
  407e0a:	48 89 7d f8          	mov    %rdi,-0x8(%rbp)
  407e0e:	48 8b 45 f8          	mov    -0x8(%rbp),%rax
  407e12:	5d                   	pop    %rbp
  407e13:	c3                   	retq   

0000000000407e14 <_ZNSt16allocator_traitsISaIPN5caffe4BlobIfEEEE9constructIS3_JRKS3_EEEvRS4_PT_DpOT0_>:
  407e14:	55                   	push   %rbp
  407e15:	48 89 e5             	mov    %rsp,%rbp
  407e18:	48 83 ec 20          	sub    $0x20,%rsp
  407e1c:	48 89 7d f8          	mov    %rdi,-0x8(%rbp)
  407e20:	48 89 75 f0          	mov    %rsi,-0x10(%rbp)
  407e24:	48 89 55 e8          	mov    %rdx,-0x18(%rbp)
  407e28:	48 8b 45 e8          	mov    -0x18(%rbp),%rax
  407e2c:	48 89 c7             	mov    %rax,%rdi
  407e2f:	e8 d2 ff ff ff       	callq  407e06 <_ZSt7forwardIRKPN5caffe4BlobIfEEEOT_RNSt16remove_referenceIS6_E4typeE>
  407e34:	48 89 c2             	mov    %rax,%rdx
  407e37:	48 8b 4d f0          	mov    -0x10(%rbp),%rcx
  407e3b:	48 8b 45 f8          	mov    -0x8(%rbp),%rax
  407e3f:	48 89 ce             	mov    %rcx,%rsi
  407e42:	48 89 c7             	mov    %rax,%rdi
  407e45:	e8 18 14 00 00       	callq  409262 <_ZN9__gnu_cxx13new_allocatorIPN5caffe4BlobIfEEE9constructIS4_JRKS4_EEEvPT_DpOT0_>
  407e4a:	90                   	nop
  407e4b:	c9                   	leaveq 
  407e4c:	c3                   	retq   
  407e4d:	90                   	nop

0000000000407e4e <_ZNSt6vectorIPN5caffe4BlobIfEESaIS3_EE19_M_emplace_back_auxIJRKS3_EEEvDpOT_>:
  407e4e:	55                   	push   %rbp
  407e4f:	48 89 e5             	mov    %rsp,%rbp
  407e52:	53                   	push   %rbx
  407e53:	48 83 ec 38          	sub    $0x38,%rsp
  407e57:	48 89 7d c8          	mov    %rdi,-0x38(%rbp)
  407e5b:	48 89 75 c0          	mov    %rsi,-0x40(%rbp)
  407e5f:	48 8b 45 c8          	mov    -0x38(%rbp),%rax
  407e63:	ba 92 d6 40 00       	mov    $0x40d692,%edx
  407e68:	be 01 00 00 00       	mov    $0x1,%esi
  407e6d:	48 89 c7             	mov    %rax,%rdi
  407e70:	e8 33 14 00 00       	callq  4092a8 <_ZNKSt6vectorIPN5caffe4BlobIfEESaIS3_EE12_M_check_lenEmPKc>
  407e75:	48 89 45 e0          	mov    %rax,-0x20(%rbp)
  407e79:	48 8b 45 c8          	mov    -0x38(%rbp),%rax
  407e7d:	48 8b 55 e0          	mov    -0x20(%rbp),%rdx
  407e81:	48 89 d6             	mov    %rdx,%rsi
  407e84:	48 89 c7             	mov    %rax,%rdi
  407e87:	e8 08 15 00 00       	callq  409394 <_ZNSt12_Vector_baseIPN5caffe4BlobIfEESaIS3_EE11_M_allocateEm>
  407e8c:	48 89 45 e8          	mov    %rax,-0x18(%rbp)
  407e90:	48 8b 45 e8          	mov    -0x18(%rbp),%rax
  407e94:	48 89 45 d8          	mov    %rax,-0x28(%rbp)
  407e98:	48 8b 45 c0          	mov    -0x40(%rbp),%rax
  407e9c:	48 89 c7             	mov    %rax,%rdi
  407e9f:	e8 62 ff ff ff       	callq  407e06 <_ZSt7forwardIRKPN5caffe4BlobIfEEEOT_RNSt16remove_referenceIS6_E4typeE>
  407ea4:	48 89 c3             	mov    %rax,%rbx
  407ea7:	48 8b 45 c8          	mov    -0x38(%rbp),%rax
  407eab:	48 89 c7             	mov    %rax,%rdi
  407eae:	e8 85 0e 00 00       	callq  408d38 <_ZNKSt6vectorIPN5caffe4BlobIfEESaIS3_EE4sizeEv>
  407eb3:	48 8d 14 c5 00 00 00 	lea    0x0(,%rax,8),%rdx
  407eba:	00 
  407ebb:	48 8b 45 e8          	mov    -0x18(%rbp),%rax
  407ebf:	48 8d 0c 02          	lea    (%rdx,%rax,1),%rcx
  407ec3:	48 8b 45 c8          	mov    -0x38(%rbp),%rax
  407ec7:	48 89 da             	mov    %rbx,%rdx
  407eca:	48 89 ce             	mov    %rcx,%rsi
  407ecd:	48 89 c7             	mov    %rax,%rdi
  407ed0:	e8 3f ff ff ff       	callq  407e14 <_ZNSt16allocator_traitsISaIPN5caffe4BlobIfEEEE9constructIS3_JRKS3_EEEvRS4_PT_DpOT0_>
  407ed5:	48 c7 45 d8 00 00 00 	movq   $0x0,-0x28(%rbp)
  407edc:	00 
  407edd:	48 8b 45 c8          	mov    -0x38(%rbp),%rax
  407ee1:	48 89 c7             	mov    %rax,%rdi
  407ee4:	e8 e5 fe ff ff       	callq  407dce <_ZNSt12_Vector_baseIPN5caffe4BlobIfEESaIS3_EE19_M_get_Tp_allocatorEv>
  407ee9:	48 89 c1             	mov    %rax,%rcx
  407eec:	48 8b 45 c8          	mov    -0x38(%rbp),%rax
  407ef0:	48 8b 70 08          	mov    0x8(%rax),%rsi
  407ef4:	48 8b 45 c8          	mov    -0x38(%rbp),%rax
  407ef8:	48 8b 00             	mov    (%rax),%rax
  407efb:	48 8b 55 e8          	mov    -0x18(%rbp),%rdx
  407eff:	48 89 c7             	mov    %rax,%rdi
  407f02:	e8 c0 14 00 00       	callq  4093c7 <_ZSt34__uninitialized_move_if_noexcept_aIPPN5caffe4BlobIfEES4_SaIS3_EET0_T_S7_S6_RT1_>
  407f07:	48 89 45 d8          	mov    %rax,-0x28(%rbp)
  407f0b:	48 83 45 d8 08       	addq   $0x8,-0x28(%rbp)
  407f10:	48 8b 45 c8          	mov    -0x38(%rbp),%rax
  407f14:	48 89 c7             	mov    %rax,%rdi
  407f17:	e8 b2 fe ff ff       	callq  407dce <_ZNSt12_Vector_baseIPN5caffe4BlobIfEESaIS3_EE19_M_get_Tp_allocatorEv>
  407f1c:	48 89 c2             	mov    %rax,%rdx
  407f1f:	48 8b 45 c8          	mov    -0x38(%rbp),%rax
  407f23:	48 8b 48 08          	mov    0x8(%rax),%rcx
  407f27:	48 8b 45 c8          	mov    -0x38(%rbp),%rax
  407f2b:	48 8b 00             	mov    (%rax),%rax
  407f2e:	48 89 ce             	mov    %rcx,%rsi
  407f31:	48 89 c7             	mov    %rax,%rdi
  407f34:	e8 a3 fe ff ff       	callq  407ddc <_ZSt8_DestroyIPPN5caffe4BlobIfEES3_EvT_S5_RSaIT0_E>
  407f39:	48 8b 45 c8          	mov    -0x38(%rbp),%rax
  407f3d:	48 8b 40 10          	mov    0x10(%rax),%rax
  407f41:	48 89 c2             	mov    %rax,%rdx
  407f44:	48 8b 45 c8          	mov    -0x38(%rbp),%rax
  407f48:	48 8b 00             	mov    (%rax),%rax
  407f4b:	48 29 c2             	sub    %rax,%rdx
  407f4e:	48 89 d0             	mov    %rdx,%rax
  407f51:	48 c1 f8 03          	sar    $0x3,%rax
  407f55:	48 89 c2             	mov    %rax,%rdx
  407f58:	48 8b 45 c8          	mov    -0x38(%rbp),%rax
  407f5c:	48 8b 08             	mov    (%rax),%rcx
  407f5f:	48 8b 45 c8          	mov    -0x38(%rbp),%rax
  407f63:	48 89 ce             	mov    %rcx,%rsi
  407f66:	48 89 c7             	mov    %rax,%rdi
  407f69:	e8 98 12 00 00       	callq  409206 <_ZNSt12_Vector_baseIPN5caffe4BlobIfEESaIS3_EE13_M_deallocateEPS3_m>
  407f6e:	48 8b 45 c8          	mov    -0x38(%rbp),%rax
  407f72:	48 8b 55 e8          	mov    -0x18(%rbp),%rdx
  407f76:	48 89 10             	mov    %rdx,(%rax)
  407f79:	48 8b 45 c8          	mov    -0x38(%rbp),%rax
  407f7d:	48 8b 55 d8          	mov    -0x28(%rbp),%rdx
  407f81:	48 89 50 08          	mov    %rdx,0x8(%rax)
  407f85:	48 8b 45 e0          	mov    -0x20(%rbp),%rax
  407f89:	48 8d 14 c5 00 00 00 	lea    0x0(,%rax,8),%rdx
  407f90:	00 
  407f91:	48 8b 45 e8          	mov    -0x18(%rbp),%rax
  407f95:	48 01 c2             	add    %rax,%rdx
  407f98:	48 8b 45 c8          	mov    -0x38(%rbp),%rax
  407f9c:	48 89 50 10          	mov    %rdx,0x10(%rax)
  407fa0:	e9 8c 00 00 00       	jmpq   408031 <_ZNSt6vectorIPN5caffe4BlobIfEESaIS3_EE19_M_emplace_back_auxIJRKS3_EEEvDpOT_+0x1e3>
  407fa5:	48 89 c7             	mov    %rax,%rdi
  407fa8:	e8 83 cd ff ff       	callq  404d30 <__cxa_begin_catch@plt>
  407fad:	48 83 7d d8 00       	cmpq   $0x0,-0x28(%rbp)
  407fb2:	75 2c                	jne    407fe0 <_ZNSt6vectorIPN5caffe4BlobIfEESaIS3_EE19_M_emplace_back_auxIJRKS3_EEEvDpOT_+0x192>
  407fb4:	48 8b 45 c8          	mov    -0x38(%rbp),%rax
  407fb8:	48 89 c7             	mov    %rax,%rdi
  407fbb:	e8 78 0d 00 00       	callq  408d38 <_ZNKSt6vectorIPN5caffe4BlobIfEESaIS3_EE4sizeEv>
  407fc0:	48 8d 14 c5 00 00 00 	lea    0x0(,%rax,8),%rdx
  407fc7:	00 
  407fc8:	48 8b 45 e8          	mov    -0x18(%rbp),%rax
  407fcc:	48 01 c2             	add    %rax,%rdx
  407fcf:	48 8b 45 c8          	mov    -0x38(%rbp),%rax
  407fd3:	48 89 d6             	mov    %rdx,%rsi
  407fd6:	48 89 c7             	mov    %rax,%rdi
  407fd9:	e8 3d 14 00 00       	callq  40941b <_ZNSt16allocator_traitsISaIPN5caffe4BlobIfEEEE7destroyIS3_EEvRS4_PT_>
  407fde:	eb 22                	jmp    408002 <_ZNSt6vectorIPN5caffe4BlobIfEESaIS3_EE19_M_emplace_back_auxIJRKS3_EEEvDpOT_+0x1b4>
  407fe0:	48 8b 45 c8          	mov    -0x38(%rbp),%rax
  407fe4:	48 89 c7             	mov    %rax,%rdi
  407fe7:	e8 e2 fd ff ff       	callq  407dce <_ZNSt12_Vector_baseIPN5caffe4BlobIfEESaIS3_EE19_M_get_Tp_allocatorEv>
  407fec:	48 89 c2             	mov    %rax,%rdx
  407fef:	48 8b 4d d8          	mov    -0x28(%rbp),%rcx
  407ff3:	48 8b 45 e8          	mov    -0x18(%rbp),%rax
  407ff7:	48 89 ce             	mov    %rcx,%rsi
  407ffa:	48 89 c7             	mov    %rax,%rdi
  407ffd:	e8 da fd ff ff       	callq  407ddc <_ZSt8_DestroyIPPN5caffe4BlobIfEES3_EvT_S5_RSaIT0_E>
  408002:	48 8b 45 c8          	mov    -0x38(%rbp),%rax
  408006:	48 8b 55 e0          	mov    -0x20(%rbp),%rdx
  40800a:	48 8b 4d e8          	mov    -0x18(%rbp),%rcx
  40800e:	48 89 ce             	mov    %rcx,%rsi
  408011:	48 89 c7             	mov    %rax,%rdi
  408014:	e8 ed 11 00 00       	callq  409206 <_ZNSt12_Vector_baseIPN5caffe4BlobIfEESaIS3_EE13_M_deallocateEPS3_m>
  408019:	e8 52 d0 ff ff       	callq  405070 <__cxa_rethrow@plt>
  40801e:	48 89 c3             	mov    %rax,%rbx
  408021:	e8 1a d0 ff ff       	callq  405040 <__cxa_end_catch@plt>
  408026:	48 89 d8             	mov    %rbx,%rax
  408029:	48 89 c7             	mov    %rax,%rdi
  40802c:	e8 7f cf ff ff       	callq  404fb0 <_Unwind_Resume@plt>
  408031:	48 83 c4 38          	add    $0x38,%rsp
  408035:	5b                   	pop    %rbx
  408036:	5d                   	pop    %rbp
  408037:	c3                   	retq   

0000000000408038 <_ZN5boost10shared_ptrIN5caffe12SyncedMemoryEEC1Ev>:
  408038:	55                   	push   %rbp
  408039:	48 89 e5             	mov    %rsp,%rbp
  40803c:	48 83 ec 10          	sub    $0x10,%rsp
  408040:	48 89 7d f8          	mov    %rdi,-0x8(%rbp)
  408044:	48 8b 45 f8          	mov    -0x8(%rbp),%rax
  408048:	48 c7 00 00 00 00 00 	movq   $0x0,(%rax)
  40804f:	48 8b 45 f8          	mov    -0x8(%rbp),%rax
  408053:	48 83 c0 08          	add    $0x8,%rax
  408057:	48 89 c7             	mov    %rax,%rdi
  40805a:	e8 3d d6 ff ff       	callq  40569c <_ZN5boost6detail12shared_countC1Ev>
  40805f:	90                   	nop
  408060:	c9                   	leaveq 
  408061:	c3                   	retq   

0000000000408062 <_ZNSt6vectorIiSaIiEEC1Ev>:
  408062:	55                   	push   %rbp
  408063:	48 89 e5             	mov    %rsp,%rbp
  408066:	48 83 ec 10          	sub    $0x10,%rsp
  40806a:	48 89 7d f8          	mov    %rdi,-0x8(%rbp)
  40806e:	48 8b 45 f8          	mov    -0x8(%rbp),%rax
  408072:	48 89 c7             	mov    %rax,%rdi
  408075:	e8 c8 13 00 00       	callq  409442 <_ZNSt12_Vector_baseIiSaIiEEC1Ev>
  40807a:	90                   	nop
  40807b:	c9                   	leaveq 
  40807c:	c3                   	retq   
  40807d:	90                   	nop

000000000040807e <_ZN5caffe20BaseConvolutionLayerIfEC1ERKNS_14LayerParameterE>:
  40807e:	55                   	push   %rbp
  40807f:	48 89 e5             	mov    %rsp,%rbp
  408082:	48 83 ec 10          	sub    $0x10,%rsp
  408086:	48 89 7d f8          	mov    %rdi,-0x8(%rbp)
  40808a:	48 89 75 f0          	mov    %rsi,-0x10(%rbp)
  40808e:	48 8b 45 f8          	mov    -0x8(%rbp),%rax
  408092:	48 8b 55 f0          	mov    -0x10(%rbp),%rdx
  408096:	48 89 d6             	mov    %rdx,%rsi
  408099:	48 89 c7             	mov    %rax,%rdi
  40809c:	e8 bd 13 00 00       	callq  40945e <_ZN5caffe5LayerIfEC1ERKNS_14LayerParameterE>
  4080a1:	ba a8 dd 40 00       	mov    $0x40dda8,%edx
  4080a6:	48 8b 45 f8          	mov    -0x8(%rbp),%rax
  4080aa:	48 89 10             	mov    %rdx,(%rax)
  4080ad:	48 8b 45 f8          	mov    -0x8(%rbp),%rax
  4080b1:	48 05 c0 02 00 00    	add    $0x2c0,%rax
  4080b7:	48 89 c7             	mov    %rax,%rdi
  4080ba:	e8 77 15 00 00       	callq  409636 <_ZN5caffe4BlobIiEC1Ev>
  4080bf:	48 8b 45 f8          	mov    -0x8(%rbp),%rax
  4080c3:	48 05 10 03 00 00    	add    $0x310,%rax
  4080c9:	48 89 c7             	mov    %rax,%rdi
  4080cc:	e8 65 15 00 00       	callq  409636 <_ZN5caffe4BlobIiEC1Ev>
  4080d1:	48 8b 45 f8          	mov    -0x8(%rbp),%rax
  4080d5:	48 05 60 03 00 00    	add    $0x360,%rax
  4080db:	48 89 c7             	mov    %rax,%rdi
  4080de:	e8 53 15 00 00       	callq  409636 <_ZN5caffe4BlobIiEC1Ev>
  4080e3:	48 8b 45 f8          	mov    -0x8(%rbp),%rax
  4080e7:	48 05 b0 03 00 00    	add    $0x3b0,%rax
  4080ed:	48 89 c7             	mov    %rax,%rdi
  4080f0:	e8 41 15 00 00       	callq  409636 <_ZN5caffe4BlobIiEC1Ev>
  4080f5:	48 8b 45 f8          	mov    -0x8(%rbp),%rax
  4080f9:	48 05 00 04 00 00    	add    $0x400,%rax
  4080ff:	48 89 c7             	mov    %rax,%rdi
  408102:	e8 2f 15 00 00       	callq  409636 <_ZN5caffe4BlobIiEC1Ev>
  408107:	48 8b 45 f8          	mov    -0x8(%rbp),%rax
  40810b:	48 05 50 04 00 00    	add    $0x450,%rax
  408111:	48 89 c7             	mov    %rax,%rdi
  408114:	e8 49 ff ff ff       	callq  408062 <_ZNSt6vectorIiSaIiEEC1Ev>
  408119:	48 8b 45 f8          	mov    -0x8(%rbp),%rax
  40811d:	48 05 68 04 00 00    	add    $0x468,%rax
  408123:	48 89 c7             	mov    %rax,%rdi
  408126:	e8 37 ff ff ff       	callq  408062 <_ZNSt6vectorIiSaIiEEC1Ev>
  40812b:	48 8b 45 f8          	mov    -0x8(%rbp),%rax
  40812f:	48 05 d8 04 00 00    	add    $0x4d8,%rax
  408135:	48 89 c7             	mov    %rax,%rdi
  408138:	e8 b5 ee ff ff       	callq  406ff2 <_ZN5caffe4BlobIfEC1Ev>
  40813d:	48 8b 45 f8          	mov    -0x8(%rbp),%rax
  408141:	48 05 28 05 00 00    	add    $0x528,%rax
  408147:	48 89 c7             	mov    %rax,%rdi
  40814a:	e8 a3 ee ff ff       	callq  406ff2 <_ZN5caffe4BlobIfEC1Ev>
  40814f:	90                   	nop
  408150:	c9                   	leaveq 
  408151:	c3                   	retq   

0000000000408152 <_ZN5caffe5LayerIfED1Ev>:
  408152:	55                   	push   %rbp
  408153:	48 89 e5             	mov    %rsp,%rbp
  408156:	48 83 ec 10          	sub    $0x10,%rsp
  40815a:	48 89 7d f8          	mov    %rdi,-0x8(%rbp)
  40815e:	ba 68 de 40 00       	mov    $0x40de68,%edx
  408163:	48 8b 45 f8          	mov    -0x8(%rbp),%rax
  408167:	48 89 10             	mov    %rdx,(%rax)
  40816a:	48 8b 45 f8          	mov    -0x8(%rbp),%rax
  40816e:	48 05 a8 02 00 00    	add    $0x2a8,%rax
  408174:	48 89 c7             	mov    %rax,%rdi
  408177:	e8 7c 15 00 00       	callq  4096f8 <_ZNSt6vectorIfSaIfEED1Ev>
  40817c:	48 8b 45 f8          	mov    -0x8(%rbp),%rax
  408180:	48 05 80 02 00 00    	add    $0x280,%rax
  408186:	48 89 c7             	mov    %rax,%rdi
  408189:	e8 4e 15 00 00       	callq  4096dc <_ZNSt6vectorIbSaIbEED1Ev>
  40818e:	48 8b 45 f8          	mov    -0x8(%rbp),%rax
  408192:	48 05 68 02 00 00    	add    $0x268,%rax
  408198:	48 89 c7             	mov    %rax,%rdi
  40819b:	e8 f8 14 00 00       	callq  409698 <_ZNSt6vectorIN5boost10shared_ptrIN5caffe4BlobIfEEEESaIS5_EED1Ev>
  4081a0:	48 8b 45 f8          	mov    -0x8(%rbp),%rax
  4081a4:	48 83 c0 08          	add    $0x8,%rax
  4081a8:	48 89 c7             	mov    %rax,%rdi
  4081ab:	e8 00 d1 ff ff       	callq  4052b0 <_ZN5caffe14LayerParameterD1Ev@plt>
  4081b0:	90                   	nop
  4081b1:	c9                   	leaveq 
  4081b2:	c3                   	retq   
  4081b3:	90                   	nop

00000000004081b4 <_ZN5caffe5LayerIfED0Ev>:
  4081b4:	55                   	push   %rbp
  4081b5:	48 89 e5             	mov    %rsp,%rbp
  4081b8:	48 83 ec 10          	sub    $0x10,%rsp
  4081bc:	48 89 7d f8          	mov    %rdi,-0x8(%rbp)
  4081c0:	48 8b 45 f8          	mov    -0x8(%rbp),%rax
  4081c4:	48 89 c7             	mov    %rax,%rdi
  4081c7:	e8 86 ff ff ff       	callq  408152 <_ZN5caffe5LayerIfED1Ev>
  4081cc:	48 8b 45 f8          	mov    -0x8(%rbp),%rax
  4081d0:	48 89 c7             	mov    %rax,%rdi
  4081d3:	e8 48 cd ff ff       	callq  404f20 <_ZdlPv@plt>
  4081d8:	c9                   	leaveq 
  4081d9:	c3                   	retq   

00000000004081da <_ZN5caffe5LayerIfE15CheckBlobCountsERKSt6vectorIPNS_4BlobIfEESaIS5_EES9_>:
  4081da:	55                   	push   %rbp
  4081db:	48 89 e5             	mov    %rsp,%rbp
  4081de:	41 54                	push   %r12
  4081e0:	53                   	push   %rbx
  4081e1:	48 83 c4 80          	add    $0xffffffffffffff80,%rsp
  4081e5:	48 89 7d 88          	mov    %rdi,-0x78(%rbp)
  4081e9:	48 89 75 80          	mov    %rsi,-0x80(%rbp)
  4081ed:	48 89 95 78 ff ff ff 	mov    %rdx,-0x88(%rbp)
  4081f4:	64 48 8b 04 25 28 00 	mov    %fs:0x28,%rax
  4081fb:	00 00 
  4081fd:	48 89 45 e8          	mov    %rax,-0x18(%rbp)
  408201:	31 c0                	xor    %eax,%eax
  408203:	48 8b 45 88          	mov    -0x78(%rbp),%rax
  408207:	48 8b 00             	mov    (%rax),%rax
  40820a:	48 83 c0 30          	add    $0x30,%rax
  40820e:	48 8b 00             	mov    (%rax),%rax
  408211:	48 8b 55 88          	mov    -0x78(%rbp),%rdx
  408215:	48 89 d7             	mov    %rdx,%rdi
  408218:	ff d0                	callq  *%rax
  40821a:	f7 d0                	not    %eax
  40821c:	c1 e8 1f             	shr    $0x1f,%eax
  40821f:	84 c0                	test   %al,%al
  408221:	0f 84 0a 01 00 00    	je     408331 <_ZN5caffe5LayerIfE15CheckBlobCountsERKSt6vectorIPNS_4BlobIfEESaIS5_EES9_+0x157>
  408227:	48 8b 45 80          	mov    -0x80(%rbp),%rax
  40822b:	48 89 c7             	mov    %rax,%rdi
  40822e:	e8 05 0b 00 00       	callq  408d38 <_ZNKSt6vectorIPN5caffe4BlobIfEESaIS3_EE4sizeEv>
  408233:	48 89 c7             	mov    %rax,%rdi
  408236:	e8 01 d5 ff ff       	callq  40573c <_ZN6google21GetReferenceableValueEm>
  40823b:	48 89 45 d0          	mov    %rax,-0x30(%rbp)
  40823f:	48 8b 45 88          	mov    -0x78(%rbp),%rax
  408243:	48 8b 00             	mov    (%rax),%rax
  408246:	48 83 c0 30          	add    $0x30,%rax
  40824a:	48 8b 00             	mov    (%rax),%rax
  40824d:	48 8b 55 88          	mov    -0x78(%rbp),%rdx
  408251:	48 89 d7             	mov    %rdx,%rdi
  408254:	ff d0                	callq  *%rax
  408256:	89 c7                	mov    %eax,%edi
  408258:	e8 d3 d4 ff ff       	callq  405730 <_ZN6google21GetReferenceableValueEi>
  40825d:	89 45 90             	mov    %eax,-0x70(%rbp)
  408260:	48 8d 4d d0          	lea    -0x30(%rbp),%rcx
  408264:	48 8d 45 90          	lea    -0x70(%rbp),%rax
  408268:	ba b0 d6 40 00       	mov    $0x40d6b0,%edx
  40826d:	48 89 ce             	mov    %rcx,%rsi
  408270:	48 89 c7             	mov    %rax,%rdi
  408273:	e8 d3 14 00 00       	callq  40974b <_ZN6google12Check_EQImplIimEEPNSt7__cxx1112basic_stringIcSt11char_traitsIcESaIcEEERKT_RKT0_PKc>
  408278:	48 89 45 98          	mov    %rax,-0x68(%rbp)
  40827c:	48 83 7d 98 00       	cmpq   $0x0,-0x68(%rbp)
  408281:	0f 84 aa 00 00 00    	je     408331 <_ZN5caffe5LayerIfE15CheckBlobCountsERKSt6vectorIPNS_4BlobIfEESaIS5_EES9_+0x157>
  408287:	48 8b 45 88          	mov    -0x78(%rbp),%rax
  40828b:	48 8b 00             	mov    (%rax),%rax
  40828e:	48 83 c0 30          	add    $0x30,%rax
  408292:	48 8b 00             	mov    (%rax),%rax
  408295:	48 8b 55 88          	mov    -0x78(%rbp),%rdx
  408299:	48 89 d7             	mov    %rdx,%rdi
  40829c:	ff d0                	callq  *%rax
  40829e:	89 c3                	mov    %eax,%ebx
  4082a0:	48 8b 45 88          	mov    -0x78(%rbp),%rax
  4082a4:	48 8b 00             	mov    (%rax),%rax
  4082a7:	48 83 c0 28          	add    $0x28,%rax
  4082ab:	48 8b 00             	mov    (%rax),%rax
  4082ae:	48 8b 55 88          	mov    -0x78(%rbp),%rdx
  4082b2:	48 89 d7             	mov    %rdx,%rdi
  4082b5:	ff d0                	callq  *%rax
  4082b7:	49 89 c4             	mov    %rax,%r12
  4082ba:	48 8b 55 98          	mov    -0x68(%rbp),%rdx
  4082be:	48 8d 45 90          	lea    -0x70(%rbp),%rax
  4082c2:	48 89 d6             	mov    %rdx,%rsi
  4082c5:	48 89 c7             	mov    %rax,%rdi
  4082c8:	e8 49 d4 ff ff       	callq  405716 <_ZN6google13CheckOpStringC1EPNSt7__cxx1112basic_stringIcSt11char_traitsIcESaIcEEE>
  4082cd:	48 8d 55 90          	lea    -0x70(%rbp),%rdx
  4082d1:	48 8d 45 d0          	lea    -0x30(%rbp),%rax
  4082d5:	48 89 d1             	mov    %rdx,%rcx
  4082d8:	ba 5d 01 00 00       	mov    $0x15d,%edx
  4082dd:	be d8 d4 40 00       	mov    $0x40d4d8,%esi
  4082e2:	48 89 c7             	mov    %rax,%rdi
  4082e5:	e8 b6 cc ff ff       	callq  404fa0 <_ZN6google15LogMessageFatalC1EPKciRKNS_13CheckOpStringE@plt>
  4082ea:	48 8d 45 d0          	lea    -0x30(%rbp),%rax
  4082ee:	48 89 c7             	mov    %rax,%rdi
  4082f1:	e8 8a ce ff ff       	callq  405180 <_ZN6google10LogMessage6streamEv@plt>
  4082f6:	4c 89 e6             	mov    %r12,%rsi
  4082f9:	48 89 c7             	mov    %rax,%rdi
  4082fc:	e8 3f cc ff ff       	callq  404f40 <_ZStlsISt11char_traitsIcEERSt13basic_ostreamIcT_ES5_PKc@plt>
  408301:	be d7 d6 40 00       	mov    $0x40d6d7,%esi
  408306:	48 89 c7             	mov    %rax,%rdi
  408309:	e8 32 cc ff ff       	callq  404f40 <_ZStlsISt11char_traitsIcEERSt13basic_ostreamIcT_ES5_PKc@plt>
  40830e:	89 de                	mov    %ebx,%esi
  408310:	48 89 c7             	mov    %rax,%rdi
  408313:	e8 48 cb ff ff       	callq  404e60 <_ZNSolsEi@plt>
  408318:	be e5 d6 40 00       	mov    $0x40d6e5,%esi
  40831d:	48 89 c7             	mov    %rax,%rdi
  408320:	e8 1b cc ff ff       	callq  404f40 <_ZStlsISt11char_traitsIcEERSt13basic_ostreamIcT_ES5_PKc@plt>
  408325:	48 8d 45 d0          	lea    -0x30(%rbp),%rax
  408329:	48 89 c7             	mov    %rax,%rdi
  40832c:	e8 af cd ff ff       	callq  4050e0 <_ZN6google15LogMessageFatalD1Ev@plt>
  408331:	48 8b 45 88          	mov    -0x78(%rbp),%rax
  408335:	48 8b 00             	mov    (%rax),%rax
  408338:	48 83 c0 38          	add    $0x38,%rax
  40833c:	48 8b 00             	mov    (%rax),%rax
  40833f:	48 8b 55 88          	mov    -0x78(%rbp),%rdx
  408343:	48 89 d7             	mov    %rdx,%rdi
  408346:	ff d0                	callq  *%rax
  408348:	f7 d0                	not    %eax
  40834a:	c1 e8 1f             	shr    $0x1f,%eax
  40834d:	84 c0                	test   %al,%al
  40834f:	0f 84 0a 01 00 00    	je     40845f <_ZN5caffe5LayerIfE15CheckBlobCountsERKSt6vectorIPNS_4BlobIfEESaIS5_EES9_+0x285>
  408355:	48 8b 45 80          	mov    -0x80(%rbp),%rax
  408359:	48 89 c7             	mov    %rax,%rdi
  40835c:	e8 d7 09 00 00       	callq  408d38 <_ZNKSt6vectorIPN5caffe4BlobIfEESaIS3_EE4sizeEv>
  408361:	48 89 c7             	mov    %rax,%rdi
  408364:	e8 d3 d3 ff ff       	callq  40573c <_ZN6google21GetReferenceableValueEm>
  408369:	48 89 45 d0          	mov    %rax,-0x30(%rbp)
  40836d:	48 8b 45 88          	mov    -0x78(%rbp),%rax
  408371:	48 8b 00             	mov    (%rax),%rax
  408374:	48 83 c0 38          	add    $0x38,%rax
  408378:	48 8b 00             	mov    (%rax),%rax
  40837b:	48 8b 55 88          	mov    -0x78(%rbp),%rdx
  40837f:	48 89 d7             	mov    %rdx,%rdi
  408382:	ff d0                	callq  *%rax
  408384:	89 c7                	mov    %eax,%edi
  408386:	e8 a5 d3 ff ff       	callq  405730 <_ZN6google21GetReferenceableValueEi>
  40838b:	89 45 90             	mov    %eax,-0x70(%rbp)
  40838e:	48 8d 4d d0          	lea    -0x30(%rbp),%rcx
  408392:	48 8d 45 90          	lea    -0x70(%rbp),%rax
  408396:	ba 00 d7 40 00       	mov    $0x40d700,%edx
  40839b:	48 89 ce             	mov    %rcx,%rsi
  40839e:	48 89 c7             	mov    %rax,%rdi
  4083a1:	e8 17 14 00 00       	callq  4097bd <_ZN6google12Check_LEImplIimEEPNSt7__cxx1112basic_stringIcSt11char_traitsIcESaIcEEERKT_RKT0_PKc>
  4083a6:	48 89 45 a0          	mov    %rax,-0x60(%rbp)
  4083aa:	48 83 7d a0 00       	cmpq   $0x0,-0x60(%rbp)
  4083af:	0f 84 aa 00 00 00    	je     40845f <_ZN5caffe5LayerIfE15CheckBlobCountsERKSt6vectorIPNS_4BlobIfEESaIS5_EES9_+0x285>
  4083b5:	48 8b 45 88          	mov    -0x78(%rbp),%rax
  4083b9:	48 8b 00             	mov    (%rax),%rax
  4083bc:	48 83 c0 38          	add    $0x38,%rax
  4083c0:	48 8b 00             	mov    (%rax),%rax
  4083c3:	48 8b 55 88          	mov    -0x78(%rbp),%rdx
  4083c7:	48 89 d7             	mov    %rdx,%rdi
  4083ca:	ff d0                	callq  *%rax
  4083cc:	89 c3                	mov    %eax,%ebx
  4083ce:	48 8b 45 88          	mov    -0x78(%rbp),%rax
  4083d2:	48 8b 00             	mov    (%rax),%rax
  4083d5:	48 83 c0 28          	add    $0x28,%rax
  4083d9:	48 8b 00             	mov    (%rax),%rax
  4083dc:	48 8b 55 88          	mov    -0x78(%rbp),%rdx
  4083e0:	48 89 d7             	mov    %rdx,%rdi
  4083e3:	ff d0                	callq  *%rax
  4083e5:	49 89 c4             	mov    %rax,%r12
  4083e8:	48 8b 55 a0          	mov    -0x60(%rbp),%rdx
  4083ec:	48 8d 45 90          	lea    -0x70(%rbp),%rax
  4083f0:	48 89 d6             	mov    %rdx,%rsi
  4083f3:	48 89 c7             	mov    %rax,%rdi
  4083f6:	e8 1b d3 ff ff       	callq  405716 <_ZN6google13CheckOpStringC1EPNSt7__cxx1112basic_stringIcSt11char_traitsIcESaIcEEE>
  4083fb:	48 8d 55 90          	lea    -0x70(%rbp),%rdx
  4083ff:	48 8d 45 d0          	lea    -0x30(%rbp),%rax
  408403:	48 89 d1             	mov    %rdx,%rcx
  408406:	ba 62 01 00 00       	mov    $0x162,%edx
  40840b:	be d8 d4 40 00       	mov    $0x40d4d8,%esi
  408410:	48 89 c7             	mov    %rax,%rdi
  408413:	e8 88 cb ff ff       	callq  404fa0 <_ZN6google15LogMessageFatalC1EPKciRKNS_13CheckOpStringE@plt>
  408418:	48 8d 45 d0          	lea    -0x30(%rbp),%rax
  40841c:	48 89 c7             	mov    %rax,%rdi
  40841f:	e8 5c cd ff ff       	callq  405180 <_ZN6google10LogMessage6streamEv@plt>
  408424:	4c 89 e6             	mov    %r12,%rsi
  408427:	48 89 c7             	mov    %rax,%rdi
  40842a:	e8 11 cb ff ff       	callq  404f40 <_ZStlsISt11char_traitsIcEERSt13basic_ostreamIcT_ES5_PKc@plt>
  40842f:	be 22 d7 40 00       	mov    $0x40d722,%esi
  408434:	48 89 c7             	mov    %rax,%rdi
  408437:	e8 04 cb ff ff       	callq  404f40 <_ZStlsISt11char_traitsIcEERSt13basic_ostreamIcT_ES5_PKc@plt>
  40843c:	89 de                	mov    %ebx,%esi
  40843e:	48 89 c7             	mov    %rax,%rdi
  408441:	e8 1a ca ff ff       	callq  404e60 <_ZNSolsEi@plt>
  408446:	be e5 d6 40 00       	mov    $0x40d6e5,%esi
  40844b:	48 89 c7             	mov    %rax,%rdi
  40844e:	e8 ed ca ff ff       	callq  404f40 <_ZStlsISt11char_traitsIcEERSt13basic_ostreamIcT_ES5_PKc@plt>
  408453:	48 8d 45 d0          	lea    -0x30(%rbp),%rax
  408457:	48 89 c7             	mov    %rax,%rdi
  40845a:	e8 81 cc ff ff       	callq  4050e0 <_ZN6google15LogMessageFatalD1Ev@plt>
  40845f:	48 8b 45 88          	mov    -0x78(%rbp),%rax
  408463:	48 8b 00             	mov    (%rax),%rax
  408466:	48 83 c0 40          	add    $0x40,%rax
  40846a:	48 8b 00             	mov    (%rax),%rax
  40846d:	48 8b 55 88          	mov    -0x78(%rbp),%rdx
  408471:	48 89 d7             	mov    %rdx,%rdi
  408474:	ff d0                	callq  *%rax
  408476:	f7 d0                	not    %eax
  408478:	c1 e8 1f             	shr    $0x1f,%eax
  40847b:	84 c0                	test   %al,%al
  40847d:	0f 84 0a 01 00 00    	je     40858d <_ZN5caffe5LayerIfE15CheckBlobCountsERKSt6vectorIPNS_4BlobIfEESaIS5_EES9_+0x3b3>
  408483:	48 8b 45 80          	mov    -0x80(%rbp),%rax
  408487:	48 89 c7             	mov    %rax,%rdi
  40848a:	e8 a9 08 00 00       	callq  408d38 <_ZNKSt6vectorIPN5caffe4BlobIfEESaIS3_EE4sizeEv>
  40848f:	48 89 c7             	mov    %rax,%rdi
  408492:	e8 a5 d2 ff ff       	callq  40573c <_ZN6google21GetReferenceableValueEm>
  408497:	48 89 45 d0          	mov    %rax,-0x30(%rbp)
  40849b:	48 8b 45 88          	mov    -0x78(%rbp),%rax
  40849f:	48 8b 00             	mov    (%rax),%rax
  4084a2:	48 83 c0 40          	add    $0x40,%rax
  4084a6:	48 8b 00             	mov    (%rax),%rax
  4084a9:	48 8b 55 88          	mov    -0x78(%rbp),%rdx
  4084ad:	48 89 d7             	mov    %rdx,%rdi
  4084b0:	ff d0                	callq  *%rax
  4084b2:	89 c7                	mov    %eax,%edi
  4084b4:	e8 77 d2 ff ff       	callq  405730 <_ZN6google21GetReferenceableValueEi>
  4084b9:	89 45 90             	mov    %eax,-0x70(%rbp)
  4084bc:	48 8d 4d d0          	lea    -0x30(%rbp),%rcx
  4084c0:	48 8d 45 90          	lea    -0x70(%rbp),%rax
  4084c4:	ba 40 d7 40 00       	mov    $0x40d740,%edx
  4084c9:	48 89 ce             	mov    %rcx,%rsi
  4084cc:	48 89 c7             	mov    %rax,%rdi
  4084cf:	e8 4b 13 00 00       	callq  40981f <_ZN6google12Check_GEImplIimEEPNSt7__cxx1112basic_stringIcSt11char_traitsIcESaIcEEERKT_RKT0_PKc>
  4084d4:	48 89 45 a8          	mov    %rax,-0x58(%rbp)
  4084d8:	48 83 7d a8 00       	cmpq   $0x0,-0x58(%rbp)
  4084dd:	0f 84 aa 00 00 00    	je     40858d <_ZN5caffe5LayerIfE15CheckBlobCountsERKSt6vectorIPNS_4BlobIfEESaIS5_EES9_+0x3b3>
  4084e3:	48 8b 45 88          	mov    -0x78(%rbp),%rax
  4084e7:	48 8b 00             	mov    (%rax),%rax
  4084ea:	48 83 c0 40          	add    $0x40,%rax
  4084ee:	48 8b 00             	mov    (%rax),%rax
  4084f1:	48 8b 55 88          	mov    -0x78(%rbp),%rdx
  4084f5:	48 89 d7             	mov    %rdx,%rdi
  4084f8:	ff d0                	callq  *%rax
  4084fa:	89 c3                	mov    %eax,%ebx
  4084fc:	48 8b 45 88          	mov    -0x78(%rbp),%rax
  408500:	48 8b 00             	mov    (%rax),%rax
  408503:	48 83 c0 28          	add    $0x28,%rax
  408507:	48 8b 00             	mov    (%rax),%rax
  40850a:	48 8b 55 88          	mov    -0x78(%rbp),%rdx
  40850e:	48 89 d7             	mov    %rdx,%rdi
  408511:	ff d0                	callq  *%rax
  408513:	49 89 c4             	mov    %rax,%r12
  408516:	48 8b 55 a8          	mov    -0x58(%rbp),%rdx
  40851a:	48 8d 45 90          	lea    -0x70(%rbp),%rax
  40851e:	48 89 d6             	mov    %rdx,%rsi
  408521:	48 89 c7             	mov    %rax,%rdi
  408524:	e8 ed d1 ff ff       	callq  405716 <_ZN6google13CheckOpStringC1EPNSt7__cxx1112basic_stringIcSt11char_traitsIcESaIcEEE>
  408529:	48 8d 55 90          	lea    -0x70(%rbp),%rdx
  40852d:	48 8d 45 d0          	lea    -0x30(%rbp),%rax
  408531:	48 89 d1             	mov    %rdx,%rcx
  408534:	ba 67 01 00 00       	mov    $0x167,%edx
  408539:	be d8 d4 40 00       	mov    $0x40d4d8,%esi
  40853e:	48 89 c7             	mov    %rax,%rdi
  408541:	e8 5a ca ff ff       	callq  404fa0 <_ZN6google15LogMessageFatalC1EPKciRKNS_13CheckOpStringE@plt>
  408546:	48 8d 45 d0          	lea    -0x30(%rbp),%rax
  40854a:	48 89 c7             	mov    %rax,%rdi
  40854d:	e8 2e cc ff ff       	callq  405180 <_ZN6google10LogMessage6streamEv@plt>
  408552:	4c 89 e6             	mov    %r12,%rsi
  408555:	48 89 c7             	mov    %rax,%rdi
  408558:	e8 e3 c9 ff ff       	callq  404f40 <_ZStlsISt11char_traitsIcEERSt13basic_ostreamIcT_ES5_PKc@plt>
  40855d:	be 62 d7 40 00       	mov    $0x40d762,%esi
  408562:	48 89 c7             	mov    %rax,%rdi
  408565:	e8 d6 c9 ff ff       	callq  404f40 <_ZStlsISt11char_traitsIcEERSt13basic_ostreamIcT_ES5_PKc@plt>
  40856a:	89 de                	mov    %ebx,%esi
  40856c:	48 89 c7             	mov    %rax,%rdi
  40856f:	e8 ec c8 ff ff       	callq  404e60 <_ZNSolsEi@plt>
  408574:	be e5 d6 40 00       	mov    $0x40d6e5,%esi
  408579:	48 89 c7             	mov    %rax,%rdi
  40857c:	e8 bf c9 ff ff       	callq  404f40 <_ZStlsISt11char_traitsIcEERSt13basic_ostreamIcT_ES5_PKc@plt>
  408581:	48 8d 45 d0          	lea    -0x30(%rbp),%rax
  408585:	48 89 c7             	mov    %rax,%rdi
  408588:	e8 53 cb ff ff       	callq  4050e0 <_ZN6google15LogMessageFatalD1Ev@plt>
  40858d:	48 8b 45 88          	mov    -0x78(%rbp),%rax
  408591:	48 8b 00             	mov    (%rax),%rax
  408594:	48 83 c0 48          	add    $0x48,%rax
  408598:	48 8b 00             	mov    (%rax),%rax
  40859b:	48 8b 55 88          	mov    -0x78(%rbp),%rdx
  40859f:	48 89 d7             	mov    %rdx,%rdi
  4085a2:	ff d0                	callq  *%rax
  4085a4:	f7 d0                	not    %eax
  4085a6:	c1 e8 1f             	shr    $0x1f,%eax
  4085a9:	84 c0                	test   %al,%al
  4085ab:	0f 84 0d 01 00 00    	je     4086be <_ZN5caffe5LayerIfE15CheckBlobCountsERKSt6vectorIPNS_4BlobIfEESaIS5_EES9_+0x4e4>
  4085b1:	48 8b 85 78 ff ff ff 	mov    -0x88(%rbp),%rax
  4085b8:	48 89 c7             	mov    %rax,%rdi
  4085bb:	e8 78 07 00 00       	callq  408d38 <_ZNKSt6vectorIPN5caffe4BlobIfEESaIS3_EE4sizeEv>
  4085c0:	48 89 c7             	mov    %rax,%rdi
  4085c3:	e8 74 d1 ff ff       	callq  40573c <_ZN6google21GetReferenceableValueEm>
  4085c8:	48 89 45 d0          	mov    %rax,-0x30(%rbp)
  4085cc:	48 8b 45 88          	mov    -0x78(%rbp),%rax
  4085d0:	48 8b 00             	mov    (%rax),%rax
  4085d3:	48 83 c0 48          	add    $0x48,%rax
  4085d7:	48 8b 00             	mov    (%rax),%rax
  4085da:	48 8b 55 88          	mov    -0x78(%rbp),%rdx
  4085de:	48 89 d7             	mov    %rdx,%rdi
  4085e1:	ff d0                	callq  *%rax
  4085e3:	89 c7                	mov    %eax,%edi
  4085e5:	e8 46 d1 ff ff       	callq  405730 <_ZN6google21GetReferenceableValueEi>
  4085ea:	89 45 90             	mov    %eax,-0x70(%rbp)
  4085ed:	48 8d 4d d0          	lea    -0x30(%rbp),%rcx
  4085f1:	48 8d 45 90          	lea    -0x70(%rbp),%rax
  4085f5:	ba 78 d7 40 00       	mov    $0x40d778,%edx
  4085fa:	48 89 ce             	mov    %rcx,%rsi
  4085fd:	48 89 c7             	mov    %rax,%rdi
  408600:	e8 46 11 00 00       	callq  40974b <_ZN6google12Check_EQImplIimEEPNSt7__cxx1112basic_stringIcSt11char_traitsIcESaIcEEERKT_RKT0_PKc>
  408605:	48 89 45 b0          	mov    %rax,-0x50(%rbp)
  408609:	48 83 7d b0 00       	cmpq   $0x0,-0x50(%rbp)
  40860e:	0f 84 aa 00 00 00    	je     4086be <_ZN5caffe5LayerIfE15CheckBlobCountsERKSt6vectorIPNS_4BlobIfEESaIS5_EES9_+0x4e4>
  408614:	48 8b 45 88          	mov    -0x78(%rbp),%rax
  408618:	48 8b 00             	mov    (%rax),%rax
  40861b:	48 83 c0 48          	add    $0x48,%rax
  40861f:	48 8b 00             	mov    (%rax),%rax
  408622:	48 8b 55 88          	mov    -0x78(%rbp),%rdx
  408626:	48 89 d7             	mov    %rdx,%rdi
