
conv:     file format elf64-x86-64


Disassembly of section .init:

0000000000404cd8 <_init>:
  404cd8:	48 83 ec 08          	sub    $0x8,%rsp
  404cdc:	48 8b 05 15 e3 20 00 	mov    0x20e315(%rip),%rax        # 612ff8 <_DYNAMIC+0x220>
  404ce3:	48 85 c0             	test   %rax,%rax
  404ce6:	74 05                	je     404ced <_init+0x15>
  404ce8:	e8 03 06 00 00       	callq  4052f0 <_ZNSaIcED1Ev@plt+0x10>
  404ced:	48 83 c4 08          	add    $0x8,%rsp
  404cf1:	c3                   	retq   

Disassembly of section .plt:

0000000000404d00 <xopenme_init@plt-0x10>:
  404d00:	ff 35 02 e3 20 00    	pushq  0x20e302(%rip)        # 613008 <_GLOBAL_OFFSET_TABLE_+0x8>
  404d06:	ff 25 04 e3 20 00    	jmpq   *0x20e304(%rip)        # 613010 <_GLOBAL_OFFSET_TABLE_+0x10>
  404d0c:	0f 1f 40 00          	nopl   0x0(%rax)

0000000000404d10 <xopenme_init@plt>:
  404d10:	ff 25 02 e3 20 00    	jmpq   *0x20e302(%rip)        # 613018 <_GLOBAL_OFFSET_TABLE_+0x18>
  404d16:	68 00 00 00 00       	pushq  $0x0
  404d1b:	e9 e0 ff ff ff       	jmpq   404d00 <_init+0x28>

0000000000404d20 <xopenme_add_var_f@plt>:
  404d20:	ff 25 fa e2 20 00    	jmpq   *0x20e2fa(%rip)        # 613020 <_GLOBAL_OFFSET_TABLE_+0x20>
  404d26:	68 01 00 00 00       	pushq  $0x1
  404d2b:	e9 d0 ff ff ff       	jmpq   404d00 <_init+0x28>

0000000000404d30 <__cxa_begin_catch@plt>:
  404d30:	ff 25 f2 e2 20 00    	jmpq   *0x20e2f2(%rip)        # 613028 <_GLOBAL_OFFSET_TABLE_+0x28>
  404d36:	68 02 00 00 00       	pushq  $0x2
  404d3b:	e9 c0 ff ff ff       	jmpq   404d00 <_init+0x28>

0000000000404d40 <_ZN5caffe14LayerParameterC1Ev@plt>:
  404d40:	ff 25 ea e2 20 00    	jmpq   *0x20e2ea(%rip)        # 613030 <_GLOBAL_OFFSET_TABLE_+0x30>
  404d46:	68 03 00 00 00       	pushq  $0x3
  404d4b:	e9 b0 ff ff ff       	jmpq   404d00 <_init+0x28>

0000000000404d50 <printf@plt>:
  404d50:	ff 25 e2 e2 20 00    	jmpq   *0x20e2e2(%rip)        # 613038 <_GLOBAL_OFFSET_TABLE_+0x38>
  404d56:	68 04 00 00 00       	pushq  $0x4
  404d5b:	e9 a0 ff ff ff       	jmpq   404d00 <_init+0x28>

0000000000404d60 <_ZN6google4base21CheckOpMessageBuilder7ForVar2Ev@plt>:
  404d60:	ff 25 da e2 20 00    	jmpq   *0x20e2da(%rip)        # 613040 <_GLOBAL_OFFSET_TABLE_+0x40>
  404d66:	68 05 00 00 00       	pushq  $0x5
  404d6b:	e9 90 ff ff ff       	jmpq   404d00 <_init+0x28>

0000000000404d70 <memcpy@plt>:
  404d70:	ff 25 d2 e2 20 00    	jmpq   *0x20e2d2(%rip)        # 613048 <_GLOBAL_OFFSET_TABLE_+0x48>
  404d76:	68 06 00 00 00       	pushq  $0x6
  404d7b:	e9 80 ff ff ff       	jmpq   404d00 <_init+0x28>

0000000000404d80 <_ZSt17__throw_bad_allocv@plt>:
  404d80:	ff 25 ca e2 20 00    	jmpq   *0x20e2ca(%rip)        # 613050 <_GLOBAL_OFFSET_TABLE_+0x50>
  404d86:	68 07 00 00 00       	pushq  $0x7
  404d8b:	e9 70 ff ff ff       	jmpq   404d00 <_init+0x28>

0000000000404d90 <_ZN6google4base21CheckOpMessageBuilderC1EPKc@plt>:
  404d90:	ff 25 c2 e2 20 00    	jmpq   *0x20e2c2(%rip)        # 613058 <_GLOBAL_OFFSET_TABLE_+0x58>
  404d96:	68 08 00 00 00       	pushq  $0x8
  404d9b:	e9 60 ff ff ff       	jmpq   404d00 <_init+0x28>

0000000000404da0 <_ZNSt7__cxx1112basic_stringIcSt11char_traitsIcESaIcEEC1ERKS4_@plt>:
  404da0:	ff 25 ba e2 20 00    	jmpq   *0x20e2ba(%rip)        # 613060 <_GLOBAL_OFFSET_TABLE_+0x60>
  404da6:	68 09 00 00 00       	pushq  $0x9
  404dab:	e9 50 ff ff ff       	jmpq   404d00 <_init+0x28>

0000000000404db0 <_Znwm@plt>:
  404db0:	ff 25 b2 e2 20 00    	jmpq   *0x20e2b2(%rip)        # 613068 <_GLOBAL_OFFSET_TABLE_+0x68>
  404db6:	68 0a 00 00 00       	pushq  $0xa
  404dbb:	e9 40 ff ff ff       	jmpq   404d00 <_init+0x28>

0000000000404dc0 <memmove@plt>:
  404dc0:	ff 25 aa e2 20 00    	jmpq   *0x20e2aa(%rip)        # 613070 <_GLOBAL_OFFSET_TABLE_+0x70>
  404dc6:	68 0b 00 00 00       	pushq  $0xb
  404dcb:	e9 30 ff ff ff       	jmpq   404d00 <_init+0x28>

0000000000404dd0 <__assert_fail@plt>:
  404dd0:	ff 25 a2 e2 20 00    	jmpq   *0x20e2a2(%rip)        # 613078 <_GLOBAL_OFFSET_TABLE_+0x78>
  404dd6:	68 0c 00 00 00       	pushq  $0xc
  404ddb:	e9 20 ff ff ff       	jmpq   404d00 <_init+0x28>

0000000000404de0 <_ZN5caffe14LayerParameter8CopyFromERKS0_@plt>:
  404de0:	ff 25 9a e2 20 00    	jmpq   *0x20e29a(%rip)        # 613080 <_GLOBAL_OFFSET_TABLE_+0x80>
  404de6:	68 0d 00 00 00       	pushq  $0xd
  404deb:	e9 10 ff ff ff       	jmpq   404d00 <_init+0x28>

0000000000404df0 <_ZN5caffe20ConvolutionParameterC1Ev@plt>:
  404df0:	ff 25 92 e2 20 00    	jmpq   *0x20e292(%rip)        # 613088 <_GLOBAL_OFFSET_TABLE_+0x88>
  404df6:	68 0e 00 00 00       	pushq  $0xe
  404dfb:	e9 00 ff ff ff       	jmpq   404d00 <_init+0x28>

0000000000404e00 <_ZN5caffe4BlobIfE16mutable_cpu_dataEv@plt>:
  404e00:	ff 25 8a e2 20 00    	jmpq   *0x20e28a(%rip)        # 613090 <_GLOBAL_OFFSET_TABLE_+0x90>
  404e06:	68 0f 00 00 00       	pushq  $0xf
  404e0b:	e9 f0 fe ff ff       	jmpq   404d00 <_init+0x28>

0000000000404e10 <_ZN5caffe4BlobIfE16mutable_cpu_diffEv@plt>:
  404e10:	ff 25 82 e2 20 00    	jmpq   *0x20e282(%rip)        # 613098 <_GLOBAL_OFFSET_TABLE_+0x98>
  404e16:	68 10 00 00 00       	pushq  $0x10
  404e1b:	e9 e0 fe ff ff       	jmpq   404d00 <_init+0x28>

0000000000404e20 <__stack_chk_fail@plt>:
  404e20:	ff 25 7a e2 20 00    	jmpq   *0x20e27a(%rip)        # 6130a0 <_GLOBAL_OFFSET_TABLE_+0xa0>
  404e26:	68 11 00 00 00       	pushq  $0x11
  404e2b:	e9 d0 fe ff ff       	jmpq   404d00 <_init+0x28>

0000000000404e30 <_ZN5caffe20BaseConvolutionLayerIfE10LayerSetUpERKSt6vectorIPNS_4BlobIfEESaIS5_EES9_@plt>:
  404e30:	ff 25 72 e2 20 00    	jmpq   *0x20e272(%rip)        # 6130a8 <_GLOBAL_OFFSET_TABLE_+0xa8>
  404e36:	68 12 00 00 00       	pushq  $0x12
  404e3b:	e9 c0 fe ff ff       	jmpq   404d00 <_init+0x28>

0000000000404e40 <_ZStlsIcSt11char_traitsIcESaIcEERSt13basic_ostreamIT_T0_ES7_RKNSt7__cxx1112basic_stringIS4_S5_T1_EE@plt>:
  404e40:	ff 25 6a e2 20 00    	jmpq   *0x20e26a(%rip)        # 6130b0 <_GLOBAL_OFFSET_TABLE_+0xb0>
  404e46:	68 13 00 00 00       	pushq  $0x13
  404e4b:	e9 b0 fe ff ff       	jmpq   404d00 <_init+0x28>

0000000000404e50 <_ZN6google4base21CheckOpMessageBuilderD1Ev@plt>:
  404e50:	ff 25 62 e2 20 00    	jmpq   *0x20e262(%rip)        # 6130b8 <_GLOBAL_OFFSET_TABLE_+0xb8>
  404e56:	68 14 00 00 00       	pushq  $0x14
  404e5b:	e9 a0 fe ff ff       	jmpq   404d00 <_init+0x28>

0000000000404e60 <_ZNSolsEi@plt>:
  404e60:	ff 25 5a e2 20 00    	jmpq   *0x20e25a(%rip)        # 6130c0 <_GLOBAL_OFFSET_TABLE_+0xc0>
  404e66:	68 15 00 00 00       	pushq  $0x15
  404e6b:	e9 90 fe ff ff       	jmpq   404d00 <_init+0x28>

0000000000404e70 <_ZN6google8protobuf5Arena11AddListNodeEPvPFvS2_E@plt>:
  404e70:	ff 25 52 e2 20 00    	jmpq   *0x20e252(%rip)        # 6130c8 <_GLOBAL_OFFSET_TABLE_+0xc8>
  404e76:	68 16 00 00 00       	pushq  $0x16
  404e7b:	e9 80 fe ff ff       	jmpq   404d00 <_init+0x28>

0000000000404e80 <atoi@plt>:
  404e80:	ff 25 4a e2 20 00    	jmpq   *0x20e24a(%rip)        # 6130d0 <_GLOBAL_OFFSET_TABLE_+0xd0>
  404e86:	68 17 00 00 00       	pushq  $0x17
  404e8b:	e9 70 fe ff ff       	jmpq   404d00 <_init+0x28>

0000000000404e90 <_ZNSt7__cxx1112basic_stringIcSt11char_traitsIcESaIcEEC1Ev@plt>:
  404e90:	ff 25 42 e2 20 00    	jmpq   *0x20e242(%rip)        # 6130d8 <_GLOBAL_OFFSET_TABLE_+0xd8>
  404e96:	68 18 00 00 00       	pushq  $0x18
  404e9b:	e9 60 fe ff ff       	jmpq   404d00 <_init+0x28>

0000000000404ea0 <_ZdaPv@plt>:
  404ea0:	ff 25 3a e2 20 00    	jmpq   *0x20e23a(%rip)        # 6130e0 <_GLOBAL_OFFSET_TABLE_+0xe0>
  404ea6:	68 19 00 00 00       	pushq  $0x19
  404eab:	e9 50 fe ff ff       	jmpq   404d00 <_init+0x28>

0000000000404eb0 <strlen@plt>:
  404eb0:	ff 25 32 e2 20 00    	jmpq   *0x20e232(%rip)        # 6130e8 <_GLOBAL_OFFSET_TABLE_+0xe8>
  404eb6:	68 1a 00 00 00       	pushq  $0x1a
  404ebb:	e9 40 fe ff ff       	jmpq   404d00 <_init+0x28>

0000000000404ec0 <_ZN5caffe16ConvolutionLayerIfE12Backward_gpuERKSt6vectorIPNS_4BlobIfEESaIS5_EERKS2_IbSaIbEES9_@plt>:
  404ec0:	ff 25 2a e2 20 00    	jmpq   *0x20e22a(%rip)        # 6130f0 <_GLOBAL_OFFSET_TABLE_+0xf0>
  404ec6:	68 1b 00 00 00       	pushq  $0x1b
  404ecb:	e9 30 fe ff ff       	jmpq   404d00 <_init+0x28>

0000000000404ed0 <_ZN5caffe20BaseConvolutionLayerIfE7ReshapeERKSt6vectorIPNS_4BlobIfEESaIS5_EES9_@plt>:
  404ed0:	ff 25 22 e2 20 00    	jmpq   *0x20e222(%rip)        # 6130f8 <_GLOBAL_OFFSET_TABLE_+0xf8>
  404ed6:	68 1c 00 00 00       	pushq  $0x1c
  404edb:	e9 20 fe ff ff       	jmpq   404d00 <_init+0x28>

0000000000404ee0 <_Znam@plt>:
  404ee0:	ff 25 1a e2 20 00    	jmpq   *0x20e21a(%rip)        # 613100 <_GLOBAL_OFFSET_TABLE_+0x100>
  404ee6:	68 1d 00 00 00       	pushq  $0x1d
  404eeb:	e9 10 fe ff ff       	jmpq   404d00 <_init+0x28>

0000000000404ef0 <xopenme_add_var_i@plt>:
  404ef0:	ff 25 12 e2 20 00    	jmpq   *0x20e212(%rip)        # 613108 <_GLOBAL_OFFSET_TABLE_+0x108>
  404ef6:	68 1e 00 00 00       	pushq  $0x1e
  404efb:	e9 00 fe ff ff       	jmpq   404d00 <_init+0x28>

0000000000404f00 <xopenme_get_timer@plt>:
  404f00:	ff 25 0a e2 20 00    	jmpq   *0x20e20a(%rip)        # 613110 <_GLOBAL_OFFSET_TABLE_+0x110>
  404f06:	68 1f 00 00 00       	pushq  $0x1f
  404f0b:	e9 f0 fd ff ff       	jmpq   404d00 <_init+0x28>

0000000000404f10 <xopenme_clock_end@plt>:
  404f10:	ff 25 02 e2 20 00    	jmpq   *0x20e202(%rip)        # 613118 <_GLOBAL_OFFSET_TABLE_+0x118>
  404f16:	68 20 00 00 00       	pushq  $0x20
  404f1b:	e9 e0 fd ff ff       	jmpq   404d00 <_init+0x28>

0000000000404f20 <_ZdlPv@plt>:
  404f20:	ff 25 fa e1 20 00    	jmpq   *0x20e1fa(%rip)        # 613120 <_GLOBAL_OFFSET_TABLE_+0x120>
  404f26:	68 21 00 00 00       	pushq  $0x21
  404f2b:	e9 d0 fd ff ff       	jmpq   404d00 <_init+0x28>

0000000000404f30 <_ZN5caffe16ConvolutionLayerIfE20compute_output_shapeEv@plt>:
  404f30:	ff 25 f2 e1 20 00    	jmpq   *0x20e1f2(%rip)        # 613128 <_GLOBAL_OFFSET_TABLE_+0x128>
  404f36:	68 22 00 00 00       	pushq  $0x22
  404f3b:	e9 c0 fd ff ff       	jmpq   404d00 <_init+0x28>

0000000000404f40 <_ZStlsISt11char_traitsIcEERSt13basic_ostreamIcT_ES5_PKc@plt>:
  404f40:	ff 25 ea e1 20 00    	jmpq   *0x20e1ea(%rip)        # 613130 <_GLOBAL_OFFSET_TABLE_+0x130>
  404f46:	68 23 00 00 00       	pushq  $0x23
  404f4b:	e9 b0 fd ff ff       	jmpq   404d00 <_init+0x28>

0000000000404f50 <xopenme_clock_start@plt>:
  404f50:	ff 25 e2 e1 20 00    	jmpq   *0x20e1e2(%rip)        # 613138 <_GLOBAL_OFFSET_TABLE_+0x138>
  404f56:	68 24 00 00 00       	pushq  $0x24
  404f5b:	e9 a0 fd ff ff       	jmpq   404d00 <_init+0x28>

0000000000404f60 <_ZN6google8protobuf8internal10LogMessageC1ENS0_8LogLevelEPKci@plt>:
  404f60:	ff 25 da e1 20 00    	jmpq   *0x20e1da(%rip)        # 613140 <_GLOBAL_OFFSET_TABLE_+0x140>
  404f66:	68 25 00 00 00       	pushq  $0x25
  404f6b:	e9 90 fd ff ff       	jmpq   404d00 <_init+0x28>

0000000000404f70 <__gxx_personality_v0@plt>:
  404f70:	ff 25 d2 e1 20 00    	jmpq   *0x20e1d2(%rip)        # 613148 <_GLOBAL_OFFSET_TABLE_+0x148>
  404f76:	68 26 00 00 00       	pushq  $0x26
  404f7b:	e9 80 fd ff ff       	jmpq   404d00 <_init+0x28>

0000000000404f80 <_ZSt20__throw_length_errorPKc@plt>:
  404f80:	ff 25 ca e1 20 00    	jmpq   *0x20e1ca(%rip)        # 613150 <_GLOBAL_OFFSET_TABLE_+0x150>
  404f86:	68 27 00 00 00       	pushq  $0x27
  404f8b:	e9 70 fd ff ff       	jmpq   404d00 <_init+0x28>

0000000000404f90 <_ZNK5caffe4BlobIfE8cpu_dataEv@plt>:
  404f90:	ff 25 c2 e1 20 00    	jmpq   *0x20e1c2(%rip)        # 613158 <_GLOBAL_OFFSET_TABLE_+0x158>
  404f96:	68 28 00 00 00       	pushq  $0x28
  404f9b:	e9 60 fd ff ff       	jmpq   404d00 <_init+0x28>

0000000000404fa0 <_ZN6google15LogMessageFatalC1EPKciRKNS_13CheckOpStringE@plt>:
  404fa0:	ff 25 ba e1 20 00    	jmpq   *0x20e1ba(%rip)        # 613160 <_GLOBAL_OFFSET_TABLE_+0x160>
  404fa6:	68 29 00 00 00       	pushq  $0x29
  404fab:	e9 50 fd ff ff       	jmpq   404d00 <_init+0x28>

0000000000404fb0 <_Unwind_Resume@plt>:
  404fb0:	ff 25 b2 e1 20 00    	jmpq   *0x20e1b2(%rip)        # 613168 <_GLOBAL_OFFSET_TABLE_+0x168>
  404fb6:	68 2a 00 00 00       	pushq  $0x2a
  404fbb:	e9 40 fd ff ff       	jmpq   404d00 <_init+0x28>

0000000000404fc0 <_ZNSt8ios_base4InitD1Ev@plt>:
  404fc0:	ff 25 aa e1 20 00    	jmpq   *0x20e1aa(%rip)        # 613170 <_GLOBAL_OFFSET_TABLE_+0x170>
  404fc6:	68 2b 00 00 00       	pushq  $0x2b
  404fcb:	e9 30 fd ff ff       	jmpq   404d00 <_init+0x28>

0000000000404fd0 <_ZN5caffe9BlobProtoC1Ev@plt>:
  404fd0:	ff 25 a2 e1 20 00    	jmpq   *0x20e1a2(%rip)        # 613178 <_GLOBAL_OFFSET_TABLE_+0x178>
  404fd6:	68 2c 00 00 00       	pushq  $0x2c
  404fdb:	e9 20 fd ff ff       	jmpq   404d00 <_init+0x28>

0000000000404fe0 <_ZNK5caffe4BlobIfE8cpu_diffEv@plt>:
  404fe0:	ff 25 9a e1 20 00    	jmpq   *0x20e19a(%rip)        # 613180 <_GLOBAL_OFFSET_TABLE_+0x180>
  404fe6:	68 2d 00 00 00       	pushq  $0x2d
  404feb:	e9 10 fd ff ff       	jmpq   404d00 <_init+0x28>

0000000000404ff0 <_ZN5caffe16ConvolutionLayerIfE12Backward_cpuERKSt6vectorIPNS_4BlobIfEESaIS5_EERKS2_IbSaIbEES9_@plt>:
  404ff0:	ff 25 92 e1 20 00    	jmpq   *0x20e192(%rip)        # 613188 <_GLOBAL_OFFSET_TABLE_+0x188>
  404ff6:	68 2e 00 00 00       	pushq  $0x2e
  404ffb:	e9 00 fd ff ff       	jmpq   404d00 <_init+0x28>

0000000000405000 <_ZN5caffe16ConvolutionLayerIfE11Forward_gpuERKSt6vectorIPNS_4BlobIfEESaIS5_EES9_@plt>:
  405000:	ff 25 8a e1 20 00    	jmpq   *0x20e18a(%rip)        # 613190 <_GLOBAL_OFFSET_TABLE_+0x190>
  405006:	68 2f 00 00 00       	pushq  $0x2f
  40500b:	e9 f0 fc ff ff       	jmpq   404d00 <_init+0x28>

0000000000405010 <_ZN5caffe9caffe_setIfEEviT_PS1_@plt>:
  405010:	ff 25 82 e1 20 00    	jmpq   *0x20e182(%rip)        # 613198 <_GLOBAL_OFFSET_TABLE_+0x198>
  405016:	68 30 00 00 00       	pushq  $0x30
  40501b:	e9 e0 fc ff ff       	jmpq   404d00 <_init+0x28>

0000000000405020 <getenv@plt>:
  405020:	ff 25 7a e1 20 00    	jmpq   *0x20e17a(%rip)        # 6131a0 <_GLOBAL_OFFSET_TABLE_+0x1a0>
  405026:	68 31 00 00 00       	pushq  $0x31
  40502b:	e9 d0 fc ff ff       	jmpq   404d00 <_init+0x28>

0000000000405030 <_ZNSt7__cxx1112basic_stringIcSt11char_traitsIcESaIcEED1Ev@plt>:
  405030:	ff 25 72 e1 20 00    	jmpq   *0x20e172(%rip)        # 6131a8 <_GLOBAL_OFFSET_TABLE_+0x1a8>
  405036:	68 32 00 00 00       	pushq  $0x32
  40503b:	e9 c0 fc ff ff       	jmpq   404d00 <_init+0x28>

0000000000405040 <__cxa_end_catch@plt>:
  405040:	ff 25 6a e1 20 00    	jmpq   *0x20e16a(%rip)        # 6131b0 <_GLOBAL_OFFSET_TABLE_+0x1b0>
  405046:	68 33 00 00 00       	pushq  $0x33
  40504b:	e9 b0 fc ff ff       	jmpq   404d00 <_init+0x28>

0000000000405050 <_ZN6google8protobuf5Arena15AllocateAlignedEPKSt9type_infom@plt>:
  405050:	ff 25 62 e1 20 00    	jmpq   *0x20e162(%rip)        # 6131b8 <_GLOBAL_OFFSET_TABLE_+0x1b8>
  405056:	68 34 00 00 00       	pushq  $0x34
  40505b:	e9 a0 fc ff ff       	jmpq   404d00 <_init+0x28>

0000000000405060 <_ZN6google8protobuf8internal11LogFinisheraSERNS1_10LogMessageE@plt>:
  405060:	ff 25 5a e1 20 00    	jmpq   *0x20e15a(%rip)        # 6131c0 <_GLOBAL_OFFSET_TABLE_+0x1c0>
  405066:	68 35 00 00 00       	pushq  $0x35
  40506b:	e9 90 fc ff ff       	jmpq   404d00 <_init+0x28>

0000000000405070 <__cxa_rethrow@plt>:
  405070:	ff 25 52 e1 20 00    	jmpq   *0x20e152(%rip)        # 6131c8 <_GLOBAL_OFFSET_TABLE_+0x1c8>
  405076:	68 36 00 00 00       	pushq  $0x36
  40507b:	e9 80 fc ff ff       	jmpq   404d00 <_init+0x28>

0000000000405080 <__cxa_throw_bad_array_new_length@plt>:
  405080:	ff 25 4a e1 20 00    	jmpq   *0x20e14a(%rip)        # 6131d0 <_GLOBAL_OFFSET_TABLE_+0x1d0>
  405086:	68 37 00 00 00       	pushq  $0x37
  40508b:	e9 70 fc ff ff       	jmpq   404d00 <_init+0x28>

0000000000405090 <atof@plt>:
  405090:	ff 25 42 e1 20 00    	jmpq   *0x20e142(%rip)        # 6131d8 <_GLOBAL_OFFSET_TABLE_+0x1d8>
  405096:	68 38 00 00 00       	pushq  $0x38
  40509b:	e9 60 fc ff ff       	jmpq   404d00 <_init+0x28>

00000000004050a0 <_ZNSt7__cxx1112basic_stringIcSt11char_traitsIcESaIcEEC1EPKcRKS3_@plt>:
  4050a0:	ff 25 3a e1 20 00    	jmpq   *0x20e13a(%rip)        # 6131e0 <_GLOBAL_OFFSET_TABLE_+0x1e0>
  4050a6:	68 39 00 00 00       	pushq  $0x39
  4050ab:	e9 50 fc ff ff       	jmpq   404d00 <_init+0x28>

00000000004050b0 <_ZN5caffe5Caffe3GetEv@plt>:
  4050b0:	ff 25 32 e1 20 00    	jmpq   *0x20e132(%rip)        # 6131e8 <_GLOBAL_OFFSET_TABLE_+0x1e8>
  4050b6:	68 3a 00 00 00       	pushq  $0x3a
  4050bb:	e9 40 fc ff ff       	jmpq   404d00 <_init+0x28>

00000000004050c0 <_ZN5caffe12SyncedMemory8cpu_dataEv@plt>:
  4050c0:	ff 25 2a e1 20 00    	jmpq   *0x20e12a(%rip)        # 6131f0 <_GLOBAL_OFFSET_TABLE_+0x1f0>
  4050c6:	68 3b 00 00 00       	pushq  $0x3b
  4050cb:	e9 30 fc ff ff       	jmpq   404d00 <_init+0x28>

00000000004050d0 <__cxa_atexit@plt>:
  4050d0:	ff 25 22 e1 20 00    	jmpq   *0x20e122(%rip)        # 6131f8 <_GLOBAL_OFFSET_TABLE_+0x1f8>
  4050d6:	68 3c 00 00 00       	pushq  $0x3c
  4050db:	e9 20 fc ff ff       	jmpq   404d00 <_init+0x28>

00000000004050e0 <_ZN6google15LogMessageFatalD1Ev@plt>:
  4050e0:	ff 25 1a e1 20 00    	jmpq   *0x20e11a(%rip)        # 613200 <_GLOBAL_OFFSET_TABLE_+0x200>
  4050e6:	68 3d 00 00 00       	pushq  $0x3d
  4050eb:	e9 10 fc ff ff       	jmpq   404d00 <_init+0x28>

00000000004050f0 <_ZNSt7__cxx1119basic_ostringstreamIcSt11char_traitsIcESaIcEED1Ev@plt>:
  4050f0:	ff 25 12 e1 20 00    	jmpq   *0x20e112(%rip)        # 613208 <_GLOBAL_OFFSET_TABLE_+0x208>
  4050f6:	68 3e 00 00 00       	pushq  $0x3e
  4050fb:	e9 00 fc ff ff       	jmpq   404d00 <_init+0x28>

0000000000405100 <_ZN6google8protobuf8internal10LogMessageD1Ev@plt>:
  405100:	ff 25 0a e1 20 00    	jmpq   *0x20e10a(%rip)        # 613210 <_GLOBAL_OFFSET_TABLE_+0x210>
  405106:	68 3f 00 00 00       	pushq  $0x3f
  40510b:	e9 f0 fb ff ff       	jmpq   404d00 <_init+0x28>

0000000000405110 <__cxa_pure_virtual@plt>:
  405110:	ff 25 02 e1 20 00    	jmpq   *0x20e102(%rip)        # 613218 <_GLOBAL_OFFSET_TABLE_+0x218>
  405116:	68 40 00 00 00       	pushq  $0x40
  40511b:	e9 e0 fb ff ff       	jmpq   404d00 <_init+0x28>

0000000000405120 <_ZN6google4base21CheckOpMessageBuilder9NewStringB5cxx11Ev@plt>:
  405120:	ff 25 fa e0 20 00    	jmpq   *0x20e0fa(%rip)        # 613220 <_GLOBAL_OFFSET_TABLE_+0x220>
  405126:	68 41 00 00 00       	pushq  $0x41
  40512b:	e9 d0 fb ff ff       	jmpq   404d00 <_init+0x28>

0000000000405130 <__libc_start_main@plt>:
  405130:	ff 25 f2 e0 20 00    	jmpq   *0x20e0f2(%rip)        # 613228 <_GLOBAL_OFFSET_TABLE_+0x228>
  405136:	68 42 00 00 00       	pushq  $0x42
  40513b:	e9 c0 fb ff ff       	jmpq   404d00 <_init+0x28>

0000000000405140 <_ZNSaIcEC1Ev@plt>:
  405140:	ff 25 ea e0 20 00    	jmpq   *0x20e0ea(%rip)        # 613230 <_GLOBAL_OFFSET_TABLE_+0x230>
  405146:	68 43 00 00 00       	pushq  $0x43
  40514b:	e9 b0 fb ff ff       	jmpq   404d00 <_init+0x28>

0000000000405150 <rand@plt>:
  405150:	ff 25 e2 e0 20 00    	jmpq   *0x20e0e2(%rip)        # 613238 <_GLOBAL_OFFSET_TABLE_+0x238>
  405156:	68 44 00 00 00       	pushq  $0x44
  40515b:	e9 a0 fb ff ff       	jmpq   404d00 <_init+0x28>

0000000000405160 <_ZN5caffe4BlobIfEC1Eiiii@plt>:
  405160:	ff 25 da e0 20 00    	jmpq   *0x20e0da(%rip)        # 613240 <_GLOBAL_OFFSET_TABLE_+0x240>
  405166:	68 45 00 00 00       	pushq  $0x45
  40516b:	e9 90 fb ff ff       	jmpq   404d00 <_init+0x28>

0000000000405170 <_ZNSt8ios_base4InitC1Ev@plt>:
  405170:	ff 25 d2 e0 20 00    	jmpq   *0x20e0d2(%rip)        # 613248 <_GLOBAL_OFFSET_TABLE_+0x248>
  405176:	68 46 00 00 00       	pushq  $0x46
  40517b:	e9 80 fb ff ff       	jmpq   404d00 <_init+0x28>

0000000000405180 <_ZN6google10LogMessage6streamEv@plt>:
  405180:	ff 25 ca e0 20 00    	jmpq   *0x20e0ca(%rip)        # 613250 <_GLOBAL_OFFSET_TABLE_+0x250>
  405186:	68 47 00 00 00       	pushq  $0x47
  40518b:	e9 70 fb ff ff       	jmpq   404d00 <_init+0x28>

0000000000405190 <puts@plt>:
  405190:	ff 25 c2 e0 20 00    	jmpq   *0x20e0c2(%rip)        # 613258 <_GLOBAL_OFFSET_TABLE_+0x258>
  405196:	68 48 00 00 00       	pushq  $0x48
  40519b:	e9 60 fb ff ff       	jmpq   404d00 <_init+0x28>

00000000004051a0 <sprintf@plt>:
  4051a0:	ff 25 ba e0 20 00    	jmpq   *0x20e0ba(%rip)        # 613260 <_GLOBAL_OFFSET_TABLE_+0x260>
  4051a6:	68 49 00 00 00       	pushq  $0x49
  4051ab:	e9 50 fb ff ff       	jmpq   404d00 <_init+0x28>

00000000004051b0 <_ZN5caffe16ConvolutionLayerIfE11Forward_cpuERKSt6vectorIPNS_4BlobIfEESaIS5_EES9_@plt>:
  4051b0:	ff 25 b2 e0 20 00    	jmpq   *0x20e0b2(%rip)        # 613268 <_GLOBAL_OFFSET_TABLE_+0x268>
  4051b6:	68 4a 00 00 00       	pushq  $0x4a
  4051bb:	e9 40 fb ff ff       	jmpq   404d00 <_init+0x28>

00000000004051c0 <_ZNSolsEm@plt>:
  4051c0:	ff 25 aa e0 20 00    	jmpq   *0x20e0aa(%rip)        # 613270 <_GLOBAL_OFFSET_TABLE_+0x270>
  4051c6:	68 4b 00 00 00       	pushq  $0x4b
  4051cb:	e9 30 fb ff ff       	jmpq   404d00 <_init+0x28>

00000000004051d0 <_ZNK5caffe4BlobIfE7ToProtoEPNS_9BlobProtoEb@plt>:
  4051d0:	ff 25 a2 e0 20 00    	jmpq   *0x20e0a2(%rip)        # 613278 <_GLOBAL_OFFSET_TABLE_+0x278>
  4051d6:	68 4c 00 00 00       	pushq  $0x4c
  4051db:	e9 20 fb ff ff       	jmpq   404d00 <_init+0x28>

00000000004051e0 <putchar@plt>:
  4051e0:	ff 25 9a e0 20 00    	jmpq   *0x20e09a(%rip)        # 613280 <_GLOBAL_OFFSET_TABLE_+0x280>
  4051e6:	68 4d 00 00 00       	pushq  $0x4d
  4051eb:	e9 10 fb ff ff       	jmpq   404d00 <_init+0x28>

00000000004051f0 <_ZNSt7__cxx1119basic_ostringstreamIcSt11char_traitsIcESaIcEEC1ESt13_Ios_Openmode@plt>:
  4051f0:	ff 25 92 e0 20 00    	jmpq   *0x20e092(%rip)        # 613288 <_GLOBAL_OFFSET_TABLE_+0x288>
  4051f6:	68 4e 00 00 00       	pushq  $0x4e
  4051fb:	e9 00 fb ff ff       	jmpq   404d00 <_init+0x28>

0000000000405200 <_ZN5caffe14LayerParameterC1ERKS0_@plt>:
  405200:	ff 25 8a e0 20 00    	jmpq   *0x20e08a(%rip)        # 613290 <_GLOBAL_OFFSET_TABLE_+0x290>
  405206:	68 4f 00 00 00       	pushq  $0x4f
  40520b:	e9 f0 fa ff ff       	jmpq   404d00 <_init+0x28>

0000000000405210 <xopenme_dump_state@plt>:
  405210:	ff 25 82 e0 20 00    	jmpq   *0x20e082(%rip)        # 613298 <_GLOBAL_OFFSET_TABLE_+0x298>
  405216:	68 50 00 00 00       	pushq  $0x50
  40521b:	e9 e0 fa ff ff       	jmpq   404d00 <_init+0x28>

0000000000405220 <_ZN5caffe13caffe_cpu_dotIfEET_iPKS1_S3_@plt>:
  405220:	ff 25 7a e0 20 00    	jmpq   *0x20e07a(%rip)        # 6132a0 <_GLOBAL_OFFSET_TABLE_+0x2a0>
  405226:	68 51 00 00 00       	pushq  $0x51
  40522b:	e9 d0 fa ff ff       	jmpq   404d00 <_init+0x28>

0000000000405230 <_ZNSt7__cxx1112basic_stringIcSt11char_traitsIcESaIcEEaSERKS4_@plt>:
  405230:	ff 25 72 e0 20 00    	jmpq   *0x20e072(%rip)        # 6132a8 <_GLOBAL_OFFSET_TABLE_+0x2a8>
  405236:	68 52 00 00 00       	pushq  $0x52
  40523b:	e9 c0 fa ff ff       	jmpq   404d00 <_init+0x28>

0000000000405240 <_ZNKSt7__cxx1119basic_ostringstreamIcSt11char_traitsIcESaIcEE3strEv@plt>:
  405240:	ff 25 6a e0 20 00    	jmpq   *0x20e06a(%rip)        # 6132b0 <_GLOBAL_OFFSET_TABLE_+0x2b0>
  405246:	68 53 00 00 00       	pushq  $0x53
  40524b:	e9 b0 fa ff ff       	jmpq   404d00 <_init+0x28>

0000000000405250 <_ZN5caffe15FillerParameterC1Ev@plt>:
  405250:	ff 25 62 e0 20 00    	jmpq   *0x20e062(%rip)        # 6132b8 <_GLOBAL_OFFSET_TABLE_+0x2b8>
  405256:	68 54 00 00 00       	pushq  $0x54
  40525b:	e9 a0 fa ff ff       	jmpq   404d00 <_init+0x28>

0000000000405260 <srand@plt>:
  405260:	ff 25 5a e0 20 00    	jmpq   *0x20e05a(%rip)        # 6132c0 <_GLOBAL_OFFSET_TABLE_+0x2c0>
  405266:	68 55 00 00 00       	pushq  $0x55
  40526b:	e9 90 fa ff ff       	jmpq   404d00 <_init+0x28>

0000000000405270 <_ZN6google8protobuf8internal20RepeatedPtrFieldBase7ReserveEi@plt>:
  405270:	ff 25 52 e0 20 00    	jmpq   *0x20e052(%rip)        # 6132c8 <_GLOBAL_OFFSET_TABLE_+0x2c8>
  405276:	68 56 00 00 00       	pushq  $0x56
  40527b:	e9 80 fa ff ff       	jmpq   404d00 <_init+0x28>

0000000000405280 <xopenme_finish@plt>:
  405280:	ff 25 4a e0 20 00    	jmpq   *0x20e04a(%rip)        # 6132d0 <_GLOBAL_OFFSET_TABLE_+0x2d0>
  405286:	68 57 00 00 00       	pushq  $0x57
  40528b:	e9 70 fa ff ff       	jmpq   404d00 <_init+0x28>

0000000000405290 <xopenme_dump_memory@plt>:
  405290:	ff 25 42 e0 20 00    	jmpq   *0x20e042(%rip)        # 6132d8 <_GLOBAL_OFFSET_TABLE_+0x2d8>
  405296:	68 58 00 00 00       	pushq  $0x58
  40529b:	e9 60 fa ff ff       	jmpq   404d00 <_init+0x28>

00000000004052a0 <_ZN6google15LogMessageFatalC1EPKci@plt>:
  4052a0:	ff 25 3a e0 20 00    	jmpq   *0x20e03a(%rip)        # 6132e0 <_GLOBAL_OFFSET_TABLE_+0x2e0>
  4052a6:	68 59 00 00 00       	pushq  $0x59
  4052ab:	e9 50 fa ff ff       	jmpq   404d00 <_init+0x28>

00000000004052b0 <_ZN5caffe14LayerParameterD1Ev@plt>:
  4052b0:	ff 25 32 e0 20 00    	jmpq   *0x20e032(%rip)        # 6132e8 <_GLOBAL_OFFSET_TABLE_+0x2e8>
  4052b6:	68 5a 00 00 00       	pushq  $0x5a
  4052bb:	e9 40 fa ff ff       	jmpq   404d00 <_init+0x28>

00000000004052c0 <_ZN6google8protobuf8internal10LogMessagelsEPKc@plt>:
  4052c0:	ff 25 2a e0 20 00    	jmpq   *0x20e02a(%rip)        # 6132f0 <_GLOBAL_OFFSET_TABLE_+0x2f0>
  4052c6:	68 5b 00 00 00       	pushq  $0x5b
  4052cb:	e9 30 fa ff ff       	jmpq   404d00 <_init+0x28>

00000000004052d0 <_ZN5caffe4BlobIfE9FromProtoERKNS_9BlobProtoEb@plt>:
  4052d0:	ff 25 22 e0 20 00    	jmpq   *0x20e022(%rip)        # 6132f8 <_GLOBAL_OFFSET_TABLE_+0x2f8>
  4052d6:	68 5c 00 00 00       	pushq  $0x5c
  4052db:	e9 20 fa ff ff       	jmpq   404d00 <_init+0x28>

00000000004052e0 <_ZNSaIcED1Ev@plt>:
  4052e0:	ff 25 1a e0 20 00    	jmpq   *0x20e01a(%rip)        # 613300 <_GLOBAL_OFFSET_TABLE_+0x300>
  4052e6:	68 5d 00 00 00       	pushq  $0x5d
  4052eb:	e9 10 fa ff ff       	jmpq   404d00 <_init+0x28>

Disassembly of section .plt.got:

00000000004052f0 <.plt.got>:
  4052f0:	ff 25 02 dd 20 00    	jmpq   *0x20dd02(%rip)        # 612ff8 <_DYNAMIC+0x220>
  4052f6:	66 90                	xchg   %ax,%ax

Disassembly of section .text:

0000000000405300 <_start>:
  405300:	31 ed                	xor    %ebp,%ebp
  405302:	49 89 d1             	mov    %rdx,%r9
  405305:	5e                   	pop    %rsi
  405306:	48 89 e2             	mov    %rsp,%rdx
  405309:	48 83 e4 f0          	and    $0xfffffffffffffff0,%rsp
  40530d:	50                   	push   %rax
  40530e:	54                   	push   %rsp
  40530f:	49 c7 c0 60 d0 40 00 	mov    $0x40d060,%r8
  405316:	48 c7 c1 f0 cf 40 00 	mov    $0x40cff0,%rcx
  40531d:	48 c7 c7 4a 54 40 00 	mov    $0x40544a,%rdi
  405324:	e8 07 fe ff ff       	callq  405130 <__libc_start_main@plt>
  405329:	f4                   	hlt    
  40532a:	66 0f 1f 44 00 00    	nopw   0x0(%rax,%rax,1)

0000000000405330 <deregister_tm_clones>:
  405330:	b8 1f 33 61 00       	mov    $0x61331f,%eax
  405335:	55                   	push   %rbp
  405336:	48 2d 18 33 61 00    	sub    $0x613318,%rax
  40533c:	48 83 f8 0e          	cmp    $0xe,%rax
  405340:	48 89 e5             	mov    %rsp,%rbp
  405343:	76 1b                	jbe    405360 <deregister_tm_clones+0x30>
  405345:	b8 00 00 00 00       	mov    $0x0,%eax
  40534a:	48 85 c0             	test   %rax,%rax
  40534d:	74 11                	je     405360 <deregister_tm_clones+0x30>
  40534f:	5d                   	pop    %rbp
  405350:	bf 18 33 61 00       	mov    $0x613318,%edi
  405355:	ff e0                	jmpq   *%rax
  405357:	66 0f 1f 84 00 00 00 	nopw   0x0(%rax,%rax,1)
  40535e:	00 00 
  405360:	5d                   	pop    %rbp
  405361:	c3                   	retq   
  405362:	0f 1f 40 00          	nopl   0x0(%rax)
  405366:	66 2e 0f 1f 84 00 00 	nopw   %cs:0x0(%rax,%rax,1)
  40536d:	00 00 00 

0000000000405370 <register_tm_clones>:
  405370:	be 18 33 61 00       	mov    $0x613318,%esi
  405375:	55                   	push   %rbp
  405376:	48 81 ee 18 33 61 00 	sub    $0x613318,%rsi
  40537d:	48 c1 fe 03          	sar    $0x3,%rsi
  405381:	48 89 e5             	mov    %rsp,%rbp
  405384:	48 89 f0             	mov    %rsi,%rax
  405387:	48 c1 e8 3f          	shr    $0x3f,%rax
  40538b:	48 01 c6             	add    %rax,%rsi
  40538e:	48 d1 fe             	sar    %rsi
  405391:	74 15                	je     4053a8 <register_tm_clones+0x38>
  405393:	b8 00 00 00 00       	mov    $0x0,%eax
  405398:	48 85 c0             	test   %rax,%rax
  40539b:	74 0b                	je     4053a8 <register_tm_clones+0x38>
  40539d:	5d                   	pop    %rbp
  40539e:	bf 18 33 61 00       	mov    $0x613318,%edi
  4053a3:	ff e0                	jmpq   *%rax
  4053a5:	0f 1f 00             	nopl   (%rax)
  4053a8:	5d                   	pop    %rbp
  4053a9:	c3                   	retq   
  4053aa:	66 0f 1f 44 00 00    	nopw   0x0(%rax,%rax,1)

00000000004053b0 <__do_global_dtors_aux>:
  4053b0:	80 3d 31 e0 20 00 00 	cmpb   $0x0,0x20e031(%rip)        # 6133e8 <completed.7583>
  4053b7:	75 11                	jne    4053ca <__do_global_dtors_aux+0x1a>
  4053b9:	55                   	push   %rbp
  4053ba:	48 89 e5             	mov    %rsp,%rbp
  4053bd:	e8 6e ff ff ff       	callq  405330 <deregister_tm_clones>
  4053c2:	5d                   	pop    %rbp
  4053c3:	c6 05 1e e0 20 00 01 	movb   $0x1,0x20e01e(%rip)        # 6133e8 <completed.7583>
  4053ca:	f3 c3                	repz retq 
  4053cc:	0f 1f 40 00          	nopl   0x0(%rax)

00000000004053d0 <frame_dummy>:
  4053d0:	bf d0 2d 61 00       	mov    $0x612dd0,%edi
  4053d5:	48 83 3f 00          	cmpq   $0x0,(%rdi)
  4053d9:	75 05                	jne    4053e0 <frame_dummy+0x10>
  4053db:	eb 93                	jmp    405370 <register_tm_clones>
  4053dd:	0f 1f 00             	nopl   (%rax)
  4053e0:	b8 00 00 00 00       	mov    $0x0,%eax
  4053e5:	48 85 c0             	test   %rax,%rax
  4053e8:	74 f1                	je     4053db <frame_dummy+0xb>
  4053ea:	55                   	push   %rbp
  4053eb:	48 89 e5             	mov    %rsp,%rbp
  4053ee:	ff d0                	callq  *%rax
  4053f0:	5d                   	pop    %rbp
  4053f1:	e9 7a ff ff ff       	jmpq   405370 <register_tm_clones>

00000000004053f6 <_ZN2CK16store_setup_timeEf>:
  4053f6:	55                   	push   %rbp
  4053f7:	48 89 e5             	mov    %rsp,%rbp
  4053fa:	48 83 ec 10          	sub    $0x10,%rsp
  4053fe:	f3 0f 11 45 fc       	movss  %xmm0,-0x4(%rbp)
  405403:	8b 45 fc             	mov    -0x4(%rbp),%eax
  405406:	89 45 f8             	mov    %eax,-0x8(%rbp)
  405409:	f3 0f 10 45 f8       	movss  -0x8(%rbp),%xmm0
  40540e:	be 83 d3 40 00       	mov    $0x40d383,%esi
  405413:	bf 0a 00 00 00       	mov    $0xa,%edi
  405418:	e8 f5 0d 00 00       	callq  406212 <_ZN2CK13store_value_fEiPKcf>
  40541d:	90                   	nop
  40541e:	c9                   	leaveq 
  40541f:	c3                   	retq   

0000000000405420 <_ZN2CK15store_test_timeEf>:
  405420:	55                   	push   %rbp
  405421:	48 89 e5             	mov    %rsp,%rbp
  405424:	48 83 ec 10          	sub    $0x10,%rsp
  405428:	f3 0f 11 45 fc       	movss  %xmm0,-0x4(%rbp)
  40542d:	8b 45 fc             	mov    -0x4(%rbp),%eax
  405430:	89 45 f8             	mov    %eax,-0x8(%rbp)
  405433:	f3 0f 10 45 f8       	movss  -0x8(%rbp),%xmm0
  405438:	be 8e d3 40 00       	mov    $0x40d38e,%esi
  40543d:	bf 0b 00 00 00       	mov    $0xb,%edi
  405442:	e8 cb 0d 00 00       	callq  406212 <_ZN2CK13store_value_fEiPKcf>
  405447:	90                   	nop
  405448:	c9                   	leaveq 
  405449:	c3                   	retq   

000000000040544a <main>:
  40544a:	55                   	push   %rbp
  40544b:	48 89 e5             	mov    %rsp,%rbp
  40544e:	bf 00 00 00 00       	mov    $0x0,%edi
  405453:	e8 ad 03 00 00       	callq  405805 <_ZN5caffe5Caffe8set_modeENS0_4BrewE>
  405458:	bf 00 00 00 00       	mov    $0x0,%edi
  40545d:	e8 59 11 00 00       	callq  4065bb <_ZN2CK5Caffe16test_convolutionEb>
  405462:	b8 00 00 00 00       	mov    $0x0,%eax
  405467:	5d                   	pop    %rbp
  405468:	c3                   	retq   

0000000000405469 <_Z41__static_initialization_and_destruction_0ii>:
  405469:	55                   	push   %rbp
  40546a:	48 89 e5             	mov    %rsp,%rbp
  40546d:	48 83 ec 10          	sub    $0x10,%rsp
  405471:	89 7d fc             	mov    %edi,-0x4(%rbp)
  405474:	89 75 f8             	mov    %esi,-0x8(%rbp)
  405477:	83 7d fc 01          	cmpl   $0x1,-0x4(%rbp)
  40547b:	75 27                	jne    4054a4 <_Z41__static_initialization_and_destruction_0ii+0x3b>
  40547d:	81 7d f8 ff ff 00 00 	cmpl   $0xffff,-0x8(%rbp)
  405484:	75 1e                	jne    4054a4 <_Z41__static_initialization_and_destruction_0ii+0x3b>
  405486:	bf e9 33 61 00       	mov    $0x6133e9,%edi
  40548b:	e8 e0 fc ff ff       	callq  405170 <_ZNSt8ios_base4InitC1Ev@plt>
  405490:	ba 10 33 61 00       	mov    $0x613310,%edx
  405495:	be e9 33 61 00       	mov    $0x6133e9,%esi
  40549a:	bf c0 4f 40 00       	mov    $0x404fc0,%edi
  40549f:	e8 2c fc ff ff       	callq  4050d0 <__cxa_atexit@plt>
  4054a4:	90                   	nop
  4054a5:	c9                   	leaveq 
  4054a6:	c3                   	retq   

00000000004054a7 <_GLOBAL__sub_I__ZN2CK16store_setup_timeEf>:
  4054a7:	55                   	push   %rbp
  4054a8:	48 89 e5             	mov    %rsp,%rbp
  4054ab:	be ff ff 00 00       	mov    $0xffff,%esi
  4054b0:	bf 01 00 00 00       	mov    $0x1,%edi
  4054b5:	e8 af ff ff ff       	callq  405469 <_Z41__static_initialization_and_destruction_0ii>
  4054ba:	5d                   	pop    %rbp
  4054bb:	c3                   	retq   

00000000004054bc <_ZnwmPv>:
  4054bc:	55                   	push   %rbp
  4054bd:	48 89 e5             	mov    %rsp,%rbp
  4054c0:	48 89 7d f8          	mov    %rdi,-0x8(%rbp)
  4054c4:	48 89 75 f0          	mov    %rsi,-0x10(%rbp)
  4054c8:	48 8b 45 f0          	mov    -0x10(%rbp),%rax
  4054cc:	5d                   	pop    %rbp
  4054cd:	c3                   	retq   

00000000004054ce <_ZdlPvS_>:
  4054ce:	55                   	push   %rbp
  4054cf:	48 89 e5             	mov    %rsp,%rbp
  4054d2:	48 89 7d f8          	mov    %rdi,-0x8(%rbp)
  4054d6:	48 89 75 f0          	mov    %rsi,-0x10(%rbp)
  4054da:	90                   	nop
  4054db:	5d                   	pop    %rbp
  4054dc:	c3                   	retq   
  4054dd:	90                   	nop

00000000004054de <_ZNSt8iteratorISt26random_access_iterator_tagblPbRbEC1Ev>:
  4054de:	55                   	push   %rbp
  4054df:	48 89 e5             	mov    %rsp,%rbp
  4054e2:	48 89 7d f8          	mov    %rdi,-0x8(%rbp)
  4054e6:	90                   	nop
  4054e7:	5d                   	pop    %rbp
  4054e8:	c3                   	retq   
  4054e9:	90                   	nop

00000000004054ea <_ZNSt18_Bit_iterator_baseC1EPmj>:
  4054ea:	55                   	push   %rbp
  4054eb:	48 89 e5             	mov    %rsp,%rbp
  4054ee:	48 83 ec 20          	sub    $0x20,%rsp
  4054f2:	48 89 7d f8          	mov    %rdi,-0x8(%rbp)
  4054f6:	48 89 75 f0          	mov    %rsi,-0x10(%rbp)
  4054fa:	89 55 ec             	mov    %edx,-0x14(%rbp)
  4054fd:	48 8b 45 f8          	mov    -0x8(%rbp),%rax
  405501:	48 89 c7             	mov    %rax,%rdi
  405504:	e8 d5 ff ff ff       	callq  4054de <_ZNSt8iteratorISt26random_access_iterator_tagblPbRbEC1Ev>
  405509:	48 8b 45 f8          	mov    -0x8(%rbp),%rax
  40550d:	48 8b 55 f0          	mov    -0x10(%rbp),%rdx
  405511:	48 89 10             	mov    %rdx,(%rax)
  405514:	48 8b 45 f8          	mov    -0x8(%rbp),%rax
  405518:	8b 55 ec             	mov    -0x14(%rbp),%edx
  40551b:	89 50 08             	mov    %edx,0x8(%rax)
  40551e:	90                   	nop
  40551f:	c9                   	leaveq 
  405520:	c3                   	retq   
  405521:	90                   	nop

0000000000405522 <_ZNSt13_Bit_iteratorC1Ev>:
  405522:	55                   	push   %rbp
  405523:	48 89 e5             	mov    %rsp,%rbp
  405526:	48 83 ec 10          	sub    $0x10,%rsp
  40552a:	48 89 7d f8          	mov    %rdi,-0x8(%rbp)
  40552e:	48 8b 45 f8          	mov    -0x8(%rbp),%rax
  405532:	ba 00 00 00 00       	mov    $0x0,%edx
  405537:	be 00 00 00 00       	mov    $0x0,%esi
  40553c:	48 89 c7             	mov    %rax,%rdi
  40553f:	e8 a6 ff ff ff       	callq  4054ea <_ZNSt18_Bit_iterator_baseC1EPmj>
  405544:	90                   	nop
  405545:	c9                   	leaveq 
  405546:	c3                   	retq   

0000000000405547 <_ZN5boost6detail23atomic_exchange_and_addEPii>:
  405547:	55                   	push   %rbp
  405548:	48 89 e5             	mov    %rsp,%rbp
  40554b:	48 89 7d e8          	mov    %rdi,-0x18(%rbp)
  40554f:	89 75 e4             	mov    %esi,-0x1c(%rbp)
  405552:	48 8b 55 e8          	mov    -0x18(%rbp),%rdx
  405556:	48 8b 4d e8          	mov    -0x18(%rbp),%rcx
  40555a:	8b 45 e4             	mov    -0x1c(%rbp),%eax
  40555d:	f0 0f c1 02          	lock xadd %eax,(%rdx)
  405561:	89 45 fc             	mov    %eax,-0x4(%rbp)
  405564:	8b 45 fc             	mov    -0x4(%rbp),%eax
  405567:	5d                   	pop    %rbp
  405568:	c3                   	retq   
  405569:	90                   	nop

000000000040556a <_ZN5boost6detail15sp_counted_baseC1Ev>:
  40556a:	55                   	push   %rbp
  40556b:	48 89 e5             	mov    %rsp,%rbp
  40556e:	48 89 7d f8          	mov    %rdi,-0x8(%rbp)
  405572:	ba 18 df 40 00       	mov    $0x40df18,%edx
  405577:	48 8b 45 f8          	mov    -0x8(%rbp),%rax
  40557b:	48 89 10             	mov    %rdx,(%rax)
  40557e:	48 8b 45 f8          	mov    -0x8(%rbp),%rax
  405582:	c7 40 08 01 00 00 00 	movl   $0x1,0x8(%rax)
  405589:	48 8b 45 f8          	mov    -0x8(%rbp),%rax
  40558d:	c7 40 0c 01 00 00 00 	movl   $0x1,0xc(%rax)
  405594:	90                   	nop
  405595:	5d                   	pop    %rbp
  405596:	c3                   	retq   
  405597:	90                   	nop

0000000000405598 <_ZN5boost6detail15sp_counted_baseD1Ev>:
  405598:	55                   	push   %rbp
  405599:	48 89 e5             	mov    %rsp,%rbp
  40559c:	48 89 7d f8          	mov    %rdi,-0x8(%rbp)
  4055a0:	ba 18 df 40 00       	mov    $0x40df18,%edx
  4055a5:	48 8b 45 f8          	mov    -0x8(%rbp),%rax
  4055a9:	48 89 10             	mov    %rdx,(%rax)
  4055ac:	90                   	nop
  4055ad:	5d                   	pop    %rbp
  4055ae:	c3                   	retq   
  4055af:	90                   	nop

00000000004055b0 <_ZN5boost6detail15sp_counted_baseD0Ev>:
  4055b0:	55                   	push   %rbp
  4055b1:	48 89 e5             	mov    %rsp,%rbp
  4055b4:	48 83 ec 10          	sub    $0x10,%rsp
  4055b8:	48 89 7d f8          	mov    %rdi,-0x8(%rbp)
  4055bc:	48 8b 45 f8          	mov    -0x8(%rbp),%rax
  4055c0:	48 89 c7             	mov    %rax,%rdi
  4055c3:	e8 d0 ff ff ff       	callq  405598 <_ZN5boost6detail15sp_counted_baseD1Ev>
  4055c8:	48 8b 45 f8          	mov    -0x8(%rbp),%rax
  4055cc:	48 89 c7             	mov    %rax,%rdi
  4055cf:	e8 4c f9 ff ff       	callq  404f20 <_ZdlPv@plt>
  4055d4:	c9                   	leaveq 
  4055d5:	c3                   	retq   

00000000004055d6 <_ZN5boost6detail15sp_counted_base7destroyEv>:
  4055d6:	55                   	push   %rbp
  4055d7:	48 89 e5             	mov    %rsp,%rbp
  4055da:	48 83 ec 10          	sub    $0x10,%rsp
  4055de:	48 89 7d f8          	mov    %rdi,-0x8(%rbp)
  4055e2:	48 83 7d f8 00       	cmpq   $0x0,-0x8(%rbp)
  4055e7:	74 17                	je     405600 <_ZN5boost6detail15sp_counted_base7destroyEv+0x2a>
  4055e9:	48 8b 45 f8          	mov    -0x8(%rbp),%rax
  4055ed:	48 8b 00             	mov    (%rax),%rax
  4055f0:	48 83 c0 08          	add    $0x8,%rax
  4055f4:	48 8b 00             	mov    (%rax),%rax
  4055f7:	48 8b 55 f8          	mov    -0x8(%rbp),%rdx
  4055fb:	48 89 d7             	mov    %rdx,%rdi
  4055fe:	ff d0                	callq  *%rax
  405600:	90                   	nop
  405601:	c9                   	leaveq 
  405602:	c3                   	retq   
  405603:	90                   	nop

0000000000405604 <_ZN5boost6detail15sp_counted_base7releaseEv>:
  405604:	55                   	push   %rbp
  405605:	48 89 e5             	mov    %rsp,%rbp
  405608:	48 83 ec 10          	sub    $0x10,%rsp
  40560c:	48 89 7d f8          	mov    %rdi,-0x8(%rbp)
  405610:	48 8b 45 f8          	mov    -0x8(%rbp),%rax
  405614:	48 83 c0 08          	add    $0x8,%rax
  405618:	be ff ff ff ff       	mov    $0xffffffff,%esi
  40561d:	48 89 c7             	mov    %rax,%rdi
  405620:	e8 22 ff ff ff       	callq  405547 <_ZN5boost6detail23atomic_exchange_and_addEPii>
  405625:	83 f8 01             	cmp    $0x1,%eax
  405628:	0f 94 c0             	sete   %al
  40562b:	84 c0                	test   %al,%al
  40562d:	74 23                	je     405652 <_ZN5boost6detail15sp_counted_base7releaseEv+0x4e>
  40562f:	48 8b 45 f8          	mov    -0x8(%rbp),%rax
  405633:	48 8b 00             	mov    (%rax),%rax
  405636:	48 83 c0 10          	add    $0x10,%rax
  40563a:	48 8b 00             	mov    (%rax),%rax
  40563d:	48 8b 55 f8          	mov    -0x8(%rbp),%rdx
  405641:	48 89 d7             	mov    %rdx,%rdi
  405644:	ff d0                	callq  *%rax
  405646:	48 8b 45 f8          	mov    -0x8(%rbp),%rax
  40564a:	48 89 c7             	mov    %rax,%rdi
  40564d:	e8 04 00 00 00       	callq  405656 <_ZN5boost6detail15sp_counted_base12weak_releaseEv>
  405652:	90                   	nop
  405653:	c9                   	leaveq 
  405654:	c3                   	retq   
  405655:	90                   	nop

0000000000405656 <_ZN5boost6detail15sp_counted_base12weak_releaseEv>:
  405656:	55                   	push   %rbp
  405657:	48 89 e5             	mov    %rsp,%rbp
  40565a:	48 83 ec 10          	sub    $0x10,%rsp
  40565e:	48 89 7d f8          	mov    %rdi,-0x8(%rbp)
  405662:	48 8b 45 f8          	mov    -0x8(%rbp),%rax
  405666:	48 83 c0 0c          	add    $0xc,%rax
  40566a:	be ff ff ff ff       	mov    $0xffffffff,%esi
  40566f:	48 89 c7             	mov    %rax,%rdi
  405672:	e8 d0 fe ff ff       	callq  405547 <_ZN5boost6detail23atomic_exchange_and_addEPii>
  405677:	83 f8 01             	cmp    $0x1,%eax
  40567a:	0f 94 c0             	sete   %al
  40567d:	84 c0                	test   %al,%al
  40567f:	74 17                	je     405698 <_ZN5boost6detail15sp_counted_base12weak_releaseEv+0x42>
  405681:	48 8b 45 f8          	mov    -0x8(%rbp),%rax
  405685:	48 8b 00             	mov    (%rax),%rax
  405688:	48 83 c0 18          	add    $0x18,%rax
  40568c:	48 8b 00             	mov    (%rax),%rax
  40568f:	48 8b 55 f8          	mov    -0x8(%rbp),%rdx
  405693:	48 89 d7             	mov    %rdx,%rdi
  405696:	ff d0                	callq  *%rax
  405698:	90                   	nop
  405699:	c9                   	leaveq 
  40569a:	c3                   	retq   
  40569b:	90                   	nop

000000000040569c <_ZN5boost6detail12shared_countC1Ev>:
  40569c:	55                   	push   %rbp
  40569d:	48 89 e5             	mov    %rsp,%rbp
  4056a0:	48 89 7d f8          	mov    %rdi,-0x8(%rbp)
  4056a4:	48 8b 45 f8          	mov    -0x8(%rbp),%rax
  4056a8:	48 c7 00 00 00 00 00 	movq   $0x0,(%rax)
  4056af:	90                   	nop
  4056b0:	5d                   	pop    %rbp
  4056b1:	c3                   	retq   

00000000004056b2 <_ZN5boost6detail12shared_countD1Ev>:
  4056b2:	55                   	push   %rbp
  4056b3:	48 89 e5             	mov    %rsp,%rbp
  4056b6:	48 83 ec 10          	sub    $0x10,%rsp
  4056ba:	48 89 7d f8          	mov    %rdi,-0x8(%rbp)
  4056be:	48 8b 45 f8          	mov    -0x8(%rbp),%rax
  4056c2:	48 8b 00             	mov    (%rax),%rax
  4056c5:	48 85 c0             	test   %rax,%rax
  4056c8:	74 0f                	je     4056d9 <_ZN5boost6detail12shared_countD1Ev+0x27>
  4056ca:	48 8b 45 f8          	mov    -0x8(%rbp),%rax
  4056ce:	48 8b 00             	mov    (%rax),%rax
  4056d1:	48 89 c7             	mov    %rax,%rdi
  4056d4:	e8 2b ff ff ff       	callq  405604 <_ZN5boost6detail15sp_counted_base7releaseEv>
  4056d9:	90                   	nop
  4056da:	c9                   	leaveq 
  4056db:	c3                   	retq   

00000000004056dc <_ZN5boost6detail12shared_count4swapERS1_>:
  4056dc:	55                   	push   %rbp
  4056dd:	48 89 e5             	mov    %rsp,%rbp
  4056e0:	48 89 7d e8          	mov    %rdi,-0x18(%rbp)
  4056e4:	48 89 75 e0          	mov    %rsi,-0x20(%rbp)
  4056e8:	48 8b 45 e0          	mov    -0x20(%rbp),%rax
  4056ec:	48 8b 00             	mov    (%rax),%rax
  4056ef:	48 89 45 f8          	mov    %rax,-0x8(%rbp)
  4056f3:	48 8b 45 e8          	mov    -0x18(%rbp),%rax
  4056f7:	48 8b 10             	mov    (%rax),%rdx
  4056fa:	48 8b 45 e0          	mov    -0x20(%rbp),%rax
  4056fe:	48 89 10             	mov    %rdx,(%rax)
  405701:	48 8b 45 e8          	mov    -0x18(%rbp),%rax
  405705:	48 8b 55 f8          	mov    -0x8(%rbp),%rdx
  405709:	48 89 10             	mov    %rdx,(%rax)
  40570c:	90                   	nop
  40570d:	5d                   	pop    %rbp
  40570e:	c3                   	retq   

000000000040570f <_ZN5boost6detail26sp_enable_shared_from_thisEz>:
  40570f:	55                   	push   %rbp
  405710:	48 89 e5             	mov    %rsp,%rbp
  405713:	90                   	nop
  405714:	5d                   	pop    %rbp
  405715:	c3                   	retq   

0000000000405716 <_ZN6google13CheckOpStringC1EPNSt7__cxx1112basic_stringIcSt11char_traitsIcESaIcEEE>:
  405716:	55                   	push   %rbp
  405717:	48 89 e5             	mov    %rsp,%rbp
  40571a:	48 89 7d f8          	mov    %rdi,-0x8(%rbp)
  40571e:	48 89 75 f0          	mov    %rsi,-0x10(%rbp)
  405722:	48 8b 45 f8          	mov    -0x8(%rbp),%rax
  405726:	48 8b 55 f0          	mov    -0x10(%rbp),%rdx
  40572a:	48 89 10             	mov    %rdx,(%rax)
  40572d:	90                   	nop
  40572e:	5d                   	pop    %rbp
  40572f:	c3                   	retq   

0000000000405730 <_ZN6google21GetReferenceableValueEi>:
  405730:	55                   	push   %rbp
  405731:	48 89 e5             	mov    %rsp,%rbp
  405734:	89 7d fc             	mov    %edi,-0x4(%rbp)
  405737:	8b 45 fc             	mov    -0x4(%rbp),%eax
  40573a:	5d                   	pop    %rbp
  40573b:	c3                   	retq   

000000000040573c <_ZN6google21GetReferenceableValueEm>:
  40573c:	55                   	push   %rbp
  40573d:	48 89 e5             	mov    %rsp,%rbp
  405740:	48 89 7d f8          	mov    %rdi,-0x8(%rbp)
  405744:	48 8b 45 f8          	mov    -0x8(%rbp),%rax
  405748:	5d                   	pop    %rbp
  405749:	c3                   	retq   

000000000040574a <_ZN6google4base21CheckOpMessageBuilder7ForVar1Ev>:
  40574a:	55                   	push   %rbp
  40574b:	48 89 e5             	mov    %rsp,%rbp
  40574e:	48 89 7d f8          	mov    %rdi,-0x8(%rbp)
  405752:	48 8b 45 f8          	mov    -0x8(%rbp),%rax
  405756:	48 8b 00             	mov    (%rax),%rax
  405759:	5d                   	pop    %rbp
  40575a:	c3                   	retq   

000000000040575b <_ZN6google12Check_LEImplB5cxx11EiiPKc>:
  40575b:	55                   	push   %rbp
  40575c:	48 89 e5             	mov    %rsp,%rbp
  40575f:	48 83 ec 10          	sub    $0x10,%rsp
  405763:	89 7d fc             	mov    %edi,-0x4(%rbp)
  405766:	89 75 f8             	mov    %esi,-0x8(%rbp)
  405769:	48 89 55 f0          	mov    %rdx,-0x10(%rbp)
  40576d:	48 8b 55 f0          	mov    -0x10(%rbp),%rdx
  405771:	48 8d 4d f8          	lea    -0x8(%rbp),%rcx
  405775:	48 8d 45 fc          	lea    -0x4(%rbp),%rax
  405779:	48 89 ce             	mov    %rcx,%rsi
  40577c:	48 89 c7             	mov    %rax,%rdi
  40577f:	e8 7a 14 00 00       	callq  406bfe <_ZN6google12Check_LEImplIiiEEPNSt7__cxx1112basic_stringIcSt11char_traitsIcESaIcEEERKT_RKT0_PKc>
  405784:	c9                   	leaveq 
  405785:	c3                   	retq   

0000000000405786 <_ZN6google12Check_LTImplB5cxx11EiiPKc>:
  405786:	55                   	push   %rbp
  405787:	48 89 e5             	mov    %rsp,%rbp
  40578a:	48 83 ec 10          	sub    $0x10,%rsp
  40578e:	89 7d fc             	mov    %edi,-0x4(%rbp)
  405791:	89 75 f8             	mov    %esi,-0x8(%rbp)
  405794:	48 89 55 f0          	mov    %rdx,-0x10(%rbp)
  405798:	48 8b 55 f0          	mov    -0x10(%rbp),%rdx
  40579c:	48 8d 4d f8          	lea    -0x8(%rbp),%rcx
  4057a0:	48 8d 45 fc          	lea    -0x4(%rbp),%rax
  4057a4:	48 89 ce             	mov    %rcx,%rsi
  4057a7:	48 89 c7             	mov    %rax,%rdi
  4057aa:	e8 9c 14 00 00       	callq  406c4b <_ZN6google12Check_LTImplIiiEEPNSt7__cxx1112basic_stringIcSt11char_traitsIcESaIcEEERKT_RKT0_PKc>
  4057af:	c9                   	leaveq 
  4057b0:	c3                   	retq   

00000000004057b1 <_ZN6google12Check_GEImplB5cxx11EiiPKc>:
  4057b1:	55                   	push   %rbp
  4057b2:	48 89 e5             	mov    %rsp,%rbp
  4057b5:	48 83 ec 10          	sub    $0x10,%rsp
  4057b9:	89 7d fc             	mov    %edi,-0x4(%rbp)
  4057bc:	89 75 f8             	mov    %esi,-0x8(%rbp)
  4057bf:	48 89 55 f0          	mov    %rdx,-0x10(%rbp)
  4057c3:	48 8b 55 f0          	mov    -0x10(%rbp),%rdx
  4057c7:	48 8d 4d f8          	lea    -0x8(%rbp),%rcx
  4057cb:	48 8d 45 fc          	lea    -0x4(%rbp),%rax
  4057cf:	48 89 ce             	mov    %rcx,%rsi
  4057d2:	48 89 c7             	mov    %rax,%rdi
  4057d5:	e8 be 14 00 00       	callq  406c98 <_ZN6google12Check_GEImplIiiEEPNSt7__cxx1112basic_stringIcSt11char_traitsIcESaIcEEERKT_RKT0_PKc>
  4057da:	c9                   	leaveq 
  4057db:	c3                   	retq   

00000000004057dc <_ZN6google17LogMessageVoidifyC1Ev>:
  4057dc:	55                   	push   %rbp
  4057dd:	48 89 e5             	mov    %rsp,%rbp
  4057e0:	48 89 7d f8          	mov    %rdi,-0x8(%rbp)
  4057e4:	90                   	nop
  4057e5:	5d                   	pop    %rbp
  4057e6:	c3                   	retq   
  4057e7:	90                   	nop

00000000004057e8 <_ZN6google17LogMessageVoidifyanERSo>:
  4057e8:	55                   	push   %rbp
  4057e9:	48 89 e5             	mov    %rsp,%rbp
  4057ec:	48 89 7d f8          	mov    %rdi,-0x8(%rbp)
  4057f0:	48 89 75 f0          	mov    %rsi,-0x10(%rbp)
  4057f4:	90                   	nop
  4057f5:	5d                   	pop    %rbp
  4057f6:	c3                   	retq   

00000000004057f7 <_ZN5caffe5Caffe4modeEv>:
  4057f7:	55                   	push   %rbp
  4057f8:	48 89 e5             	mov    %rsp,%rbp
  4057fb:	e8 b0 f8 ff ff       	callq  4050b0 <_ZN5caffe5Caffe3GetEv@plt>
  405800:	8b 40 10             	mov    0x10(%rax),%eax
  405803:	5d                   	pop    %rbp
  405804:	c3                   	retq   

0000000000405805 <_ZN5caffe5Caffe8set_modeENS0_4BrewE>:
  405805:	55                   	push   %rbp
  405806:	48 89 e5             	mov    %rsp,%rbp
  405809:	48 83 ec 10          	sub    $0x10,%rsp
  40580d:	89 7d fc             	mov    %edi,-0x4(%rbp)
  405810:	e8 9b f8 ff ff       	callq  4050b0 <_ZN5caffe5Caffe3GetEv@plt>
  405815:	48 89 c2             	mov    %rax,%rdx
  405818:	8b 45 fc             	mov    -0x4(%rbp),%eax
  40581b:	89 42 10             	mov    %eax,0x10(%rdx)
  40581e:	90                   	nop
  40581f:	c9                   	leaveq 
  405820:	c3                   	retq   
  405821:	90                   	nop

0000000000405822 <_ZN6google8protobuf8internal14ArenaStringPtr10SetNoArenaEPKNSt7__cxx1112basic_stringIcSt11char_traitsIcESaIcEEERS9_>:
  405822:	55                   	push   %rbp
  405823:	48 89 e5             	mov    %rsp,%rbp
  405826:	48 83 ec 20          	sub    $0x20,%rsp
  40582a:	48 89 7d f8          	mov    %rdi,-0x8(%rbp)
  40582e:	48 89 75 f0          	mov    %rsi,-0x10(%rbp)
  405832:	48 89 55 e8          	mov    %rdx,-0x18(%rbp)
  405836:	48 8b 45 f8          	mov    -0x8(%rbp),%rax
  40583a:	48 8b 00             	mov    (%rax),%rax
  40583d:	48 3b 45 f0          	cmp    -0x10(%rbp),%rax
  405841:	75 15                	jne    405858 <_ZN6google8protobuf8internal14ArenaStringPtr10SetNoArenaEPKNSt7__cxx1112basic_stringIcSt11char_traitsIcESaIcEEERS9_+0x36>
  405843:	48 8b 55 e8          	mov    -0x18(%rbp),%rdx
  405847:	48 8b 45 f8          	mov    -0x8(%rbp),%rax
  40584b:	48 89 d6             	mov    %rdx,%rsi
  40584e:	48 89 c7             	mov    %rax,%rdi
  405851:	e8 1c 00 00 00       	callq  405872 <_ZN6google8protobuf8internal14ArenaStringPtr21CreateInstanceNoArenaEPKNSt7__cxx1112basic_stringIcSt11char_traitsIcESaIcEEE>
  405856:	eb 16                	jmp    40586e <_ZN6google8protobuf8internal14ArenaStringPtr10SetNoArenaEPKNSt7__cxx1112basic_stringIcSt11char_traitsIcESaIcEEERS9_+0x4c>
  405858:	48 8b 45 f8          	mov    -0x8(%rbp),%rax
  40585c:	48 8b 00             	mov    (%rax),%rax
  40585f:	48 8b 55 e8          	mov    -0x18(%rbp),%rdx
  405863:	48 89 d6             	mov    %rdx,%rsi
  405866:	48 89 c7             	mov    %rax,%rdi
  405869:	e8 c2 f9 ff ff       	callq  405230 <_ZNSt7__cxx1112basic_stringIcSt11char_traitsIcESaIcEEaSERKS4_@plt>
  40586e:	90                   	nop
  40586f:	c9                   	leaveq 
  405870:	c3                   	retq   
  405871:	90                   	nop

0000000000405872 <_ZN6google8protobuf8internal14ArenaStringPtr21CreateInstanceNoArenaEPKNSt7__cxx1112basic_stringIcSt11char_traitsIcESaIcEEE>:
  405872:	55                   	push   %rbp
  405873:	48 89 e5             	mov    %rsp,%rbp
  405876:	41 54                	push   %r12
  405878:	53                   	push   %rbx
  405879:	48 83 ec 10          	sub    $0x10,%rsp
  40587d:	48 89 7d e8          	mov    %rdi,-0x18(%rbp)
  405881:	48 89 75 e0          	mov    %rsi,-0x20(%rbp)
  405885:	48 83 7d e0 00       	cmpq   $0x0,-0x20(%rbp)
  40588a:	74 25                	je     4058b1 <_ZN6google8protobuf8internal14ArenaStringPtr21CreateInstanceNoArenaEPKNSt7__cxx1112basic_stringIcSt11char_traitsIcESaIcEEE+0x3f>
  40588c:	bf 20 00 00 00       	mov    $0x20,%edi
  405891:	e8 1a f5 ff ff       	callq  404db0 <_Znwm@plt>
  405896:	48 89 c3             	mov    %rax,%rbx
  405899:	48 8b 45 e0          	mov    -0x20(%rbp),%rax
  40589d:	48 89 c6             	mov    %rax,%rsi
  4058a0:	48 89 df             	mov    %rbx,%rdi
  4058a3:	e8 f8 f4 ff ff       	callq  404da0 <_ZNSt7__cxx1112basic_stringIcSt11char_traitsIcESaIcEEC1ERKS4_@plt>
  4058a8:	48 8b 45 e8          	mov    -0x18(%rbp),%rax
  4058ac:	48 89 18             	mov    %rbx,(%rax)
  4058af:	eb 34                	jmp    4058e5 <_ZN6google8protobuf8internal14ArenaStringPtr21CreateInstanceNoArenaEPKNSt7__cxx1112basic_stringIcSt11char_traitsIcESaIcEEE+0x73>
  4058b1:	bf 20 00 00 00       	mov    $0x20,%edi
  4058b6:	e8 f5 f4 ff ff       	callq  404db0 <_Znwm@plt>
  4058bb:	48 89 c3             	mov    %rax,%rbx
  4058be:	48 89 df             	mov    %rbx,%rdi
  4058c1:	e8 ca f5 ff ff       	callq  404e90 <_ZNSt7__cxx1112basic_stringIcSt11char_traitsIcESaIcEEC1Ev@plt>
  4058c6:	48 8b 45 e8          	mov    -0x18(%rbp),%rax
  4058ca:	48 89 18             	mov    %rbx,(%rax)
  4058cd:	eb 16                	jmp    4058e5 <_ZN6google8protobuf8internal14ArenaStringPtr21CreateInstanceNoArenaEPKNSt7__cxx1112basic_stringIcSt11char_traitsIcESaIcEEE+0x73>
  4058cf:	49 89 c4             	mov    %rax,%r12
  4058d2:	48 89 df             	mov    %rbx,%rdi
  4058d5:	e8 46 f6 ff ff       	callq  404f20 <_ZdlPv@plt>
  4058da:	4c 89 e0             	mov    %r12,%rax
  4058dd:	48 89 c7             	mov    %rax,%rdi
  4058e0:	e8 cb f6 ff ff       	callq  404fb0 <_Unwind_Resume@plt>
  4058e5:	48 83 c4 10          	add    $0x10,%rsp
  4058e9:	5b                   	pop    %rbx
  4058ea:	41 5c                	pop    %r12
  4058ec:	5d                   	pop    %rbp
  4058ed:	c3                   	retq   

00000000004058ee <_ZNK6google8protobuf8internal20RepeatedPtrFieldBase4sizeEv>:
  4058ee:	55                   	push   %rbp
  4058ef:	48 89 e5             	mov    %rsp,%rbp
  4058f2:	48 89 7d f8          	mov    %rdi,-0x8(%rbp)
  4058f6:	48 8b 45 f8          	mov    -0x8(%rbp),%rax
  4058fa:	8b 40 08             	mov    0x8(%rax),%eax
  4058fd:	5d                   	pop    %rbp
  4058fe:	c3                   	retq   
  4058ff:	90                   	nop

0000000000405900 <_ZN5caffe15FillerParameter12set_has_typeEv>:
  405900:	55                   	push   %rbp
  405901:	48 89 e5             	mov    %rsp,%rbp
  405904:	48 89 7d e8          	mov    %rdi,-0x18(%rbp)
  405908:	48 8b 45 e8          	mov    -0x18(%rbp),%rax
  40590c:	48 83 c0 10          	add    $0x10,%rax
  405910:	48 89 45 f8          	mov    %rax,-0x8(%rbp)
  405914:	c7 45 f4 00 00 00 00 	movl   $0x0,-0xc(%rbp)
  40591b:	8b 45 f4             	mov    -0xc(%rbp),%eax
  40591e:	48 98                	cltq   
  405920:	48 8d 14 85 00 00 00 	lea    0x0(,%rax,4),%rdx
  405927:	00 
  405928:	48 8b 45 f8          	mov    -0x8(%rbp),%rax
  40592c:	48 01 d0             	add    %rdx,%rax
  40592f:	8b 10                	mov    (%rax),%edx
  405931:	83 ca 01             	or     $0x1,%edx
  405934:	89 10                	mov    %edx,(%rax)
  405936:	90                   	nop
  405937:	5d                   	pop    %rbp
  405938:	c3                   	retq   
  405939:	90                   	nop

000000000040593a <_ZN5caffe15FillerParameter8set_typeEPKc>:
  40593a:	55                   	push   %rbp
  40593b:	48 89 e5             	mov    %rsp,%rbp
  40593e:	53                   	push   %rbx
  40593f:	48 83 ec 58          	sub    $0x58,%rsp
  405943:	48 89 7d a8          	mov    %rdi,-0x58(%rbp)
  405947:	48 89 75 a0          	mov    %rsi,-0x60(%rbp)
  40594b:	64 48 8b 04 25 28 00 	mov    %fs:0x28,%rax
  405952:	00 00 
  405954:	48 89 45 e8          	mov    %rax,-0x18(%rbp)
  405958:	31 c0                	xor    %eax,%eax
  40595a:	48 8b 45 a8          	mov    -0x58(%rbp),%rax
  40595e:	48 89 c7             	mov    %rax,%rdi
  405961:	e8 9a ff ff ff       	callq  405900 <_ZN5caffe15FillerParameter12set_has_typeEv>
  405966:	48 8d 45 bf          	lea    -0x41(%rbp),%rax
  40596a:	48 89 c7             	mov    %rax,%rdi
  40596d:	e8 ce f7 ff ff       	callq  405140 <_ZNSaIcEC1Ev@plt>
  405972:	48 8d 55 bf          	lea    -0x41(%rbp),%rdx
  405976:	48 8b 4d a0          	mov    -0x60(%rbp),%rcx
  40597a:	48 8d 45 c0          	lea    -0x40(%rbp),%rax
  40597e:	48 89 ce             	mov    %rcx,%rsi
  405981:	48 89 c7             	mov    %rax,%rdi
  405984:	e8 17 f7 ff ff       	callq  4050a0 <_ZNSt7__cxx1112basic_stringIcSt11char_traitsIcESaIcEEC1EPKcRKS3_@plt>
  405989:	48 8b 05 38 da 20 00 	mov    0x20da38(%rip),%rax        # 6133c8 <_ZN5caffe15FillerParameter14_default_type_B5cxx11E>
  405990:	48 8b 55 a8          	mov    -0x58(%rbp),%rdx
  405994:	48 8d 4a 18          	lea    0x18(%rdx),%rcx
  405998:	48 8d 55 c0          	lea    -0x40(%rbp),%rdx
  40599c:	48 89 c6             	mov    %rax,%rsi
  40599f:	48 89 cf             	mov    %rcx,%rdi
  4059a2:	e8 7b fe ff ff       	callq  405822 <_ZN6google8protobuf8internal14ArenaStringPtr10SetNoArenaEPKNSt7__cxx1112basic_stringIcSt11char_traitsIcESaIcEEERS9_>
  4059a7:	48 8d 45 c0          	lea    -0x40(%rbp),%rax
  4059ab:	48 89 c7             	mov    %rax,%rdi
  4059ae:	e8 7d f6 ff ff       	callq  405030 <_ZNSt7__cxx1112basic_stringIcSt11char_traitsIcESaIcEED1Ev@plt>
  4059b3:	48 8d 45 bf          	lea    -0x41(%rbp),%rax
  4059b7:	48 89 c7             	mov    %rax,%rdi
  4059ba:	e8 21 f9 ff ff       	callq  4052e0 <_ZNSaIcED1Ev@plt>
  4059bf:	90                   	nop
  4059c0:	48 8b 45 e8          	mov    -0x18(%rbp),%rax
  4059c4:	64 48 33 04 25 28 00 	xor    %fs:0x28,%rax
  4059cb:	00 00 
  4059cd:	74 32                	je     405a01 <_ZN5caffe15FillerParameter8set_typeEPKc+0xc7>
  4059cf:	eb 2b                	jmp    4059fc <_ZN5caffe15FillerParameter8set_typeEPKc+0xc2>
  4059d1:	48 89 c3             	mov    %rax,%rbx
  4059d4:	48 8d 45 c0          	lea    -0x40(%rbp),%rax
  4059d8:	48 89 c7             	mov    %rax,%rdi
  4059db:	e8 50 f6 ff ff       	callq  405030 <_ZNSt7__cxx1112basic_stringIcSt11char_traitsIcESaIcEED1Ev@plt>
  4059e0:	eb 03                	jmp    4059e5 <_ZN5caffe15FillerParameter8set_typeEPKc+0xab>
  4059e2:	48 89 c3             	mov    %rax,%rbx
  4059e5:	48 8d 45 bf          	lea    -0x41(%rbp),%rax
  4059e9:	48 89 c7             	mov    %rax,%rdi
  4059ec:	e8 ef f8 ff ff       	callq  4052e0 <_ZNSaIcED1Ev@plt>
  4059f1:	48 89 d8             	mov    %rbx,%rax
  4059f4:	48 89 c7             	mov    %rax,%rdi
  4059f7:	e8 b4 f5 ff ff       	callq  404fb0 <_Unwind_Resume@plt>
  4059fc:	e8 1f f4 ff ff       	callq  404e20 <__stack_chk_fail@plt>
  405a01:	48 83 c4 58          	add    $0x58,%rsp
  405a05:	5b                   	pop    %rbx
  405a06:	5d                   	pop    %rbp
  405a07:	c3                   	retq   

0000000000405a08 <_ZN5caffe15FillerParameter13set_has_valueEv>:
  405a08:	55                   	push   %rbp
  405a09:	48 89 e5             	mov    %rsp,%rbp
  405a0c:	48 89 7d e8          	mov    %rdi,-0x18(%rbp)
  405a10:	48 8b 45 e8          	mov    -0x18(%rbp),%rax
  405a14:	48 83 c0 10          	add    $0x10,%rax
  405a18:	48 89 45 f8          	mov    %rax,-0x8(%rbp)
  405a1c:	c7 45 f4 00 00 00 00 	movl   $0x0,-0xc(%rbp)
  405a23:	8b 45 f4             	mov    -0xc(%rbp),%eax
  405a26:	48 98                	cltq   
  405a28:	48 8d 14 85 00 00 00 	lea    0x0(,%rax,4),%rdx
  405a2f:	00 
  405a30:	48 8b 45 f8          	mov    -0x8(%rbp),%rax
  405a34:	48 01 d0             	add    %rdx,%rax
  405a37:	8b 10                	mov    (%rax),%edx
  405a39:	83 ca 02             	or     $0x2,%edx
  405a3c:	89 10                	mov    %edx,(%rax)
  405a3e:	90                   	nop
  405a3f:	5d                   	pop    %rbp
  405a40:	c3                   	retq   
  405a41:	90                   	nop

0000000000405a42 <_ZN5caffe15FillerParameter9set_valueEf>:
  405a42:	55                   	push   %rbp
  405a43:	48 89 e5             	mov    %rsp,%rbp
  405a46:	48 83 ec 10          	sub    $0x10,%rsp
  405a4a:	48 89 7d f8          	mov    %rdi,-0x8(%rbp)
  405a4e:	f3 0f 11 45 f4       	movss  %xmm0,-0xc(%rbp)
  405a53:	48 8b 45 f8          	mov    -0x8(%rbp),%rax
  405a57:	48 89 c7             	mov    %rax,%rdi
  405a5a:	e8 a9 ff ff ff       	callq  405a08 <_ZN5caffe15FillerParameter13set_has_valueEv>
  405a5f:	48 8b 45 f8          	mov    -0x8(%rbp),%rax
  405a63:	f3 0f 10 45 f4       	movss  -0xc(%rbp),%xmm0
  405a68:	f3 0f 11 40 20       	movss  %xmm0,0x20(%rax)
  405a6d:	90                   	nop
  405a6e:	c9                   	leaveq 
  405a6f:	c3                   	retq   

0000000000405a70 <_ZNK5caffe14LayerParameter5phaseEv>:
  405a70:	55                   	push   %rbp
  405a71:	48 89 e5             	mov    %rsp,%rbp
  405a74:	48 89 7d f8          	mov    %rdi,-0x8(%rbp)
  405a78:	48 8b 45 f8          	mov    -0x8(%rbp),%rax
  405a7c:	8b 80 50 02 00 00    	mov    0x250(%rax),%eax
  405a82:	5d                   	pop    %rbp
  405a83:	c3                   	retq   

0000000000405a84 <_ZNK5caffe14LayerParameter16loss_weight_sizeEv>:
  405a84:	55                   	push   %rbp
  405a85:	48 89 e5             	mov    %rsp,%rbp
  405a88:	48 83 ec 10          	sub    $0x10,%rsp
  405a8c:	48 89 7d f8          	mov    %rdi,-0x8(%rbp)
  405a90:	48 8b 45 f8          	mov    -0x8(%rbp),%rax
  405a94:	48 83 c0 48          	add    $0x48,%rax
  405a98:	48 89 c7             	mov    %rax,%rdi
  405a9b:	e8 46 12 00 00       	callq  406ce6 <_ZNK6google8protobuf13RepeatedFieldIfE4sizeEv>
  405aa0:	c9                   	leaveq 
  405aa1:	c3                   	retq   

0000000000405aa2 <_ZNK5caffe14LayerParameter11loss_weightEi>:
  405aa2:	55                   	push   %rbp
  405aa3:	48 89 e5             	mov    %rsp,%rbp
  405aa6:	48 83 ec 10          	sub    $0x10,%rsp
  405aaa:	48 89 7d f8          	mov    %rdi,-0x8(%rbp)
  405aae:	89 75 f4             	mov    %esi,-0xc(%rbp)
  405ab1:	48 8b 45 f8          	mov    -0x8(%rbp),%rax
  405ab5:	48 8d 50 48          	lea    0x48(%rax),%rdx
  405ab9:	8b 45 f4             	mov    -0xc(%rbp),%eax
  405abc:	89 c6                	mov    %eax,%esi
  405abe:	48 89 d7             	mov    %rdx,%rdi
  405ac1:	e8 30 12 00 00       	callq  406cf6 <_ZNK6google8protobuf13RepeatedFieldIfE3GetEi>
  405ac6:	f3 0f 10 00          	movss  (%rax),%xmm0
  405aca:	c9                   	leaveq 
  405acb:	c3                   	retq   

0000000000405acc <_ZNK5caffe14LayerParameter10blobs_sizeEv>:
  405acc:	55                   	push   %rbp
  405acd:	48 89 e5             	mov    %rsp,%rbp
  405ad0:	48 83 ec 10          	sub    $0x10,%rsp
  405ad4:	48 89 7d f8          	mov    %rdi,-0x8(%rbp)
  405ad8:	48 8b 45 f8          	mov    -0x8(%rbp),%rax
  405adc:	48 83 c0 70          	add    $0x70,%rax
  405ae0:	48 89 c7             	mov    %rax,%rdi
  405ae3:	e8 c6 13 00 00       	callq  406eae <_ZNK6google8protobuf16RepeatedPtrFieldIN5caffe9BlobProtoEE4sizeEv>
  405ae8:	c9                   	leaveq 
  405ae9:	c3                   	retq   

0000000000405aea <_ZN5caffe14LayerParameter11clear_blobsEv>:
  405aea:	55                   	push   %rbp
  405aeb:	48 89 e5             	mov    %rsp,%rbp
  405aee:	48 83 ec 10          	sub    $0x10,%rsp
  405af2:	48 89 7d f8          	mov    %rdi,-0x8(%rbp)
  405af6:	48 8b 45 f8          	mov    -0x8(%rbp),%rax
  405afa:	48 83 c0 70          	add    $0x70,%rax
  405afe:	48 89 c7             	mov    %rax,%rdi
  405b01:	e8 c2 13 00 00       	callq  406ec8 <_ZN6google8protobuf16RepeatedPtrFieldIN5caffe9BlobProtoEE5ClearEv>
  405b06:	90                   	nop
  405b07:	c9                   	leaveq 
  405b08:	c3                   	retq   
  405b09:	90                   	nop

0000000000405b0a <_ZNK5caffe14LayerParameter5blobsEi>:
  405b0a:	55                   	push   %rbp
  405b0b:	48 89 e5             	mov    %rsp,%rbp
  405b0e:	48 83 ec 10          	sub    $0x10,%rsp
  405b12:	48 89 7d f8          	mov    %rdi,-0x8(%rbp)
  405b16:	89 75 f4             	mov    %esi,-0xc(%rbp)
  405b19:	48 8b 45 f8          	mov    -0x8(%rbp),%rax
  405b1d:	48 8d 50 70          	lea    0x70(%rax),%rdx
  405b21:	8b 45 f4             	mov    -0xc(%rbp),%eax
  405b24:	89 c6                	mov    %eax,%esi
  405b26:	48 89 d7             	mov    %rdx,%rdi
  405b29:	e8 b6 13 00 00       	callq  406ee4 <_ZNK6google8protobuf16RepeatedPtrFieldIN5caffe9BlobProtoEE3GetEi>
  405b2e:	c9                   	leaveq 
  405b2f:	c3                   	retq   

0000000000405b30 <_ZN5caffe14LayerParameter9add_blobsEv>:
  405b30:	55                   	push   %rbp
  405b31:	48 89 e5             	mov    %rsp,%rbp
  405b34:	48 83 ec 10          	sub    $0x10,%rsp
  405b38:	48 89 7d f8          	mov    %rdi,-0x8(%rbp)
  405b3c:	48 8b 45 f8          	mov    -0x8(%rbp),%rax
  405b40:	48 83 c0 70          	add    $0x70,%rax
  405b44:	48 89 c7             	mov    %rax,%rdi
  405b47:	e8 ba 13 00 00       	callq  406f06 <_ZN6google8protobuf16RepeatedPtrFieldIN5caffe9BlobProtoEE3AddEv>
  405b4c:	c9                   	leaveq 
  405b4d:	c3                   	retq   

0000000000405b4e <_ZN5caffe14LayerParameter25set_has_convolution_paramEv>:
  405b4e:	55                   	push   %rbp
  405b4f:	48 89 e5             	mov    %rsp,%rbp
  405b52:	48 89 7d e8          	mov    %rdi,-0x18(%rbp)
  405b56:	48 8b 45 e8          	mov    -0x18(%rbp),%rax
  405b5a:	48 83 c0 10          	add    $0x10,%rax
  405b5e:	48 89 45 f8          	mov    %rax,-0x8(%rbp)
  405b62:	c7 45 f4 00 00 00 00 	movl   $0x0,-0xc(%rbp)
  405b69:	8b 45 f4             	mov    -0xc(%rbp),%eax
  405b6c:	48 98                	cltq   
  405b6e:	48 8d 14 85 00 00 00 	lea    0x0(,%rax,4),%rdx
  405b75:	00 
  405b76:	48 8b 45 f8          	mov    -0x8(%rbp),%rax
  405b7a:	48 01 d0             	add    %rdx,%rax
  405b7d:	8b 10                	mov    (%rax),%edx
  405b7f:	81 ca 00 00 08 00    	or     $0x80000,%edx
  405b85:	89 10                	mov    %edx,(%rax)
  405b87:	90                   	nop
  405b88:	5d                   	pop    %rbp
  405b89:	c3                   	retq   

0000000000405b8a <_ZN5caffe14LayerParameter25mutable_convolution_paramEv>:
  405b8a:	55                   	push   %rbp
  405b8b:	48 89 e5             	mov    %rsp,%rbp
  405b8e:	41 54                	push   %r12
  405b90:	53                   	push   %rbx
  405b91:	48 83 ec 10          	sub    $0x10,%rsp
  405b95:	48 89 7d e8          	mov    %rdi,-0x18(%rbp)
  405b99:	48 8b 45 e8          	mov    -0x18(%rbp),%rax
  405b9d:	48 89 c7             	mov    %rax,%rdi
  405ba0:	e8 a9 ff ff ff       	callq  405b4e <_ZN5caffe14LayerParameter25set_has_convolution_paramEv>
  405ba5:	48 8b 45 e8          	mov    -0x18(%rbp),%rax
  405ba9:	48 8b 80 18 01 00 00 	mov    0x118(%rax),%rax
  405bb0:	48 85 c0             	test   %rax,%rax
  405bb3:	75 20                	jne    405bd5 <_ZN5caffe14LayerParameter25mutable_convolution_paramEv+0x4b>
  405bb5:	bf 98 00 00 00       	mov    $0x98,%edi
  405bba:	e8 f1 f1 ff ff       	callq  404db0 <_Znwm@plt>
  405bbf:	48 89 c3             	mov    %rax,%rbx
  405bc2:	48 89 df             	mov    %rbx,%rdi
  405bc5:	e8 26 f2 ff ff       	callq  404df0 <_ZN5caffe20ConvolutionParameterC1Ev@plt>
  405bca:	48 8b 45 e8          	mov    -0x18(%rbp),%rax
  405bce:	48 89 98 18 01 00 00 	mov    %rbx,0x118(%rax)
  405bd5:	48 8b 45 e8          	mov    -0x18(%rbp),%rax
  405bd9:	48 8b 80 18 01 00 00 	mov    0x118(%rax),%rax
  405be0:	eb 16                	jmp    405bf8 <_ZN5caffe14LayerParameter25mutable_convolution_paramEv+0x6e>
  405be2:	49 89 c4             	mov    %rax,%r12
  405be5:	48 89 df             	mov    %rbx,%rdi
  405be8:	e8 33 f3 ff ff       	callq  404f20 <_ZdlPv@plt>
  405bed:	4c 89 e0             	mov    %r12,%rax
  405bf0:	48 89 c7             	mov    %rax,%rdi
  405bf3:	e8 b8 f3 ff ff       	callq  404fb0 <_Unwind_Resume@plt>
  405bf8:	48 83 c4 10          	add    $0x10,%rsp
  405bfc:	5b                   	pop    %rbx
  405bfd:	41 5c                	pop    %r12
  405bff:	5d                   	pop    %rbp
  405c00:	c3                   	retq   
  405c01:	90                   	nop

0000000000405c02 <_ZN5caffe20ConvolutionParameter18set_has_num_outputEv>:
  405c02:	55                   	push   %rbp
  405c03:	48 89 e5             	mov    %rsp,%rbp
  405c06:	48 89 7d e8          	mov    %rdi,-0x18(%rbp)
  405c0a:	48 8b 45 e8          	mov    -0x18(%rbp),%rax
  405c0e:	48 83 c0 10          	add    $0x10,%rax
  405c12:	48 89 45 f8          	mov    %rax,-0x8(%rbp)
  405c16:	c7 45 f4 00 00 00 00 	movl   $0x0,-0xc(%rbp)
  405c1d:	8b 45 f4             	mov    -0xc(%rbp),%eax
  405c20:	48 98                	cltq   
  405c22:	48 8d 14 85 00 00 00 	lea    0x0(,%rax,4),%rdx
  405c29:	00 
  405c2a:	48 8b 45 f8          	mov    -0x8(%rbp),%rax
  405c2e:	48 01 d0             	add    %rdx,%rax
  405c31:	8b 10                	mov    (%rax),%edx
  405c33:	83 ca 01             	or     $0x1,%edx
  405c36:	89 10                	mov    %edx,(%rax)
  405c38:	90                   	nop
  405c39:	5d                   	pop    %rbp
  405c3a:	c3                   	retq   
  405c3b:	90                   	nop

0000000000405c3c <_ZN5caffe20ConvolutionParameter14set_num_outputEj>:
  405c3c:	55                   	push   %rbp
  405c3d:	48 89 e5             	mov    %rsp,%rbp
  405c40:	48 83 ec 10          	sub    $0x10,%rsp
  405c44:	48 89 7d f8          	mov    %rdi,-0x8(%rbp)
  405c48:	89 75 f4             	mov    %esi,-0xc(%rbp)
  405c4b:	48 8b 45 f8          	mov    -0x8(%rbp),%rax
  405c4f:	48 89 c7             	mov    %rax,%rdi
  405c52:	e8 ab ff ff ff       	callq  405c02 <_ZN5caffe20ConvolutionParameter18set_has_num_outputEv>
  405c57:	48 8b 45 f8          	mov    -0x8(%rbp),%rax
  405c5b:	8b 55 f4             	mov    -0xc(%rbp),%edx
  405c5e:	89 50 68             	mov    %edx,0x68(%rax)
  405c61:	90                   	nop
  405c62:	c9                   	leaveq 
  405c63:	c3                   	retq   

0000000000405c64 <_ZN5caffe20ConvolutionParameter13set_has_pad_hEv>:
  405c64:	55                   	push   %rbp
  405c65:	48 89 e5             	mov    %rsp,%rbp
  405c68:	48 89 7d e8          	mov    %rdi,-0x18(%rbp)
  405c6c:	48 8b 45 e8          	mov    -0x18(%rbp),%rax
  405c70:	48 83 c0 10          	add    $0x10,%rax
  405c74:	48 89 45 f8          	mov    %rax,-0x8(%rbp)
  405c78:	c7 45 f4 00 00 00 00 	movl   $0x0,-0xc(%rbp)
  405c7f:	8b 45 f4             	mov    -0xc(%rbp),%eax
  405c82:	48 98                	cltq   
  405c84:	48 8d 14 85 00 00 00 	lea    0x0(,%rax,4),%rdx
  405c8b:	00 
  405c8c:	48 8b 45 f8          	mov    -0x8(%rbp),%rax
  405c90:	48 01 d0             	add    %rdx,%rax
  405c93:	8b 10                	mov    (%rax),%edx
  405c95:	83 ca 40             	or     $0x40,%edx
  405c98:	89 10                	mov    %edx,(%rax)
  405c9a:	90                   	nop
  405c9b:	5d                   	pop    %rbp
  405c9c:	c3                   	retq   
  405c9d:	90                   	nop

0000000000405c9e <_ZN5caffe20ConvolutionParameter9set_pad_hEj>:
  405c9e:	55                   	push   %rbp
  405c9f:	48 89 e5             	mov    %rsp,%rbp
  405ca2:	48 83 ec 10          	sub    $0x10,%rsp
  405ca6:	48 89 7d f8          	mov    %rdi,-0x8(%rbp)
  405caa:	89 75 f4             	mov    %esi,-0xc(%rbp)
  405cad:	48 8b 45 f8          	mov    -0x8(%rbp),%rax
  405cb1:	48 89 c7             	mov    %rax,%rdi
  405cb4:	e8 ab ff ff ff       	callq  405c64 <_ZN5caffe20ConvolutionParameter13set_has_pad_hEv>
  405cb9:	48 8b 45 f8          	mov    -0x8(%rbp),%rax
  405cbd:	8b 55 f4             	mov    -0xc(%rbp),%edx
  405cc0:	89 50 6c             	mov    %edx,0x6c(%rax)
  405cc3:	90                   	nop
  405cc4:	c9                   	leaveq 
  405cc5:	c3                   	retq   

0000000000405cc6 <_ZN5caffe20ConvolutionParameter13set_has_pad_wEv>:
  405cc6:	55                   	push   %rbp
  405cc7:	48 89 e5             	mov    %rsp,%rbp
  405cca:	48 89 7d e8          	mov    %rdi,-0x18(%rbp)
  405cce:	48 8b 45 e8          	mov    -0x18(%rbp),%rax
  405cd2:	48 83 c0 10          	add    $0x10,%rax
  405cd6:	48 89 45 f8          	mov    %rax,-0x8(%rbp)
  405cda:	c7 45 f4 00 00 00 00 	movl   $0x0,-0xc(%rbp)
  405ce1:	8b 45 f4             	mov    -0xc(%rbp),%eax
  405ce4:	48 98                	cltq   
  405ce6:	48 8d 14 85 00 00 00 	lea    0x0(,%rax,4),%rdx
  405ced:	00 
  405cee:	48 8b 45 f8          	mov    -0x8(%rbp),%rax
  405cf2:	48 01 d0             	add    %rdx,%rax
  405cf5:	8b 10                	mov    (%rax),%edx
  405cf7:	80 ca 80             	or     $0x80,%dl
  405cfa:	89 10                	mov    %edx,(%rax)
  405cfc:	90                   	nop
  405cfd:	5d                   	pop    %rbp
  405cfe:	c3                   	retq   
  405cff:	90                   	nop

0000000000405d00 <_ZN5caffe20ConvolutionParameter9set_pad_wEj>:
  405d00:	55                   	push   %rbp
  405d01:	48 89 e5             	mov    %rsp,%rbp
  405d04:	48 83 ec 10          	sub    $0x10,%rsp
  405d08:	48 89 7d f8          	mov    %rdi,-0x8(%rbp)
  405d0c:	89 75 f4             	mov    %esi,-0xc(%rbp)
  405d0f:	48 8b 45 f8          	mov    -0x8(%rbp),%rax
  405d13:	48 89 c7             	mov    %rax,%rdi
  405d16:	e8 ab ff ff ff       	callq  405cc6 <_ZN5caffe20ConvolutionParameter13set_has_pad_wEv>
  405d1b:	48 8b 45 f8          	mov    -0x8(%rbp),%rax
  405d1f:	8b 55 f4             	mov    -0xc(%rbp),%edx
  405d22:	89 50 70             	mov    %edx,0x70(%rax)
  405d25:	90                   	nop
  405d26:	c9                   	leaveq 
  405d27:	c3                   	retq   

0000000000405d28 <_ZN5caffe20ConvolutionParameter16set_has_kernel_hEv>:
  405d28:	55                   	push   %rbp
  405d29:	48 89 e5             	mov    %rsp,%rbp
  405d2c:	48 89 7d e8          	mov    %rdi,-0x18(%rbp)
  405d30:	48 8b 45 e8          	mov    -0x18(%rbp),%rax
  405d34:	48 83 c0 10          	add    $0x10,%rax
  405d38:	48 89 45 f8          	mov    %rax,-0x8(%rbp)
  405d3c:	c7 45 f4 00 00 00 00 	movl   $0x0,-0xc(%rbp)
  405d43:	8b 45 f4             	mov    -0xc(%rbp),%eax
  405d46:	48 98                	cltq   
  405d48:	48 8d 14 85 00 00 00 	lea    0x0(,%rax,4),%rdx
  405d4f:	00 
  405d50:	48 8b 45 f8          	mov    -0x8(%rbp),%rax
  405d54:	48 01 d0             	add    %rdx,%rax
  405d57:	8b 10                	mov    (%rax),%edx
  405d59:	80 ce 01             	or     $0x1,%dh
  405d5c:	89 10                	mov    %edx,(%rax)
  405d5e:	90                   	nop
  405d5f:	5d                   	pop    %rbp
  405d60:	c3                   	retq   
  405d61:	90                   	nop

0000000000405d62 <_ZN5caffe20ConvolutionParameter12set_kernel_hEj>:
  405d62:	55                   	push   %rbp
  405d63:	48 89 e5             	mov    %rsp,%rbp
  405d66:	48 83 ec 10          	sub    $0x10,%rsp
  405d6a:	48 89 7d f8          	mov    %rdi,-0x8(%rbp)
  405d6e:	89 75 f4             	mov    %esi,-0xc(%rbp)
  405d71:	48 8b 45 f8          	mov    -0x8(%rbp),%rax
  405d75:	48 89 c7             	mov    %rax,%rdi
  405d78:	e8 ab ff ff ff       	callq  405d28 <_ZN5caffe20ConvolutionParameter16set_has_kernel_hEv>
  405d7d:	48 8b 45 f8          	mov    -0x8(%rbp),%rax
  405d81:	8b 55 f4             	mov    -0xc(%rbp),%edx
  405d84:	89 50 74             	mov    %edx,0x74(%rax)
  405d87:	90                   	nop
  405d88:	c9                   	leaveq 
  405d89:	c3                   	retq   

0000000000405d8a <_ZN5caffe20ConvolutionParameter16set_has_kernel_wEv>:
  405d8a:	55                   	push   %rbp
  405d8b:	48 89 e5             	mov    %rsp,%rbp
  405d8e:	48 89 7d e8          	mov    %rdi,-0x18(%rbp)
  405d92:	48 8b 45 e8          	mov    -0x18(%rbp),%rax
  405d96:	48 83 c0 10          	add    $0x10,%rax
  405d9a:	48 89 45 f8          	mov    %rax,-0x8(%rbp)
  405d9e:	c7 45 f4 00 00 00 00 	movl   $0x0,-0xc(%rbp)
  405da5:	8b 45 f4             	mov    -0xc(%rbp),%eax
  405da8:	48 98                	cltq   
  405daa:	48 8d 14 85 00 00 00 	lea    0x0(,%rax,4),%rdx
  405db1:	00 
  405db2:	48 8b 45 f8          	mov    -0x8(%rbp),%rax
  405db6:	48 01 d0             	add    %rdx,%rax
  405db9:	8b 10                	mov    (%rax),%edx
  405dbb:	80 ce 02             	or     $0x2,%dh
  405dbe:	89 10                	mov    %edx,(%rax)
  405dc0:	90                   	nop
  405dc1:	5d                   	pop    %rbp
  405dc2:	c3                   	retq   
  405dc3:	90                   	nop

0000000000405dc4 <_ZN5caffe20ConvolutionParameter12set_kernel_wEj>:
  405dc4:	55                   	push   %rbp
  405dc5:	48 89 e5             	mov    %rsp,%rbp
  405dc8:	48 83 ec 10          	sub    $0x10,%rsp
  405dcc:	48 89 7d f8          	mov    %rdi,-0x8(%rbp)
  405dd0:	89 75 f4             	mov    %esi,-0xc(%rbp)
  405dd3:	48 8b 45 f8          	mov    -0x8(%rbp),%rax
  405dd7:	48 89 c7             	mov    %rax,%rdi
  405dda:	e8 ab ff ff ff       	callq  405d8a <_ZN5caffe20ConvolutionParameter16set_has_kernel_wEv>
  405ddf:	48 8b 45 f8          	mov    -0x8(%rbp),%rax
  405de3:	8b 55 f4             	mov    -0xc(%rbp),%edx
  405de6:	89 50 78             	mov    %edx,0x78(%rax)
  405de9:	90                   	nop
  405dea:	c9                   	leaveq 
  405deb:	c3                   	retq   

0000000000405dec <_ZN5caffe20ConvolutionParameter16set_has_stride_hEv>:
  405dec:	55                   	push   %rbp
  405ded:	48 89 e5             	mov    %rsp,%rbp
  405df0:	48 89 7d e8          	mov    %rdi,-0x18(%rbp)
  405df4:	48 8b 45 e8          	mov    -0x18(%rbp),%rax
  405df8:	48 83 c0 10          	add    $0x10,%rax
  405dfc:	48 89 45 f8          	mov    %rax,-0x8(%rbp)
  405e00:	c7 45 f4 00 00 00 00 	movl   $0x0,-0xc(%rbp)
  405e07:	8b 45 f4             	mov    -0xc(%rbp),%eax
  405e0a:	48 98                	cltq   
  405e0c:	48 8d 14 85 00 00 00 	lea    0x0(,%rax,4),%rdx
  405e13:	00 
  405e14:	48 8b 45 f8          	mov    -0x8(%rbp),%rax
  405e18:	48 01 d0             	add    %rdx,%rax
  405e1b:	8b 10                	mov    (%rax),%edx
  405e1d:	80 ce 04             	or     $0x4,%dh
  405e20:	89 10                	mov    %edx,(%rax)
  405e22:	90                   	nop
  405e23:	5d                   	pop    %rbp
  405e24:	c3                   	retq   
  405e25:	90                   	nop

0000000000405e26 <_ZN5caffe20ConvolutionParameter12set_stride_hEj>:
  405e26:	55                   	push   %rbp
  405e27:	48 89 e5             	mov    %rsp,%rbp
  405e2a:	48 83 ec 10          	sub    $0x10,%rsp
  405e2e:	48 89 7d f8          	mov    %rdi,-0x8(%rbp)
  405e32:	89 75 f4             	mov    %esi,-0xc(%rbp)
  405e35:	48 8b 45 f8          	mov    -0x8(%rbp),%rax
  405e39:	48 89 c7             	mov    %rax,%rdi
  405e3c:	e8 ab ff ff ff       	callq  405dec <_ZN5caffe20ConvolutionParameter16set_has_stride_hEv>
  405e41:	48 8b 45 f8          	mov    -0x8(%rbp),%rax
  405e45:	8b 55 f4             	mov    -0xc(%rbp),%edx
  405e48:	89 50 7c             	mov    %edx,0x7c(%rax)
  405e4b:	90                   	nop
  405e4c:	c9                   	leaveq 
  405e4d:	c3                   	retq   

0000000000405e4e <_ZN5caffe20ConvolutionParameter16set_has_stride_wEv>:
  405e4e:	55                   	push   %rbp
  405e4f:	48 89 e5             	mov    %rsp,%rbp
  405e52:	48 89 7d e8          	mov    %rdi,-0x18(%rbp)
  405e56:	48 8b 45 e8          	mov    -0x18(%rbp),%rax
  405e5a:	48 83 c0 10          	add    $0x10,%rax
  405e5e:	48 89 45 f8          	mov    %rax,-0x8(%rbp)
  405e62:	c7 45 f4 00 00 00 00 	movl   $0x0,-0xc(%rbp)
  405e69:	8b 45 f4             	mov    -0xc(%rbp),%eax
  405e6c:	48 98                	cltq   
  405e6e:	48 8d 14 85 00 00 00 	lea    0x0(,%rax,4),%rdx
  405e75:	00 
  405e76:	48 8b 45 f8          	mov    -0x8(%rbp),%rax
  405e7a:	48 01 d0             	add    %rdx,%rax
  405e7d:	8b 10                	mov    (%rax),%edx
  405e7f:	80 ce 08             	or     $0x8,%dh
  405e82:	89 10                	mov    %edx,(%rax)
  405e84:	90                   	nop
  405e85:	5d                   	pop    %rbp
  405e86:	c3                   	retq   
  405e87:	90                   	nop

0000000000405e88 <_ZN5caffe20ConvolutionParameter12set_stride_wEj>:
  405e88:	55                   	push   %rbp
  405e89:	48 89 e5             	mov    %rsp,%rbp
  405e8c:	48 83 ec 10          	sub    $0x10,%rsp
  405e90:	48 89 7d f8          	mov    %rdi,-0x8(%rbp)
  405e94:	89 75 f4             	mov    %esi,-0xc(%rbp)
  405e97:	48 8b 45 f8          	mov    -0x8(%rbp),%rax
  405e9b:	48 89 c7             	mov    %rax,%rdi
  405e9e:	e8 ab ff ff ff       	callq  405e4e <_ZN5caffe20ConvolutionParameter16set_has_stride_wEv>
  405ea3:	48 8b 45 f8          	mov    -0x8(%rbp),%rax
  405ea7:	8b 55 f4             	mov    -0xc(%rbp),%edx
  405eaa:	89 90 80 00 00 00    	mov    %edx,0x80(%rax)
  405eb0:	90                   	nop
  405eb1:	c9                   	leaveq 
  405eb2:	c3                   	retq   
  405eb3:	90                   	nop

0000000000405eb4 <_ZN5caffe20ConvolutionParameter21set_has_weight_fillerEv>:
  405eb4:	55                   	push   %rbp
  405eb5:	48 89 e5             	mov    %rsp,%rbp
  405eb8:	48 89 7d e8          	mov    %rdi,-0x18(%rbp)
  405ebc:	48 8b 45 e8          	mov    -0x18(%rbp),%rax
  405ec0:	48 83 c0 10          	add    $0x10,%rax
  405ec4:	48 89 45 f8          	mov    %rax,-0x8(%rbp)
  405ec8:	c7 45 f4 00 00 00 00 	movl   $0x0,-0xc(%rbp)
  405ecf:	8b 45 f4             	mov    -0xc(%rbp),%eax
  405ed2:	48 98                	cltq   
  405ed4:	48 8d 14 85 00 00 00 	lea    0x0(,%rax,4),%rdx
  405edb:	00 
  405edc:	48 8b 45 f8          	mov    -0x8(%rbp),%rax
  405ee0:	48 01 d0             	add    %rdx,%rax
  405ee3:	8b 10                	mov    (%rax),%edx
  405ee5:	80 ce 20             	or     $0x20,%dh
  405ee8:	89 10                	mov    %edx,(%rax)
  405eea:	90                   	nop
  405eeb:	5d                   	pop    %rbp
  405eec:	c3                   	retq   
  405eed:	90                   	nop

0000000000405eee <_ZN5caffe20ConvolutionParameter21mutable_weight_fillerEv>:
  405eee:	55                   	push   %rbp
  405eef:	48 89 e5             	mov    %rsp,%rbp
  405ef2:	41 54                	push   %r12
  405ef4:	53                   	push   %rbx
  405ef5:	48 83 ec 10          	sub    $0x10,%rsp
  405ef9:	48 89 7d e8          	mov    %rdi,-0x18(%rbp)
  405efd:	48 8b 45 e8          	mov    -0x18(%rbp),%rax
  405f01:	48 89 c7             	mov    %rax,%rdi
  405f04:	e8 ab ff ff ff       	callq  405eb4 <_ZN5caffe20ConvolutionParameter21set_has_weight_fillerEv>
  405f09:	48 8b 45 e8          	mov    -0x18(%rbp),%rax
  405f0d:	48 8b 40 58          	mov    0x58(%rax),%rax
  405f11:	48 85 c0             	test   %rax,%rax
  405f14:	75 1d                	jne    405f33 <_ZN5caffe20ConvolutionParameter21mutable_weight_fillerEv+0x45>
  405f16:	bf 40 00 00 00       	mov    $0x40,%edi
  405f1b:	e8 90 ee ff ff       	callq  404db0 <_Znwm@plt>
  405f20:	48 89 c3             	mov    %rax,%rbx
  405f23:	48 89 df             	mov    %rbx,%rdi
  405f26:	e8 25 f3 ff ff       	callq  405250 <_ZN5caffe15FillerParameterC1Ev@plt>
  405f2b:	48 8b 45 e8          	mov    -0x18(%rbp),%rax
  405f2f:	48 89 58 58          	mov    %rbx,0x58(%rax)
  405f33:	48 8b 45 e8          	mov    -0x18(%rbp),%rax
  405f37:	48 8b 40 58          	mov    0x58(%rax),%rax
  405f3b:	eb 16                	jmp    405f53 <_ZN5caffe20ConvolutionParameter21mutable_weight_fillerEv+0x65>
  405f3d:	49 89 c4             	mov    %rax,%r12
  405f40:	48 89 df             	mov    %rbx,%rdi
  405f43:	e8 d8 ef ff ff       	callq  404f20 <_ZdlPv@plt>
  405f48:	4c 89 e0             	mov    %r12,%rax
  405f4b:	48 89 c7             	mov    %rax,%rdi
  405f4e:	e8 5d f0 ff ff       	callq  404fb0 <_Unwind_Resume@plt>
  405f53:	48 83 c4 10          	add    $0x10,%rsp
  405f57:	5b                   	pop    %rbx
  405f58:	41 5c                	pop    %r12
  405f5a:	5d                   	pop    %rbp
  405f5b:	c3                   	retq   

0000000000405f5c <_ZN5caffe20ConvolutionParameter19set_has_bias_fillerEv>:
  405f5c:	55                   	push   %rbp
  405f5d:	48 89 e5             	mov    %rsp,%rbp
  405f60:	48 89 7d e8          	mov    %rdi,-0x18(%rbp)
  405f64:	48 8b 45 e8          	mov    -0x18(%rbp),%rax
  405f68:	48 83 c0 10          	add    $0x10,%rax
  405f6c:	48 89 45 f8          	mov    %rax,-0x8(%rbp)
  405f70:	c7 45 f4 00 00 00 00 	movl   $0x0,-0xc(%rbp)
  405f77:	8b 45 f4             	mov    -0xc(%rbp),%eax
  405f7a:	48 98                	cltq   
  405f7c:	48 8d 14 85 00 00 00 	lea    0x0(,%rax,4),%rdx
  405f83:	00 
  405f84:	48 8b 45 f8          	mov    -0x8(%rbp),%rax
  405f88:	48 01 d0             	add    %rdx,%rax
  405f8b:	8b 10                	mov    (%rax),%edx
  405f8d:	80 ce 40             	or     $0x40,%dh
  405f90:	89 10                	mov    %edx,(%rax)
  405f92:	90                   	nop
  405f93:	5d                   	pop    %rbp
  405f94:	c3                   	retq   
  405f95:	90                   	nop

0000000000405f96 <_ZN5caffe20ConvolutionParameter19mutable_bias_fillerEv>:
  405f96:	55                   	push   %rbp
  405f97:	48 89 e5             	mov    %rsp,%rbp
  405f9a:	41 54                	push   %r12
  405f9c:	53                   	push   %rbx
  405f9d:	48 83 ec 10          	sub    $0x10,%rsp
  405fa1:	48 89 7d e8          	mov    %rdi,-0x18(%rbp)
  405fa5:	48 8b 45 e8          	mov    -0x18(%rbp),%rax
  405fa9:	48 89 c7             	mov    %rax,%rdi
  405fac:	e8 ab ff ff ff       	callq  405f5c <_ZN5caffe20ConvolutionParameter19set_has_bias_fillerEv>
  405fb1:	48 8b 45 e8          	mov    -0x18(%rbp),%rax
  405fb5:	48 8b 40 60          	mov    0x60(%rax),%rax
  405fb9:	48 85 c0             	test   %rax,%rax
  405fbc:	75 1d                	jne    405fdb <_ZN5caffe20ConvolutionParameter19mutable_bias_fillerEv+0x45>
  405fbe:	bf 40 00 00 00       	mov    $0x40,%edi
  405fc3:	e8 e8 ed ff ff       	callq  404db0 <_Znwm@plt>
  405fc8:	48 89 c3             	mov    %rax,%rbx
  405fcb:	48 89 df             	mov    %rbx,%rdi
  405fce:	e8 7d f2 ff ff       	callq  405250 <_ZN5caffe15FillerParameterC1Ev@plt>
  405fd3:	48 8b 45 e8          	mov    -0x18(%rbp),%rax
  405fd7:	48 89 58 60          	mov    %rbx,0x60(%rax)
  405fdb:	48 8b 45 e8          	mov    -0x18(%rbp),%rax
  405fdf:	48 8b 40 60          	mov    0x60(%rax),%rax
  405fe3:	eb 16                	jmp    405ffb <_ZN5caffe20ConvolutionParameter19mutable_bias_fillerEv+0x65>
  405fe5:	49 89 c4             	mov    %rax,%r12
  405fe8:	48 89 df             	mov    %rbx,%rdi
  405feb:	e8 30 ef ff ff       	callq  404f20 <_ZdlPv@plt>
  405ff0:	4c 89 e0             	mov    %r12,%rax
  405ff3:	48 89 c7             	mov    %rax,%rdi
  405ff6:	e8 b5 ef ff ff       	callq  404fb0 <_Unwind_Resume@plt>
  405ffb:	48 83 c4 10          	add    $0x10,%rsp
  405fff:	5b                   	pop    %rbx
  406000:	41 5c                	pop    %r12
  406002:	5d                   	pop    %rbp
  406003:	c3                   	retq   

0000000000406004 <_ZN5caffe20ConvolutionParameter23set_has_force_nd_im2colEv>:
  406004:	55                   	push   %rbp
  406005:	48 89 e5             	mov    %rsp,%rbp
  406008:	48 89 7d e8          	mov    %rdi,-0x18(%rbp)
  40600c:	48 8b 45 e8          	mov    -0x18(%rbp),%rax
  406010:	48 83 c0 10          	add    $0x10,%rax
  406014:	48 89 45 f8          	mov    %rax,-0x8(%rbp)
  406018:	c7 45 f4 00 00 00 00 	movl   $0x0,-0xc(%rbp)
  40601f:	8b 45 f4             	mov    -0xc(%rbp),%eax
  406022:	48 98                	cltq   
  406024:	48 8d 14 85 00 00 00 	lea    0x0(,%rax,4),%rdx
  40602b:	00 
  40602c:	48 8b 45 f8          	mov    -0x8(%rbp),%rax
  406030:	48 01 d0             	add    %rdx,%rax
  406033:	8b 10                	mov    (%rax),%edx
  406035:	81 ca 00 00 02 00    	or     $0x20000,%edx
  40603b:	89 10                	mov    %edx,(%rax)
  40603d:	90                   	nop
  40603e:	5d                   	pop    %rbp
  40603f:	c3                   	retq   

0000000000406040 <_ZN5caffe20ConvolutionParameter19set_force_nd_im2colEb>:
  406040:	55                   	push   %rbp
  406041:	48 89 e5             	mov    %rsp,%rbp
  406044:	48 83 ec 10          	sub    $0x10,%rsp
  406048:	48 89 7d f8          	mov    %rdi,-0x8(%rbp)
  40604c:	89 f0                	mov    %esi,%eax
  40604e:	88 45 f4             	mov    %al,-0xc(%rbp)
  406051:	48 8b 45 f8          	mov    -0x8(%rbp),%rax
  406055:	48 89 c7             	mov    %rax,%rdi
  406058:	e8 a7 ff ff ff       	callq  406004 <_ZN5caffe20ConvolutionParameter23set_has_force_nd_im2colEv>
  40605d:	48 8b 45 f8          	mov    -0x8(%rbp),%rax
  406061:	0f b6 55 f4          	movzbl -0xc(%rbp),%edx
  406065:	88 90 88 00 00 00    	mov    %dl,0x88(%rax)
  40606b:	90                   	nop
  40606c:	c9                   	leaveq 
  40606d:	c3                   	retq   

000000000040606e <_ZNK2CK5Shape10data_countEv>:
  40606e:	55                   	push   %rbp
  40606f:	48 89 e5             	mov    %rsp,%rbp
  406072:	48 89 7d f8          	mov    %rdi,-0x8(%rbp)
  406076:	48 8b 45 f8          	mov    -0x8(%rbp),%rax
  40607a:	8b 10                	mov    (%rax),%edx
  40607c:	48 8b 45 f8          	mov    -0x8(%rbp),%rax
  406080:	8b 40 04             	mov    0x4(%rax),%eax
  406083:	0f af d0             	imul   %eax,%edx
  406086:	48 8b 45 f8          	mov    -0x8(%rbp),%rax
  40608a:	8b 40 08             	mov    0x8(%rax),%eax
  40608d:	0f af d0             	imul   %eax,%edx
  406090:	48 8b 45 f8          	mov    -0x8(%rbp),%rax
  406094:	8b 40 0c             	mov    0xc(%rax),%eax
  406097:	0f af c2             	imul   %edx,%eax
  40609a:	5d                   	pop    %rbp
  40609b:	c3                   	retq   

000000000040609c <_ZNK2CK5Shape14get_flat_indexEiiii>:
  40609c:	55                   	push   %rbp
  40609d:	48 89 e5             	mov    %rsp,%rbp
  4060a0:	48 83 ec 20          	sub    $0x20,%rsp
  4060a4:	48 89 7d f8          	mov    %rdi,-0x8(%rbp)
  4060a8:	89 75 f4             	mov    %esi,-0xc(%rbp)
  4060ab:	89 55 f0             	mov    %edx,-0x10(%rbp)
  4060ae:	89 4d ec             	mov    %ecx,-0x14(%rbp)
  4060b1:	44 89 45 e8          	mov    %r8d,-0x18(%rbp)
  4060b5:	8b 7d e8             	mov    -0x18(%rbp),%edi
  4060b8:	8b 4d ec             	mov    -0x14(%rbp),%ecx
  4060bb:	8b 55 f0             	mov    -0x10(%rbp),%edx
  4060be:	8b 75 f4             	mov    -0xc(%rbp),%esi
  4060c1:	48 8b 45 f8          	mov    -0x8(%rbp),%rax
  4060c5:	41 89 f8             	mov    %edi,%r8d
  4060c8:	48 89 c7             	mov    %rax,%rdi
  4060cb:	e8 02 00 00 00       	callq  4060d2 <_ZNK2CK5Shape19get_flat_index_nchwEiiii>
  4060d0:	c9                   	leaveq 
  4060d1:	c3                   	retq   

00000000004060d2 <_ZNK2CK5Shape19get_flat_index_nchwEiiii>:
  4060d2:	55                   	push   %rbp
  4060d3:	48 89 e5             	mov    %rsp,%rbp
  4060d6:	48 89 7d f8          	mov    %rdi,-0x8(%rbp)
  4060da:	89 75 f4             	mov    %esi,-0xc(%rbp)
  4060dd:	89 55 f0             	mov    %edx,-0x10(%rbp)
  4060e0:	89 4d ec             	mov    %ecx,-0x14(%rbp)
  4060e3:	44 89 45 e8          	mov    %r8d,-0x18(%rbp)
  4060e7:	48 8b 45 f8          	mov    -0x8(%rbp),%rax
  4060eb:	8b 40 04             	mov    0x4(%rax),%eax
  4060ee:	0f af 45 f4          	imul   -0xc(%rbp),%eax
  4060f2:	89 c2                	mov    %eax,%edx
  4060f4:	8b 45 f0             	mov    -0x10(%rbp),%eax
  4060f7:	01 c2                	add    %eax,%edx
  4060f9:	48 8b 45 f8          	mov    -0x8(%rbp),%rax
  4060fd:	8b 40 08             	mov    0x8(%rax),%eax
  406100:	0f af d0             	imul   %eax,%edx
  406103:	8b 45 ec             	mov    -0x14(%rbp),%eax
  406106:	01 c2                	add    %eax,%edx
  406108:	48 8b 45 f8          	mov    -0x8(%rbp),%rax
  40610c:	8b 40 0c             	mov    0xc(%rax),%eax
  40610f:	0f af d0             	imul   %eax,%edx
  406112:	8b 45 e8             	mov    -0x18(%rbp),%eax
  406115:	01 d0                	add    %edx,%eax
  406117:	5d                   	pop    %rbp
  406118:	c3                   	retq   

0000000000406119 <_ZN2CK8getenv_iEPKci>:
  406119:	55                   	push   %rbp
  40611a:	48 89 e5             	mov    %rsp,%rbp
  40611d:	48 83 ec 10          	sub    $0x10,%rsp
  406121:	48 89 7d f8          	mov    %rdi,-0x8(%rbp)
  406125:	89 75 f4             	mov    %esi,-0xc(%rbp)
  406128:	48 8b 45 f8          	mov    -0x8(%rbp),%rax
  40612c:	48 89 c7             	mov    %rax,%rdi
  40612f:	e8 ec ee ff ff       	callq  405020 <getenv@plt>
  406134:	48 85 c0             	test   %rax,%rax
  406137:	74 16                	je     40614f <_ZN2CK8getenv_iEPKci+0x36>
  406139:	48 8b 45 f8          	mov    -0x8(%rbp),%rax
  40613d:	48 89 c7             	mov    %rax,%rdi
  406140:	e8 db ee ff ff       	callq  405020 <getenv@plt>
  406145:	48 89 c7             	mov    %rax,%rdi
  406148:	e8 33 ed ff ff       	callq  404e80 <atoi@plt>
  40614d:	eb 03                	jmp    406152 <_ZN2CK8getenv_iEPKci+0x39>
  40614f:	8b 45 f4             	mov    -0xc(%rbp),%eax
  406152:	c9                   	leaveq 
  406153:	c3                   	retq   

0000000000406154 <_ZN2CK8getenv_fEPKcd>:
  406154:	55                   	push   %rbp
  406155:	48 89 e5             	mov    %rsp,%rbp
  406158:	48 83 ec 20          	sub    $0x20,%rsp
  40615c:	48 89 7d f8          	mov    %rdi,-0x8(%rbp)
  406160:	f2 0f 11 45 f0       	movsd  %xmm0,-0x10(%rbp)
  406165:	48 8b 45 f8          	mov    -0x8(%rbp),%rax
  406169:	48 89 c7             	mov    %rax,%rdi
  40616c:	e8 af ee ff ff       	callq  405020 <getenv@plt>
  406171:	48 85 c0             	test   %rax,%rax
  406174:	74 1b                	je     406191 <_ZN2CK8getenv_fEPKcd+0x3d>
  406176:	48 8b 45 f8          	mov    -0x8(%rbp),%rax
  40617a:	48 89 c7             	mov    %rax,%rdi
  40617d:	e8 9e ee ff ff       	callq  405020 <getenv@plt>
  406182:	48 89 c7             	mov    %rax,%rdi
  406185:	e8 06 ef ff ff       	callq  405090 <atof@plt>
  40618a:	66 48 0f 7e c0       	movq   %xmm0,%rax
  40618f:	eb 04                	jmp    406195 <_ZN2CK8getenv_fEPKcd+0x41>
  406191:	48 8b 45 f0          	mov    -0x10(%rbp),%rax
  406195:	48 89 45 e8          	mov    %rax,-0x18(%rbp)
  406199:	f2 0f 10 45 e8       	movsd  -0x18(%rbp),%xmm0
  40619e:	c9                   	leaveq 
  40619f:	c3                   	retq   

00000000004061a0 <_ZN2CK13store_value_iEiPKci>:
  4061a0:	55                   	push   %rbp
  4061a1:	48 89 e5             	mov    %rsp,%rbp
  4061a4:	48 83 ec 20          	sub    $0x20,%rsp
  4061a8:	89 7d ec             	mov    %edi,-0x14(%rbp)
  4061ab:	48 89 75 e0          	mov    %rsi,-0x20(%rbp)
  4061af:	89 55 e8             	mov    %edx,-0x18(%rbp)
  4061b2:	48 8b 45 e0          	mov    -0x20(%rbp),%rax
  4061b6:	48 89 c7             	mov    %rax,%rdi
  4061b9:	e8 f2 ec ff ff       	callq  404eb0 <strlen@plt>
  4061be:	48 83 c0 06          	add    $0x6,%rax
  4061c2:	48 89 c7             	mov    %rax,%rdi
  4061c5:	e8 16 ed ff ff       	callq  404ee0 <_Znam@plt>
  4061ca:	48 89 45 f8          	mov    %rax,-0x8(%rbp)
  4061ce:	48 8b 55 e0          	mov    -0x20(%rbp),%rdx
  4061d2:	48 8b 45 f8          	mov    -0x8(%rbp),%rax
  4061d6:	be 34 d2 40 00       	mov    $0x40d234,%esi
  4061db:	48 89 c7             	mov    %rax,%rdi
  4061de:	b8 00 00 00 00       	mov    $0x0,%eax
  4061e3:	e8 b8 ef ff ff       	callq  4051a0 <sprintf@plt>
  4061e8:	8b 55 e8             	mov    -0x18(%rbp),%edx
  4061eb:	48 8b 4d f8          	mov    -0x8(%rbp),%rcx
  4061ef:	8b 45 ec             	mov    -0x14(%rbp),%eax
  4061f2:	48 89 ce             	mov    %rcx,%rsi
  4061f5:	89 c7                	mov    %eax,%edi
  4061f7:	e8 f4 ec ff ff       	callq  404ef0 <xopenme_add_var_i@plt>
  4061fc:	48 83 7d f8 00       	cmpq   $0x0,-0x8(%rbp)
  406201:	74 0c                	je     40620f <_ZN2CK13store_value_iEiPKci+0x6f>
  406203:	48 8b 45 f8          	mov    -0x8(%rbp),%rax
  406207:	48 89 c7             	mov    %rax,%rdi
  40620a:	e8 91 ec ff ff       	callq  404ea0 <_ZdaPv@plt>
  40620f:	90                   	nop
  406210:	c9                   	leaveq 
  406211:	c3                   	retq   

0000000000406212 <_ZN2CK13store_value_fEiPKcf>:
  406212:	55                   	push   %rbp
  406213:	48 89 e5             	mov    %rsp,%rbp
  406216:	48 83 ec 30          	sub    $0x30,%rsp
  40621a:	89 7d ec             	mov    %edi,-0x14(%rbp)
  40621d:	48 89 75 e0          	mov    %rsi,-0x20(%rbp)
  406221:	f3 0f 11 45 e8       	movss  %xmm0,-0x18(%rbp)
  406226:	48 8b 45 e0          	mov    -0x20(%rbp),%rax
  40622a:	48 89 c7             	mov    %rax,%rdi
  40622d:	e8 7e ec ff ff       	callq  404eb0 <strlen@plt>
  406232:	48 83 c0 06          	add    $0x6,%rax
  406236:	48 89 c7             	mov    %rax,%rdi
  406239:	e8 a2 ec ff ff       	callq  404ee0 <_Znam@plt>
  40623e:	48 89 45 f8          	mov    %rax,-0x8(%rbp)
  406242:	48 8b 55 e0          	mov    -0x20(%rbp),%rdx
  406246:	48 8b 45 f8          	mov    -0x8(%rbp),%rax
  40624a:	be 3d d2 40 00       	mov    $0x40d23d,%esi
  40624f:	48 89 c7             	mov    %rax,%rdi
  406252:	b8 00 00 00 00       	mov    $0x0,%eax
  406257:	e8 44 ef ff ff       	callq  4051a0 <sprintf@plt>
  40625c:	8b 4d e8             	mov    -0x18(%rbp),%ecx
  40625f:	48 8b 55 f8          	mov    -0x8(%rbp),%rdx
  406263:	8b 45 ec             	mov    -0x14(%rbp),%eax
  406266:	89 4d dc             	mov    %ecx,-0x24(%rbp)
  406269:	f3 0f 10 45 dc       	movss  -0x24(%rbp),%xmm0
  40626e:	48 89 d6             	mov    %rdx,%rsi
  406271:	89 c7                	mov    %eax,%edi
  406273:	e8 a8 ea ff ff       	callq  404d20 <xopenme_add_var_f@plt>
  406278:	48 83 7d f8 00       	cmpq   $0x0,-0x8(%rbp)
  40627d:	74 0c                	je     40628b <_ZN2CK13store_value_fEiPKcf+0x79>
  40627f:	48 8b 45 f8          	mov    -0x8(%rbp),%rax
  406283:	48 89 c7             	mov    %rax,%rdi
  406286:	e8 15 ec ff ff       	callq  404ea0 <_ZdaPv@plt>
  40628b:	90                   	nop
  40628c:	c9                   	leaveq 
  40628d:	c3                   	retq   

000000000040628e <_ZN2CK24get_input_shape_from_envEiiii>:
  40628e:	55                   	push   %rbp
  40628f:	48 89 e5             	mov    %rsp,%rbp
  406292:	48 83 ec 30          	sub    $0x30,%rsp
  406296:	89 7d dc             	mov    %edi,-0x24(%rbp)
  406299:	89 75 d8             	mov    %esi,-0x28(%rbp)
  40629c:	89 55 d4             	mov    %edx,-0x2c(%rbp)
  40629f:	89 4d d0             	mov    %ecx,-0x30(%rbp)
  4062a2:	64 48 8b 04 25 28 00 	mov    %fs:0x28,%rax
  4062a9:	00 00 
  4062ab:	48 89 45 f8          	mov    %rax,-0x8(%rbp)
  4062af:	31 c0                	xor    %eax,%eax
  4062b1:	c7 45 e0 01 00 00 00 	movl   $0x1,-0x20(%rbp)
  4062b8:	c7 45 e4 01 00 00 00 	movl   $0x1,-0x1c(%rbp)
  4062bf:	c7 45 e8 01 00 00 00 	movl   $0x1,-0x18(%rbp)
  4062c6:	c7 45 ec 01 00 00 00 	movl   $0x1,-0x14(%rbp)
  4062cd:	8b 45 dc             	mov    -0x24(%rbp),%eax
  4062d0:	89 c6                	mov    %eax,%esi
  4062d2:	bf 46 d2 40 00       	mov    $0x40d246,%edi
  4062d7:	e8 3d fe ff ff       	callq  406119 <_ZN2CK8getenv_iEPKci>
  4062dc:	89 45 e0             	mov    %eax,-0x20(%rbp)
  4062df:	8b 45 d8             	mov    -0x28(%rbp),%eax
  4062e2:	89 c6                	mov    %eax,%esi
  4062e4:	bf 54 d2 40 00       	mov    $0x40d254,%edi
  4062e9:	e8 2b fe ff ff       	callq  406119 <_ZN2CK8getenv_iEPKci>
  4062ee:	89 45 e4             	mov    %eax,-0x1c(%rbp)
  4062f1:	8b 45 d4             	mov    -0x2c(%rbp),%eax
  4062f4:	89 c6                	mov    %eax,%esi
  4062f6:	bf 62 d2 40 00       	mov    $0x40d262,%edi
  4062fb:	e8 19 fe ff ff       	callq  406119 <_ZN2CK8getenv_iEPKci>
  406300:	89 45 e8             	mov    %eax,-0x18(%rbp)
  406303:	8b 45 d0             	mov    -0x30(%rbp),%eax
  406306:	89 c6                	mov    %eax,%esi
  406308:	bf 70 d2 40 00       	mov    $0x40d270,%edi
  40630d:	e8 07 fe ff ff       	callq  406119 <_ZN2CK8getenv_iEPKci>
  406312:	89 45 ec             	mov    %eax,-0x14(%rbp)
  406315:	8b 45 e0             	mov    -0x20(%rbp),%eax
  406318:	89 c2                	mov    %eax,%edx
  40631a:	be 7e d2 40 00       	mov    $0x40d27e,%esi
  40631f:	bf 04 00 00 00       	mov    $0x4,%edi
  406324:	e8 77 fe ff ff       	callq  4061a0 <_ZN2CK13store_value_iEiPKci>
  406329:	8b 45 e4             	mov    -0x1c(%rbp),%eax
  40632c:	89 c2                	mov    %eax,%edx
  40632e:	be 89 d2 40 00       	mov    $0x40d289,%esi
  406333:	bf 05 00 00 00       	mov    $0x5,%edi
  406338:	e8 63 fe ff ff       	callq  4061a0 <_ZN2CK13store_value_iEiPKci>
  40633d:	8b 45 e8             	mov    -0x18(%rbp),%eax
  406340:	89 c2                	mov    %eax,%edx
  406342:	be 94 d2 40 00       	mov    $0x40d294,%esi
  406347:	bf 06 00 00 00       	mov    $0x6,%edi
  40634c:	e8 4f fe ff ff       	callq  4061a0 <_ZN2CK13store_value_iEiPKci>
  406351:	8b 45 ec             	mov    -0x14(%rbp),%eax
  406354:	89 c2                	mov    %eax,%edx
  406356:	be 9f d2 40 00       	mov    $0x40d29f,%esi
  40635b:	bf 07 00 00 00       	mov    $0x7,%edi
  406360:	e8 3b fe ff ff       	callq  4061a0 <_ZN2CK13store_value_iEiPKci>
  406365:	8b 75 ec             	mov    -0x14(%rbp),%esi
  406368:	8b 4d e8             	mov    -0x18(%rbp),%ecx
  40636b:	8b 55 e4             	mov    -0x1c(%rbp),%edx
  40636e:	8b 45 e0             	mov    -0x20(%rbp),%eax
  406371:	41 89 f0             	mov    %esi,%r8d
  406374:	89 c6                	mov    %eax,%esi
  406376:	bf b0 d2 40 00       	mov    $0x40d2b0,%edi
  40637b:	b8 00 00 00 00       	mov    $0x0,%eax
  406380:	e8 cb e9 ff ff       	callq  404d50 <printf@plt>
  406385:	48 8b 45 e0          	mov    -0x20(%rbp),%rax
  406389:	48 8b 55 e8          	mov    -0x18(%rbp),%rdx
  40638d:	48 8b 4d f8          	mov    -0x8(%rbp),%rcx
  406391:	64 48 33 0c 25 28 00 	xor    %fs:0x28,%rcx
  406398:	00 00 
  40639a:	74 05                	je     4063a1 <_ZN2CK24get_input_shape_from_envEiiii+0x113>
  40639c:	e8 7f ea ff ff       	callq  404e20 <__stack_chk_fail@plt>
  4063a1:	c9                   	leaveq 
  4063a2:	c3                   	retq   

00000000004063a3 <_ZN2CK24get_conv_params_from_envEiii>:
  4063a3:	55                   	push   %rbp
  4063a4:	48 89 e5             	mov    %rsp,%rbp
  4063a7:	48 83 ec 40          	sub    $0x40,%rsp
  4063ab:	89 7d dc             	mov    %edi,-0x24(%rbp)
  4063ae:	89 75 d8             	mov    %esi,-0x28(%rbp)
  4063b1:	89 55 d4             	mov    %edx,-0x2c(%rbp)
  4063b4:	64 48 8b 04 25 28 00 	mov    %fs:0x28,%rax
  4063bb:	00 00 
  4063bd:	48 89 45 f8          	mov    %rax,-0x8(%rbp)
  4063c1:	31 c0                	xor    %eax,%eax
  4063c3:	48 c7 45 e0 00 00 00 	movq   $0x0,-0x20(%rbp)
  4063ca:	00 
  4063cb:	c7 45 e8 00 00 00 00 	movl   $0x0,-0x18(%rbp)
  4063d2:	8b 45 dc             	mov    -0x24(%rbp),%eax
  4063d5:	89 c6                	mov    %eax,%esi
  4063d7:	bf e7 d2 40 00       	mov    $0x40d2e7,%edi
  4063dc:	e8 38 fd ff ff       	callq  406119 <_ZN2CK8getenv_iEPKci>
  4063e1:	89 45 e0             	mov    %eax,-0x20(%rbp)
  4063e4:	8b 45 d8             	mov    -0x28(%rbp),%eax
  4063e7:	89 c6                	mov    %eax,%esi
  4063e9:	bf f6 d2 40 00       	mov    $0x40d2f6,%edi
  4063ee:	e8 26 fd ff ff       	callq  406119 <_ZN2CK8getenv_iEPKci>
  4063f3:	89 45 e4             	mov    %eax,-0x1c(%rbp)
  4063f6:	8b 45 d4             	mov    -0x2c(%rbp),%eax
  4063f9:	89 c6                	mov    %eax,%esi
  4063fb:	bf 05 d3 40 00       	mov    $0x40d305,%edi
  406400:	e8 14 fd ff ff       	callq  406119 <_ZN2CK8getenv_iEPKci>
  406405:	89 45 e8             	mov    %eax,-0x18(%rbp)
  406408:	8b 4d e8             	mov    -0x18(%rbp),%ecx
  40640b:	8b 55 e4             	mov    -0x1c(%rbp),%edx
  40640e:	8b 45 e0             	mov    -0x20(%rbp),%eax
  406411:	89 c6                	mov    %eax,%esi
  406413:	bf 18 d3 40 00       	mov    $0x40d318,%edi
  406418:	b8 00 00 00 00       	mov    $0x0,%eax
  40641d:	e8 2e e9 ff ff       	callq  404d50 <printf@plt>
  406422:	48 8b 45 e0          	mov    -0x20(%rbp),%rax
  406426:	48 89 45 ec          	mov    %rax,-0x14(%rbp)
  40642a:	8b 45 e8             	mov    -0x18(%rbp),%eax
  40642d:	89 45 f4             	mov    %eax,-0xc(%rbp)
  406430:	48 8b 55 ec          	mov    -0x14(%rbp),%rdx
  406434:	8b 45 f4             	mov    -0xc(%rbp),%eax
  406437:	48 89 d1             	mov    %rdx,%rcx
  40643a:	89 c2                	mov    %eax,%edx
  40643c:	48 89 c8             	mov    %rcx,%rax
  40643f:	48 8b 4d f8          	mov    -0x8(%rbp),%rcx
  406443:	64 48 33 0c 25 28 00 	xor    %fs:0x28,%rcx
  40644a:	00 00 
  40644c:	74 05                	je     406453 <_ZN2CK24get_conv_params_from_envEiii+0xb0>
  40644e:	e8 cd e9 ff ff       	callq  404e20 <__stack_chk_fail@plt>
  406453:	c9                   	leaveq 
  406454:	c3                   	retq   

0000000000406455 <_ZN2CK9init_testEv>:
  406455:	55                   	push   %rbp
  406456:	48 89 e5             	mov    %rsp,%rbp
  406459:	48 83 ec 10          	sub    $0x10,%rsp
  40645d:	be 0c 00 00 00       	mov    $0xc,%esi
  406462:	bf 02 00 00 00       	mov    $0x2,%edi
  406467:	e8 a4 e8 ff ff       	callq  404d10 <xopenme_init@plt>
  40646c:	be 2a 00 00 00       	mov    $0x2a,%esi
  406471:	bf 4a d3 40 00       	mov    $0x40d34a,%edi
  406476:	e8 9e fc ff ff       	callq  406119 <_ZN2CK8getenv_iEPKci>
  40647b:	89 45 fc             	mov    %eax,-0x4(%rbp)
  40647e:	8b 45 fc             	mov    -0x4(%rbp),%eax
  406481:	89 c2                	mov    %eax,%edx
  406483:	be 52 d3 40 00       	mov    $0x40d352,%esi
  406488:	bf 08 00 00 00       	mov    $0x8,%edi
  40648d:	e8 0e fd ff ff       	callq  4061a0 <_ZN2CK13store_value_iEiPKci>
  406492:	8b 45 fc             	mov    -0x4(%rbp),%eax
  406495:	89 c7                	mov    %eax,%edi
  406497:	e8 c4 ed ff ff       	callq  405260 <srand@plt>
  40649c:	90                   	nop
  40649d:	c9                   	leaveq 
  40649e:	c3                   	retq   

000000000040649f <_ZN2CK11finish_testEv>:
  40649f:	55                   	push   %rbp
  4064a0:	48 89 e5             	mov    %rsp,%rbp
  4064a3:	bf 00 00 00 00       	mov    $0x0,%edi
  4064a8:	e8 53 ea ff ff       	callq  404f00 <xopenme_get_timer@plt>
  4064ad:	be 00 00 00 00       	mov    $0x0,%esi
  4064b2:	bf 5b d3 40 00       	mov    $0x40d35b,%edi
  4064b7:	b8 01 00 00 00       	mov    $0x1,%eax
  4064bc:	e8 8f e8 ff ff       	callq  404d50 <printf@plt>
  4064c1:	bf 01 00 00 00       	mov    $0x1,%edi
  4064c6:	e8 35 ea ff ff       	callq  404f00 <xopenme_get_timer@plt>
  4064cb:	be 01 00 00 00       	mov    $0x1,%esi
  4064d0:	bf 6f d3 40 00       	mov    $0x40d36f,%edi
  4064d5:	b8 01 00 00 00       	mov    $0x1,%eax
  4064da:	e8 71 e8 ff ff       	callq  404d50 <printf@plt>
  4064df:	e8 2c ed ff ff       	callq  405210 <xopenme_dump_state@plt>
  4064e4:	e8 97 ed ff ff       	callq  405280 <xopenme_finish@plt>
  4064e9:	90                   	nop
  4064ea:	5d                   	pop    %rbp
  4064eb:	c3                   	retq   

00000000004064ec <_ZZN2CK5Caffe16test_convolutionEbENKUlvE_clEv>:
  4064ec:	55                   	push   %rbp
  4064ed:	48 89 e5             	mov    %rsp,%rbp
  4064f0:	48 83 ec 10          	sub    $0x10,%rsp
  4064f4:	48 89 7d f8          	mov    %rdi,-0x8(%rbp)
  4064f8:	48 8b 45 f8          	mov    -0x8(%rbp),%rax
  4064fc:	48 8b 50 10          	mov    0x10(%rax),%rdx
  406500:	48 8b 45 f8          	mov    -0x8(%rbp),%rax
  406504:	48 8b 40 08          	mov    0x8(%rax),%rax
  406508:	48 8b 4d f8          	mov    -0x8(%rbp),%rcx
  40650c:	48 8b 09             	mov    (%rcx),%rcx
  40650f:	48 89 c6             	mov    %rax,%rsi
  406512:	48 89 cf             	mov    %rcx,%rdi
  406515:	e8 a8 0c 00 00       	callq  4071c2 <_ZN5caffe5LayerIfE5SetUpERKSt6vectorIPNS_4BlobIfEESaIS5_EES9_>
  40651a:	90                   	nop
  40651b:	c9                   	leaveq 
  40651c:	c3                   	retq   
  40651d:	90                   	nop

000000000040651e <_ZZN2CK5Caffe16test_convolutionEbENKUlvE0_clEv>:
  40651e:	55                   	push   %rbp
  40651f:	48 89 e5             	mov    %rsp,%rbp
  406522:	48 83 ec 10          	sub    $0x10,%rsp
  406526:	48 89 7d f8          	mov    %rdi,-0x8(%rbp)
  40652a:	48 8b 45 f8          	mov    -0x8(%rbp),%rax
  40652e:	48 8b 50 10          	mov    0x10(%rax),%rdx
  406532:	48 8b 45 f8          	mov    -0x8(%rbp),%rax
  406536:	48 8b 40 08          	mov    0x8(%rax),%rax
  40653a:	48 8b 4d f8          	mov    -0x8(%rbp),%rcx
  40653e:	48 8b 09             	mov    (%rcx),%rcx
  406541:	48 89 c6             	mov    %rax,%rsi
  406544:	48 89 cf             	mov    %rcx,%rdi
  406547:	e8 46 0e 00 00       	callq  407392 <_ZN5caffe5LayerIfE7ForwardERKSt6vectorIPNS_4BlobIfEESaIS5_EES9_>
  40654c:	90                   	nop
  40654d:	c9                   	leaveq 
  40654e:	c3                   	retq   
  40654f:	90                   	nop

0000000000406550 <_ZN5boost10shared_ptrIN5caffe12SyncedMemoryEED1Ev>:
  406550:	55                   	push   %rbp
  406551:	48 89 e5             	mov    %rsp,%rbp
  406554:	48 83 ec 10          	sub    $0x10,%rsp
  406558:	48 89 7d f8          	mov    %rdi,-0x8(%rbp)
  40655c:	48 8b 45 f8          	mov    -0x8(%rbp),%rax
  406560:	48 83 c0 08          	add    $0x8,%rax
  406564:	48 89 c7             	mov    %rax,%rdi
  406567:	e8 46 f1 ff ff       	callq  4056b2 <_ZN5boost6detail12shared_countD1Ev>
  40656c:	90                   	nop
  40656d:	c9                   	leaveq 
  40656e:	c3                   	retq   
  40656f:	90                   	nop

0000000000406570 <_ZN5caffe4BlobIfED1Ev>:
  406570:	55                   	push   %rbp
  406571:	48 89 e5             	mov    %rsp,%rbp
  406574:	48 83 ec 10          	sub    $0x10,%rsp
  406578:	48 89 7d f8          	mov    %rdi,-0x8(%rbp)
  40657c:	48 8b 45 f8          	mov    -0x8(%rbp),%rax
  406580:	48 83 c0 30          	add    $0x30,%rax
  406584:	48 89 c7             	mov    %rax,%rdi
  406587:	e8 c6 12 00 00       	callq  407852 <_ZNSt6vectorIiSaIiEED1Ev>
  40658c:	48 8b 45 f8          	mov    -0x8(%rbp),%rax
  406590:	48 83 c0 20          	add    $0x20,%rax
  406594:	48 89 c7             	mov    %rax,%rdi
  406597:	e8 b4 ff ff ff       	callq  406550 <_ZN5boost10shared_ptrIN5caffe12SyncedMemoryEED1Ev>
  40659c:	48 8b 45 f8          	mov    -0x8(%rbp),%rax
  4065a0:	48 83 c0 10          	add    $0x10,%rax
  4065a4:	48 89 c7             	mov    %rax,%rdi
  4065a7:	e8 a4 ff ff ff       	callq  406550 <_ZN5boost10shared_ptrIN5caffe12SyncedMemoryEED1Ev>
  4065ac:	48 8b 45 f8          	mov    -0x8(%rbp),%rax
  4065b0:	48 89 c7             	mov    %rax,%rdi
  4065b3:	e8 98 ff ff ff       	callq  406550 <_ZN5boost10shared_ptrIN5caffe12SyncedMemoryEED1Ev>
  4065b8:	90                   	nop
  4065b9:	c9                   	leaveq 
  4065ba:	c3                   	retq   

00000000004065bb <_ZN2CK5Caffe16test_convolutionEb>:
  4065bb:	55                   	push   %rbp
  4065bc:	48 89 e5             	mov    %rsp,%rbp
  4065bf:	41 54                	push   %r12
  4065c1:	53                   	push   %rbx
  4065c2:	48 81 ec a0 08 00 00 	sub    $0x8a0,%rsp
  4065c9:	89 f8                	mov    %edi,%eax
  4065cb:	88 85 5c f7 ff ff    	mov    %al,-0x8a4(%rbp)
  4065d1:	64 48 8b 04 25 28 00 	mov    %fs:0x28,%rax
  4065d8:	00 00 
  4065da:	48 89 45 e8          	mov    %rax,-0x18(%rbp)
  4065de:	31 c0                	xor    %eax,%eax
  4065e0:	e8 70 fe ff ff       	callq  406455 <_ZN2CK9init_testEv>
  4065e5:	b9 07 00 00 00       	mov    $0x7,%ecx
  4065ea:	ba 07 00 00 00       	mov    $0x7,%edx
  4065ef:	be 01 00 00 00       	mov    $0x1,%esi
  4065f4:	bf 01 00 00 00       	mov    $0x1,%edi
  4065f9:	e8 90 fc ff ff       	callq  40628e <_ZN2CK24get_input_shape_from_envEiiii>
  4065fe:	48 89 85 a0 f7 ff ff 	mov    %rax,-0x860(%rbp)
  406605:	48 89 95 a8 f7 ff ff 	mov    %rdx,-0x858(%rbp)
  40660c:	bf 50 00 00 00       	mov    $0x50,%edi
  406611:	e8 9a e7 ff ff       	callq  404db0 <_Znwm@plt>
  406616:	48 89 c3             	mov    %rax,%rbx
  406619:	8b b5 ac f7 ff ff    	mov    -0x854(%rbp),%esi
  40661f:	8b 8d a8 f7 ff ff    	mov    -0x858(%rbp),%ecx
  406625:	8b 95 a4 f7 ff ff    	mov    -0x85c(%rbp),%edx
  40662b:	8b 85 a0 f7 ff ff    	mov    -0x860(%rbp),%eax
  406631:	41 89 f0             	mov    %esi,%r8d
  406634:	89 c6                	mov    %eax,%esi
  406636:	48 89 df             	mov    %rbx,%rdi
  406639:	e8 22 eb ff ff       	callq  405160 <_ZN5caffe4BlobIfEC1Eiiii@plt>
  40663e:	48 89 9d 68 f7 ff ff 	mov    %rbx,-0x898(%rbp)
  406645:	48 8d 85 b0 f7 ff ff 	lea    -0x850(%rbp),%rax
  40664c:	48 89 c7             	mov    %rax,%rdi
  40664f:	e8 d2 08 00 00       	callq  406f26 <_ZNSt6vectorIPN5caffe4BlobIfEESaIS3_EEC1Ev>
  406654:	48 8d 95 68 f7 ff ff 	lea    -0x898(%rbp),%rdx
  40665b:	48 8d 85 b0 f7 ff ff 	lea    -0x850(%rbp),%rax
  406662:	48 89 d6             	mov    %rdx,%rsi
  406665:	48 89 c7             	mov    %rax,%rdi
  406668:	e8 19 09 00 00       	callq  406f86 <_ZNSt6vectorIPN5caffe4BlobIfEESaIS3_EE9push_backERKS3_>
  40666d:	bf 50 00 00 00       	mov    $0x50,%edi
  406672:	e8 39 e7 ff ff       	callq  404db0 <_Znwm@plt>
  406677:	48 89 c3             	mov    %rax,%rbx
  40667a:	48 89 df             	mov    %rbx,%rdi
  40667d:	e8 70 09 00 00       	callq  406ff2 <_ZN5caffe4BlobIfEC1Ev>
  406682:	48 89 9d 70 f7 ff ff 	mov    %rbx,-0x890(%rbp)
  406689:	48 8d 85 d0 f7 ff ff 	lea    -0x830(%rbp),%rax
  406690:	48 89 c7             	mov    %rax,%rdi
  406693:	e8 8e 08 00 00       	callq  406f26 <_ZNSt6vectorIPN5caffe4BlobIfEESaIS3_EEC1Ev>
  406698:	48 8d 95 70 f7 ff ff 	lea    -0x890(%rbp),%rdx
  40669f:	48 8d 85 d0 f7 ff ff 	lea    -0x830(%rbp),%rax
  4066a6:	48 89 d6             	mov    %rdx,%rsi
  4066a9:	48 89 c7             	mov    %rax,%rdi
  4066ac:	e8 d5 08 00 00       	callq  406f86 <_ZNSt6vectorIPN5caffe4BlobIfEESaIS3_EE9push_backERKS3_>
  4066b1:	be 01 00 00 00       	mov    $0x1,%esi
  4066b6:	bf 98 d3 40 00       	mov    $0x40d398,%edi
  4066bb:	e8 59 fa ff ff       	callq  406119 <_ZN2CK8getenv_iEPKci>
  4066c0:	89 85 64 f7 ff ff    	mov    %eax,-0x89c(%rbp)
  4066c6:	8b 85 64 f7 ff ff    	mov    -0x89c(%rbp),%eax
  4066cc:	89 c6                	mov    %eax,%esi
  4066ce:	bf a7 d3 40 00       	mov    $0x40d3a7,%edi
  4066d3:	b8 00 00 00 00       	mov    $0x0,%eax
  4066d8:	e8 73 e6 ff ff       	callq  404d50 <printf@plt>
  4066dd:	ba 00 00 00 00       	mov    $0x0,%edx
  4066e2:	be 01 00 00 00       	mov    $0x1,%esi
  4066e7:	bf 07 00 00 00       	mov    $0x7,%edi
  4066ec:	e8 b2 fc ff ff       	callq  4063a3 <_ZN2CK24get_conv_params_from_envEiii>
  4066f1:	48 89 c1             	mov    %rax,%rcx
  4066f4:	89 d0                	mov    %edx,%eax
  4066f6:	48 89 8d 94 f7 ff ff 	mov    %rcx,-0x86c(%rbp)
  4066fd:	89 85 9c f7 ff ff    	mov    %eax,-0x864(%rbp)
  406703:	48 8d 85 10 f8 ff ff 	lea    -0x7f0(%rbp),%rax
  40670a:	48 89 c7             	mov    %rax,%rdi
  40670d:	e8 2e e6 ff ff       	callq  404d40 <_ZN5caffe14LayerParameterC1Ev@plt>
  406712:	48 8d 85 10 f8 ff ff 	lea    -0x7f0(%rbp),%rax
  406719:	48 89 c7             	mov    %rax,%rdi
  40671c:	e8 69 f4 ff ff       	callq  405b8a <_ZN5caffe14LayerParameter25mutable_convolution_paramEv>
  406721:	48 89 85 78 f7 ff ff 	mov    %rax,-0x888(%rbp)
  406728:	8b 95 64 f7 ff ff    	mov    -0x89c(%rbp),%edx
  40672e:	48 8b 85 78 f7 ff ff 	mov    -0x888(%rbp),%rax
  406735:	89 d6                	mov    %edx,%esi
  406737:	48 89 c7             	mov    %rax,%rdi
  40673a:	e8 fd f4 ff ff       	callq  405c3c <_ZN5caffe20ConvolutionParameter14set_num_outputEj>
  40673f:	8b 95 94 f7 ff ff    	mov    -0x86c(%rbp),%edx
  406745:	48 8b 85 78 f7 ff ff 	mov    -0x888(%rbp),%rax
  40674c:	89 d6                	mov    %edx,%esi
  40674e:	48 89 c7             	mov    %rax,%rdi
  406751:	e8 0c f6 ff ff       	callq  405d62 <_ZN5caffe20ConvolutionParameter12set_kernel_hEj>
  406756:	8b 95 94 f7 ff ff    	mov    -0x86c(%rbp),%edx
  40675c:	48 8b 85 78 f7 ff ff 	mov    -0x888(%rbp),%rax
  406763:	89 d6                	mov    %edx,%esi
  406765:	48 89 c7             	mov    %rax,%rdi
  406768:	e8 57 f6 ff ff       	callq  405dc4 <_ZN5caffe20ConvolutionParameter12set_kernel_wEj>
  40676d:	8b 95 98 f7 ff ff    	mov    -0x868(%rbp),%edx
  406773:	48 8b 85 78 f7 ff ff 	mov    -0x888(%rbp),%rax
  40677a:	89 d6                	mov    %edx,%esi
  40677c:	48 89 c7             	mov    %rax,%rdi
  40677f:	e8 a2 f6 ff ff       	callq  405e26 <_ZN5caffe20ConvolutionParameter12set_stride_hEj>
  406784:	8b 95 98 f7 ff ff    	mov    -0x868(%rbp),%edx
  40678a:	48 8b 85 78 f7 ff ff 	mov    -0x888(%rbp),%rax
  406791:	89 d6                	mov    %edx,%esi
  406793:	48 89 c7             	mov    %rax,%rdi
  406796:	e8 ed f6 ff ff       	callq  405e88 <_ZN5caffe20ConvolutionParameter12set_stride_wEj>
  40679b:	8b 95 9c f7 ff ff    	mov    -0x864(%rbp),%edx
  4067a1:	48 8b 85 78 f7 ff ff 	mov    -0x888(%rbp),%rax
  4067a8:	89 d6                	mov    %edx,%esi
  4067aa:	48 89 c7             	mov    %rax,%rdi
  4067ad:	e8 ec f4 ff ff       	callq  405c9e <_ZN5caffe20ConvolutionParameter9set_pad_hEj>
  4067b2:	8b 95 9c f7 ff ff    	mov    -0x864(%rbp),%edx
  4067b8:	48 8b 85 78 f7 ff ff 	mov    -0x888(%rbp),%rax
  4067bf:	89 d6                	mov    %edx,%esi
  4067c1:	48 89 c7             	mov    %rax,%rdi
  4067c4:	e8 37 f5 ff ff       	callq  405d00 <_ZN5caffe20ConvolutionParameter9set_pad_wEj>
  4067c9:	0f b6 95 5c f7 ff ff 	movzbl -0x8a4(%rbp),%edx
  4067d0:	48 8b 85 78 f7 ff ff 	mov    -0x888(%rbp),%rax
  4067d7:	89 d6                	mov    %edx,%esi
  4067d9:	48 89 c7             	mov    %rax,%rdi
  4067dc:	e8 5f f8 ff ff       	callq  406040 <_ZN5caffe20ConvolutionParameter19set_force_nd_im2colEb>
  4067e1:	48 8b 85 78 f7 ff ff 	mov    -0x888(%rbp),%rax
  4067e8:	48 89 c7             	mov    %rax,%rdi
  4067eb:	e8 fe f6 ff ff       	callq  405eee <_ZN5caffe20ConvolutionParameter21mutable_weight_fillerEv>
  4067f0:	be bc d3 40 00       	mov    $0x40d3bc,%esi
  4067f5:	48 89 c7             	mov    %rax,%rdi
  4067f8:	e8 3d f1 ff ff       	callq  40593a <_ZN5caffe15FillerParameter8set_typeEPKc>
  4067fd:	f2 0f 10 05 83 74 00 	movsd  0x7483(%rip),%xmm0        # 40dc88 <_ZZNK5boost10shared_ptrIN5caffe12SyncedMemoryEEptEvE19__PRETTY_FUNCTION__+0xc8>
  406804:	00 
  406805:	bf c5 d3 40 00       	mov    $0x40d3c5,%edi
  40680a:	e8 45 f9 ff ff       	callq  406154 <_ZN2CK8getenv_fEPKcd>
  40680f:	f2 0f 5a c8          	cvtsd2ss %xmm0,%xmm1
  406813:	f3 0f 11 8d 58 f7 ff 	movss  %xmm1,-0x8a8(%rbp)
  40681a:	ff 
  40681b:	48 8b 85 78 f7 ff ff 	mov    -0x888(%rbp),%rax
  406822:	48 89 c7             	mov    %rax,%rdi
  406825:	e8 c4 f6 ff ff       	callq  405eee <_ZN5caffe20ConvolutionParameter21mutable_weight_fillerEv>
  40682a:	f3 0f 10 85 58 f7 ff 	movss  -0x8a8(%rbp),%xmm0
  406831:	ff 
  406832:	48 89 c7             	mov    %rax,%rdi
  406835:	e8 08 f2 ff ff       	callq  405a42 <_ZN5caffe15FillerParameter9set_valueEf>
  40683a:	48 8b 85 78 f7 ff ff 	mov    -0x888(%rbp),%rax
  406841:	48 89 c7             	mov    %rax,%rdi
  406844:	e8 4d f7 ff ff       	callq  405f96 <_ZN5caffe20ConvolutionParameter19mutable_bias_fillerEv>
  406849:	be bc d3 40 00       	mov    $0x40d3bc,%esi
  40684e:	48 89 c7             	mov    %rax,%rdi
  406851:	e8 e4 f0 ff ff       	callq  40593a <_ZN5caffe15FillerParameter8set_typeEPKc>
  406856:	66 0f ef c0          	pxor   %xmm0,%xmm0
  40685a:	bf df d3 40 00       	mov    $0x40d3df,%edi
  40685f:	e8 f0 f8 ff ff       	callq  406154 <_ZN2CK8getenv_fEPKcd>
  406864:	f2 0f 5a d0          	cvtsd2ss %xmm0,%xmm2
  406868:	f3 0f 11 95 58 f7 ff 	movss  %xmm2,-0x8a8(%rbp)
  40686f:	ff 
  406870:	48 8b 85 78 f7 ff ff 	mov    -0x888(%rbp),%rax
  406877:	48 89 c7             	mov    %rax,%rdi
  40687a:	e8 17 f7 ff ff       	callq  405f96 <_ZN5caffe20ConvolutionParameter19mutable_bias_fillerEv>
  40687f:	f3 0f 10 85 58 f7 ff 	movss  -0x8a8(%rbp),%xmm0
  406886:	ff 
  406887:	48 89 c7             	mov    %rax,%rdi
  40688a:	e8 b3 f1 ff ff       	callq  405a42 <_ZN5caffe15FillerParameter9set_valueEf>
  40688f:	48 8d 95 10 f8 ff ff 	lea    -0x7f0(%rbp),%rdx
  406896:	48 8d 85 70 fa ff ff 	lea    -0x590(%rbp),%rax
  40689d:	48 89 d6             	mov    %rdx,%rsi
  4068a0:	48 89 c7             	mov    %rax,%rdi
  4068a3:	e8 e8 08 00 00       	callq  407190 <_ZN5caffe16ConvolutionLayerIfEC1ERKNS_14LayerParameterE>
  4068a8:	48 8d 85 70 fa ff ff 	lea    -0x590(%rbp),%rax
  4068af:	48 89 85 f0 f7 ff ff 	mov    %rax,-0x810(%rbp)
  4068b6:	48 8d 85 b0 f7 ff ff 	lea    -0x850(%rbp),%rax
  4068bd:	48 89 85 f8 f7 ff ff 	mov    %rax,-0x808(%rbp)
  4068c4:	48 8d 85 d0 f7 ff ff 	lea    -0x830(%rbp),%rax
  4068cb:	48 89 85 00 f8 ff ff 	mov    %rax,-0x800(%rbp)
  4068d2:	48 8d 85 f0 f7 ff ff 	lea    -0x810(%rbp),%rax
  4068d9:	48 89 c7             	mov    %rax,%rdi
  4068dc:	e8 6a 09 00 00       	callq  40724b <_ZN2CK13measure_setupIZNS_5Caffe16test_convolutionEbEUlvE_EEvOT_>
  4068e1:	48 8d 85 a0 f7 ff ff 	lea    -0x860(%rbp),%rax
  4068e8:	48 89 c7             	mov    %rax,%rdi
  4068eb:	e8 8e 09 00 00       	callq  40727e <_ZN2CK19get_random_raw_dataIfEEPT_RKNS_5ShapeE>
  4068f0:	48 89 85 80 f7 ff ff 	mov    %rax,-0x880(%rbp)
  4068f7:	48 8d 95 a0 f7 ff ff 	lea    -0x860(%rbp),%rdx
  4068fe:	48 8b 85 80 f7 ff ff 	mov    -0x880(%rbp),%rax
  406905:	48 89 d6             	mov    %rdx,%rsi
  406908:	48 89 c7             	mov    %rax,%rdi
  40690b:	e8 55 0a 00 00       	callq  407365 <_ZN2CK20print_input_raw_dataIfEEvPT_RKNS_5ShapeE>
  406910:	48 8d 85 a0 f7 ff ff 	lea    -0x860(%rbp),%rax
  406917:	48 89 c7             	mov    %rax,%rdi
  40691a:	e8 4f f7 ff ff       	callq  40606e <_ZNK2CK5Shape10data_countEv>
  40691f:	48 98                	cltq   
  406921:	48 8d 1c 85 00 00 00 	lea    0x0(,%rax,4),%rbx
  406928:	00 
  406929:	48 8b 85 68 f7 ff ff 	mov    -0x898(%rbp),%rax
  406930:	48 89 c7             	mov    %rax,%rdi
  406933:	e8 c8 e4 ff ff       	callq  404e00 <_ZN5caffe4BlobIfE16mutable_cpu_dataEv@plt>
  406938:	48 89 c1             	mov    %rax,%rcx
  40693b:	48 8b 85 80 f7 ff ff 	mov    -0x880(%rbp),%rax
  406942:	48 89 da             	mov    %rbx,%rdx
  406945:	48 89 c6             	mov    %rax,%rsi
  406948:	48 89 cf             	mov    %rcx,%rdi
  40694b:	e8 20 e4 ff ff       	callq  404d70 <memcpy@plt>
  406950:	48 83 bd 80 f7 ff ff 	cmpq   $0x0,-0x880(%rbp)
  406957:	00 
  406958:	74 0f                	je     406969 <_ZN2CK5Caffe16test_convolutionEb+0x3ae>
  40695a:	48 8b 85 80 f7 ff ff 	mov    -0x880(%rbp),%rax
  406961:	48 89 c7             	mov    %rax,%rdi
  406964:	e8 37 e5 ff ff       	callq  404ea0 <_ZdaPv@plt>
  406969:	48 8d 85 70 fa ff ff 	lea    -0x590(%rbp),%rax
  406970:	48 89 85 f0 f7 ff ff 	mov    %rax,-0x810(%rbp)
  406977:	48 8d 85 b0 f7 ff ff 	lea    -0x850(%rbp),%rax
  40697e:	48 89 85 f8 f7 ff ff 	mov    %rax,-0x808(%rbp)
  406985:	48 8d 85 d0 f7 ff ff 	lea    -0x830(%rbp),%rax
  40698c:	48 89 85 00 f8 ff ff 	mov    %rax,-0x800(%rbp)
  406993:	48 8d 85 f0 f7 ff ff 	lea    -0x810(%rbp),%rax
  40699a:	48 89 c7             	mov    %rax,%rdi
  40699d:	e8 f3 0b 00 00       	callq  407595 <_ZN2CK12measure_testIZNS_5Caffe16test_convolutionEbEUlvE0_EEvOT_>
  4069a2:	c7 85 f0 f7 ff ff 01 	movl   $0x1,-0x810(%rbp)
  4069a9:	00 00 00 
  4069ac:	c7 85 f4 f7 ff ff 01 	movl   $0x1,-0x80c(%rbp)
  4069b3:	00 00 00 
  4069b6:	c7 85 f8 f7 ff ff 01 	movl   $0x1,-0x808(%rbp)
  4069bd:	00 00 00 
  4069c0:	c7 85 fc f7 ff ff 01 	movl   $0x1,-0x804(%rbp)
  4069c7:	00 00 00 
  4069ca:	48 8b 85 70 f7 ff ff 	mov    -0x890(%rbp),%rax
  4069d1:	48 89 c7             	mov    %rax,%rdi
  4069d4:	e8 ef 0b 00 00       	callq  4075c8 <_ZNK5caffe4BlobIfE3numEv>
  4069d9:	89 85 f0 f7 ff ff    	mov    %eax,-0x810(%rbp)
  4069df:	48 8b 85 70 f7 ff ff 	mov    -0x890(%rbp),%rax
  4069e6:	48 89 c7             	mov    %rax,%rdi
  4069e9:	e8 fa 0b 00 00       	callq  4075e8 <_ZNK5caffe4BlobIfE8channelsEv>
  4069ee:	89 85 f4 f7 ff ff    	mov    %eax,-0x80c(%rbp)
  4069f4:	48 8b 85 70 f7 ff ff 	mov    -0x890(%rbp),%rax
  4069fb:	48 89 c7             	mov    %rax,%rdi
  4069fe:	e8 05 0c 00 00       	callq  407608 <_ZNK5caffe4BlobIfE6heightEv>
  406a03:	89 85 f8 f7 ff ff    	mov    %eax,-0x808(%rbp)
  406a09:	48 8b 85 70 f7 ff ff 	mov    -0x890(%rbp),%rax
  406a10:	48 89 c7             	mov    %rax,%rdi
  406a13:	e8 10 0c 00 00       	callq  407628 <_ZNK5caffe4BlobIfE5widthEv>
  406a18:	89 85 fc f7 ff ff    	mov    %eax,-0x804(%rbp)
  406a1e:	48 8d 85 f0 f7 ff ff 	lea    -0x810(%rbp),%rax
  406a25:	48 89 c7             	mov    %rax,%rdi
  406a28:	e8 41 f6 ff ff       	callq  40606e <_ZNK2CK5Shape10data_countEv>
  406a2d:	48 98                	cltq   
  406a2f:	48 ba fe ff ff ff ff 	movabs $0x1ffffffffffffffe,%rdx
  406a36:	ff ff 1f 
  406a39:	48 39 d0             	cmp    %rdx,%rax
  406a3c:	77 0e                	ja     406a4c <_ZN2CK5Caffe16test_convolutionEb+0x491>
  406a3e:	48 c1 e0 02          	shl    $0x2,%rax
  406a42:	48 89 c7             	mov    %rax,%rdi
  406a45:	e8 96 e4 ff ff       	callq  404ee0 <_Znam@plt>
  406a4a:	eb 05                	jmp    406a51 <_ZN2CK5Caffe16test_convolutionEb+0x496>
  406a4c:	e8 2f e6 ff ff       	callq  405080 <__cxa_throw_bad_array_new_length@plt>
  406a51:	48 89 85 88 f7 ff ff 	mov    %rax,-0x878(%rbp)
  406a58:	48 8d 85 f0 f7 ff ff 	lea    -0x810(%rbp),%rax
  406a5f:	48 89 c7             	mov    %rax,%rdi
  406a62:	e8 07 f6 ff ff       	callq  40606e <_ZNK2CK5Shape10data_countEv>
  406a67:	48 98                	cltq   
  406a69:	48 8d 1c 85 00 00 00 	lea    0x0(,%rax,4),%rbx
  406a70:	00 
  406a71:	48 8b 85 70 f7 ff ff 	mov    -0x890(%rbp),%rax
  406a78:	48 89 c7             	mov    %rax,%rdi
  406a7b:	e8 c8 0b 00 00       	callq  407648 <_ZNK5caffe4BlobIfE4dataEv>
  406a80:	48 89 c7             	mov    %rax,%rdi
  406a83:	e8 ae 0c 00 00       	callq  407736 <_ZNK5boost10shared_ptrIN5caffe12SyncedMemoryEEptEv>
  406a88:	48 89 c7             	mov    %rax,%rdi
  406a8b:	e8 30 e6 ff ff       	callq  4050c0 <_ZN5caffe12SyncedMemory8cpu_dataEv@plt>
  406a90:	48 89 c1             	mov    %rax,%rcx
  406a93:	48 8b 85 88 f7 ff ff 	mov    -0x878(%rbp),%rax
  406a9a:	48 89 da             	mov    %rbx,%rdx
  406a9d:	48 89 ce             	mov    %rcx,%rsi
  406aa0:	48 89 c7             	mov    %rax,%rdi
  406aa3:	e8 c8 e2 ff ff       	callq  404d70 <memcpy@plt>
  406aa8:	48 8d 95 f0 f7 ff ff 	lea    -0x810(%rbp),%rdx
  406aaf:	48 8b 85 88 f7 ff ff 	mov    -0x878(%rbp),%rax
  406ab6:	48 89 d6             	mov    %rdx,%rsi
  406ab9:	48 89 c7             	mov    %rax,%rdi
  406abc:	e8 af 0c 00 00       	callq  407770 <_ZN2CK21print_output_raw_dataIfEEvPT_RKNS_5ShapeE>
  406ac1:	48 8d 95 f0 f7 ff ff 	lea    -0x810(%rbp),%rdx
  406ac8:	48 8b 85 88 f7 ff ff 	mov    -0x878(%rbp),%rax
  406acf:	48 89 d6             	mov    %rdx,%rsi
  406ad2:	48 89 c7             	mov    %rax,%rdi
  406ad5:	e8 c3 0c 00 00       	callq  40779d <_ZN2CK20dump_output_raw_dataIfEEvPT_RKNS_5ShapeE>
  406ada:	48 83 bd 88 f7 ff ff 	cmpq   $0x0,-0x878(%rbp)
  406ae1:	00 
  406ae2:	74 0f                	je     406af3 <_ZN2CK5Caffe16test_convolutionEb+0x538>
  406ae4:	48 8b 85 88 f7 ff ff 	mov    -0x878(%rbp),%rax
  406aeb:	48 89 c7             	mov    %rax,%rdi
  406aee:	e8 ad e3 ff ff       	callq  404ea0 <_ZdaPv@plt>
  406af3:	48 8b 9d 68 f7 ff ff 	mov    -0x898(%rbp),%rbx
  406afa:	48 85 db             	test   %rbx,%rbx
  406afd:	74 10                	je     406b0f <_ZN2CK5Caffe16test_convolutionEb+0x554>
  406aff:	48 89 df             	mov    %rbx,%rdi
  406b02:	e8 69 fa ff ff       	callq  406570 <_ZN5caffe4BlobIfED1Ev>
  406b07:	48 89 df             	mov    %rbx,%rdi
  406b0a:	e8 11 e4 ff ff       	callq  404f20 <_ZdlPv@plt>
  406b0f:	48 8b 9d 70 f7 ff ff 	mov    -0x890(%rbp),%rbx
  406b16:	48 85 db             	test   %rbx,%rbx
  406b19:	74 10                	je     406b2b <_ZN2CK5Caffe16test_convolutionEb+0x570>
  406b1b:	48 89 df             	mov    %rbx,%rdi
  406b1e:	e8 4d fa ff ff       	callq  406570 <_ZN5caffe4BlobIfED1Ev>
  406b23:	48 89 df             	mov    %rbx,%rdi
  406b26:	e8 f5 e3 ff ff       	callq  404f20 <_ZdlPv@plt>
  406b2b:	e8 6f f9 ff ff       	callq  40649f <_ZN2CK11finish_testEv>
  406b30:	48 8d 85 70 fa ff ff 	lea    -0x590(%rbp),%rax
  406b37:	48 89 c7             	mov    %rax,%rdi
  406b3a:	e8 9d 62 00 00       	callq  40cddc <_ZN5caffe16ConvolutionLayerIfED1Ev>
  406b3f:	48 8d 85 10 f8 ff ff 	lea    -0x7f0(%rbp),%rax
  406b46:	48 89 c7             	mov    %rax,%rdi
  406b49:	e8 62 e7 ff ff       	callq  4052b0 <_ZN5caffe14LayerParameterD1Ev@plt>
  406b4e:	48 8d 85 d0 f7 ff ff 	lea    -0x830(%rbp),%rax
  406b55:	48 89 c7             	mov    %rax,%rdi
  406b58:	e8 e5 03 00 00       	callq  406f42 <_ZNSt6vectorIPN5caffe4BlobIfEESaIS3_EED1Ev>
  406b5d:	48 8d 85 b0 f7 ff ff 	lea    -0x850(%rbp),%rax
  406b64:	48 89 c7             	mov    %rax,%rdi
  406b67:	e8 d6 03 00 00       	callq  406f42 <_ZNSt6vectorIPN5caffe4BlobIfEESaIS3_EED1Ev>
  406b6c:	90                   	nop
  406b6d:	48 8b 45 e8          	mov    -0x18(%rbp),%rax
  406b71:	64 48 33 04 25 28 00 	xor    %fs:0x28,%rax
  406b78:	00 00 
  406b7a:	74 76                	je     406bf2 <_ZN2CK5Caffe16test_convolutionEb+0x637>
  406b7c:	eb 6f                	jmp    406bed <_ZN2CK5Caffe16test_convolutionEb+0x632>
  406b7e:	49 89 c4             	mov    %rax,%r12
  406b81:	48 89 df             	mov    %rbx,%rdi
  406b84:	e8 97 e3 ff ff       	callq  404f20 <_ZdlPv@plt>
  406b89:	4c 89 e0             	mov    %r12,%rax
  406b8c:	48 89 c7             	mov    %rax,%rdi
  406b8f:	e8 1c e4 ff ff       	callq  404fb0 <_Unwind_Resume@plt>
  406b94:	48 89 c3             	mov    %rax,%rbx
  406b97:	48 8d 85 70 fa ff ff 	lea    -0x590(%rbp),%rax
  406b9e:	48 89 c7             	mov    %rax,%rdi
  406ba1:	e8 36 62 00 00       	callq  40cddc <_ZN5caffe16ConvolutionLayerIfED1Ev>
  406ba6:	eb 03                	jmp    406bab <_ZN2CK5Caffe16test_convolutionEb+0x5f0>
  406ba8:	48 89 c3             	mov    %rax,%rbx
  406bab:	48 8d 85 10 f8 ff ff 	lea    -0x7f0(%rbp),%rax
  406bb2:	48 89 c7             	mov    %rax,%rdi
  406bb5:	e8 f6 e6 ff ff       	callq  4052b0 <_ZN5caffe14LayerParameterD1Ev@plt>
  406bba:	eb 03                	jmp    406bbf <_ZN2CK5Caffe16test_convolutionEb+0x604>
  406bbc:	48 89 c3             	mov    %rax,%rbx
  406bbf:	48 8d 85 d0 f7 ff ff 	lea    -0x830(%rbp),%rax
  406bc6:	48 89 c7             	mov    %rax,%rdi
  406bc9:	e8 74 03 00 00       	callq  406f42 <_ZNSt6vectorIPN5caffe4BlobIfEESaIS3_EED1Ev>
  406bce:	eb 03                	jmp    406bd3 <_ZN2CK5Caffe16test_convolutionEb+0x618>
  406bd0:	48 89 c3             	mov    %rax,%rbx
  406bd3:	48 8d 85 b0 f7 ff ff 	lea    -0x850(%rbp),%rax
  406bda:	48 89 c7             	mov    %rax,%rdi
  406bdd:	e8 60 03 00 00       	callq  406f42 <_ZNSt6vectorIPN5caffe4BlobIfEESaIS3_EED1Ev>
  406be2:	48 89 d8             	mov    %rbx,%rax
  406be5:	48 89 c7             	mov    %rax,%rdi
  406be8:	e8 c3 e3 ff ff       	callq  404fb0 <_Unwind_Resume@plt>
  406bed:	e8 2e e2 ff ff       	callq  404e20 <__stack_chk_fail@plt>
  406bf2:	48 81 c4 a0 08 00 00 	add    $0x8a0,%rsp
  406bf9:	5b                   	pop    %rbx
  406bfa:	41 5c                	pop    %r12
  406bfc:	5d                   	pop    %rbp
  406bfd:	c3                   	retq   

0000000000406bfe <_ZN6google12Check_LEImplIiiEEPNSt7__cxx1112basic_stringIcSt11char_traitsIcESaIcEEERKT_RKT0_PKc>:
  406bfe:	55                   	push   %rbp
  406bff:	48 89 e5             	mov    %rsp,%rbp
  406c02:	48 83 ec 20          	sub    $0x20,%rsp
  406c06:	48 89 7d f8          	mov    %rdi,-0x8(%rbp)
  406c0a:	48 89 75 f0          	mov    %rsi,-0x10(%rbp)
  406c0e:	48 89 55 e8          	mov    %rdx,-0x18(%rbp)
  406c12:	48 8b 45 f8          	mov    -0x8(%rbp),%rax
  406c16:	8b 10                	mov    (%rax),%edx
  406c18:	48 8b 45 f0          	mov    -0x10(%rbp),%rax
  406c1c:	8b 00                	mov    (%rax),%eax
  406c1e:	39 c2                	cmp    %eax,%edx
  406c20:	0f 9e c0             	setle  %al
  406c23:	0f b6 c0             	movzbl %al,%eax
  406c26:	48 85 c0             	test   %rax,%rax
  406c29:	74 07                	je     406c32 <_ZN6google12Check_LEImplIiiEEPNSt7__cxx1112basic_stringIcSt11char_traitsIcESaIcEEERKT_RKT0_PKc+0x34>
  406c2b:	b8 00 00 00 00       	mov    $0x0,%eax
  406c30:	eb 17                	jmp    406c49 <_ZN6google12Check_LEImplIiiEEPNSt7__cxx1112basic_stringIcSt11char_traitsIcESaIcEEERKT_RKT0_PKc+0x4b>
  406c32:	48 8b 55 e8          	mov    -0x18(%rbp),%rdx
  406c36:	48 8b 4d f0          	mov    -0x10(%rbp),%rcx
  406c3a:	48 8b 45 f8          	mov    -0x8(%rbp),%rax
  406c3e:	48 89 ce             	mov    %rcx,%rsi
  406c41:	48 89 c7             	mov    %rax,%rdi
  406c44:	e8 4d 0c 00 00       	callq  407896 <_ZN6google17MakeCheckOpStringIiiEEPNSt7__cxx1112basic_stringIcSt11char_traitsIcESaIcEEERKT_RKT0_PKc>
  406c49:	c9                   	leaveq 
  406c4a:	c3                   	retq   

0000000000406c4b <_ZN6google12Check_LTImplIiiEEPNSt7__cxx1112basic_stringIcSt11char_traitsIcESaIcEEERKT_RKT0_PKc>:
  406c4b:	55                   	push   %rbp
  406c4c:	48 89 e5             	mov    %rsp,%rbp
  406c4f:	48 83 ec 20          	sub    $0x20,%rsp
  406c53:	48 89 7d f8          	mov    %rdi,-0x8(%rbp)
  406c57:	48 89 75 f0          	mov    %rsi,-0x10(%rbp)
  406c5b:	48 89 55 e8          	mov    %rdx,-0x18(%rbp)
  406c5f:	48 8b 45 f8          	mov    -0x8(%rbp),%rax
  406c63:	8b 10                	mov    (%rax),%edx
  406c65:	48 8b 45 f0          	mov    -0x10(%rbp),%rax
  406c69:	8b 00                	mov    (%rax),%eax
  406c6b:	39 c2                	cmp    %eax,%edx
  406c6d:	0f 9c c0             	setl   %al
  406c70:	0f b6 c0             	movzbl %al,%eax
  406c73:	48 85 c0             	test   %rax,%rax
  406c76:	74 07                	je     406c7f <_ZN6google12Check_LTImplIiiEEPNSt7__cxx1112basic_stringIcSt11char_traitsIcESaIcEEERKT_RKT0_PKc+0x34>
  406c78:	b8 00 00 00 00       	mov    $0x0,%eax
  406c7d:	eb 17                	jmp    406c96 <_ZN6google12Check_LTImplIiiEEPNSt7__cxx1112basic_stringIcSt11char_traitsIcESaIcEEERKT_RKT0_PKc+0x4b>
  406c7f:	48 8b 55 e8          	mov    -0x18(%rbp),%rdx
  406c83:	48 8b 4d f0          	mov    -0x10(%rbp),%rcx
  406c87:	48 8b 45 f8          	mov    -0x8(%rbp),%rax
  406c8b:	48 89 ce             	mov    %rcx,%rsi
  406c8e:	48 89 c7             	mov    %rax,%rdi
  406c91:	e8 00 0c 00 00       	callq  407896 <_ZN6google17MakeCheckOpStringIiiEEPNSt7__cxx1112basic_stringIcSt11char_traitsIcESaIcEEERKT_RKT0_PKc>
  406c96:	c9                   	leaveq 
  406c97:	c3                   	retq   

0000000000406c98 <_ZN6google12Check_GEImplIiiEEPNSt7__cxx1112basic_stringIcSt11char_traitsIcESaIcEEERKT_RKT0_PKc>:
  406c98:	55                   	push   %rbp
  406c99:	48 89 e5             	mov    %rsp,%rbp
  406c9c:	48 83 ec 20          	sub    $0x20,%rsp
  406ca0:	48 89 7d f8          	mov    %rdi,-0x8(%rbp)
  406ca4:	48 89 75 f0          	mov    %rsi,-0x10(%rbp)
  406ca8:	48 89 55 e8          	mov    %rdx,-0x18(%rbp)
  406cac:	48 8b 45 f8          	mov    -0x8(%rbp),%rax
  406cb0:	8b 10                	mov    (%rax),%edx
  406cb2:	48 8b 45 f0          	mov    -0x10(%rbp),%rax
  406cb6:	8b 00                	mov    (%rax),%eax
  406cb8:	39 c2                	cmp    %eax,%edx
  406cba:	0f 9d c0             	setge  %al
  406cbd:	0f b6 c0             	movzbl %al,%eax
  406cc0:	48 85 c0             	test   %rax,%rax
  406cc3:	74 07                	je     406ccc <_ZN6google12Check_GEImplIiiEEPNSt7__cxx1112basic_stringIcSt11char_traitsIcESaIcEEERKT_RKT0_PKc+0x34>
  406cc5:	b8 00 00 00 00       	mov    $0x0,%eax
  406cca:	eb 17                	jmp    406ce3 <_ZN6google12Check_GEImplIiiEEPNSt7__cxx1112basic_stringIcSt11char_traitsIcESaIcEEERKT_RKT0_PKc+0x4b>
  406ccc:	48 8b 55 e8          	mov    -0x18(%rbp),%rdx
  406cd0:	48 8b 4d f0          	mov    -0x10(%rbp),%rcx
  406cd4:	48 8b 45 f8          	mov    -0x8(%rbp),%rax
  406cd8:	48 89 ce             	mov    %rcx,%rsi
  406cdb:	48 89 c7             	mov    %rax,%rdi
  406cde:	e8 b3 0b 00 00       	callq  407896 <_ZN6google17MakeCheckOpStringIiiEEPNSt7__cxx1112basic_stringIcSt11char_traitsIcESaIcEEERKT_RKT0_PKc>
  406ce3:	c9                   	leaveq 
  406ce4:	c3                   	retq   
  406ce5:	90                   	nop

0000000000406ce6 <_ZNK6google8protobuf13RepeatedFieldIfE4sizeEv>:
  406ce6:	55                   	push   %rbp
  406ce7:	48 89 e5             	mov    %rsp,%rbp
  406cea:	48 89 7d f8          	mov    %rdi,-0x8(%rbp)
  406cee:	48 8b 45 f8          	mov    -0x8(%rbp),%rax
  406cf2:	8b 00                	mov    (%rax),%eax
  406cf4:	5d                   	pop    %rbp
  406cf5:	c3                   	retq   

0000000000406cf6 <_ZNK6google8protobuf13RepeatedFieldIfE3GetEi>:
  406cf6:	55                   	push   %rbp
  406cf7:	48 89 e5             	mov    %rsp,%rbp
  406cfa:	41 54                	push   %r12
  406cfc:	53                   	push   %rbx
  406cfd:	48 81 ec a0 00 00 00 	sub    $0xa0,%rsp
  406d04:	48 89 bd 58 ff ff ff 	mov    %rdi,-0xa8(%rbp)
  406d0b:	89 b5 54 ff ff ff    	mov    %esi,-0xac(%rbp)
  406d11:	64 48 8b 04 25 28 00 	mov    %fs:0x28,%rax
  406d18:	00 00 
  406d1a:	48 89 45 e8          	mov    %rax,-0x18(%rbp)
  406d1e:	31 c0                	xor    %eax,%eax
  406d20:	bb 00 00 00 00       	mov    $0x0,%ebx
  406d25:	41 bc 00 00 00 00    	mov    $0x0,%r12d
  406d2b:	83 bd 54 ff ff ff 00 	cmpl   $0x0,-0xac(%rbp)
  406d32:	79 52                	jns    406d86 <_ZNK6google8protobuf13RepeatedFieldIfE3GetEi+0x90>
  406d34:	48 8d 85 70 ff ff ff 	lea    -0x90(%rbp),%rax
  406d3b:	b9 43 04 00 00       	mov    $0x443,%ecx
  406d40:	ba f8 d3 40 00       	mov    $0x40d3f8,%edx
  406d45:	be 03 00 00 00       	mov    $0x3,%esi
  406d4a:	48 89 c7             	mov    %rax,%rdi
  406d4d:	e8 0e e2 ff ff       	callq  404f60 <_ZN6google8protobuf8internal10LogMessageC1ENS0_8LogLevelEPKci@plt>
  406d52:	bb 01 00 00 00       	mov    $0x1,%ebx
  406d57:	48 8d 85 70 ff ff ff 	lea    -0x90(%rbp),%rax
  406d5e:	be 68 d4 40 00       	mov    $0x40d468,%esi
  406d63:	48 89 c7             	mov    %rax,%rdi
  406d66:	e8 55 e5 ff ff       	callq  4052c0 <_ZN6google8protobuf8internal10LogMessagelsEPKc@plt>
  406d6b:	48 89 c2             	mov    %rax,%rdx
  406d6e:	41 bc 01 00 00 00    	mov    $0x1,%r12d
  406d74:	48 8d 85 6e ff ff ff 	lea    -0x92(%rbp),%rax
  406d7b:	48 89 d6             	mov    %rdx,%rsi
  406d7e:	48 89 c7             	mov    %rax,%rdi
  406d81:	e8 da e2 ff ff       	callq  405060 <_ZN6google8protobuf8internal11LogFinisheraSERNS1_10LogMessageE@plt>
  406d86:	45 84 e4             	test   %r12b,%r12b
  406d89:	84 db                	test   %bl,%bl
  406d8b:	74 12                	je     406d9f <_ZNK6google8protobuf13RepeatedFieldIfE3GetEi+0xa9>
  406d8d:	90                   	nop
  406d8e:	48 8d 85 70 ff ff ff 	lea    -0x90(%rbp),%rax
  406d95:	48 89 c7             	mov    %rax,%rdi
  406d98:	e8 63 e3 ff ff       	callq  405100 <_ZN6google8protobuf8internal10LogMessageD1Ev@plt>
  406d9d:	eb 01                	jmp    406da0 <_ZNK6google8protobuf13RepeatedFieldIfE3GetEi+0xaa>
  406d9f:	90                   	nop
  406da0:	48 8b 85 58 ff ff ff 	mov    -0xa8(%rbp),%rax
  406da7:	8b 00                	mov    (%rax),%eax
  406da9:	bb 00 00 00 00       	mov    $0x0,%ebx
  406dae:	41 bc 00 00 00 00    	mov    $0x0,%r12d
  406db4:	3b 85 54 ff ff ff    	cmp    -0xac(%rbp),%eax
  406dba:	7f 4c                	jg     406e08 <_ZNK6google8protobuf13RepeatedFieldIfE3GetEi+0x112>
  406dbc:	48 8d 45 b0          	lea    -0x50(%rbp),%rax
  406dc0:	b9 44 04 00 00       	mov    $0x444,%ecx
  406dc5:	ba f8 d3 40 00       	mov    $0x40d3f8,%edx
  406dca:	be 03 00 00 00       	mov    $0x3,%esi
  406dcf:	48 89 c7             	mov    %rax,%rdi
  406dd2:	e8 89 e1 ff ff       	callq  404f60 <_ZN6google8protobuf8internal10LogMessageC1ENS0_8LogLevelEPKci@plt>
  406dd7:	bb 01 00 00 00       	mov    $0x1,%ebx
  406ddc:	48 8d 45 b0          	lea    -0x50(%rbp),%rax
  406de0:	be 88 d4 40 00       	mov    $0x40d488,%esi
  406de5:	48 89 c7             	mov    %rax,%rdi
  406de8:	e8 d3 e4 ff ff       	callq  4052c0 <_ZN6google8protobuf8internal10LogMessagelsEPKc@plt>
  406ded:	48 89 c2             	mov    %rax,%rdx
  406df0:	41 bc 01 00 00 00    	mov    $0x1,%r12d
  406df6:	48 8d 85 6f ff ff ff 	lea    -0x91(%rbp),%rax
  406dfd:	48 89 d6             	mov    %rdx,%rsi
  406e00:	48 89 c7             	mov    %rax,%rdi
  406e03:	e8 58 e2 ff ff       	callq  405060 <_ZN6google8protobuf8internal11LogFinisheraSERNS1_10LogMessageE@plt>
  406e08:	45 84 e4             	test   %r12b,%r12b
  406e0b:	84 db                	test   %bl,%bl
  406e0d:	74 0f                	je     406e1e <_ZNK6google8protobuf13RepeatedFieldIfE3GetEi+0x128>
  406e0f:	90                   	nop
  406e10:	48 8d 45 b0          	lea    -0x50(%rbp),%rax
  406e14:	48 89 c7             	mov    %rax,%rdi
  406e17:	e8 e4 e2 ff ff       	callq  405100 <_ZN6google8protobuf8internal10LogMessageD1Ev@plt>
  406e1c:	eb 01                	jmp    406e1f <_ZNK6google8protobuf13RepeatedFieldIfE3GetEi+0x129>
  406e1e:	90                   	nop
  406e1f:	48 8b 85 58 ff ff ff 	mov    -0xa8(%rbp),%rax
  406e26:	48 8b 40 08          	mov    0x8(%rax),%rax
  406e2a:	8b 95 54 ff ff ff    	mov    -0xac(%rbp),%edx
  406e30:	48 63 d2             	movslq %edx,%rdx
  406e33:	48 c1 e2 02          	shl    $0x2,%rdx
  406e37:	48 01 d0             	add    %rdx,%rax
  406e3a:	48 83 c0 08          	add    $0x8,%rax
  406e3e:	48 8b 4d e8          	mov    -0x18(%rbp),%rcx
  406e42:	64 48 33 0c 25 28 00 	xor    %fs:0x28,%rcx
  406e49:	00 00 
  406e4b:	74 54                	je     406ea1 <_ZNK6google8protobuf13RepeatedFieldIfE3GetEi+0x1ab>
  406e4d:	eb 4d                	jmp    406e9c <_ZNK6google8protobuf13RepeatedFieldIfE3GetEi+0x1a6>
  406e4f:	45 84 e4             	test   %r12b,%r12b
  406e52:	49 89 c4             	mov    %rax,%r12
  406e55:	84 db                	test   %bl,%bl
  406e57:	74 12                	je     406e6b <_ZNK6google8protobuf13RepeatedFieldIfE3GetEi+0x175>
  406e59:	90                   	nop
  406e5a:	48 8d 85 70 ff ff ff 	lea    -0x90(%rbp),%rax
  406e61:	48 89 c7             	mov    %rax,%rdi
  406e64:	e8 97 e2 ff ff       	callq  405100 <_ZN6google8protobuf8internal10LogMessageD1Ev@plt>
  406e69:	eb 01                	jmp    406e6c <_ZNK6google8protobuf13RepeatedFieldIfE3GetEi+0x176>
  406e6b:	90                   	nop
  406e6c:	4c 89 e0             	mov    %r12,%rax
  406e6f:	48 89 c7             	mov    %rax,%rdi
  406e72:	e8 39 e1 ff ff       	callq  404fb0 <_Unwind_Resume@plt>
  406e77:	45 84 e4             	test   %r12b,%r12b
  406e7a:	49 89 c4             	mov    %rax,%r12
  406e7d:	84 db                	test   %bl,%bl
  406e7f:	74 0f                	je     406e90 <_ZNK6google8protobuf13RepeatedFieldIfE3GetEi+0x19a>
  406e81:	90                   	nop
  406e82:	48 8d 45 b0          	lea    -0x50(%rbp),%rax
  406e86:	48 89 c7             	mov    %rax,%rdi
  406e89:	e8 72 e2 ff ff       	callq  405100 <_ZN6google8protobuf8internal10LogMessageD1Ev@plt>
  406e8e:	eb 01                	jmp    406e91 <_ZNK6google8protobuf13RepeatedFieldIfE3GetEi+0x19b>
  406e90:	90                   	nop
  406e91:	4c 89 e0             	mov    %r12,%rax
  406e94:	48 89 c7             	mov    %rax,%rdi
  406e97:	e8 14 e1 ff ff       	callq  404fb0 <_Unwind_Resume@plt>
  406e9c:	e8 7f df ff ff       	callq  404e20 <__stack_chk_fail@plt>
  406ea1:	48 81 c4 a0 00 00 00 	add    $0xa0,%rsp
  406ea8:	5b                   	pop    %rbx
  406ea9:	41 5c                	pop    %r12
  406eab:	5d                   	pop    %rbp
  406eac:	c3                   	retq   
  406ead:	90                   	nop

0000000000406eae <_ZNK6google8protobuf16RepeatedPtrFieldIN5caffe9BlobProtoEE4sizeEv>:
  406eae:	55                   	push   %rbp
  406eaf:	48 89 e5             	mov    %rsp,%rbp
  406eb2:	48 83 ec 10          	sub    $0x10,%rsp
  406eb6:	48 89 7d f8          	mov    %rdi,-0x8(%rbp)
  406eba:	48 8b 45 f8          	mov    -0x8(%rbp),%rax
  406ebe:	48 89 c7             	mov    %rax,%rdi
  406ec1:	e8 28 ea ff ff       	callq  4058ee <_ZNK6google8protobuf8internal20RepeatedPtrFieldBase4sizeEv>
  406ec6:	c9                   	leaveq 
  406ec7:	c3                   	retq   

0000000000406ec8 <_ZN6google8protobuf16RepeatedPtrFieldIN5caffe9BlobProtoEE5ClearEv>:
  406ec8:	55                   	push   %rbp
  406ec9:	48 89 e5             	mov    %rsp,%rbp
  406ecc:	48 83 ec 10          	sub    $0x10,%rsp
  406ed0:	48 89 7d f8          	mov    %rdi,-0x8(%rbp)
  406ed4:	48 8b 45 f8          	mov    -0x8(%rbp),%rax
  406ed8:	48 89 c7             	mov    %rax,%rdi
  406edb:	e8 7e 0a 00 00       	callq  40795e <_ZN6google8protobuf8internal20RepeatedPtrFieldBase5ClearINS0_16RepeatedPtrFieldIN5caffe9BlobProtoEE11TypeHandlerEEEvv>
  406ee0:	90                   	nop
  406ee1:	c9                   	leaveq 
  406ee2:	c3                   	retq   
  406ee3:	90                   	nop

0000000000406ee4 <_ZNK6google8protobuf16RepeatedPtrFieldIN5caffe9BlobProtoEE3GetEi>:
  406ee4:	55                   	push   %rbp
  406ee5:	48 89 e5             	mov    %rsp,%rbp
  406ee8:	48 83 ec 10          	sub    $0x10,%rsp
  406eec:	48 89 7d f8          	mov    %rdi,-0x8(%rbp)
  406ef0:	89 75 f4             	mov    %esi,-0xc(%rbp)
  406ef3:	48 8b 45 f8          	mov    -0x8(%rbp),%rax
  406ef7:	8b 55 f4             	mov    -0xc(%rbp),%edx
  406efa:	89 d6                	mov    %edx,%esi
  406efc:	48 89 c7             	mov    %rax,%rdi
  406eff:	e8 9c 0b 00 00       	callq  407aa0 <_ZNK6google8protobuf8internal20RepeatedPtrFieldBase3GetINS0_16RepeatedPtrFieldIN5caffe9BlobProtoEE11TypeHandlerEEERKNT_4TypeEi>
  406f04:	c9                   	leaveq 
  406f05:	c3                   	retq   

0000000000406f06 <_ZN6google8protobuf16RepeatedPtrFieldIN5caffe9BlobProtoEE3AddEv>:
  406f06:	55                   	push   %rbp
  406f07:	48 89 e5             	mov    %rsp,%rbp
  406f0a:	48 83 ec 10          	sub    $0x10,%rsp
  406f0e:	48 89 7d f8          	mov    %rdi,-0x8(%rbp)
  406f12:	48 8b 45 f8          	mov    -0x8(%rbp),%rax
  406f16:	be 00 00 00 00       	mov    $0x0,%esi
  406f1b:	48 89 c7             	mov    %rax,%rdi
  406f1e:	e8 37 0d 00 00       	callq  407c5a <_ZN6google8protobuf8internal20RepeatedPtrFieldBase3AddINS0_16RepeatedPtrFieldIN5caffe9BlobProtoEE11TypeHandlerEEEPNT_4TypeESB_>
  406f23:	c9                   	leaveq 
  406f24:	c3                   	retq   
  406f25:	90                   	nop

0000000000406f26 <_ZNSt6vectorIPN5caffe4BlobIfEESaIS3_EEC1Ev>:
  406f26:	55                   	push   %rbp
  406f27:	48 89 e5             	mov    %rsp,%rbp
  406f2a:	48 83 ec 10          	sub    $0x10,%rsp
  406f2e:	48 89 7d f8          	mov    %rdi,-0x8(%rbp)
  406f32:	48 8b 45 f8          	mov    -0x8(%rbp),%rax
  406f36:	48 89 c7             	mov    %rax,%rdi
  406f39:	e8 24 0e 00 00       	callq  407d62 <_ZNSt12_Vector_baseIPN5caffe4BlobIfEESaIS3_EEC1Ev>
  406f3e:	90                   	nop
  406f3f:	c9                   	leaveq 
  406f40:	c3                   	retq   
  406f41:	90                   	nop

0000000000406f42 <_ZNSt6vectorIPN5caffe4BlobIfEESaIS3_EED1Ev>:
  406f42:	55                   	push   %rbp
  406f43:	48 89 e5             	mov    %rsp,%rbp
  406f46:	48 83 ec 10          	sub    $0x10,%rsp
  406f4a:	48 89 7d f8          	mov    %rdi,-0x8(%rbp)
  406f4e:	48 8b 45 f8          	mov    -0x8(%rbp),%rax
  406f52:	48 89 c7             	mov    %rax,%rdi
  406f55:	e8 74 0e 00 00       	callq  407dce <_ZNSt12_Vector_baseIPN5caffe4BlobIfEESaIS3_EE19_M_get_Tp_allocatorEv>
  406f5a:	48 89 c2             	mov    %rax,%rdx
  406f5d:	48 8b 45 f8          	mov    -0x8(%rbp),%rax
  406f61:	48 8b 48 08          	mov    0x8(%rax),%rcx
  406f65:	48 8b 45 f8          	mov    -0x8(%rbp),%rax
  406f69:	48 8b 00             	mov    (%rax),%rax
  406f6c:	48 89 ce             	mov    %rcx,%rsi
  406f6f:	48 89 c7             	mov    %rax,%rdi
  406f72:	e8 65 0e 00 00       	callq  407ddc <_ZSt8_DestroyIPPN5caffe4BlobIfEES3_EvT_S5_RSaIT0_E>
  406f77:	48 8b 45 f8          	mov    -0x8(%rbp),%rax
  406f7b:	48 89 c7             	mov    %rax,%rdi
  406f7e:	e8 fb 0d 00 00       	callq  407d7e <_ZNSt12_Vector_baseIPN5caffe4BlobIfEESaIS3_EED1Ev>
  406f83:	90                   	nop
  406f84:	c9                   	leaveq 
  406f85:	c3                   	retq   

0000000000406f86 <_ZNSt6vectorIPN5caffe4BlobIfEESaIS3_EE9push_backERKS3_>:
  406f86:	55                   	push   %rbp
  406f87:	48 89 e5             	mov    %rsp,%rbp
  406f8a:	48 83 ec 10          	sub    $0x10,%rsp
  406f8e:	48 89 7d f8          	mov    %rdi,-0x8(%rbp)
  406f92:	48 89 75 f0          	mov    %rsi,-0x10(%rbp)
  406f96:	48 8b 45 f8          	mov    -0x8(%rbp),%rax
  406f9a:	48 8b 50 08          	mov    0x8(%rax),%rdx
  406f9e:	48 8b 45 f8          	mov    -0x8(%rbp),%rax
  406fa2:	48 8b 40 10          	mov    0x10(%rax),%rax
  406fa6:	48 39 c2             	cmp    %rax,%rdx
  406fa9:	74 31                	je     406fdc <_ZNSt6vectorIPN5caffe4BlobIfEESaIS3_EE9push_backERKS3_+0x56>
  406fab:	48 8b 45 f8          	mov    -0x8(%rbp),%rax
  406faf:	48 8b 48 08          	mov    0x8(%rax),%rcx
  406fb3:	48 8b 45 f8          	mov    -0x8(%rbp),%rax
  406fb7:	48 8b 55 f0          	mov    -0x10(%rbp),%rdx
  406fbb:	48 89 ce             	mov    %rcx,%rsi
  406fbe:	48 89 c7             	mov    %rax,%rdi
  406fc1:	e8 4e 0e 00 00       	callq  407e14 <_ZNSt16allocator_traitsISaIPN5caffe4BlobIfEEEE9constructIS3_JRKS3_EEEvRS4_PT_DpOT0_>
  406fc6:	48 8b 45 f8          	mov    -0x8(%rbp),%rax
  406fca:	48 8b 40 08          	mov    0x8(%rax),%rax
  406fce:	48 8d 50 08          	lea    0x8(%rax),%rdx
  406fd2:	48 8b 45 f8          	mov    -0x8(%rbp),%rax
  406fd6:	48 89 50 08          	mov    %rdx,0x8(%rax)
  406fda:	eb 13                	jmp    406fef <_ZNSt6vectorIPN5caffe4BlobIfEESaIS3_EE9push_backERKS3_+0x69>
  406fdc:	48 8b 55 f0          	mov    -0x10(%rbp),%rdx
  406fe0:	48 8b 45 f8          	mov    -0x8(%rbp),%rax
  406fe4:	48 89 d6             	mov    %rdx,%rsi
  406fe7:	48 89 c7             	mov    %rax,%rdi
  406fea:	e8 5f 0e 00 00       	callq  407e4e <_ZNSt6vectorIPN5caffe4BlobIfEESaIS3_EE19_M_emplace_back_auxIJRKS3_EEEvDpOT_>
  406fef:	90                   	nop
  406ff0:	c9                   	leaveq 
  406ff1:	c3                   	retq   

0000000000406ff2 <_ZN5caffe4BlobIfEC1Ev>:
  406ff2:	55                   	push   %rbp
  406ff3:	48 89 e5             	mov    %rsp,%rbp
  406ff6:	48 83 ec 10          	sub    $0x10,%rsp
  406ffa:	48 89 7d f8          	mov    %rdi,-0x8(%rbp)
  406ffe:	48 8b 45 f8          	mov    -0x8(%rbp),%rax
  407002:	48 89 c7             	mov    %rax,%rdi
  407005:	e8 2e 10 00 00       	callq  408038 <_ZN5boost10shared_ptrIN5caffe12SyncedMemoryEEC1Ev>
  40700a:	48 8b 45 f8          	mov    -0x8(%rbp),%rax
  40700e:	48 83 c0 10          	add    $0x10,%rax
  407012:	48 89 c7             	mov    %rax,%rdi
  407015:	e8 1e 10 00 00       	callq  408038 <_ZN5boost10shared_ptrIN5caffe12SyncedMemoryEEC1Ev>
  40701a:	48 8b 45 f8          	mov    -0x8(%rbp),%rax
  40701e:	48 83 c0 20          	add    $0x20,%rax
  407022:	48 89 c7             	mov    %rax,%rdi
  407025:	e8 0e 10 00 00       	callq  408038 <_ZN5boost10shared_ptrIN5caffe12SyncedMemoryEEC1Ev>
  40702a:	48 8b 45 f8          	mov    -0x8(%rbp),%rax
  40702e:	48 83 c0 30          	add    $0x30,%rax
  407032:	48 89 c7             	mov    %rax,%rdi
  407035:	e8 28 10 00 00       	callq  408062 <_ZNSt6vectorIiSaIiEEC1Ev>
  40703a:	48 8b 45 f8          	mov    -0x8(%rbp),%rax
  40703e:	c7 40 48 00 00 00 00 	movl   $0x0,0x48(%rax)
  407045:	48 8b 45 f8          	mov    -0x8(%rbp),%rax
  407049:	c7 40 4c 00 00 00 00 	movl   $0x0,0x4c(%rax)
  407050:	90                   	nop
  407051:	c9                   	leaveq 
  407052:	c3                   	retq   
  407053:	90                   	nop

0000000000407054 <_ZN5caffe4BlobIiED1Ev>:
  407054:	55                   	push   %rbp
  407055:	48 89 e5             	mov    %rsp,%rbp
  407058:	48 83 ec 10          	sub    $0x10,%rsp
  40705c:	48 89 7d f8          	mov    %rdi,-0x8(%rbp)
  407060:	48 8b 45 f8          	mov    -0x8(%rbp),%rax
  407064:	48 83 c0 30          	add    $0x30,%rax
  407068:	48 89 c7             	mov    %rax,%rdi
  40706b:	e8 e2 07 00 00       	callq  407852 <_ZNSt6vectorIiSaIiEED1Ev>
  407070:	48 8b 45 f8          	mov    -0x8(%rbp),%rax
  407074:	48 83 c0 20          	add    $0x20,%rax
  407078:	48 89 c7             	mov    %rax,%rdi
  40707b:	e8 d0 f4 ff ff       	callq  406550 <_ZN5boost10shared_ptrIN5caffe12SyncedMemoryEED1Ev>
  407080:	48 8b 45 f8          	mov    -0x8(%rbp),%rax
  407084:	48 83 c0 10          	add    $0x10,%rax
  407088:	48 89 c7             	mov    %rax,%rdi
  40708b:	e8 c0 f4 ff ff       	callq  406550 <_ZN5boost10shared_ptrIN5caffe12SyncedMemoryEED1Ev>
  407090:	48 8b 45 f8          	mov    -0x8(%rbp),%rax
  407094:	48 89 c7             	mov    %rax,%rdi
  407097:	e8 b4 f4 ff ff       	callq  406550 <_ZN5boost10shared_ptrIN5caffe12SyncedMemoryEED1Ev>
  40709c:	90                   	nop
  40709d:	c9                   	leaveq 
  40709e:	c3                   	retq   
  40709f:	90                   	nop

00000000004070a0 <_ZN5caffe20BaseConvolutionLayerIfED1Ev>:
  4070a0:	55                   	push   %rbp
  4070a1:	48 89 e5             	mov    %rsp,%rbp
  4070a4:	48 83 ec 10          	sub    $0x10,%rsp
  4070a8:	48 89 7d f8          	mov    %rdi,-0x8(%rbp)
  4070ac:	ba a8 dd 40 00       	mov    $0x40dda8,%edx
  4070b1:	48 8b 45 f8          	mov    -0x8(%rbp),%rax
  4070b5:	48 89 10             	mov    %rdx,(%rax)
  4070b8:	48 8b 45 f8          	mov    -0x8(%rbp),%rax
  4070bc:	48 05 28 05 00 00    	add    $0x528,%rax
  4070c2:	48 89 c7             	mov    %rax,%rdi
  4070c5:	e8 a6 f4 ff ff       	callq  406570 <_ZN5caffe4BlobIfED1Ev>
  4070ca:	48 8b 45 f8          	mov    -0x8(%rbp),%rax
  4070ce:	48 05 d8 04 00 00    	add    $0x4d8,%rax
  4070d4:	48 89 c7             	mov    %rax,%rdi
  4070d7:	e8 94 f4 ff ff       	callq  406570 <_ZN5caffe4BlobIfED1Ev>
  4070dc:	48 8b 45 f8          	mov    -0x8(%rbp),%rax
  4070e0:	48 05 68 04 00 00    	add    $0x468,%rax
  4070e6:	48 89 c7             	mov    %rax,%rdi
  4070e9:	e8 64 07 00 00       	callq  407852 <_ZNSt6vectorIiSaIiEED1Ev>
  4070ee:	48 8b 45 f8          	mov    -0x8(%rbp),%rax
  4070f2:	48 05 50 04 00 00    	add    $0x450,%rax
  4070f8:	48 89 c7             	mov    %rax,%rdi
  4070fb:	e8 52 07 00 00       	callq  407852 <_ZNSt6vectorIiSaIiEED1Ev>
  407100:	48 8b 45 f8          	mov    -0x8(%rbp),%rax
  407104:	48 05 00 04 00 00    	add    $0x400,%rax
  40710a:	48 89 c7             	mov    %rax,%rdi
  40710d:	e8 42 ff ff ff       	callq  407054 <_ZN5caffe4BlobIiED1Ev>
  407112:	48 8b 45 f8          	mov    -0x8(%rbp),%rax
  407116:	48 05 b0 03 00 00    	add    $0x3b0,%rax
  40711c:	48 89 c7             	mov    %rax,%rdi
  40711f:	e8 30 ff ff ff       	callq  407054 <_ZN5caffe4BlobIiED1Ev>
  407124:	48 8b 45 f8          	mov    -0x8(%rbp),%rax
  407128:	48 05 60 03 00 00    	add    $0x360,%rax
  40712e:	48 89 c7             	mov    %rax,%rdi
  407131:	e8 1e ff ff ff       	callq  407054 <_ZN5caffe4BlobIiED1Ev>
  407136:	48 8b 45 f8          	mov    -0x8(%rbp),%rax
  40713a:	48 05 10 03 00 00    	add    $0x310,%rax
  407140:	48 89 c7             	mov    %rax,%rdi
  407143:	e8 0c ff ff ff       	callq  407054 <_ZN5caffe4BlobIiED1Ev>
  407148:	48 8b 45 f8          	mov    -0x8(%rbp),%rax
  40714c:	48 05 c0 02 00 00    	add    $0x2c0,%rax
  407152:	48 89 c7             	mov    %rax,%rdi
  407155:	e8 fa fe ff ff       	callq  407054 <_ZN5caffe4BlobIiED1Ev>
  40715a:	48 8b 45 f8          	mov    -0x8(%rbp),%rax
  40715e:	48 89 c7             	mov    %rax,%rdi
  407161:	e8 ec 0f 00 00       	callq  408152 <_ZN5caffe5LayerIfED1Ev>
  407166:	90                   	nop
  407167:	c9                   	leaveq 
  407168:	c3                   	retq   
  407169:	90                   	nop

000000000040716a <_ZN5caffe20BaseConvolutionLayerIfED0Ev>:
  40716a:	55                   	push   %rbp
  40716b:	48 89 e5             	mov    %rsp,%rbp
  40716e:	48 83 ec 10          	sub    $0x10,%rsp
  407172:	48 89 7d f8          	mov    %rdi,-0x8(%rbp)
  407176:	48 8b 45 f8          	mov    -0x8(%rbp),%rax
  40717a:	48 89 c7             	mov    %rax,%rdi
  40717d:	e8 1e ff ff ff       	callq  4070a0 <_ZN5caffe20BaseConvolutionLayerIfED1Ev>
  407182:	48 8b 45 f8          	mov    -0x8(%rbp),%rax
  407186:	48 89 c7             	mov    %rax,%rdi
  407189:	e8 92 dd ff ff       	callq  404f20 <_ZdlPv@plt>
  40718e:	c9                   	leaveq 
  40718f:	c3                   	retq   

0000000000407190 <_ZN5caffe16ConvolutionLayerIfEC1ERKNS_14LayerParameterE>:
  407190:	55                   	push   %rbp
  407191:	48 89 e5             	mov    %rsp,%rbp
  407194:	48 83 ec 10          	sub    $0x10,%rsp
  407198:	48 89 7d f8          	mov    %rdi,-0x8(%rbp)
  40719c:	48 89 75 f0          	mov    %rsi,-0x10(%rbp)
  4071a0:	48 8b 45 f8          	mov    -0x8(%rbp),%rax
  4071a4:	48 8b 55 f0          	mov    -0x10(%rbp),%rdx
  4071a8:	48 89 d6             	mov    %rdx,%rsi
  4071ab:	48 89 c7             	mov    %rax,%rdi
  4071ae:	e8 cb 0e 00 00       	callq  40807e <_ZN5caffe20BaseConvolutionLayerIfEC1ERKNS_14LayerParameterE>
  4071b3:	ba e8 dc 40 00       	mov    $0x40dce8,%edx
  4071b8:	48 8b 45 f8          	mov    -0x8(%rbp),%rax
  4071bc:	48 89 10             	mov    %rdx,(%rax)
  4071bf:	90                   	nop
  4071c0:	c9                   	leaveq 
  4071c1:	c3                   	retq   

00000000004071c2 <_ZN5caffe5LayerIfE5SetUpERKSt6vectorIPNS_4BlobIfEESaIS5_EES9_>:
  4071c2:	55                   	push   %rbp
  4071c3:	48 89 e5             	mov    %rsp,%rbp
  4071c6:	48 83 ec 20          	sub    $0x20,%rsp
  4071ca:	48 89 7d f8          	mov    %rdi,-0x8(%rbp)
  4071ce:	48 89 75 f0          	mov    %rsi,-0x10(%rbp)
  4071d2:	48 89 55 e8          	mov    %rdx,-0x18(%rbp)
  4071d6:	48 8b 45 f8          	mov    -0x8(%rbp),%rax
  4071da:	48 8b 00             	mov    (%rax),%rax
  4071dd:	48 05 98 00 00 00    	add    $0x98,%rax
  4071e3:	48 8b 00             	mov    (%rax),%rax
  4071e6:	48 8b 55 e8          	mov    -0x18(%rbp),%rdx
  4071ea:	48 8b 75 f0          	mov    -0x10(%rbp),%rsi
  4071ee:	48 8b 4d f8          	mov    -0x8(%rbp),%rcx
  4071f2:	48 89 cf             	mov    %rcx,%rdi
  4071f5:	ff d0                	callq  *%rax
  4071f7:	48 8b 45 f8          	mov    -0x8(%rbp),%rax
  4071fb:	48 8b 00             	mov    (%rax),%rax
  4071fe:	48 83 c0 10          	add    $0x10,%rax
  407202:	48 8b 00             	mov    (%rax),%rax
  407205:	48 8b 55 e8          	mov    -0x18(%rbp),%rdx
  407209:	48 8b 75 f0          	mov    -0x10(%rbp),%rsi
  40720d:	48 8b 4d f8          	mov    -0x8(%rbp),%rcx
  407211:	48 89 cf             	mov    %rcx,%rdi
  407214:	ff d0                	callq  *%rax
  407216:	48 8b 45 f8          	mov    -0x8(%rbp),%rax
  40721a:	48 8b 00             	mov    (%rax),%rax
  40721d:	48 83 c0 18          	add    $0x18,%rax
  407221:	48 8b 00             	mov    (%rax),%rax
  407224:	48 8b 55 e8          	mov    -0x18(%rbp),%rdx
  407228:	48 8b 75 f0          	mov    -0x10(%rbp),%rsi
  40722c:	48 8b 4d f8          	mov    -0x8(%rbp),%rcx
  407230:	48 89 cf             	mov    %rcx,%rdi
  407233:	ff d0                	callq  *%rax
  407235:	48 8b 55 e8          	mov    -0x18(%rbp),%rdx
  407239:	48 8b 45 f8          	mov    -0x8(%rbp),%rax
  40723d:	48 89 d6             	mov    %rdx,%rsi
  407240:	48 89 c7             	mov    %rax,%rdi
  407243:	e8 5e 18 00 00       	callq  408aa6 <_ZN5caffe5LayerIfE14SetLossWeightsERKSt6vectorIPNS_4BlobIfEESaIS5_EE>
  407248:	90                   	nop
  407249:	c9                   	leaveq 
  40724a:	c3                   	retq   

000000000040724b <_ZN2CK13measure_setupIZNS_5Caffe16test_convolutionEbEUlvE_EEvOT_>:
  40724b:	55                   	push   %rbp
  40724c:	48 89 e5             	mov    %rsp,%rbp
  40724f:	48 83 ec 10          	sub    $0x10,%rsp
  407253:	48 89 7d f8          	mov    %rdi,-0x8(%rbp)
  407257:	48 8b 45 f8          	mov    -0x8(%rbp),%rax
  40725b:	be 00 00 00 00       	mov    $0x0,%esi
  407260:	48 89 c7             	mov    %rax,%rdi
  407263:	e8 26 1a 00 00       	callq  408c8e <_ZN2CK11do_measuredIRZNS_5Caffe16test_convolutionEbEUlvE_EEvOT_i>
  407268:	bf 00 00 00 00       	mov    $0x0,%edi
  40726d:	e8 8e dc ff ff       	callq  404f00 <xopenme_get_timer@plt>
  407272:	f2 0f 5a c0          	cvtsd2ss %xmm0,%xmm0
  407276:	e8 7b e1 ff ff       	callq  4053f6 <_ZN2CK16store_setup_timeEf>
  40727b:	90                   	nop
  40727c:	c9                   	leaveq 
  40727d:	c3                   	retq   

000000000040727e <_ZN2CK19get_random_raw_dataIfEEPT_RKNS_5ShapeE>:
  40727e:	55                   	push   %rbp
  40727f:	48 89 e5             	mov    %rsp,%rbp
  407282:	53                   	push   %rbx
  407283:	48 83 ec 38          	sub    $0x38,%rsp
  407287:	48 89 7d c8          	mov    %rdi,-0x38(%rbp)
  40728b:	ba 20 00 00 00       	mov    $0x20,%edx
  407290:	be b2 d4 40 00       	mov    $0x40d4b2,%esi
  407295:	bf 09 00 00 00       	mov    $0x9,%edi
  40729a:	e8 01 ef ff ff       	callq  4061a0 <_ZN2CK13store_value_iEiPKci>
  40729f:	c7 45 dc 40 42 0f 00 	movl   $0xf4240,-0x24(%rbp)
  4072a6:	c7 45 e0 81 84 1e 00 	movl   $0x1e8481,-0x20(%rbp)
  4072ad:	48 8b 45 c8          	mov    -0x38(%rbp),%rax
  4072b1:	48 89 c7             	mov    %rax,%rdi
  4072b4:	e8 b5 ed ff ff       	callq  40606e <_ZNK2CK5Shape10data_countEv>
  4072b9:	89 45 e4             	mov    %eax,-0x1c(%rbp)
  4072bc:	8b 45 e4             	mov    -0x1c(%rbp),%eax
  4072bf:	48 63 d0             	movslq %eax,%rdx
  4072c2:	48 b8 fe ff ff ff ff 	movabs $0x1ffffffffffffffe,%rax
  4072c9:	ff ff 1f 
  4072cc:	48 39 c2             	cmp    %rax,%rdx
  4072cf:	77 1e                	ja     4072ef <_ZN2CK19get_random_raw_dataIfEEPT_RKNS_5ShapeE+0x71>
  4072d1:	8b 45 e4             	mov    -0x1c(%rbp),%eax
  4072d4:	48 98                	cltq   
  4072d6:	48 c1 e0 02          	shl    $0x2,%rax
  4072da:	48 89 c7             	mov    %rax,%rdi
  4072dd:	e8 fe db ff ff       	callq  404ee0 <_Znam@plt>
  4072e2:	48 89 45 e8          	mov    %rax,-0x18(%rbp)
  4072e6:	c7 45 d8 00 00 00 00 	movl   $0x0,-0x28(%rbp)
  4072ed:	eb 05                	jmp    4072f4 <_ZN2CK19get_random_raw_dataIfEEPT_RKNS_5ShapeE+0x76>
  4072ef:	e8 8c dd ff ff       	callq  405080 <__cxa_throw_bad_array_new_length@plt>
  4072f4:	8b 45 d8             	mov    -0x28(%rbp),%eax
  4072f7:	3b 45 e4             	cmp    -0x1c(%rbp),%eax
  4072fa:	7d 5e                	jge    40735a <_ZN2CK19get_random_raw_dataIfEEPT_RKNS_5ShapeE+0xdc>
  4072fc:	8b 45 d8             	mov    -0x28(%rbp),%eax
  4072ff:	48 98                	cltq   
  407301:	48 8d 14 85 00 00 00 	lea    0x0(,%rax,4),%rdx
  407308:	00 
  407309:	48 8b 45 e8          	mov    -0x18(%rbp),%rax
  40730d:	48 8d 1c 02          	lea    (%rdx,%rax,1),%rbx
  407311:	e8 3a de ff ff       	callq  405150 <rand@plt>
  407316:	89 c1                	mov    %eax,%ecx
  407318:	ba c5 bd 31 04       	mov    $0x431bdc5,%edx
  40731d:	89 c8                	mov    %ecx,%eax
  40731f:	f7 ea                	imul   %edx
  407321:	c1 fa 0f             	sar    $0xf,%edx
  407324:	89 c8                	mov    %ecx,%eax
  407326:	c1 f8 1f             	sar    $0x1f,%eax
  407329:	29 c2                	sub    %eax,%edx
  40732b:	89 d0                	mov    %edx,%eax
  40732d:	69 c0 81 84 1e 00    	imul   $0x1e8481,%eax,%eax
  407333:	29 c1                	sub    %eax,%ecx
  407335:	89 c8                	mov    %ecx,%eax
  407337:	2d 40 42 0f 00       	sub    $0xf4240,%eax
  40733c:	66 0f ef c0          	pxor   %xmm0,%xmm0
  407340:	f3 0f 2a c0          	cvtsi2ss %eax,%xmm0
  407344:	f3 0f 10 0d 44 69 00 	movss  0x6944(%rip),%xmm1        # 40dc90 <_ZZNK5boost10shared_ptrIN5caffe12SyncedMemoryEEptEvE19__PRETTY_FUNCTION__+0xd0>
  40734b:	00 
  40734c:	f3 0f 5e c1          	divss  %xmm1,%xmm0
  407350:	f3 0f 11 03          	movss  %xmm0,(%rbx)
  407354:	83 45 d8 01          	addl   $0x1,-0x28(%rbp)
  407358:	eb 9a                	jmp    4072f4 <_ZN2CK19get_random_raw_dataIfEEPT_RKNS_5ShapeE+0x76>
  40735a:	48 8b 45 e8          	mov    -0x18(%rbp),%rax
  40735e:	48 83 c4 38          	add    $0x38,%rsp
  407362:	5b                   	pop    %rbx
  407363:	5d                   	pop    %rbp
  407364:	c3                   	retq   

0000000000407365 <_ZN2CK20print_input_raw_dataIfEEvPT_RKNS_5ShapeE>:
  407365:	55                   	push   %rbp
  407366:	48 89 e5             	mov    %rsp,%rbp
  407369:	48 83 ec 10          	sub    $0x10,%rsp
  40736d:	48 89 7d f8          	mov    %rdi,-0x8(%rbp)
  407371:	48 89 75 f0          	mov    %rsi,-0x10(%rbp)
  407375:	48 8b 75 f0          	mov    -0x10(%rbp),%rsi
  407379:	48 8b 45 f8          	mov    -0x8(%rbp),%rax
  40737d:	b9 bc d4 40 00       	mov    $0x40d4bc,%ecx
  407382:	ba c2 d4 40 00       	mov    $0x40d4c2,%edx
  407387:	48 89 c7             	mov    %rax,%rdi
  40738a:	e8 31 19 00 00       	callq  408cc0 <_ZN2CK12log_raw_dataIfEEvPT_RKNS_5ShapeEPKcS7_>
  40738f:	90                   	nop
  407390:	c9                   	leaveq 
  407391:	c3                   	retq   

0000000000407392 <_ZN5caffe5LayerIfE7ForwardERKSt6vectorIPNS_4BlobIfEESaIS5_EES9_>:
  407392:	55                   	push   %rbp
  407393:	48 89 e5             	mov    %rsp,%rbp
  407396:	53                   	push   %rbx
  407397:	48 83 ec 68          	sub    $0x68,%rsp
  40739b:	48 89 7d a8          	mov    %rdi,-0x58(%rbp)
  40739f:	48 89 75 a0          	mov    %rsi,-0x60(%rbp)
  4073a3:	48 89 55 98          	mov    %rdx,-0x68(%rbp)
  4073a7:	64 48 8b 04 25 28 00 	mov    %fs:0x28,%rax
  4073ae:	00 00 
  4073b0:	48 89 45 e8          	mov    %rax,-0x18(%rbp)
  4073b4:	31 c0                	xor    %eax,%eax
  4073b6:	66 0f ef c0          	pxor   %xmm0,%xmm0
  4073ba:	f3 0f 11 45 b4       	movss  %xmm0,-0x4c(%rbp)
  4073bf:	48 8b 45 a8          	mov    -0x58(%rbp),%rax
  4073c3:	48 8b 00             	mov    (%rax),%rax
  4073c6:	48 83 c0 18          	add    $0x18,%rax
  4073ca:	48 8b 00             	mov    (%rax),%rax
  4073cd:	48 8b 55 98          	mov    -0x68(%rbp),%rdx
  4073d1:	48 8b 75 a0          	mov    -0x60(%rbp),%rsi
  4073d5:	48 8b 4d a8          	mov    -0x58(%rbp),%rcx
  4073d9:	48 89 cf             	mov    %rcx,%rdi
  4073dc:	ff d0                	callq  *%rax
  4073de:	e8 14 e4 ff ff       	callq  4057f7 <_ZN5caffe5Caffe4modeEv>
  4073e3:	85 c0                	test   %eax,%eax
  4073e5:	74 0e                	je     4073f5 <_ZN5caffe5LayerIfE7ForwardERKSt6vectorIPNS_4BlobIfEESaIS5_EES9_+0x63>
  4073e7:	83 f8 01             	cmp    $0x1,%eax
  4073ea:	0f 84 1a 01 00 00    	je     40750a <_ZN5caffe5LayerIfE7ForwardERKSt6vectorIPNS_4BlobIfEESaIS5_EES9_+0x178>
  4073f0:	e9 36 01 00 00       	jmpq   40752b <_ZN5caffe5LayerIfE7ForwardERKSt6vectorIPNS_4BlobIfEESaIS5_EES9_+0x199>
  4073f5:	48 8b 45 a8          	mov    -0x58(%rbp),%rax
  4073f9:	48 8b 00             	mov    (%rax),%rax
  4073fc:	48 83 c0 78          	add    $0x78,%rax
  407400:	48 8b 00             	mov    (%rax),%rax
  407403:	48 8b 55 98          	mov    -0x68(%rbp),%rdx
  407407:	48 8b 75 a0          	mov    -0x60(%rbp),%rsi
  40740b:	48 8b 4d a8          	mov    -0x58(%rbp),%rcx
  40740f:	48 89 cf             	mov    %rcx,%rdi
  407412:	ff d0                	callq  *%rax
  407414:	c7 45 b8 00 00 00 00 	movl   $0x0,-0x48(%rbp)
  40741b:	8b 45 b8             	mov    -0x48(%rbp),%eax
  40741e:	48 63 d8             	movslq %eax,%rbx
  407421:	48 8b 45 98          	mov    -0x68(%rbp),%rax
  407425:	48 89 c7             	mov    %rax,%rdi
  407428:	e8 0b 19 00 00       	callq  408d38 <_ZNKSt6vectorIPN5caffe4BlobIfEESaIS3_EE4sizeEv>
  40742d:	48 39 c3             	cmp    %rax,%rbx
  407430:	0f 92 c0             	setb   %al
  407433:	84 c0                	test   %al,%al
  407435:	0f 84 2b 01 00 00    	je     407566 <_ZN5caffe5LayerIfE7ForwardERKSt6vectorIPNS_4BlobIfEESaIS5_EES9_+0x1d4>
  40743b:	8b 55 b8             	mov    -0x48(%rbp),%edx
  40743e:	48 8b 45 a8          	mov    -0x58(%rbp),%rax
  407442:	89 d6                	mov    %edx,%esi
  407444:	48 89 c7             	mov    %rax,%rdi
  407447:	e8 12 19 00 00       	callq  408d5e <_ZNK5caffe5LayerIfE4lossEi>
  40744c:	66 0f ef c9          	pxor   %xmm1,%xmm1
  407450:	0f 2e c1             	ucomiss %xmm1,%xmm0
  407453:	0f 9b c0             	setnp  %al
  407456:	ba 00 00 00 00       	mov    $0x0,%edx
  40745b:	66 0f ef c9          	pxor   %xmm1,%xmm1
  40745f:	0f 2e c1             	ucomiss %xmm1,%xmm0
  407462:	0f 45 c2             	cmovne %edx,%eax
  407465:	84 c0                	test   %al,%al
  407467:	0f 85 93 00 00 00    	jne    407500 <_ZN5caffe5LayerIfE7ForwardERKSt6vectorIPNS_4BlobIfEESaIS5_EES9_+0x16e>
  40746d:	8b 45 b8             	mov    -0x48(%rbp),%eax
  407470:	48 63 d0             	movslq %eax,%rdx
  407473:	48 8b 45 98          	mov    -0x68(%rbp),%rax
  407477:	48 89 d6             	mov    %rdx,%rsi
  40747a:	48 89 c7             	mov    %rax,%rdi
  40747d:	e8 32 19 00 00       	callq  408db4 <_ZNKSt6vectorIPN5caffe4BlobIfEESaIS3_EEixEm>
  407482:	48 8b 00             	mov    (%rax),%rax
  407485:	48 89 c7             	mov    %rax,%rdi
  407488:	e8 47 19 00 00       	callq  408dd4 <_ZNK5caffe4BlobIfE5countEv>
  40748d:	89 45 bc             	mov    %eax,-0x44(%rbp)
  407490:	8b 45 b8             	mov    -0x48(%rbp),%eax
  407493:	48 63 d0             	movslq %eax,%rdx
  407496:	48 8b 45 98          	mov    -0x68(%rbp),%rax
  40749a:	48 89 d6             	mov    %rdx,%rsi
  40749d:	48 89 c7             	mov    %rax,%rdi
  4074a0:	e8 0f 19 00 00       	callq  408db4 <_ZNKSt6vectorIPN5caffe4BlobIfEESaIS3_EEixEm>
  4074a5:	48 8b 00             	mov    (%rax),%rax
  4074a8:	48 89 c7             	mov    %rax,%rdi
  4074ab:	e8 e0 da ff ff       	callq  404f90 <_ZNK5caffe4BlobIfE8cpu_dataEv@plt>
  4074b0:	48 89 45 c0          	mov    %rax,-0x40(%rbp)
  4074b4:	8b 45 b8             	mov    -0x48(%rbp),%eax
  4074b7:	48 63 d0             	movslq %eax,%rdx
  4074ba:	48 8b 45 98          	mov    -0x68(%rbp),%rax
  4074be:	48 89 d6             	mov    %rdx,%rsi
  4074c1:	48 89 c7             	mov    %rax,%rdi
  4074c4:	e8 eb 18 00 00       	callq  408db4 <_ZNKSt6vectorIPN5caffe4BlobIfEESaIS3_EEixEm>
  4074c9:	48 8b 00             	mov    (%rax),%rax
  4074cc:	48 89 c7             	mov    %rax,%rdi
  4074cf:	e8 0c db ff ff       	callq  404fe0 <_ZNK5caffe4BlobIfE8cpu_diffEv@plt>
  4074d4:	48 89 45 c8          	mov    %rax,-0x38(%rbp)
  4074d8:	48 8b 55 c8          	mov    -0x38(%rbp),%rdx
  4074dc:	48 8b 4d c0          	mov    -0x40(%rbp),%rcx
  4074e0:	8b 45 bc             	mov    -0x44(%rbp),%eax
  4074e3:	48 89 ce             	mov    %rcx,%rsi
  4074e6:	89 c7                	mov    %eax,%edi
  4074e8:	e8 33 dd ff ff       	callq  405220 <_ZN5caffe13caffe_cpu_dotIfEET_iPKS1_S3_@plt>
  4074ed:	0f 28 c8             	movaps %xmm0,%xmm1
  4074f0:	f3 0f 10 45 b4       	movss  -0x4c(%rbp),%xmm0
  4074f5:	f3 0f 58 c1          	addss  %xmm1,%xmm0
  4074f9:	f3 0f 11 45 b4       	movss  %xmm0,-0x4c(%rbp)
  4074fe:	eb 01                	jmp    407501 <_ZN5caffe5LayerIfE7ForwardERKSt6vectorIPNS_4BlobIfEESaIS5_EES9_+0x16f>
  407500:	90                   	nop
  407501:	83 45 b8 01          	addl   $0x1,-0x48(%rbp)
  407505:	e9 11 ff ff ff       	jmpq   40741b <_ZN5caffe5LayerIfE7ForwardERKSt6vectorIPNS_4BlobIfEESaIS5_EES9_+0x89>
  40750a:	48 8b 45 a8          	mov    -0x58(%rbp),%rax
  40750e:	48 8b 00             	mov    (%rax),%rax
  407511:	48 83 e8 80          	sub    $0xffffffffffffff80,%rax
  407515:	48 8b 00             	mov    (%rax),%rax
  407518:	48 8b 55 98          	mov    -0x68(%rbp),%rdx
  40751c:	48 8b 75 a0          	mov    -0x60(%rbp),%rsi
  407520:	48 8b 4d a8          	mov    -0x58(%rbp),%rcx
  407524:	48 89 cf             	mov    %rcx,%rdi
  407527:	ff d0                	callq  *%rax
  407529:	eb 3c                	jmp    407567 <_ZN5caffe5LayerIfE7ForwardERKSt6vectorIPNS_4BlobIfEESaIS5_EES9_+0x1d5>
  40752b:	48 8d 45 d0          	lea    -0x30(%rbp),%rax
  40752f:	ba bb 01 00 00       	mov    $0x1bb,%edx
  407534:	be d8 d4 40 00       	mov    $0x40d4d8,%esi
  407539:	48 89 c7             	mov    %rax,%rdi
  40753c:	e8 5f dd ff ff       	callq  4052a0 <_ZN6google15LogMessageFatalC1EPKci@plt>
  407541:	48 8d 45 d0          	lea    -0x30(%rbp),%rax
  407545:	48 89 c7             	mov    %rax,%rdi
  407548:	e8 33 dc ff ff       	callq  405180 <_ZN6google10LogMessage6streamEv@plt>
  40754d:	be 45 d5 40 00       	mov    $0x40d545,%esi
  407552:	48 89 c7             	mov    %rax,%rdi
  407555:	e8 e6 d9 ff ff       	callq  404f40 <_ZStlsISt11char_traitsIcEERSt13basic_ostreamIcT_ES5_PKc@plt>
  40755a:	48 8d 45 d0          	lea    -0x30(%rbp),%rax
  40755e:	48 89 c7             	mov    %rax,%rdi
  407561:	e8 7a db ff ff       	callq  4050e0 <_ZN6google15LogMessageFatalD1Ev@plt>
  407566:	90                   	nop
  407567:	f3 0f 10 45 b4       	movss  -0x4c(%rbp),%xmm0
  40756c:	48 8b 45 e8          	mov    -0x18(%rbp),%rax
  407570:	64 48 33 04 25 28 00 	xor    %fs:0x28,%rax
  407577:	00 00 
  407579:	74 13                	je     40758e <_ZN5caffe5LayerIfE7ForwardERKSt6vectorIPNS_4BlobIfEESaIS5_EES9_+0x1fc>
  40757b:	eb 0c                	jmp    407589 <_ZN5caffe5LayerIfE7ForwardERKSt6vectorIPNS_4BlobIfEESaIS5_EES9_+0x1f7>
  40757d:	48 8d 45 d0          	lea    -0x30(%rbp),%rax
  407581:	48 89 c7             	mov    %rax,%rdi
  407584:	e8 57 db ff ff       	callq  4050e0 <_ZN6google15LogMessageFatalD1Ev@plt>
  407589:	e8 92 d8 ff ff       	callq  404e20 <__stack_chk_fail@plt>
  40758e:	48 83 c4 68          	add    $0x68,%rsp
  407592:	5b                   	pop    %rbx
  407593:	5d                   	pop    %rbp
  407594:	c3                   	retq   

0000000000407595 <_ZN2CK12measure_testIZNS_5Caffe16test_convolutionEbEUlvE0_EEvOT_>:
  407595:	55                   	push   %rbp
  407596:	48 89 e5             	mov    %rsp,%rbp
  407599:	48 83 ec 10          	sub    $0x10,%rsp
  40759d:	48 89 7d f8          	mov    %rdi,-0x8(%rbp)
  4075a1:	48 8b 45 f8          	mov    -0x8(%rbp),%rax
  4075a5:	be 01 00 00 00       	mov    $0x1,%esi
  4075aa:	48 89 c7             	mov    %rax,%rdi
  4075ad:	e8 69 18 00 00       	callq  408e1b <_ZN2CK11do_measuredIRZNS_5Caffe16test_convolutionEbEUlvE0_EEvOT_i>
  4075b2:	bf 01 00 00 00       	mov    $0x1,%edi
  4075b7:	e8 44 d9 ff ff       	callq  404f00 <xopenme_get_timer@plt>
  4075bc:	f2 0f 5a c0          	cvtsd2ss %xmm0,%xmm0
  4075c0:	e8 5b de ff ff       	callq  405420 <_ZN2CK15store_test_timeEf>
  4075c5:	90                   	nop
  4075c6:	c9                   	leaveq 
  4075c7:	c3                   	retq   

00000000004075c8 <_ZNK5caffe4BlobIfE3numEv>:
  4075c8:	55                   	push   %rbp
  4075c9:	48 89 e5             	mov    %rsp,%rbp
  4075cc:	48 83 ec 10          	sub    $0x10,%rsp
  4075d0:	48 89 7d f8          	mov    %rdi,-0x8(%rbp)
  4075d4:	48 8b 45 f8          	mov    -0x8(%rbp),%rax
  4075d8:	be 00 00 00 00       	mov    $0x0,%esi
  4075dd:	48 89 c7             	mov    %rax,%rdi
  4075e0:	e8 69 18 00 00       	callq  408e4e <_ZNK5caffe4BlobIfE11LegacyShapeEi>
  4075e5:	c9                   	leaveq 
  4075e6:	c3                   	retq   
  4075e7:	90                   	nop

00000000004075e8 <_ZNK5caffe4BlobIfE8channelsEv>:
  4075e8:	55                   	push   %rbp
  4075e9:	48 89 e5             	mov    %rsp,%rbp
  4075ec:	48 83 ec 10          	sub    $0x10,%rsp
  4075f0:	48 89 7d f8          	mov    %rdi,-0x8(%rbp)
  4075f4:	48 8b 45 f8          	mov    -0x8(%rbp),%rax
  4075f8:	be 01 00 00 00       	mov    $0x1,%esi
  4075fd:	48 89 c7             	mov    %rax,%rdi
  407600:	e8 49 18 00 00       	callq  408e4e <_ZNK5caffe4BlobIfE11LegacyShapeEi>
  407605:	c9                   	leaveq 
  407606:	c3                   	retq   
  407607:	90                   	nop

0000000000407608 <_ZNK5caffe4BlobIfE6heightEv>:
  407608:	55                   	push   %rbp
  407609:	48 89 e5             	mov    %rsp,%rbp
  40760c:	48 83 ec 10          	sub    $0x10,%rsp
  407610:	48 89 7d f8          	mov    %rdi,-0x8(%rbp)
  407614:	48 8b 45 f8          	mov    -0x8(%rbp),%rax
  407618:	be 02 00 00 00       	mov    $0x2,%esi
  40761d:	48 89 c7             	mov    %rax,%rdi
  407620:	e8 29 18 00 00       	callq  408e4e <_ZNK5caffe4BlobIfE11LegacyShapeEi>
  407625:	c9                   	leaveq 
  407626:	c3                   	retq   
  407627:	90                   	nop

0000000000407628 <_ZNK5caffe4BlobIfE5widthEv>:
  407628:	55                   	push   %rbp
  407629:	48 89 e5             	mov    %rsp,%rbp
  40762c:	48 83 ec 10          	sub    $0x10,%rsp
  407630:	48 89 7d f8          	mov    %rdi,-0x8(%rbp)
  407634:	48 8b 45 f8          	mov    -0x8(%rbp),%rax
  407638:	be 03 00 00 00       	mov    $0x3,%esi
  40763d:	48 89 c7             	mov    %rax,%rdi
  407640:	e8 09 18 00 00       	callq  408e4e <_ZNK5caffe4BlobIfE11LegacyShapeEi>
  407645:	c9                   	leaveq 
  407646:	c3                   	retq   
  407647:	90                   	nop

0000000000407648 <_ZNK5caffe4BlobIfE4dataEv>:
  407648:	55                   	push   %rbp
  407649:	48 89 e5             	mov    %rsp,%rbp
  40764c:	41 55                	push   %r13
  40764e:	41 54                	push   %r12
  407650:	53                   	push   %rbx
  407651:	48 83 ec 48          	sub    $0x48,%rsp
  407655:	48 89 7d a8          	mov    %rdi,-0x58(%rbp)
  407659:	64 48 8b 04 25 28 00 	mov    %fs:0x28,%rax
  407660:	00 00 
  407662:	48 89 45 d8          	mov    %rax,-0x28(%rbp)
  407666:	31 c0                	xor    %eax,%eax
  407668:	48 8b 45 a8          	mov    -0x58(%rbp),%rax
  40766c:	48 89 c7             	mov    %rax,%rdi
  40766f:	e8 02 1a 00 00       	callq  409076 <_ZNK5boost10shared_ptrIN5caffe12SyncedMemoryEEntEv>
  407674:	0f b6 c0             	movzbl %al,%eax
  407677:	bb 00 00 00 00       	mov    $0x0,%ebx
  40767c:	41 bc 00 00 00 00    	mov    $0x0,%r12d
  407682:	48 85 c0             	test   %rax,%rax
  407685:	74 58                	je     4076df <_ZNK5caffe4BlobIfE4dataEv+0x97>
  407687:	48 8d 45 c0          	lea    -0x40(%rbp),%rax
  40768b:	ba d2 00 00 00       	mov    $0xd2,%edx
  407690:	be 60 d5 40 00       	mov    $0x40d560,%esi
  407695:	48 89 c7             	mov    %rax,%rdi
  407698:	e8 03 dc ff ff       	callq  4052a0 <_ZN6google15LogMessageFatalC1EPKci@plt>
  40769d:	bb 01 00 00 00       	mov    $0x1,%ebx
  4076a2:	48 8d 45 c0          	lea    -0x40(%rbp),%rax
  4076a6:	48 89 c7             	mov    %rax,%rdi
  4076a9:	e8 d2 da ff ff       	callq  405180 <_ZN6google10LogMessage6streamEv@plt>
  4076ae:	be cc d5 40 00       	mov    $0x40d5cc,%esi
  4076b3:	48 89 c7             	mov    %rax,%rdi
  4076b6:	e8 85 d8 ff ff       	callq  404f40 <_ZStlsISt11char_traitsIcEERSt13basic_ostreamIcT_ES5_PKc@plt>
  4076bb:	49 89 c5             	mov    %rax,%r13
  4076be:	48 8d 45 bf          	lea    -0x41(%rbp),%rax
  4076c2:	48 89 c7             	mov    %rax,%rdi
  4076c5:	e8 12 e1 ff ff       	callq  4057dc <_ZN6google17LogMessageVoidifyC1Ev>
  4076ca:	41 bc 01 00 00 00    	mov    $0x1,%r12d
  4076d0:	48 8d 45 bf          	lea    -0x41(%rbp),%rax
  4076d4:	4c 89 ee             	mov    %r13,%rsi
  4076d7:	48 89 c7             	mov    %rax,%rdi
  4076da:	e8 09 e1 ff ff       	callq  4057e8 <_ZN6google17LogMessageVoidifyanERSo>
  4076df:	45 84 e4             	test   %r12b,%r12b
  4076e2:	84 db                	test   %bl,%bl
  4076e4:	74 0d                	je     4076f3 <_ZNK5caffe4BlobIfE4dataEv+0xab>
  4076e6:	90                   	nop
  4076e7:	48 8d 45 c0          	lea    -0x40(%rbp),%rax
  4076eb:	48 89 c7             	mov    %rax,%rdi
  4076ee:	e8 ed d9 ff ff       	callq  4050e0 <_ZN6google15LogMessageFatalD1Ev@plt>
  4076f3:	90                   	nop
  4076f4:	48 8b 45 a8          	mov    -0x58(%rbp),%rax
  4076f8:	48 8b 4d d8          	mov    -0x28(%rbp),%rcx
  4076fc:	64 48 33 0c 25 28 00 	xor    %fs:0x28,%rcx
  407703:	00 00 
  407705:	74 24                	je     40772b <_ZNK5caffe4BlobIfE4dataEv+0xe3>
  407707:	eb 1d                	jmp    407726 <_ZNK5caffe4BlobIfE4dataEv+0xde>
  407709:	45 84 e4             	test   %r12b,%r12b
  40770c:	84 db                	test   %bl,%bl
  40770e:	74 0d                	je     40771d <_ZNK5caffe4BlobIfE4dataEv+0xd5>
  407710:	90                   	nop
  407711:	48 8d 45 c0          	lea    -0x40(%rbp),%rax
  407715:	48 89 c7             	mov    %rax,%rdi
  407718:	e8 c3 d9 ff ff       	callq  4050e0 <_ZN6google15LogMessageFatalD1Ev@plt>
  40771d:	90                   	nop
  40771e:	48 89 c7             	mov    %rax,%rdi
  407721:	e8 8a d8 ff ff       	callq  404fb0 <_Unwind_Resume@plt>
  407726:	e8 f5 d6 ff ff       	callq  404e20 <__stack_chk_fail@plt>
  40772b:	48 83 c4 48          	add    $0x48,%rsp
  40772f:	5b                   	pop    %rbx
  407730:	41 5c                	pop    %r12
  407732:	41 5d                	pop    %r13
  407734:	5d                   	pop    %rbp
  407735:	c3                   	retq   

0000000000407736 <_ZNK5boost10shared_ptrIN5caffe12SyncedMemoryEEptEv>:
  407736:	55                   	push   %rbp
  407737:	48 89 e5             	mov    %rsp,%rbp
  40773a:	48 83 ec 10          	sub    $0x10,%rsp
  40773e:	48 89 7d f8          	mov    %rdi,-0x8(%rbp)
  407742:	48 8b 45 f8          	mov    -0x8(%rbp),%rax
  407746:	48 8b 00             	mov    (%rax),%rax
  407749:	48 85 c0             	test   %rax,%rax
  40774c:	75 19                	jne    407767 <_ZNK5boost10shared_ptrIN5caffe12SyncedMemoryEEptEv+0x31>
  40774e:	b9 c0 db 40 00       	mov    $0x40dbc0,%ecx
  407753:	ba 88 02 00 00       	mov    $0x288,%edx
  407758:	be e8 d5 40 00       	mov    $0x40d5e8,%esi
  40775d:	bf 14 d6 40 00       	mov    $0x40d614,%edi
  407762:	e8 69 d6 ff ff       	callq  404dd0 <__assert_fail@plt>
  407767:	48 8b 45 f8          	mov    -0x8(%rbp),%rax
  40776b:	48 8b 00             	mov    (%rax),%rax
  40776e:	c9                   	leaveq 
  40776f:	c3                   	retq   

0000000000407770 <_ZN2CK21print_output_raw_dataIfEEvPT_RKNS_5ShapeE>:
  407770:	55                   	push   %rbp
  407771:	48 89 e5             	mov    %rsp,%rbp
  407774:	48 83 ec 10          	sub    $0x10,%rsp
  407778:	48 89 7d f8          	mov    %rdi,-0x8(%rbp)
  40777c:	48 89 75 f0          	mov    %rsi,-0x10(%rbp)
  407780:	48 8b 75 f0          	mov    -0x10(%rbp),%rsi
  407784:	48 8b 45 f8          	mov    -0x8(%rbp),%rax
  407788:	b9 1c d6 40 00       	mov    $0x40d61c,%ecx
  40778d:	ba 23 d6 40 00       	mov    $0x40d623,%edx
  407792:	48 89 c7             	mov    %rax,%rdi
  407795:	e8 26 15 00 00       	callq  408cc0 <_ZN2CK12log_raw_dataIfEEvPT_RKNS_5ShapeEPKcS7_>
  40779a:	90                   	nop
  40779b:	c9                   	leaveq 
  40779c:	c3                   	retq   

000000000040779d <_ZN2CK20dump_output_raw_dataIfEEvPT_RKNS_5ShapeE>:
  40779d:	55                   	push   %rbp
  40779e:	48 89 e5             	mov    %rsp,%rbp
  4077a1:	48 83 ec 20          	sub    $0x20,%rsp
  4077a5:	48 89 7d e8          	mov    %rdi,-0x18(%rbp)
  4077a9:	48 89 75 e0          	mov    %rsi,-0x20(%rbp)
  4077ad:	bf 37 d6 40 00       	mov    $0x40d637,%edi
  4077b2:	e8 69 d8 ff ff       	callq  405020 <getenv@plt>
  4077b7:	48 89 45 f8          	mov    %rax,-0x8(%rbp)
  4077bb:	48 83 7d f8 00       	cmpq   $0x0,-0x8(%rbp)
  4077c0:	0f 84 89 00 00 00    	je     40784f <_ZN2CK20dump_output_raw_dataIfEEvPT_RKNS_5ShapeE+0xb2>
  4077c6:	48 8b 45 e0          	mov    -0x20(%rbp),%rax
  4077ca:	48 89 c7             	mov    %rax,%rdi
  4077cd:	e8 9c e8 ff ff       	callq  40606e <_ZNK2CK5Shape10data_countEv>
  4077d2:	48 98                	cltq   
  4077d4:	48 c1 e0 02          	shl    $0x2,%rax
  4077d8:	48 89 c2             	mov    %rax,%rdx
  4077db:	48 8b 4d e8          	mov    -0x18(%rbp),%rcx
  4077df:	48 8b 45 f8          	mov    -0x8(%rbp),%rax
  4077e3:	48 89 ce             	mov    %rcx,%rsi
  4077e6:	48 89 c7             	mov    %rax,%rdi
  4077e9:	e8 a2 da ff ff       	callq  405290 <xopenme_dump_memory@plt>
  4077ee:	48 8b 45 e0          	mov    -0x20(%rbp),%rax
  4077f2:	8b 00                	mov    (%rax),%eax
  4077f4:	89 c2                	mov    %eax,%edx
  4077f6:	be 47 d6 40 00       	mov    $0x40d647,%esi
  4077fb:	bf 00 00 00 00       	mov    $0x0,%edi
  407800:	e8 9b e9 ff ff       	callq  4061a0 <_ZN2CK13store_value_iEiPKci>
  407805:	48 8b 45 e0          	mov    -0x20(%rbp),%rax
  407809:	8b 40 04             	mov    0x4(%rax),%eax
  40780c:	89 c2                	mov    %eax,%edx
  40780e:	be 53 d6 40 00       	mov    $0x40d653,%esi
  407813:	bf 01 00 00 00       	mov    $0x1,%edi
  407818:	e8 83 e9 ff ff       	callq  4061a0 <_ZN2CK13store_value_iEiPKci>
  40781d:	48 8b 45 e0          	mov    -0x20(%rbp),%rax
  407821:	8b 40 08             	mov    0x8(%rax),%eax
  407824:	89 c2                	mov    %eax,%edx
  407826:	be 5f d6 40 00       	mov    $0x40d65f,%esi
  40782b:	bf 02 00 00 00       	mov    $0x2,%edi
  407830:	e8 6b e9 ff ff       	callq  4061a0 <_ZN2CK13store_value_iEiPKci>
  407835:	48 8b 45 e0          	mov    -0x20(%rbp),%rax
  407839:	8b 40 0c             	mov    0xc(%rax),%eax
  40783c:	89 c2                	mov    %eax,%edx
  40783e:	be 6b d6 40 00       	mov    $0x40d66b,%esi
  407843:	bf 03 00 00 00       	mov    $0x3,%edi
  407848:	e8 53 e9 ff ff       	callq  4061a0 <_ZN2CK13store_value_iEiPKci>
  40784d:	eb 01                	jmp    407850 <_ZN2CK20dump_output_raw_dataIfEEvPT_RKNS_5ShapeE+0xb3>
  40784f:	90                   	nop
  407850:	c9                   	leaveq 
  407851:	c3                   	retq   

0000000000407852 <_ZNSt6vectorIiSaIiEED1Ev>:
  407852:	55                   	push   %rbp
  407853:	48 89 e5             	mov    %rsp,%rbp
  407856:	48 83 ec 10          	sub    $0x10,%rsp
  40785a:	48 89 7d f8          	mov    %rdi,-0x8(%rbp)
  40785e:	48 8b 45 f8          	mov    -0x8(%rbp),%rax
  407862:	48 89 c7             	mov    %rax,%rdi
  407865:	e8 90 18 00 00       	callq  4090fa <_ZNSt12_Vector_baseIiSaIiEE19_M_get_Tp_allocatorEv>
  40786a:	48 89 c2             	mov    %rax,%rdx
  40786d:	48 8b 45 f8          	mov    -0x8(%rbp),%rax
  407871:	48 8b 48 08          	mov    0x8(%rax),%rcx
  407875:	48 8b 45 f8          	mov    -0x8(%rbp),%rax
  407879:	48 8b 00             	mov    (%rax),%rax
  40787c:	48 89 ce             	mov    %rcx,%rsi
  40787f:	48 89 c7             	mov    %rax,%rdi
  407882:	e8 81 18 00 00       	callq  409108 <_ZSt8_DestroyIPiiEvT_S1_RSaIT0_E>
  407887:	48 8b 45 f8          	mov    -0x8(%rbp),%rax
  40788b:	48 89 c7             	mov    %rax,%rdi
  40788e:	e8 17 18 00 00       	callq  4090aa <_ZNSt12_Vector_baseIiSaIiEED1Ev>
  407893:	90                   	nop
  407894:	c9                   	leaveq 
  407895:	c3                   	retq   

0000000000407896 <_ZN6google17MakeCheckOpStringIiiEEPNSt7__cxx1112basic_stringIcSt11char_traitsIcESaIcEEERKT_RKT0_PKc>:
  407896:	55                   	push   %rbp
  407897:	48 89 e5             	mov    %rsp,%rbp
  40789a:	53                   	push   %rbx
  40789b:	48 83 ec 38          	sub    $0x38,%rsp
  40789f:	48 89 7d d8          	mov    %rdi,-0x28(%rbp)
  4078a3:	48 89 75 d0          	mov    %rsi,-0x30(%rbp)
  4078a7:	48 89 55 c8          	mov    %rdx,-0x38(%rbp)
  4078ab:	64 48 8b 04 25 28 00 	mov    %fs:0x28,%rax
  4078b2:	00 00 
  4078b4:	48 89 45 e8          	mov    %rax,-0x18(%rbp)
  4078b8:	31 c0                	xor    %eax,%eax
  4078ba:	48 8b 55 c8          	mov    -0x38(%rbp),%rdx
  4078be:	48 8d 45 e0          	lea    -0x20(%rbp),%rax
  4078c2:	48 89 d6             	mov    %rdx,%rsi
  4078c5:	48 89 c7             	mov    %rax,%rdi
  4078c8:	e8 c3 d4 ff ff       	callq  404d90 <_ZN6google4base21CheckOpMessageBuilderC1EPKc@plt>
  4078cd:	48 8d 45 e0          	lea    -0x20(%rbp),%rax
  4078d1:	48 89 c7             	mov    %rax,%rdi
  4078d4:	e8 71 de ff ff       	callq  40574a <_ZN6google4base21CheckOpMessageBuilder7ForVar1Ev>
  4078d9:	48 89 c2             	mov    %rax,%rdx
  4078dc:	48 8b 45 d8          	mov    -0x28(%rbp),%rax
  4078e0:	48 89 c6             	mov    %rax,%rsi
  4078e3:	48 89 d7             	mov    %rdx,%rdi
  4078e6:	e8 47 18 00 00       	callq  409132 <_ZN6google22MakeCheckOpValueStringIiEEvPSoRKT_>
  4078eb:	48 8d 45 e0          	lea    -0x20(%rbp),%rax
  4078ef:	48 89 c7             	mov    %rax,%rdi
  4078f2:	e8 69 d4 ff ff       	callq  404d60 <_ZN6google4base21CheckOpMessageBuilder7ForVar2Ev@plt>
  4078f7:	48 89 c2             	mov    %rax,%rdx
  4078fa:	48 8b 45 d0          	mov    -0x30(%rbp),%rax
  4078fe:	48 89 c6             	mov    %rax,%rsi
  407901:	48 89 d7             	mov    %rdx,%rdi
  407904:	e8 29 18 00 00       	callq  409132 <_ZN6google22MakeCheckOpValueStringIiEEvPSoRKT_>
  407909:	48 8d 45 e0          	lea    -0x20(%rbp),%rax
  40790d:	48 89 c7             	mov    %rax,%rdi
  407910:	e8 0b d8 ff ff       	callq  405120 <_ZN6google4base21CheckOpMessageBuilder9NewStringB5cxx11Ev@plt>
  407915:	48 89 c3             	mov    %rax,%rbx
  407918:	48 8d 45 e0          	lea    -0x20(%rbp),%rax
  40791c:	48 89 c7             	mov    %rax,%rdi
  40791f:	e8 2c d5 ff ff       	callq  404e50 <_ZN6google4base21CheckOpMessageBuilderD1Ev@plt>
  407924:	48 89 d8             	mov    %rbx,%rax
  407927:	48 8b 4d e8          	mov    -0x18(%rbp),%rcx
  40792b:	64 48 33 0c 25 28 00 	xor    %fs:0x28,%rcx
  407932:	00 00 
  407934:	74 21                	je     407957 <_ZN6google17MakeCheckOpStringIiiEEPNSt7__cxx1112basic_stringIcSt11char_traitsIcESaIcEEERKT_RKT0_PKc+0xc1>
  407936:	eb 1a                	jmp    407952 <_ZN6google17MakeCheckOpStringIiiEEPNSt7__cxx1112basic_stringIcSt11char_traitsIcESaIcEEERKT_RKT0_PKc+0xbc>
  407938:	48 89 c3             	mov    %rax,%rbx
  40793b:	48 8d 45 e0          	lea    -0x20(%rbp),%rax
  40793f:	48 89 c7             	mov    %rax,%rdi
  407942:	e8 09 d5 ff ff       	callq  404e50 <_ZN6google4base21CheckOpMessageBuilderD1Ev@plt>
  407947:	48 89 d8             	mov    %rbx,%rax
  40794a:	48 89 c7             	mov    %rax,%rdi
  40794d:	e8 5e d6 ff ff       	callq  404fb0 <_Unwind_Resume@plt>
  407952:	e8 c9 d4 ff ff       	callq  404e20 <__stack_chk_fail@plt>
  407957:	48 83 c4 38          	add    $0x38,%rsp
  40795b:	5b                   	pop    %rbx
  40795c:	5d                   	pop    %rbp
  40795d:	c3                   	retq   

000000000040795e <_ZN6google8protobuf8internal20RepeatedPtrFieldBase5ClearINS0_16RepeatedPtrFieldIN5caffe9BlobProtoEE11TypeHandlerEEEvv>:
  40795e:	55                   	push   %rbp
  40795f:	48 89 e5             	mov    %rsp,%rbp
  407962:	41 54                	push   %r12
  407964:	53                   	push   %rbx
  407965:	48 83 ec 70          	sub    $0x70,%rsp
  407969:	48 89 7d 88          	mov    %rdi,-0x78(%rbp)
  40796d:	64 48 8b 04 25 28 00 	mov    %fs:0x28,%rax
  407974:	00 00 
  407976:	48 89 45 e8          	mov    %rax,-0x18(%rbp)
  40797a:	31 c0                	xor    %eax,%eax
  40797c:	48 8b 45 88          	mov    -0x78(%rbp),%rax
  407980:	8b 40 08             	mov    0x8(%rax),%eax
  407983:	89 45 a4             	mov    %eax,-0x5c(%rbp)
  407986:	bb 00 00 00 00       	mov    $0x0,%ebx
  40798b:	41 bc 00 00 00 00    	mov    $0x0,%r12d
  407991:	83 7d a4 00          	cmpl   $0x0,-0x5c(%rbp)
  407995:	79 49                	jns    4079e0 <_ZN6google8protobuf8internal20RepeatedPtrFieldBase5ClearINS0_16RepeatedPtrFieldIN5caffe9BlobProtoEE11TypeHandlerEEEvv+0x82>
  407997:	48 8d 45 b0          	lea    -0x50(%rbp),%rax
  40799b:	b9 c4 05 00 00       	mov    $0x5c4,%ecx
  4079a0:	ba f8 d3 40 00       	mov    $0x40d3f8,%edx
  4079a5:	be 03 00 00 00       	mov    $0x3,%esi
  4079aa:	48 89 c7             	mov    %rax,%rdi
  4079ad:	e8 ae d5 ff ff       	callq  404f60 <_ZN6google8protobuf8internal10LogMessageC1ENS0_8LogLevelEPKci@plt>
  4079b2:	bb 01 00 00 00       	mov    $0x1,%ebx
  4079b7:	48 8d 45 b0          	lea    -0x50(%rbp),%rax
  4079bb:	be 77 d6 40 00       	mov    $0x40d677,%esi
  4079c0:	48 89 c7             	mov    %rax,%rdi
  4079c3:	e8 f8 d8 ff ff       	callq  4052c0 <_ZN6google8protobuf8internal10LogMessagelsEPKc@plt>
  4079c8:	48 89 c2             	mov    %rax,%rdx
  4079cb:	41 bc 01 00 00 00    	mov    $0x1,%r12d
  4079d1:	48 8d 45 9f          	lea    -0x61(%rbp),%rax
  4079d5:	48 89 d6             	mov    %rdx,%rsi
  4079d8:	48 89 c7             	mov    %rax,%rdi
  4079db:	e8 80 d6 ff ff       	callq  405060 <_ZN6google8protobuf8internal11LogFinisheraSERNS1_10LogMessageE@plt>
  4079e0:	45 84 e4             	test   %r12b,%r12b
  4079e3:	84 db                	test   %bl,%bl
  4079e5:	74 0f                	je     4079f6 <_ZN6google8protobuf8internal20RepeatedPtrFieldBase5ClearINS0_16RepeatedPtrFieldIN5caffe9BlobProtoEE11TypeHandlerEEEvv+0x98>
  4079e7:	90                   	nop
  4079e8:	48 8d 45 b0          	lea    -0x50(%rbp),%rax
  4079ec:	48 89 c7             	mov    %rax,%rdi
  4079ef:	e8 0c d7 ff ff       	callq  405100 <_ZN6google8protobuf8internal10LogMessageD1Ev@plt>
  4079f4:	eb 01                	jmp    4079f7 <_ZN6google8protobuf8internal20RepeatedPtrFieldBase5ClearINS0_16RepeatedPtrFieldIN5caffe9BlobProtoEE11TypeHandlerEEEvv+0x99>
  4079f6:	90                   	nop
  4079f7:	83 7d a4 00          	cmpl   $0x0,-0x5c(%rbp)
  4079fb:	0f 8e 80 00 00 00    	jle    407a81 <_ZN6google8protobuf8internal20RepeatedPtrFieldBase5ClearINS0_16RepeatedPtrFieldIN5caffe9BlobProtoEE11TypeHandlerEEEvv+0x123>
  407a01:	48 8b 45 88          	mov    -0x78(%rbp),%rax
  407a05:	48 8b 40 10          	mov    0x10(%rax),%rax
  407a09:	48 83 c0 08          	add    $0x8,%rax
  407a0d:	48 89 45 a8          	mov    %rax,-0x58(%rbp)
  407a11:	c7 45 a0 00 00 00 00 	movl   $0x0,-0x60(%rbp)
  407a18:	8b 45 a0             	mov    -0x60(%rbp),%eax
  407a1b:	8d 50 01             	lea    0x1(%rax),%edx
  407a1e:	89 55 a0             	mov    %edx,-0x60(%rbp)
  407a21:	48 98                	cltq   
  407a23:	48 8d 14 c5 00 00 00 	lea    0x0(,%rax,8),%rdx
  407a2a:	00 
  407a2b:	48 8b 45 a8          	mov    -0x58(%rbp),%rax
  407a2f:	48 01 d0             	add    %rdx,%rax
  407a32:	48 8b 00             	mov    (%rax),%rax
  407a35:	48 89 c7             	mov    %rax,%rdi
  407a38:	e8 42 17 00 00       	callq  40917f <_ZN6google8protobuf8internal20RepeatedPtrFieldBase4castINS0_16RepeatedPtrFieldIN5caffe9BlobProtoEE11TypeHandlerEEEPNT_4TypeEPv>
  407a3d:	48 89 c7             	mov    %rax,%rdi
  407a40:	e8 14 17 00 00       	callq  409159 <_ZN6google8protobuf8internal18GenericTypeHandlerIN5caffe9BlobProtoEE5ClearEPS4_>
  407a45:	8b 45 a0             	mov    -0x60(%rbp),%eax
  407a48:	3b 45 a4             	cmp    -0x5c(%rbp),%eax
  407a4b:	7d 02                	jge    407a4f <_ZN6google8protobuf8internal20RepeatedPtrFieldBase5ClearINS0_16RepeatedPtrFieldIN5caffe9BlobProtoEE11TypeHandlerEEEvv+0xf1>
  407a4d:	eb c9                	jmp    407a18 <_ZN6google8protobuf8internal20RepeatedPtrFieldBase5ClearINS0_16RepeatedPtrFieldIN5caffe9BlobProtoEE11TypeHandlerEEEvv+0xba>
  407a4f:	48 8b 45 88          	mov    -0x78(%rbp),%rax
  407a53:	c7 40 08 00 00 00 00 	movl   $0x0,0x8(%rax)
  407a5a:	eb 25                	jmp    407a81 <_ZN6google8protobuf8internal20RepeatedPtrFieldBase5ClearINS0_16RepeatedPtrFieldIN5caffe9BlobProtoEE11TypeHandlerEEEvv+0x123>
  407a5c:	45 84 e4             	test   %r12b,%r12b
  407a5f:	49 89 c4             	mov    %rax,%r12
  407a62:	84 db                	test   %bl,%bl
  407a64:	74 0f                	je     407a75 <_ZN6google8protobuf8internal20RepeatedPtrFieldBase5ClearINS0_16RepeatedPtrFieldIN5caffe9BlobProtoEE11TypeHandlerEEEvv+0x117>
  407a66:	90                   	nop
  407a67:	48 8d 45 b0          	lea    -0x50(%rbp),%rax
  407a6b:	48 89 c7             	mov    %rax,%rdi
  407a6e:	e8 8d d6 ff ff       	callq  405100 <_ZN6google8protobuf8internal10LogMessageD1Ev@plt>
  407a73:	eb 01                	jmp    407a76 <_ZN6google8protobuf8internal20RepeatedPtrFieldBase5ClearINS0_16RepeatedPtrFieldIN5caffe9BlobProtoEE11TypeHandlerEEEvv+0x118>
  407a75:	90                   	nop
  407a76:	4c 89 e0             	mov    %r12,%rax
  407a79:	48 89 c7             	mov    %rax,%rdi
  407a7c:	e8 2f d5 ff ff       	callq  404fb0 <_Unwind_Resume@plt>
  407a81:	90                   	nop
  407a82:	48 8b 45 e8          	mov    -0x18(%rbp),%rax
  407a86:	64 48 33 04 25 28 00 	xor    %fs:0x28,%rax
  407a8d:	00 00 
  407a8f:	74 05                	je     407a96 <_ZN6google8protobuf8internal20RepeatedPtrFieldBase5ClearINS0_16RepeatedPtrFieldIN5caffe9BlobProtoEE11TypeHandlerEEEvv+0x138>
  407a91:	e8 8a d3 ff ff       	callq  404e20 <__stack_chk_fail@plt>
  407a96:	48 83 c4 70          	add    $0x70,%rsp
  407a9a:	5b                   	pop    %rbx
  407a9b:	41 5c                	pop    %r12
  407a9d:	5d                   	pop    %rbp
  407a9e:	c3                   	retq   
  407a9f:	90                   	nop

0000000000407aa0 <_ZNK6google8protobuf8internal20RepeatedPtrFieldBase3GetINS0_16RepeatedPtrFieldIN5caffe9BlobProtoEE11TypeHandlerEEERKNT_4TypeEi>:
  407aa0:	55                   	push   %rbp
  407aa1:	48 89 e5             	mov    %rsp,%rbp
  407aa4:	41 54                	push   %r12
  407aa6:	53                   	push   %rbx
  407aa7:	48 81 ec a0 00 00 00 	sub    $0xa0,%rsp
  407aae:	48 89 bd 58 ff ff ff 	mov    %rdi,-0xa8(%rbp)
  407ab5:	89 b5 54 ff ff ff    	mov    %esi,-0xac(%rbp)
  407abb:	64 48 8b 04 25 28 00 	mov    %fs:0x28,%rax
  407ac2:	00 00 
  407ac4:	48 89 45 e8          	mov    %rax,-0x18(%rbp)
  407ac8:	31 c0                	xor    %eax,%eax
  407aca:	bb 00 00 00 00       	mov    $0x0,%ebx
  407acf:	41 bc 00 00 00 00    	mov    $0x0,%r12d
  407ad5:	83 bd 54 ff ff ff 00 	cmpl   $0x0,-0xac(%rbp)
  407adc:	79 52                	jns    407b30 <_ZNK6google8protobuf8internal20RepeatedPtrFieldBase3GetINS0_16RepeatedPtrFieldIN5caffe9BlobProtoEE11TypeHandlerEEERKNT_4TypeEi+0x90>
  407ade:	48 8d 85 70 ff ff ff 	lea    -0x90(%rbp),%rax
  407ae5:	b9 96 05 00 00       	mov    $0x596,%ecx
  407aea:	ba f8 d3 40 00       	mov    $0x40d3f8,%edx
  407aef:	be 03 00 00 00       	mov    $0x3,%esi
  407af4:	48 89 c7             	mov    %rax,%rdi
  407af7:	e8 64 d4 ff ff       	callq  404f60 <_ZN6google8protobuf8internal10LogMessageC1ENS0_8LogLevelEPKci@plt>
  407afc:	bb 01 00 00 00       	mov    $0x1,%ebx
  407b01:	48 8d 85 70 ff ff ff 	lea    -0x90(%rbp),%rax
  407b08:	be 68 d4 40 00       	mov    $0x40d468,%esi
  407b0d:	48 89 c7             	mov    %rax,%rdi
  407b10:	e8 ab d7 ff ff       	callq  4052c0 <_ZN6google8protobuf8internal10LogMessagelsEPKc@plt>
  407b15:	48 89 c2             	mov    %rax,%rdx
  407b18:	41 bc 01 00 00 00    	mov    $0x1,%r12d
  407b1e:	48 8d 85 6e ff ff ff 	lea    -0x92(%rbp),%rax
  407b25:	48 89 d6             	mov    %rdx,%rsi
  407b28:	48 89 c7             	mov    %rax,%rdi
  407b2b:	e8 30 d5 ff ff       	callq  405060 <_ZN6google8protobuf8internal11LogFinisheraSERNS1_10LogMessageE@plt>
  407b30:	45 84 e4             	test   %r12b,%r12b
  407b33:	84 db                	test   %bl,%bl
  407b35:	74 12                	je     407b49 <_ZNK6google8protobuf8internal20RepeatedPtrFieldBase3GetINS0_16RepeatedPtrFieldIN5caffe9BlobProtoEE11TypeHandlerEEERKNT_4TypeEi+0xa9>
  407b37:	90                   	nop
  407b38:	48 8d 85 70 ff ff ff 	lea    -0x90(%rbp),%rax
  407b3f:	48 89 c7             	mov    %rax,%rdi
  407b42:	e8 b9 d5 ff ff       	callq  405100 <_ZN6google8protobuf8internal10LogMessageD1Ev@plt>
  407b47:	eb 01                	jmp    407b4a <_ZNK6google8protobuf8internal20RepeatedPtrFieldBase3GetINS0_16RepeatedPtrFieldIN5caffe9BlobProtoEE11TypeHandlerEEERKNT_4TypeEi+0xaa>
  407b49:	90                   	nop
  407b4a:	48 8b 85 58 ff ff ff 	mov    -0xa8(%rbp),%rax
  407b51:	8b 40 08             	mov    0x8(%rax),%eax
  407b54:	bb 00 00 00 00       	mov    $0x0,%ebx
  407b59:	41 bc 00 00 00 00    	mov    $0x0,%r12d
  407b5f:	3b 85 54 ff ff ff    	cmp    -0xac(%rbp),%eax
  407b65:	7f 4c                	jg     407bb3 <_ZNK6google8protobuf8internal20RepeatedPtrFieldBase3GetINS0_16RepeatedPtrFieldIN5caffe9BlobProtoEE11TypeHandlerEEERKNT_4TypeEi+0x113>
  407b67:	48 8d 45 b0          	lea    -0x50(%rbp),%rax
  407b6b:	b9 97 05 00 00       	mov    $0x597,%ecx
  407b70:	ba f8 d3 40 00       	mov    $0x40d3f8,%edx
  407b75:	be 03 00 00 00       	mov    $0x3,%esi
  407b7a:	48 89 c7             	mov    %rax,%rdi
  407b7d:	e8 de d3 ff ff       	callq  404f60 <_ZN6google8protobuf8internal10LogMessageC1ENS0_8LogLevelEPKci@plt>
  407b82:	bb 01 00 00 00       	mov    $0x1,%ebx
  407b87:	48 8d 45 b0          	lea    -0x50(%rbp),%rax
  407b8b:	be 88 d4 40 00       	mov    $0x40d488,%esi
  407b90:	48 89 c7             	mov    %rax,%rdi
  407b93:	e8 28 d7 ff ff       	callq  4052c0 <_ZN6google8protobuf8internal10LogMessagelsEPKc@plt>
  407b98:	48 89 c2             	mov    %rax,%rdx
  407b9b:	41 bc 01 00 00 00    	mov    $0x1,%r12d
  407ba1:	48 8d 85 6f ff ff ff 	lea    -0x91(%rbp),%rax
  407ba8:	48 89 d6             	mov    %rdx,%rsi
  407bab:	48 89 c7             	mov    %rax,%rdi
  407bae:	e8 ad d4 ff ff       	callq  405060 <_ZN6google8protobuf8internal11LogFinisheraSERNS1_10LogMessageE@plt>
  407bb3:	45 84 e4             	test   %r12b,%r12b
  407bb6:	84 db                	test   %bl,%bl
  407bb8:	74 0f                	je     407bc9 <_ZNK6google8protobuf8internal20RepeatedPtrFieldBase3GetINS0_16RepeatedPtrFieldIN5caffe9BlobProtoEE11TypeHandlerEEERKNT_4TypeEi+0x129>
  407bba:	90                   	nop
  407bbb:	48 8d 45 b0          	lea    -0x50(%rbp),%rax
  407bbf:	48 89 c7             	mov    %rax,%rdi
  407bc2:	e8 39 d5 ff ff       	callq  405100 <_ZN6google8protobuf8internal10LogMessageD1Ev@plt>
  407bc7:	eb 01                	jmp    407bca <_ZNK6google8protobuf8internal20RepeatedPtrFieldBase3GetINS0_16RepeatedPtrFieldIN5caffe9BlobProtoEE11TypeHandlerEEERKNT_4TypeEi+0x12a>
  407bc9:	90                   	nop
  407bca:	48 8b 85 58 ff ff ff 	mov    -0xa8(%rbp),%rax
  407bd1:	48 8b 40 10          	mov    0x10(%rax),%rax
  407bd5:	8b 95 54 ff ff ff    	mov    -0xac(%rbp),%edx
  407bdb:	48 63 d2             	movslq %edx,%rdx
  407bde:	48 8b 44 d0 08       	mov    0x8(%rax,%rdx,8),%rax
  407be3:	48 89 c7             	mov    %rax,%rdi
  407be6:	e8 94 15 00 00       	callq  40917f <_ZN6google8protobuf8internal20RepeatedPtrFieldBase4castINS0_16RepeatedPtrFieldIN5caffe9BlobProtoEE11TypeHandlerEEEPNT_4TypeEPv>
  407beb:	48 8b 4d e8          	mov    -0x18(%rbp),%rcx
  407bef:	64 48 33 0c 25 28 00 	xor    %fs:0x28,%rcx
  407bf6:	00 00 
  407bf8:	74 54                	je     407c4e <_ZNK6google8protobuf8internal20RepeatedPtrFieldBase3GetINS0_16RepeatedPtrFieldIN5caffe9BlobProtoEE11TypeHandlerEEERKNT_4TypeEi+0x1ae>
  407bfa:	eb 4d                	jmp    407c49 <_ZNK6google8protobuf8internal20RepeatedPtrFieldBase3GetINS0_16RepeatedPtrFieldIN5caffe9BlobProtoEE11TypeHandlerEEERKNT_4TypeEi+0x1a9>
  407bfc:	45 84 e4             	test   %r12b,%r12b
  407bff:	49 89 c4             	mov    %rax,%r12
  407c02:	84 db                	test   %bl,%bl
  407c04:	74 12                	je     407c18 <_ZNK6google8protobuf8internal20RepeatedPtrFieldBase3GetINS0_16RepeatedPtrFieldIN5caffe9BlobProtoEE11TypeHandlerEEERKNT_4TypeEi+0x178>
  407c06:	90                   	nop
  407c07:	48 8d 85 70 ff ff ff 	lea    -0x90(%rbp),%rax
  407c0e:	48 89 c7             	mov    %rax,%rdi
  407c11:	e8 ea d4 ff ff       	callq  405100 <_ZN6google8protobuf8internal10LogMessageD1Ev@plt>
  407c16:	eb 01                	jmp    407c19 <_ZNK6google8protobuf8internal20RepeatedPtrFieldBase3GetINS0_16RepeatedPtrFieldIN5caffe9BlobProtoEE11TypeHandlerEEERKNT_4TypeEi+0x179>
  407c18:	90                   	nop
  407c19:	4c 89 e0             	mov    %r12,%rax
  407c1c:	48 89 c7             	mov    %rax,%rdi
  407c1f:	e8 8c d3 ff ff       	callq  404fb0 <_Unwind_Resume@plt>
  407c24:	45 84 e4             	test   %r12b,%r12b
  407c27:	49 89 c4             	mov    %rax,%r12
  407c2a:	84 db                	test   %bl,%bl
  407c2c:	74 0f                	je     407c3d <_ZNK6google8protobuf8internal20RepeatedPtrFieldBase3GetINS0_16RepeatedPtrFieldIN5caffe9BlobProtoEE11TypeHandlerEEERKNT_4TypeEi+0x19d>
  407c2e:	90                   	nop
  407c2f:	48 8d 45 b0          	lea    -0x50(%rbp),%rax
  407c33:	48 89 c7             	mov    %rax,%rdi
  407c36:	e8 c5 d4 ff ff       	callq  405100 <_ZN6google8protobuf8internal10LogMessageD1Ev@plt>
  407c3b:	eb 01                	jmp    407c3e <_ZNK6google8protobuf8internal20RepeatedPtrFieldBase3GetINS0_16RepeatedPtrFieldIN5caffe9BlobProtoEE11TypeHandlerEEERKNT_4TypeEi+0x19e>
  407c3d:	90                   	nop
  407c3e:	4c 89 e0             	mov    %r12,%rax
  407c41:	48 89 c7             	mov    %rax,%rdi
  407c44:	e8 67 d3 ff ff       	callq  404fb0 <_Unwind_Resume@plt>
  407c49:	e8 d2 d1 ff ff       	callq  404e20 <__stack_chk_fail@plt>
  407c4e:	48 81 c4 a0 00 00 00 	add    $0xa0,%rsp
  407c55:	5b                   	pop    %rbx
  407c56:	41 5c                	pop    %r12
  407c58:	5d                   	pop    %rbp
  407c59:	c3                   	retq   

0000000000407c5a <_ZN6google8protobuf8internal20RepeatedPtrFieldBase3AddINS0_16RepeatedPtrFieldIN5caffe9BlobProtoEE11TypeHandlerEEEPNT_4TypeESB_>:
  407c5a:	55                   	push   %rbp
  407c5b:	48 89 e5             	mov    %rsp,%rbp
  407c5e:	48 83 ec 20          	sub    $0x20,%rsp
  407c62:	48 89 7d e8          	mov    %rdi,-0x18(%rbp)
  407c66:	48 89 75 e0          	mov    %rsi,-0x20(%rbp)
  407c6a:	48 8b 45 e8          	mov    -0x18(%rbp),%rax
  407c6e:	48 8b 40 10          	mov    0x10(%rax),%rax
  407c72:	48 85 c0             	test   %rax,%rax
  407c75:	74 42                	je     407cb9 <_ZN6google8protobuf8internal20RepeatedPtrFieldBase3AddINS0_16RepeatedPtrFieldIN5caffe9BlobProtoEE11TypeHandlerEEEPNT_4TypeESB_+0x5f>
  407c77:	48 8b 45 e8          	mov    -0x18(%rbp),%rax
  407c7b:	8b 50 08             	mov    0x8(%rax),%edx
  407c7e:	48 8b 45 e8          	mov    -0x18(%rbp),%rax
  407c82:	48 8b 40 10          	mov    0x10(%rax),%rax
  407c86:	8b 00                	mov    (%rax),%eax
  407c88:	39 c2                	cmp    %eax,%edx
  407c8a:	7d 2d                	jge    407cb9 <_ZN6google8protobuf8internal20RepeatedPtrFieldBase3AddINS0_16RepeatedPtrFieldIN5caffe9BlobProtoEE11TypeHandlerEEEPNT_4TypeESB_+0x5f>
  407c8c:	48 8b 45 e8          	mov    -0x18(%rbp),%rax
  407c90:	48 8b 50 10          	mov    0x10(%rax),%rdx
  407c94:	48 8b 45 e8          	mov    -0x18(%rbp),%rax
  407c98:	8b 40 08             	mov    0x8(%rax),%eax
  407c9b:	8d 70 01             	lea    0x1(%rax),%esi
  407c9e:	48 8b 4d e8          	mov    -0x18(%rbp),%rcx
  407ca2:	89 71 08             	mov    %esi,0x8(%rcx)
  407ca5:	48 98                	cltq   
  407ca7:	48 8b 44 c2 08       	mov    0x8(%rdx,%rax,8),%rax
  407cac:	48 89 c7             	mov    %rax,%rdi
  407caf:	e8 cb 14 00 00       	callq  40917f <_ZN6google8protobuf8internal20RepeatedPtrFieldBase4castINS0_16RepeatedPtrFieldIN5caffe9BlobProtoEE11TypeHandlerEEEPNT_4TypeEPv>
  407cb4:	e9 8b 00 00 00       	jmpq   407d44 <_ZN6google8protobuf8internal20RepeatedPtrFieldBase3AddINS0_16RepeatedPtrFieldIN5caffe9BlobProtoEE11TypeHandlerEEEPNT_4TypeESB_+0xea>
  407cb9:	48 8b 45 e8          	mov    -0x18(%rbp),%rax
  407cbd:	48 8b 40 10          	mov    0x10(%rax),%rax
  407cc1:	48 85 c0             	test   %rax,%rax
  407cc4:	74 15                	je     407cdb <_ZN6google8protobuf8internal20RepeatedPtrFieldBase3AddINS0_16RepeatedPtrFieldIN5caffe9BlobProtoEE11TypeHandlerEEEPNT_4TypeESB_+0x81>
  407cc6:	48 8b 45 e8          	mov    -0x18(%rbp),%rax
  407cca:	48 8b 40 10          	mov    0x10(%rax),%rax
  407cce:	8b 10                	mov    (%rax),%edx
  407cd0:	48 8b 45 e8          	mov    -0x18(%rbp),%rax
  407cd4:	8b 40 0c             	mov    0xc(%rax),%eax
  407cd7:	39 c2                	cmp    %eax,%edx
  407cd9:	75 18                	jne    407cf3 <_ZN6google8protobuf8internal20RepeatedPtrFieldBase3AddINS0_16RepeatedPtrFieldIN5caffe9BlobProtoEE11TypeHandlerEEEPNT_4TypeESB_+0x99>
  407cdb:	48 8b 45 e8          	mov    -0x18(%rbp),%rax
  407cdf:	8b 40 0c             	mov    0xc(%rax),%eax
  407ce2:	8d 50 01             	lea    0x1(%rax),%edx
  407ce5:	48 8b 45 e8          	mov    -0x18(%rbp),%rax
  407ce9:	89 d6                	mov    %edx,%esi
  407ceb:	48 89 c7             	mov    %rax,%rdi
  407cee:	e8 7d d5 ff ff       	callq  405270 <_ZN6google8protobuf8internal20RepeatedPtrFieldBase7ReserveEi@plt>
  407cf3:	48 8b 45 e8          	mov    -0x18(%rbp),%rax
  407cf7:	48 8b 40 10          	mov    0x10(%rax),%rax
  407cfb:	8b 10                	mov    (%rax),%edx
  407cfd:	83 c2 01             	add    $0x1,%edx
  407d00:	89 10                	mov    %edx,(%rax)
  407d02:	48 8b 45 e8          	mov    -0x18(%rbp),%rax
  407d06:	48 8b 10             	mov    (%rax),%rdx
  407d09:	48 8b 45 e0          	mov    -0x20(%rbp),%rax
  407d0d:	48 89 d6             	mov    %rdx,%rsi
  407d10:	48 89 c7             	mov    %rax,%rdi
  407d13:	e8 76 14 00 00       	callq  40918e <_ZN6google8protobuf8internal18GenericTypeHandlerIN5caffe9BlobProtoEE16NewFromPrototypeEPKS4_PNS0_5ArenaE>
  407d18:	48 89 45 f8          	mov    %rax,-0x8(%rbp)
  407d1c:	48 8b 45 e8          	mov    -0x18(%rbp),%rax
  407d20:	48 8b 50 10          	mov    0x10(%rax),%rdx
  407d24:	48 8b 45 e8          	mov    -0x18(%rbp),%rax
  407d28:	8b 40 08             	mov    0x8(%rax),%eax
  407d2b:	8d 70 01             	lea    0x1(%rax),%esi
  407d2e:	48 8b 4d e8          	mov    -0x18(%rbp),%rcx
  407d32:	89 71 08             	mov    %esi,0x8(%rcx)
  407d35:	48 98                	cltq   
  407d37:	48 8b 4d f8          	mov    -0x8(%rbp),%rcx
  407d3b:	48 89 4c c2 08       	mov    %rcx,0x8(%rdx,%rax,8)
  407d40:	48 8b 45 f8          	mov    -0x8(%rbp),%rax
  407d44:	c9                   	leaveq 
  407d45:	c3                   	retq   

0000000000407d46 <_ZNSt12_Vector_baseIPN5caffe4BlobIfEESaIS3_EE12_Vector_implD1Ev>:
  407d46:	55                   	push   %rbp
  407d47:	48 89 e5             	mov    %rsp,%rbp
  407d4a:	48 83 ec 10          	sub    $0x10,%rsp
  407d4e:	48 89 7d f8          	mov    %rdi,-0x8(%rbp)
  407d52:	48 8b 45 f8          	mov    -0x8(%rbp),%rax
  407d56:	48 89 c7             	mov    %rax,%rdi
  407d59:	e8 8c 14 00 00       	callq  4091ea <_ZNSaIPN5caffe4BlobIfEEED1Ev>
  407d5e:	90                   	nop
  407d5f:	c9                   	leaveq 
  407d60:	c3                   	retq   
  407d61:	90                   	nop

0000000000407d62 <_ZNSt12_Vector_baseIPN5caffe4BlobIfEESaIS3_EEC1Ev>:
  407d62:	55                   	push   %rbp
  407d63:	48 89 e5             	mov    %rsp,%rbp
  407d66:	48 83 ec 10          	sub    $0x10,%rsp
  407d6a:	48 89 7d f8          	mov    %rdi,-0x8(%rbp)
  407d6e:	48 8b 45 f8          	mov    -0x8(%rbp),%rax
  407d72:	48 89 c7             	mov    %rax,%rdi
  407d75:	e8 32 14 00 00       	callq  4091ac <_ZNSt12_Vector_baseIPN5caffe4BlobIfEESaIS3_EE12_Vector_implC1Ev>
  407d7a:	90                   	nop
  407d7b:	c9                   	leaveq 
  407d7c:	c3                   	retq   
  407d7d:	90                   	nop

0000000000407d7e <_ZNSt12_Vector_baseIPN5caffe4BlobIfEESaIS3_EED1Ev>:
  407d7e:	55                   	push   %rbp
  407d7f:	48 89 e5             	mov    %rsp,%rbp
  407d82:	48 83 ec 10          	sub    $0x10,%rsp
  407d86:	48 89 7d f8          	mov    %rdi,-0x8(%rbp)
  407d8a:	48 8b 45 f8          	mov    -0x8(%rbp),%rax
  407d8e:	48 8b 40 10          	mov    0x10(%rax),%rax
  407d92:	48 89 c2             	mov    %rax,%rdx
  407d95:	48 8b 45 f8          	mov    -0x8(%rbp),%rax
  407d99:	48 8b 00             	mov    (%rax),%rax
  407d9c:	48 29 c2             	sub    %rax,%rdx
  407d9f:	48 89 d0             	mov    %rdx,%rax
  407da2:	48 c1 f8 03          	sar    $0x3,%rax
  407da6:	48 89 c2             	mov    %rax,%rdx
  407da9:	48 8b 45 f8          	mov    -0x8(%rbp),%rax
  407dad:	48 8b 08             	mov    (%rax),%rcx
  407db0:	48 8b 45 f8          	mov    -0x8(%rbp),%rax
  407db4:	48 89 ce             	mov    %rcx,%rsi
  407db7:	48 89 c7             	mov    %rax,%rdi
  407dba:	e8 47 14 00 00       	callq  409206 <_ZNSt12_Vector_baseIPN5caffe4BlobIfEESaIS3_EE13_M_deallocateEPS3_m>
  407dbf:	48 8b 45 f8          	mov    -0x8(%rbp),%rax
  407dc3:	48 89 c7             	mov    %rax,%rdi
  407dc6:	e8 7b ff ff ff       	callq  407d46 <_ZNSt12_Vector_baseIPN5caffe4BlobIfEESaIS3_EE12_Vector_implD1Ev>
  407dcb:	90                   	nop
  407dcc:	c9                   	leaveq 
  407dcd:	c3                   	retq   

0000000000407dce <_ZNSt12_Vector_baseIPN5caffe4BlobIfEESaIS3_EE19_M_get_Tp_allocatorEv>:
  407dce:	55                   	push   %rbp
  407dcf:	48 89 e5             	mov    %rsp,%rbp
  407dd2:	48 89 7d f8          	mov    %rdi,-0x8(%rbp)
  407dd6:	48 8b 45 f8          	mov    -0x8(%rbp),%rax
  407dda:	5d                   	pop    %rbp
  407ddb:	c3                   	retq   

0000000000407ddc <_ZSt8_DestroyIPPN5caffe4BlobIfEES3_EvT_S5_RSaIT0_E>:
  407ddc:	55                   	push   %rbp
  407ddd:	48 89 e5             	mov    %rsp,%rbp
  407de0:	48 83 ec 20          	sub    $0x20,%rsp
  407de4:	48 89 7d f8          	mov    %rdi,-0x8(%rbp)
  407de8:	48 89 75 f0          	mov    %rsi,-0x10(%rbp)
  407dec:	48 89 55 e8          	mov    %rdx,-0x18(%rbp)
  407df0:	48 8b 55 f0          	mov    -0x10(%rbp),%rdx
  407df4:	48 8b 45 f8          	mov    -0x8(%rbp),%rax
  407df8:	48 89 d6             	mov    %rdx,%rsi
  407dfb:	48 89 c7             	mov    %rax,%rdi
  407dfe:	e8 38 14 00 00       	callq  40923b <_ZSt8_DestroyIPPN5caffe4BlobIfEEEvT_S5_>
  407e03:	90                   	nop
  407e04:	c9                   	leaveq 
  407e05:	c3                   	retq   

0000000000407e06 <_ZSt7forwardIRKPN5caffe4BlobIfEEEOT_RNSt16remove_referenceIS6_E4typeE>:
  407e06:	55                   	push   %rbp
  407e07:	48 89 e5             	mov    %rsp,%rbp
  407e0a:	48 89 7d f8          	mov    %rdi,-0x8(%rbp)
  407e0e:	48 8b 45 f8          	mov    -0x8(%rbp),%rax
  407e12:	5d                   	pop    %rbp
  407e13:	c3                   	retq   

0000000000407e14 <_ZNSt16allocator_traitsISaIPN5caffe4BlobIfEEEE9constructIS3_JRKS3_EEEvRS4_PT_DpOT0_>:
  407e14:	55                   	push   %rbp
  407e15:	48 89 e5             	mov    %rsp,%rbp
  407e18:	48 83 ec 20          	sub    $0x20,%rsp
  407e1c:	48 89 7d f8          	mov    %rdi,-0x8(%rbp)
  407e20:	48 89 75 f0          	mov    %rsi,-0x10(%rbp)
  407e24:	48 89 55 e8          	mov    %rdx,-0x18(%rbp)
  407e28:	48 8b 45 e8          	mov    -0x18(%rbp),%rax
  407e2c:	48 89 c7             	mov    %rax,%rdi
  407e2f:	e8 d2 ff ff ff       	callq  407e06 <_ZSt7forwardIRKPN5caffe4BlobIfEEEOT_RNSt16remove_referenceIS6_E4typeE>
  407e34:	48 89 c2             	mov    %rax,%rdx
  407e37:	48 8b 4d f0          	mov    -0x10(%rbp),%rcx
  407e3b:	48 8b 45 f8          	mov    -0x8(%rbp),%rax
  407e3f:	48 89 ce             	mov    %rcx,%rsi
  407e42:	48 89 c7             	mov    %rax,%rdi
  407e45:	e8 18 14 00 00       	callq  409262 <_ZN9__gnu_cxx13new_allocatorIPN5caffe4BlobIfEEE9constructIS4_JRKS4_EEEvPT_DpOT0_>
  407e4a:	90                   	nop
  407e4b:	c9                   	leaveq 
  407e4c:	c3                   	retq   
  407e4d:	90                   	nop

0000000000407e4e <_ZNSt6vectorIPN5caffe4BlobIfEESaIS3_EE19_M_emplace_back_auxIJRKS3_EEEvDpOT_>:
  407e4e:	55                   	push   %rbp
  407e4f:	48 89 e5             	mov    %rsp,%rbp
  407e52:	53                   	push   %rbx
  407e53:	48 83 ec 38          	sub    $0x38,%rsp
  407e57:	48 89 7d c8          	mov    %rdi,-0x38(%rbp)
  407e5b:	48 89 75 c0          	mov    %rsi,-0x40(%rbp)
  407e5f:	48 8b 45 c8          	mov    -0x38(%rbp),%rax
  407e63:	ba 92 d6 40 00       	mov    $0x40d692,%edx
  407e68:	be 01 00 00 00       	mov    $0x1,%esi
  407e6d:	48 89 c7             	mov    %rax,%rdi
  407e70:	e8 33 14 00 00       	callq  4092a8 <_ZNKSt6vectorIPN5caffe4BlobIfEESaIS3_EE12_M_check_lenEmPKc>
  407e75:	48 89 45 e0          	mov    %rax,-0x20(%rbp)
  407e79:	48 8b 45 c8          	mov    -0x38(%rbp),%rax
  407e7d:	48 8b 55 e0          	mov    -0x20(%rbp),%rdx
  407e81:	48 89 d6             	mov    %rdx,%rsi
  407e84:	48 89 c7             	mov    %rax,%rdi
  407e87:	e8 08 15 00 00       	callq  409394 <_ZNSt12_Vector_baseIPN5caffe4BlobIfEESaIS3_EE11_M_allocateEm>
  407e8c:	48 89 45 e8          	mov    %rax,-0x18(%rbp)
  407e90:	48 8b 45 e8          	mov    -0x18(%rbp),%rax
  407e94:	48 89 45 d8          	mov    %rax,-0x28(%rbp)
  407e98:	48 8b 45 c0          	mov    -0x40(%rbp),%rax
  407e9c:	48 89 c7             	mov    %rax,%rdi
  407e9f:	e8 62 ff ff ff       	callq  407e06 <_ZSt7forwardIRKPN5caffe4BlobIfEEEOT_RNSt16remove_referenceIS6_E4typeE>
  407ea4:	48 89 c3             	mov    %rax,%rbx
  407ea7:	48 8b 45 c8          	mov    -0x38(%rbp),%rax
  407eab:	48 89 c7             	mov    %rax,%rdi
  407eae:	e8 85 0e 00 00       	callq  408d38 <_ZNKSt6vectorIPN5caffe4BlobIfEESaIS3_EE4sizeEv>
  407eb3:	48 8d 14 c5 00 00 00 	lea    0x0(,%rax,8),%rdx
  407eba:	00 
  407ebb:	48 8b 45 e8          	mov    -0x18(%rbp),%rax
  407ebf:	48 8d 0c 02          	lea    (%rdx,%rax,1),%rcx
  407ec3:	48 8b 45 c8          	mov    -0x38(%rbp),%rax
  407ec7:	48 89 da             	mov    %rbx,%rdx
  407eca:	48 89 ce             	mov    %rcx,%rsi
  407ecd:	48 89 c7             	mov    %rax,%rdi
  407ed0:	e8 3f ff ff ff       	callq  407e14 <_ZNSt16allocator_traitsISaIPN5caffe4BlobIfEEEE9constructIS3_JRKS3_EEEvRS4_PT_DpOT0_>
  407ed5:	48 c7 45 d8 00 00 00 	movq   $0x0,-0x28(%rbp)
  407edc:	00 
  407edd:	48 8b 45 c8          	mov    -0x38(%rbp),%rax
  407ee1:	48 89 c7             	mov    %rax,%rdi
  407ee4:	e8 e5 fe ff ff       	callq  407dce <_ZNSt12_Vector_baseIPN5caffe4BlobIfEESaIS3_EE19_M_get_Tp_allocatorEv>
  407ee9:	48 89 c1             	mov    %rax,%rcx
  407eec:	48 8b 45 c8          	mov    -0x38(%rbp),%rax
  407ef0:	48 8b 70 08          	mov    0x8(%rax),%rsi
  407ef4:	48 8b 45 c8          	mov    -0x38(%rbp),%rax
  407ef8:	48 8b 00             	mov    (%rax),%rax
  407efb:	48 8b 55 e8          	mov    -0x18(%rbp),%rdx
  407eff:	48 89 c7             	mov    %rax,%rdi
  407f02:	e8 c0 14 00 00       	callq  4093c7 <_ZSt34__uninitialized_move_if_noexcept_aIPPN5caffe4BlobIfEES4_SaIS3_EET0_T_S7_S6_RT1_>
  407f07:	48 89 45 d8          	mov    %rax,-0x28(%rbp)
  407f0b:	48 83 45 d8 08       	addq   $0x8,-0x28(%rbp)
  407f10:	48 8b 45 c8          	mov    -0x38(%rbp),%rax
  407f14:	48 89 c7             	mov    %rax,%rdi
  407f17:	e8 b2 fe ff ff       	callq  407dce <_ZNSt12_Vector_baseIPN5caffe4BlobIfEESaIS3_EE19_M_get_Tp_allocatorEv>
  407f1c:	48 89 c2             	mov    %rax,%rdx
  407f1f:	48 8b 45 c8          	mov    -0x38(%rbp),%rax
  407f23:	48 8b 48 08          	mov    0x8(%rax),%rcx
  407f27:	48 8b 45 c8          	mov    -0x38(%rbp),%rax
  407f2b:	48 8b 00             	mov    (%rax),%rax
  407f2e:	48 89 ce             	mov    %rcx,%rsi
  407f31:	48 89 c7             	mov    %rax,%rdi
  407f34:	e8 a3 fe ff ff       	callq  407ddc <_ZSt8_DestroyIPPN5caffe4BlobIfEES3_EvT_S5_RSaIT0_E>
  407f39:	48 8b 45 c8          	mov    -0x38(%rbp),%rax
  407f3d:	48 8b 40 10          	mov    0x10(%rax),%rax
  407f41:	48 89 c2             	mov    %rax,%rdx
  407f44:	48 8b 45 c8          	mov    -0x38(%rbp),%rax
  407f48:	48 8b 00             	mov    (%rax),%rax
  407f4b:	48 29 c2             	sub    %rax,%rdx
  407f4e:	48 89 d0             	mov    %rdx,%rax
  407f51:	48 c1 f8 03          	sar    $0x3,%rax
  407f55:	48 89 c2             	mov    %rax,%rdx
  407f58:	48 8b 45 c8          	mov    -0x38(%rbp),%rax
  407f5c:	48 8b 08             	mov    (%rax),%rcx
  407f5f:	48 8b 45 c8          	mov    -0x38(%rbp),%rax
  407f63:	48 89 ce             	mov    %rcx,%rsi
  407f66:	48 89 c7             	mov    %rax,%rdi
  407f69:	e8 98 12 00 00       	callq  409206 <_ZNSt12_Vector_baseIPN5caffe4BlobIfEESaIS3_EE13_M_deallocateEPS3_m>
  407f6e:	48 8b 45 c8          	mov    -0x38(%rbp),%rax
  407f72:	48 8b 55 e8          	mov    -0x18(%rbp),%rdx
  407f76:	48 89 10             	mov    %rdx,(%rax)
  407f79:	48 8b 45 c8          	mov    -0x38(%rbp),%rax
  407f7d:	48 8b 55 d8          	mov    -0x28(%rbp),%rdx
  407f81:	48 89 50 08          	mov    %rdx,0x8(%rax)
  407f85:	48 8b 45 e0          	mov    -0x20(%rbp),%rax
  407f89:	48 8d 14 c5 00 00 00 	lea    0x0(,%rax,8),%rdx
  407f90:	00 
  407f91:	48 8b 45 e8          	mov    -0x18(%rbp),%rax
  407f95:	48 01 c2             	add    %rax,%rdx
  407f98:	48 8b 45 c8          	mov    -0x38(%rbp),%rax
  407f9c:	48 89 50 10          	mov    %rdx,0x10(%rax)
  407fa0:	e9 8c 00 00 00       	jmpq   408031 <_ZNSt6vectorIPN5caffe4BlobIfEESaIS3_EE19_M_emplace_back_auxIJRKS3_EEEvDpOT_+0x1e3>
  407fa5:	48 89 c7             	mov    %rax,%rdi
  407fa8:	e8 83 cd ff ff       	callq  404d30 <__cxa_begin_catch@plt>
  407fad:	48 83 7d d8 00       	cmpq   $0x0,-0x28(%rbp)
  407fb2:	75 2c                	jne    407fe0 <_ZNSt6vectorIPN5caffe4BlobIfEESaIS3_EE19_M_emplace_back_auxIJRKS3_EEEvDpOT_+0x192>
  407fb4:	48 8b 45 c8          	mov    -0x38(%rbp),%rax
  407fb8:	48 89 c7             	mov    %rax,%rdi
  407fbb:	e8 78 0d 00 00       	callq  408d38 <_ZNKSt6vectorIPN5caffe4BlobIfEESaIS3_EE4sizeEv>
  407fc0:	48 8d 14 c5 00 00 00 	lea    0x0(,%rax,8),%rdx
  407fc7:	00 
  407fc8:	48 8b 45 e8          	mov    -0x18(%rbp),%rax
  407fcc:	48 01 c2             	add    %rax,%rdx
  407fcf:	48 8b 45 c8          	mov    -0x38(%rbp),%rax
  407fd3:	48 89 d6             	mov    %rdx,%rsi
  407fd6:	48 89 c7             	mov    %rax,%rdi
  407fd9:	e8 3d 14 00 00       	callq  40941b <_ZNSt16allocator_traitsISaIPN5caffe4BlobIfEEEE7destroyIS3_EEvRS4_PT_>
  407fde:	eb 22                	jmp    408002 <_ZNSt6vectorIPN5caffe4BlobIfEESaIS3_EE19_M_emplace_back_auxIJRKS3_EEEvDpOT_+0x1b4>
  407fe0:	48 8b 45 c8          	mov    -0x38(%rbp),%rax
  407fe4:	48 89 c7             	mov    %rax,%rdi
  407fe7:	e8 e2 fd ff ff       	callq  407dce <_ZNSt12_Vector_baseIPN5caffe4BlobIfEESaIS3_EE19_M_get_Tp_allocatorEv>
  407fec:	48 89 c2             	mov    %rax,%rdx
  407fef:	48 8b 4d d8          	mov    -0x28(%rbp),%rcx
  407ff3:	48 8b 45 e8          	mov    -0x18(%rbp),%rax
  407ff7:	48 89 ce             	mov    %rcx,%rsi
  407ffa:	48 89 c7             	mov    %rax,%rdi
  407ffd:	e8 da fd ff ff       	callq  407ddc <_ZSt8_DestroyIPPN5caffe4BlobIfEES3_EvT_S5_RSaIT0_E>
  408002:	48 8b 45 c8          	mov    -0x38(%rbp),%rax
  408006:	48 8b 55 e0          	mov    -0x20(%rbp),%rdx
  40800a:	48 8b 4d e8          	mov    -0x18(%rbp),%rcx
  40800e:	48 89 ce             	mov    %rcx,%rsi
  408011:	48 89 c7             	mov    %rax,%rdi
  408014:	e8 ed 11 00 00       	callq  409206 <_ZNSt12_Vector_baseIPN5caffe4BlobIfEESaIS3_EE13_M_deallocateEPS3_m>
  408019:	e8 52 d0 ff ff       	callq  405070 <__cxa_rethrow@plt>
  40801e:	48 89 c3             	mov    %rax,%rbx
  408021:	e8 1a d0 ff ff       	callq  405040 <__cxa_end_catch@plt>
  408026:	48 89 d8             	mov    %rbx,%rax
  408029:	48 89 c7             	mov    %rax,%rdi
  40802c:	e8 7f cf ff ff       	callq  404fb0 <_Unwind_Resume@plt>
  408031:	48 83 c4 38          	add    $0x38,%rsp
  408035:	5b                   	pop    %rbx
  408036:	5d                   	pop    %rbp
  408037:	c3                   	retq   

0000000000408038 <_ZN5boost10shared_ptrIN5caffe12SyncedMemoryEEC1Ev>:
  408038:	55                   	push   %rbp
  408039:	48 89 e5             	mov    %rsp,%rbp
  40803c:	48 83 ec 10          	sub    $0x10,%rsp
  408040:	48 89 7d f8          	mov    %rdi,-0x8(%rbp)
  408044:	48 8b 45 f8          	mov    -0x8(%rbp),%rax
  408048:	48 c7 00 00 00 00 00 	movq   $0x0,(%rax)
  40804f:	48 8b 45 f8          	mov    -0x8(%rbp),%rax
  408053:	48 83 c0 08          	add    $0x8,%rax
  408057:	48 89 c7             	mov    %rax,%rdi
  40805a:	e8 3d d6 ff ff       	callq  40569c <_ZN5boost6detail12shared_countC1Ev>
  40805f:	90                   	nop
  408060:	c9                   	leaveq 
  408061:	c3                   	retq   

0000000000408062 <_ZNSt6vectorIiSaIiEEC1Ev>:
  408062:	55                   	push   %rbp
  408063:	48 89 e5             	mov    %rsp,%rbp
  408066:	48 83 ec 10          	sub    $0x10,%rsp
  40806a:	48 89 7d f8          	mov    %rdi,-0x8(%rbp)
  40806e:	48 8b 45 f8          	mov    -0x8(%rbp),%rax
  408072:	48 89 c7             	mov    %rax,%rdi
  408075:	e8 c8 13 00 00       	callq  409442 <_ZNSt12_Vector_baseIiSaIiEEC1Ev>
  40807a:	90                   	nop
  40807b:	c9                   	leaveq 
  40807c:	c3                   	retq   
  40807d:	90                   	nop

000000000040807e <_ZN5caffe20BaseConvolutionLayerIfEC1ERKNS_14LayerParameterE>:
  40807e:	55                   	push   %rbp
  40807f:	48 89 e5             	mov    %rsp,%rbp
  408082:	48 83 ec 10          	sub    $0x10,%rsp
  408086:	48 89 7d f8          	mov    %rdi,-0x8(%rbp)
  40808a:	48 89 75 f0          	mov    %rsi,-0x10(%rbp)
  40808e:	48 8b 45 f8          	mov    -0x8(%rbp),%rax
  408092:	48 8b 55 f0          	mov    -0x10(%rbp),%rdx
  408096:	48 89 d6             	mov    %rdx,%rsi
  408099:	48 89 c7             	mov    %rax,%rdi
  40809c:	e8 bd 13 00 00       	callq  40945e <_ZN5caffe5LayerIfEC1ERKNS_14LayerParameterE>
  4080a1:	ba a8 dd 40 00       	mov    $0x40dda8,%edx
  4080a6:	48 8b 45 f8          	mov    -0x8(%rbp),%rax
  4080aa:	48 89 10             	mov    %rdx,(%rax)
  4080ad:	48 8b 45 f8          	mov    -0x8(%rbp),%rax
  4080b1:	48 05 c0 02 00 00    	add    $0x2c0,%rax
  4080b7:	48 89 c7             	mov    %rax,%rdi
  4080ba:	e8 77 15 00 00       	callq  409636 <_ZN5caffe4BlobIiEC1Ev>
  4080bf:	48 8b 45 f8          	mov    -0x8(%rbp),%rax
  4080c3:	48 05 10 03 00 00    	add    $0x310,%rax
  4080c9:	48 89 c7             	mov    %rax,%rdi
  4080cc:	e8 65 15 00 00       	callq  409636 <_ZN5caffe4BlobIiEC1Ev>
  4080d1:	48 8b 45 f8          	mov    -0x8(%rbp),%rax
  4080d5:	48 05 60 03 00 00    	add    $0x360,%rax
  4080db:	48 89 c7             	mov    %rax,%rdi
  4080de:	e8 53 15 00 00       	callq  409636 <_ZN5caffe4BlobIiEC1Ev>
  4080e3:	48 8b 45 f8          	mov    -0x8(%rbp),%rax
  4080e7:	48 05 b0 03 00 00    	add    $0x3b0,%rax
  4080ed:	48 89 c7             	mov    %rax,%rdi
  4080f0:	e8 41 15 00 00       	callq  409636 <_ZN5caffe4BlobIiEC1Ev>
  4080f5:	48 8b 45 f8          	mov    -0x8(%rbp),%rax
  4080f9:	48 05 00 04 00 00    	add    $0x400,%rax
  4080ff:	48 89 c7             	mov    %rax,%rdi
  408102:	e8 2f 15 00 00       	callq  409636 <_ZN5caffe4BlobIiEC1Ev>
  408107:	48 8b 45 f8          	mov    -0x8(%rbp),%rax
  40810b:	48 05 50 04 00 00    	add    $0x450,%rax
  408111:	48 89 c7             	mov    %rax,%rdi
  408114:	e8 49 ff ff ff       	callq  408062 <_ZNSt6vectorIiSaIiEEC1Ev>
  408119:	48 8b 45 f8          	mov    -0x8(%rbp),%rax
  40811d:	48 05 68 04 00 00    	add    $0x468,%rax
  408123:	48 89 c7             	mov    %rax,%rdi
  408126:	e8 37 ff ff ff       	callq  408062 <_ZNSt6vectorIiSaIiEEC1Ev>
  40812b:	48 8b 45 f8          	mov    -0x8(%rbp),%rax
  40812f:	48 05 d8 04 00 00    	add    $0x4d8,%rax
  408135:	48 89 c7             	mov    %rax,%rdi
  408138:	e8 b5 ee ff ff       	callq  406ff2 <_ZN5caffe4BlobIfEC1Ev>
  40813d:	48 8b 45 f8          	mov    -0x8(%rbp),%rax
  408141:	48 05 28 05 00 00    	add    $0x528,%rax
  408147:	48 89 c7             	mov    %rax,%rdi
  40814a:	e8 a3 ee ff ff       	callq  406ff2 <_ZN5caffe4BlobIfEC1Ev>
  40814f:	90                   	nop
  408150:	c9                   	leaveq 
  408151:	c3                   	retq   

0000000000408152 <_ZN5caffe5LayerIfED1Ev>:
  408152:	55                   	push   %rbp
  408153:	48 89 e5             	mov    %rsp,%rbp
  408156:	48 83 ec 10          	sub    $0x10,%rsp
  40815a:	48 89 7d f8          	mov    %rdi,-0x8(%rbp)
  40815e:	ba 68 de 40 00       	mov    $0x40de68,%edx
  408163:	48 8b 45 f8          	mov    -0x8(%rbp),%rax
  408167:	48 89 10             	mov    %rdx,(%rax)
  40816a:	48 8b 45 f8          	mov    -0x8(%rbp),%rax
  40816e:	48 05 a8 02 00 00    	add    $0x2a8,%rax
  408174:	48 89 c7             	mov    %rax,%rdi
  408177:	e8 7c 15 00 00       	callq  4096f8 <_ZNSt6vectorIfSaIfEED1Ev>
  40817c:	48 8b 45 f8          	mov    -0x8(%rbp),%rax
  408180:	48 05 80 02 00 00    	add    $0x280,%rax
  408186:	48 89 c7             	mov    %rax,%rdi
  408189:	e8 4e 15 00 00       	callq  4096dc <_ZNSt6vectorIbSaIbEED1Ev>
  40818e:	48 8b 45 f8          	mov    -0x8(%rbp),%rax
  408192:	48 05 68 02 00 00    	add    $0x268,%rax
  408198:	48 89 c7             	mov    %rax,%rdi
  40819b:	e8 f8 14 00 00       	callq  409698 <_ZNSt6vectorIN5boost10shared_ptrIN5caffe4BlobIfEEEESaIS5_EED1Ev>
  4081a0:	48 8b 45 f8          	mov    -0x8(%rbp),%rax
  4081a4:	48 83 c0 08          	add    $0x8,%rax
  4081a8:	48 89 c7             	mov    %rax,%rdi
  4081ab:	e8 00 d1 ff ff       	callq  4052b0 <_ZN5caffe14LayerParameterD1Ev@plt>
  4081b0:	90                   	nop
  4081b1:	c9                   	leaveq 
  4081b2:	c3                   	retq   
  4081b3:	90                   	nop

00000000004081b4 <_ZN5caffe5LayerIfED0Ev>:
  4081b4:	55                   	push   %rbp
  4081b5:	48 89 e5             	mov    %rsp,%rbp
  4081b8:	48 83 ec 10          	sub    $0x10,%rsp
  4081bc:	48 89 7d f8          	mov    %rdi,-0x8(%rbp)
  4081c0:	48 8b 45 f8          	mov    -0x8(%rbp),%rax
  4081c4:	48 89 c7             	mov    %rax,%rdi
  4081c7:	e8 86 ff ff ff       	callq  408152 <_ZN5caffe5LayerIfED1Ev>
  4081cc:	48 8b 45 f8          	mov    -0x8(%rbp),%rax
  4081d0:	48 89 c7             	mov    %rax,%rdi
  4081d3:	e8 48 cd ff ff       	callq  404f20 <_ZdlPv@plt>
  4081d8:	c9                   	leaveq 
  4081d9:	c3                   	retq   

00000000004081da <_ZN5caffe5LayerIfE15CheckBlobCountsERKSt6vectorIPNS_4BlobIfEESaIS5_EES9_>:
  4081da:	55                   	push   %rbp
  4081db:	48 89 e5             	mov    %rsp,%rbp
  4081de:	41 54                	push   %r12
  4081e0:	53                   	push   %rbx
  4081e1:	48 83 c4 80          	add    $0xffffffffffffff80,%rsp
  4081e5:	48 89 7d 88          	mov    %rdi,-0x78(%rbp)
  4081e9:	48 89 75 80          	mov    %rsi,-0x80(%rbp)
  4081ed:	48 89 95 78 ff ff ff 	mov    %rdx,-0x88(%rbp)
  4081f4:	64 48 8b 04 25 28 00 	mov    %fs:0x28,%rax
  4081fb:	00 00 
  4081fd:	48 89 45 e8          	mov    %rax,-0x18(%rbp)
  408201:	31 c0                	xor    %eax,%eax
  408203:	48 8b 45 88          	mov    -0x78(%rbp),%rax
  408207:	48 8b 00             	mov    (%rax),%rax
  40820a:	48 83 c0 30          	add    $0x30,%rax
  40820e:	48 8b 00             	mov    (%rax),%rax
  408211:	48 8b 55 88          	mov    -0x78(%rbp),%rdx
  408215:	48 89 d7             	mov    %rdx,%rdi
  408218:	ff d0                	callq  *%rax
  40821a:	f7 d0                	not    %eax
  40821c:	c1 e8 1f             	shr    $0x1f,%eax
  40821f:	84 c0                	test   %al,%al
  408221:	0f 84 0a 01 00 00    	je     408331 <_ZN5caffe5LayerIfE15CheckBlobCountsERKSt6vectorIPNS_4BlobIfEESaIS5_EES9_+0x157>
  408227:	48 8b 45 80          	mov    -0x80(%rbp),%rax
  40822b:	48 89 c7             	mov    %rax,%rdi
  40822e:	e8 05 0b 00 00       	callq  408d38 <_ZNKSt6vectorIPN5caffe4BlobIfEESaIS3_EE4sizeEv>
  408233:	48 89 c7             	mov    %rax,%rdi
  408236:	e8 01 d5 ff ff       	callq  40573c <_ZN6google21GetReferenceableValueEm>
  40823b:	48 89 45 d0          	mov    %rax,-0x30(%rbp)
  40823f:	48 8b 45 88          	mov    -0x78(%rbp),%rax
  408243:	48 8b 00             	mov    (%rax),%rax
  408246:	48 83 c0 30          	add    $0x30,%rax
  40824a:	48 8b 00             	mov    (%rax),%rax
  40824d:	48 8b 55 88          	mov    -0x78(%rbp),%rdx
  408251:	48 89 d7             	mov    %rdx,%rdi
  408254:	ff d0                	callq  *%rax
  408256:	89 c7                	mov    %eax,%edi
  408258:	e8 d3 d4 ff ff       	callq  405730 <_ZN6google21GetReferenceableValueEi>
  40825d:	89 45 90             	mov    %eax,-0x70(%rbp)
  408260:	48 8d 4d d0          	lea    -0x30(%rbp),%rcx
  408264:	48 8d 45 90          	lea    -0x70(%rbp),%rax
  408268:	ba b0 d6 40 00       	mov    $0x40d6b0,%edx
  40826d:	48 89 ce             	mov    %rcx,%rsi
  408270:	48 89 c7             	mov    %rax,%rdi
  408273:	e8 d3 14 00 00       	callq  40974b <_ZN6google12Check_EQImplIimEEPNSt7__cxx1112basic_stringIcSt11char_traitsIcESaIcEEERKT_RKT0_PKc>
  408278:	48 89 45 98          	mov    %rax,-0x68(%rbp)
  40827c:	48 83 7d 98 00       	cmpq   $0x0,-0x68(%rbp)
  408281:	0f 84 aa 00 00 00    	je     408331 <_ZN5caffe5LayerIfE15CheckBlobCountsERKSt6vectorIPNS_4BlobIfEESaIS5_EES9_+0x157>
  408287:	48 8b 45 88          	mov    -0x78(%rbp),%rax
  40828b:	48 8b 00             	mov    (%rax),%rax
  40828e:	48 83 c0 30          	add    $0x30,%rax
  408292:	48 8b 00             	mov    (%rax),%rax
  408295:	48 8b 55 88          	mov    -0x78(%rbp),%rdx
  408299:	48 89 d7             	mov    %rdx,%rdi
  40829c:	ff d0                	callq  *%rax
  40829e:	89 c3                	mov    %eax,%ebx
  4082a0:	48 8b 45 88          	mov    -0x78(%rbp),%rax
  4082a4:	48 8b 00             	mov    (%rax),%rax
  4082a7:	48 83 c0 28          	add    $0x28,%rax
  4082ab:	48 8b 00             	mov    (%rax),%rax
  4082ae:	48 8b 55 88          	mov    -0x78(%rbp),%rdx
  4082b2:	48 89 d7             	mov    %rdx,%rdi
  4082b5:	ff d0                	callq  *%rax
  4082b7:	49 89 c4             	mov    %rax,%r12
  4082ba:	48 8b 55 98          	mov    -0x68(%rbp),%rdx
  4082be:	48 8d 45 90          	lea    -0x70(%rbp),%rax
  4082c2:	48 89 d6             	mov    %rdx,%rsi
  4082c5:	48 89 c7             	mov    %rax,%rdi
  4082c8:	e8 49 d4 ff ff       	callq  405716 <_ZN6google13CheckOpStringC1EPNSt7__cxx1112basic_stringIcSt11char_traitsIcESaIcEEE>
  4082cd:	48 8d 55 90          	lea    -0x70(%rbp),%rdx
  4082d1:	48 8d 45 d0          	lea    -0x30(%rbp),%rax
  4082d5:	48 89 d1             	mov    %rdx,%rcx
  4082d8:	ba 5d 01 00 00       	mov    $0x15d,%edx
  4082dd:	be d8 d4 40 00       	mov    $0x40d4d8,%esi
  4082e2:	48 89 c7             	mov    %rax,%rdi
  4082e5:	e8 b6 cc ff ff       	callq  404fa0 <_ZN6google15LogMessageFatalC1EPKciRKNS_13CheckOpStringE@plt>
  4082ea:	48 8d 45 d0          	lea    -0x30(%rbp),%rax
  4082ee:	48 89 c7             	mov    %rax,%rdi
  4082f1:	e8 8a ce ff ff       	callq  405180 <_ZN6google10LogMessage6streamEv@plt>
  4082f6:	4c 89 e6             	mov    %r12,%rsi
  4082f9:	48 89 c7             	mov    %rax,%rdi
  4082fc:	e8 3f cc ff ff       	callq  404f40 <_ZStlsISt11char_traitsIcEERSt13basic_ostreamIcT_ES5_PKc@plt>
  408301:	be d7 d6 40 00       	mov    $0x40d6d7,%esi
  408306:	48 89 c7             	mov    %rax,%rdi
  408309:	e8 32 cc ff ff       	callq  404f40 <_ZStlsISt11char_traitsIcEERSt13basic_ostreamIcT_ES5_PKc@plt>
  40830e:	89 de                	mov    %ebx,%esi
  408310:	48 89 c7             	mov    %rax,%rdi
  408313:	e8 48 cb ff ff       	callq  404e60 <_ZNSolsEi@plt>
  408318:	be e5 d6 40 00       	mov    $0x40d6e5,%esi
  40831d:	48 89 c7             	mov    %rax,%rdi
  408320:	e8 1b cc ff ff       	callq  404f40 <_ZStlsISt11char_traitsIcEERSt13basic_ostreamIcT_ES5_PKc@plt>
  408325:	48 8d 45 d0          	lea    -0x30(%rbp),%rax
  408329:	48 89 c7             	mov    %rax,%rdi
  40832c:	e8 af cd ff ff       	callq  4050e0 <_ZN6google15LogMessageFatalD1Ev@plt>
  408331:	48 8b 45 88          	mov    -0x78(%rbp),%rax
  408335:	48 8b 00             	mov    (%rax),%rax
  408338:	48 83 c0 38          	add    $0x38,%rax
  40833c:	48 8b 00             	mov    (%rax),%rax
  40833f:	48 8b 55 88          	mov    -0x78(%rbp),%rdx
  408343:	48 89 d7             	mov    %rdx,%rdi
  408346:	ff d0                	callq  *%rax
  408348:	f7 d0                	not    %eax
  40834a:	c1 e8 1f             	shr    $0x1f,%eax
  40834d:	84 c0                	test   %al,%al
  40834f:	0f 84 0a 01 00 00    	je     40845f <_ZN5caffe5LayerIfE15CheckBlobCountsERKSt6vectorIPNS_4BlobIfEESaIS5_EES9_+0x285>
  408355:	48 8b 45 80          	mov    -0x80(%rbp),%rax
  408359:	48 89 c7             	mov    %rax,%rdi
  40835c:	e8 d7 09 00 00       	callq  408d38 <_ZNKSt6vectorIPN5caffe4BlobIfEESaIS3_EE4sizeEv>
  408361:	48 89 c7             	mov    %rax,%rdi
  408364:	e8 d3 d3 ff ff       	callq  40573c <_ZN6google21GetReferenceableValueEm>
  408369:	48 89 45 d0          	mov    %rax,-0x30(%rbp)
  40836d:	48 8b 45 88          	mov    -0x78(%rbp),%rax
  408371:	48 8b 00             	mov    (%rax),%rax
  408374:	48 83 c0 38          	add    $0x38,%rax
  408378:	48 8b 00             	mov    (%rax),%rax
  40837b:	48 8b 55 88          	mov    -0x78(%rbp),%rdx
  40837f:	48 89 d7             	mov    %rdx,%rdi
  408382:	ff d0                	callq  *%rax
  408384:	89 c7                	mov    %eax,%edi
  408386:	e8 a5 d3 ff ff       	callq  405730 <_ZN6google21GetReferenceableValueEi>
  40838b:	89 45 90             	mov    %eax,-0x70(%rbp)
  40838e:	48 8d 4d d0          	lea    -0x30(%rbp),%rcx
  408392:	48 8d 45 90          	lea    -0x70(%rbp),%rax
  408396:	ba 00 d7 40 00       	mov    $0x40d700,%edx
  40839b:	48 89 ce             	mov    %rcx,%rsi
  40839e:	48 89 c7             	mov    %rax,%rdi
  4083a1:	e8 17 14 00 00       	callq  4097bd <_ZN6google12Check_LEImplIimEEPNSt7__cxx1112basic_stringIcSt11char_traitsIcESaIcEEERKT_RKT0_PKc>
  4083a6:	48 89 45 a0          	mov    %rax,-0x60(%rbp)
  4083aa:	48 83 7d a0 00       	cmpq   $0x0,-0x60(%rbp)
  4083af:	0f 84 aa 00 00 00    	je     40845f <_ZN5caffe5LayerIfE15CheckBlobCountsERKSt6vectorIPNS_4BlobIfEESaIS5_EES9_+0x285>
  4083b5:	48 8b 45 88          	mov    -0x78(%rbp),%rax
  4083b9:	48 8b 00             	mov    (%rax),%rax
  4083bc:	48 83 c0 38          	add    $0x38,%rax
  4083c0:	48 8b 00             	mov    (%rax),%rax
  4083c3:	48 8b 55 88          	mov    -0x78(%rbp),%rdx
  4083c7:	48 89 d7             	mov    %rdx,%rdi
  4083ca:	ff d0                	callq  *%rax
  4083cc:	89 c3                	mov    %eax,%ebx
  4083ce:	48 8b 45 88          	mov    -0x78(%rbp),%rax
  4083d2:	48 8b 00             	mov    (%rax),%rax
  4083d5:	48 83 c0 28          	add    $0x28,%rax
  4083d9:	48 8b 00             	mov    (%rax),%rax
  4083dc:	48 8b 55 88          	mov    -0x78(%rbp),%rdx
  4083e0:	48 89 d7             	mov    %rdx,%rdi
  4083e3:	ff d0                	callq  *%rax
  4083e5:	49 89 c4             	mov    %rax,%r12
  4083e8:	48 8b 55 a0          	mov    -0x60(%rbp),%rdx
  4083ec:	48 8d 45 90          	lea    -0x70(%rbp),%rax
  4083f0:	48 89 d6             	mov    %rdx,%rsi
  4083f3:	48 89 c7             	mov    %rax,%rdi
  4083f6:	e8 1b d3 ff ff       	callq  405716 <_ZN6google13CheckOpStringC1EPNSt7__cxx1112basic_stringIcSt11char_traitsIcESaIcEEE>
  4083fb:	48 8d 55 90          	lea    -0x70(%rbp),%rdx
  4083ff:	48 8d 45 d0          	lea    -0x30(%rbp),%rax
  408403:	48 89 d1             	mov    %rdx,%rcx
  408406:	ba 62 01 00 00       	mov    $0x162,%edx
  40840b:	be d8 d4 40 00       	mov    $0x40d4d8,%esi
  408410:	48 89 c7             	mov    %rax,%rdi
  408413:	e8 88 cb ff ff       	callq  404fa0 <_ZN6google15LogMessageFatalC1EPKciRKNS_13CheckOpStringE@plt>
  408418:	48 8d 45 d0          	lea    -0x30(%rbp),%rax
  40841c:	48 89 c7             	mov    %rax,%rdi
  40841f:	e8 5c cd ff ff       	callq  405180 <_ZN6google10LogMessage6streamEv@plt>
  408424:	4c 89 e6             	mov    %r12,%rsi
  408427:	48 89 c7             	mov    %rax,%rdi
  40842a:	e8 11 cb ff ff       	callq  404f40 <_ZStlsISt11char_traitsIcEERSt13basic_ostreamIcT_ES5_PKc@plt>
  40842f:	be 22 d7 40 00       	mov    $0x40d722,%esi
  408434:	48 89 c7             	mov    %rax,%rdi
  408437:	e8 04 cb ff ff       	callq  404f40 <_ZStlsISt11char_traitsIcEERSt13basic_ostreamIcT_ES5_PKc@plt>
  40843c:	89 de                	mov    %ebx,%esi
  40843e:	48 89 c7             	mov    %rax,%rdi
  408441:	e8 1a ca ff ff       	callq  404e60 <_ZNSolsEi@plt>
  408446:	be e5 d6 40 00       	mov    $0x40d6e5,%esi
  40844b:	48 89 c7             	mov    %rax,%rdi
  40844e:	e8 ed ca ff ff       	callq  404f40 <_ZStlsISt11char_traitsIcEERSt13basic_ostreamIcT_ES5_PKc@plt>
  408453:	48 8d 45 d0          	lea    -0x30(%rbp),%rax
  408457:	48 89 c7             	mov    %rax,%rdi
  40845a:	e8 81 cc ff ff       	callq  4050e0 <_ZN6google15LogMessageFatalD1Ev@plt>
  40845f:	48 8b 45 88          	mov    -0x78(%rbp),%rax
  408463:	48 8b 00             	mov    (%rax),%rax
  408466:	48 83 c0 40          	add    $0x40,%rax
  40846a:	48 8b 00             	mov    (%rax),%rax
  40846d:	48 8b 55 88          	mov    -0x78(%rbp),%rdx
  408471:	48 89 d7             	mov    %rdx,%rdi
  408474:	ff d0                	callq  *%rax
  408476:	f7 d0                	not    %eax
  408478:	c1 e8 1f             	shr    $0x1f,%eax
  40847b:	84 c0                	test   %al,%al
  40847d:	0f 84 0a 01 00 00    	je     40858d <_ZN5caffe5LayerIfE15CheckBlobCountsERKSt6vectorIPNS_4BlobIfEESaIS5_EES9_+0x3b3>
  408483:	48 8b 45 80          	mov    -0x80(%rbp),%rax
  408487:	48 89 c7             	mov    %rax,%rdi
  40848a:	e8 a9 08 00 00       	callq  408d38 <_ZNKSt6vectorIPN5caffe4BlobIfEESaIS3_EE4sizeEv>
  40848f:	48 89 c7             	mov    %rax,%rdi
  408492:	e8 a5 d2 ff ff       	callq  40573c <_ZN6google21GetReferenceableValueEm>
  408497:	48 89 45 d0          	mov    %rax,-0x30(%rbp)
  40849b:	48 8b 45 88          	mov    -0x78(%rbp),%rax
  40849f:	48 8b 00             	mov    (%rax),%rax
  4084a2:	48 83 c0 40          	add    $0x40,%rax
  4084a6:	48 8b 00             	mov    (%rax),%rax
  4084a9:	48 8b 55 88          	mov    -0x78(%rbp),%rdx
  4084ad:	48 89 d7             	mov    %rdx,%rdi
  4084b0:	ff d0                	callq  *%rax
  4084b2:	89 c7                	mov    %eax,%edi
  4084b4:	e8 77 d2 ff ff       	callq  405730 <_ZN6google21GetReferenceableValueEi>
  4084b9:	89 45 90             	mov    %eax,-0x70(%rbp)
  4084bc:	48 8d 4d d0          	lea    -0x30(%rbp),%rcx
  4084c0:	48 8d 45 90          	lea    -0x70(%rbp),%rax
  4084c4:	ba 40 d7 40 00       	mov    $0x40d740,%edx
  4084c9:	48 89 ce             	mov    %rcx,%rsi
  4084cc:	48 89 c7             	mov    %rax,%rdi
  4084cf:	e8 4b 13 00 00       	callq  40981f <_ZN6google12Check_GEImplIimEEPNSt7__cxx1112basic_stringIcSt11char_traitsIcESaIcEEERKT_RKT0_PKc>
  4084d4:	48 89 45 a8          	mov    %rax,-0x58(%rbp)
  4084d8:	48 83 7d a8 00       	cmpq   $0x0,-0x58(%rbp)
  4084dd:	0f 84 aa 00 00 00    	je     40858d <_ZN5caffe5LayerIfE15CheckBlobCountsERKSt6vectorIPNS_4BlobIfEESaIS5_EES9_+0x3b3>
  4084e3:	48 8b 45 88          	mov    -0x78(%rbp),%rax
  4084e7:	48 8b 00             	mov    (%rax),%rax
  4084ea:	48 83 c0 40          	add    $0x40,%rax
  4084ee:	48 8b 00             	mov    (%rax),%rax
  4084f1:	48 8b 55 88          	mov    -0x78(%rbp),%rdx
  4084f5:	48 89 d7             	mov    %rdx,%rdi
  4084f8:	ff d0                	callq  *%rax
  4084fa:	89 c3                	mov    %eax,%ebx
  4084fc:	48 8b 45 88          	mov    -0x78(%rbp),%rax
  408500:	48 8b 00             	mov    (%rax),%rax
  408503:	48 83 c0 28          	add    $0x28,%rax
  408507:	48 8b 00             	mov    (%rax),%rax
  40850a:	48 8b 55 88          	mov    -0x78(%rbp),%rdx
  40850e:	48 89 d7             	mov    %rdx,%rdi
  408511:	ff d0                	callq  *%rax
  408513:	49 89 c4             	mov    %rax,%r12
  408516:	48 8b 55 a8          	mov    -0x58(%rbp),%rdx
  40851a:	48 8d 45 90          	lea    -0x70(%rbp),%rax
  40851e:	48 89 d6             	mov    %rdx,%rsi
  408521:	48 89 c7             	mov    %rax,%rdi
  408524:	e8 ed d1 ff ff       	callq  405716 <_ZN6google13CheckOpStringC1EPNSt7__cxx1112basic_stringIcSt11char_traitsIcESaIcEEE>
  408529:	48 8d 55 90          	lea    -0x70(%rbp),%rdx
  40852d:	48 8d 45 d0          	lea    -0x30(%rbp),%rax
  408531:	48 89 d1             	mov    %rdx,%rcx
  408534:	ba 67 01 00 00       	mov    $0x167,%edx
  408539:	be d8 d4 40 00       	mov    $0x40d4d8,%esi
  40853e:	48 89 c7             	mov    %rax,%rdi
  408541:	e8 5a ca ff ff       	callq  404fa0 <_ZN6google15LogMessageFatalC1EPKciRKNS_13CheckOpStringE@plt>
  408546:	48 8d 45 d0          	lea    -0x30(%rbp),%rax
  40854a:	48 89 c7             	mov    %rax,%rdi
  40854d:	e8 2e cc ff ff       	callq  405180 <_ZN6google10LogMessage6streamEv@plt>
  408552:	4c 89 e6             	mov    %r12,%rsi
  408555:	48 89 c7             	mov    %rax,%rdi
  408558:	e8 e3 c9 ff ff       	callq  404f40 <_ZStlsISt11char_traitsIcEERSt13basic_ostreamIcT_ES5_PKc@plt>
  40855d:	be 62 d7 40 00       	mov    $0x40d762,%esi
  408562:	48 89 c7             	mov    %rax,%rdi
  408565:	e8 d6 c9 ff ff       	callq  404f40 <_ZStlsISt11char_traitsIcEERSt13basic_ostreamIcT_ES5_PKc@plt>
  40856a:	89 de                	mov    %ebx,%esi
  40856c:	48 89 c7             	mov    %rax,%rdi
  40856f:	e8 ec c8 ff ff       	callq  404e60 <_ZNSolsEi@plt>
  408574:	be e5 d6 40 00       	mov    $0x40d6e5,%esi
  408579:	48 89 c7             	mov    %rax,%rdi
  40857c:	e8 bf c9 ff ff       	callq  404f40 <_ZStlsISt11char_traitsIcEERSt13basic_ostreamIcT_ES5_PKc@plt>
  408581:	48 8d 45 d0          	lea    -0x30(%rbp),%rax
  408585:	48 89 c7             	mov    %rax,%rdi
  408588:	e8 53 cb ff ff       	callq  4050e0 <_ZN6google15LogMessageFatalD1Ev@plt>
  40858d:	48 8b 45 88          	mov    -0x78(%rbp),%rax
  408591:	48 8b 00             	mov    (%rax),%rax
  408594:	48 83 c0 48          	add    $0x48,%rax
  408598:	48 8b 00             	mov    (%rax),%rax
  40859b:	48 8b 55 88          	mov    -0x78(%rbp),%rdx
  40859f:	48 89 d7             	mov    %rdx,%rdi
  4085a2:	ff d0                	callq  *%rax
  4085a4:	f7 d0                	not    %eax
  4085a6:	c1 e8 1f             	shr    $0x1f,%eax
  4085a9:	84 c0                	test   %al,%al
  4085ab:	0f 84 0d 01 00 00    	je     4086be <_ZN5caffe5LayerIfE15CheckBlobCountsERKSt6vectorIPNS_4BlobIfEESaIS5_EES9_+0x4e4>
  4085b1:	48 8b 85 78 ff ff ff 	mov    -0x88(%rbp),%rax
  4085b8:	48 89 c7             	mov    %rax,%rdi
  4085bb:	e8 78 07 00 00       	callq  408d38 <_ZNKSt6vectorIPN5caffe4BlobIfEESaIS3_EE4sizeEv>
  4085c0:	48 89 c7             	mov    %rax,%rdi
  4085c3:	e8 74 d1 ff ff       	callq  40573c <_ZN6google21GetReferenceableValueEm>
  4085c8:	48 89 45 d0          	mov    %rax,-0x30(%rbp)
  4085cc:	48 8b 45 88          	mov    -0x78(%rbp),%rax
  4085d0:	48 8b 00             	mov    (%rax),%rax
  4085d3:	48 83 c0 48          	add    $0x48,%rax
  4085d7:	48 8b 00             	mov    (%rax),%rax
  4085da:	48 8b 55 88          	mov    -0x78(%rbp),%rdx
  4085de:	48 89 d7             	mov    %rdx,%rdi
  4085e1:	ff d0                	callq  *%rax
  4085e3:	89 c7                	mov    %eax,%edi
  4085e5:	e8 46 d1 ff ff       	callq  405730 <_ZN6google21GetReferenceableValueEi>
  4085ea:	89 45 90             	mov    %eax,-0x70(%rbp)
  4085ed:	48 8d 4d d0          	lea    -0x30(%rbp),%rcx
  4085f1:	48 8d 45 90          	lea    -0x70(%rbp),%rax
  4085f5:	ba 78 d7 40 00       	mov    $0x40d778,%edx
  4085fa:	48 89 ce             	mov    %rcx,%rsi
  4085fd:	48 89 c7             	mov    %rax,%rdi
  408600:	e8 46 11 00 00       	callq  40974b <_ZN6google12Check_EQImplIimEEPNSt7__cxx1112basic_stringIcSt11char_traitsIcESaIcEEERKT_RKT0_PKc>
  408605:	48 89 45 b0          	mov    %rax,-0x50(%rbp)
  408609:	48 83 7d b0 00       	cmpq   $0x0,-0x50(%rbp)
  40860e:	0f 84 aa 00 00 00    	je     4086be <_ZN5caffe5LayerIfE15CheckBlobCountsERKSt6vectorIPNS_4BlobIfEESaIS5_EES9_+0x4e4>
  408614:	48 8b 45 88          	mov    -0x78(%rbp),%rax
  408618:	48 8b 00             	mov    (%rax),%rax
  40861b:	48 83 c0 48          	add    $0x48,%rax
  40861f:	48 8b 00             	mov    (%rax),%rax
  408622:	48 8b 55 88          	mov    -0x78(%rbp),%rdx
  408626:	48 89 d7             	mov    %rdx,%rdi
  408629:	ff d0                	callq  *%rax
  40862b:	89 c3                	mov    %eax,%ebx
  40862d:	48 8b 45 88          	mov    -0x78(%rbp),%rax
  408631:	48 8b 00             	mov    (%rax),%rax
  408634:	48 83 c0 28          	add    $0x28,%rax
  408638:	48 8b 00             	mov    (%rax),%rax
  40863b:	48 8b 55 88          	mov    -0x78(%rbp),%rdx
  40863f:	48 89 d7             	mov    %rdx,%rdi
  408642:	ff d0                	callq  *%rax
  408644:	49 89 c4             	mov    %rax,%r12
  408647:	48 8b 55 b0          	mov    -0x50(%rbp),%rdx
  40864b:	48 8d 45 90          	lea    -0x70(%rbp),%rax
  40864f:	48 89 d6             	mov    %rdx,%rsi
  408652:	48 89 c7             	mov    %rax,%rdi
  408655:	e8 bc d0 ff ff       	callq  405716 <_ZN6google13CheckOpStringC1EPNSt7__cxx1112basic_stringIcSt11char_traitsIcESaIcEEE>
  40865a:	48 8d 55 90          	lea    -0x70(%rbp),%rdx
  40865e:	48 8d 45 d0          	lea    -0x30(%rbp),%rax
  408662:	48 89 d1             	mov    %rdx,%rcx
  408665:	ba 6c 01 00 00       	mov    $0x16c,%edx
  40866a:	be d8 d4 40 00       	mov    $0x40d4d8,%esi
  40866f:	48 89 c7             	mov    %rax,%rdi
  408672:	e8 29 c9 ff ff       	callq  404fa0 <_ZN6google15LogMessageFatalC1EPKciRKNS_13CheckOpStringE@plt>
  408677:	48 8d 45 d0          	lea    -0x30(%rbp),%rax
  40867b:	48 89 c7             	mov    %rax,%rdi
  40867e:	e8 fd ca ff ff       	callq  405180 <_ZN6google10LogMessage6streamEv@plt>
  408683:	4c 89 e6             	mov    %r12,%rsi
  408686:	48 89 c7             	mov    %rax,%rdi
  408689:	e8 b2 c8 ff ff       	callq  404f40 <_ZStlsISt11char_traitsIcEERSt13basic_ostreamIcT_ES5_PKc@plt>
  40868e:	be 99 d7 40 00       	mov    $0x40d799,%esi
  408693:	48 89 c7             	mov    %rax,%rdi
  408696:	e8 a5 c8 ff ff       	callq  404f40 <_ZStlsISt11char_traitsIcEERSt13basic_ostreamIcT_ES5_PKc@plt>
  40869b:	89 de                	mov    %ebx,%esi
  40869d:	48 89 c7             	mov    %rax,%rdi
  4086a0:	e8 bb c7 ff ff       	callq  404e60 <_ZNSolsEi@plt>
  4086a5:	be aa d7 40 00       	mov    $0x40d7aa,%esi
  4086aa:	48 89 c7             	mov    %rax,%rdi
  4086ad:	e8 8e c8 ff ff       	callq  404f40 <_ZStlsISt11char_traitsIcEERSt13basic_ostreamIcT_ES5_PKc@plt>
  4086b2:	48 8d 45 d0          	lea    -0x30(%rbp),%rax
  4086b6:	48 89 c7             	mov    %rax,%rdi
  4086b9:	e8 22 ca ff ff       	callq  4050e0 <_ZN6google15LogMessageFatalD1Ev@plt>
  4086be:	48 8b 45 88          	mov    -0x78(%rbp),%rax
  4086c2:	48 8b 00             	mov    (%rax),%rax
  4086c5:	48 83 c0 50          	add    $0x50,%rax
  4086c9:	48 8b 00             	mov    (%rax),%rax
  4086cc:	48 8b 55 88          	mov    -0x78(%rbp),%rdx
  4086d0:	48 89 d7             	mov    %rdx,%rdi
  4086d3:	ff d0                	callq  *%rax
  4086d5:	f7 d0                	not    %eax
  4086d7:	c1 e8 1f             	shr    $0x1f,%eax
  4086da:	84 c0                	test   %al,%al
  4086dc:	0f 84 0d 01 00 00    	je     4087ef <_ZN5caffe5LayerIfE15CheckBlobCountsERKSt6vectorIPNS_4BlobIfEESaIS5_EES9_+0x615>
  4086e2:	48 8b 85 78 ff ff ff 	mov    -0x88(%rbp),%rax
  4086e9:	48 89 c7             	mov    %rax,%rdi
  4086ec:	e8 47 06 00 00       	callq  408d38 <_ZNKSt6vectorIPN5caffe4BlobIfEESaIS3_EE4sizeEv>
  4086f1:	48 89 c7             	mov    %rax,%rdi
  4086f4:	e8 43 d0 ff ff       	callq  40573c <_ZN6google21GetReferenceableValueEm>
  4086f9:	48 89 45 d0          	mov    %rax,-0x30(%rbp)
  4086fd:	48 8b 45 88          	mov    -0x78(%rbp),%rax
  408701:	48 8b 00             	mov    (%rax),%rax
  408704:	48 83 c0 50          	add    $0x50,%rax
  408708:	48 8b 00             	mov    (%rax),%rax
  40870b:	48 8b 55 88          	mov    -0x78(%rbp),%rdx
  40870f:	48 89 d7             	mov    %rdx,%rdi
  408712:	ff d0                	callq  *%rax
  408714:	89 c7                	mov    %eax,%edi
  408716:	e8 15 d0 ff ff       	callq  405730 <_ZN6google21GetReferenceableValueEi>
  40871b:	89 45 90             	mov    %eax,-0x70(%rbp)
  40871e:	48 8d 4d d0          	lea    -0x30(%rbp),%rcx
  408722:	48 8d 45 90          	lea    -0x70(%rbp),%rax
  408726:	ba c2 d7 40 00       	mov    $0x40d7c2,%edx
  40872b:	48 89 ce             	mov    %rcx,%rsi
  40872e:	48 89 c7             	mov    %rax,%rdi
  408731:	e8 87 10 00 00       	callq  4097bd <_ZN6google12Check_LEImplIimEEPNSt7__cxx1112basic_stringIcSt11char_traitsIcESaIcEEERKT_RKT0_PKc>
  408736:	48 89 45 b8          	mov    %rax,-0x48(%rbp)
  40873a:	48 83 7d b8 00       	cmpq   $0x0,-0x48(%rbp)
  40873f:	0f 84 aa 00 00 00    	je     4087ef <_ZN5caffe5LayerIfE15CheckBlobCountsERKSt6vectorIPNS_4BlobIfEESaIS5_EES9_+0x615>
  408745:	48 8b 45 88          	mov    -0x78(%rbp),%rax
  408749:	48 8b 00             	mov    (%rax),%rax
  40874c:	48 83 c0 50          	add    $0x50,%rax
  408750:	48 8b 00             	mov    (%rax),%rax
  408753:	48 8b 55 88          	mov    -0x78(%rbp),%rdx
  408757:	48 89 d7             	mov    %rdx,%rdi
  40875a:	ff d0                	callq  *%rax
  40875c:	89 c3                	mov    %eax,%ebx
  40875e:	48 8b 45 88          	mov    -0x78(%rbp),%rax
  408762:	48 8b 00             	mov    (%rax),%rax
  408765:	48 83 c0 28          	add    $0x28,%rax
  408769:	48 8b 00             	mov    (%rax),%rax
  40876c:	48 8b 55 88          	mov    -0x78(%rbp),%rdx
  408770:	48 89 d7             	mov    %rdx,%rdi
  408773:	ff d0                	callq  *%rax
  408775:	49 89 c4             	mov    %rax,%r12
  408778:	48 8b 55 b8          	mov    -0x48(%rbp),%rdx
  40877c:	48 8d 45 90          	lea    -0x70(%rbp),%rax
  408780:	48 89 d6             	mov    %rdx,%rsi
  408783:	48 89 c7             	mov    %rax,%rdi
  408786:	e8 8b cf ff ff       	callq  405716 <_ZN6google13CheckOpStringC1EPNSt7__cxx1112basic_stringIcSt11char_traitsIcESaIcEEE>
  40878b:	48 8d 55 90          	lea    -0x70(%rbp),%rdx
  40878f:	48 8d 45 d0          	lea    -0x30(%rbp),%rax
  408793:	48 89 d1             	mov    %rdx,%rcx
  408796:	ba 71 01 00 00       	mov    $0x171,%edx
  40879b:	be d8 d4 40 00       	mov    $0x40d4d8,%esi
  4087a0:	48 89 c7             	mov    %rax,%rdi
  4087a3:	e8 f8 c7 ff ff       	callq  404fa0 <_ZN6google15LogMessageFatalC1EPKciRKNS_13CheckOpStringE@plt>
  4087a8:	48 8d 45 d0          	lea    -0x30(%rbp),%rax
  4087ac:	48 89 c7             	mov    %rax,%rdi
  4087af:	e8 cc c9 ff ff       	callq  405180 <_ZN6google10LogMessage6streamEv@plt>
  4087b4:	4c 89 e6             	mov    %r12,%rsi
  4087b7:	48 89 c7             	mov    %rax,%rdi
  4087ba:	e8 81 c7 ff ff       	callq  404f40 <_ZStlsISt11char_traitsIcEERSt13basic_ostreamIcT_ES5_PKc@plt>
  4087bf:	be de d7 40 00       	mov    $0x40d7de,%esi
  4087c4:	48 89 c7             	mov    %rax,%rdi
  4087c7:	e8 74 c7 ff ff       	callq  404f40 <_ZStlsISt11char_traitsIcEERSt13basic_ostreamIcT_ES5_PKc@plt>
  4087cc:	89 de                	mov    %ebx,%esi
  4087ce:	48 89 c7             	mov    %rax,%rdi
  4087d1:	e8 8a c6 ff ff       	callq  404e60 <_ZNSolsEi@plt>
  4087d6:	be aa d7 40 00       	mov    $0x40d7aa,%esi
  4087db:	48 89 c7             	mov    %rax,%rdi
  4087de:	e8 5d c7 ff ff       	callq  404f40 <_ZStlsISt11char_traitsIcEERSt13basic_ostreamIcT_ES5_PKc@plt>
  4087e3:	48 8d 45 d0          	lea    -0x30(%rbp),%rax
  4087e7:	48 89 c7             	mov    %rax,%rdi
  4087ea:	e8 f1 c8 ff ff       	callq  4050e0 <_ZN6google15LogMessageFatalD1Ev@plt>
  4087ef:	48 8b 45 88          	mov    -0x78(%rbp),%rax
  4087f3:	48 8b 00             	mov    (%rax),%rax
  4087f6:	48 83 c0 58          	add    $0x58,%rax
  4087fa:	48 8b 00             	mov    (%rax),%rax
  4087fd:	48 8b 55 88          	mov    -0x78(%rbp),%rdx
  408801:	48 89 d7             	mov    %rdx,%rdi
  408804:	ff d0                	callq  *%rax
  408806:	f7 d0                	not    %eax
  408808:	c1 e8 1f             	shr    $0x1f,%eax
  40880b:	84 c0                	test   %al,%al
  40880d:	0f 84 0d 01 00 00    	je     408920 <_ZN5caffe5LayerIfE15CheckBlobCountsERKSt6vectorIPNS_4BlobIfEESaIS5_EES9_+0x746>
  408813:	48 8b 85 78 ff ff ff 	mov    -0x88(%rbp),%rax
  40881a:	48 89 c7             	mov    %rax,%rdi
  40881d:	e8 16 05 00 00       	callq  408d38 <_ZNKSt6vectorIPN5caffe4BlobIfEESaIS3_EE4sizeEv>
  408822:	48 89 c7             	mov    %rax,%rdi
  408825:	e8 12 cf ff ff       	callq  40573c <_ZN6google21GetReferenceableValueEm>
  40882a:	48 89 45 d0          	mov    %rax,-0x30(%rbp)
  40882e:	48 8b 45 88          	mov    -0x78(%rbp),%rax
  408832:	48 8b 00             	mov    (%rax),%rax
  408835:	48 83 c0 58          	add    $0x58,%rax
  408839:	48 8b 00             	mov    (%rax),%rax
  40883c:	48 8b 55 88          	mov    -0x78(%rbp),%rdx
  408840:	48 89 d7             	mov    %rdx,%rdi
  408843:	ff d0                	callq  *%rax
  408845:	89 c7                	mov    %eax,%edi
  408847:	e8 e4 ce ff ff       	callq  405730 <_ZN6google21GetReferenceableValueEi>
  40884c:	89 45 90             	mov    %eax,-0x70(%rbp)
  40884f:	48 8d 4d d0          	lea    -0x30(%rbp),%rcx
  408853:	48 8d 45 90          	lea    -0x70(%rbp),%rax
  408857:	ba f8 d7 40 00       	mov    $0x40d7f8,%edx
  40885c:	48 89 ce             	mov    %rcx,%rsi
  40885f:	48 89 c7             	mov    %rax,%rdi
  408862:	e8 b8 0f 00 00       	callq  40981f <_ZN6google12Check_GEImplIimEEPNSt7__cxx1112basic_stringIcSt11char_traitsIcESaIcEEERKT_RKT0_PKc>
  408867:	48 89 45 c0          	mov    %rax,-0x40(%rbp)
  40886b:	48 83 7d c0 00       	cmpq   $0x0,-0x40(%rbp)
  408870:	0f 84 aa 00 00 00    	je     408920 <_ZN5caffe5LayerIfE15CheckBlobCountsERKSt6vectorIPNS_4BlobIfEESaIS5_EES9_+0x746>
  408876:	48 8b 45 88          	mov    -0x78(%rbp),%rax
  40887a:	48 8b 00             	mov    (%rax),%rax
  40887d:	48 83 c0 58          	add    $0x58,%rax
  408881:	48 8b 00             	mov    (%rax),%rax
  408884:	48 8b 55 88          	mov    -0x78(%rbp),%rdx
  408888:	48 89 d7             	mov    %rdx,%rdi
  40888b:	ff d0                	callq  *%rax
  40888d:	89 c3                	mov    %eax,%ebx
  40888f:	48 8b 45 88          	mov    -0x78(%rbp),%rax
  408893:	48 8b 00             	mov    (%rax),%rax
  408896:	48 83 c0 28          	add    $0x28,%rax
  40889a:	48 8b 00             	mov    (%rax),%rax
  40889d:	48 8b 55 88          	mov    -0x78(%rbp),%rdx
  4088a1:	48 89 d7             	mov    %rdx,%rdi
  4088a4:	ff d0                	callq  *%rax
  4088a6:	49 89 c4             	mov    %rax,%r12
  4088a9:	48 8b 55 c0          	mov    -0x40(%rbp),%rdx
  4088ad:	48 8d 45 90          	lea    -0x70(%rbp),%rax
  4088b1:	48 89 d6             	mov    %rdx,%rsi
  4088b4:	48 89 c7             	mov    %rax,%rdi
  4088b7:	e8 5a ce ff ff       	callq  405716 <_ZN6google13CheckOpStringC1EPNSt7__cxx1112basic_stringIcSt11char_traitsIcESaIcEEE>
  4088bc:	48 8d 55 90          	lea    -0x70(%rbp),%rdx
  4088c0:	48 8d 45 d0          	lea    -0x30(%rbp),%rax
  4088c4:	48 89 d1             	mov    %rdx,%rcx
  4088c7:	ba 76 01 00 00       	mov    $0x176,%edx
  4088cc:	be d8 d4 40 00       	mov    $0x40d4d8,%esi
  4088d1:	48 89 c7             	mov    %rax,%rdi
  4088d4:	e8 c7 c6 ff ff       	callq  404fa0 <_ZN6google15LogMessageFatalC1EPKciRKNS_13CheckOpStringE@plt>
  4088d9:	48 8d 45 d0          	lea    -0x30(%rbp),%rax
  4088dd:	48 89 c7             	mov    %rax,%rdi
  4088e0:	e8 9b c8 ff ff       	callq  405180 <_ZN6google10LogMessage6streamEv@plt>
  4088e5:	4c 89 e6             	mov    %r12,%rsi
  4088e8:	48 89 c7             	mov    %rax,%rdi
  4088eb:	e8 50 c6 ff ff       	callq  404f40 <_ZStlsISt11char_traitsIcEERSt13basic_ostreamIcT_ES5_PKc@plt>
  4088f0:	be 14 d8 40 00       	mov    $0x40d814,%esi
  4088f5:	48 89 c7             	mov    %rax,%rdi
  4088f8:	e8 43 c6 ff ff       	callq  404f40 <_ZStlsISt11char_traitsIcEERSt13basic_ostreamIcT_ES5_PKc@plt>
  4088fd:	89 de                	mov    %ebx,%esi
  4088ff:	48 89 c7             	mov    %rax,%rdi
  408902:	e8 59 c5 ff ff       	callq  404e60 <_ZNSolsEi@plt>
  408907:	be aa d7 40 00       	mov    $0x40d7aa,%esi
  40890c:	48 89 c7             	mov    %rax,%rdi
  40890f:	e8 2c c6 ff ff       	callq  404f40 <_ZStlsISt11char_traitsIcEERSt13basic_ostreamIcT_ES5_PKc@plt>
  408914:	48 8d 45 d0          	lea    -0x30(%rbp),%rax
  408918:	48 89 c7             	mov    %rax,%rdi
  40891b:	e8 c0 c7 ff ff       	callq  4050e0 <_ZN6google15LogMessageFatalD1Ev@plt>
  408920:	48 8b 45 88          	mov    -0x78(%rbp),%rax
  408924:	48 8b 00             	mov    (%rax),%rax
  408927:	48 83 c0 60          	add    $0x60,%rax
  40892b:	48 8b 00             	mov    (%rax),%rax
  40892e:	48 8b 55 88          	mov    -0x78(%rbp),%rdx
  408932:	48 89 d7             	mov    %rdx,%rdi
  408935:	ff d0                	callq  *%rax
  408937:	84 c0                	test   %al,%al
  408939:	0f 84 35 01 00 00    	je     408a74 <_ZN5caffe5LayerIfE15CheckBlobCountsERKSt6vectorIPNS_4BlobIfEESaIS5_EES9_+0x89a>
  40893f:	48 8b 85 78 ff ff ff 	mov    -0x88(%rbp),%rax
  408946:	48 89 c7             	mov    %rax,%rdi
  408949:	e8 ea 03 00 00       	callq  408d38 <_ZNKSt6vectorIPN5caffe4BlobIfEESaIS3_EE4sizeEv>
  40894e:	48 89 c7             	mov    %rax,%rdi
  408951:	e8 e6 cd ff ff       	callq  40573c <_ZN6google21GetReferenceableValueEm>
  408956:	48 89 45 d0          	mov    %rax,-0x30(%rbp)
  40895a:	48 8b 45 80          	mov    -0x80(%rbp),%rax
  40895e:	48 89 c7             	mov    %rax,%rdi
  408961:	e8 d2 03 00 00       	callq  408d38 <_ZNKSt6vectorIPN5caffe4BlobIfEESaIS3_EE4sizeEv>
  408966:	48 89 c7             	mov    %rax,%rdi
  408969:	e8 ce cd ff ff       	callq  40573c <_ZN6google21GetReferenceableValueEm>
  40896e:	48 89 45 90          	mov    %rax,-0x70(%rbp)
  408972:	48 8d 4d d0          	lea    -0x30(%rbp),%rcx
  408976:	48 8d 45 90          	lea    -0x70(%rbp),%rax
  40897a:	ba 2d d8 40 00       	mov    $0x40d82d,%edx
  40897f:	48 89 ce             	mov    %rcx,%rsi
  408982:	48 89 c7             	mov    %rax,%rdi
  408985:	e8 27 0f 00 00       	callq  4098b1 <_ZN6google12Check_EQImplImmEEPNSt7__cxx1112basic_stringIcSt11char_traitsIcESaIcEEERKT_RKT0_PKc>
  40898a:	48 89 45 c8          	mov    %rax,-0x38(%rbp)
  40898e:	48 83 7d c8 00       	cmpq   $0x0,-0x38(%rbp)
  408993:	0f 84 db 00 00 00    	je     408a74 <_ZN5caffe5LayerIfE15CheckBlobCountsERKSt6vectorIPNS_4BlobIfEESaIS5_EES9_+0x89a>
  408999:	48 8b 45 88          	mov    -0x78(%rbp),%rax
  40899d:	48 8b 00             	mov    (%rax),%rax
  4089a0:	48 83 c0 28          	add    $0x28,%rax
  4089a4:	48 8b 00             	mov    (%rax),%rax
  4089a7:	48 8b 55 88          	mov    -0x78(%rbp),%rdx
  4089ab:	48 89 d7             	mov    %rdx,%rdi
  4089ae:	ff d0                	callq  *%rax
  4089b0:	48 89 c3             	mov    %rax,%rbx
  4089b3:	48 8b 55 c8          	mov    -0x38(%rbp),%rdx
  4089b7:	48 8d 45 90          	lea    -0x70(%rbp),%rax
  4089bb:	48 89 d6             	mov    %rdx,%rsi
  4089be:	48 89 c7             	mov    %rax,%rdi
  4089c1:	e8 50 cd ff ff       	callq  405716 <_ZN6google13CheckOpStringC1EPNSt7__cxx1112basic_stringIcSt11char_traitsIcESaIcEEE>
  4089c6:	48 8d 55 90          	lea    -0x70(%rbp),%rdx
  4089ca:	48 8d 45 d0          	lea    -0x30(%rbp),%rax
  4089ce:	48 89 d1             	mov    %rdx,%rcx
  4089d1:	ba 7b 01 00 00       	mov    $0x17b,%edx
  4089d6:	be d8 d4 40 00       	mov    $0x40d4d8,%esi
  4089db:	48 89 c7             	mov    %rax,%rdi
  4089de:	e8 bd c5 ff ff       	callq  404fa0 <_ZN6google15LogMessageFatalC1EPKciRKNS_13CheckOpStringE@plt>
  4089e3:	48 8d 45 d0          	lea    -0x30(%rbp),%rax
  4089e7:	48 89 c7             	mov    %rax,%rdi
  4089ea:	e8 91 c7 ff ff       	callq  405180 <_ZN6google10LogMessage6streamEv@plt>
  4089ef:	48 89 de             	mov    %rbx,%rsi
  4089f2:	48 89 c7             	mov    %rax,%rdi
  4089f5:	e8 46 c5 ff ff       	callq  404f40 <_ZStlsISt11char_traitsIcEERSt13basic_ostreamIcT_ES5_PKc@plt>
  4089fa:	be 50 d8 40 00       	mov    $0x40d850,%esi
  4089ff:	48 89 c7             	mov    %rax,%rdi
  408a02:	e8 39 c5 ff ff       	callq  404f40 <_ZStlsISt11char_traitsIcEERSt13basic_ostreamIcT_ES5_PKc@plt>
  408a07:	be 81 d8 40 00       	mov    $0x40d881,%esi
  408a0c:	48 89 c7             	mov    %rax,%rdi
  408a0f:	e8 2c c5 ff ff       	callq  404f40 <_ZStlsISt11char_traitsIcEERSt13basic_ostreamIcT_ES5_PKc@plt>
  408a14:	48 8d 45 d0          	lea    -0x30(%rbp),%rax
  408a18:	48 89 c7             	mov    %rax,%rdi
  408a1b:	e8 c0 c6 ff ff       	callq  4050e0 <_ZN6google15LogMessageFatalD1Ev@plt>
  408a20:	48 8d 45 d0          	lea    -0x30(%rbp),%rax
  408a24:	48 89 c7             	mov    %rax,%rdi
  408a27:	e8 b4 c6 ff ff       	callq  4050e0 <_ZN6google15LogMessageFatalD1Ev@plt>
  408a2c:	48 8d 45 d0          	lea    -0x30(%rbp),%rax
  408a30:	48 89 c7             	mov    %rax,%rdi
  408a33:	e8 a8 c6 ff ff       	callq  4050e0 <_ZN6google15LogMessageFatalD1Ev@plt>
  408a38:	48 8d 45 d0          	lea    -0x30(%rbp),%rax
  408a3c:	48 89 c7             	mov    %rax,%rdi
  408a3f:	e8 9c c6 ff ff       	callq  4050e0 <_ZN6google15LogMessageFatalD1Ev@plt>
  408a44:	48 8d 45 d0          	lea    -0x30(%rbp),%rax
  408a48:	48 89 c7             	mov    %rax,%rdi
  408a4b:	e8 90 c6 ff ff       	callq  4050e0 <_ZN6google15LogMessageFatalD1Ev@plt>
  408a50:	48 8d 45 d0          	lea    -0x30(%rbp),%rax
  408a54:	48 89 c7             	mov    %rax,%rdi
  408a57:	e8 84 c6 ff ff       	callq  4050e0 <_ZN6google15LogMessageFatalD1Ev@plt>
  408a5c:	48 8d 45 d0          	lea    -0x30(%rbp),%rax
  408a60:	48 89 c7             	mov    %rax,%rdi
  408a63:	e8 78 c6 ff ff       	callq  4050e0 <_ZN6google15LogMessageFatalD1Ev@plt>
  408a68:	48 8d 45 d0          	lea    -0x30(%rbp),%rax
  408a6c:	48 89 c7             	mov    %rax,%rdi
  408a6f:	e8 6c c6 ff ff       	callq  4050e0 <_ZN6google15LogMessageFatalD1Ev@plt>
  408a74:	90                   	nop
  408a75:	48 8b 45 e8          	mov    -0x18(%rbp),%rax
  408a79:	64 48 33 04 25 28 00 	xor    %fs:0x28,%rax
  408a80:	00 00 
  408a82:	74 05                	je     408a89 <_ZN5caffe5LayerIfE15CheckBlobCountsERKSt6vectorIPNS_4BlobIfEESaIS5_EES9_+0x8af>
  408a84:	e8 97 c3 ff ff       	callq  404e20 <__stack_chk_fail@plt>
  408a89:	48 83 ec 80          	sub    $0xffffffffffffff80,%rsp
  408a8d:	5b                   	pop    %rbx
  408a8e:	41 5c                	pop    %r12
  408a90:	5d                   	pop    %rbp
  408a91:	c3                   	retq   

0000000000408a92 <_ZN5caffe5LayerIfE10LayerSetUpERKSt6vectorIPNS_4BlobIfEESaIS5_EES9_>:
  408a92:	55                   	push   %rbp
  408a93:	48 89 e5             	mov    %rsp,%rbp
  408a96:	48 89 7d f8          	mov    %rdi,-0x8(%rbp)
  408a9a:	48 89 75 f0          	mov    %rsi,-0x10(%rbp)
  408a9e:	48 89 55 e8          	mov    %rdx,-0x18(%rbp)
  408aa2:	90                   	nop
  408aa3:	5d                   	pop    %rbp
  408aa4:	c3                   	retq   
  408aa5:	90                   	nop

0000000000408aa6 <_ZN5caffe5LayerIfE14SetLossWeightsERKSt6vectorIPNS_4BlobIfEESaIS5_EE>:
  408aa6:	55                   	push   %rbp
  408aa7:	48 89 e5             	mov    %rsp,%rbp
  408aaa:	53                   	push   %rbx
  408aab:	48 83 ec 78          	sub    $0x78,%rsp
  408aaf:	48 89 7d 98          	mov    %rdi,-0x68(%rbp)
  408ab3:	48 89 75 90          	mov    %rsi,-0x70(%rbp)
  408ab7:	64 48 8b 04 25 28 00 	mov    %fs:0x28,%rax
  408abe:	00 00 
  408ac0:	48 89 45 e8          	mov    %rax,-0x18(%rbp)
  408ac4:	31 c0                	xor    %eax,%eax
  408ac6:	48 8b 45 98          	mov    -0x68(%rbp),%rax
  408aca:	48 83 c0 08          	add    $0x8,%rax
  408ace:	48 89 c7             	mov    %rax,%rdi
  408ad1:	e8 ae cf ff ff       	callq  405a84 <_ZNK5caffe14LayerParameter16loss_weight_sizeEv>
  408ad6:	89 45 ac             	mov    %eax,-0x54(%rbp)
  408ad9:	83 7d ac 00          	cmpl   $0x0,-0x54(%rbp)
  408add:	0f 84 8f 01 00 00    	je     408c72 <_ZN5caffe5LayerIfE14SetLossWeightsERKSt6vectorIPNS_4BlobIfEESaIS5_EE+0x1cc>
  408ae3:	8b 45 ac             	mov    -0x54(%rbp),%eax
  408ae6:	89 c7                	mov    %eax,%edi
  408ae8:	e8 43 cc ff ff       	callq  405730 <_ZN6google21GetReferenceableValueEi>
  408aed:	89 45 b8             	mov    %eax,-0x48(%rbp)
  408af0:	48 8b 45 90          	mov    -0x70(%rbp),%rax
  408af4:	48 89 c7             	mov    %rax,%rdi
  408af7:	e8 3c 02 00 00       	callq  408d38 <_ZNKSt6vectorIPN5caffe4BlobIfEESaIS3_EE4sizeEv>
  408afc:	48 89 c7             	mov    %rax,%rdi
  408aff:	e8 38 cc ff ff       	callq  40573c <_ZN6google21GetReferenceableValueEm>
  408b04:	48 89 45 d0          	mov    %rax,-0x30(%rbp)
  408b08:	48 8d 4d b8          	lea    -0x48(%rbp),%rcx
  408b0c:	48 8d 45 d0          	lea    -0x30(%rbp),%rax
  408b10:	ba 98 d8 40 00       	mov    $0x40d898,%edx
  408b15:	48 89 ce             	mov    %rcx,%rsi
  408b18:	48 89 c7             	mov    %rax,%rdi
  408b1b:	e8 e1 0d 00 00       	callq  409901 <_ZN6google12Check_EQImplImiEEPNSt7__cxx1112basic_stringIcSt11char_traitsIcESaIcEEERKT_RKT0_PKc>
  408b20:	48 89 45 c0          	mov    %rax,-0x40(%rbp)
  408b24:	48 83 7d c0 00       	cmpq   $0x0,-0x40(%rbp)
  408b29:	74 55                	je     408b80 <_ZN5caffe5LayerIfE14SetLossWeightsERKSt6vectorIPNS_4BlobIfEESaIS5_EE+0xda>
  408b2b:	48 8b 55 c0          	mov    -0x40(%rbp),%rdx
  408b2f:	48 8d 45 b8          	lea    -0x48(%rbp),%rax
  408b33:	48 89 d6             	mov    %rdx,%rsi
  408b36:	48 89 c7             	mov    %rax,%rdi
  408b39:	e8 d8 cb ff ff       	callq  405716 <_ZN6google13CheckOpStringC1EPNSt7__cxx1112basic_stringIcSt11char_traitsIcESaIcEEE>
  408b3e:	48 8d 55 b8          	lea    -0x48(%rbp),%rdx
  408b42:	48 8d 45 d0          	lea    -0x30(%rbp),%rax
  408b46:	48 89 d1             	mov    %rdx,%rcx
  408b49:	ba 88 01 00 00       	mov    $0x188,%edx
  408b4e:	be d8 d4 40 00       	mov    $0x40d4d8,%esi
  408b53:	48 89 c7             	mov    %rax,%rdi
  408b56:	e8 45 c4 ff ff       	callq  404fa0 <_ZN6google15LogMessageFatalC1EPKciRKNS_13CheckOpStringE@plt>
  408b5b:	48 8d 45 d0          	lea    -0x30(%rbp),%rax
  408b5f:	48 89 c7             	mov    %rax,%rdi
  408b62:	e8 19 c6 ff ff       	callq  405180 <_ZN6google10LogMessage6streamEv@plt>
  408b67:	be b8 d8 40 00       	mov    $0x40d8b8,%esi
  408b6c:	48 89 c7             	mov    %rax,%rdi
  408b6f:	e8 cc c3 ff ff       	callq  404f40 <_ZStlsISt11char_traitsIcEERSt13basic_ostreamIcT_ES5_PKc@plt>
  408b74:	48 8d 45 d0          	lea    -0x30(%rbp),%rax
  408b78:	48 89 c7             	mov    %rax,%rdi
  408b7b:	e8 60 c5 ff ff       	callq  4050e0 <_ZN6google15LogMessageFatalD1Ev@plt>
  408b80:	c7 45 a8 00 00 00 00 	movl   $0x0,-0x58(%rbp)
  408b87:	8b 45 a8             	mov    -0x58(%rbp),%eax
  408b8a:	48 63 d8             	movslq %eax,%rbx
  408b8d:	48 8b 45 90          	mov    -0x70(%rbp),%rax
  408b91:	48 89 c7             	mov    %rax,%rdi
  408b94:	e8 9f 01 00 00       	callq  408d38 <_ZNKSt6vectorIPN5caffe4BlobIfEESaIS3_EE4sizeEv>
  408b99:	48 39 c3             	cmp    %rax,%rbx
  408b9c:	0f 92 c0             	setb   %al
  408b9f:	84 c0                	test   %al,%al
  408ba1:	0f 84 cb 00 00 00    	je     408c72 <_ZN5caffe5LayerIfE14SetLossWeightsERKSt6vectorIPNS_4BlobIfEESaIS5_EE+0x1cc>
  408ba7:	48 8b 45 98          	mov    -0x68(%rbp),%rax
  408bab:	48 8d 50 08          	lea    0x8(%rax),%rdx
  408baf:	8b 45 a8             	mov    -0x58(%rbp),%eax
  408bb2:	89 c6                	mov    %eax,%esi
  408bb4:	48 89 d7             	mov    %rdx,%rdi
  408bb7:	e8 e6 ce ff ff       	callq  405aa2 <_ZNK5caffe14LayerParameter11loss_weightEi>
  408bbc:	66 0f 7e c0          	movd   %xmm0,%eax
  408bc0:	89 45 b0             	mov    %eax,-0x50(%rbp)
  408bc3:	66 0f ef c0          	pxor   %xmm0,%xmm0
  408bc7:	0f 2e 45 b0          	ucomiss -0x50(%rbp),%xmm0
  408bcb:	7a 0e                	jp     408bdb <_ZN5caffe5LayerIfE14SetLossWeightsERKSt6vectorIPNS_4BlobIfEESaIS5_EE+0x135>
  408bcd:	66 0f ef c0          	pxor   %xmm0,%xmm0
  408bd1:	0f 2e 45 b0          	ucomiss -0x50(%rbp),%xmm0
  408bd5:	0f 84 81 00 00 00    	je     408c5c <_ZN5caffe5LayerIfE14SetLossWeightsERKSt6vectorIPNS_4BlobIfEESaIS5_EE+0x1b6>
  408bdb:	8b 4d b0             	mov    -0x50(%rbp),%ecx
  408bde:	8b 55 a8             	mov    -0x58(%rbp),%edx
  408be1:	48 8b 45 98          	mov    -0x68(%rbp),%rax
  408be5:	89 4d 8c             	mov    %ecx,-0x74(%rbp)
  408be8:	f3 0f 10 45 8c       	movss  -0x74(%rbp),%xmm0
  408bed:	89 d6                	mov    %edx,%esi
  408bef:	48 89 c7             	mov    %rax,%rdi
  408bf2:	e8 5b 0d 00 00       	callq  409952 <_ZN5caffe5LayerIfE8set_lossEif>
  408bf7:	8b 45 a8             	mov    -0x58(%rbp),%eax
  408bfa:	48 63 d0             	movslq %eax,%rdx
  408bfd:	48 8b 45 90          	mov    -0x70(%rbp),%rax
  408c01:	48 89 d6             	mov    %rdx,%rsi
  408c04:	48 89 c7             	mov    %rax,%rdi
  408c07:	e8 a8 01 00 00       	callq  408db4 <_ZNKSt6vectorIPN5caffe4BlobIfEESaIS3_EEixEm>
  408c0c:	48 8b 00             	mov    (%rax),%rax
  408c0f:	48 89 c7             	mov    %rax,%rdi
  408c12:	e8 bd 01 00 00       	callq  408dd4 <_ZNK5caffe4BlobIfE5countEv>
  408c17:	89 45 b4             	mov    %eax,-0x4c(%rbp)
  408c1a:	8b 45 a8             	mov    -0x58(%rbp),%eax
  408c1d:	48 63 d0             	movslq %eax,%rdx
  408c20:	48 8b 45 90          	mov    -0x70(%rbp),%rax
  408c24:	48 89 d6             	mov    %rdx,%rsi
  408c27:	48 89 c7             	mov    %rax,%rdi
  408c2a:	e8 85 01 00 00       	callq  408db4 <_ZNKSt6vectorIPN5caffe4BlobIfEESaIS3_EEixEm>
  408c2f:	48 8b 00             	mov    (%rax),%rax
  408c32:	48 89 c7             	mov    %rax,%rdi
  408c35:	e8 d6 c1 ff ff       	callq  404e10 <_ZN5caffe4BlobIfE16mutable_cpu_diffEv@plt>
  408c3a:	48 89 45 c8          	mov    %rax,-0x38(%rbp)
  408c3e:	48 8b 4d c8          	mov    -0x38(%rbp),%rcx
  408c42:	8b 55 b0             	mov    -0x50(%rbp),%edx
  408c45:	8b 45 b4             	mov    -0x4c(%rbp),%eax
  408c48:	48 89 ce             	mov    %rcx,%rsi
  408c4b:	89 55 8c             	mov    %edx,-0x74(%rbp)
  408c4e:	f3 0f 10 45 8c       	movss  -0x74(%rbp),%xmm0
  408c53:	89 c7                	mov    %eax,%edi
  408c55:	e8 b6 c3 ff ff       	callq  405010 <_ZN5caffe9caffe_setIfEEviT_PS1_@plt>
  408c5a:	eb 01                	jmp    408c5d <_ZN5caffe5LayerIfE14SetLossWeightsERKSt6vectorIPNS_4BlobIfEESaIS5_EE+0x1b7>
  408c5c:	90                   	nop
  408c5d:	83 45 a8 01          	addl   $0x1,-0x58(%rbp)
  408c61:	e9 21 ff ff ff       	jmpq   408b87 <_ZN5caffe5LayerIfE14SetLossWeightsERKSt6vectorIPNS_4BlobIfEESaIS5_EE+0xe1>
  408c66:	48 8d 45 d0          	lea    -0x30(%rbp),%rax
  408c6a:	48 89 c7             	mov    %rax,%rdi
  408c6d:	e8 6e c4 ff ff       	callq  4050e0 <_ZN6google15LogMessageFatalD1Ev@plt>
  408c72:	90                   	nop
  408c73:	48 8b 45 e8          	mov    -0x18(%rbp),%rax
  408c77:	64 48 33 04 25 28 00 	xor    %fs:0x28,%rax
  408c7e:	00 00 
  408c80:	74 05                	je     408c87 <_ZN5caffe5LayerIfE14SetLossWeightsERKSt6vectorIPNS_4BlobIfEESaIS5_EE+0x1e1>
  408c82:	e8 99 c1 ff ff       	callq  404e20 <__stack_chk_fail@plt>
  408c87:	48 83 c4 78          	add    $0x78,%rsp
  408c8b:	5b                   	pop    %rbx
  408c8c:	5d                   	pop    %rbp
  408c8d:	c3                   	retq   

0000000000408c8e <_ZN2CK11do_measuredIRZNS_5Caffe16test_convolutionEbEUlvE_EEvOT_i>:
  408c8e:	55                   	push   %rbp
  408c8f:	48 89 e5             	mov    %rsp,%rbp
  408c92:	48 83 ec 10          	sub    $0x10,%rsp
  408c96:	48 89 7d f8          	mov    %rdi,-0x8(%rbp)
  408c9a:	89 75 f4             	mov    %esi,-0xc(%rbp)
  408c9d:	8b 45 f4             	mov    -0xc(%rbp),%eax
  408ca0:	89 c7                	mov    %eax,%edi
  408ca2:	e8 a9 c2 ff ff       	callq  404f50 <xopenme_clock_start@plt>
  408ca7:	48 8b 45 f8          	mov    -0x8(%rbp),%rax
  408cab:	48 89 c7             	mov    %rax,%rdi
  408cae:	e8 39 d8 ff ff       	callq  4064ec <_ZZN2CK5Caffe16test_convolutionEbENKUlvE_clEv>
  408cb3:	8b 45 f4             	mov    -0xc(%rbp),%eax
  408cb6:	89 c7                	mov    %eax,%edi
  408cb8:	e8 53 c2 ff ff       	callq  404f10 <xopenme_clock_end@plt>
  408cbd:	90                   	nop
  408cbe:	c9                   	leaveq 
  408cbf:	c3                   	retq   

0000000000408cc0 <_ZN2CK12log_raw_dataIfEEvPT_RKNS_5ShapeEPKcS7_>:
  408cc0:	55                   	push   %rbp
  408cc1:	48 89 e5             	mov    %rsp,%rbp
  408cc4:	48 83 ec 20          	sub    $0x20,%rsp
  408cc8:	48 89 7d f8          	mov    %rdi,-0x8(%rbp)
  408ccc:	48 89 75 f0          	mov    %rsi,-0x10(%rbp)
  408cd0:	48 89 55 e8          	mov    %rdx,-0x18(%rbp)
  408cd4:	48 89 4d e0          	mov    %rcx,-0x20(%rbp)
  408cd8:	48 83 7d e8 00       	cmpq   $0x0,-0x18(%rbp)
  408cdd:	74 1c                	je     408cfb <_ZN2CK12log_raw_dataIfEEvPT_RKNS_5ShapeEPKcS7_+0x3b>
  408cdf:	48 8b 45 e8          	mov    -0x18(%rbp),%rax
  408ce3:	be 00 00 00 00       	mov    $0x0,%esi
  408ce8:	48 89 c7             	mov    %rax,%rdi
  408ceb:	e8 29 d4 ff ff       	callq  406119 <_ZN2CK8getenv_iEPKci>
  408cf0:	85 c0                	test   %eax,%eax
  408cf2:	74 07                	je     408cfb <_ZN2CK12log_raw_dataIfEEvPT_RKNS_5ShapeEPKcS7_+0x3b>
  408cf4:	b8 01 00 00 00       	mov    $0x1,%eax
  408cf9:	eb 05                	jmp    408d00 <_ZN2CK12log_raw_dataIfEEvPT_RKNS_5ShapeEPKcS7_+0x40>
  408cfb:	b8 00 00 00 00       	mov    $0x0,%eax
  408d00:	84 c0                	test   %al,%al
  408d02:	74 30                	je     408d34 <_ZN2CK12log_raw_dataIfEEvPT_RKNS_5ShapeEPKcS7_+0x74>
  408d04:	48 83 7d e0 00       	cmpq   $0x0,-0x20(%rbp)
  408d09:	74 16                	je     408d21 <_ZN2CK12log_raw_dataIfEEvPT_RKNS_5ShapeEPKcS7_+0x61>
  408d0b:	48 8b 45 e0          	mov    -0x20(%rbp),%rax
  408d0f:	48 89 c6             	mov    %rax,%rsi
  408d12:	bf f8 d8 40 00       	mov    $0x40d8f8,%edi
  408d17:	b8 00 00 00 00       	mov    $0x0,%eax
  408d1c:	e8 2f c0 ff ff       	callq  404d50 <printf@plt>
  408d21:	48 8b 55 f0          	mov    -0x10(%rbp),%rdx
  408d25:	48 8b 45 f8          	mov    -0x8(%rbp),%rax
  408d29:	48 89 d6             	mov    %rdx,%rsi
  408d2c:	48 89 c7             	mov    %rax,%rdi
  408d2f:	e8 cb 0c 00 00       	callq  4099ff <_ZN2CK14print_raw_dataIfEEvPT_RKNS_5ShapeE>
  408d34:	90                   	nop
  408d35:	c9                   	leaveq 
  408d36:	c3                   	retq   
  408d37:	90                   	nop

0000000000408d38 <_ZNKSt6vectorIPN5caffe4BlobIfEESaIS3_EE4sizeEv>:
  408d38:	55                   	push   %rbp
  408d39:	48 89 e5             	mov    %rsp,%rbp
  408d3c:	48 89 7d f8          	mov    %rdi,-0x8(%rbp)
  408d40:	48 8b 45 f8          	mov    -0x8(%rbp),%rax
  408d44:	48 8b 40 08          	mov    0x8(%rax),%rax
  408d48:	48 89 c2             	mov    %rax,%rdx
  408d4b:	48 8b 45 f8          	mov    -0x8(%rbp),%rax
  408d4f:	48 8b 00             	mov    (%rax),%rax
  408d52:	48 29 c2             	sub    %rax,%rdx
  408d55:	48 89 d0             	mov    %rdx,%rax
  408d58:	48 c1 f8 03          	sar    $0x3,%rax
  408d5c:	5d                   	pop    %rbp
  408d5d:	c3                   	retq   

0000000000408d5e <_ZNK5caffe5LayerIfE4lossEi>:
  408d5e:	55                   	push   %rbp
  408d5f:	48 89 e5             	mov    %rsp,%rbp
  408d62:	48 83 ec 10          	sub    $0x10,%rsp
  408d66:	48 89 7d f8          	mov    %rdi,-0x8(%rbp)
  408d6a:	89 75 f4             	mov    %esi,-0xc(%rbp)
  408d6d:	48 8b 45 f8          	mov    -0x8(%rbp),%rax
  408d71:	48 05 a8 02 00 00    	add    $0x2a8,%rax
  408d77:	48 89 c7             	mov    %rax,%rdi
  408d7a:	e8 b1 0d 00 00       	callq  409b30 <_ZNKSt6vectorIfSaIfEE4sizeEv>
  408d7f:	48 89 c2             	mov    %rax,%rdx
  408d82:	8b 45 f4             	mov    -0xc(%rbp),%eax
  408d85:	48 98                	cltq   
  408d87:	48 39 c2             	cmp    %rax,%rdx
  408d8a:	76 21                	jbe    408dad <_ZNK5caffe5LayerIfE4lossEi+0x4f>
  408d8c:	8b 45 f4             	mov    -0xc(%rbp),%eax
  408d8f:	48 98                	cltq   
  408d91:	48 8b 55 f8          	mov    -0x8(%rbp),%rdx
  408d95:	48 81 c2 a8 02 00 00 	add    $0x2a8,%rdx
  408d9c:	48 89 c6             	mov    %rax,%rsi
  408d9f:	48 89 d7             	mov    %rdx,%rdi
  408da2:	e8 af 0d 00 00       	callq  409b56 <_ZNKSt6vectorIfSaIfEEixEm>
  408da7:	f3 0f 10 00          	movss  (%rax),%xmm0
  408dab:	eb 04                	jmp    408db1 <_ZNK5caffe5LayerIfE4lossEi+0x53>
  408dad:	66 0f ef c0          	pxor   %xmm0,%xmm0
  408db1:	c9                   	leaveq 
  408db2:	c3                   	retq   
  408db3:	90                   	nop

0000000000408db4 <_ZNKSt6vectorIPN5caffe4BlobIfEESaIS3_EEixEm>:
  408db4:	55                   	push   %rbp
  408db5:	48 89 e5             	mov    %rsp,%rbp
  408db8:	48 89 7d f8          	mov    %rdi,-0x8(%rbp)
  408dbc:	48 89 75 f0          	mov    %rsi,-0x10(%rbp)
  408dc0:	48 8b 45 f8          	mov    -0x8(%rbp),%rax
  408dc4:	48 8b 00             	mov    (%rax),%rax
  408dc7:	48 8b 55 f0          	mov    -0x10(%rbp),%rdx
  408dcb:	48 c1 e2 03          	shl    $0x3,%rdx
  408dcf:	48 01 d0             	add    %rdx,%rax
  408dd2:	5d                   	pop    %rbp
  408dd3:	c3                   	retq   

0000000000408dd4 <_ZNK5caffe4BlobIfE5countEv>:
  408dd4:	55                   	push   %rbp
  408dd5:	48 89 e5             	mov    %rsp,%rbp
  408dd8:	48 89 7d f8          	mov    %rdi,-0x8(%rbp)
  408ddc:	48 8b 45 f8          	mov    -0x8(%rbp),%rax
  408de0:	8b 40 48             	mov    0x48(%rax),%eax
  408de3:	5d                   	pop    %rbp
  408de4:	c3                   	retq   
  408de5:	90                   	nop

0000000000408de6 <_ZN5caffe5LayerIfE11Forward_gpuERKSt6vectorIPNS_4BlobIfEESaIS5_EES9_>:
  408de6:	55                   	push   %rbp
  408de7:	48 89 e5             	mov    %rsp,%rbp
  408dea:	48 83 ec 20          	sub    $0x20,%rsp
  408dee:	48 89 7d f8          	mov    %rdi,-0x8(%rbp)
  408df2:	48 89 75 f0          	mov    %rsi,-0x10(%rbp)
  408df6:	48 89 55 e8          	mov    %rdx,-0x18(%rbp)
  408dfa:	48 8b 45 f8          	mov    -0x8(%rbp),%rax
  408dfe:	48 8b 00             	mov    (%rax),%rax
  408e01:	48 83 c0 78          	add    $0x78,%rax
  408e05:	48 8b 00             	mov    (%rax),%rax
  408e08:	48 8b 55 e8          	mov    -0x18(%rbp),%rdx
  408e0c:	48 8b 75 f0          	mov    -0x10(%rbp),%rsi
  408e10:	48 8b 4d f8          	mov    -0x8(%rbp),%rcx
  408e14:	48 89 cf             	mov    %rcx,%rdi
  408e17:	ff d0                	callq  *%rax
  408e19:	c9                   	leaveq 
  408e1a:	c3                   	retq   

0000000000408e1b <_ZN2CK11do_measuredIRZNS_5Caffe16test_convolutionEbEUlvE0_EEvOT_i>:
  408e1b:	55                   	push   %rbp
  408e1c:	48 89 e5             	mov    %rsp,%rbp
  408e1f:	48 83 ec 10          	sub    $0x10,%rsp
  408e23:	48 89 7d f8          	mov    %rdi,-0x8(%rbp)
  408e27:	89 75 f4             	mov    %esi,-0xc(%rbp)
  408e2a:	8b 45 f4             	mov    -0xc(%rbp),%eax
  408e2d:	89 c7                	mov    %eax,%edi
  408e2f:	e8 1c c1 ff ff       	callq  404f50 <xopenme_clock_start@plt>
  408e34:	48 8b 45 f8          	mov    -0x8(%rbp),%rax
  408e38:	48 89 c7             	mov    %rax,%rdi
  408e3b:	e8 de d6 ff ff       	callq  40651e <_ZZN2CK5Caffe16test_convolutionEbENKUlvE0_clEv>
  408e40:	8b 45 f4             	mov    -0xc(%rbp),%eax
  408e43:	89 c7                	mov    %eax,%edi
  408e45:	e8 c6 c0 ff ff       	callq  404f10 <xopenme_clock_end@plt>
  408e4a:	90                   	nop
  408e4b:	c9                   	leaveq 
  408e4c:	c3                   	retq   
  408e4d:	90                   	nop

0000000000408e4e <_ZNK5caffe4BlobIfE11LegacyShapeEi>:
  408e4e:	55                   	push   %rbp
  408e4f:	48 89 e5             	mov    %rsp,%rbp
  408e52:	53                   	push   %rbx
  408e53:	48 83 ec 58          	sub    $0x58,%rsp
  408e57:	48 89 7d a8          	mov    %rdi,-0x58(%rbp)
  408e5b:	89 75 a4             	mov    %esi,-0x5c(%rbp)
  408e5e:	64 48 8b 04 25 28 00 	mov    %fs:0x28,%rax
  408e65:	00 00 
  408e67:	48 89 45 e8          	mov    %rax,-0x18(%rbp)
  408e6b:	31 c0                	xor    %eax,%eax
  408e6d:	bf 04 00 00 00       	mov    $0x4,%edi
  408e72:	e8 b9 c8 ff ff       	callq  405730 <_ZN6google21GetReferenceableValueEi>
  408e77:	89 c3                	mov    %eax,%ebx
  408e79:	48 8b 45 a8          	mov    -0x58(%rbp),%rax
  408e7d:	48 89 c7             	mov    %rax,%rdi
  408e80:	e8 f1 0c 00 00       	callq  409b76 <_ZNK5caffe4BlobIfE8num_axesEv>
  408e85:	89 c7                	mov    %eax,%edi
  408e87:	e8 a4 c8 ff ff       	callq  405730 <_ZN6google21GetReferenceableValueEi>
  408e8c:	ba fd d8 40 00       	mov    $0x40d8fd,%edx
  408e91:	89 de                	mov    %ebx,%esi
  408e93:	89 c7                	mov    %eax,%edi
  408e95:	e8 c1 c8 ff ff       	callq  40575b <_ZN6google12Check_LEImplB5cxx11EiiPKc>
  408e9a:	48 89 45 b8          	mov    %rax,-0x48(%rbp)
  408e9e:	48 83 7d b8 00       	cmpq   $0x0,-0x48(%rbp)
  408ea3:	74 55                	je     408efa <_ZNK5caffe4BlobIfE11LegacyShapeEi+0xac>
  408ea5:	48 8b 55 b8          	mov    -0x48(%rbp),%rdx
  408ea9:	48 8d 45 b0          	lea    -0x50(%rbp),%rax
  408ead:	48 89 d6             	mov    %rdx,%rsi
  408eb0:	48 89 c7             	mov    %rax,%rdi
  408eb3:	e8 5e c8 ff ff       	callq  405716 <_ZN6google13CheckOpStringC1EPNSt7__cxx1112basic_stringIcSt11char_traitsIcESaIcEEE>
  408eb8:	48 8d 55 b0          	lea    -0x50(%rbp),%rdx
  408ebc:	48 8d 45 d0          	lea    -0x30(%rbp),%rax
  408ec0:	48 89 d1             	mov    %rdx,%rcx
  408ec3:	ba 8c 00 00 00       	mov    $0x8c,%edx
  408ec8:	be 60 d5 40 00       	mov    $0x40d560,%esi
  408ecd:	48 89 c7             	mov    %rax,%rdi
  408ed0:	e8 cb c0 ff ff       	callq  404fa0 <_ZN6google15LogMessageFatalC1EPKciRKNS_13CheckOpStringE@plt>
  408ed5:	48 8d 45 d0          	lea    -0x30(%rbp),%rax
  408ed9:	48 89 c7             	mov    %rax,%rdi
  408edc:	e8 9f c2 ff ff       	callq  405180 <_ZN6google10LogMessage6streamEv@plt>
  408ee1:	be 10 d9 40 00       	mov    $0x40d910,%esi
  408ee6:	48 89 c7             	mov    %rax,%rdi
  408ee9:	e8 52 c0 ff ff       	callq  404f40 <_ZStlsISt11char_traitsIcEERSt13basic_ostreamIcT_ES5_PKc@plt>
  408eee:	48 8d 45 d0          	lea    -0x30(%rbp),%rax
  408ef2:	48 89 c7             	mov    %rax,%rdi
  408ef5:	e8 e6 c1 ff ff       	callq  4050e0 <_ZN6google15LogMessageFatalD1Ev@plt>
  408efa:	bf 04 00 00 00       	mov    $0x4,%edi
  408eff:	e8 2c c8 ff ff       	callq  405730 <_ZN6google21GetReferenceableValueEi>
  408f04:	89 c3                	mov    %eax,%ebx
  408f06:	8b 45 a4             	mov    -0x5c(%rbp),%eax
  408f09:	89 c7                	mov    %eax,%edi
  408f0b:	e8 20 c8 ff ff       	callq  405730 <_ZN6google21GetReferenceableValueEi>
  408f10:	ba 44 d9 40 00       	mov    $0x40d944,%edx
  408f15:	89 de                	mov    %ebx,%esi
  408f17:	89 c7                	mov    %eax,%edi
  408f19:	e8 68 c8 ff ff       	callq  405786 <_ZN6google12Check_LTImplB5cxx11EiiPKc>
  408f1e:	48 89 45 c0          	mov    %rax,-0x40(%rbp)
  408f22:	48 83 7d c0 00       	cmpq   $0x0,-0x40(%rbp)
  408f27:	74 48                	je     408f71 <_ZNK5caffe4BlobIfE11LegacyShapeEi+0x123>
  408f29:	48 8b 55 c0          	mov    -0x40(%rbp),%rdx
  408f2d:	48 8d 45 b0          	lea    -0x50(%rbp),%rax
  408f31:	48 89 d6             	mov    %rdx,%rsi
  408f34:	48 89 c7             	mov    %rax,%rdi
  408f37:	e8 da c7 ff ff       	callq  405716 <_ZN6google13CheckOpStringC1EPNSt7__cxx1112basic_stringIcSt11char_traitsIcESaIcEEE>
  408f3c:	48 8d 55 b0          	lea    -0x50(%rbp),%rdx
  408f40:	48 8d 45 d0          	lea    -0x30(%rbp),%rax
  408f44:	48 89 d1             	mov    %rdx,%rcx
  408f47:	ba 8e 00 00 00       	mov    $0x8e,%edx
  408f4c:	be 60 d5 40 00       	mov    $0x40d560,%esi
  408f51:	48 89 c7             	mov    %rax,%rdi
  408f54:	e8 47 c0 ff ff       	callq  404fa0 <_ZN6google15LogMessageFatalC1EPKciRKNS_13CheckOpStringE@plt>
  408f59:	48 8d 45 d0          	lea    -0x30(%rbp),%rax
  408f5d:	48 89 c7             	mov    %rax,%rdi
  408f60:	e8 1b c2 ff ff       	callq  405180 <_ZN6google10LogMessage6streamEv@plt>
  408f65:	48 8d 45 d0          	lea    -0x30(%rbp),%rax
  408f69:	48 89 c7             	mov    %rax,%rdi
  408f6c:	e8 6f c1 ff ff       	callq  4050e0 <_ZN6google15LogMessageFatalD1Ev@plt>
  408f71:	bf fc ff ff ff       	mov    $0xfffffffc,%edi
  408f76:	e8 b5 c7 ff ff       	callq  405730 <_ZN6google21GetReferenceableValueEi>
  408f7b:	89 c3                	mov    %eax,%ebx
  408f7d:	8b 45 a4             	mov    -0x5c(%rbp),%eax
  408f80:	89 c7                	mov    %eax,%edi
  408f82:	e8 a9 c7 ff ff       	callq  405730 <_ZN6google21GetReferenceableValueEi>
  408f87:	ba 4e d9 40 00       	mov    $0x40d94e,%edx
  408f8c:	89 de                	mov    %ebx,%esi
  408f8e:	89 c7                	mov    %eax,%edi
  408f90:	e8 1c c8 ff ff       	callq  4057b1 <_ZN6google12Check_GEImplB5cxx11EiiPKc>
  408f95:	48 89 45 c8          	mov    %rax,-0x38(%rbp)
  408f99:	48 83 7d c8 00       	cmpq   $0x0,-0x38(%rbp)
  408f9e:	74 48                	je     408fe8 <_ZNK5caffe4BlobIfE11LegacyShapeEi+0x19a>
  408fa0:	48 8b 55 c8          	mov    -0x38(%rbp),%rdx
  408fa4:	48 8d 45 b0          	lea    -0x50(%rbp),%rax
  408fa8:	48 89 d6             	mov    %rdx,%rsi
  408fab:	48 89 c7             	mov    %rax,%rdi
  408fae:	e8 63 c7 ff ff       	callq  405716 <_ZN6google13CheckOpStringC1EPNSt7__cxx1112basic_stringIcSt11char_traitsIcESaIcEEE>
  408fb3:	48 8d 55 b0          	lea    -0x50(%rbp),%rdx
  408fb7:	48 8d 45 d0          	lea    -0x30(%rbp),%rax
  408fbb:	48 89 d1             	mov    %rdx,%rcx
  408fbe:	ba 8f 00 00 00       	mov    $0x8f,%edx
  408fc3:	be 60 d5 40 00       	mov    $0x40d560,%esi
  408fc8:	48 89 c7             	mov    %rax,%rdi
  408fcb:	e8 d0 bf ff ff       	callq  404fa0 <_ZN6google15LogMessageFatalC1EPKciRKNS_13CheckOpStringE@plt>
  408fd0:	48 8d 45 d0          	lea    -0x30(%rbp),%rax
  408fd4:	48 89 c7             	mov    %rax,%rdi
  408fd7:	e8 a4 c1 ff ff       	callq  405180 <_ZN6google10LogMessage6streamEv@plt>
  408fdc:	48 8d 45 d0          	lea    -0x30(%rbp),%rax
  408fe0:	48 89 c7             	mov    %rax,%rdi
  408fe3:	e8 f8 c0 ff ff       	callq  4050e0 <_ZN6google15LogMessageFatalD1Ev@plt>
  408fe8:	48 8b 45 a8          	mov    -0x58(%rbp),%rax
  408fec:	48 89 c7             	mov    %rax,%rdi
  408fef:	e8 82 0b 00 00       	callq  409b76 <_ZNK5caffe4BlobIfE8num_axesEv>
  408ff4:	3b 45 a4             	cmp    -0x5c(%rbp),%eax
  408ff7:	7e 13                	jle    40900c <_ZNK5caffe4BlobIfE11LegacyShapeEi+0x1be>
  408ff9:	48 8b 45 a8          	mov    -0x58(%rbp),%rax
  408ffd:	48 89 c7             	mov    %rax,%rdi
  409000:	e8 71 0b 00 00       	callq  409b76 <_ZNK5caffe4BlobIfE8num_axesEv>
  409005:	f7 d8                	neg    %eax
  409007:	3b 45 a4             	cmp    -0x5c(%rbp),%eax
  40900a:	7e 07                	jle    409013 <_ZNK5caffe4BlobIfE11LegacyShapeEi+0x1c5>
  40900c:	b8 01 00 00 00       	mov    $0x1,%eax
  409011:	eb 05                	jmp    409018 <_ZNK5caffe4BlobIfE11LegacyShapeEi+0x1ca>
  409013:	b8 00 00 00 00       	mov    $0x0,%eax
  409018:	84 c0                	test   %al,%al
  40901a:	74 07                	je     409023 <_ZNK5caffe4BlobIfE11LegacyShapeEi+0x1d5>
  40901c:	b8 01 00 00 00       	mov    $0x1,%eax
  409021:	eb 11                	jmp    409034 <_ZNK5caffe4BlobIfE11LegacyShapeEi+0x1e6>
  409023:	8b 55 a4             	mov    -0x5c(%rbp),%edx
  409026:	48 8b 45 a8          	mov    -0x58(%rbp),%rax
  40902a:	89 d6                	mov    %edx,%esi
  40902c:	48 89 c7             	mov    %rax,%rdi
  40902f:	e8 60 0b 00 00       	callq  409b94 <_ZNK5caffe4BlobIfE5shapeEi>
  409034:	48 8b 4d e8          	mov    -0x18(%rbp),%rcx
  409038:	64 48 33 0c 25 28 00 	xor    %fs:0x28,%rcx
  40903f:	00 00 
  409041:	74 2b                	je     40906e <_ZNK5caffe4BlobIfE11LegacyShapeEi+0x220>
  409043:	eb 24                	jmp    409069 <_ZNK5caffe4BlobIfE11LegacyShapeEi+0x21b>
  409045:	48 8d 45 d0          	lea    -0x30(%rbp),%rax
  409049:	48 89 c7             	mov    %rax,%rdi
  40904c:	e8 8f c0 ff ff       	callq  4050e0 <_ZN6google15LogMessageFatalD1Ev@plt>
  409051:	48 8d 45 d0          	lea    -0x30(%rbp),%rax
  409055:	48 89 c7             	mov    %rax,%rdi
  409058:	e8 83 c0 ff ff       	callq  4050e0 <_ZN6google15LogMessageFatalD1Ev@plt>
  40905d:	48 8d 45 d0          	lea    -0x30(%rbp),%rax
  409061:	48 89 c7             	mov    %rax,%rdi
  409064:	e8 77 c0 ff ff       	callq  4050e0 <_ZN6google15LogMessageFatalD1Ev@plt>
  409069:	e8 b2 bd ff ff       	callq  404e20 <__stack_chk_fail@plt>
  40906e:	48 83 c4 58          	add    $0x58,%rsp
  409072:	5b                   	pop    %rbx
  409073:	5d                   	pop    %rbp
  409074:	c3                   	retq   
  409075:	90                   	nop

0000000000409076 <_ZNK5boost10shared_ptrIN5caffe12SyncedMemoryEEntEv>:
  409076:	55                   	push   %rbp
  409077:	48 89 e5             	mov    %rsp,%rbp
  40907a:	48 89 7d f8          	mov    %rdi,-0x8(%rbp)
  40907e:	48 8b 45 f8          	mov    -0x8(%rbp),%rax
  409082:	48 8b 00             	mov    (%rax),%rax
  409085:	48 85 c0             	test   %rax,%rax
  409088:	0f 94 c0             	sete   %al
  40908b:	5d                   	pop    %rbp
  40908c:	c3                   	retq   
  40908d:	90                   	nop

000000000040908e <_ZNSt12_Vector_baseIiSaIiEE12_Vector_implD1Ev>:
  40908e:	55                   	push   %rbp
  40908f:	48 89 e5             	mov    %rsp,%rbp
  409092:	48 83 ec 10          	sub    $0x10,%rsp
  409096:	48 89 7d f8          	mov    %rdi,-0x8(%rbp)
  40909a:	48 8b 45 f8          	mov    -0x8(%rbp),%rax
  40909e:	48 89 c7             	mov    %rax,%rdi
  4090a1:	e8 28 0b 00 00       	callq  409bce <_ZNSaIiED1Ev>
  4090a6:	90                   	nop
  4090a7:	c9                   	leaveq 
  4090a8:	c3                   	retq   
  4090a9:	90                   	nop

00000000004090aa <_ZNSt12_Vector_baseIiSaIiEED1Ev>:
  4090aa:	55                   	push   %rbp
  4090ab:	48 89 e5             	mov    %rsp,%rbp
  4090ae:	48 83 ec 10          	sub    $0x10,%rsp
  4090b2:	48 89 7d f8          	mov    %rdi,-0x8(%rbp)
  4090b6:	48 8b 45 f8          	mov    -0x8(%rbp),%rax
  4090ba:	48 8b 40 10          	mov    0x10(%rax),%rax
  4090be:	48 89 c2             	mov    %rax,%rdx
  4090c1:	48 8b 45 f8          	mov    -0x8(%rbp),%rax
  4090c5:	48 8b 00             	mov    (%rax),%rax
  4090c8:	48 29 c2             	sub    %rax,%rdx
  4090cb:	48 89 d0             	mov    %rdx,%rax
  4090ce:	48 c1 f8 02          	sar    $0x2,%rax
  4090d2:	48 89 c2             	mov    %rax,%rdx
  4090d5:	48 8b 45 f8          	mov    -0x8(%rbp),%rax
  4090d9:	48 8b 08             	mov    (%rax),%rcx
  4090dc:	48 8b 45 f8          	mov    -0x8(%rbp),%rax
  4090e0:	48 89 ce             	mov    %rcx,%rsi
  4090e3:	48 89 c7             	mov    %rax,%rdi
  4090e6:	e8 ff 0a 00 00       	callq  409bea <_ZNSt12_Vector_baseIiSaIiEE13_M_deallocateEPim>
  4090eb:	48 8b 45 f8          	mov    -0x8(%rbp),%rax
  4090ef:	48 89 c7             	mov    %rax,%rdi
  4090f2:	e8 97 ff ff ff       	callq  40908e <_ZNSt12_Vector_baseIiSaIiEE12_Vector_implD1Ev>
  4090f7:	90                   	nop
  4090f8:	c9                   	leaveq 
  4090f9:	c3                   	retq   

00000000004090fa <_ZNSt12_Vector_baseIiSaIiEE19_M_get_Tp_allocatorEv>:
  4090fa:	55                   	push   %rbp
  4090fb:	48 89 e5             	mov    %rsp,%rbp
  4090fe:	48 89 7d f8          	mov    %rdi,-0x8(%rbp)
  409102:	48 8b 45 f8          	mov    -0x8(%rbp),%rax
  409106:	5d                   	pop    %rbp
  409107:	c3                   	retq   

0000000000409108 <_ZSt8_DestroyIPiiEvT_S1_RSaIT0_E>:
  409108:	55                   	push   %rbp
  409109:	48 89 e5             	mov    %rsp,%rbp
  40910c:	48 83 ec 20          	sub    $0x20,%rsp
  409110:	48 89 7d f8          	mov    %rdi,-0x8(%rbp)
  409114:	48 89 75 f0          	mov    %rsi,-0x10(%rbp)
  409118:	48 89 55 e8          	mov    %rdx,-0x18(%rbp)
  40911c:	48 8b 55 f0          	mov    -0x10(%rbp),%rdx
  409120:	48 8b 45 f8          	mov    -0x8(%rbp),%rax
  409124:	48 89 d6             	mov    %rdx,%rsi
  409127:	48 89 c7             	mov    %rax,%rdi
  40912a:	e8 f0 0a 00 00       	callq  409c1f <_ZSt8_DestroyIPiEvT_S1_>
  40912f:	90                   	nop
  409130:	c9                   	leaveq 
  409131:	c3                   	retq   

0000000000409132 <_ZN6google22MakeCheckOpValueStringIiEEvPSoRKT_>:
  409132:	55                   	push   %rbp
  409133:	48 89 e5             	mov    %rsp,%rbp
  409136:	48 83 ec 10          	sub    $0x10,%rsp
  40913a:	48 89 7d f8          	mov    %rdi,-0x8(%rbp)
  40913e:	48 89 75 f0          	mov    %rsi,-0x10(%rbp)
  409142:	48 8b 45 f0          	mov    -0x10(%rbp),%rax
  409146:	8b 10                	mov    (%rax),%edx
  409148:	48 8b 45 f8          	mov    -0x8(%rbp),%rax
  40914c:	89 d6                	mov    %edx,%esi
  40914e:	48 89 c7             	mov    %rax,%rdi
  409151:	e8 0a bd ff ff       	callq  404e60 <_ZNSolsEi@plt>
  409156:	90                   	nop
  409157:	c9                   	leaveq 
  409158:	c3                   	retq   

0000000000409159 <_ZN6google8protobuf8internal18GenericTypeHandlerIN5caffe9BlobProtoEE5ClearEPS4_>:
  409159:	55                   	push   %rbp
  40915a:	48 89 e5             	mov    %rsp,%rbp
  40915d:	48 83 ec 10          	sub    $0x10,%rsp
  409161:	48 89 7d f8          	mov    %rdi,-0x8(%rbp)
  409165:	48 8b 45 f8          	mov    -0x8(%rbp),%rax
  409169:	48 8b 00             	mov    (%rax),%rax
  40916c:	48 83 c0 38          	add    $0x38,%rax
  409170:	48 8b 00             	mov    (%rax),%rax
  409173:	48 8b 55 f8          	mov    -0x8(%rbp),%rdx
  409177:	48 89 d7             	mov    %rdx,%rdi
  40917a:	ff d0                	callq  *%rax
  40917c:	90                   	nop
  40917d:	c9                   	leaveq 
  40917e:	c3                   	retq   

000000000040917f <_ZN6google8protobuf8internal20RepeatedPtrFieldBase4castINS0_16RepeatedPtrFieldIN5caffe9BlobProtoEE11TypeHandlerEEEPNT_4TypeEPv>:
  40917f:	55                   	push   %rbp
  409180:	48 89 e5             	mov    %rsp,%rbp
  409183:	48 89 7d f8          	mov    %rdi,-0x8(%rbp)
  409187:	48 8b 45 f8          	mov    -0x8(%rbp),%rax
  40918b:	5d                   	pop    %rbp
  40918c:	c3                   	retq   
  40918d:	90                   	nop

000000000040918e <_ZN6google8protobuf8internal18GenericTypeHandlerIN5caffe9BlobProtoEE16NewFromPrototypeEPKS4_PNS0_5ArenaE>:
  40918e:	55                   	push   %rbp
  40918f:	48 89 e5             	mov    %rsp,%rbp
  409192:	48 83 ec 10          	sub    $0x10,%rsp
  409196:	48 89 7d f8          	mov    %rdi,-0x8(%rbp)
  40919a:	48 89 75 f0          	mov    %rsi,-0x10(%rbp)
  40919e:	48 8b 45 f0          	mov    -0x10(%rbp),%rax
  4091a2:	48 89 c7             	mov    %rax,%rdi
  4091a5:	e8 9b 0a 00 00       	callq  409c45 <_ZN6google8protobuf8internal18GenericTypeHandlerIN5caffe9BlobProtoEE3NewEPNS0_5ArenaE>
  4091aa:	c9                   	leaveq 
  4091ab:	c3                   	retq   

00000000004091ac <_ZNSt12_Vector_baseIPN5caffe4BlobIfEESaIS3_EE12_Vector_implC1Ev>:
  4091ac:	55                   	push   %rbp
  4091ad:	48 89 e5             	mov    %rsp,%rbp
  4091b0:	48 83 ec 10          	sub    $0x10,%rsp
  4091b4:	48 89 7d f8          	mov    %rdi,-0x8(%rbp)
  4091b8:	48 8b 45 f8          	mov    -0x8(%rbp),%rax
  4091bc:	48 89 c7             	mov    %rax,%rdi
  4091bf:	e8 78 0b 00 00       	callq  409d3c <_ZNSaIPN5caffe4BlobIfEEEC1Ev>
  4091c4:	48 8b 45 f8          	mov    -0x8(%rbp),%rax
  4091c8:	48 c7 00 00 00 00 00 	movq   $0x0,(%rax)
  4091cf:	48 8b 45 f8          	mov    -0x8(%rbp),%rax
  4091d3:	48 c7 40 08 00 00 00 	movq   $0x0,0x8(%rax)
  4091da:	00 
  4091db:	48 8b 45 f8          	mov    -0x8(%rbp),%rax
  4091df:	48 c7 40 10 00 00 00 	movq   $0x0,0x10(%rax)
  4091e6:	00 
  4091e7:	90                   	nop
  4091e8:	c9                   	leaveq 
  4091e9:	c3                   	retq   

00000000004091ea <_ZNSaIPN5caffe4BlobIfEEED1Ev>:
  4091ea:	55                   	push   %rbp
  4091eb:	48 89 e5             	mov    %rsp,%rbp
  4091ee:	48 83 ec 10          	sub    $0x10,%rsp
  4091f2:	48 89 7d f8          	mov    %rdi,-0x8(%rbp)
  4091f6:	48 8b 45 f8          	mov    -0x8(%rbp),%rax
  4091fa:	48 89 c7             	mov    %rax,%rdi
  4091fd:	e8 56 0b 00 00       	callq  409d58 <_ZN9__gnu_cxx13new_allocatorIPN5caffe4BlobIfEEED1Ev>
  409202:	90                   	nop
  409203:	c9                   	leaveq 
  409204:	c3                   	retq   
  409205:	90                   	nop

0000000000409206 <_ZNSt12_Vector_baseIPN5caffe4BlobIfEESaIS3_EE13_M_deallocateEPS3_m>:
  409206:	55                   	push   %rbp
  409207:	48 89 e5             	mov    %rsp,%rbp
  40920a:	48 83 ec 20          	sub    $0x20,%rsp
  40920e:	48 89 7d f8          	mov    %rdi,-0x8(%rbp)
  409212:	48 89 75 f0          	mov    %rsi,-0x10(%rbp)
  409216:	48 89 55 e8          	mov    %rdx,-0x18(%rbp)
  40921a:	48 83 7d f0 00       	cmpq   $0x0,-0x10(%rbp)
  40921f:	74 17                	je     409238 <_ZNSt12_Vector_baseIPN5caffe4BlobIfEESaIS3_EE13_M_deallocateEPS3_m+0x32>
  409221:	48 8b 45 f8          	mov    -0x8(%rbp),%rax
  409225:	48 8b 55 e8          	mov    -0x18(%rbp),%rdx
  409229:	48 8b 4d f0          	mov    -0x10(%rbp),%rcx
  40922d:	48 89 ce             	mov    %rcx,%rsi
  409230:	48 89 c7             	mov    %rax,%rdi
  409233:	e8 2b 0b 00 00       	callq  409d63 <_ZNSt16allocator_traitsISaIPN5caffe4BlobIfEEEE10deallocateERS4_PS3_m>
  409238:	90                   	nop
  409239:	c9                   	leaveq 
  40923a:	c3                   	retq   

000000000040923b <_ZSt8_DestroyIPPN5caffe4BlobIfEEEvT_S5_>:
  40923b:	55                   	push   %rbp
  40923c:	48 89 e5             	mov    %rsp,%rbp
  40923f:	48 83 ec 10          	sub    $0x10,%rsp
  409243:	48 89 7d f8          	mov    %rdi,-0x8(%rbp)
  409247:	48 89 75 f0          	mov    %rsi,-0x10(%rbp)
  40924b:	48 8b 55 f0          	mov    -0x10(%rbp),%rdx
  40924f:	48 8b 45 f8          	mov    -0x8(%rbp),%rax
  409253:	48 89 d6             	mov    %rdx,%rsi
  409256:	48 89 c7             	mov    %rax,%rdi
  409259:	e8 33 0b 00 00       	callq  409d91 <_ZNSt12_Destroy_auxILb1EE9__destroyIPPN5caffe4BlobIfEEEEvT_S7_>
  40925e:	90                   	nop
  40925f:	c9                   	leaveq 
  409260:	c3                   	retq   
  409261:	90                   	nop

0000000000409262 <_ZN9__gnu_cxx13new_allocatorIPN5caffe4BlobIfEEE9constructIS4_JRKS4_EEEvPT_DpOT0_>:
  409262:	55                   	push   %rbp
  409263:	48 89 e5             	mov    %rsp,%rbp
  409266:	53                   	push   %rbx
  409267:	48 83 ec 28          	sub    $0x28,%rsp
  40926b:	48 89 7d e8          	mov    %rdi,-0x18(%rbp)
  40926f:	48 89 75 e0          	mov    %rsi,-0x20(%rbp)
  409273:	48 89 55 d8          	mov    %rdx,-0x28(%rbp)
  409277:	48 8b 45 d8          	mov    -0x28(%rbp),%rax
  40927b:	48 89 c7             	mov    %rax,%rdi
  40927e:	e8 83 eb ff ff       	callq  407e06 <_ZSt7forwardIRKPN5caffe4BlobIfEEEOT_RNSt16remove_referenceIS6_E4typeE>
  409283:	48 8b 18             	mov    (%rax),%rbx
  409286:	48 8b 45 e0          	mov    -0x20(%rbp),%rax
  40928a:	48 89 c6             	mov    %rax,%rsi
  40928d:	bf 08 00 00 00       	mov    $0x8,%edi
  409292:	e8 25 c2 ff ff       	callq  4054bc <_ZnwmPv>
  409297:	48 85 c0             	test   %rax,%rax
  40929a:	74 03                	je     40929f <_ZN9__gnu_cxx13new_allocatorIPN5caffe4BlobIfEEE9constructIS4_JRKS4_EEEvPT_DpOT0_+0x3d>
  40929c:	48 89 18             	mov    %rbx,(%rax)
  40929f:	90                   	nop
  4092a0:	48 83 c4 28          	add    $0x28,%rsp
  4092a4:	5b                   	pop    %rbx
  4092a5:	5d                   	pop    %rbp
  4092a6:	c3                   	retq   
  4092a7:	90                   	nop

00000000004092a8 <_ZNKSt6vectorIPN5caffe4BlobIfEESaIS3_EE12_M_check_lenEmPKc>:
  4092a8:	55                   	push   %rbp
  4092a9:	48 89 e5             	mov    %rsp,%rbp
  4092ac:	53                   	push   %rbx
  4092ad:	48 83 ec 48          	sub    $0x48,%rsp
  4092b1:	48 89 7d c8          	mov    %rdi,-0x38(%rbp)
  4092b5:	48 89 75 c0          	mov    %rsi,-0x40(%rbp)
  4092b9:	48 89 55 b8          	mov    %rdx,-0x48(%rbp)
  4092bd:	64 48 8b 04 25 28 00 	mov    %fs:0x28,%rax
  4092c4:	00 00 
  4092c6:	48 89 45 e8          	mov    %rax,-0x18(%rbp)
  4092ca:	31 c0                	xor    %eax,%eax
  4092cc:	48 8b 45 c8          	mov    -0x38(%rbp),%rax
  4092d0:	48 89 c7             	mov    %rax,%rdi
  4092d3:	e8 c8 0a 00 00       	callq  409da0 <_ZNKSt6vectorIPN5caffe4BlobIfEESaIS3_EE8max_sizeEv>
  4092d8:	48 89 c3             	mov    %rax,%rbx
  4092db:	48 8b 45 c8          	mov    -0x38(%rbp),%rax
  4092df:	48 89 c7             	mov    %rax,%rdi
  4092e2:	e8 51 fa ff ff       	callq  408d38 <_ZNKSt6vectorIPN5caffe4BlobIfEESaIS3_EE4sizeEv>
  4092e7:	48 29 c3             	sub    %rax,%rbx
  4092ea:	48 89 da             	mov    %rbx,%rdx
  4092ed:	48 8b 45 c0          	mov    -0x40(%rbp),%rax
  4092f1:	48 39 c2             	cmp    %rax,%rdx
  4092f4:	0f 92 c0             	setb   %al
  4092f7:	84 c0                	test   %al,%al
  4092f9:	74 0c                	je     409307 <_ZNKSt6vectorIPN5caffe4BlobIfEESaIS3_EE12_M_check_lenEmPKc+0x5f>
  4092fb:	48 8b 45 b8          	mov    -0x48(%rbp),%rax
  4092ff:	48 89 c7             	mov    %rax,%rdi
  409302:	e8 79 bc ff ff       	callq  404f80 <_ZSt20__throw_length_errorPKc@plt>
  409307:	48 8b 45 c8          	mov    -0x38(%rbp),%rax
  40930b:	48 89 c7             	mov    %rax,%rdi
  40930e:	e8 25 fa ff ff       	callq  408d38 <_ZNKSt6vectorIPN5caffe4BlobIfEESaIS3_EE4sizeEv>
  409313:	48 89 c3             	mov    %rax,%rbx
  409316:	48 8b 45 c8          	mov    -0x38(%rbp),%rax
  40931a:	48 89 c7             	mov    %rax,%rdi
  40931d:	e8 16 fa ff ff       	callq  408d38 <_ZNKSt6vectorIPN5caffe4BlobIfEESaIS3_EE4sizeEv>
  409322:	48 89 45 d8          	mov    %rax,-0x28(%rbp)
  409326:	48 8d 55 c0          	lea    -0x40(%rbp),%rdx
  40932a:	48 8d 45 d8          	lea    -0x28(%rbp),%rax
  40932e:	48 89 d6             	mov    %rdx,%rsi
  409331:	48 89 c7             	mov    %rax,%rdi
  409334:	e8 89 0a 00 00       	callq  409dc2 <_ZSt3maxImERKT_S2_S2_>
  409339:	48 8b 00             	mov    (%rax),%rax
  40933c:	48 01 d8             	add    %rbx,%rax
  40933f:	48 89 45 e0          	mov    %rax,-0x20(%rbp)
  409343:	48 8b 45 c8          	mov    -0x38(%rbp),%rax
  409347:	48 89 c7             	mov    %rax,%rdi
  40934a:	e8 e9 f9 ff ff       	callq  408d38 <_ZNKSt6vectorIPN5caffe4BlobIfEESaIS3_EE4sizeEv>
  40934f:	48 3b 45 e0          	cmp    -0x20(%rbp),%rax
  409353:	77 12                	ja     409367 <_ZNKSt6vectorIPN5caffe4BlobIfEESaIS3_EE12_M_check_lenEmPKc+0xbf>
  409355:	48 8b 45 c8          	mov    -0x38(%rbp),%rax
  409359:	48 89 c7             	mov    %rax,%rdi
  40935c:	e8 3f 0a 00 00       	callq  409da0 <_ZNKSt6vectorIPN5caffe4BlobIfEESaIS3_EE8max_sizeEv>
  409361:	48 3b 45 e0          	cmp    -0x20(%rbp),%rax
  409365:	73 0e                	jae    409375 <_ZNKSt6vectorIPN5caffe4BlobIfEESaIS3_EE12_M_check_lenEmPKc+0xcd>
  409367:	48 8b 45 c8          	mov    -0x38(%rbp),%rax
  40936b:	48 89 c7             	mov    %rax,%rdi
  40936e:	e8 2d 0a 00 00       	callq  409da0 <_ZNKSt6vectorIPN5caffe4BlobIfEESaIS3_EE8max_sizeEv>
  409373:	eb 04                	jmp    409379 <_ZNKSt6vectorIPN5caffe4BlobIfEESaIS3_EE12_M_check_lenEmPKc+0xd1>
  409375:	48 8b 45 e0          	mov    -0x20(%rbp),%rax
  409379:	48 8b 4d e8          	mov    -0x18(%rbp),%rcx
  40937d:	64 48 33 0c 25 28 00 	xor    %fs:0x28,%rcx
  409384:	00 00 
  409386:	74 05                	je     40938d <_ZNKSt6vectorIPN5caffe4BlobIfEESaIS3_EE12_M_check_lenEmPKc+0xe5>
  409388:	e8 93 ba ff ff       	callq  404e20 <__stack_chk_fail@plt>
  40938d:	48 83 c4 48          	add    $0x48,%rsp
  409391:	5b                   	pop    %rbx
  409392:	5d                   	pop    %rbp
  409393:	c3                   	retq   

0000000000409394 <_ZNSt12_Vector_baseIPN5caffe4BlobIfEESaIS3_EE11_M_allocateEm>:
  409394:	55                   	push   %rbp
  409395:	48 89 e5             	mov    %rsp,%rbp
  409398:	48 83 ec 10          	sub    $0x10,%rsp
  40939c:	48 89 7d f8          	mov    %rdi,-0x8(%rbp)
  4093a0:	48 89 75 f0          	mov    %rsi,-0x10(%rbp)
  4093a4:	48 83 7d f0 00       	cmpq   $0x0,-0x10(%rbp)
  4093a9:	74 15                	je     4093c0 <_ZNSt12_Vector_baseIPN5caffe4BlobIfEESaIS3_EE11_M_allocateEm+0x2c>
  4093ab:	48 8b 45 f8          	mov    -0x8(%rbp),%rax
  4093af:	48 8b 55 f0          	mov    -0x10(%rbp),%rdx
  4093b3:	48 89 d6             	mov    %rdx,%rsi
  4093b6:	48 89 c7             	mov    %rax,%rdi
  4093b9:	e8 2f 0a 00 00       	callq  409ded <_ZNSt16allocator_traitsISaIPN5caffe4BlobIfEEEE8allocateERS4_m>
  4093be:	eb 05                	jmp    4093c5 <_ZNSt12_Vector_baseIPN5caffe4BlobIfEESaIS3_EE11_M_allocateEm+0x31>
  4093c0:	b8 00 00 00 00       	mov    $0x0,%eax
  4093c5:	c9                   	leaveq 
  4093c6:	c3                   	retq   

00000000004093c7 <_ZSt34__uninitialized_move_if_noexcept_aIPPN5caffe4BlobIfEES4_SaIS3_EET0_T_S7_S6_RT1_>:
  4093c7:	55                   	push   %rbp
  4093c8:	48 89 e5             	mov    %rsp,%rbp
  4093cb:	53                   	push   %rbx
  4093cc:	48 83 ec 28          	sub    $0x28,%rsp
  4093d0:	48 89 7d e8          	mov    %rdi,-0x18(%rbp)
  4093d4:	48 89 75 e0          	mov    %rsi,-0x20(%rbp)
  4093d8:	48 89 55 d8          	mov    %rdx,-0x28(%rbp)
  4093dc:	48 89 4d d0          	mov    %rcx,-0x30(%rbp)
  4093e0:	48 8b 45 e0          	mov    -0x20(%rbp),%rax
  4093e4:	48 89 c7             	mov    %rax,%rdi
  4093e7:	e8 2b 0a 00 00       	callq  409e17 <_ZSt32__make_move_if_noexcept_iteratorIPN5caffe4BlobIfEESt13move_iteratorIPS3_EET0_PT_>
  4093ec:	48 89 c3             	mov    %rax,%rbx
  4093ef:	48 8b 45 e8          	mov    -0x18(%rbp),%rax
  4093f3:	48 89 c7             	mov    %rax,%rdi
  4093f6:	e8 1c 0a 00 00       	callq  409e17 <_ZSt32__make_move_if_noexcept_iteratorIPN5caffe4BlobIfEESt13move_iteratorIPS3_EET0_PT_>
  4093fb:	48 89 c7             	mov    %rax,%rdi
  4093fe:	48 8b 55 d0          	mov    -0x30(%rbp),%rdx
  409402:	48 8b 45 d8          	mov    -0x28(%rbp),%rax
  409406:	48 89 d1             	mov    %rdx,%rcx
  409409:	48 89 c2             	mov    %rax,%rdx
  40940c:	48 89 de             	mov    %rbx,%rsi
  40940f:	e8 4b 0a 00 00       	callq  409e5f <_ZSt22__uninitialized_copy_aISt13move_iteratorIPPN5caffe4BlobIfEEES5_S4_ET0_T_S8_S7_RSaIT1_E>
  409414:	48 83 c4 28          	add    $0x28,%rsp
  409418:	5b                   	pop    %rbx
  409419:	5d                   	pop    %rbp
  40941a:	c3                   	retq   

000000000040941b <_ZNSt16allocator_traitsISaIPN5caffe4BlobIfEEEE7destroyIS3_EEvRS4_PT_>:
  40941b:	55                   	push   %rbp
  40941c:	48 89 e5             	mov    %rsp,%rbp
  40941f:	48 83 ec 10          	sub    $0x10,%rsp
  409423:	48 89 7d f8          	mov    %rdi,-0x8(%rbp)
  409427:	48 89 75 f0          	mov    %rsi,-0x10(%rbp)
  40942b:	48 8b 55 f0          	mov    -0x10(%rbp),%rdx
  40942f:	48 8b 45 f8          	mov    -0x8(%rbp),%rax
  409433:	48 89 d6             	mov    %rdx,%rsi
  409436:	48 89 c7             	mov    %rax,%rdi
  409439:	e8 52 0a 00 00       	callq  409e90 <_ZN9__gnu_cxx13new_allocatorIPN5caffe4BlobIfEEE7destroyIS4_EEvPT_>
  40943e:	90                   	nop
  40943f:	c9                   	leaveq 
  409440:	c3                   	retq   
  409441:	90                   	nop

0000000000409442 <_ZNSt12_Vector_baseIiSaIiEEC1Ev>:
  409442:	55                   	push   %rbp
  409443:	48 89 e5             	mov    %rsp,%rbp
  409446:	48 83 ec 10          	sub    $0x10,%rsp
  40944a:	48 89 7d f8          	mov    %rdi,-0x8(%rbp)
  40944e:	48 8b 45 f8          	mov    -0x8(%rbp),%rax
  409452:	48 89 c7             	mov    %rax,%rdi
  409455:	e8 46 0a 00 00       	callq  409ea0 <_ZNSt12_Vector_baseIiSaIiEE12_Vector_implC1Ev>
  40945a:	90                   	nop
  40945b:	c9                   	leaveq 
  40945c:	c3                   	retq   
  40945d:	90                   	nop

000000000040945e <_ZN5caffe5LayerIfEC1ERKNS_14LayerParameterE>:
  40945e:	55                   	push   %rbp
  40945f:	48 89 e5             	mov    %rsp,%rbp
  409462:	53                   	push   %rbx
  409463:	48 83 ec 28          	sub    $0x28,%rsp
  409467:	48 89 7d d8          	mov    %rdi,-0x28(%rbp)
  40946b:	48 89 75 d0          	mov    %rsi,-0x30(%rbp)
  40946f:	ba 68 de 40 00       	mov    $0x40de68,%edx
  409474:	48 8b 45 d8          	mov    -0x28(%rbp),%rax
  409478:	48 89 10             	mov    %rdx,(%rax)
  40947b:	48 8b 45 d8          	mov    -0x28(%rbp),%rax
  40947f:	48 8d 50 08          	lea    0x8(%rax),%rdx
  409483:	48 8b 45 d0          	mov    -0x30(%rbp),%rax
  409487:	48 89 c6             	mov    %rax,%rsi
  40948a:	48 89 d7             	mov    %rdx,%rdi
  40948d:	e8 6e bd ff ff       	callq  405200 <_ZN5caffe14LayerParameterC1ERKS0_@plt>
  409492:	48 8b 45 d8          	mov    -0x28(%rbp),%rax
  409496:	48 05 68 02 00 00    	add    $0x268,%rax
  40949c:	48 89 c7             	mov    %rax,%rdi
  40949f:	e8 3a 0a 00 00       	callq  409ede <_ZNSt6vectorIN5boost10shared_ptrIN5caffe4BlobIfEEEESaIS5_EEC1Ev>
  4094a4:	48 8b 45 d8          	mov    -0x28(%rbp),%rax
  4094a8:	48 05 80 02 00 00    	add    $0x280,%rax
  4094ae:	48 89 c7             	mov    %rax,%rdi
  4094b1:	e8 44 0a 00 00       	callq  409efa <_ZNSt6vectorIbSaIbEEC1Ev>
  4094b6:	48 8b 45 d8          	mov    -0x28(%rbp),%rax
  4094ba:	48 05 a8 02 00 00    	add    $0x2a8,%rax
  4094c0:	48 89 c7             	mov    %rax,%rdi
  4094c3:	e8 4e 0a 00 00       	callq  409f16 <_ZNSt6vectorIfSaIfEEC1Ev>
  4094c8:	48 8b 45 d0          	mov    -0x30(%rbp),%rax
  4094cc:	48 89 c7             	mov    %rax,%rdi
  4094cf:	e8 9c c5 ff ff       	callq  405a70 <_ZNK5caffe14LayerParameter5phaseEv>
  4094d4:	89 c2                	mov    %eax,%edx
  4094d6:	48 8b 45 d8          	mov    -0x28(%rbp),%rax
  4094da:	89 90 60 02 00 00    	mov    %edx,0x260(%rax)
  4094e0:	48 8b 45 d8          	mov    -0x28(%rbp),%rax
  4094e4:	48 83 c0 08          	add    $0x8,%rax
  4094e8:	48 89 c7             	mov    %rax,%rdi
  4094eb:	e8 dc c5 ff ff       	callq  405acc <_ZNK5caffe14LayerParameter10blobs_sizeEv>
  4094f0:	85 c0                	test   %eax,%eax
  4094f2:	0f 9f c0             	setg   %al
  4094f5:	84 c0                	test   %al,%al
  4094f7:	0f 84 30 01 00 00    	je     40962d <_ZN5caffe5LayerIfEC1ERKNS_14LayerParameterE+0x1cf>
  4094fd:	48 8b 45 d8          	mov    -0x28(%rbp),%rax
  409501:	48 83 c0 08          	add    $0x8,%rax
  409505:	48 89 c7             	mov    %rax,%rdi
  409508:	e8 bf c5 ff ff       	callq  405acc <_ZNK5caffe14LayerParameter10blobs_sizeEv>
  40950d:	48 98                	cltq   
  40950f:	48 8b 55 d8          	mov    -0x28(%rbp),%rdx
  409513:	48 81 c2 68 02 00 00 	add    $0x268,%rdx
  40951a:	48 89 c6             	mov    %rax,%rsi
  40951d:	48 89 d7             	mov    %rdx,%rdi
  409520:	e8 0d 0a 00 00       	callq  409f32 <_ZNSt6vectorIN5boost10shared_ptrIN5caffe4BlobIfEEEESaIS5_EE6resizeEm>
  409525:	c7 45 ec 00 00 00 00 	movl   $0x0,-0x14(%rbp)
  40952c:	48 8b 45 d8          	mov    -0x28(%rbp),%rax
  409530:	48 83 c0 08          	add    $0x8,%rax
  409534:	48 89 c7             	mov    %rax,%rdi
  409537:	e8 90 c5 ff ff       	callq  405acc <_ZNK5caffe14LayerParameter10blobs_sizeEv>
  40953c:	3b 45 ec             	cmp    -0x14(%rbp),%eax
  40953f:	0f 9f c0             	setg   %al
  409542:	84 c0                	test   %al,%al
  409544:	0f 84 e3 00 00 00    	je     40962d <_ZN5caffe5LayerIfEC1ERKNS_14LayerParameterE+0x1cf>
  40954a:	bf 50 00 00 00       	mov    $0x50,%edi
  40954f:	e8 5c b8 ff ff       	callq  404db0 <_Znwm@plt>
  409554:	48 89 c3             	mov    %rax,%rbx
  409557:	48 89 df             	mov    %rbx,%rdi
  40955a:	e8 93 da ff ff       	callq  406ff2 <_ZN5caffe4BlobIfEC1Ev>
  40955f:	8b 45 ec             	mov    -0x14(%rbp),%eax
  409562:	48 98                	cltq   
  409564:	48 8b 55 d8          	mov    -0x28(%rbp),%rdx
  409568:	48 81 c2 68 02 00 00 	add    $0x268,%rdx
  40956f:	48 89 c6             	mov    %rax,%rsi
  409572:	48 89 d7             	mov    %rdx,%rdi
  409575:	e8 44 0a 00 00       	callq  409fbe <_ZNSt6vectorIN5boost10shared_ptrIN5caffe4BlobIfEEEESaIS5_EEixEm>
  40957a:	48 89 de             	mov    %rbx,%rsi
  40957d:	48 89 c7             	mov    %rax,%rdi
  409580:	e8 79 0a 00 00       	callq  409ffe <_ZN5boost10shared_ptrIN5caffe4BlobIfEEE5resetIS3_EEvPT_>
  409585:	48 8b 45 d8          	mov    -0x28(%rbp),%rax
  409589:	48 8d 50 08          	lea    0x8(%rax),%rdx
  40958d:	8b 45 ec             	mov    -0x14(%rbp),%eax
  409590:	89 c6                	mov    %eax,%esi
  409592:	48 89 d7             	mov    %rdx,%rdi
  409595:	e8 70 c5 ff ff       	callq  405b0a <_ZNK5caffe14LayerParameter5blobsEi>
  40959a:	48 89 c3             	mov    %rax,%rbx
  40959d:	8b 45 ec             	mov    -0x14(%rbp),%eax
  4095a0:	48 98                	cltq   
  4095a2:	48 8b 55 d8          	mov    -0x28(%rbp),%rdx
  4095a6:	48 81 c2 68 02 00 00 	add    $0x268,%rdx
  4095ad:	48 89 c6             	mov    %rax,%rsi
  4095b0:	48 89 d7             	mov    %rdx,%rdi
  4095b3:	e8 06 0a 00 00       	callq  409fbe <_ZNSt6vectorIN5boost10shared_ptrIN5caffe4BlobIfEEEESaIS5_EEixEm>
  4095b8:	48 89 c7             	mov    %rax,%rdi
  4095bb:	e8 d4 0a 00 00       	callq  40a094 <_ZNK5boost10shared_ptrIN5caffe4BlobIfEEEptEv>
  4095c0:	ba 01 00 00 00       	mov    $0x1,%edx
  4095c5:	48 89 de             	mov    %rbx,%rsi
  4095c8:	48 89 c7             	mov    %rax,%rdi
  4095cb:	e8 00 bd ff ff       	callq  4052d0 <_ZN5caffe4BlobIfE9FromProtoERKNS_9BlobProtoEb@plt>
  4095d0:	83 45 ec 01          	addl   $0x1,-0x14(%rbp)
  4095d4:	e9 53 ff ff ff       	jmpq   40952c <_ZN5caffe5LayerIfEC1ERKNS_14LayerParameterE+0xce>
  4095d9:	48 89 c3             	mov    %rax,%rbx
  4095dc:	48 8b 45 d8          	mov    -0x28(%rbp),%rax
  4095e0:	48 05 a8 02 00 00    	add    $0x2a8,%rax
  4095e6:	48 89 c7             	mov    %rax,%rdi
  4095e9:	e8 0a 01 00 00       	callq  4096f8 <_ZNSt6vectorIfSaIfEED1Ev>
  4095ee:	48 8b 45 d8          	mov    -0x28(%rbp),%rax
  4095f2:	48 05 80 02 00 00    	add    $0x280,%rax
  4095f8:	48 89 c7             	mov    %rax,%rdi
  4095fb:	e8 dc 00 00 00       	callq  4096dc <_ZNSt6vectorIbSaIbEED1Ev>
  409600:	48 8b 45 d8          	mov    -0x28(%rbp),%rax
  409604:	48 05 68 02 00 00    	add    $0x268,%rax
  40960a:	48 89 c7             	mov    %rax,%rdi
  40960d:	e8 86 00 00 00       	callq  409698 <_ZNSt6vectorIN5boost10shared_ptrIN5caffe4BlobIfEEEESaIS5_EED1Ev>
  409612:	48 8b 45 d8          	mov    -0x28(%rbp),%rax
  409616:	48 83 c0 08          	add    $0x8,%rax
  40961a:	48 89 c7             	mov    %rax,%rdi
  40961d:	e8 8e bc ff ff       	callq  4052b0 <_ZN5caffe14LayerParameterD1Ev@plt>
  409622:	48 89 d8             	mov    %rbx,%rax
  409625:	48 89 c7             	mov    %rax,%rdi
  409628:	e8 83 b9 ff ff       	callq  404fb0 <_Unwind_Resume@plt>
  40962d:	90                   	nop
  40962e:	48 83 c4 28          	add    $0x28,%rsp
  409632:	5b                   	pop    %rbx
  409633:	5d                   	pop    %rbp
  409634:	c3                   	retq   
  409635:	90                   	nop

0000000000409636 <_ZN5caffe4BlobIiEC1Ev>:
  409636:	55                   	push   %rbp
  409637:	48 89 e5             	mov    %rsp,%rbp
  40963a:	48 83 ec 10          	sub    $0x10,%rsp
  40963e:	48 89 7d f8          	mov    %rdi,-0x8(%rbp)
  409642:	48 8b 45 f8          	mov    -0x8(%rbp),%rax
  409646:	48 89 c7             	mov    %rax,%rdi
  409649:	e8 ea e9 ff ff       	callq  408038 <_ZN5boost10shared_ptrIN5caffe12SyncedMemoryEEC1Ev>
  40964e:	48 8b 45 f8          	mov    -0x8(%rbp),%rax
  409652:	48 83 c0 10          	add    $0x10,%rax
  409656:	48 89 c7             	mov    %rax,%rdi
  409659:	e8 da e9 ff ff       	callq  408038 <_ZN5boost10shared_ptrIN5caffe12SyncedMemoryEEC1Ev>
  40965e:	48 8b 45 f8          	mov    -0x8(%rbp),%rax
  409662:	48 83 c0 20          	add    $0x20,%rax
  409666:	48 89 c7             	mov    %rax,%rdi
  409669:	e8 ca e9 ff ff       	callq  408038 <_ZN5boost10shared_ptrIN5caffe12SyncedMemoryEEC1Ev>
  40966e:	48 8b 45 f8          	mov    -0x8(%rbp),%rax
  409672:	48 83 c0 30          	add    $0x30,%rax
  409676:	48 89 c7             	mov    %rax,%rdi
  409679:	e8 e4 e9 ff ff       	callq  408062 <_ZNSt6vectorIiSaIiEEC1Ev>
  40967e:	48 8b 45 f8          	mov    -0x8(%rbp),%rax
  409682:	c7 40 48 00 00 00 00 	movl   $0x0,0x48(%rax)
  409689:	48 8b 45 f8          	mov    -0x8(%rbp),%rax
  40968d:	c7 40 4c 00 00 00 00 	movl   $0x0,0x4c(%rax)
  409694:	90                   	nop
  409695:	c9                   	leaveq 
  409696:	c3                   	retq   
  409697:	90                   	nop

0000000000409698 <_ZNSt6vectorIN5boost10shared_ptrIN5caffe4BlobIfEEEESaIS5_EED1Ev>:
  409698:	55                   	push   %rbp
  409699:	48 89 e5             	mov    %rsp,%rbp
  40969c:	48 83 ec 10          	sub    $0x10,%rsp
  4096a0:	48 89 7d f8          	mov    %rdi,-0x8(%rbp)
  4096a4:	48 8b 45 f8          	mov    -0x8(%rbp),%rax
  4096a8:	48 89 c7             	mov    %rax,%rdi
  4096ab:	e8 8a 0a 00 00       	callq  40a13a <_ZNSt12_Vector_baseIN5boost10shared_ptrIN5caffe4BlobIfEEEESaIS5_EE19_M_get_Tp_allocatorEv>
  4096b0:	48 89 c2             	mov    %rax,%rdx
  4096b3:	48 8b 45 f8          	mov    -0x8(%rbp),%rax
  4096b7:	48 8b 48 08          	mov    0x8(%rax),%rcx
  4096bb:	48 8b 45 f8          	mov    -0x8(%rbp),%rax
  4096bf:	48 8b 00             	mov    (%rax),%rax
  4096c2:	48 89 ce             	mov    %rcx,%rsi
  4096c5:	48 89 c7             	mov    %rax,%rdi
  4096c8:	e8 7b 0a 00 00       	callq  40a148 <_ZSt8_DestroyIPN5boost10shared_ptrIN5caffe4BlobIfEEEES5_EvT_S7_RSaIT0_E>
  4096cd:	48 8b 45 f8          	mov    -0x8(%rbp),%rax
  4096d1:	48 89 c7             	mov    %rax,%rdi
  4096d4:	e8 11 0a 00 00       	callq  40a0ea <_ZNSt12_Vector_baseIN5boost10shared_ptrIN5caffe4BlobIfEEEESaIS5_EED1Ev>
  4096d9:	90                   	nop
  4096da:	c9                   	leaveq 
  4096db:	c3                   	retq   

00000000004096dc <_ZNSt6vectorIbSaIbEED1Ev>:
  4096dc:	55                   	push   %rbp
  4096dd:	48 89 e5             	mov    %rsp,%rbp
  4096e0:	48 83 ec 10          	sub    $0x10,%rsp
  4096e4:	48 89 7d f8          	mov    %rdi,-0x8(%rbp)
  4096e8:	48 8b 45 f8          	mov    -0x8(%rbp),%rax
  4096ec:	48 89 c7             	mov    %rax,%rdi
  4096ef:	e8 9a 0a 00 00       	callq  40a18e <_ZNSt13_Bvector_baseISaIbEED1Ev>
  4096f4:	90                   	nop
  4096f5:	c9                   	leaveq 
  4096f6:	c3                   	retq   
  4096f7:	90                   	nop

00000000004096f8 <_ZNSt6vectorIfSaIfEED1Ev>:
  4096f8:	55                   	push   %rbp
  4096f9:	48 89 e5             	mov    %rsp,%rbp
  4096fc:	48 83 ec 10          	sub    $0x10,%rsp
  409700:	48 89 7d f8          	mov    %rdi,-0x8(%rbp)
  409704:	48 8b 45 f8          	mov    -0x8(%rbp),%rax
  409708:	48 89 c7             	mov    %rax,%rdi
  40970b:	e8 12 0b 00 00       	callq  40a222 <_ZNSt12_Vector_baseIfSaIfEE19_M_get_Tp_allocatorEv>
  409710:	48 89 c2             	mov    %rax,%rdx
  409713:	48 8b 45 f8          	mov    -0x8(%rbp),%rax
  409717:	48 8b 48 08          	mov    0x8(%rax),%rcx
  40971b:	48 8b 45 f8          	mov    -0x8(%rbp),%rax
  40971f:	48 8b 00             	mov    (%rax),%rax
  409722:	48 89 ce             	mov    %rcx,%rsi
  409725:	48 89 c7             	mov    %rax,%rdi
  409728:	e8 03 0b 00 00       	callq  40a230 <_ZSt8_DestroyIPffEvT_S1_RSaIT0_E>
  40972d:	48 8b 45 f8          	mov    -0x8(%rbp),%rax
  409731:	48 89 c7             	mov    %rax,%rdi
  409734:	e8 99 0a 00 00       	callq  40a1d2 <_ZNSt12_Vector_baseIfSaIfEED1Ev>
  409739:	90                   	nop
  40973a:	c9                   	leaveq 
  40973b:	c3                   	retq   

000000000040973c <_ZNK5caffe5LayerIfE19ExactNumBottomBlobsEv>:
  40973c:	55                   	push   %rbp
  40973d:	48 89 e5             	mov    %rsp,%rbp
  409740:	48 89 7d f8          	mov    %rdi,-0x8(%rbp)
  409744:	b8 ff ff ff ff       	mov    $0xffffffff,%eax
  409749:	5d                   	pop    %rbp
  40974a:	c3                   	retq   

000000000040974b <_ZN6google12Check_EQImplIimEEPNSt7__cxx1112basic_stringIcSt11char_traitsIcESaIcEEERKT_RKT0_PKc>:
  40974b:	55                   	push   %rbp
  40974c:	48 89 e5             	mov    %rsp,%rbp
  40974f:	48 83 ec 20          	sub    $0x20,%rsp
  409753:	48 89 7d f8          	mov    %rdi,-0x8(%rbp)
  409757:	48 89 75 f0          	mov    %rsi,-0x10(%rbp)
  40975b:	48 89 55 e8          	mov    %rdx,-0x18(%rbp)
  40975f:	48 8b 45 f8          	mov    -0x8(%rbp),%rax
  409763:	8b 00                	mov    (%rax),%eax
  409765:	48 63 d0             	movslq %eax,%rdx
  409768:	48 8b 45 f0          	mov    -0x10(%rbp),%rax
  40976c:	48 8b 00             	mov    (%rax),%rax
  40976f:	48 39 c2             	cmp    %rax,%rdx
  409772:	0f 94 c0             	sete   %al
  409775:	0f b6 c0             	movzbl %al,%eax
  409778:	48 85 c0             	test   %rax,%rax
  40977b:	74 07                	je     409784 <_ZN6google12Check_EQImplIimEEPNSt7__cxx1112basic_stringIcSt11char_traitsIcESaIcEEERKT_RKT0_PKc+0x39>
  40977d:	b8 00 00 00 00       	mov    $0x0,%eax
  409782:	eb 17                	jmp    40979b <_ZN6google12Check_EQImplIimEEPNSt7__cxx1112basic_stringIcSt11char_traitsIcESaIcEEERKT_RKT0_PKc+0x50>
  409784:	48 8b 55 e8          	mov    -0x18(%rbp),%rdx
  409788:	48 8b 4d f0          	mov    -0x10(%rbp),%rcx
  40978c:	48 8b 45 f8          	mov    -0x8(%rbp),%rax
  409790:	48 89 ce             	mov    %rcx,%rsi
  409793:	48 89 c7             	mov    %rax,%rdi
  409796:	e8 bf 0a 00 00       	callq  40a25a <_ZN6google17MakeCheckOpStringIimEEPNSt7__cxx1112basic_stringIcSt11char_traitsIcESaIcEEERKT_RKT0_PKc>
  40979b:	c9                   	leaveq 
  40979c:	c3                   	retq   
  40979d:	90                   	nop

000000000040979e <_ZNK5caffe5LayerIfE4typeEv>:
  40979e:	55                   	push   %rbp
  40979f:	48 89 e5             	mov    %rsp,%rbp
  4097a2:	48 89 7d f8          	mov    %rdi,-0x8(%rbp)
  4097a6:	b8 5a d9 40 00       	mov    $0x40d95a,%eax
  4097ab:	5d                   	pop    %rbp
  4097ac:	c3                   	retq   
  4097ad:	90                   	nop

00000000004097ae <_ZNK5caffe5LayerIfE14MinBottomBlobsEv>:
  4097ae:	55                   	push   %rbp
  4097af:	48 89 e5             	mov    %rsp,%rbp
  4097b2:	48 89 7d f8          	mov    %rdi,-0x8(%rbp)
  4097b6:	b8 ff ff ff ff       	mov    $0xffffffff,%eax
  4097bb:	5d                   	pop    %rbp
  4097bc:	c3                   	retq   

00000000004097bd <_ZN6google12Check_LEImplIimEEPNSt7__cxx1112basic_stringIcSt11char_traitsIcESaIcEEERKT_RKT0_PKc>:
  4097bd:	55                   	push   %rbp
  4097be:	48 89 e5             	mov    %rsp,%rbp
  4097c1:	48 83 ec 20          	sub    $0x20,%rsp
  4097c5:	48 89 7d f8          	mov    %rdi,-0x8(%rbp)
  4097c9:	48 89 75 f0          	mov    %rsi,-0x10(%rbp)
  4097cd:	48 89 55 e8          	mov    %rdx,-0x18(%rbp)
  4097d1:	48 8b 45 f8          	mov    -0x8(%rbp),%rax
  4097d5:	8b 00                	mov    (%rax),%eax
  4097d7:	48 63 d0             	movslq %eax,%rdx
  4097da:	48 8b 45 f0          	mov    -0x10(%rbp),%rax
  4097de:	48 8b 00             	mov    (%rax),%rax
  4097e1:	48 39 c2             	cmp    %rax,%rdx
  4097e4:	0f 96 c0             	setbe  %al
  4097e7:	0f b6 c0             	movzbl %al,%eax
  4097ea:	48 85 c0             	test   %rax,%rax
  4097ed:	74 07                	je     4097f6 <_ZN6google12Check_LEImplIimEEPNSt7__cxx1112basic_stringIcSt11char_traitsIcESaIcEEERKT_RKT0_PKc+0x39>
  4097ef:	b8 00 00 00 00       	mov    $0x0,%eax
  4097f4:	eb 17                	jmp    40980d <_ZN6google12Check_LEImplIimEEPNSt7__cxx1112basic_stringIcSt11char_traitsIcESaIcEEERKT_RKT0_PKc+0x50>
  4097f6:	48 8b 55 e8          	mov    -0x18(%rbp),%rdx
  4097fa:	48 8b 4d f0          	mov    -0x10(%rbp),%rcx
  4097fe:	48 8b 45 f8          	mov    -0x8(%rbp),%rax
  409802:	48 89 ce             	mov    %rcx,%rsi
  409805:	48 89 c7             	mov    %rax,%rdi
  409808:	e8 4d 0a 00 00       	callq  40a25a <_ZN6google17MakeCheckOpStringIimEEPNSt7__cxx1112basic_stringIcSt11char_traitsIcESaIcEEERKT_RKT0_PKc>
  40980d:	c9                   	leaveq 
  40980e:	c3                   	retq   
  40980f:	90                   	nop

0000000000409810 <_ZNK5caffe5LayerIfE14MaxBottomBlobsEv>:
  409810:	55                   	push   %rbp
  409811:	48 89 e5             	mov    %rsp,%rbp
  409814:	48 89 7d f8          	mov    %rdi,-0x8(%rbp)
  409818:	b8 ff ff ff ff       	mov    $0xffffffff,%eax
  40981d:	5d                   	pop    %rbp
  40981e:	c3                   	retq   

000000000040981f <_ZN6google12Check_GEImplIimEEPNSt7__cxx1112basic_stringIcSt11char_traitsIcESaIcEEERKT_RKT0_PKc>:
  40981f:	55                   	push   %rbp
  409820:	48 89 e5             	mov    %rsp,%rbp
  409823:	48 83 ec 20          	sub    $0x20,%rsp
  409827:	48 89 7d f8          	mov    %rdi,-0x8(%rbp)
  40982b:	48 89 75 f0          	mov    %rsi,-0x10(%rbp)
  40982f:	48 89 55 e8          	mov    %rdx,-0x18(%rbp)
  409833:	48 8b 45 f8          	mov    -0x8(%rbp),%rax
  409837:	8b 00                	mov    (%rax),%eax
  409839:	48 63 d0             	movslq %eax,%rdx
  40983c:	48 8b 45 f0          	mov    -0x10(%rbp),%rax
  409840:	48 8b 00             	mov    (%rax),%rax
  409843:	48 39 c2             	cmp    %rax,%rdx
  409846:	0f 93 c0             	setae  %al
  409849:	0f b6 c0             	movzbl %al,%eax
  40984c:	48 85 c0             	test   %rax,%rax
  40984f:	74 07                	je     409858 <_ZN6google12Check_GEImplIimEEPNSt7__cxx1112basic_stringIcSt11char_traitsIcESaIcEEERKT_RKT0_PKc+0x39>
  409851:	b8 00 00 00 00       	mov    $0x0,%eax
  409856:	eb 17                	jmp    40986f <_ZN6google12Check_GEImplIimEEPNSt7__cxx1112basic_stringIcSt11char_traitsIcESaIcEEERKT_RKT0_PKc+0x50>
  409858:	48 8b 55 e8          	mov    -0x18(%rbp),%rdx
  40985c:	48 8b 4d f0          	mov    -0x10(%rbp),%rcx
  409860:	48 8b 45 f8          	mov    -0x8(%rbp),%rax
  409864:	48 89 ce             	mov    %rcx,%rsi
  409867:	48 89 c7             	mov    %rax,%rdi
  40986a:	e8 eb 09 00 00       	callq  40a25a <_ZN6google17MakeCheckOpStringIimEEPNSt7__cxx1112basic_stringIcSt11char_traitsIcESaIcEEERKT_RKT0_PKc>
  40986f:	c9                   	leaveq 
  409870:	c3                   	retq   
  409871:	90                   	nop

0000000000409872 <_ZNK5caffe5LayerIfE16ExactNumTopBlobsEv>:
  409872:	55                   	push   %rbp
  409873:	48 89 e5             	mov    %rsp,%rbp
  409876:	48 89 7d f8          	mov    %rdi,-0x8(%rbp)
  40987a:	b8 ff ff ff ff       	mov    $0xffffffff,%eax
  40987f:	5d                   	pop    %rbp
  409880:	c3                   	retq   
  409881:	90                   	nop

0000000000409882 <_ZNK5caffe5LayerIfE11MinTopBlobsEv>:
  409882:	55                   	push   %rbp
  409883:	48 89 e5             	mov    %rsp,%rbp
  409886:	48 89 7d f8          	mov    %rdi,-0x8(%rbp)
  40988a:	b8 ff ff ff ff       	mov    $0xffffffff,%eax
  40988f:	5d                   	pop    %rbp
  409890:	c3                   	retq   
  409891:	90                   	nop

0000000000409892 <_ZNK5caffe5LayerIfE11MaxTopBlobsEv>:
  409892:	55                   	push   %rbp
  409893:	48 89 e5             	mov    %rsp,%rbp
  409896:	48 89 7d f8          	mov    %rdi,-0x8(%rbp)
  40989a:	b8 ff ff ff ff       	mov    $0xffffffff,%eax
  40989f:	5d                   	pop    %rbp
  4098a0:	c3                   	retq   
  4098a1:	90                   	nop

00000000004098a2 <_ZNK5caffe5LayerIfE22EqualNumBottomTopBlobsEv>:
  4098a2:	55                   	push   %rbp
  4098a3:	48 89 e5             	mov    %rsp,%rbp
  4098a6:	48 89 7d f8          	mov    %rdi,-0x8(%rbp)
  4098aa:	b8 00 00 00 00       	mov    $0x0,%eax
  4098af:	5d                   	pop    %rbp
  4098b0:	c3                   	retq   

00000000004098b1 <_ZN6google12Check_EQImplImmEEPNSt7__cxx1112basic_stringIcSt11char_traitsIcESaIcEEERKT_RKT0_PKc>:
  4098b1:	55                   	push   %rbp
  4098b2:	48 89 e5             	mov    %rsp,%rbp
  4098b5:	48 83 ec 20          	sub    $0x20,%rsp
  4098b9:	48 89 7d f8          	mov    %rdi,-0x8(%rbp)
  4098bd:	48 89 75 f0          	mov    %rsi,-0x10(%rbp)
  4098c1:	48 89 55 e8          	mov    %rdx,-0x18(%rbp)
  4098c5:	48 8b 45 f8          	mov    -0x8(%rbp),%rax
  4098c9:	48 8b 10             	mov    (%rax),%rdx
  4098cc:	48 8b 45 f0          	mov    -0x10(%rbp),%rax
  4098d0:	48 8b 00             	mov    (%rax),%rax
  4098d3:	48 39 c2             	cmp    %rax,%rdx
  4098d6:	0f 94 c0             	sete   %al
  4098d9:	0f b6 c0             	movzbl %al,%eax
  4098dc:	48 85 c0             	test   %rax,%rax
  4098df:	74 07                	je     4098e8 <_ZN6google12Check_EQImplImmEEPNSt7__cxx1112basic_stringIcSt11char_traitsIcESaIcEEERKT_RKT0_PKc+0x37>
  4098e1:	b8 00 00 00 00       	mov    $0x0,%eax
  4098e6:	eb 17                	jmp    4098ff <_ZN6google12Check_EQImplImmEEPNSt7__cxx1112basic_stringIcSt11char_traitsIcESaIcEEERKT_RKT0_PKc+0x4e>
  4098e8:	48 8b 55 e8          	mov    -0x18(%rbp),%rdx
  4098ec:	48 8b 4d f0          	mov    -0x10(%rbp),%rcx
  4098f0:	48 8b 45 f8          	mov    -0x8(%rbp),%rax
  4098f4:	48 89 ce             	mov    %rcx,%rsi
  4098f7:	48 89 c7             	mov    %rax,%rdi
  4098fa:	e8 23 0a 00 00       	callq  40a322 <_ZN6google17MakeCheckOpStringImmEEPNSt7__cxx1112basic_stringIcSt11char_traitsIcESaIcEEERKT_RKT0_PKc>
  4098ff:	c9                   	leaveq 
  409900:	c3                   	retq   

0000000000409901 <_ZN6google12Check_EQImplImiEEPNSt7__cxx1112basic_stringIcSt11char_traitsIcESaIcEEERKT_RKT0_PKc>:
  409901:	55                   	push   %rbp
  409902:	48 89 e5             	mov    %rsp,%rbp
  409905:	48 83 ec 20          	sub    $0x20,%rsp
  409909:	48 89 7d f8          	mov    %rdi,-0x8(%rbp)
  40990d:	48 89 75 f0          	mov    %rsi,-0x10(%rbp)
  409911:	48 89 55 e8          	mov    %rdx,-0x18(%rbp)
  409915:	48 8b 45 f8          	mov    -0x8(%rbp),%rax
  409919:	48 8b 10             	mov    (%rax),%rdx
  40991c:	48 8b 45 f0          	mov    -0x10(%rbp),%rax
  409920:	8b 00                	mov    (%rax),%eax
  409922:	48 98                	cltq   
  409924:	48 39 c2             	cmp    %rax,%rdx
  409927:	0f 94 c0             	sete   %al
  40992a:	0f b6 c0             	movzbl %al,%eax
  40992d:	48 85 c0             	test   %rax,%rax
  409930:	74 07                	je     409939 <_ZN6google12Check_EQImplImiEEPNSt7__cxx1112basic_stringIcSt11char_traitsIcESaIcEEERKT_RKT0_PKc+0x38>
  409932:	b8 00 00 00 00       	mov    $0x0,%eax
  409937:	eb 17                	jmp    409950 <_ZN6google12Check_EQImplImiEEPNSt7__cxx1112basic_stringIcSt11char_traitsIcESaIcEEERKT_RKT0_PKc+0x4f>
  409939:	48 8b 55 e8          	mov    -0x18(%rbp),%rdx
  40993d:	48 8b 4d f0          	mov    -0x10(%rbp),%rcx
  409941:	48 8b 45 f8          	mov    -0x8(%rbp),%rax
  409945:	48 89 ce             	mov    %rcx,%rsi
  409948:	48 89 c7             	mov    %rax,%rdi
  40994b:	e8 9a 0a 00 00       	callq  40a3ea <_ZN6google17MakeCheckOpStringImiEEPNSt7__cxx1112basic_stringIcSt11char_traitsIcESaIcEEERKT_RKT0_PKc>
  409950:	c9                   	leaveq 
  409951:	c3                   	retq   

0000000000409952 <_ZN5caffe5LayerIfE8set_lossEif>:
  409952:	55                   	push   %rbp
  409953:	48 89 e5             	mov    %rsp,%rbp
  409956:	48 83 ec 20          	sub    $0x20,%rsp
  40995a:	48 89 7d e8          	mov    %rdi,-0x18(%rbp)
  40995e:	89 75 e4             	mov    %esi,-0x1c(%rbp)
  409961:	f3 0f 11 45 e0       	movss  %xmm0,-0x20(%rbp)
  409966:	64 48 8b 04 25 28 00 	mov    %fs:0x28,%rax
  40996d:	00 00 
  40996f:	48 89 45 f8          	mov    %rax,-0x8(%rbp)
  409973:	31 c0                	xor    %eax,%eax
  409975:	48 8b 45 e8          	mov    -0x18(%rbp),%rax
  409979:	48 05 a8 02 00 00    	add    $0x2a8,%rax
  40997f:	48 89 c7             	mov    %rax,%rdi
  409982:	e8 a9 01 00 00       	callq  409b30 <_ZNKSt6vectorIfSaIfEE4sizeEv>
  409987:	48 89 c2             	mov    %rax,%rdx
  40998a:	8b 45 e4             	mov    -0x1c(%rbp),%eax
  40998d:	48 98                	cltq   
  40998f:	48 39 c2             	cmp    %rax,%rdx
  409992:	0f 96 c0             	setbe  %al
  409995:	84 c0                	test   %al,%al
  409997:	74 2b                	je     4099c4 <_ZN5caffe5LayerIfE8set_lossEif+0x72>
  409999:	66 0f ef c0          	pxor   %xmm0,%xmm0
  40999d:	f3 0f 11 45 f4       	movss  %xmm0,-0xc(%rbp)
  4099a2:	8b 45 e4             	mov    -0x1c(%rbp),%eax
  4099a5:	83 c0 01             	add    $0x1,%eax
  4099a8:	48 98                	cltq   
  4099aa:	48 8b 55 e8          	mov    -0x18(%rbp),%rdx
  4099ae:	48 8d 8a a8 02 00 00 	lea    0x2a8(%rdx),%rcx
  4099b5:	48 8d 55 f4          	lea    -0xc(%rbp),%rdx
  4099b9:	48 89 c6             	mov    %rax,%rsi
  4099bc:	48 89 cf             	mov    %rcx,%rdi
  4099bf:	e8 ee 0a 00 00       	callq  40a4b2 <_ZNSt6vectorIfSaIfEE6resizeEmRKf>
  4099c4:	8b 45 e4             	mov    -0x1c(%rbp),%eax
  4099c7:	48 98                	cltq   
  4099c9:	48 8b 55 e8          	mov    -0x18(%rbp),%rdx
  4099cd:	48 81 c2 a8 02 00 00 	add    $0x2a8,%rdx
  4099d4:	48 89 c6             	mov    %rax,%rsi
  4099d7:	48 89 d7             	mov    %rdx,%rdi
  4099da:	e8 bb 0b 00 00       	callq  40a59a <_ZNSt6vectorIfSaIfEEixEm>
  4099df:	f3 0f 10 45 e0       	movss  -0x20(%rbp),%xmm0
  4099e4:	f3 0f 11 00          	movss  %xmm0,(%rax)
  4099e8:	90                   	nop
  4099e9:	48 8b 45 f8          	mov    -0x8(%rbp),%rax
  4099ed:	64 48 33 04 25 28 00 	xor    %fs:0x28,%rax
  4099f4:	00 00 
  4099f6:	74 05                	je     4099fd <_ZN5caffe5LayerIfE8set_lossEif+0xab>
  4099f8:	e8 23 b4 ff ff       	callq  404e20 <__stack_chk_fail@plt>
  4099fd:	c9                   	leaveq 
  4099fe:	c3                   	retq   

00000000004099ff <_ZN2CK14print_raw_dataIfEEvPT_RKNS_5ShapeE>:
  4099ff:	55                   	push   %rbp
  409a00:	48 89 e5             	mov    %rsp,%rbp
  409a03:	48 83 ec 30          	sub    $0x30,%rsp
  409a07:	48 89 7d d8          	mov    %rdi,-0x28(%rbp)
  409a0b:	48 89 75 d0          	mov    %rsi,-0x30(%rbp)
  409a0f:	bf 60 d9 40 00       	mov    $0x40d960,%edi
  409a14:	e8 77 b7 ff ff       	callq  405190 <puts@plt>
  409a19:	48 8b 45 d0          	mov    -0x30(%rbp),%rax
  409a1d:	8b 70 0c             	mov    0xc(%rax),%esi
  409a20:	48 8b 45 d0          	mov    -0x30(%rbp),%rax
  409a24:	8b 48 08             	mov    0x8(%rax),%ecx
  409a27:	48 8b 45 d0          	mov    -0x30(%rbp),%rax
  409a2b:	8b 50 04             	mov    0x4(%rax),%edx
  409a2e:	48 8b 45 d0          	mov    -0x30(%rbp),%rax
  409a32:	8b 00                	mov    (%rax),%eax
  409a34:	41 89 f0             	mov    %esi,%r8d
  409a37:	89 c6                	mov    %eax,%esi
  409a39:	bf 84 d9 40 00       	mov    $0x40d984,%edi
  409a3e:	b8 00 00 00 00       	mov    $0x0,%eax
  409a43:	e8 08 b3 ff ff       	callq  404d50 <printf@plt>
  409a48:	c7 45 ec 00 00 00 00 	movl   $0x0,-0x14(%rbp)
  409a4f:	48 8b 45 d0          	mov    -0x30(%rbp),%rax
  409a53:	8b 00                	mov    (%rax),%eax
  409a55:	3b 45 ec             	cmp    -0x14(%rbp),%eax
  409a58:	0f 8e c5 00 00 00    	jle    409b23 <_ZN2CK14print_raw_dataIfEEvPT_RKNS_5ShapeE+0x124>
  409a5e:	c7 45 f0 00 00 00 00 	movl   $0x0,-0x10(%rbp)
  409a65:	48 8b 45 d0          	mov    -0x30(%rbp),%rax
  409a69:	8b 40 04             	mov    0x4(%rax),%eax
  409a6c:	3b 45 f0             	cmp    -0x10(%rbp),%eax
  409a6f:	0f 8e a5 00 00 00    	jle    409b1a <_ZN2CK14print_raw_dataIfEEvPT_RKNS_5ShapeE+0x11b>
  409a75:	8b 55 f0             	mov    -0x10(%rbp),%edx
  409a78:	8b 45 ec             	mov    -0x14(%rbp),%eax
  409a7b:	89 c6                	mov    %eax,%esi
  409a7d:	bf a2 d9 40 00       	mov    $0x40d9a2,%edi
  409a82:	b8 00 00 00 00       	mov    $0x0,%eax
  409a87:	e8 c4 b2 ff ff       	callq  404d50 <printf@plt>
  409a8c:	c7 45 f4 00 00 00 00 	movl   $0x0,-0xc(%rbp)
  409a93:	48 8b 45 d0          	mov    -0x30(%rbp),%rax
  409a97:	8b 40 08             	mov    0x8(%rax),%eax
  409a9a:	3b 45 f4             	cmp    -0xc(%rbp),%eax
  409a9d:	7e 72                	jle    409b11 <_ZN2CK14print_raw_dataIfEEvPT_RKNS_5ShapeE+0x112>
  409a9f:	c7 45 f8 00 00 00 00 	movl   $0x0,-0x8(%rbp)
  409aa6:	48 8b 45 d0          	mov    -0x30(%rbp),%rax
  409aaa:	8b 40 0c             	mov    0xc(%rax),%eax
  409aad:	3b 45 f8             	cmp    -0x8(%rbp),%eax
  409ab0:	7e 4f                	jle    409b01 <_ZN2CK14print_raw_dataIfEEvPT_RKNS_5ShapeE+0x102>
  409ab2:	8b 7d f8             	mov    -0x8(%rbp),%edi
  409ab5:	8b 4d f4             	mov    -0xc(%rbp),%ecx
  409ab8:	8b 55 f0             	mov    -0x10(%rbp),%edx
  409abb:	8b 75 ec             	mov    -0x14(%rbp),%esi
  409abe:	48 8b 45 d0          	mov    -0x30(%rbp),%rax
  409ac2:	41 89 f8             	mov    %edi,%r8d
  409ac5:	48 89 c7             	mov    %rax,%rdi
  409ac8:	e8 cf c5 ff ff       	callq  40609c <_ZNK2CK5Shape14get_flat_indexEiiii>
  409acd:	89 45 fc             	mov    %eax,-0x4(%rbp)
  409ad0:	8b 45 fc             	mov    -0x4(%rbp),%eax
  409ad3:	48 98                	cltq   
  409ad5:	48 8d 14 85 00 00 00 	lea    0x0(,%rax,4),%rdx
  409adc:	00 
  409add:	48 8b 45 d8          	mov    -0x28(%rbp),%rax
  409ae1:	48 01 d0             	add    %rdx,%rax
  409ae4:	f3 0f 10 00          	movss  (%rax),%xmm0
  409ae8:	f3 0f 5a c0          	cvtss2sd %xmm0,%xmm0
  409aec:	bf af d9 40 00       	mov    $0x40d9af,%edi
  409af1:	b8 01 00 00 00       	mov    $0x1,%eax
  409af6:	e8 55 b2 ff ff       	callq  404d50 <printf@plt>
  409afb:	83 45 f8 01          	addl   $0x1,-0x8(%rbp)
  409aff:	eb a5                	jmp    409aa6 <_ZN2CK14print_raw_dataIfEEvPT_RKNS_5ShapeE+0xa7>
  409b01:	bf 0a 00 00 00       	mov    $0xa,%edi
  409b06:	e8 d5 b6 ff ff       	callq  4051e0 <putchar@plt>
  409b0b:	83 45 f4 01          	addl   $0x1,-0xc(%rbp)
  409b0f:	eb 82                	jmp    409a93 <_ZN2CK14print_raw_dataIfEEvPT_RKNS_5ShapeE+0x94>
  409b11:	83 45 f0 01          	addl   $0x1,-0x10(%rbp)
  409b15:	e9 4b ff ff ff       	jmpq   409a65 <_ZN2CK14print_raw_dataIfEEvPT_RKNS_5ShapeE+0x66>
  409b1a:	83 45 ec 01          	addl   $0x1,-0x14(%rbp)
  409b1e:	e9 2c ff ff ff       	jmpq   409a4f <_ZN2CK14print_raw_dataIfEEvPT_RKNS_5ShapeE+0x50>
  409b23:	bf 60 d9 40 00       	mov    $0x40d960,%edi
  409b28:	e8 63 b6 ff ff       	callq  405190 <puts@plt>
  409b2d:	90                   	nop
  409b2e:	c9                   	leaveq 
  409b2f:	c3                   	retq   

0000000000409b30 <_ZNKSt6vectorIfSaIfEE4sizeEv>:
  409b30:	55                   	push   %rbp
  409b31:	48 89 e5             	mov    %rsp,%rbp
  409b34:	48 89 7d f8          	mov    %rdi,-0x8(%rbp)
  409b38:	48 8b 45 f8          	mov    -0x8(%rbp),%rax
  409b3c:	48 8b 40 08          	mov    0x8(%rax),%rax
  409b40:	48 89 c2             	mov    %rax,%rdx
  409b43:	48 8b 45 f8          	mov    -0x8(%rbp),%rax
  409b47:	48 8b 00             	mov    (%rax),%rax
  409b4a:	48 29 c2             	sub    %rax,%rdx
  409b4d:	48 89 d0             	mov    %rdx,%rax
  409b50:	48 c1 f8 02          	sar    $0x2,%rax
  409b54:	5d                   	pop    %rbp
  409b55:	c3                   	retq   

0000000000409b56 <_ZNKSt6vectorIfSaIfEEixEm>:
  409b56:	55                   	push   %rbp
  409b57:	48 89 e5             	mov    %rsp,%rbp
  409b5a:	48 89 7d f8          	mov    %rdi,-0x8(%rbp)
  409b5e:	48 89 75 f0          	mov    %rsi,-0x10(%rbp)
  409b62:	48 8b 45 f8          	mov    -0x8(%rbp),%rax
  409b66:	48 8b 00             	mov    (%rax),%rax
  409b69:	48 8b 55 f0          	mov    -0x10(%rbp),%rdx
  409b6d:	48 c1 e2 02          	shl    $0x2,%rdx
  409b71:	48 01 d0             	add    %rdx,%rax
  409b74:	5d                   	pop    %rbp
  409b75:	c3                   	retq   

0000000000409b76 <_ZNK5caffe4BlobIfE8num_axesEv>:
  409b76:	55                   	push   %rbp
  409b77:	48 89 e5             	mov    %rsp,%rbp
  409b7a:	48 83 ec 10          	sub    $0x10,%rsp
  409b7e:	48 89 7d f8          	mov    %rdi,-0x8(%rbp)
  409b82:	48 8b 45 f8          	mov    -0x8(%rbp),%rax
  409b86:	48 83 c0 30          	add    $0x30,%rax
  409b8a:	48 89 c7             	mov    %rax,%rdi
  409b8d:	e8 28 0a 00 00       	callq  40a5ba <_ZNKSt6vectorIiSaIiEE4sizeEv>
  409b92:	c9                   	leaveq 
  409b93:	c3                   	retq   

0000000000409b94 <_ZNK5caffe4BlobIfE5shapeEi>:
  409b94:	55                   	push   %rbp
  409b95:	48 89 e5             	mov    %rsp,%rbp
  409b98:	48 83 ec 10          	sub    $0x10,%rsp
  409b9c:	48 89 7d f8          	mov    %rdi,-0x8(%rbp)
  409ba0:	89 75 f4             	mov    %esi,-0xc(%rbp)
  409ba3:	8b 55 f4             	mov    -0xc(%rbp),%edx
  409ba6:	48 8b 45 f8          	mov    -0x8(%rbp),%rax
  409baa:	89 d6                	mov    %edx,%esi
  409bac:	48 89 c7             	mov    %rax,%rdi
  409baf:	e8 2c 0a 00 00       	callq  40a5e0 <_ZNK5caffe4BlobIfE18CanonicalAxisIndexEi>
  409bb4:	48 98                	cltq   
  409bb6:	48 8b 55 f8          	mov    -0x8(%rbp),%rdx
  409bba:	48 83 c2 30          	add    $0x30,%rdx
  409bbe:	48 89 c6             	mov    %rax,%rsi
  409bc1:	48 89 d7             	mov    %rdx,%rdi
  409bc4:	e8 af 0c 00 00       	callq  40a878 <_ZNKSt6vectorIiSaIiEEixEm>
  409bc9:	8b 00                	mov    (%rax),%eax
  409bcb:	c9                   	leaveq 
  409bcc:	c3                   	retq   
  409bcd:	90                   	nop

0000000000409bce <_ZNSaIiED1Ev>:
  409bce:	55                   	push   %rbp
  409bcf:	48 89 e5             	mov    %rsp,%rbp
  409bd2:	48 83 ec 10          	sub    $0x10,%rsp
  409bd6:	48 89 7d f8          	mov    %rdi,-0x8(%rbp)
  409bda:	48 8b 45 f8          	mov    -0x8(%rbp),%rax
  409bde:	48 89 c7             	mov    %rax,%rdi
  409be1:	e8 b2 0c 00 00       	callq  40a898 <_ZN9__gnu_cxx13new_allocatorIiED1Ev>
  409be6:	90                   	nop
  409be7:	c9                   	leaveq 
  409be8:	c3                   	retq   
  409be9:	90                   	nop

0000000000409bea <_ZNSt12_Vector_baseIiSaIiEE13_M_deallocateEPim>:
  409bea:	55                   	push   %rbp
  409beb:	48 89 e5             	mov    %rsp,%rbp
  409bee:	48 83 ec 20          	sub    $0x20,%rsp
  409bf2:	48 89 7d f8          	mov    %rdi,-0x8(%rbp)
  409bf6:	48 89 75 f0          	mov    %rsi,-0x10(%rbp)
  409bfa:	48 89 55 e8          	mov    %rdx,-0x18(%rbp)
  409bfe:	48 83 7d f0 00       	cmpq   $0x0,-0x10(%rbp)
  409c03:	74 17                	je     409c1c <_ZNSt12_Vector_baseIiSaIiEE13_M_deallocateEPim+0x32>
  409c05:	48 8b 45 f8          	mov    -0x8(%rbp),%rax
  409c09:	48 8b 55 e8          	mov    -0x18(%rbp),%rdx
  409c0d:	48 8b 4d f0          	mov    -0x10(%rbp),%rcx
  409c11:	48 89 ce             	mov    %rcx,%rsi
  409c14:	48 89 c7             	mov    %rax,%rdi
  409c17:	e8 87 0c 00 00       	callq  40a8a3 <_ZNSt16allocator_traitsISaIiEE10deallocateERS0_Pim>
  409c1c:	90                   	nop
  409c1d:	c9                   	leaveq 
  409c1e:	c3                   	retq   

0000000000409c1f <_ZSt8_DestroyIPiEvT_S1_>:
  409c1f:	55                   	push   %rbp
  409c20:	48 89 e5             	mov    %rsp,%rbp
  409c23:	48 83 ec 10          	sub    $0x10,%rsp
  409c27:	48 89 7d f8          	mov    %rdi,-0x8(%rbp)
  409c2b:	48 89 75 f0          	mov    %rsi,-0x10(%rbp)
  409c2f:	48 8b 55 f0          	mov    -0x10(%rbp),%rdx
  409c33:	48 8b 45 f8          	mov    -0x8(%rbp),%rax
  409c37:	48 89 d6             	mov    %rdx,%rsi
  409c3a:	48 89 c7             	mov    %rax,%rdi
  409c3d:	e8 8f 0c 00 00       	callq  40a8d1 <_ZNSt12_Destroy_auxILb1EE9__destroyIPiEEvT_S3_>
  409c42:	90                   	nop
  409c43:	c9                   	leaveq 
  409c44:	c3                   	retq   

0000000000409c45 <_ZN6google8protobuf8internal18GenericTypeHandlerIN5caffe9BlobProtoEE3NewEPNS0_5ArenaE>:
  409c45:	55                   	push   %rbp
  409c46:	48 89 e5             	mov    %rsp,%rbp
  409c49:	41 55                	push   %r13
  409c4b:	41 54                	push   %r12
  409c4d:	53                   	push   %rbx
  409c4e:	48 83 ec 48          	sub    $0x48,%rsp
  409c52:	48 89 7d a8          	mov    %rdi,-0x58(%rbp)
  409c56:	48 8b 45 a8          	mov    -0x58(%rbp),%rax
  409c5a:	48 89 45 c0          	mov    %rax,-0x40(%rbp)
  409c5e:	48 8b 45 c0          	mov    -0x40(%rbp),%rax
  409c62:	48 89 45 c8          	mov    %rax,-0x38(%rbp)
  409c66:	48 83 7d c8 00       	cmpq   $0x0,-0x38(%rbp)
  409c6b:	75 1d                	jne    409c8a <_ZN6google8protobuf8internal18GenericTypeHandlerIN5caffe9BlobProtoEE3NewEPNS0_5ArenaE+0x45>
  409c6d:	bf 90 00 00 00       	mov    $0x90,%edi
  409c72:	e8 39 b1 ff ff       	callq  404db0 <_Znwm@plt>
  409c77:	48 89 c3             	mov    %rax,%rbx
  409c7a:	48 89 df             	mov    %rbx,%rdi
  409c7d:	e8 4e b3 ff ff       	callq  404fd0 <_ZN5caffe9BlobProtoC1Ev@plt>
  409c82:	48 89 d8             	mov    %rbx,%rax
  409c85:	e9 a6 00 00 00       	jmpq   409d30 <_ZN6google8protobuf8internal18GenericTypeHandlerIN5caffe9BlobProtoEE3NewEPNS0_5ArenaE+0xeb>
  409c8a:	48 8b 45 c8          	mov    -0x38(%rbp),%rax
  409c8e:	48 89 45 d0          	mov    %rax,-0x30(%rbp)
  409c92:	c6 45 bf 00          	movb   $0x0,-0x41(%rbp)
  409c96:	48 8b 45 d0          	mov    -0x30(%rbp),%rax
  409c9a:	ba 90 00 00 00       	mov    $0x90,%edx
  409c9f:	be d0 33 61 00       	mov    $0x6133d0,%esi
  409ca4:	48 89 c7             	mov    %rax,%rdi
  409ca7:	e8 a4 b3 ff ff       	callq  405050 <_ZN6google8protobuf5Arena15AllocateAlignedEPKSt9type_infom@plt>
  409cac:	49 89 c4             	mov    %rax,%r12
  409caf:	4c 89 e6             	mov    %r12,%rsi
  409cb2:	bf 90 00 00 00       	mov    $0x90,%edi
  409cb7:	e8 00 b8 ff ff       	callq  4054bc <_ZnwmPv>
  409cbc:	48 89 c3             	mov    %rax,%rbx
  409cbf:	48 85 db             	test   %rbx,%rbx
  409cc2:	74 0d                	je     409cd1 <_ZN6google8protobuf8internal18GenericTypeHandlerIN5caffe9BlobProtoEE3NewEPNS0_5ArenaE+0x8c>
  409cc4:	48 89 df             	mov    %rbx,%rdi
  409cc7:	e8 04 b3 ff ff       	callq  404fd0 <_ZN5caffe9BlobProtoC1Ev@plt>
  409ccc:	48 89 d8             	mov    %rbx,%rax
  409ccf:	eb 03                	jmp    409cd4 <_ZN6google8protobuf8internal18GenericTypeHandlerIN5caffe9BlobProtoEE3NewEPNS0_5ArenaE+0x8f>
  409cd1:	48 89 d8             	mov    %rbx,%rax
  409cd4:	48 89 45 d8          	mov    %rax,-0x28(%rbp)
  409cd8:	0f b6 45 bf          	movzbl -0x41(%rbp),%eax
  409cdc:	83 f0 01             	xor    $0x1,%eax
  409cdf:	84 c0                	test   %al,%al
  409ce1:	74 18                	je     409cfb <_ZN6google8protobuf8internal18GenericTypeHandlerIN5caffe9BlobProtoEE3NewEPNS0_5ArenaE+0xb6>
  409ce3:	48 8b 4d d8          	mov    -0x28(%rbp),%rcx
  409ce7:	48 8b 45 d0          	mov    -0x30(%rbp),%rax
  409ceb:	ba 8d c2 40 00       	mov    $0x40c28d,%edx
  409cf0:	48 89 ce             	mov    %rcx,%rsi
  409cf3:	48 89 c7             	mov    %rax,%rdi
  409cf6:	e8 75 b1 ff ff       	callq  404e70 <_ZN6google8protobuf5Arena11AddListNodeEPvPFvS2_E@plt>
  409cfb:	48 8b 45 d8          	mov    -0x28(%rbp),%rax
  409cff:	eb 2f                	jmp    409d30 <_ZN6google8protobuf8internal18GenericTypeHandlerIN5caffe9BlobProtoEE3NewEPNS0_5ArenaE+0xeb>
  409d01:	49 89 c5             	mov    %rax,%r13
  409d04:	4c 89 e6             	mov    %r12,%rsi
  409d07:	48 89 df             	mov    %rbx,%rdi
  409d0a:	e8 bf b7 ff ff       	callq  4054ce <_ZdlPvS_>
  409d0f:	4c 89 e8             	mov    %r13,%rax
  409d12:	48 89 c7             	mov    %rax,%rdi
  409d15:	e8 96 b2 ff ff       	callq  404fb0 <_Unwind_Resume@plt>
  409d1a:	49 89 c4             	mov    %rax,%r12
  409d1d:	48 89 df             	mov    %rbx,%rdi
  409d20:	e8 fb b1 ff ff       	callq  404f20 <_ZdlPv@plt>
  409d25:	4c 89 e0             	mov    %r12,%rax
  409d28:	48 89 c7             	mov    %rax,%rdi
  409d2b:	e8 80 b2 ff ff       	callq  404fb0 <_Unwind_Resume@plt>
  409d30:	48 83 c4 48          	add    $0x48,%rsp
  409d34:	5b                   	pop    %rbx
  409d35:	41 5c                	pop    %r12
  409d37:	41 5d                	pop    %r13
  409d39:	5d                   	pop    %rbp
  409d3a:	c3                   	retq   
  409d3b:	90                   	nop

0000000000409d3c <_ZNSaIPN5caffe4BlobIfEEEC1Ev>:
  409d3c:	55                   	push   %rbp
  409d3d:	48 89 e5             	mov    %rsp,%rbp
  409d40:	48 83 ec 10          	sub    $0x10,%rsp
  409d44:	48 89 7d f8          	mov    %rdi,-0x8(%rbp)
  409d48:	48 8b 45 f8          	mov    -0x8(%rbp),%rax
  409d4c:	48 89 c7             	mov    %rax,%rdi
  409d4f:	e8 8c 0b 00 00       	callq  40a8e0 <_ZN9__gnu_cxx13new_allocatorIPN5caffe4BlobIfEEEC1Ev>
  409d54:	90                   	nop
  409d55:	c9                   	leaveq 
  409d56:	c3                   	retq   
  409d57:	90                   	nop

0000000000409d58 <_ZN9__gnu_cxx13new_allocatorIPN5caffe4BlobIfEEED1Ev>:
  409d58:	55                   	push   %rbp
  409d59:	48 89 e5             	mov    %rsp,%rbp
  409d5c:	48 89 7d f8          	mov    %rdi,-0x8(%rbp)
  409d60:	90                   	nop
  409d61:	5d                   	pop    %rbp
  409d62:	c3                   	retq   

0000000000409d63 <_ZNSt16allocator_traitsISaIPN5caffe4BlobIfEEEE10deallocateERS4_PS3_m>:
  409d63:	55                   	push   %rbp
  409d64:	48 89 e5             	mov    %rsp,%rbp
  409d67:	48 83 ec 20          	sub    $0x20,%rsp
  409d6b:	48 89 7d f8          	mov    %rdi,-0x8(%rbp)
  409d6f:	48 89 75 f0          	mov    %rsi,-0x10(%rbp)
  409d73:	48 89 55 e8          	mov    %rdx,-0x18(%rbp)
  409d77:	48 8b 55 e8          	mov    -0x18(%rbp),%rdx
  409d7b:	48 8b 4d f0          	mov    -0x10(%rbp),%rcx
  409d7f:	48 8b 45 f8          	mov    -0x8(%rbp),%rax
  409d83:	48 89 ce             	mov    %rcx,%rsi
  409d86:	48 89 c7             	mov    %rax,%rdi
  409d89:	e8 5e 0b 00 00       	callq  40a8ec <_ZN9__gnu_cxx13new_allocatorIPN5caffe4BlobIfEEE10deallocateEPS4_m>
  409d8e:	90                   	nop
  409d8f:	c9                   	leaveq 
  409d90:	c3                   	retq   

0000000000409d91 <_ZNSt12_Destroy_auxILb1EE9__destroyIPPN5caffe4BlobIfEEEEvT_S7_>:
  409d91:	55                   	push   %rbp
  409d92:	48 89 e5             	mov    %rsp,%rbp
  409d95:	48 89 7d f8          	mov    %rdi,-0x8(%rbp)
  409d99:	48 89 75 f0          	mov    %rsi,-0x10(%rbp)
  409d9d:	90                   	nop
  409d9e:	5d                   	pop    %rbp
  409d9f:	c3                   	retq   

0000000000409da0 <_ZNKSt6vectorIPN5caffe4BlobIfEESaIS3_EE8max_sizeEv>:
  409da0:	55                   	push   %rbp
  409da1:	48 89 e5             	mov    %rsp,%rbp
  409da4:	48 83 ec 10          	sub    $0x10,%rsp
  409da8:	48 89 7d f8          	mov    %rdi,-0x8(%rbp)
  409dac:	48 8b 45 f8          	mov    -0x8(%rbp),%rax
  409db0:	48 89 c7             	mov    %rax,%rdi
  409db3:	e8 72 0b 00 00       	callq  40a92a <_ZNKSt12_Vector_baseIPN5caffe4BlobIfEESaIS3_EE19_M_get_Tp_allocatorEv>
  409db8:	48 89 c7             	mov    %rax,%rdi
  409dbb:	e8 4f 0b 00 00       	callq  40a90f <_ZNSt16allocator_traitsISaIPN5caffe4BlobIfEEEE8max_sizeERKS4_>
  409dc0:	c9                   	leaveq 
  409dc1:	c3                   	retq   

0000000000409dc2 <_ZSt3maxImERKT_S2_S2_>:
  409dc2:	55                   	push   %rbp
  409dc3:	48 89 e5             	mov    %rsp,%rbp
  409dc6:	48 89 7d f8          	mov    %rdi,-0x8(%rbp)
  409dca:	48 89 75 f0          	mov    %rsi,-0x10(%rbp)
  409dce:	48 8b 45 f8          	mov    -0x8(%rbp),%rax
  409dd2:	48 8b 10             	mov    (%rax),%rdx
  409dd5:	48 8b 45 f0          	mov    -0x10(%rbp),%rax
  409dd9:	48 8b 00             	mov    (%rax),%rax
  409ddc:	48 39 c2             	cmp    %rax,%rdx
  409ddf:	73 06                	jae    409de7 <_ZSt3maxImERKT_S2_S2_+0x25>
  409de1:	48 8b 45 f0          	mov    -0x10(%rbp),%rax
  409de5:	eb 04                	jmp    409deb <_ZSt3maxImERKT_S2_S2_+0x29>
  409de7:	48 8b 45 f8          	mov    -0x8(%rbp),%rax
  409deb:	5d                   	pop    %rbp
  409dec:	c3                   	retq   

0000000000409ded <_ZNSt16allocator_traitsISaIPN5caffe4BlobIfEEEE8allocateERS4_m>:
  409ded:	55                   	push   %rbp
  409dee:	48 89 e5             	mov    %rsp,%rbp
  409df1:	48 83 ec 10          	sub    $0x10,%rsp
  409df5:	48 89 7d f8          	mov    %rdi,-0x8(%rbp)
  409df9:	48 89 75 f0          	mov    %rsi,-0x10(%rbp)
  409dfd:	48 8b 4d f0          	mov    -0x10(%rbp),%rcx
  409e01:	48 8b 45 f8          	mov    -0x8(%rbp),%rax
  409e05:	ba 00 00 00 00       	mov    $0x0,%edx
  409e0a:	48 89 ce             	mov    %rcx,%rsi
  409e0d:	48 89 c7             	mov    %rax,%rdi
  409e10:	e8 23 0b 00 00       	callq  40a938 <_ZN9__gnu_cxx13new_allocatorIPN5caffe4BlobIfEEE8allocateEmPKv>
  409e15:	c9                   	leaveq 
  409e16:	c3                   	retq   

0000000000409e17 <_ZSt32__make_move_if_noexcept_iteratorIPN5caffe4BlobIfEESt13move_iteratorIPS3_EET0_PT_>:
  409e17:	55                   	push   %rbp
  409e18:	48 89 e5             	mov    %rsp,%rbp
  409e1b:	48 83 ec 20          	sub    $0x20,%rsp
  409e1f:	48 89 7d e8          	mov    %rdi,-0x18(%rbp)
  409e23:	64 48 8b 04 25 28 00 	mov    %fs:0x28,%rax
  409e2a:	00 00 
  409e2c:	48 89 45 f8          	mov    %rax,-0x8(%rbp)
  409e30:	31 c0                	xor    %eax,%eax
  409e32:	48 8b 55 e8          	mov    -0x18(%rbp),%rdx
  409e36:	48 8d 45 f0          	lea    -0x10(%rbp),%rax
  409e3a:	48 89 d6             	mov    %rdx,%rsi
  409e3d:	48 89 c7             	mov    %rax,%rdi
  409e40:	e8 35 0b 00 00       	callq  40a97a <_ZNSt13move_iteratorIPPN5caffe4BlobIfEEEC1ES4_>
  409e45:	48 8b 45 f0          	mov    -0x10(%rbp),%rax
  409e49:	48 8b 4d f8          	mov    -0x8(%rbp),%rcx
  409e4d:	64 48 33 0c 25 28 00 	xor    %fs:0x28,%rcx
  409e54:	00 00 
  409e56:	74 05                	je     409e5d <_ZSt32__make_move_if_noexcept_iteratorIPN5caffe4BlobIfEESt13move_iteratorIPS3_EET0_PT_+0x46>
  409e58:	e8 c3 af ff ff       	callq  404e20 <__stack_chk_fail@plt>
  409e5d:	c9                   	leaveq 
  409e5e:	c3                   	retq   

0000000000409e5f <_ZSt22__uninitialized_copy_aISt13move_iteratorIPPN5caffe4BlobIfEEES5_S4_ET0_T_S8_S7_RSaIT1_E>:
  409e5f:	55                   	push   %rbp
  409e60:	48 89 e5             	mov    %rsp,%rbp
  409e63:	48 83 ec 20          	sub    $0x20,%rsp
  409e67:	48 89 7d f8          	mov    %rdi,-0x8(%rbp)
  409e6b:	48 89 75 f0          	mov    %rsi,-0x10(%rbp)
  409e6f:	48 89 55 e8          	mov    %rdx,-0x18(%rbp)
  409e73:	48 89 4d e0          	mov    %rcx,-0x20(%rbp)
  409e77:	48 8b 55 e8          	mov    -0x18(%rbp),%rdx
  409e7b:	48 8b 4d f0          	mov    -0x10(%rbp),%rcx
  409e7f:	48 8b 45 f8          	mov    -0x8(%rbp),%rax
  409e83:	48 89 ce             	mov    %rcx,%rsi
  409e86:	48 89 c7             	mov    %rax,%rdi
  409e89:	e8 06 0b 00 00       	callq  40a994 <_ZSt18uninitialized_copyISt13move_iteratorIPPN5caffe4BlobIfEEES5_ET0_T_S8_S7_>
  409e8e:	c9                   	leaveq 
  409e8f:	c3                   	retq   

0000000000409e90 <_ZN9__gnu_cxx13new_allocatorIPN5caffe4BlobIfEEE7destroyIS4_EEvPT_>:
  409e90:	55                   	push   %rbp
  409e91:	48 89 e5             	mov    %rsp,%rbp
  409e94:	48 89 7d f8          	mov    %rdi,-0x8(%rbp)
  409e98:	48 89 75 f0          	mov    %rsi,-0x10(%rbp)
  409e9c:	90                   	nop
  409e9d:	5d                   	pop    %rbp
  409e9e:	c3                   	retq   
  409e9f:	90                   	nop

0000000000409ea0 <_ZNSt12_Vector_baseIiSaIiEE12_Vector_implC1Ev>:
  409ea0:	55                   	push   %rbp
  409ea1:	48 89 e5             	mov    %rsp,%rbp
  409ea4:	48 83 ec 10          	sub    $0x10,%rsp
  409ea8:	48 89 7d f8          	mov    %rdi,-0x8(%rbp)
  409eac:	48 8b 45 f8          	mov    -0x8(%rbp),%rax
  409eb0:	48 89 c7             	mov    %rax,%rdi
  409eb3:	e8 0e 0b 00 00       	callq  40a9c6 <_ZNSaIiEC1Ev>
  409eb8:	48 8b 45 f8          	mov    -0x8(%rbp),%rax
  409ebc:	48 c7 00 00 00 00 00 	movq   $0x0,(%rax)
  409ec3:	48 8b 45 f8          	mov    -0x8(%rbp),%rax
  409ec7:	48 c7 40 08 00 00 00 	movq   $0x0,0x8(%rax)
  409ece:	00 
  409ecf:	48 8b 45 f8          	mov    -0x8(%rbp),%rax
  409ed3:	48 c7 40 10 00 00 00 	movq   $0x0,0x10(%rax)
  409eda:	00 
  409edb:	90                   	nop
  409edc:	c9                   	leaveq 
  409edd:	c3                   	retq   

0000000000409ede <_ZNSt6vectorIN5boost10shared_ptrIN5caffe4BlobIfEEEESaIS5_EEC1Ev>:
  409ede:	55                   	push   %rbp
  409edf:	48 89 e5             	mov    %rsp,%rbp
  409ee2:	48 83 ec 10          	sub    $0x10,%rsp
  409ee6:	48 89 7d f8          	mov    %rdi,-0x8(%rbp)
  409eea:	48 8b 45 f8          	mov    -0x8(%rbp),%rax
  409eee:	48 89 c7             	mov    %rax,%rdi
  409ef1:	e8 ec 0a 00 00       	callq  40a9e2 <_ZNSt12_Vector_baseIN5boost10shared_ptrIN5caffe4BlobIfEEEESaIS5_EEC1Ev>
  409ef6:	90                   	nop
  409ef7:	c9                   	leaveq 
  409ef8:	c3                   	retq   
  409ef9:	90                   	nop

0000000000409efa <_ZNSt6vectorIbSaIbEEC1Ev>:
  409efa:	55                   	push   %rbp
  409efb:	48 89 e5             	mov    %rsp,%rbp
  409efe:	48 83 ec 10          	sub    $0x10,%rsp
  409f02:	48 89 7d f8          	mov    %rdi,-0x8(%rbp)
  409f06:	48 8b 45 f8          	mov    -0x8(%rbp),%rax
  409f0a:	48 89 c7             	mov    %rax,%rdi
  409f0d:	e8 ec 0a 00 00       	callq  40a9fe <_ZNSt13_Bvector_baseISaIbEEC1Ev>
  409f12:	90                   	nop
  409f13:	c9                   	leaveq 
  409f14:	c3                   	retq   
  409f15:	90                   	nop

0000000000409f16 <_ZNSt6vectorIfSaIfEEC1Ev>:
  409f16:	55                   	push   %rbp
  409f17:	48 89 e5             	mov    %rsp,%rbp
  409f1a:	48 83 ec 10          	sub    $0x10,%rsp
  409f1e:	48 89 7d f8          	mov    %rdi,-0x8(%rbp)
  409f22:	48 8b 45 f8          	mov    -0x8(%rbp),%rax
  409f26:	48 89 c7             	mov    %rax,%rdi
  409f29:	e8 ec 0a 00 00       	callq  40aa1a <_ZNSt12_Vector_baseIfSaIfEEC1Ev>
  409f2e:	90                   	nop
  409f2f:	c9                   	leaveq 
  409f30:	c3                   	retq   
  409f31:	90                   	nop

0000000000409f32 <_ZNSt6vectorIN5boost10shared_ptrIN5caffe4BlobIfEEEESaIS5_EE6resizeEm>:
  409f32:	55                   	push   %rbp
  409f33:	48 89 e5             	mov    %rsp,%rbp
  409f36:	48 83 ec 10          	sub    $0x10,%rsp
  409f3a:	48 89 7d f8          	mov    %rdi,-0x8(%rbp)
  409f3e:	48 89 75 f0          	mov    %rsi,-0x10(%rbp)
  409f42:	48 8b 45 f8          	mov    -0x8(%rbp),%rax
  409f46:	48 89 c7             	mov    %rax,%rdi
  409f49:	e8 e8 0a 00 00       	callq  40aa36 <_ZNKSt6vectorIN5boost10shared_ptrIN5caffe4BlobIfEEEESaIS5_EE4sizeEv>
  409f4e:	48 3b 45 f0          	cmp    -0x10(%rbp),%rax
  409f52:	0f 92 c0             	setb   %al
  409f55:	84 c0                	test   %al,%al
  409f57:	74 2a                	je     409f83 <_ZNSt6vectorIN5boost10shared_ptrIN5caffe4BlobIfEEEESaIS5_EE6resizeEm+0x51>
  409f59:	48 8b 45 f8          	mov    -0x8(%rbp),%rax
  409f5d:	48 89 c7             	mov    %rax,%rdi
  409f60:	e8 d1 0a 00 00       	callq  40aa36 <_ZNKSt6vectorIN5boost10shared_ptrIN5caffe4BlobIfEEEESaIS5_EE4sizeEv>
  409f65:	48 89 c2             	mov    %rax,%rdx
  409f68:	48 8b 45 f0          	mov    -0x10(%rbp),%rax
  409f6c:	48 29 d0             	sub    %rdx,%rax
  409f6f:	48 89 c2             	mov    %rax,%rdx
  409f72:	48 8b 45 f8          	mov    -0x8(%rbp),%rax
  409f76:	48 89 d6             	mov    %rdx,%rsi
  409f79:	48 89 c7             	mov    %rax,%rdi
  409f7c:	e8 db 0a 00 00       	callq  40aa5c <_ZNSt6vectorIN5boost10shared_ptrIN5caffe4BlobIfEEEESaIS5_EE17_M_default_appendEm>
  409f81:	eb 38                	jmp    409fbb <_ZNSt6vectorIN5boost10shared_ptrIN5caffe4BlobIfEEEESaIS5_EE6resizeEm+0x89>
  409f83:	48 8b 45 f8          	mov    -0x8(%rbp),%rax
  409f87:	48 89 c7             	mov    %rax,%rdi
  409f8a:	e8 a7 0a 00 00       	callq  40aa36 <_ZNKSt6vectorIN5boost10shared_ptrIN5caffe4BlobIfEEEESaIS5_EE4sizeEv>
  409f8f:	48 3b 45 f0          	cmp    -0x10(%rbp),%rax
  409f93:	0f 97 c0             	seta   %al
  409f96:	84 c0                	test   %al,%al
  409f98:	74 21                	je     409fbb <_ZNSt6vectorIN5boost10shared_ptrIN5caffe4BlobIfEEEESaIS5_EE6resizeEm+0x89>
  409f9a:	48 8b 45 f8          	mov    -0x8(%rbp),%rax
  409f9e:	48 8b 00             	mov    (%rax),%rax
  409fa1:	48 8b 55 f0          	mov    -0x10(%rbp),%rdx
  409fa5:	48 c1 e2 04          	shl    $0x4,%rdx
  409fa9:	48 01 c2             	add    %rax,%rdx
  409fac:	48 8b 45 f8          	mov    -0x8(%rbp),%rax
  409fb0:	48 89 d6             	mov    %rdx,%rsi
  409fb3:	48 89 c7             	mov    %rax,%rdi
  409fb6:	e8 a7 0c 00 00       	callq  40ac62 <_ZNSt6vectorIN5boost10shared_ptrIN5caffe4BlobIfEEEESaIS5_EE15_M_erase_at_endEPS5_>
  409fbb:	90                   	nop
  409fbc:	c9                   	leaveq 
  409fbd:	c3                   	retq   

0000000000409fbe <_ZNSt6vectorIN5boost10shared_ptrIN5caffe4BlobIfEEEESaIS5_EEixEm>:
  409fbe:	55                   	push   %rbp
  409fbf:	48 89 e5             	mov    %rsp,%rbp
  409fc2:	48 89 7d f8          	mov    %rdi,-0x8(%rbp)
  409fc6:	48 89 75 f0          	mov    %rsi,-0x10(%rbp)
  409fca:	48 8b 45 f8          	mov    -0x8(%rbp),%rax
  409fce:	48 8b 00             	mov    (%rax),%rax
  409fd1:	48 8b 55 f0          	mov    -0x10(%rbp),%rdx
  409fd5:	48 c1 e2 04          	shl    $0x4,%rdx
  409fd9:	48 01 d0             	add    %rdx,%rax
  409fdc:	5d                   	pop    %rbp
  409fdd:	c3                   	retq   

0000000000409fde <_ZN5boost10shared_ptrIN5caffe4BlobIfEEED1Ev>:
  409fde:	55                   	push   %rbp
  409fdf:	48 89 e5             	mov    %rsp,%rbp
  409fe2:	48 83 ec 10          	sub    $0x10,%rsp
  409fe6:	48 89 7d f8          	mov    %rdi,-0x8(%rbp)
  409fea:	48 8b 45 f8          	mov    -0x8(%rbp),%rax
  409fee:	48 83 c0 08          	add    $0x8,%rax
  409ff2:	48 89 c7             	mov    %rax,%rdi
  409ff5:	e8 b8 b6 ff ff       	callq  4056b2 <_ZN5boost6detail12shared_countD1Ev>
  409ffa:	90                   	nop
  409ffb:	c9                   	leaveq 
  409ffc:	c3                   	retq   
  409ffd:	90                   	nop

0000000000409ffe <_ZN5boost10shared_ptrIN5caffe4BlobIfEEE5resetIS3_EEvPT_>:
  409ffe:	55                   	push   %rbp
  409fff:	48 89 e5             	mov    %rsp,%rbp
  40a002:	48 83 ec 30          	sub    $0x30,%rsp
  40a006:	48 89 7d d8          	mov    %rdi,-0x28(%rbp)
  40a00a:	48 89 75 d0          	mov    %rsi,-0x30(%rbp)
  40a00e:	64 48 8b 04 25 28 00 	mov    %fs:0x28,%rax
  40a015:	00 00 
  40a017:	48 89 45 f8          	mov    %rax,-0x8(%rbp)
  40a01b:	31 c0                	xor    %eax,%eax
  40a01d:	48 83 7d d0 00       	cmpq   $0x0,-0x30(%rbp)
  40a022:	74 26                	je     40a04a <_ZN5boost10shared_ptrIN5caffe4BlobIfEEE5resetIS3_EEvPT_+0x4c>
  40a024:	48 8b 45 d8          	mov    -0x28(%rbp),%rax
  40a028:	48 8b 00             	mov    (%rax),%rax
  40a02b:	48 3b 45 d0          	cmp    -0x30(%rbp),%rax
  40a02f:	75 19                	jne    40a04a <_ZN5boost10shared_ptrIN5caffe4BlobIfEEE5resetIS3_EEvPT_+0x4c>
  40a031:	b9 60 db 40 00       	mov    $0x40db60,%ecx
  40a036:	ba 6b 02 00 00       	mov    $0x26b,%edx
  40a03b:	be e8 d5 40 00       	mov    $0x40d5e8,%esi
  40a040:	bf b5 d9 40 00       	mov    $0x40d9b5,%edi
  40a045:	e8 86 ad ff ff       	callq  404dd0 <__assert_fail@plt>
  40a04a:	48 8b 55 d0          	mov    -0x30(%rbp),%rdx
  40a04e:	48 8d 45 e0          	lea    -0x20(%rbp),%rax
  40a052:	48 89 d6             	mov    %rdx,%rsi
  40a055:	48 89 c7             	mov    %rax,%rdi
  40a058:	e8 4b 0c 00 00       	callq  40aca8 <_ZN5boost10shared_ptrIN5caffe4BlobIfEEEC1IS3_EEPT_>
  40a05d:	48 8b 55 d8          	mov    -0x28(%rbp),%rdx
  40a061:	48 8d 45 e0          	lea    -0x20(%rbp),%rax
  40a065:	48 89 d6             	mov    %rdx,%rsi
  40a068:	48 89 c7             	mov    %rax,%rdi
  40a06b:	e8 a6 0c 00 00       	callq  40ad16 <_ZN5boost10shared_ptrIN5caffe4BlobIfEEE4swapERS4_>
  40a070:	48 8d 45 e0          	lea    -0x20(%rbp),%rax
  40a074:	48 89 c7             	mov    %rax,%rdi
  40a077:	e8 62 ff ff ff       	callq  409fde <_ZN5boost10shared_ptrIN5caffe4BlobIfEEED1Ev>
  40a07c:	90                   	nop
  40a07d:	48 8b 45 f8          	mov    -0x8(%rbp),%rax
  40a081:	64 48 33 04 25 28 00 	xor    %fs:0x28,%rax
  40a088:	00 00 
  40a08a:	74 05                	je     40a091 <_ZN5boost10shared_ptrIN5caffe4BlobIfEEE5resetIS3_EEvPT_+0x93>
  40a08c:	e8 8f ad ff ff       	callq  404e20 <__stack_chk_fail@plt>
  40a091:	c9                   	leaveq 
  40a092:	c3                   	retq   
  40a093:	90                   	nop

000000000040a094 <_ZNK5boost10shared_ptrIN5caffe4BlobIfEEEptEv>:
  40a094:	55                   	push   %rbp
  40a095:	48 89 e5             	mov    %rsp,%rbp
  40a098:	48 83 ec 10          	sub    $0x10,%rsp
  40a09c:	48 89 7d f8          	mov    %rdi,-0x8(%rbp)
  40a0a0:	48 8b 45 f8          	mov    -0x8(%rbp),%rax
  40a0a4:	48 8b 00             	mov    (%rax),%rax
  40a0a7:	48 85 c0             	test   %rax,%rax
  40a0aa:	75 19                	jne    40a0c5 <_ZNK5boost10shared_ptrIN5caffe4BlobIfEEEptEv+0x31>
  40a0ac:	b9 80 da 40 00       	mov    $0x40da80,%ecx
  40a0b1:	ba 88 02 00 00       	mov    $0x288,%edx
  40a0b6:	be e8 d5 40 00       	mov    $0x40d5e8,%esi
  40a0bb:	bf 14 d6 40 00       	mov    $0x40d614,%edi
  40a0c0:	e8 0b ad ff ff       	callq  404dd0 <__assert_fail@plt>
  40a0c5:	48 8b 45 f8          	mov    -0x8(%rbp),%rax
  40a0c9:	48 8b 00             	mov    (%rax),%rax
  40a0cc:	c9                   	leaveq 
  40a0cd:	c3                   	retq   

000000000040a0ce <_ZNSt12_Vector_baseIN5boost10shared_ptrIN5caffe4BlobIfEEEESaIS5_EE12_Vector_implD1Ev>:
  40a0ce:	55                   	push   %rbp
  40a0cf:	48 89 e5             	mov    %rsp,%rbp
  40a0d2:	48 83 ec 10          	sub    $0x10,%rsp
  40a0d6:	48 89 7d f8          	mov    %rdi,-0x8(%rbp)
  40a0da:	48 8b 45 f8          	mov    -0x8(%rbp),%rax
  40a0de:	48 89 c7             	mov    %rax,%rdi
  40a0e1:	e8 72 0c 00 00       	callq  40ad58 <_ZNSaIN5boost10shared_ptrIN5caffe4BlobIfEEEEED1Ev>
  40a0e6:	90                   	nop
  40a0e7:	c9                   	leaveq 
  40a0e8:	c3                   	retq   
  40a0e9:	90                   	nop

000000000040a0ea <_ZNSt12_Vector_baseIN5boost10shared_ptrIN5caffe4BlobIfEEEESaIS5_EED1Ev>:
  40a0ea:	55                   	push   %rbp
  40a0eb:	48 89 e5             	mov    %rsp,%rbp
  40a0ee:	48 83 ec 10          	sub    $0x10,%rsp
  40a0f2:	48 89 7d f8          	mov    %rdi,-0x8(%rbp)
  40a0f6:	48 8b 45 f8          	mov    -0x8(%rbp),%rax
  40a0fa:	48 8b 40 10          	mov    0x10(%rax),%rax
  40a0fe:	48 89 c2             	mov    %rax,%rdx
  40a101:	48 8b 45 f8          	mov    -0x8(%rbp),%rax
  40a105:	48 8b 00             	mov    (%rax),%rax
  40a108:	48 29 c2             	sub    %rax,%rdx
  40a10b:	48 89 d0             	mov    %rdx,%rax
  40a10e:	48 c1 f8 04          	sar    $0x4,%rax
  40a112:	48 89 c2             	mov    %rax,%rdx
  40a115:	48 8b 45 f8          	mov    -0x8(%rbp),%rax
  40a119:	48 8b 08             	mov    (%rax),%rcx
  40a11c:	48 8b 45 f8          	mov    -0x8(%rbp),%rax
  40a120:	48 89 ce             	mov    %rcx,%rsi
  40a123:	48 89 c7             	mov    %rax,%rdi
  40a126:	e8 49 0c 00 00       	callq  40ad74 <_ZNSt12_Vector_baseIN5boost10shared_ptrIN5caffe4BlobIfEEEESaIS5_EE13_M_deallocateEPS5_m>
  40a12b:	48 8b 45 f8          	mov    -0x8(%rbp),%rax
  40a12f:	48 89 c7             	mov    %rax,%rdi
  40a132:	e8 97 ff ff ff       	callq  40a0ce <_ZNSt12_Vector_baseIN5boost10shared_ptrIN5caffe4BlobIfEEEESaIS5_EE12_Vector_implD1Ev>
  40a137:	90                   	nop
  40a138:	c9                   	leaveq 
  40a139:	c3                   	retq   

000000000040a13a <_ZNSt12_Vector_baseIN5boost10shared_ptrIN5caffe4BlobIfEEEESaIS5_EE19_M_get_Tp_allocatorEv>:
  40a13a:	55                   	push   %rbp
  40a13b:	48 89 e5             	mov    %rsp,%rbp
  40a13e:	48 89 7d f8          	mov    %rdi,-0x8(%rbp)
  40a142:	48 8b 45 f8          	mov    -0x8(%rbp),%rax
  40a146:	5d                   	pop    %rbp
  40a147:	c3                   	retq   

000000000040a148 <_ZSt8_DestroyIPN5boost10shared_ptrIN5caffe4BlobIfEEEES5_EvT_S7_RSaIT0_E>:
  40a148:	55                   	push   %rbp
  40a149:	48 89 e5             	mov    %rsp,%rbp
  40a14c:	48 83 ec 20          	sub    $0x20,%rsp
  40a150:	48 89 7d f8          	mov    %rdi,-0x8(%rbp)
  40a154:	48 89 75 f0          	mov    %rsi,-0x10(%rbp)
  40a158:	48 89 55 e8          	mov    %rdx,-0x18(%rbp)
  40a15c:	48 8b 55 f0          	mov    -0x10(%rbp),%rdx
  40a160:	48 8b 45 f8          	mov    -0x8(%rbp),%rax
  40a164:	48 89 d6             	mov    %rdx,%rsi
  40a167:	48 89 c7             	mov    %rax,%rdi
  40a16a:	e8 3a 0c 00 00       	callq  40ada9 <_ZSt8_DestroyIPN5boost10shared_ptrIN5caffe4BlobIfEEEEEvT_S7_>
  40a16f:	90                   	nop
  40a170:	c9                   	leaveq 
  40a171:	c3                   	retq   

000000000040a172 <_ZNSt13_Bvector_baseISaIbEE13_Bvector_implD1Ev>:
  40a172:	55                   	push   %rbp
  40a173:	48 89 e5             	mov    %rsp,%rbp
  40a176:	48 83 ec 10          	sub    $0x10,%rsp
  40a17a:	48 89 7d f8          	mov    %rdi,-0x8(%rbp)
  40a17e:	48 8b 45 f8          	mov    -0x8(%rbp),%rax
  40a182:	48 89 c7             	mov    %rax,%rdi
  40a185:	e8 46 0c 00 00       	callq  40add0 <_ZNSaImED1Ev>
  40a18a:	90                   	nop
  40a18b:	c9                   	leaveq 
  40a18c:	c3                   	retq   
  40a18d:	90                   	nop

000000000040a18e <_ZNSt13_Bvector_baseISaIbEED1Ev>:
  40a18e:	55                   	push   %rbp
  40a18f:	48 89 e5             	mov    %rsp,%rbp
  40a192:	48 83 ec 10          	sub    $0x10,%rsp
  40a196:	48 89 7d f8          	mov    %rdi,-0x8(%rbp)
  40a19a:	48 8b 45 f8          	mov    -0x8(%rbp),%rax
  40a19e:	48 89 c7             	mov    %rax,%rdi
  40a1a1:	e8 46 0c 00 00       	callq  40adec <_ZNSt13_Bvector_baseISaIbEE13_M_deallocateEv>
  40a1a6:	48 8b 45 f8          	mov    -0x8(%rbp),%rax
  40a1aa:	48 89 c7             	mov    %rax,%rdi
  40a1ad:	e8 c0 ff ff ff       	callq  40a172 <_ZNSt13_Bvector_baseISaIbEE13_Bvector_implD1Ev>
  40a1b2:	90                   	nop
  40a1b3:	c9                   	leaveq 
  40a1b4:	c3                   	retq   
  40a1b5:	90                   	nop

000000000040a1b6 <_ZNSt12_Vector_baseIfSaIfEE12_Vector_implD1Ev>:
  40a1b6:	55                   	push   %rbp
  40a1b7:	48 89 e5             	mov    %rsp,%rbp
  40a1ba:	48 83 ec 10          	sub    $0x10,%rsp
  40a1be:	48 89 7d f8          	mov    %rdi,-0x8(%rbp)
  40a1c2:	48 8b 45 f8          	mov    -0x8(%rbp),%rax
  40a1c6:	48 89 c7             	mov    %rax,%rdi
  40a1c9:	e8 88 0c 00 00       	callq  40ae56 <_ZNSaIfED1Ev>
  40a1ce:	90                   	nop
  40a1cf:	c9                   	leaveq 
  40a1d0:	c3                   	retq   
  40a1d1:	90                   	nop

000000000040a1d2 <_ZNSt12_Vector_baseIfSaIfEED1Ev>:
  40a1d2:	55                   	push   %rbp
  40a1d3:	48 89 e5             	mov    %rsp,%rbp
  40a1d6:	48 83 ec 10          	sub    $0x10,%rsp
  40a1da:	48 89 7d f8          	mov    %rdi,-0x8(%rbp)
  40a1de:	48 8b 45 f8          	mov    -0x8(%rbp),%rax
  40a1e2:	48 8b 40 10          	mov    0x10(%rax),%rax
  40a1e6:	48 89 c2             	mov    %rax,%rdx
  40a1e9:	48 8b 45 f8          	mov    -0x8(%rbp),%rax
  40a1ed:	48 8b 00             	mov    (%rax),%rax
  40a1f0:	48 29 c2             	sub    %rax,%rdx
  40a1f3:	48 89 d0             	mov    %rdx,%rax
  40a1f6:	48 c1 f8 02          	sar    $0x2,%rax
  40a1fa:	48 89 c2             	mov    %rax,%rdx
  40a1fd:	48 8b 45 f8          	mov    -0x8(%rbp),%rax
  40a201:	48 8b 08             	mov    (%rax),%rcx
  40a204:	48 8b 45 f8          	mov    -0x8(%rbp),%rax
  40a208:	48 89 ce             	mov    %rcx,%rsi
  40a20b:	48 89 c7             	mov    %rax,%rdi
  40a20e:	e8 5f 0c 00 00       	callq  40ae72 <_ZNSt12_Vector_baseIfSaIfEE13_M_deallocateEPfm>
  40a213:	48 8b 45 f8          	mov    -0x8(%rbp),%rax
  40a217:	48 89 c7             	mov    %rax,%rdi
  40a21a:	e8 97 ff ff ff       	callq  40a1b6 <_ZNSt12_Vector_baseIfSaIfEE12_Vector_implD1Ev>
  40a21f:	90                   	nop
  40a220:	c9                   	leaveq 
  40a221:	c3                   	retq   

000000000040a222 <_ZNSt12_Vector_baseIfSaIfEE19_M_get_Tp_allocatorEv>:
  40a222:	55                   	push   %rbp
  40a223:	48 89 e5             	mov    %rsp,%rbp
  40a226:	48 89 7d f8          	mov    %rdi,-0x8(%rbp)
  40a22a:	48 8b 45 f8          	mov    -0x8(%rbp),%rax
  40a22e:	5d                   	pop    %rbp
  40a22f:	c3                   	retq   

000000000040a230 <_ZSt8_DestroyIPffEvT_S1_RSaIT0_E>:
  40a230:	55                   	push   %rbp
  40a231:	48 89 e5             	mov    %rsp,%rbp
  40a234:	48 83 ec 20          	sub    $0x20,%rsp
  40a238:	48 89 7d f8          	mov    %rdi,-0x8(%rbp)
  40a23c:	48 89 75 f0          	mov    %rsi,-0x10(%rbp)
  40a240:	48 89 55 e8          	mov    %rdx,-0x18(%rbp)
  40a244:	48 8b 55 f0          	mov    -0x10(%rbp),%rdx
  40a248:	48 8b 45 f8          	mov    -0x8(%rbp),%rax
  40a24c:	48 89 d6             	mov    %rdx,%rsi
  40a24f:	48 89 c7             	mov    %rax,%rdi
  40a252:	e8 50 0c 00 00       	callq  40aea7 <_ZSt8_DestroyIPfEvT_S1_>
  40a257:	90                   	nop
  40a258:	c9                   	leaveq 
  40a259:	c3                   	retq   

000000000040a25a <_ZN6google17MakeCheckOpStringIimEEPNSt7__cxx1112basic_stringIcSt11char_traitsIcESaIcEEERKT_RKT0_PKc>:
  40a25a:	55                   	push   %rbp
  40a25b:	48 89 e5             	mov    %rsp,%rbp
  40a25e:	53                   	push   %rbx
  40a25f:	48 83 ec 38          	sub    $0x38,%rsp
  40a263:	48 89 7d d8          	mov    %rdi,-0x28(%rbp)
  40a267:	48 89 75 d0          	mov    %rsi,-0x30(%rbp)
  40a26b:	48 89 55 c8          	mov    %rdx,-0x38(%rbp)
  40a26f:	64 48 8b 04 25 28 00 	mov    %fs:0x28,%rax
  40a276:	00 00 
  40a278:	48 89 45 e8          	mov    %rax,-0x18(%rbp)
  40a27c:	31 c0                	xor    %eax,%eax
  40a27e:	48 8b 55 c8          	mov    -0x38(%rbp),%rdx
  40a282:	48 8d 45 e0          	lea    -0x20(%rbp),%rax
  40a286:	48 89 d6             	mov    %rdx,%rsi
  40a289:	48 89 c7             	mov    %rax,%rdi
  40a28c:	e8 ff aa ff ff       	callq  404d90 <_ZN6google4base21CheckOpMessageBuilderC1EPKc@plt>
  40a291:	48 8d 45 e0          	lea    -0x20(%rbp),%rax
  40a295:	48 89 c7             	mov    %rax,%rdi
  40a298:	e8 ad b4 ff ff       	callq  40574a <_ZN6google4base21CheckOpMessageBuilder7ForVar1Ev>
  40a29d:	48 89 c2             	mov    %rax,%rdx
  40a2a0:	48 8b 45 d8          	mov    -0x28(%rbp),%rax
  40a2a4:	48 89 c6             	mov    %rax,%rsi
  40a2a7:	48 89 d7             	mov    %rdx,%rdi
  40a2aa:	e8 83 ee ff ff       	callq  409132 <_ZN6google22MakeCheckOpValueStringIiEEvPSoRKT_>
  40a2af:	48 8d 45 e0          	lea    -0x20(%rbp),%rax
  40a2b3:	48 89 c7             	mov    %rax,%rdi
  40a2b6:	e8 a5 aa ff ff       	callq  404d60 <_ZN6google4base21CheckOpMessageBuilder7ForVar2Ev@plt>
  40a2bb:	48 89 c2             	mov    %rax,%rdx
  40a2be:	48 8b 45 d0          	mov    -0x30(%rbp),%rax
  40a2c2:	48 89 c6             	mov    %rax,%rsi
  40a2c5:	48 89 d7             	mov    %rdx,%rdi
  40a2c8:	e8 00 0c 00 00       	callq  40aecd <_ZN6google22MakeCheckOpValueStringImEEvPSoRKT_>
  40a2cd:	48 8d 45 e0          	lea    -0x20(%rbp),%rax
  40a2d1:	48 89 c7             	mov    %rax,%rdi
  40a2d4:	e8 47 ae ff ff       	callq  405120 <_ZN6google4base21CheckOpMessageBuilder9NewStringB5cxx11Ev@plt>
  40a2d9:	48 89 c3             	mov    %rax,%rbx
  40a2dc:	48 8d 45 e0          	lea    -0x20(%rbp),%rax
  40a2e0:	48 89 c7             	mov    %rax,%rdi
  40a2e3:	e8 68 ab ff ff       	callq  404e50 <_ZN6google4base21CheckOpMessageBuilderD1Ev@plt>
  40a2e8:	48 89 d8             	mov    %rbx,%rax
  40a2eb:	48 8b 4d e8          	mov    -0x18(%rbp),%rcx
  40a2ef:	64 48 33 0c 25 28 00 	xor    %fs:0x28,%rcx
  40a2f6:	00 00 
  40a2f8:	74 21                	je     40a31b <_ZN6google17MakeCheckOpStringIimEEPNSt7__cxx1112basic_stringIcSt11char_traitsIcESaIcEEERKT_RKT0_PKc+0xc1>
  40a2fa:	eb 1a                	jmp    40a316 <_ZN6google17MakeCheckOpStringIimEEPNSt7__cxx1112basic_stringIcSt11char_traitsIcESaIcEEERKT_RKT0_PKc+0xbc>
  40a2fc:	48 89 c3             	mov    %rax,%rbx
  40a2ff:	48 8d 45 e0          	lea    -0x20(%rbp),%rax
  40a303:	48 89 c7             	mov    %rax,%rdi
  40a306:	e8 45 ab ff ff       	callq  404e50 <_ZN6google4base21CheckOpMessageBuilderD1Ev@plt>
  40a30b:	48 89 d8             	mov    %rbx,%rax
  40a30e:	48 89 c7             	mov    %rax,%rdi
  40a311:	e8 9a ac ff ff       	callq  404fb0 <_Unwind_Resume@plt>
  40a316:	e8 05 ab ff ff       	callq  404e20 <__stack_chk_fail@plt>
  40a31b:	48 83 c4 38          	add    $0x38,%rsp
  40a31f:	5b                   	pop    %rbx
  40a320:	5d                   	pop    %rbp
  40a321:	c3                   	retq   

000000000040a322 <_ZN6google17MakeCheckOpStringImmEEPNSt7__cxx1112basic_stringIcSt11char_traitsIcESaIcEEERKT_RKT0_PKc>:
  40a322:	55                   	push   %rbp
  40a323:	48 89 e5             	mov    %rsp,%rbp
  40a326:	53                   	push   %rbx
  40a327:	48 83 ec 38          	sub    $0x38,%rsp
  40a32b:	48 89 7d d8          	mov    %rdi,-0x28(%rbp)
  40a32f:	48 89 75 d0          	mov    %rsi,-0x30(%rbp)
  40a333:	48 89 55 c8          	mov    %rdx,-0x38(%rbp)
  40a337:	64 48 8b 04 25 28 00 	mov    %fs:0x28,%rax
  40a33e:	00 00 
  40a340:	48 89 45 e8          	mov    %rax,-0x18(%rbp)
  40a344:	31 c0                	xor    %eax,%eax
  40a346:	48 8b 55 c8          	mov    -0x38(%rbp),%rdx
  40a34a:	48 8d 45 e0          	lea    -0x20(%rbp),%rax
  40a34e:	48 89 d6             	mov    %rdx,%rsi
  40a351:	48 89 c7             	mov    %rax,%rdi
  40a354:	e8 37 aa ff ff       	callq  404d90 <_ZN6google4base21CheckOpMessageBuilderC1EPKc@plt>
  40a359:	48 8d 45 e0          	lea    -0x20(%rbp),%rax
  40a35d:	48 89 c7             	mov    %rax,%rdi
  40a360:	e8 e5 b3 ff ff       	callq  40574a <_ZN6google4base21CheckOpMessageBuilder7ForVar1Ev>
  40a365:	48 89 c2             	mov    %rax,%rdx
  40a368:	48 8b 45 d8          	mov    -0x28(%rbp),%rax
  40a36c:	48 89 c6             	mov    %rax,%rsi
  40a36f:	48 89 d7             	mov    %rdx,%rdi
  40a372:	e8 56 0b 00 00       	callq  40aecd <_ZN6google22MakeCheckOpValueStringImEEvPSoRKT_>
  40a377:	48 8d 45 e0          	lea    -0x20(%rbp),%rax
  40a37b:	48 89 c7             	mov    %rax,%rdi
  40a37e:	e8 dd a9 ff ff       	callq  404d60 <_ZN6google4base21CheckOpMessageBuilder7ForVar2Ev@plt>
  40a383:	48 89 c2             	mov    %rax,%rdx
  40a386:	48 8b 45 d0          	mov    -0x30(%rbp),%rax
  40a38a:	48 89 c6             	mov    %rax,%rsi
  40a38d:	48 89 d7             	mov    %rdx,%rdi
  40a390:	e8 38 0b 00 00       	callq  40aecd <_ZN6google22MakeCheckOpValueStringImEEvPSoRKT_>
  40a395:	48 8d 45 e0          	lea    -0x20(%rbp),%rax
  40a399:	48 89 c7             	mov    %rax,%rdi
  40a39c:	e8 7f ad ff ff       	callq  405120 <_ZN6google4base21CheckOpMessageBuilder9NewStringB5cxx11Ev@plt>
  40a3a1:	48 89 c3             	mov    %rax,%rbx
  40a3a4:	48 8d 45 e0          	lea    -0x20(%rbp),%rax
  40a3a8:	48 89 c7             	mov    %rax,%rdi
  40a3ab:	e8 a0 aa ff ff       	callq  404e50 <_ZN6google4base21CheckOpMessageBuilderD1Ev@plt>
  40a3b0:	48 89 d8             	mov    %rbx,%rax
  40a3b3:	48 8b 4d e8          	mov    -0x18(%rbp),%rcx
  40a3b7:	64 48 33 0c 25 28 00 	xor    %fs:0x28,%rcx
  40a3be:	00 00 
  40a3c0:	74 21                	je     40a3e3 <_ZN6google17MakeCheckOpStringImmEEPNSt7__cxx1112basic_stringIcSt11char_traitsIcESaIcEEERKT_RKT0_PKc+0xc1>
  40a3c2:	eb 1a                	jmp    40a3de <_ZN6google17MakeCheckOpStringImmEEPNSt7__cxx1112basic_stringIcSt11char_traitsIcESaIcEEERKT_RKT0_PKc+0xbc>
  40a3c4:	48 89 c3             	mov    %rax,%rbx
  40a3c7:	48 8d 45 e0          	lea    -0x20(%rbp),%rax
  40a3cb:	48 89 c7             	mov    %rax,%rdi
  40a3ce:	e8 7d aa ff ff       	callq  404e50 <_ZN6google4base21CheckOpMessageBuilderD1Ev@plt>
  40a3d3:	48 89 d8             	mov    %rbx,%rax
  40a3d6:	48 89 c7             	mov    %rax,%rdi
  40a3d9:	e8 d2 ab ff ff       	callq  404fb0 <_Unwind_Resume@plt>
  40a3de:	e8 3d aa ff ff       	callq  404e20 <__stack_chk_fail@plt>
  40a3e3:	48 83 c4 38          	add    $0x38,%rsp
  40a3e7:	5b                   	pop    %rbx
  40a3e8:	5d                   	pop    %rbp
  40a3e9:	c3                   	retq   

000000000040a3ea <_ZN6google17MakeCheckOpStringImiEEPNSt7__cxx1112basic_stringIcSt11char_traitsIcESaIcEEERKT_RKT0_PKc>:
  40a3ea:	55                   	push   %rbp
  40a3eb:	48 89 e5             	mov    %rsp,%rbp
  40a3ee:	53                   	push   %rbx
  40a3ef:	48 83 ec 38          	sub    $0x38,%rsp
  40a3f3:	48 89 7d d8          	mov    %rdi,-0x28(%rbp)
  40a3f7:	48 89 75 d0          	mov    %rsi,-0x30(%rbp)
  40a3fb:	48 89 55 c8          	mov    %rdx,-0x38(%rbp)
  40a3ff:	64 48 8b 04 25 28 00 	mov    %fs:0x28,%rax
  40a406:	00 00 
  40a408:	48 89 45 e8          	mov    %rax,-0x18(%rbp)
  40a40c:	31 c0                	xor    %eax,%eax
  40a40e:	48 8b 55 c8          	mov    -0x38(%rbp),%rdx
  40a412:	48 8d 45 e0          	lea    -0x20(%rbp),%rax
  40a416:	48 89 d6             	mov    %rdx,%rsi
  40a419:	48 89 c7             	mov    %rax,%rdi
  40a41c:	e8 6f a9 ff ff       	callq  404d90 <_ZN6google4base21CheckOpMessageBuilderC1EPKc@plt>
  40a421:	48 8d 45 e0          	lea    -0x20(%rbp),%rax
  40a425:	48 89 c7             	mov    %rax,%rdi
  40a428:	e8 1d b3 ff ff       	callq  40574a <_ZN6google4base21CheckOpMessageBuilder7ForVar1Ev>
  40a42d:	48 89 c2             	mov    %rax,%rdx
  40a430:	48 8b 45 d8          	mov    -0x28(%rbp),%rax
  40a434:	48 89 c6             	mov    %rax,%rsi
  40a437:	48 89 d7             	mov    %rdx,%rdi
  40a43a:	e8 8e 0a 00 00       	callq  40aecd <_ZN6google22MakeCheckOpValueStringImEEvPSoRKT_>
  40a43f:	48 8d 45 e0          	lea    -0x20(%rbp),%rax
  40a443:	48 89 c7             	mov    %rax,%rdi
  40a446:	e8 15 a9 ff ff       	callq  404d60 <_ZN6google4base21CheckOpMessageBuilder7ForVar2Ev@plt>
  40a44b:	48 89 c2             	mov    %rax,%rdx
  40a44e:	48 8b 45 d0          	mov    -0x30(%rbp),%rax
  40a452:	48 89 c6             	mov    %rax,%rsi
  40a455:	48 89 d7             	mov    %rdx,%rdi
  40a458:	e8 d5 ec ff ff       	callq  409132 <_ZN6google22MakeCheckOpValueStringIiEEvPSoRKT_>
  40a45d:	48 8d 45 e0          	lea    -0x20(%rbp),%rax
  40a461:	48 89 c7             	mov    %rax,%rdi
  40a464:	e8 b7 ac ff ff       	callq  405120 <_ZN6google4base21CheckOpMessageBuilder9NewStringB5cxx11Ev@plt>
  40a469:	48 89 c3             	mov    %rax,%rbx
  40a46c:	48 8d 45 e0          	lea    -0x20(%rbp),%rax
  40a470:	48 89 c7             	mov    %rax,%rdi
  40a473:	e8 d8 a9 ff ff       	callq  404e50 <_ZN6google4base21CheckOpMessageBuilderD1Ev@plt>
  40a478:	48 89 d8             	mov    %rbx,%rax
  40a47b:	48 8b 4d e8          	mov    -0x18(%rbp),%rcx
  40a47f:	64 48 33 0c 25 28 00 	xor    %fs:0x28,%rcx
  40a486:	00 00 
  40a488:	74 21                	je     40a4ab <_ZN6google17MakeCheckOpStringImiEEPNSt7__cxx1112basic_stringIcSt11char_traitsIcESaIcEEERKT_RKT0_PKc+0xc1>
  40a48a:	eb 1a                	jmp    40a4a6 <_ZN6google17MakeCheckOpStringImiEEPNSt7__cxx1112basic_stringIcSt11char_traitsIcESaIcEEERKT_RKT0_PKc+0xbc>
  40a48c:	48 89 c3             	mov    %rax,%rbx
  40a48f:	48 8d 45 e0          	lea    -0x20(%rbp),%rax
  40a493:	48 89 c7             	mov    %rax,%rdi
  40a496:	e8 b5 a9 ff ff       	callq  404e50 <_ZN6google4base21CheckOpMessageBuilderD1Ev@plt>
  40a49b:	48 89 d8             	mov    %rbx,%rax
  40a49e:	48 89 c7             	mov    %rax,%rdi
  40a4a1:	e8 0a ab ff ff       	callq  404fb0 <_Unwind_Resume@plt>
  40a4a6:	e8 75 a9 ff ff       	callq  404e20 <__stack_chk_fail@plt>
  40a4ab:	48 83 c4 38          	add    $0x38,%rsp
  40a4af:	5b                   	pop    %rbx
  40a4b0:	5d                   	pop    %rbp
  40a4b1:	c3                   	retq   

000000000040a4b2 <_ZNSt6vectorIfSaIfEE6resizeEmRKf>:
  40a4b2:	55                   	push   %rbp
  40a4b3:	48 89 e5             	mov    %rsp,%rbp
  40a4b6:	53                   	push   %rbx
  40a4b7:	48 83 ec 48          	sub    $0x48,%rsp
  40a4bb:	48 89 7d c8          	mov    %rdi,-0x38(%rbp)
  40a4bf:	48 89 75 c0          	mov    %rsi,-0x40(%rbp)
  40a4c3:	48 89 55 b8          	mov    %rdx,-0x48(%rbp)
  40a4c7:	64 48 8b 04 25 28 00 	mov    %fs:0x28,%rax
  40a4ce:	00 00 
  40a4d0:	48 89 45 e8          	mov    %rax,-0x18(%rbp)
  40a4d4:	31 c0                	xor    %eax,%eax
  40a4d6:	48 8b 45 c8          	mov    -0x38(%rbp),%rax
  40a4da:	48 89 c7             	mov    %rax,%rdi
  40a4dd:	e8 4e f6 ff ff       	callq  409b30 <_ZNKSt6vectorIfSaIfEE4sizeEv>
  40a4e2:	48 3b 45 c0          	cmp    -0x40(%rbp),%rax
  40a4e6:	0f 92 c0             	setb   %al
  40a4e9:	84 c0                	test   %al,%al
  40a4eb:	74 58                	je     40a545 <_ZNSt6vectorIfSaIfEE6resizeEmRKf+0x93>
  40a4ed:	48 8b 45 c8          	mov    -0x38(%rbp),%rax
  40a4f1:	48 89 c7             	mov    %rax,%rdi
  40a4f4:	e8 37 f6 ff ff       	callq  409b30 <_ZNKSt6vectorIfSaIfEE4sizeEv>
  40a4f9:	48 89 c2             	mov    %rax,%rdx
  40a4fc:	48 8b 45 c0          	mov    -0x40(%rbp),%rax
  40a500:	48 29 d0             	sub    %rdx,%rax
  40a503:	48 89 c3             	mov    %rax,%rbx
  40a506:	48 8b 45 c8          	mov    -0x38(%rbp),%rax
  40a50a:	48 89 c7             	mov    %rax,%rdi
  40a50d:	e8 e4 09 00 00       	callq  40aef6 <_ZNSt6vectorIfSaIfEE3endEv>
  40a512:	48 89 45 d8          	mov    %rax,-0x28(%rbp)
  40a516:	48 8d 55 d8          	lea    -0x28(%rbp),%rdx
  40a51a:	48 8d 45 e0          	lea    -0x20(%rbp),%rax
  40a51e:	48 89 d6             	mov    %rdx,%rsi
  40a521:	48 89 c7             	mov    %rax,%rdi
  40a524:	e8 19 0a 00 00       	callq  40af42 <_ZN9__gnu_cxx17__normal_iteratorIPKfSt6vectorIfSaIfEEEC1IPfEERKNS0_IT_NS_11__enable_ifIXsrSt10__are_sameIS9_S8_E7__valueES5_E6__typeEEE>
  40a529:	48 8b 55 b8          	mov    -0x48(%rbp),%rdx
  40a52d:	48 8b 75 e0          	mov    -0x20(%rbp),%rsi
  40a531:	48 8b 45 c8          	mov    -0x38(%rbp),%rax
  40a535:	48 89 d1             	mov    %rdx,%rcx
  40a538:	48 89 da             	mov    %rbx,%rdx
  40a53b:	48 89 c7             	mov    %rax,%rdi
  40a53e:	e8 29 0a 00 00       	callq  40af6c <_ZNSt6vectorIfSaIfEE6insertEN9__gnu_cxx17__normal_iteratorIPKfS1_EEmRS4_>
  40a543:	eb 38                	jmp    40a57d <_ZNSt6vectorIfSaIfEE6resizeEmRKf+0xcb>
  40a545:	48 8b 45 c8          	mov    -0x38(%rbp),%rax
  40a549:	48 89 c7             	mov    %rax,%rdi
  40a54c:	e8 df f5 ff ff       	callq  409b30 <_ZNKSt6vectorIfSaIfEE4sizeEv>
  40a551:	48 3b 45 c0          	cmp    -0x40(%rbp),%rax
  40a555:	0f 97 c0             	seta   %al
  40a558:	84 c0                	test   %al,%al
  40a55a:	74 21                	je     40a57d <_ZNSt6vectorIfSaIfEE6resizeEmRKf+0xcb>
  40a55c:	48 8b 45 c8          	mov    -0x38(%rbp),%rax
  40a560:	48 8b 00             	mov    (%rax),%rax
  40a563:	48 8b 55 c0          	mov    -0x40(%rbp),%rdx
  40a567:	48 c1 e2 02          	shl    $0x2,%rdx
  40a56b:	48 01 c2             	add    %rax,%rdx
  40a56e:	48 8b 45 c8          	mov    -0x38(%rbp),%rax
  40a572:	48 89 d6             	mov    %rdx,%rsi
  40a575:	48 89 c7             	mov    %rax,%rdi
  40a578:	e8 b1 0a 00 00       	callq  40b02e <_ZNSt6vectorIfSaIfEE15_M_erase_at_endEPf>
  40a57d:	90                   	nop
  40a57e:	48 8b 45 e8          	mov    -0x18(%rbp),%rax
  40a582:	64 48 33 04 25 28 00 	xor    %fs:0x28,%rax
  40a589:	00 00 
  40a58b:	74 05                	je     40a592 <_ZNSt6vectorIfSaIfEE6resizeEmRKf+0xe0>
  40a58d:	e8 8e a8 ff ff       	callq  404e20 <__stack_chk_fail@plt>
  40a592:	48 83 c4 48          	add    $0x48,%rsp
  40a596:	5b                   	pop    %rbx
  40a597:	5d                   	pop    %rbp
  40a598:	c3                   	retq   
  40a599:	90                   	nop

000000000040a59a <_ZNSt6vectorIfSaIfEEixEm>:
  40a59a:	55                   	push   %rbp
  40a59b:	48 89 e5             	mov    %rsp,%rbp
  40a59e:	48 89 7d f8          	mov    %rdi,-0x8(%rbp)
  40a5a2:	48 89 75 f0          	mov    %rsi,-0x10(%rbp)
  40a5a6:	48 8b 45 f8          	mov    -0x8(%rbp),%rax
  40a5aa:	48 8b 00             	mov    (%rax),%rax
  40a5ad:	48 8b 55 f0          	mov    -0x10(%rbp),%rdx
  40a5b1:	48 c1 e2 02          	shl    $0x2,%rdx
  40a5b5:	48 01 d0             	add    %rdx,%rax
  40a5b8:	5d                   	pop    %rbp
  40a5b9:	c3                   	retq   

000000000040a5ba <_ZNKSt6vectorIiSaIiEE4sizeEv>:
  40a5ba:	55                   	push   %rbp
  40a5bb:	48 89 e5             	mov    %rsp,%rbp
  40a5be:	48 89 7d f8          	mov    %rdi,-0x8(%rbp)
  40a5c2:	48 8b 45 f8          	mov    -0x8(%rbp),%rax
  40a5c6:	48 8b 40 08          	mov    0x8(%rax),%rax
  40a5ca:	48 89 c2             	mov    %rax,%rdx
  40a5cd:	48 8b 45 f8          	mov    -0x8(%rbp),%rax
  40a5d1:	48 8b 00             	mov    (%rax),%rax
  40a5d4:	48 29 c2             	sub    %rax,%rdx
  40a5d7:	48 89 d0             	mov    %rdx,%rax
  40a5da:	48 c1 f8 02          	sar    $0x2,%rax
  40a5de:	5d                   	pop    %rbp
  40a5df:	c3                   	retq   

000000000040a5e0 <_ZNK5caffe4BlobIfE18CanonicalAxisIndexEi>:
  40a5e0:	55                   	push   %rbp
  40a5e1:	48 89 e5             	mov    %rsp,%rbp
  40a5e4:	53                   	push   %rbx
  40a5e5:	48 83 ec 78          	sub    $0x78,%rsp
  40a5e9:	48 89 7d 88          	mov    %rdi,-0x78(%rbp)
  40a5ed:	89 75 84             	mov    %esi,-0x7c(%rbp)
  40a5f0:	64 48 8b 04 25 28 00 	mov    %fs:0x28,%rax
  40a5f7:	00 00 
  40a5f9:	48 89 45 e8          	mov    %rax,-0x18(%rbp)
  40a5fd:	31 c0                	xor    %eax,%eax
  40a5ff:	48 8b 45 88          	mov    -0x78(%rbp),%rax
  40a603:	48 89 c7             	mov    %rax,%rdi
  40a606:	e8 6b f5 ff ff       	callq  409b76 <_ZNK5caffe4BlobIfE8num_axesEv>
  40a60b:	f7 d8                	neg    %eax
  40a60d:	89 c7                	mov    %eax,%edi
  40a60f:	e8 1c b1 ff ff       	callq  405730 <_ZN6google21GetReferenceableValueEi>
  40a614:	89 c3                	mov    %eax,%ebx
  40a616:	8b 45 84             	mov    -0x7c(%rbp),%eax
  40a619:	89 c7                	mov    %eax,%edi
  40a61b:	e8 10 b1 ff ff       	callq  405730 <_ZN6google21GetReferenceableValueEi>
  40a620:	ba c7 d9 40 00       	mov    $0x40d9c7,%edx
  40a625:	89 de                	mov    %ebx,%esi
  40a627:	89 c7                	mov    %eax,%edi
  40a629:	e8 83 b1 ff ff       	callq  4057b1 <_ZN6google12Check_GEImplB5cxx11EiiPKc>
  40a62e:	48 89 45 a0          	mov    %rax,-0x60(%rbp)
  40a632:	48 83 7d a0 00       	cmpq   $0x0,-0x60(%rbp)
  40a637:	0f 84 bc 00 00 00    	je     40a6f9 <_ZNK5caffe4BlobIfE18CanonicalAxisIndexEi+0x119>
  40a63d:	48 8d 45 c0          	lea    -0x40(%rbp),%rax
  40a641:	48 8b 55 88          	mov    -0x78(%rbp),%rdx
  40a645:	48 89 d6             	mov    %rdx,%rsi
  40a648:	48 89 c7             	mov    %rax,%rdi
  40a64b:	e8 24 0a 00 00       	callq  40b074 <_ZNK5caffe4BlobIfE12shape_stringB5cxx11Ev>
  40a650:	48 8b 45 88          	mov    -0x78(%rbp),%rax
  40a654:	48 89 c7             	mov    %rax,%rdi
  40a657:	e8 1a f5 ff ff       	callq  409b76 <_ZNK5caffe4BlobIfE8num_axesEv>
  40a65c:	89 c3                	mov    %eax,%ebx
  40a65e:	48 8b 55 a0          	mov    -0x60(%rbp),%rdx
  40a662:	48 8d 45 98          	lea    -0x68(%rbp),%rax
  40a666:	48 89 d6             	mov    %rdx,%rsi
  40a669:	48 89 c7             	mov    %rax,%rdi
  40a66c:	e8 a5 b0 ff ff       	callq  405716 <_ZN6google13CheckOpStringC1EPNSt7__cxx1112basic_stringIcSt11char_traitsIcESaIcEEE>
  40a671:	48 8d 55 98          	lea    -0x68(%rbp),%rdx
  40a675:	48 8d 45 b0          	lea    -0x50(%rbp),%rax
  40a679:	48 89 d1             	mov    %rdx,%rcx
  40a67c:	ba 77 00 00 00       	mov    $0x77,%edx
  40a681:	be 60 d5 40 00       	mov    $0x40d560,%esi
  40a686:	48 89 c7             	mov    %rax,%rdi
  40a689:	e8 12 a9 ff ff       	callq  404fa0 <_ZN6google15LogMessageFatalC1EPKciRKNS_13CheckOpStringE@plt>
  40a68e:	48 8d 45 b0          	lea    -0x50(%rbp),%rax
  40a692:	48 89 c7             	mov    %rax,%rdi
  40a695:	e8 e6 aa ff ff       	callq  405180 <_ZN6google10LogMessage6streamEv@plt>
  40a69a:	be e1 d9 40 00       	mov    $0x40d9e1,%esi
  40a69f:	48 89 c7             	mov    %rax,%rdi
  40a6a2:	e8 99 a8 ff ff       	callq  404f40 <_ZStlsISt11char_traitsIcEERSt13basic_ostreamIcT_ES5_PKc@plt>
  40a6a7:	48 89 c2             	mov    %rax,%rdx
  40a6aa:	8b 45 84             	mov    -0x7c(%rbp),%eax
  40a6ad:	89 c6                	mov    %eax,%esi
  40a6af:	48 89 d7             	mov    %rdx,%rdi
  40a6b2:	e8 a9 a7 ff ff       	callq  404e60 <_ZNSolsEi@plt>
  40a6b7:	be e7 d9 40 00       	mov    $0x40d9e7,%esi
  40a6bc:	48 89 c7             	mov    %rax,%rdi
  40a6bf:	e8 7c a8 ff ff       	callq  404f40 <_ZStlsISt11char_traitsIcEERSt13basic_ostreamIcT_ES5_PKc@plt>
  40a6c4:	89 de                	mov    %ebx,%esi
  40a6c6:	48 89 c7             	mov    %rax,%rdi
  40a6c9:	e8 92 a7 ff ff       	callq  404e60 <_ZNSolsEi@plt>
  40a6ce:	be fa d9 40 00       	mov    $0x40d9fa,%esi
  40a6d3:	48 89 c7             	mov    %rax,%rdi
  40a6d6:	e8 65 a8 ff ff       	callq  404f40 <_ZStlsISt11char_traitsIcEERSt13basic_ostreamIcT_ES5_PKc@plt>
  40a6db:	48 89 c2             	mov    %rax,%rdx
  40a6de:	48 8d 45 c0          	lea    -0x40(%rbp),%rax
  40a6e2:	48 89 c6             	mov    %rax,%rsi
  40a6e5:	48 89 d7             	mov    %rdx,%rdi
  40a6e8:	e8 53 a7 ff ff       	callq  404e40 <_ZStlsIcSt11char_traitsIcESaIcEERSt13basic_ostreamIT_T0_ES7_RKNSt7__cxx1112basic_stringIS4_S5_T1_EE@plt>
  40a6ed:	48 8d 45 b0          	lea    -0x50(%rbp),%rax
  40a6f1:	48 89 c7             	mov    %rax,%rdi
  40a6f4:	e8 e7 a9 ff ff       	callq  4050e0 <_ZN6google15LogMessageFatalD1Ev@plt>
  40a6f9:	48 8b 45 88          	mov    -0x78(%rbp),%rax
  40a6fd:	48 89 c7             	mov    %rax,%rdi
  40a700:	e8 71 f4 ff ff       	callq  409b76 <_ZNK5caffe4BlobIfE8num_axesEv>
  40a705:	89 c7                	mov    %eax,%edi
  40a707:	e8 24 b0 ff ff       	callq  405730 <_ZN6google21GetReferenceableValueEi>
  40a70c:	89 c3                	mov    %eax,%ebx
  40a70e:	8b 45 84             	mov    -0x7c(%rbp),%eax
  40a711:	89 c7                	mov    %eax,%edi
  40a713:	e8 18 b0 ff ff       	callq  405730 <_ZN6google21GetReferenceableValueEi>
  40a718:	ba 0e da 40 00       	mov    $0x40da0e,%edx
  40a71d:	89 de                	mov    %ebx,%esi
  40a71f:	89 c7                	mov    %eax,%edi
  40a721:	e8 60 b0 ff ff       	callq  405786 <_ZN6google12Check_LTImplB5cxx11EiiPKc>
  40a726:	48 89 45 a8          	mov    %rax,-0x58(%rbp)
  40a72a:	48 83 7d a8 00       	cmpq   $0x0,-0x58(%rbp)
  40a72f:	0f 84 bc 00 00 00    	je     40a7f1 <_ZNK5caffe4BlobIfE18CanonicalAxisIndexEi+0x211>
  40a735:	48 8d 45 c0          	lea    -0x40(%rbp),%rax
  40a739:	48 8b 55 88          	mov    -0x78(%rbp),%rdx
  40a73d:	48 89 d6             	mov    %rdx,%rsi
  40a740:	48 89 c7             	mov    %rax,%rdi
  40a743:	e8 2c 09 00 00       	callq  40b074 <_ZNK5caffe4BlobIfE12shape_stringB5cxx11Ev>
  40a748:	48 8b 45 88          	mov    -0x78(%rbp),%rax
  40a74c:	48 89 c7             	mov    %rax,%rdi
  40a74f:	e8 22 f4 ff ff       	callq  409b76 <_ZNK5caffe4BlobIfE8num_axesEv>
  40a754:	89 c3                	mov    %eax,%ebx
  40a756:	48 8b 55 a8          	mov    -0x58(%rbp),%rdx
  40a75a:	48 8d 45 98          	lea    -0x68(%rbp),%rax
  40a75e:	48 89 d6             	mov    %rdx,%rsi
  40a761:	48 89 c7             	mov    %rax,%rdi
  40a764:	e8 ad af ff ff       	callq  405716 <_ZN6google13CheckOpStringC1EPNSt7__cxx1112basic_stringIcSt11char_traitsIcESaIcEEE>
  40a769:	48 8d 55 98          	lea    -0x68(%rbp),%rdx
  40a76d:	48 8d 45 b0          	lea    -0x50(%rbp),%rax
  40a771:	48 89 d1             	mov    %rdx,%rcx
  40a774:	ba 7a 00 00 00       	mov    $0x7a,%edx
  40a779:	be 60 d5 40 00       	mov    $0x40d560,%esi
  40a77e:	48 89 c7             	mov    %rax,%rdi
  40a781:	e8 1a a8 ff ff       	callq  404fa0 <_ZN6google15LogMessageFatalC1EPKciRKNS_13CheckOpStringE@plt>
  40a786:	48 8d 45 b0          	lea    -0x50(%rbp),%rax
  40a78a:	48 89 c7             	mov    %rax,%rdi
  40a78d:	e8 ee a9 ff ff       	callq  405180 <_ZN6google10LogMessage6streamEv@plt>
  40a792:	be e1 d9 40 00       	mov    $0x40d9e1,%esi
  40a797:	48 89 c7             	mov    %rax,%rdi
  40a79a:	e8 a1 a7 ff ff       	callq  404f40 <_ZStlsISt11char_traitsIcEERSt13basic_ostreamIcT_ES5_PKc@plt>
  40a79f:	48 89 c2             	mov    %rax,%rdx
  40a7a2:	8b 45 84             	mov    -0x7c(%rbp),%eax
  40a7a5:	89 c6                	mov    %eax,%esi
  40a7a7:	48 89 d7             	mov    %rdx,%rdi
  40a7aa:	e8 b1 a6 ff ff       	callq  404e60 <_ZNSolsEi@plt>
  40a7af:	be e7 d9 40 00       	mov    $0x40d9e7,%esi
  40a7b4:	48 89 c7             	mov    %rax,%rdi
  40a7b7:	e8 84 a7 ff ff       	callq  404f40 <_ZStlsISt11char_traitsIcEERSt13basic_ostreamIcT_ES5_PKc@plt>
  40a7bc:	89 de                	mov    %ebx,%esi
  40a7be:	48 89 c7             	mov    %rax,%rdi
  40a7c1:	e8 9a a6 ff ff       	callq  404e60 <_ZNSolsEi@plt>
  40a7c6:	be fa d9 40 00       	mov    $0x40d9fa,%esi
  40a7cb:	48 89 c7             	mov    %rax,%rdi
  40a7ce:	e8 6d a7 ff ff       	callq  404f40 <_ZStlsISt11char_traitsIcEERSt13basic_ostreamIcT_ES5_PKc@plt>
  40a7d3:	48 89 c2             	mov    %rax,%rdx
  40a7d6:	48 8d 45 c0          	lea    -0x40(%rbp),%rax
  40a7da:	48 89 c6             	mov    %rax,%rsi
  40a7dd:	48 89 d7             	mov    %rdx,%rdi
  40a7e0:	e8 5b a6 ff ff       	callq  404e40 <_ZStlsIcSt11char_traitsIcESaIcEERSt13basic_ostreamIT_T0_ES7_RKNSt7__cxx1112basic_stringIS4_S5_T1_EE@plt>
  40a7e5:	48 8d 45 b0          	lea    -0x50(%rbp),%rax
  40a7e9:	48 89 c7             	mov    %rax,%rdi
  40a7ec:	e8 ef a8 ff ff       	callq  4050e0 <_ZN6google15LogMessageFatalD1Ev@plt>
  40a7f1:	83 7d 84 00          	cmpl   $0x0,-0x7c(%rbp)
  40a7f5:	79 15                	jns    40a80c <_ZNK5caffe4BlobIfE18CanonicalAxisIndexEi+0x22c>
  40a7f7:	48 8b 45 88          	mov    -0x78(%rbp),%rax
  40a7fb:	48 89 c7             	mov    %rax,%rdi
  40a7fe:	e8 73 f3 ff ff       	callq  409b76 <_ZNK5caffe4BlobIfE8num_axesEv>
  40a803:	89 c2                	mov    %eax,%edx
  40a805:	8b 45 84             	mov    -0x7c(%rbp),%eax
  40a808:	01 d0                	add    %edx,%eax
  40a80a:	eb 03                	jmp    40a80f <_ZNK5caffe4BlobIfE18CanonicalAxisIndexEi+0x22f>
  40a80c:	8b 45 84             	mov    -0x7c(%rbp),%eax
  40a80f:	48 8b 4d e8          	mov    -0x18(%rbp),%rcx
  40a813:	64 48 33 0c 25 28 00 	xor    %fs:0x28,%rcx
  40a81a:	00 00 
  40a81c:	74 53                	je     40a871 <_ZNK5caffe4BlobIfE18CanonicalAxisIndexEi+0x291>
  40a81e:	eb 4c                	jmp    40a86c <_ZNK5caffe4BlobIfE18CanonicalAxisIndexEi+0x28c>
  40a820:	48 8d 45 b0          	lea    -0x50(%rbp),%rax
  40a824:	48 89 c7             	mov    %rax,%rdi
  40a827:	e8 b4 a8 ff ff       	callq  4050e0 <_ZN6google15LogMessageFatalD1Ev@plt>
  40a82c:	48 89 c3             	mov    %rax,%rbx
  40a82f:	48 8d 45 c0          	lea    -0x40(%rbp),%rax
  40a833:	48 89 c7             	mov    %rax,%rdi
  40a836:	e8 f5 a7 ff ff       	callq  405030 <_ZNSt7__cxx1112basic_stringIcSt11char_traitsIcESaIcEED1Ev@plt>
  40a83b:	48 89 d8             	mov    %rbx,%rax
  40a83e:	48 89 c7             	mov    %rax,%rdi
  40a841:	e8 6a a7 ff ff       	callq  404fb0 <_Unwind_Resume@plt>
  40a846:	48 8d 45 b0          	lea    -0x50(%rbp),%rax
  40a84a:	48 89 c7             	mov    %rax,%rdi
  40a84d:	e8 8e a8 ff ff       	callq  4050e0 <_ZN6google15LogMessageFatalD1Ev@plt>
  40a852:	48 89 c3             	mov    %rax,%rbx
  40a855:	48 8d 45 c0          	lea    -0x40(%rbp),%rax
  40a859:	48 89 c7             	mov    %rax,%rdi
  40a85c:	e8 cf a7 ff ff       	callq  405030 <_ZNSt7__cxx1112basic_stringIcSt11char_traitsIcESaIcEED1Ev@plt>
  40a861:	48 89 d8             	mov    %rbx,%rax
  40a864:	48 89 c7             	mov    %rax,%rdi
  40a867:	e8 44 a7 ff ff       	callq  404fb0 <_Unwind_Resume@plt>
  40a86c:	e8 af a5 ff ff       	callq  404e20 <__stack_chk_fail@plt>
  40a871:	48 83 c4 78          	add    $0x78,%rsp
  40a875:	5b                   	pop    %rbx
  40a876:	5d                   	pop    %rbp
  40a877:	c3                   	retq   

000000000040a878 <_ZNKSt6vectorIiSaIiEEixEm>:
  40a878:	55                   	push   %rbp
  40a879:	48 89 e5             	mov    %rsp,%rbp
  40a87c:	48 89 7d f8          	mov    %rdi,-0x8(%rbp)
  40a880:	48 89 75 f0          	mov    %rsi,-0x10(%rbp)
  40a884:	48 8b 45 f8          	mov    -0x8(%rbp),%rax
  40a888:	48 8b 00             	mov    (%rax),%rax
  40a88b:	48 8b 55 f0          	mov    -0x10(%rbp),%rdx
  40a88f:	48 c1 e2 02          	shl    $0x2,%rdx
  40a893:	48 01 d0             	add    %rdx,%rax
  40a896:	5d                   	pop    %rbp
  40a897:	c3                   	retq   

000000000040a898 <_ZN9__gnu_cxx13new_allocatorIiED1Ev>:
  40a898:	55                   	push   %rbp
  40a899:	48 89 e5             	mov    %rsp,%rbp
  40a89c:	48 89 7d f8          	mov    %rdi,-0x8(%rbp)
  40a8a0:	90                   	nop
  40a8a1:	5d                   	pop    %rbp
  40a8a2:	c3                   	retq   

000000000040a8a3 <_ZNSt16allocator_traitsISaIiEE10deallocateERS0_Pim>:
  40a8a3:	55                   	push   %rbp
  40a8a4:	48 89 e5             	mov    %rsp,%rbp
  40a8a7:	48 83 ec 20          	sub    $0x20,%rsp
  40a8ab:	48 89 7d f8          	mov    %rdi,-0x8(%rbp)
  40a8af:	48 89 75 f0          	mov    %rsi,-0x10(%rbp)
  40a8b3:	48 89 55 e8          	mov    %rdx,-0x18(%rbp)
  40a8b7:	48 8b 55 e8          	mov    -0x18(%rbp),%rdx
  40a8bb:	48 8b 4d f0          	mov    -0x10(%rbp),%rcx
  40a8bf:	48 8b 45 f8          	mov    -0x8(%rbp),%rax
  40a8c3:	48 89 ce             	mov    %rcx,%rsi
  40a8c6:	48 89 c7             	mov    %rax,%rdi
  40a8c9:	e8 fe 08 00 00       	callq  40b1cc <_ZN9__gnu_cxx13new_allocatorIiE10deallocateEPim>
  40a8ce:	90                   	nop
  40a8cf:	c9                   	leaveq 
  40a8d0:	c3                   	retq   

000000000040a8d1 <_ZNSt12_Destroy_auxILb1EE9__destroyIPiEEvT_S3_>:
  40a8d1:	55                   	push   %rbp
  40a8d2:	48 89 e5             	mov    %rsp,%rbp
  40a8d5:	48 89 7d f8          	mov    %rdi,-0x8(%rbp)
  40a8d9:	48 89 75 f0          	mov    %rsi,-0x10(%rbp)
  40a8dd:	90                   	nop
  40a8de:	5d                   	pop    %rbp
  40a8df:	c3                   	retq   

000000000040a8e0 <_ZN9__gnu_cxx13new_allocatorIPN5caffe4BlobIfEEEC1Ev>:
  40a8e0:	55                   	push   %rbp
  40a8e1:	48 89 e5             	mov    %rsp,%rbp
  40a8e4:	48 89 7d f8          	mov    %rdi,-0x8(%rbp)
  40a8e8:	90                   	nop
  40a8e9:	5d                   	pop    %rbp
  40a8ea:	c3                   	retq   
  40a8eb:	90                   	nop

000000000040a8ec <_ZN9__gnu_cxx13new_allocatorIPN5caffe4BlobIfEEE10deallocateEPS4_m>:
  40a8ec:	55                   	push   %rbp
  40a8ed:	48 89 e5             	mov    %rsp,%rbp
  40a8f0:	48 83 ec 20          	sub    $0x20,%rsp
  40a8f4:	48 89 7d f8          	mov    %rdi,-0x8(%rbp)
  40a8f8:	48 89 75 f0          	mov    %rsi,-0x10(%rbp)
  40a8fc:	48 89 55 e8          	mov    %rdx,-0x18(%rbp)
  40a900:	48 8b 45 f0          	mov    -0x10(%rbp),%rax
  40a904:	48 89 c7             	mov    %rax,%rdi
  40a907:	e8 14 a6 ff ff       	callq  404f20 <_ZdlPv@plt>
  40a90c:	90                   	nop
  40a90d:	c9                   	leaveq 
  40a90e:	c3                   	retq   

000000000040a90f <_ZNSt16allocator_traitsISaIPN5caffe4BlobIfEEEE8max_sizeERKS4_>:
  40a90f:	55                   	push   %rbp
  40a910:	48 89 e5             	mov    %rsp,%rbp
  40a913:	48 83 ec 10          	sub    $0x10,%rsp
  40a917:	48 89 7d f8          	mov    %rdi,-0x8(%rbp)
  40a91b:	48 8b 45 f8          	mov    -0x8(%rbp),%rax
  40a91f:	48 89 c7             	mov    %rax,%rdi
  40a922:	e8 c9 08 00 00       	callq  40b1f0 <_ZNK9__gnu_cxx13new_allocatorIPN5caffe4BlobIfEEE8max_sizeEv>
  40a927:	c9                   	leaveq 
  40a928:	c3                   	retq   
  40a929:	90                   	nop

000000000040a92a <_ZNKSt12_Vector_baseIPN5caffe4BlobIfEESaIS3_EE19_M_get_Tp_allocatorEv>:
  40a92a:	55                   	push   %rbp
  40a92b:	48 89 e5             	mov    %rsp,%rbp
  40a92e:	48 89 7d f8          	mov    %rdi,-0x8(%rbp)
  40a932:	48 8b 45 f8          	mov    -0x8(%rbp),%rax
  40a936:	5d                   	pop    %rbp
  40a937:	c3                   	retq   

000000000040a938 <_ZN9__gnu_cxx13new_allocatorIPN5caffe4BlobIfEEE8allocateEmPKv>:
  40a938:	55                   	push   %rbp
  40a939:	48 89 e5             	mov    %rsp,%rbp
  40a93c:	48 83 ec 20          	sub    $0x20,%rsp
  40a940:	48 89 7d f8          	mov    %rdi,-0x8(%rbp)
  40a944:	48 89 75 f0          	mov    %rsi,-0x10(%rbp)
  40a948:	48 89 55 e8          	mov    %rdx,-0x18(%rbp)
  40a94c:	48 8b 45 f8          	mov    -0x8(%rbp),%rax
  40a950:	48 89 c7             	mov    %rax,%rdi
  40a953:	e8 98 08 00 00       	callq  40b1f0 <_ZNK9__gnu_cxx13new_allocatorIPN5caffe4BlobIfEEE8max_sizeEv>
  40a958:	48 3b 45 f0          	cmp    -0x10(%rbp),%rax
  40a95c:	0f 92 c0             	setb   %al
  40a95f:	84 c0                	test   %al,%al
  40a961:	74 05                	je     40a968 <_ZN9__gnu_cxx13new_allocatorIPN5caffe4BlobIfEEE8allocateEmPKv+0x30>
  40a963:	e8 18 a4 ff ff       	callq  404d80 <_ZSt17__throw_bad_allocv@plt>
  40a968:	48 8b 45 f0          	mov    -0x10(%rbp),%rax
  40a96c:	48 c1 e0 03          	shl    $0x3,%rax
  40a970:	48 89 c7             	mov    %rax,%rdi
  40a973:	e8 38 a4 ff ff       	callq  404db0 <_Znwm@plt>
  40a978:	c9                   	leaveq 
  40a979:	c3                   	retq   

000000000040a97a <_ZNSt13move_iteratorIPPN5caffe4BlobIfEEEC1ES4_>:
  40a97a:	55                   	push   %rbp
  40a97b:	48 89 e5             	mov    %rsp,%rbp
  40a97e:	48 89 7d f8          	mov    %rdi,-0x8(%rbp)
  40a982:	48 89 75 f0          	mov    %rsi,-0x10(%rbp)
  40a986:	48 8b 45 f8          	mov    -0x8(%rbp),%rax
  40a98a:	48 8b 55 f0          	mov    -0x10(%rbp),%rdx
  40a98e:	48 89 10             	mov    %rdx,(%rax)
  40a991:	90                   	nop
  40a992:	5d                   	pop    %rbp
  40a993:	c3                   	retq   

000000000040a994 <_ZSt18uninitialized_copyISt13move_iteratorIPPN5caffe4BlobIfEEES5_ET0_T_S8_S7_>:
  40a994:	55                   	push   %rbp
  40a995:	48 89 e5             	mov    %rsp,%rbp
  40a998:	48 83 ec 30          	sub    $0x30,%rsp
  40a99c:	48 89 7d e8          	mov    %rdi,-0x18(%rbp)
  40a9a0:	48 89 75 e0          	mov    %rsi,-0x20(%rbp)
  40a9a4:	48 89 55 d8          	mov    %rdx,-0x28(%rbp)
  40a9a8:	c6 45 ff 01          	movb   $0x1,-0x1(%rbp)
  40a9ac:	48 8b 55 d8          	mov    -0x28(%rbp),%rdx
  40a9b0:	48 8b 4d e0          	mov    -0x20(%rbp),%rcx
  40a9b4:	48 8b 45 e8          	mov    -0x18(%rbp),%rax
  40a9b8:	48 89 ce             	mov    %rcx,%rsi
  40a9bb:	48 89 c7             	mov    %rax,%rdi
  40a9be:	e8 41 08 00 00       	callq  40b204 <_ZNSt20__uninitialized_copyILb1EE13__uninit_copyISt13move_iteratorIPPN5caffe4BlobIfEEES7_EET0_T_SA_S9_>
  40a9c3:	c9                   	leaveq 
  40a9c4:	c3                   	retq   
  40a9c5:	90                   	nop

000000000040a9c6 <_ZNSaIiEC1Ev>:
  40a9c6:	55                   	push   %rbp
  40a9c7:	48 89 e5             	mov    %rsp,%rbp
  40a9ca:	48 83 ec 10          	sub    $0x10,%rsp
  40a9ce:	48 89 7d f8          	mov    %rdi,-0x8(%rbp)
  40a9d2:	48 8b 45 f8          	mov    -0x8(%rbp),%rax
  40a9d6:	48 89 c7             	mov    %rax,%rdi
  40a9d9:	e8 54 08 00 00       	callq  40b232 <_ZN9__gnu_cxx13new_allocatorIiEC1Ev>
  40a9de:	90                   	nop
  40a9df:	c9                   	leaveq 
  40a9e0:	c3                   	retq   
  40a9e1:	90                   	nop

000000000040a9e2 <_ZNSt12_Vector_baseIN5boost10shared_ptrIN5caffe4BlobIfEEEESaIS5_EEC1Ev>:
  40a9e2:	55                   	push   %rbp
  40a9e3:	48 89 e5             	mov    %rsp,%rbp
  40a9e6:	48 83 ec 10          	sub    $0x10,%rsp
  40a9ea:	48 89 7d f8          	mov    %rdi,-0x8(%rbp)
  40a9ee:	48 8b 45 f8          	mov    -0x8(%rbp),%rax
  40a9f2:	48 89 c7             	mov    %rax,%rdi
  40a9f5:	e8 44 08 00 00       	callq  40b23e <_ZNSt12_Vector_baseIN5boost10shared_ptrIN5caffe4BlobIfEEEESaIS5_EE12_Vector_implC1Ev>
  40a9fa:	90                   	nop
  40a9fb:	c9                   	leaveq 
  40a9fc:	c3                   	retq   
  40a9fd:	90                   	nop

000000000040a9fe <_ZNSt13_Bvector_baseISaIbEEC1Ev>:
  40a9fe:	55                   	push   %rbp
  40a9ff:	48 89 e5             	mov    %rsp,%rbp
  40aa02:	48 83 ec 10          	sub    $0x10,%rsp
  40aa06:	48 89 7d f8          	mov    %rdi,-0x8(%rbp)
  40aa0a:	48 8b 45 f8          	mov    -0x8(%rbp),%rax
  40aa0e:	48 89 c7             	mov    %rax,%rdi
  40aa11:	e8 66 08 00 00       	callq  40b27c <_ZNSt13_Bvector_baseISaIbEE13_Bvector_implC1Ev>
  40aa16:	90                   	nop
  40aa17:	c9                   	leaveq 
  40aa18:	c3                   	retq   
  40aa19:	90                   	nop

000000000040aa1a <_ZNSt12_Vector_baseIfSaIfEEC1Ev>:
  40aa1a:	55                   	push   %rbp
  40aa1b:	48 89 e5             	mov    %rsp,%rbp
  40aa1e:	48 83 ec 10          	sub    $0x10,%rsp
  40aa22:	48 89 7d f8          	mov    %rdi,-0x8(%rbp)
  40aa26:	48 8b 45 f8          	mov    -0x8(%rbp),%rax
  40aa2a:	48 89 c7             	mov    %rax,%rdi
  40aa2d:	e8 8e 08 00 00       	callq  40b2c0 <_ZNSt12_Vector_baseIfSaIfEE12_Vector_implC1Ev>
  40aa32:	90                   	nop
  40aa33:	c9                   	leaveq 
  40aa34:	c3                   	retq   
  40aa35:	90                   	nop

000000000040aa36 <_ZNKSt6vectorIN5boost10shared_ptrIN5caffe4BlobIfEEEESaIS5_EE4sizeEv>:
  40aa36:	55                   	push   %rbp
  40aa37:	48 89 e5             	mov    %rsp,%rbp
  40aa3a:	48 89 7d f8          	mov    %rdi,-0x8(%rbp)
  40aa3e:	48 8b 45 f8          	mov    -0x8(%rbp),%rax
  40aa42:	48 8b 40 08          	mov    0x8(%rax),%rax
  40aa46:	48 89 c2             	mov    %rax,%rdx
  40aa49:	48 8b 45 f8          	mov    -0x8(%rbp),%rax
  40aa4d:	48 8b 00             	mov    (%rax),%rax
  40aa50:	48 29 c2             	sub    %rax,%rdx
  40aa53:	48 89 d0             	mov    %rdx,%rax
  40aa56:	48 c1 f8 04          	sar    $0x4,%rax
  40aa5a:	5d                   	pop    %rbp
  40aa5b:	c3                   	retq   

000000000040aa5c <_ZNSt6vectorIN5boost10shared_ptrIN5caffe4BlobIfEEEESaIS5_EE17_M_default_appendEm>:
  40aa5c:	55                   	push   %rbp
  40aa5d:	48 89 e5             	mov    %rsp,%rbp
  40aa60:	53                   	push   %rbx
  40aa61:	48 83 ec 38          	sub    $0x38,%rsp
  40aa65:	48 89 7d c8          	mov    %rdi,-0x38(%rbp)
  40aa69:	48 89 75 c0          	mov    %rsi,-0x40(%rbp)
  40aa6d:	48 83 7d c0 00       	cmpq   $0x0,-0x40(%rbp)
  40aa72:	0f 84 e2 01 00 00    	je     40ac5a <_ZNSt6vectorIN5boost10shared_ptrIN5caffe4BlobIfEEEESaIS5_EE17_M_default_appendEm+0x1fe>
  40aa78:	48 8b 45 c8          	mov    -0x38(%rbp),%rax
  40aa7c:	48 8b 40 10          	mov    0x10(%rax),%rax
  40aa80:	48 89 c2             	mov    %rax,%rdx
  40aa83:	48 8b 45 c8          	mov    -0x38(%rbp),%rax
  40aa87:	48 8b 40 08          	mov    0x8(%rax),%rax
  40aa8b:	48 29 c2             	sub    %rax,%rdx
  40aa8e:	48 89 d0             	mov    %rdx,%rax
  40aa91:	48 c1 f8 04          	sar    $0x4,%rax
  40aa95:	48 3b 45 c0          	cmp    -0x40(%rbp),%rax
  40aa99:	72 36                	jb     40aad1 <_ZNSt6vectorIN5boost10shared_ptrIN5caffe4BlobIfEEEESaIS5_EE17_M_default_appendEm+0x75>
  40aa9b:	48 8b 45 c8          	mov    -0x38(%rbp),%rax
  40aa9f:	48 89 c7             	mov    %rax,%rdi
  40aaa2:	e8 93 f6 ff ff       	callq  40a13a <_ZNSt12_Vector_baseIN5boost10shared_ptrIN5caffe4BlobIfEEEESaIS5_EE19_M_get_Tp_allocatorEv>
  40aaa7:	48 89 c2             	mov    %rax,%rdx
  40aaaa:	48 8b 45 c8          	mov    -0x38(%rbp),%rax
  40aaae:	48 8b 40 08          	mov    0x8(%rax),%rax
  40aab2:	48 8b 4d c0          	mov    -0x40(%rbp),%rcx
  40aab6:	48 89 ce             	mov    %rcx,%rsi
  40aab9:	48 89 c7             	mov    %rax,%rdi
  40aabc:	e8 3d 08 00 00       	callq  40b2fe <_ZSt27__uninitialized_default_n_aIPN5boost10shared_ptrIN5caffe4BlobIfEEEEmS5_ET_S7_T0_RSaIT1_E>
  40aac1:	48 89 c2             	mov    %rax,%rdx
  40aac4:	48 8b 45 c8          	mov    -0x38(%rbp),%rax
  40aac8:	48 89 50 08          	mov    %rdx,0x8(%rax)
  40aacc:	e9 89 01 00 00       	jmpq   40ac5a <_ZNSt6vectorIN5boost10shared_ptrIN5caffe4BlobIfEEEESaIS5_EE17_M_default_appendEm+0x1fe>
  40aad1:	48 8b 4d c0          	mov    -0x40(%rbp),%rcx
  40aad5:	48 8b 45 c8          	mov    -0x38(%rbp),%rax
  40aad9:	ba 26 da 40 00       	mov    $0x40da26,%edx
  40aade:	48 89 ce             	mov    %rcx,%rsi
  40aae1:	48 89 c7             	mov    %rax,%rdi
  40aae4:	e8 3f 08 00 00       	callq  40b328 <_ZNKSt6vectorIN5boost10shared_ptrIN5caffe4BlobIfEEEESaIS5_EE12_M_check_lenEmPKc>
  40aae9:	48 89 45 d8          	mov    %rax,-0x28(%rbp)
  40aaed:	48 8b 45 c8          	mov    -0x38(%rbp),%rax
  40aaf1:	48 89 c7             	mov    %rax,%rdi
  40aaf4:	e8 3d ff ff ff       	callq  40aa36 <_ZNKSt6vectorIN5boost10shared_ptrIN5caffe4BlobIfEEEESaIS5_EE4sizeEv>
  40aaf9:	48 89 45 e0          	mov    %rax,-0x20(%rbp)
  40aafd:	48 8b 45 c8          	mov    -0x38(%rbp),%rax
  40ab01:	48 8b 55 d8          	mov    -0x28(%rbp),%rdx
  40ab05:	48 89 d6             	mov    %rdx,%rsi
  40ab08:	48 89 c7             	mov    %rax,%rdi
  40ab0b:	e8 04 09 00 00       	callq  40b414 <_ZNSt12_Vector_baseIN5boost10shared_ptrIN5caffe4BlobIfEEEESaIS5_EE11_M_allocateEm>
  40ab10:	48 89 45 e8          	mov    %rax,-0x18(%rbp)
  40ab14:	48 8b 45 e8          	mov    -0x18(%rbp),%rax
  40ab18:	48 89 45 d0          	mov    %rax,-0x30(%rbp)
  40ab1c:	48 8b 45 c8          	mov    -0x38(%rbp),%rax
  40ab20:	48 89 c7             	mov    %rax,%rdi
  40ab23:	e8 12 f6 ff ff       	callq  40a13a <_ZNSt12_Vector_baseIN5boost10shared_ptrIN5caffe4BlobIfEEEESaIS5_EE19_M_get_Tp_allocatorEv>
  40ab28:	48 89 c1             	mov    %rax,%rcx
  40ab2b:	48 8b 45 c8          	mov    -0x38(%rbp),%rax
  40ab2f:	48 8b 70 08          	mov    0x8(%rax),%rsi
  40ab33:	48 8b 45 c8          	mov    -0x38(%rbp),%rax
  40ab37:	48 8b 00             	mov    (%rax),%rax
  40ab3a:	48 8b 55 e8          	mov    -0x18(%rbp),%rdx
  40ab3e:	48 89 c7             	mov    %rax,%rdi
  40ab41:	e8 01 09 00 00       	callq  40b447 <_ZSt34__uninitialized_move_if_noexcept_aIPN5boost10shared_ptrIN5caffe4BlobIfEEEES6_SaIS5_EET0_T_S9_S8_RT1_>
  40ab46:	48 89 45 d0          	mov    %rax,-0x30(%rbp)
  40ab4a:	48 8b 45 c8          	mov    -0x38(%rbp),%rax
  40ab4e:	48 89 c7             	mov    %rax,%rdi
  40ab51:	e8 e4 f5 ff ff       	callq  40a13a <_ZNSt12_Vector_baseIN5boost10shared_ptrIN5caffe4BlobIfEEEESaIS5_EE19_M_get_Tp_allocatorEv>
  40ab56:	48 89 c2             	mov    %rax,%rdx
  40ab59:	48 8b 4d c0          	mov    -0x40(%rbp),%rcx
  40ab5d:	48 8b 45 d0          	mov    -0x30(%rbp),%rax
  40ab61:	48 89 ce             	mov    %rcx,%rsi
  40ab64:	48 89 c7             	mov    %rax,%rdi
  40ab67:	e8 92 07 00 00       	callq  40b2fe <_ZSt27__uninitialized_default_n_aIPN5boost10shared_ptrIN5caffe4BlobIfEEEEmS5_ET_S7_T0_RSaIT1_E>
  40ab6c:	48 89 45 d0          	mov    %rax,-0x30(%rbp)
  40ab70:	48 8b 45 c8          	mov    -0x38(%rbp),%rax
  40ab74:	48 89 c7             	mov    %rax,%rdi
  40ab77:	e8 be f5 ff ff       	callq  40a13a <_ZNSt12_Vector_baseIN5boost10shared_ptrIN5caffe4BlobIfEEEESaIS5_EE19_M_get_Tp_allocatorEv>
  40ab7c:	48 89 c2             	mov    %rax,%rdx
  40ab7f:	48 8b 45 c8          	mov    -0x38(%rbp),%rax
  40ab83:	48 8b 48 08          	mov    0x8(%rax),%rcx
  40ab87:	48 8b 45 c8          	mov    -0x38(%rbp),%rax
  40ab8b:	48 8b 00             	mov    (%rax),%rax
  40ab8e:	48 89 ce             	mov    %rcx,%rsi
  40ab91:	48 89 c7             	mov    %rax,%rdi
  40ab94:	e8 af f5 ff ff       	callq  40a148 <_ZSt8_DestroyIPN5boost10shared_ptrIN5caffe4BlobIfEEEES5_EvT_S7_RSaIT0_E>
  40ab99:	48 8b 45 c8          	mov    -0x38(%rbp),%rax
  40ab9d:	48 8b 40 10          	mov    0x10(%rax),%rax
  40aba1:	48 89 c2             	mov    %rax,%rdx
  40aba4:	48 8b 45 c8          	mov    -0x38(%rbp),%rax
  40aba8:	48 8b 00             	mov    (%rax),%rax
  40abab:	48 29 c2             	sub    %rax,%rdx
  40abae:	48 89 d0             	mov    %rdx,%rax
  40abb1:	48 c1 f8 04          	sar    $0x4,%rax
  40abb5:	48 89 c2             	mov    %rax,%rdx
  40abb8:	48 8b 45 c8          	mov    -0x38(%rbp),%rax
  40abbc:	48 8b 08             	mov    (%rax),%rcx
  40abbf:	48 8b 45 c8          	mov    -0x38(%rbp),%rax
  40abc3:	48 89 ce             	mov    %rcx,%rsi
  40abc6:	48 89 c7             	mov    %rax,%rdi
  40abc9:	e8 a6 01 00 00       	callq  40ad74 <_ZNSt12_Vector_baseIN5boost10shared_ptrIN5caffe4BlobIfEEEESaIS5_EE13_M_deallocateEPS5_m>
  40abce:	48 8b 45 c8          	mov    -0x38(%rbp),%rax
  40abd2:	48 8b 55 e8          	mov    -0x18(%rbp),%rdx
  40abd6:	48 89 10             	mov    %rdx,(%rax)
  40abd9:	48 8b 45 c8          	mov    -0x38(%rbp),%rax
  40abdd:	48 8b 55 d0          	mov    -0x30(%rbp),%rdx
  40abe1:	48 89 50 08          	mov    %rdx,0x8(%rax)
  40abe5:	48 8b 45 d8          	mov    -0x28(%rbp),%rax
  40abe9:	48 c1 e0 04          	shl    $0x4,%rax
  40abed:	48 89 c2             	mov    %rax,%rdx
  40abf0:	48 8b 45 e8          	mov    -0x18(%rbp),%rax
  40abf4:	48 01 c2             	add    %rax,%rdx
  40abf7:	48 8b 45 c8          	mov    -0x38(%rbp),%rax
  40abfb:	48 89 50 10          	mov    %rdx,0x10(%rax)
  40abff:	eb 59                	jmp    40ac5a <_ZNSt6vectorIN5boost10shared_ptrIN5caffe4BlobIfEEEESaIS5_EE17_M_default_appendEm+0x1fe>
  40ac01:	48 89 c7             	mov    %rax,%rdi
  40ac04:	e8 27 a1 ff ff       	callq  404d30 <__cxa_begin_catch@plt>
  40ac09:	48 8b 45 c8          	mov    -0x38(%rbp),%rax
  40ac0d:	48 89 c7             	mov    %rax,%rdi
  40ac10:	e8 25 f5 ff ff       	callq  40a13a <_ZNSt12_Vector_baseIN5boost10shared_ptrIN5caffe4BlobIfEEEESaIS5_EE19_M_get_Tp_allocatorEv>
  40ac15:	48 89 c2             	mov    %rax,%rdx
  40ac18:	48 8b 4d d0          	mov    -0x30(%rbp),%rcx
  40ac1c:	48 8b 45 e8          	mov    -0x18(%rbp),%rax
  40ac20:	48 89 ce             	mov    %rcx,%rsi
  40ac23:	48 89 c7             	mov    %rax,%rdi
  40ac26:	e8 1d f5 ff ff       	callq  40a148 <_ZSt8_DestroyIPN5boost10shared_ptrIN5caffe4BlobIfEEEES5_EvT_S7_RSaIT0_E>
  40ac2b:	48 8b 45 c8          	mov    -0x38(%rbp),%rax
  40ac2f:	48 8b 55 d8          	mov    -0x28(%rbp),%rdx
  40ac33:	48 8b 4d e8          	mov    -0x18(%rbp),%rcx
  40ac37:	48 89 ce             	mov    %rcx,%rsi
  40ac3a:	48 89 c7             	mov    %rax,%rdi
  40ac3d:	e8 32 01 00 00       	callq  40ad74 <_ZNSt12_Vector_baseIN5boost10shared_ptrIN5caffe4BlobIfEEEESaIS5_EE13_M_deallocateEPS5_m>
  40ac42:	e8 29 a4 ff ff       	callq  405070 <__cxa_rethrow@plt>
  40ac47:	48 89 c3             	mov    %rax,%rbx
  40ac4a:	e8 f1 a3 ff ff       	callq  405040 <__cxa_end_catch@plt>
  40ac4f:	48 89 d8             	mov    %rbx,%rax
  40ac52:	48 89 c7             	mov    %rax,%rdi
  40ac55:	e8 56 a3 ff ff       	callq  404fb0 <_Unwind_Resume@plt>
  40ac5a:	90                   	nop
  40ac5b:	48 83 c4 38          	add    $0x38,%rsp
  40ac5f:	5b                   	pop    %rbx
  40ac60:	5d                   	pop    %rbp
  40ac61:	c3                   	retq   

000000000040ac62 <_ZNSt6vectorIN5boost10shared_ptrIN5caffe4BlobIfEEEESaIS5_EE15_M_erase_at_endEPS5_>:
  40ac62:	55                   	push   %rbp
  40ac63:	48 89 e5             	mov    %rsp,%rbp
  40ac66:	48 83 ec 10          	sub    $0x10,%rsp
  40ac6a:	48 89 7d f8          	mov    %rdi,-0x8(%rbp)
  40ac6e:	48 89 75 f0          	mov    %rsi,-0x10(%rbp)
  40ac72:	48 8b 45 f8          	mov    -0x8(%rbp),%rax
  40ac76:	48 89 c7             	mov    %rax,%rdi
  40ac79:	e8 bc f4 ff ff       	callq  40a13a <_ZNSt12_Vector_baseIN5boost10shared_ptrIN5caffe4BlobIfEEEESaIS5_EE19_M_get_Tp_allocatorEv>
  40ac7e:	48 89 c2             	mov    %rax,%rdx
  40ac81:	48 8b 45 f8          	mov    -0x8(%rbp),%rax
  40ac85:	48 8b 48 08          	mov    0x8(%rax),%rcx
  40ac89:	48 8b 45 f0          	mov    -0x10(%rbp),%rax
  40ac8d:	48 89 ce             	mov    %rcx,%rsi
  40ac90:	48 89 c7             	mov    %rax,%rdi
  40ac93:	e8 b0 f4 ff ff       	callq  40a148 <_ZSt8_DestroyIPN5boost10shared_ptrIN5caffe4BlobIfEEEES5_EvT_S7_RSaIT0_E>
  40ac98:	48 8b 45 f8          	mov    -0x8(%rbp),%rax
  40ac9c:	48 8b 55 f0          	mov    -0x10(%rbp),%rdx
  40aca0:	48 89 50 08          	mov    %rdx,0x8(%rax)
  40aca4:	90                   	nop
  40aca5:	c9                   	leaveq 
  40aca6:	c3                   	retq   
  40aca7:	90                   	nop

000000000040aca8 <_ZN5boost10shared_ptrIN5caffe4BlobIfEEEC1IS3_EEPT_>:
  40aca8:	55                   	push   %rbp
  40aca9:	48 89 e5             	mov    %rsp,%rbp
  40acac:	53                   	push   %rbx
  40acad:	48 83 ec 18          	sub    $0x18,%rsp
  40acb1:	48 89 7d e8          	mov    %rdi,-0x18(%rbp)
  40acb5:	48 89 75 e0          	mov    %rsi,-0x20(%rbp)
  40acb9:	48 8b 45 e8          	mov    -0x18(%rbp),%rax
  40acbd:	48 8b 55 e0          	mov    -0x20(%rbp),%rdx
  40acc1:	48 89 10             	mov    %rdx,(%rax)
  40acc4:	48 8b 45 e8          	mov    -0x18(%rbp),%rax
  40acc8:	48 83 c0 08          	add    $0x8,%rax
  40accc:	48 89 c7             	mov    %rax,%rdi
  40accf:	e8 c8 a9 ff ff       	callq  40569c <_ZN5boost6detail12shared_countC1Ev>
  40acd4:	48 8b 45 e8          	mov    -0x18(%rbp),%rax
  40acd8:	48 8d 50 08          	lea    0x8(%rax),%rdx
  40acdc:	48 8b 4d e0          	mov    -0x20(%rbp),%rcx
  40ace0:	48 8b 45 e8          	mov    -0x18(%rbp),%rax
  40ace4:	48 89 ce             	mov    %rcx,%rsi
  40ace7:	48 89 c7             	mov    %rax,%rdi
  40acea:	e8 ac 07 00 00       	callq  40b49b <_ZN5boost6detail20sp_pointer_constructIN5caffe4BlobIfEES4_EEvPNS_10shared_ptrIT_EEPT0_RNS0_12shared_countE>
  40acef:	eb 1e                	jmp    40ad0f <_ZN5boost10shared_ptrIN5caffe4BlobIfEEEC1IS3_EEPT_+0x67>
  40acf1:	48 89 c3             	mov    %rax,%rbx
  40acf4:	48 8b 45 e8          	mov    -0x18(%rbp),%rax
  40acf8:	48 83 c0 08          	add    $0x8,%rax
  40acfc:	48 89 c7             	mov    %rax,%rdi
  40acff:	e8 ae a9 ff ff       	callq  4056b2 <_ZN5boost6detail12shared_countD1Ev>
  40ad04:	48 89 d8             	mov    %rbx,%rax
  40ad07:	48 89 c7             	mov    %rax,%rdi
  40ad0a:	e8 a1 a2 ff ff       	callq  404fb0 <_Unwind_Resume@plt>
  40ad0f:	48 83 c4 18          	add    $0x18,%rsp
  40ad13:	5b                   	pop    %rbx
  40ad14:	5d                   	pop    %rbp
  40ad15:	c3                   	retq   

000000000040ad16 <_ZN5boost10shared_ptrIN5caffe4BlobIfEEE4swapERS4_>:
  40ad16:	55                   	push   %rbp
  40ad17:	48 89 e5             	mov    %rsp,%rbp
  40ad1a:	48 83 ec 10          	sub    $0x10,%rsp
  40ad1e:	48 89 7d f8          	mov    %rdi,-0x8(%rbp)
  40ad22:	48 89 75 f0          	mov    %rsi,-0x10(%rbp)
  40ad26:	48 8b 55 f0          	mov    -0x10(%rbp),%rdx
  40ad2a:	48 8b 45 f8          	mov    -0x8(%rbp),%rax
  40ad2e:	48 89 d6             	mov    %rdx,%rsi
  40ad31:	48 89 c7             	mov    %rax,%rdi
  40ad34:	e8 f8 07 00 00       	callq  40b531 <_ZSt4swapIPN5caffe4BlobIfEEENSt9enable_ifIXsrSt6__and_IJSt21is_move_constructibleIT_ESt18is_move_assignableIS7_EEE5valueEvE4typeERS7_SE_>
  40ad39:	48 8b 45 f0          	mov    -0x10(%rbp),%rax
  40ad3d:	48 8d 50 08          	lea    0x8(%rax),%rdx
  40ad41:	48 8b 45 f8          	mov    -0x8(%rbp),%rax
  40ad45:	48 83 c0 08          	add    $0x8,%rax
  40ad49:	48 89 d6             	mov    %rdx,%rsi
  40ad4c:	48 89 c7             	mov    %rax,%rdi
  40ad4f:	e8 88 a9 ff ff       	callq  4056dc <_ZN5boost6detail12shared_count4swapERS1_>
  40ad54:	90                   	nop
  40ad55:	c9                   	leaveq 
  40ad56:	c3                   	retq   
  40ad57:	90                   	nop

000000000040ad58 <_ZNSaIN5boost10shared_ptrIN5caffe4BlobIfEEEEED1Ev>:
  40ad58:	55                   	push   %rbp
  40ad59:	48 89 e5             	mov    %rsp,%rbp
  40ad5c:	48 83 ec 10          	sub    $0x10,%rsp
  40ad60:	48 89 7d f8          	mov    %rdi,-0x8(%rbp)
  40ad64:	48 8b 45 f8          	mov    -0x8(%rbp),%rax
  40ad68:	48 89 c7             	mov    %rax,%rdi
  40ad6b:	e8 36 08 00 00       	callq  40b5a6 <_ZN9__gnu_cxx13new_allocatorIN5boost10shared_ptrIN5caffe4BlobIfEEEEED1Ev>
  40ad70:	90                   	nop
  40ad71:	c9                   	leaveq 
  40ad72:	c3                   	retq   
  40ad73:	90                   	nop

000000000040ad74 <_ZNSt12_Vector_baseIN5boost10shared_ptrIN5caffe4BlobIfEEEESaIS5_EE13_M_deallocateEPS5_m>:
  40ad74:	55                   	push   %rbp
  40ad75:	48 89 e5             	mov    %rsp,%rbp
  40ad78:	48 83 ec 20          	sub    $0x20,%rsp
  40ad7c:	48 89 7d f8          	mov    %rdi,-0x8(%rbp)
  40ad80:	48 89 75 f0          	mov    %rsi,-0x10(%rbp)
  40ad84:	48 89 55 e8          	mov    %rdx,-0x18(%rbp)
  40ad88:	48 83 7d f0 00       	cmpq   $0x0,-0x10(%rbp)
  40ad8d:	74 17                	je     40ada6 <_ZNSt12_Vector_baseIN5boost10shared_ptrIN5caffe4BlobIfEEEESaIS5_EE13_M_deallocateEPS5_m+0x32>
  40ad8f:	48 8b 45 f8          	mov    -0x8(%rbp),%rax
  40ad93:	48 8b 55 e8          	mov    -0x18(%rbp),%rdx
  40ad97:	48 8b 4d f0          	mov    -0x10(%rbp),%rcx
  40ad9b:	48 89 ce             	mov    %rcx,%rsi
  40ad9e:	48 89 c7             	mov    %rax,%rdi
  40ada1:	e8 0b 08 00 00       	callq  40b5b1 <_ZNSt16allocator_traitsISaIN5boost10shared_ptrIN5caffe4BlobIfEEEEEE10deallocateERS6_PS5_m>
  40ada6:	90                   	nop
  40ada7:	c9                   	leaveq 
  40ada8:	c3                   	retq   

000000000040ada9 <_ZSt8_DestroyIPN5boost10shared_ptrIN5caffe4BlobIfEEEEEvT_S7_>:
  40ada9:	55                   	push   %rbp
  40adaa:	48 89 e5             	mov    %rsp,%rbp
  40adad:	48 83 ec 10          	sub    $0x10,%rsp
  40adb1:	48 89 7d f8          	mov    %rdi,-0x8(%rbp)
  40adb5:	48 89 75 f0          	mov    %rsi,-0x10(%rbp)
  40adb9:	48 8b 55 f0          	mov    -0x10(%rbp),%rdx
  40adbd:	48 8b 45 f8          	mov    -0x8(%rbp),%rax
  40adc1:	48 89 d6             	mov    %rdx,%rsi
  40adc4:	48 89 c7             	mov    %rax,%rdi
  40adc7:	e8 13 08 00 00       	callq  40b5df <_ZNSt12_Destroy_auxILb0EE9__destroyIPN5boost10shared_ptrIN5caffe4BlobIfEEEEEEvT_S9_>
  40adcc:	90                   	nop
  40adcd:	c9                   	leaveq 
  40adce:	c3                   	retq   
  40adcf:	90                   	nop

000000000040add0 <_ZNSaImED1Ev>:
  40add0:	55                   	push   %rbp
  40add1:	48 89 e5             	mov    %rsp,%rbp
  40add4:	48 83 ec 10          	sub    $0x10,%rsp
  40add8:	48 89 7d f8          	mov    %rdi,-0x8(%rbp)
  40addc:	48 8b 45 f8          	mov    -0x8(%rbp),%rax
  40ade0:	48 89 c7             	mov    %rax,%rdi
  40ade3:	e8 30 08 00 00       	callq  40b618 <_ZN9__gnu_cxx13new_allocatorImED1Ev>
  40ade8:	90                   	nop
  40ade9:	c9                   	leaveq 
  40adea:	c3                   	retq   
  40adeb:	90                   	nop

000000000040adec <_ZNSt13_Bvector_baseISaIbEE13_M_deallocateEv>:
  40adec:	55                   	push   %rbp
  40aded:	48 89 e5             	mov    %rsp,%rbp
  40adf0:	48 83 ec 20          	sub    $0x20,%rsp
  40adf4:	48 89 7d e8          	mov    %rdi,-0x18(%rbp)
  40adf8:	48 8b 45 e8          	mov    -0x18(%rbp),%rax
  40adfc:	48 8b 00             	mov    (%rax),%rax
  40adff:	48 85 c0             	test   %rax,%rax
  40ae02:	74 4e                	je     40ae52 <_ZNSt13_Bvector_baseISaIbEE13_M_deallocateEv+0x66>
  40ae04:	48 8b 45 e8          	mov    -0x18(%rbp),%rax
  40ae08:	48 89 c7             	mov    %rax,%rdi
  40ae0b:	e8 14 08 00 00       	callq  40b624 <_ZNKSt13_Bvector_baseISaIbEE13_Bvector_impl11_M_end_addrEv>
  40ae10:	48 89 c2             	mov    %rax,%rdx
  40ae13:	48 8b 45 e8          	mov    -0x18(%rbp),%rax
  40ae17:	48 8b 00             	mov    (%rax),%rax
  40ae1a:	48 29 c2             	sub    %rax,%rdx
  40ae1d:	48 89 d0             	mov    %rdx,%rax
  40ae20:	48 c1 f8 03          	sar    $0x3,%rax
  40ae24:	48 89 45 f8          	mov    %rax,-0x8(%rbp)
  40ae28:	48 8b 45 e8          	mov    -0x18(%rbp),%rax
  40ae2c:	48 8b 40 20          	mov    0x20(%rax),%rax
  40ae30:	48 8b 55 f8          	mov    -0x8(%rbp),%rdx
  40ae34:	48 c1 e2 03          	shl    $0x3,%rdx
  40ae38:	48 f7 da             	neg    %rdx
  40ae3b:	48 8d 0c 10          	lea    (%rax,%rdx,1),%rcx
  40ae3f:	48 8b 45 e8          	mov    -0x18(%rbp),%rax
  40ae43:	48 8b 55 f8          	mov    -0x8(%rbp),%rdx
  40ae47:	48 89 ce             	mov    %rcx,%rsi
  40ae4a:	48 89 c7             	mov    %rax,%rdi
  40ae4d:	e8 0c 08 00 00       	callq  40b65e <_ZNSt16allocator_traitsISaImEE10deallocateERS0_Pmm>
  40ae52:	90                   	nop
  40ae53:	c9                   	leaveq 
  40ae54:	c3                   	retq   
  40ae55:	90                   	nop

000000000040ae56 <_ZNSaIfED1Ev>:
  40ae56:	55                   	push   %rbp
  40ae57:	48 89 e5             	mov    %rsp,%rbp
  40ae5a:	48 83 ec 10          	sub    $0x10,%rsp
  40ae5e:	48 89 7d f8          	mov    %rdi,-0x8(%rbp)
  40ae62:	48 8b 45 f8          	mov    -0x8(%rbp),%rax
  40ae66:	48 89 c7             	mov    %rax,%rdi
  40ae69:	e8 1e 08 00 00       	callq  40b68c <_ZN9__gnu_cxx13new_allocatorIfED1Ev>
  40ae6e:	90                   	nop
  40ae6f:	c9                   	leaveq 
  40ae70:	c3                   	retq   
  40ae71:	90                   	nop

000000000040ae72 <_ZNSt12_Vector_baseIfSaIfEE13_M_deallocateEPfm>:
  40ae72:	55                   	push   %rbp
  40ae73:	48 89 e5             	mov    %rsp,%rbp
  40ae76:	48 83 ec 20          	sub    $0x20,%rsp
  40ae7a:	48 89 7d f8          	mov    %rdi,-0x8(%rbp)
  40ae7e:	48 89 75 f0          	mov    %rsi,-0x10(%rbp)
  40ae82:	48 89 55 e8          	mov    %rdx,-0x18(%rbp)
  40ae86:	48 83 7d f0 00       	cmpq   $0x0,-0x10(%rbp)
  40ae8b:	74 17                	je     40aea4 <_ZNSt12_Vector_baseIfSaIfEE13_M_deallocateEPfm+0x32>
  40ae8d:	48 8b 45 f8          	mov    -0x8(%rbp),%rax
  40ae91:	48 8b 55 e8          	mov    -0x18(%rbp),%rdx
  40ae95:	48 8b 4d f0          	mov    -0x10(%rbp),%rcx
  40ae99:	48 89 ce             	mov    %rcx,%rsi
  40ae9c:	48 89 c7             	mov    %rax,%rdi
  40ae9f:	e8 f3 07 00 00       	callq  40b697 <_ZNSt16allocator_traitsISaIfEE10deallocateERS0_Pfm>
  40aea4:	90                   	nop
  40aea5:	c9                   	leaveq 
  40aea6:	c3                   	retq   

000000000040aea7 <_ZSt8_DestroyIPfEvT_S1_>:
  40aea7:	55                   	push   %rbp
  40aea8:	48 89 e5             	mov    %rsp,%rbp
  40aeab:	48 83 ec 10          	sub    $0x10,%rsp
  40aeaf:	48 89 7d f8          	mov    %rdi,-0x8(%rbp)
  40aeb3:	48 89 75 f0          	mov    %rsi,-0x10(%rbp)
  40aeb7:	48 8b 55 f0          	mov    -0x10(%rbp),%rdx
  40aebb:	48 8b 45 f8          	mov    -0x8(%rbp),%rax
  40aebf:	48 89 d6             	mov    %rdx,%rsi
  40aec2:	48 89 c7             	mov    %rax,%rdi
  40aec5:	e8 fb 07 00 00       	callq  40b6c5 <_ZNSt12_Destroy_auxILb1EE9__destroyIPfEEvT_S3_>
  40aeca:	90                   	nop
  40aecb:	c9                   	leaveq 
  40aecc:	c3                   	retq   

000000000040aecd <_ZN6google22MakeCheckOpValueStringImEEvPSoRKT_>:
  40aecd:	55                   	push   %rbp
  40aece:	48 89 e5             	mov    %rsp,%rbp
  40aed1:	48 83 ec 10          	sub    $0x10,%rsp
  40aed5:	48 89 7d f8          	mov    %rdi,-0x8(%rbp)
  40aed9:	48 89 75 f0          	mov    %rsi,-0x10(%rbp)
  40aedd:	48 8b 45 f0          	mov    -0x10(%rbp),%rax
  40aee1:	48 8b 10             	mov    (%rax),%rdx
  40aee4:	48 8b 45 f8          	mov    -0x8(%rbp),%rax
  40aee8:	48 89 d6             	mov    %rdx,%rsi
  40aeeb:	48 89 c7             	mov    %rax,%rdi
  40aeee:	e8 cd a2 ff ff       	callq  4051c0 <_ZNSolsEm@plt>
  40aef3:	90                   	nop
  40aef4:	c9                   	leaveq 
  40aef5:	c3                   	retq   

000000000040aef6 <_ZNSt6vectorIfSaIfEE3endEv>:
  40aef6:	55                   	push   %rbp
  40aef7:	48 89 e5             	mov    %rsp,%rbp
  40aefa:	48 83 ec 20          	sub    $0x20,%rsp
  40aefe:	48 89 7d e8          	mov    %rdi,-0x18(%rbp)
  40af02:	64 48 8b 04 25 28 00 	mov    %fs:0x28,%rax
  40af09:	00 00 
  40af0b:	48 89 45 f8          	mov    %rax,-0x8(%rbp)
  40af0f:	31 c0                	xor    %eax,%eax
  40af11:	48 8b 45 e8          	mov    -0x18(%rbp),%rax
  40af15:	48 8d 50 08          	lea    0x8(%rax),%rdx
  40af19:	48 8d 45 f0          	lea    -0x10(%rbp),%rax
  40af1d:	48 89 d6             	mov    %rdx,%rsi
  40af20:	48 89 c7             	mov    %rax,%rdi
  40af23:	e8 ac 07 00 00       	callq  40b6d4 <_ZN9__gnu_cxx17__normal_iteratorIPfSt6vectorIfSaIfEEEC1ERKS1_>
  40af28:	48 8b 45 f0          	mov    -0x10(%rbp),%rax
  40af2c:	48 8b 4d f8          	mov    -0x8(%rbp),%rcx
  40af30:	64 48 33 0c 25 28 00 	xor    %fs:0x28,%rcx
  40af37:	00 00 
  40af39:	74 05                	je     40af40 <_ZNSt6vectorIfSaIfEE3endEv+0x4a>
  40af3b:	e8 e0 9e ff ff       	callq  404e20 <__stack_chk_fail@plt>
  40af40:	c9                   	leaveq 
  40af41:	c3                   	retq   

000000000040af42 <_ZN9__gnu_cxx17__normal_iteratorIPKfSt6vectorIfSaIfEEEC1IPfEERKNS0_IT_NS_11__enable_ifIXsrSt10__are_sameIS9_S8_E7__valueES5_E6__typeEEE>:
  40af42:	55                   	push   %rbp
  40af43:	48 89 e5             	mov    %rsp,%rbp
  40af46:	48 83 ec 10          	sub    $0x10,%rsp
  40af4a:	48 89 7d f8          	mov    %rdi,-0x8(%rbp)
  40af4e:	48 89 75 f0          	mov    %rsi,-0x10(%rbp)
  40af52:	48 8b 45 f0          	mov    -0x10(%rbp),%rax
  40af56:	48 89 c7             	mov    %rax,%rdi
  40af59:	e8 94 07 00 00       	callq  40b6f2 <_ZNK9__gnu_cxx17__normal_iteratorIPfSt6vectorIfSaIfEEE4baseEv>
  40af5e:	48 8b 10             	mov    (%rax),%rdx
  40af61:	48 8b 45 f8          	mov    -0x8(%rbp),%rax
  40af65:	48 89 10             	mov    %rdx,(%rax)
  40af68:	90                   	nop
  40af69:	c9                   	leaveq 
  40af6a:	c3                   	retq   
  40af6b:	90                   	nop

000000000040af6c <_ZNSt6vectorIfSaIfEE6insertEN9__gnu_cxx17__normal_iteratorIPKfS1_EEmRS4_>:
  40af6c:	55                   	push   %rbp
  40af6d:	48 89 e5             	mov    %rsp,%rbp
  40af70:	48 83 ec 40          	sub    $0x40,%rsp
  40af74:	48 89 7d d8          	mov    %rdi,-0x28(%rbp)
  40af78:	48 89 75 d0          	mov    %rsi,-0x30(%rbp)
  40af7c:	48 89 55 c8          	mov    %rdx,-0x38(%rbp)
  40af80:	48 89 4d c0          	mov    %rcx,-0x40(%rbp)
  40af84:	64 48 8b 04 25 28 00 	mov    %fs:0x28,%rax
  40af8b:	00 00 
  40af8d:	48 89 45 f8          	mov    %rax,-0x8(%rbp)
  40af91:	31 c0                	xor    %eax,%eax
  40af93:	48 8b 45 d8          	mov    -0x28(%rbp),%rax
  40af97:	48 89 c7             	mov    %rax,%rdi
  40af9a:	e8 61 07 00 00       	callq  40b700 <_ZNKSt6vectorIfSaIfEE6cbeginEv>
  40af9f:	48 89 45 e8          	mov    %rax,-0x18(%rbp)
  40afa3:	48 8d 55 e8          	lea    -0x18(%rbp),%rdx
  40afa7:	48 8d 45 d0          	lea    -0x30(%rbp),%rax
  40afab:	48 89 d6             	mov    %rdx,%rsi
  40afae:	48 89 c7             	mov    %rax,%rdi
  40afb1:	e8 9d 07 00 00       	callq  40b753 <_ZN9__gnu_cxxmiIPKfSt6vectorIfSaIfEEEENS_17__normal_iteratorIT_T0_E15difference_typeERKS9_SC_>
  40afb6:	48 89 45 f0          	mov    %rax,-0x10(%rbp)
  40afba:	48 8b 45 d8          	mov    -0x28(%rbp),%rax
  40afbe:	48 89 c7             	mov    %rax,%rdi
  40afc1:	e8 78 0c 00 00       	callq  40bc3e <_ZNSt6vectorIfSaIfEE5beginEv>
  40afc6:	48 89 45 e8          	mov    %rax,-0x18(%rbp)
  40afca:	48 8b 55 f0          	mov    -0x10(%rbp),%rdx
  40afce:	48 8d 45 e8          	lea    -0x18(%rbp),%rax
  40afd2:	48 89 d6             	mov    %rdx,%rsi
  40afd5:	48 89 c7             	mov    %rax,%rdi
  40afd8:	e8 a9 0c 00 00       	callq  40bc86 <_ZNK9__gnu_cxx17__normal_iteratorIPfSt6vectorIfSaIfEEEplEl>
  40afdd:	48 89 c6             	mov    %rax,%rsi
  40afe0:	48 8b 4d c0          	mov    -0x40(%rbp),%rcx
  40afe4:	48 8b 55 c8          	mov    -0x38(%rbp),%rdx
  40afe8:	48 8b 45 d8          	mov    -0x28(%rbp),%rax
  40afec:	48 89 c7             	mov    %rax,%rdi
  40afef:	e8 a2 07 00 00       	callq  40b796 <_ZNSt6vectorIfSaIfEE14_M_fill_insertEN9__gnu_cxx17__normal_iteratorIPfS1_EEmRKf>
  40aff4:	48 8b 45 d8          	mov    -0x28(%rbp),%rax
  40aff8:	48 89 c7             	mov    %rax,%rdi
  40affb:	e8 3e 0c 00 00       	callq  40bc3e <_ZNSt6vectorIfSaIfEE5beginEv>
  40b000:	48 89 45 e8          	mov    %rax,-0x18(%rbp)
  40b004:	48 8b 55 f0          	mov    -0x10(%rbp),%rdx
  40b008:	48 8d 45 e8          	lea    -0x18(%rbp),%rax
  40b00c:	48 89 d6             	mov    %rdx,%rsi
  40b00f:	48 89 c7             	mov    %rax,%rdi
  40b012:	e8 6f 0c 00 00       	callq  40bc86 <_ZNK9__gnu_cxx17__normal_iteratorIPfSt6vectorIfSaIfEEEplEl>
  40b017:	48 8b 4d f8          	mov    -0x8(%rbp),%rcx
  40b01b:	64 48 33 0c 25 28 00 	xor    %fs:0x28,%rcx
  40b022:	00 00 
  40b024:	74 05                	je     40b02b <_ZNSt6vectorIfSaIfEE6insertEN9__gnu_cxx17__normal_iteratorIPKfS1_EEmRS4_+0xbf>
  40b026:	e8 f5 9d ff ff       	callq  404e20 <__stack_chk_fail@plt>
  40b02b:	c9                   	leaveq 
  40b02c:	c3                   	retq   
  40b02d:	90                   	nop

000000000040b02e <_ZNSt6vectorIfSaIfEE15_M_erase_at_endEPf>:
  40b02e:	55                   	push   %rbp
  40b02f:	48 89 e5             	mov    %rsp,%rbp
  40b032:	48 83 ec 10          	sub    $0x10,%rsp
  40b036:	48 89 7d f8          	mov    %rdi,-0x8(%rbp)
  40b03a:	48 89 75 f0          	mov    %rsi,-0x10(%rbp)
  40b03e:	48 8b 45 f8          	mov    -0x8(%rbp),%rax
  40b042:	48 89 c7             	mov    %rax,%rdi
  40b045:	e8 d8 f1 ff ff       	callq  40a222 <_ZNSt12_Vector_baseIfSaIfEE19_M_get_Tp_allocatorEv>
  40b04a:	48 89 c2             	mov    %rax,%rdx
  40b04d:	48 8b 45 f8          	mov    -0x8(%rbp),%rax
  40b051:	48 8b 48 08          	mov    0x8(%rax),%rcx
  40b055:	48 8b 45 f0          	mov    -0x10(%rbp),%rax
  40b059:	48 89 ce             	mov    %rcx,%rsi
  40b05c:	48 89 c7             	mov    %rax,%rdi
  40b05f:	e8 cc f1 ff ff       	callq  40a230 <_ZSt8_DestroyIPffEvT_S1_RSaIT0_E>
  40b064:	48 8b 45 f8          	mov    -0x8(%rbp),%rax
  40b068:	48 8b 55 f0          	mov    -0x10(%rbp),%rdx
  40b06c:	48 89 50 08          	mov    %rdx,0x8(%rax)
  40b070:	90                   	nop
  40b071:	c9                   	leaveq 
  40b072:	c3                   	retq   
  40b073:	90                   	nop

000000000040b074 <_ZNK5caffe4BlobIfE12shape_stringB5cxx11Ev>:
  40b074:	55                   	push   %rbp
  40b075:	48 89 e5             	mov    %rsp,%rbp
  40b078:	53                   	push   %rbx
  40b079:	48 81 ec a8 01 00 00 	sub    $0x1a8,%rsp
  40b080:	48 89 bd 58 fe ff ff 	mov    %rdi,-0x1a8(%rbp)
  40b087:	48 89 b5 50 fe ff ff 	mov    %rsi,-0x1b0(%rbp)
  40b08e:	64 48 8b 04 25 28 00 	mov    %fs:0x28,%rax
  40b095:	00 00 
  40b097:	48 89 45 e8          	mov    %rax,-0x18(%rbp)
  40b09b:	31 c0                	xor    %eax,%eax
  40b09d:	48 8d 85 70 fe ff ff 	lea    -0x190(%rbp),%rax
  40b0a4:	be 10 00 00 00       	mov    $0x10,%esi
  40b0a9:	48 89 c7             	mov    %rax,%rdi
  40b0ac:	e8 3f a1 ff ff       	callq  4051f0 <_ZNSt7__cxx1119basic_ostringstreamIcSt11char_traitsIcESaIcEEC1ESt13_Ios_Openmode@plt>
  40b0b1:	c7 85 6c fe ff ff 00 	movl   $0x0,-0x194(%rbp)
  40b0b8:	00 00 00 
  40b0bb:	8b 85 6c fe ff ff    	mov    -0x194(%rbp),%eax
  40b0c1:	48 63 d8             	movslq %eax,%rbx
  40b0c4:	48 8b 85 50 fe ff ff 	mov    -0x1b0(%rbp),%rax
  40b0cb:	48 83 c0 30          	add    $0x30,%rax
  40b0cf:	48 89 c7             	mov    %rax,%rdi
  40b0d2:	e8 e3 f4 ff ff       	callq  40a5ba <_ZNKSt6vectorIiSaIiEE4sizeEv>
  40b0d7:	48 39 c3             	cmp    %rax,%rbx
  40b0da:	0f 92 c0             	setb   %al
  40b0dd:	84 c0                	test   %al,%al
  40b0df:	74 47                	je     40b128 <_ZNK5caffe4BlobIfE12shape_stringB5cxx11Ev+0xb4>
  40b0e1:	8b 85 6c fe ff ff    	mov    -0x194(%rbp),%eax
  40b0e7:	48 98                	cltq   
  40b0e9:	48 8b 95 50 fe ff ff 	mov    -0x1b0(%rbp),%rdx
  40b0f0:	48 83 c2 30          	add    $0x30,%rdx
  40b0f4:	48 89 c6             	mov    %rax,%rsi
  40b0f7:	48 89 d7             	mov    %rdx,%rdi
  40b0fa:	e8 79 f7 ff ff       	callq  40a878 <_ZNKSt6vectorIiSaIiEEixEm>
  40b0ff:	8b 10                	mov    (%rax),%edx
  40b101:	48 8d 85 70 fe ff ff 	lea    -0x190(%rbp),%rax
  40b108:	89 d6                	mov    %edx,%esi
  40b10a:	48 89 c7             	mov    %rax,%rdi
  40b10d:	e8 4e 9d ff ff       	callq  404e60 <_ZNSolsEi@plt>
  40b112:	be 40 da 40 00       	mov    $0x40da40,%esi
  40b117:	48 89 c7             	mov    %rax,%rdi
  40b11a:	e8 21 9e ff ff       	callq  404f40 <_ZStlsISt11char_traitsIcEERSt13basic_ostreamIcT_ES5_PKc@plt>
  40b11f:	83 85 6c fe ff ff 01 	addl   $0x1,-0x194(%rbp)
  40b126:	eb 93                	jmp    40b0bb <_ZNK5caffe4BlobIfE12shape_stringB5cxx11Ev+0x47>
  40b128:	48 8b 85 50 fe ff ff 	mov    -0x1b0(%rbp),%rax
  40b12f:	8b 58 48             	mov    0x48(%rax),%ebx
  40b132:	48 8d 85 70 fe ff ff 	lea    -0x190(%rbp),%rax
  40b139:	be 42 da 40 00       	mov    $0x40da42,%esi
  40b13e:	48 89 c7             	mov    %rax,%rdi
  40b141:	e8 fa 9d ff ff       	callq  404f40 <_ZStlsISt11char_traitsIcEERSt13basic_ostreamIcT_ES5_PKc@plt>
  40b146:	89 de                	mov    %ebx,%esi
  40b148:	48 89 c7             	mov    %rax,%rdi
  40b14b:	e8 10 9d ff ff       	callq  404e60 <_ZNSolsEi@plt>
  40b150:	be 44 da 40 00       	mov    $0x40da44,%esi
  40b155:	48 89 c7             	mov    %rax,%rdi
  40b158:	e8 e3 9d ff ff       	callq  404f40 <_ZStlsISt11char_traitsIcEERSt13basic_ostreamIcT_ES5_PKc@plt>
  40b15d:	48 8b 85 58 fe ff ff 	mov    -0x1a8(%rbp),%rax
  40b164:	48 8d 95 70 fe ff ff 	lea    -0x190(%rbp),%rdx
  40b16b:	48 89 d6             	mov    %rdx,%rsi
  40b16e:	48 89 c7             	mov    %rax,%rdi
  40b171:	e8 ca a0 ff ff       	callq  405240 <_ZNKSt7__cxx1119basic_ostringstreamIcSt11char_traitsIcESaIcEE3strEv@plt>
  40b176:	90                   	nop
  40b177:	48 8d 85 70 fe ff ff 	lea    -0x190(%rbp),%rax
  40b17e:	48 89 c7             	mov    %rax,%rdi
  40b181:	e8 6a 9f ff ff       	callq  4050f0 <_ZNSt7__cxx1119basic_ostringstreamIcSt11char_traitsIcESaIcEED1Ev@plt>
  40b186:	90                   	nop
  40b187:	48 8b 85 58 fe ff ff 	mov    -0x1a8(%rbp),%rax
  40b18e:	48 8b 4d e8          	mov    -0x18(%rbp),%rcx
  40b192:	64 48 33 0c 25 28 00 	xor    %fs:0x28,%rcx
  40b199:	00 00 
  40b19b:	74 24                	je     40b1c1 <_ZNK5caffe4BlobIfE12shape_stringB5cxx11Ev+0x14d>
  40b19d:	eb 1d                	jmp    40b1bc <_ZNK5caffe4BlobIfE12shape_stringB5cxx11Ev+0x148>
  40b19f:	48 89 c3             	mov    %rax,%rbx
  40b1a2:	48 8d 85 70 fe ff ff 	lea    -0x190(%rbp),%rax
  40b1a9:	48 89 c7             	mov    %rax,%rdi
  40b1ac:	e8 3f 9f ff ff       	callq  4050f0 <_ZNSt7__cxx1119basic_ostringstreamIcSt11char_traitsIcESaIcEED1Ev@plt>
  40b1b1:	48 89 d8             	mov    %rbx,%rax
  40b1b4:	48 89 c7             	mov    %rax,%rdi
  40b1b7:	e8 f4 9d ff ff       	callq  404fb0 <_Unwind_Resume@plt>
  40b1bc:	e8 5f 9c ff ff       	callq  404e20 <__stack_chk_fail@plt>
  40b1c1:	48 81 c4 a8 01 00 00 	add    $0x1a8,%rsp
  40b1c8:	5b                   	pop    %rbx
  40b1c9:	5d                   	pop    %rbp
  40b1ca:	c3                   	retq   
  40b1cb:	90                   	nop

000000000040b1cc <_ZN9__gnu_cxx13new_allocatorIiE10deallocateEPim>:
  40b1cc:	55                   	push   %rbp
  40b1cd:	48 89 e5             	mov    %rsp,%rbp
  40b1d0:	48 83 ec 20          	sub    $0x20,%rsp
  40b1d4:	48 89 7d f8          	mov    %rdi,-0x8(%rbp)
  40b1d8:	48 89 75 f0          	mov    %rsi,-0x10(%rbp)
  40b1dc:	48 89 55 e8          	mov    %rdx,-0x18(%rbp)
  40b1e0:	48 8b 45 f0          	mov    -0x10(%rbp),%rax
  40b1e4:	48 89 c7             	mov    %rax,%rdi
  40b1e7:	e8 34 9d ff ff       	callq  404f20 <_ZdlPv@plt>
  40b1ec:	90                   	nop
  40b1ed:	c9                   	leaveq 
  40b1ee:	c3                   	retq   
  40b1ef:	90                   	nop

000000000040b1f0 <_ZNK9__gnu_cxx13new_allocatorIPN5caffe4BlobIfEEE8max_sizeEv>:
  40b1f0:	55                   	push   %rbp
  40b1f1:	48 89 e5             	mov    %rsp,%rbp
  40b1f4:	48 89 7d f8          	mov    %rdi,-0x8(%rbp)
  40b1f8:	48 b8 ff ff ff ff ff 	movabs $0x1fffffffffffffff,%rax
  40b1ff:	ff ff 1f 
  40b202:	5d                   	pop    %rbp
  40b203:	c3                   	retq   

000000000040b204 <_ZNSt20__uninitialized_copyILb1EE13__uninit_copyISt13move_iteratorIPPN5caffe4BlobIfEEES7_EET0_T_SA_S9_>:
  40b204:	55                   	push   %rbp
  40b205:	48 89 e5             	mov    %rsp,%rbp
  40b208:	48 83 ec 20          	sub    $0x20,%rsp
  40b20c:	48 89 7d f8          	mov    %rdi,-0x8(%rbp)
  40b210:	48 89 75 f0          	mov    %rsi,-0x10(%rbp)
  40b214:	48 89 55 e8          	mov    %rdx,-0x18(%rbp)
  40b218:	48 8b 55 e8          	mov    -0x18(%rbp),%rdx
  40b21c:	48 8b 4d f0          	mov    -0x10(%rbp),%rcx
  40b220:	48 8b 45 f8          	mov    -0x8(%rbp),%rax
  40b224:	48 89 ce             	mov    %rcx,%rsi
  40b227:	48 89 c7             	mov    %rax,%rdi
  40b22a:	e8 b9 0a 00 00       	callq  40bce8 <_ZSt4copyISt13move_iteratorIPPN5caffe4BlobIfEEES5_ET0_T_S8_S7_>
  40b22f:	c9                   	leaveq 
  40b230:	c3                   	retq   
  40b231:	90                   	nop

000000000040b232 <_ZN9__gnu_cxx13new_allocatorIiEC1Ev>:
  40b232:	55                   	push   %rbp
  40b233:	48 89 e5             	mov    %rsp,%rbp
  40b236:	48 89 7d f8          	mov    %rdi,-0x8(%rbp)
  40b23a:	90                   	nop
  40b23b:	5d                   	pop    %rbp
  40b23c:	c3                   	retq   
  40b23d:	90                   	nop

000000000040b23e <_ZNSt12_Vector_baseIN5boost10shared_ptrIN5caffe4BlobIfEEEESaIS5_EE12_Vector_implC1Ev>:
  40b23e:	55                   	push   %rbp
  40b23f:	48 89 e5             	mov    %rsp,%rbp
  40b242:	48 83 ec 10          	sub    $0x10,%rsp
  40b246:	48 89 7d f8          	mov    %rdi,-0x8(%rbp)
  40b24a:	48 8b 45 f8          	mov    -0x8(%rbp),%rax
  40b24e:	48 89 c7             	mov    %rax,%rdi
  40b251:	e8 de 0a 00 00       	callq  40bd34 <_ZNSaIN5boost10shared_ptrIN5caffe4BlobIfEEEEEC1Ev>
  40b256:	48 8b 45 f8          	mov    -0x8(%rbp),%rax
  40b25a:	48 c7 00 00 00 00 00 	movq   $0x0,(%rax)
  40b261:	48 8b 45 f8          	mov    -0x8(%rbp),%rax
  40b265:	48 c7 40 08 00 00 00 	movq   $0x0,0x8(%rax)
  40b26c:	00 
  40b26d:	48 8b 45 f8          	mov    -0x8(%rbp),%rax
  40b271:	48 c7 40 10 00 00 00 	movq   $0x0,0x10(%rax)
  40b278:	00 
  40b279:	90                   	nop
  40b27a:	c9                   	leaveq 
  40b27b:	c3                   	retq   

000000000040b27c <_ZNSt13_Bvector_baseISaIbEE13_Bvector_implC1Ev>:
  40b27c:	55                   	push   %rbp
  40b27d:	48 89 e5             	mov    %rsp,%rbp
  40b280:	48 83 ec 10          	sub    $0x10,%rsp
  40b284:	48 89 7d f8          	mov    %rdi,-0x8(%rbp)
  40b288:	48 8b 45 f8          	mov    -0x8(%rbp),%rax
  40b28c:	48 89 c7             	mov    %rax,%rdi
  40b28f:	e8 bc 0a 00 00       	callq  40bd50 <_ZNSaImEC1Ev>
  40b294:	48 8b 45 f8          	mov    -0x8(%rbp),%rax
  40b298:	48 89 c7             	mov    %rax,%rdi
  40b29b:	e8 82 a2 ff ff       	callq  405522 <_ZNSt13_Bit_iteratorC1Ev>
  40b2a0:	48 8b 45 f8          	mov    -0x8(%rbp),%rax
  40b2a4:	48 83 c0 10          	add    $0x10,%rax
  40b2a8:	48 89 c7             	mov    %rax,%rdi
  40b2ab:	e8 72 a2 ff ff       	callq  405522 <_ZNSt13_Bit_iteratorC1Ev>
  40b2b0:	48 8b 45 f8          	mov    -0x8(%rbp),%rax
  40b2b4:	48 c7 40 20 00 00 00 	movq   $0x0,0x20(%rax)
  40b2bb:	00 
  40b2bc:	90                   	nop
  40b2bd:	c9                   	leaveq 
  40b2be:	c3                   	retq   
  40b2bf:	90                   	nop

000000000040b2c0 <_ZNSt12_Vector_baseIfSaIfEE12_Vector_implC1Ev>:
  40b2c0:	55                   	push   %rbp
  40b2c1:	48 89 e5             	mov    %rsp,%rbp
  40b2c4:	48 83 ec 10          	sub    $0x10,%rsp
  40b2c8:	48 89 7d f8          	mov    %rdi,-0x8(%rbp)
  40b2cc:	48 8b 45 f8          	mov    -0x8(%rbp),%rax
  40b2d0:	48 89 c7             	mov    %rax,%rdi
  40b2d3:	e8 94 0a 00 00       	callq  40bd6c <_ZNSaIfEC1Ev>
  40b2d8:	48 8b 45 f8          	mov    -0x8(%rbp),%rax
  40b2dc:	48 c7 00 00 00 00 00 	movq   $0x0,(%rax)
  40b2e3:	48 8b 45 f8          	mov    -0x8(%rbp),%rax
  40b2e7:	48 c7 40 08 00 00 00 	movq   $0x0,0x8(%rax)
  40b2ee:	00 
  40b2ef:	48 8b 45 f8          	mov    -0x8(%rbp),%rax
  40b2f3:	48 c7 40 10 00 00 00 	movq   $0x0,0x10(%rax)
  40b2fa:	00 
  40b2fb:	90                   	nop
  40b2fc:	c9                   	leaveq 
  40b2fd:	c3                   	retq   

000000000040b2fe <_ZSt27__uninitialized_default_n_aIPN5boost10shared_ptrIN5caffe4BlobIfEEEEmS5_ET_S7_T0_RSaIT1_E>:
  40b2fe:	55                   	push   %rbp
  40b2ff:	48 89 e5             	mov    %rsp,%rbp
  40b302:	48 83 ec 20          	sub    $0x20,%rsp
  40b306:	48 89 7d f8          	mov    %rdi,-0x8(%rbp)
  40b30a:	48 89 75 f0          	mov    %rsi,-0x10(%rbp)
  40b30e:	48 89 55 e8          	mov    %rdx,-0x18(%rbp)
  40b312:	48 8b 55 f0          	mov    -0x10(%rbp),%rdx
  40b316:	48 8b 45 f8          	mov    -0x8(%rbp),%rax
  40b31a:	48 89 d6             	mov    %rdx,%rsi
  40b31d:	48 89 c7             	mov    %rax,%rdi
  40b320:	e8 62 0a 00 00       	callq  40bd87 <_ZSt25__uninitialized_default_nIPN5boost10shared_ptrIN5caffe4BlobIfEEEEmET_S7_T0_>
  40b325:	c9                   	leaveq 
  40b326:	c3                   	retq   
  40b327:	90                   	nop

000000000040b328 <_ZNKSt6vectorIN5boost10shared_ptrIN5caffe4BlobIfEEEESaIS5_EE12_M_check_lenEmPKc>:
  40b328:	55                   	push   %rbp
  40b329:	48 89 e5             	mov    %rsp,%rbp
  40b32c:	53                   	push   %rbx
  40b32d:	48 83 ec 48          	sub    $0x48,%rsp
  40b331:	48 89 7d c8          	mov    %rdi,-0x38(%rbp)
  40b335:	48 89 75 c0          	mov    %rsi,-0x40(%rbp)
  40b339:	48 89 55 b8          	mov    %rdx,-0x48(%rbp)
  40b33d:	64 48 8b 04 25 28 00 	mov    %fs:0x28,%rax
  40b344:	00 00 
  40b346:	48 89 45 e8          	mov    %rax,-0x18(%rbp)
  40b34a:	31 c0                	xor    %eax,%eax
  40b34c:	48 8b 45 c8          	mov    -0x38(%rbp),%rax
  40b350:	48 89 c7             	mov    %rax,%rdi
  40b353:	e8 58 0a 00 00       	callq  40bdb0 <_ZNKSt6vectorIN5boost10shared_ptrIN5caffe4BlobIfEEEESaIS5_EE8max_sizeEv>
  40b358:	48 89 c3             	mov    %rax,%rbx
  40b35b:	48 8b 45 c8          	mov    -0x38(%rbp),%rax
  40b35f:	48 89 c7             	mov    %rax,%rdi
  40b362:	e8 cf f6 ff ff       	callq  40aa36 <_ZNKSt6vectorIN5boost10shared_ptrIN5caffe4BlobIfEEEESaIS5_EE4sizeEv>
  40b367:	48 29 c3             	sub    %rax,%rbx
  40b36a:	48 89 da             	mov    %rbx,%rdx
  40b36d:	48 8b 45 c0          	mov    -0x40(%rbp),%rax
  40b371:	48 39 c2             	cmp    %rax,%rdx
  40b374:	0f 92 c0             	setb   %al
  40b377:	84 c0                	test   %al,%al
  40b379:	74 0c                	je     40b387 <_ZNKSt6vectorIN5boost10shared_ptrIN5caffe4BlobIfEEEESaIS5_EE12_M_check_lenEmPKc+0x5f>
  40b37b:	48 8b 45 b8          	mov    -0x48(%rbp),%rax
  40b37f:	48 89 c7             	mov    %rax,%rdi
  40b382:	e8 f9 9b ff ff       	callq  404f80 <_ZSt20__throw_length_errorPKc@plt>
  40b387:	48 8b 45 c8          	mov    -0x38(%rbp),%rax
  40b38b:	48 89 c7             	mov    %rax,%rdi
  40b38e:	e8 a3 f6 ff ff       	callq  40aa36 <_ZNKSt6vectorIN5boost10shared_ptrIN5caffe4BlobIfEEEESaIS5_EE4sizeEv>
  40b393:	48 89 c3             	mov    %rax,%rbx
  40b396:	48 8b 45 c8          	mov    -0x38(%rbp),%rax
  40b39a:	48 89 c7             	mov    %rax,%rdi
  40b39d:	e8 94 f6 ff ff       	callq  40aa36 <_ZNKSt6vectorIN5boost10shared_ptrIN5caffe4BlobIfEEEESaIS5_EE4sizeEv>
  40b3a2:	48 89 45 d8          	mov    %rax,-0x28(%rbp)
  40b3a6:	48 8d 55 c0          	lea    -0x40(%rbp),%rdx
  40b3aa:	48 8d 45 d8          	lea    -0x28(%rbp),%rax
  40b3ae:	48 89 d6             	mov    %rdx,%rsi
  40b3b1:	48 89 c7             	mov    %rax,%rdi
  40b3b4:	e8 09 ea ff ff       	callq  409dc2 <_ZSt3maxImERKT_S2_S2_>
  40b3b9:	48 8b 00             	mov    (%rax),%rax
  40b3bc:	48 01 d8             	add    %rbx,%rax
  40b3bf:	48 89 45 e0          	mov    %rax,-0x20(%rbp)
  40b3c3:	48 8b 45 c8          	mov    -0x38(%rbp),%rax
  40b3c7:	48 89 c7             	mov    %rax,%rdi
  40b3ca:	e8 67 f6 ff ff       	callq  40aa36 <_ZNKSt6vectorIN5boost10shared_ptrIN5caffe4BlobIfEEEESaIS5_EE4sizeEv>
  40b3cf:	48 3b 45 e0          	cmp    -0x20(%rbp),%rax
  40b3d3:	77 12                	ja     40b3e7 <_ZNKSt6vectorIN5boost10shared_ptrIN5caffe4BlobIfEEEESaIS5_EE12_M_check_lenEmPKc+0xbf>
  40b3d5:	48 8b 45 c8          	mov    -0x38(%rbp),%rax
  40b3d9:	48 89 c7             	mov    %rax,%rdi
  40b3dc:	e8 cf 09 00 00       	callq  40bdb0 <_ZNKSt6vectorIN5boost10shared_ptrIN5caffe4BlobIfEEEESaIS5_EE8max_sizeEv>
  40b3e1:	48 3b 45 e0          	cmp    -0x20(%rbp),%rax
  40b3e5:	73 0e                	jae    40b3f5 <_ZNKSt6vectorIN5boost10shared_ptrIN5caffe4BlobIfEEEESaIS5_EE12_M_check_lenEmPKc+0xcd>
  40b3e7:	48 8b 45 c8          	mov    -0x38(%rbp),%rax
  40b3eb:	48 89 c7             	mov    %rax,%rdi
  40b3ee:	e8 bd 09 00 00       	callq  40bdb0 <_ZNKSt6vectorIN5boost10shared_ptrIN5caffe4BlobIfEEEESaIS5_EE8max_sizeEv>
  40b3f3:	eb 04                	jmp    40b3f9 <_ZNKSt6vectorIN5boost10shared_ptrIN5caffe4BlobIfEEEESaIS5_EE12_M_check_lenEmPKc+0xd1>
  40b3f5:	48 8b 45 e0          	mov    -0x20(%rbp),%rax
  40b3f9:	48 8b 4d e8          	mov    -0x18(%rbp),%rcx
  40b3fd:	64 48 33 0c 25 28 00 	xor    %fs:0x28,%rcx
  40b404:	00 00 
  40b406:	74 05                	je     40b40d <_ZNKSt6vectorIN5boost10shared_ptrIN5caffe4BlobIfEEEESaIS5_EE12_M_check_lenEmPKc+0xe5>
  40b408:	e8 13 9a ff ff       	callq  404e20 <__stack_chk_fail@plt>
  40b40d:	48 83 c4 48          	add    $0x48,%rsp
  40b411:	5b                   	pop    %rbx
  40b412:	5d                   	pop    %rbp
  40b413:	c3                   	retq   

000000000040b414 <_ZNSt12_Vector_baseIN5boost10shared_ptrIN5caffe4BlobIfEEEESaIS5_EE11_M_allocateEm>:
  40b414:	55                   	push   %rbp
  40b415:	48 89 e5             	mov    %rsp,%rbp
  40b418:	48 83 ec 10          	sub    $0x10,%rsp
  40b41c:	48 89 7d f8          	mov    %rdi,-0x8(%rbp)
  40b420:	48 89 75 f0          	mov    %rsi,-0x10(%rbp)
  40b424:	48 83 7d f0 00       	cmpq   $0x0,-0x10(%rbp)
  40b429:	74 15                	je     40b440 <_ZNSt12_Vector_baseIN5boost10shared_ptrIN5caffe4BlobIfEEEESaIS5_EE11_M_allocateEm+0x2c>
  40b42b:	48 8b 45 f8          	mov    -0x8(%rbp),%rax
  40b42f:	48 8b 55 f0          	mov    -0x10(%rbp),%rdx
  40b433:	48 89 d6             	mov    %rdx,%rsi
  40b436:	48 89 c7             	mov    %rax,%rdi
  40b439:	e8 94 09 00 00       	callq  40bdd2 <_ZNSt16allocator_traitsISaIN5boost10shared_ptrIN5caffe4BlobIfEEEEEE8allocateERS6_m>
  40b43e:	eb 05                	jmp    40b445 <_ZNSt12_Vector_baseIN5boost10shared_ptrIN5caffe4BlobIfEEEESaIS5_EE11_M_allocateEm+0x31>
  40b440:	b8 00 00 00 00       	mov    $0x0,%eax
  40b445:	c9                   	leaveq 
  40b446:	c3                   	retq   

000000000040b447 <_ZSt34__uninitialized_move_if_noexcept_aIPN5boost10shared_ptrIN5caffe4BlobIfEEEES6_SaIS5_EET0_T_S9_S8_RT1_>:
  40b447:	55                   	push   %rbp
  40b448:	48 89 e5             	mov    %rsp,%rbp
  40b44b:	53                   	push   %rbx
  40b44c:	48 83 ec 28          	sub    $0x28,%rsp
  40b450:	48 89 7d e8          	mov    %rdi,-0x18(%rbp)
  40b454:	48 89 75 e0          	mov    %rsi,-0x20(%rbp)
  40b458:	48 89 55 d8          	mov    %rdx,-0x28(%rbp)
  40b45c:	48 89 4d d0          	mov    %rcx,-0x30(%rbp)
  40b460:	48 8b 45 e0          	mov    -0x20(%rbp),%rax
  40b464:	48 89 c7             	mov    %rax,%rdi
  40b467:	e8 90 09 00 00       	callq  40bdfc <_ZSt32__make_move_if_noexcept_iteratorIN5boost10shared_ptrIN5caffe4BlobIfEEEESt13move_iteratorIPS5_EET0_PT_>
  40b46c:	48 89 c3             	mov    %rax,%rbx
  40b46f:	48 8b 45 e8          	mov    -0x18(%rbp),%rax
  40b473:	48 89 c7             	mov    %rax,%rdi
  40b476:	e8 81 09 00 00       	callq  40bdfc <_ZSt32__make_move_if_noexcept_iteratorIN5boost10shared_ptrIN5caffe4BlobIfEEEESt13move_iteratorIPS5_EET0_PT_>
  40b47b:	48 89 c7             	mov    %rax,%rdi
  40b47e:	48 8b 55 d0          	mov    -0x30(%rbp),%rdx
  40b482:	48 8b 45 d8          	mov    -0x28(%rbp),%rax
  40b486:	48 89 d1             	mov    %rdx,%rcx
  40b489:	48 89 c2             	mov    %rax,%rdx
  40b48c:	48 89 de             	mov    %rbx,%rsi
  40b48f:	e8 b0 09 00 00       	callq  40be44 <_ZSt22__uninitialized_copy_aISt13move_iteratorIPN5boost10shared_ptrIN5caffe4BlobIfEEEEES7_S6_ET0_T_SA_S9_RSaIT1_E>
  40b494:	48 83 c4 28          	add    $0x28,%rsp
  40b498:	5b                   	pop    %rbx
  40b499:	5d                   	pop    %rbp
  40b49a:	c3                   	retq   

000000000040b49b <_ZN5boost6detail20sp_pointer_constructIN5caffe4BlobIfEES4_EEvPNS_10shared_ptrIT_EEPT0_RNS0_12shared_countE>:
  40b49b:	55                   	push   %rbp
  40b49c:	48 89 e5             	mov    %rsp,%rbp
  40b49f:	48 83 ec 30          	sub    $0x30,%rsp
  40b4a3:	48 89 7d e8          	mov    %rdi,-0x18(%rbp)
  40b4a7:	48 89 75 e0          	mov    %rsi,-0x20(%rbp)
  40b4ab:	48 89 55 d8          	mov    %rdx,-0x28(%rbp)
  40b4af:	64 48 8b 04 25 28 00 	mov    %fs:0x28,%rax
  40b4b6:	00 00 
  40b4b8:	48 89 45 f8          	mov    %rax,-0x8(%rbp)
  40b4bc:	31 c0                	xor    %eax,%eax
  40b4be:	48 8b 55 e0          	mov    -0x20(%rbp),%rdx
  40b4c2:	48 8d 45 f0          	lea    -0x10(%rbp),%rax
  40b4c6:	48 89 d6             	mov    %rdx,%rsi
  40b4c9:	48 89 c7             	mov    %rax,%rdi
  40b4cc:	e8 a5 09 00 00       	callq  40be76 <_ZN5boost6detail12shared_countC1IN5caffe4BlobIfEEEEPT_>
  40b4d1:	48 8b 55 d8          	mov    -0x28(%rbp),%rdx
  40b4d5:	48 8d 45 f0          	lea    -0x10(%rbp),%rax
  40b4d9:	48 89 d6             	mov    %rdx,%rsi
  40b4dc:	48 89 c7             	mov    %rax,%rdi
  40b4df:	e8 f8 a1 ff ff       	callq  4056dc <_ZN5boost6detail12shared_count4swapERS1_>
  40b4e4:	48 8d 45 f0          	lea    -0x10(%rbp),%rax
  40b4e8:	48 89 c7             	mov    %rax,%rdi
  40b4eb:	e8 c2 a1 ff ff       	callq  4056b2 <_ZN5boost6detail12shared_countD1Ev>
  40b4f0:	48 8b 55 e0          	mov    -0x20(%rbp),%rdx
  40b4f4:	48 8b 4d e0          	mov    -0x20(%rbp),%rcx
  40b4f8:	48 8b 45 e8          	mov    -0x18(%rbp),%rax
  40b4fc:	48 89 ce             	mov    %rcx,%rsi
  40b4ff:	48 89 c7             	mov    %rax,%rdi
  40b502:	b8 00 00 00 00       	mov    $0x0,%eax
  40b507:	e8 03 a2 ff ff       	callq  40570f <_ZN5boost6detail26sp_enable_shared_from_thisEz>
  40b50c:	90                   	nop
  40b50d:	48 8b 45 f8          	mov    -0x8(%rbp),%rax
  40b511:	64 48 33 04 25 28 00 	xor    %fs:0x28,%rax
  40b518:	00 00 
  40b51a:	74 05                	je     40b521 <_ZN5boost6detail20sp_pointer_constructIN5caffe4BlobIfEES4_EEvPNS_10shared_ptrIT_EEPT0_RNS0_12shared_countE+0x86>
  40b51c:	e8 ff 98 ff ff       	callq  404e20 <__stack_chk_fail@plt>
  40b521:	c9                   	leaveq 
  40b522:	c3                   	retq   

000000000040b523 <_ZSt4moveIRPN5caffe4BlobIfEEEONSt16remove_referenceIT_E4typeEOS6_>:
  40b523:	55                   	push   %rbp
  40b524:	48 89 e5             	mov    %rsp,%rbp
  40b527:	48 89 7d f8          	mov    %rdi,-0x8(%rbp)
  40b52b:	48 8b 45 f8          	mov    -0x8(%rbp),%rax
  40b52f:	5d                   	pop    %rbp
  40b530:	c3                   	retq   

000000000040b531 <_ZSt4swapIPN5caffe4BlobIfEEENSt9enable_ifIXsrSt6__and_IJSt21is_move_constructibleIT_ESt18is_move_assignableIS7_EEE5valueEvE4typeERS7_SE_>:
  40b531:	55                   	push   %rbp
  40b532:	48 89 e5             	mov    %rsp,%rbp
  40b535:	48 83 ec 20          	sub    $0x20,%rsp
  40b539:	48 89 7d e8          	mov    %rdi,-0x18(%rbp)
  40b53d:	48 89 75 e0          	mov    %rsi,-0x20(%rbp)
  40b541:	64 48 8b 04 25 28 00 	mov    %fs:0x28,%rax
  40b548:	00 00 
  40b54a:	48 89 45 f8          	mov    %rax,-0x8(%rbp)
  40b54e:	31 c0                	xor    %eax,%eax
  40b550:	48 8b 45 e8          	mov    -0x18(%rbp),%rax
  40b554:	48 89 c7             	mov    %rax,%rdi
  40b557:	e8 c7 ff ff ff       	callq  40b523 <_ZSt4moveIRPN5caffe4BlobIfEEEONSt16remove_referenceIT_E4typeEOS6_>
  40b55c:	48 8b 00             	mov    (%rax),%rax
  40b55f:	48 89 45 f0          	mov    %rax,-0x10(%rbp)
  40b563:	48 8b 45 e0          	mov    -0x20(%rbp),%rax
  40b567:	48 89 c7             	mov    %rax,%rdi
  40b56a:	e8 b4 ff ff ff       	callq  40b523 <_ZSt4moveIRPN5caffe4BlobIfEEEONSt16remove_referenceIT_E4typeEOS6_>
  40b56f:	48 8b 10             	mov    (%rax),%rdx
  40b572:	48 8b 45 e8          	mov    -0x18(%rbp),%rax
  40b576:	48 89 10             	mov    %rdx,(%rax)
  40b579:	48 8d 45 f0          	lea    -0x10(%rbp),%rax
  40b57d:	48 89 c7             	mov    %rax,%rdi
  40b580:	e8 9e ff ff ff       	callq  40b523 <_ZSt4moveIRPN5caffe4BlobIfEEEONSt16remove_referenceIT_E4typeEOS6_>
  40b585:	48 8b 10             	mov    (%rax),%rdx
  40b588:	48 8b 45 e0          	mov    -0x20(%rbp),%rax
  40b58c:	48 89 10             	mov    %rdx,(%rax)
  40b58f:	90                   	nop
  40b590:	48 8b 45 f8          	mov    -0x8(%rbp),%rax
  40b594:	64 48 33 04 25 28 00 	xor    %fs:0x28,%rax
  40b59b:	00 00 
  40b59d:	74 05                	je     40b5a4 <_ZSt4swapIPN5caffe4BlobIfEEENSt9enable_ifIXsrSt6__and_IJSt21is_move_constructibleIT_ESt18is_move_assignableIS7_EEE5valueEvE4typeERS7_SE_+0x73>
  40b59f:	e8 7c 98 ff ff       	callq  404e20 <__stack_chk_fail@plt>
  40b5a4:	c9                   	leaveq 
  40b5a5:	c3                   	retq   

000000000040b5a6 <_ZN9__gnu_cxx13new_allocatorIN5boost10shared_ptrIN5caffe4BlobIfEEEEED1Ev>:
  40b5a6:	55                   	push   %rbp
  40b5a7:	48 89 e5             	mov    %rsp,%rbp
  40b5aa:	48 89 7d f8          	mov    %rdi,-0x8(%rbp)
  40b5ae:	90                   	nop
  40b5af:	5d                   	pop    %rbp
  40b5b0:	c3                   	retq   

000000000040b5b1 <_ZNSt16allocator_traitsISaIN5boost10shared_ptrIN5caffe4BlobIfEEEEEE10deallocateERS6_PS5_m>:
  40b5b1:	55                   	push   %rbp
  40b5b2:	48 89 e5             	mov    %rsp,%rbp
  40b5b5:	48 83 ec 20          	sub    $0x20,%rsp
  40b5b9:	48 89 7d f8          	mov    %rdi,-0x8(%rbp)
  40b5bd:	48 89 75 f0          	mov    %rsi,-0x10(%rbp)
  40b5c1:	48 89 55 e8          	mov    %rdx,-0x18(%rbp)
  40b5c5:	48 8b 55 e8          	mov    -0x18(%rbp),%rdx
  40b5c9:	48 8b 4d f0          	mov    -0x10(%rbp),%rcx
  40b5cd:	48 8b 45 f8          	mov    -0x8(%rbp),%rax
  40b5d1:	48 89 ce             	mov    %rcx,%rsi
  40b5d4:	48 89 c7             	mov    %rax,%rdi
  40b5d7:	e8 0e 09 00 00       	callq  40beea <_ZN9__gnu_cxx13new_allocatorIN5boost10shared_ptrIN5caffe4BlobIfEEEEE10deallocateEPS6_m>
  40b5dc:	90                   	nop
  40b5dd:	c9                   	leaveq 
  40b5de:	c3                   	retq   

000000000040b5df <_ZNSt12_Destroy_auxILb0EE9__destroyIPN5boost10shared_ptrIN5caffe4BlobIfEEEEEEvT_S9_>:
  40b5df:	55                   	push   %rbp
  40b5e0:	48 89 e5             	mov    %rsp,%rbp
  40b5e3:	48 83 ec 10          	sub    $0x10,%rsp
  40b5e7:	48 89 7d f8          	mov    %rdi,-0x8(%rbp)
  40b5eb:	48 89 75 f0          	mov    %rsi,-0x10(%rbp)
  40b5ef:	48 8b 45 f8          	mov    -0x8(%rbp),%rax
  40b5f3:	48 3b 45 f0          	cmp    -0x10(%rbp),%rax
  40b5f7:	74 1b                	je     40b614 <_ZNSt12_Destroy_auxILb0EE9__destroyIPN5boost10shared_ptrIN5caffe4BlobIfEEEEEEvT_S9_+0x35>
  40b5f9:	48 8b 45 f8          	mov    -0x8(%rbp),%rax
  40b5fd:	48 89 c7             	mov    %rax,%rdi
  40b600:	e8 08 09 00 00       	callq  40bf0d <_ZSt11__addressofIN5boost10shared_ptrIN5caffe4BlobIfEEEEEPT_RS6_>
  40b605:	48 89 c7             	mov    %rax,%rdi
  40b608:	e8 0e 09 00 00       	callq  40bf1b <_ZSt8_DestroyIN5boost10shared_ptrIN5caffe4BlobIfEEEEEvPT_>
  40b60d:	48 83 45 f8 10       	addq   $0x10,-0x8(%rbp)
  40b612:	eb db                	jmp    40b5ef <_ZNSt12_Destroy_auxILb0EE9__destroyIPN5boost10shared_ptrIN5caffe4BlobIfEEEEEEvT_S9_+0x10>
  40b614:	90                   	nop
  40b615:	c9                   	leaveq 
  40b616:	c3                   	retq   
  40b617:	90                   	nop

000000000040b618 <_ZN9__gnu_cxx13new_allocatorImED1Ev>:
  40b618:	55                   	push   %rbp
  40b619:	48 89 e5             	mov    %rsp,%rbp
  40b61c:	48 89 7d f8          	mov    %rdi,-0x8(%rbp)
  40b620:	90                   	nop
  40b621:	5d                   	pop    %rbp
  40b622:	c3                   	retq   
  40b623:	90                   	nop

000000000040b624 <_ZNKSt13_Bvector_baseISaIbEE13_Bvector_impl11_M_end_addrEv>:
  40b624:	55                   	push   %rbp
  40b625:	48 89 e5             	mov    %rsp,%rbp
  40b628:	48 83 ec 10          	sub    $0x10,%rsp
  40b62c:	48 89 7d f8          	mov    %rdi,-0x8(%rbp)
  40b630:	48 8b 45 f8          	mov    -0x8(%rbp),%rax
  40b634:	48 8b 40 20          	mov    0x20(%rax),%rax
  40b638:	48 85 c0             	test   %rax,%rax
  40b63b:	74 1a                	je     40b657 <_ZNKSt13_Bvector_baseISaIbEE13_Bvector_impl11_M_end_addrEv+0x33>
  40b63d:	48 8b 45 f8          	mov    -0x8(%rbp),%rax
  40b641:	48 8b 40 20          	mov    0x20(%rax),%rax
  40b645:	48 83 e8 08          	sub    $0x8,%rax
  40b649:	48 89 c7             	mov    %rax,%rdi
  40b64c:	e8 e5 08 00 00       	callq  40bf36 <_ZSt11__addressofImEPT_RS0_>
  40b651:	48 83 c0 08          	add    $0x8,%rax
  40b655:	eb 05                	jmp    40b65c <_ZNKSt13_Bvector_baseISaIbEE13_Bvector_impl11_M_end_addrEv+0x38>
  40b657:	b8 00 00 00 00       	mov    $0x0,%eax
  40b65c:	c9                   	leaveq 
  40b65d:	c3                   	retq   

000000000040b65e <_ZNSt16allocator_traitsISaImEE10deallocateERS0_Pmm>:
  40b65e:	55                   	push   %rbp
  40b65f:	48 89 e5             	mov    %rsp,%rbp
  40b662:	48 83 ec 20          	sub    $0x20,%rsp
  40b666:	48 89 7d f8          	mov    %rdi,-0x8(%rbp)
  40b66a:	48 89 75 f0          	mov    %rsi,-0x10(%rbp)
  40b66e:	48 89 55 e8          	mov    %rdx,-0x18(%rbp)
  40b672:	48 8b 55 e8          	mov    -0x18(%rbp),%rdx
  40b676:	48 8b 4d f0          	mov    -0x10(%rbp),%rcx
  40b67a:	48 8b 45 f8          	mov    -0x8(%rbp),%rax
  40b67e:	48 89 ce             	mov    %rcx,%rsi
  40b681:	48 89 c7             	mov    %rax,%rdi
  40b684:	e8 bb 08 00 00       	callq  40bf44 <_ZN9__gnu_cxx13new_allocatorImE10deallocateEPmm>
  40b689:	90                   	nop
  40b68a:	c9                   	leaveq 
  40b68b:	c3                   	retq   

000000000040b68c <_ZN9__gnu_cxx13new_allocatorIfED1Ev>:
  40b68c:	55                   	push   %rbp
  40b68d:	48 89 e5             	mov    %rsp,%rbp
  40b690:	48 89 7d f8          	mov    %rdi,-0x8(%rbp)
  40b694:	90                   	nop
  40b695:	5d                   	pop    %rbp
  40b696:	c3                   	retq   

000000000040b697 <_ZNSt16allocator_traitsISaIfEE10deallocateERS0_Pfm>:
  40b697:	55                   	push   %rbp
  40b698:	48 89 e5             	mov    %rsp,%rbp
  40b69b:	48 83 ec 20          	sub    $0x20,%rsp
  40b69f:	48 89 7d f8          	mov    %rdi,-0x8(%rbp)
  40b6a3:	48 89 75 f0          	mov    %rsi,-0x10(%rbp)
  40b6a7:	48 89 55 e8          	mov    %rdx,-0x18(%rbp)
  40b6ab:	48 8b 55 e8          	mov    -0x18(%rbp),%rdx
  40b6af:	48 8b 4d f0          	mov    -0x10(%rbp),%rcx
  40b6b3:	48 8b 45 f8          	mov    -0x8(%rbp),%rax
  40b6b7:	48 89 ce             	mov    %rcx,%rsi
  40b6ba:	48 89 c7             	mov    %rax,%rdi
  40b6bd:	e8 a6 08 00 00       	callq  40bf68 <_ZN9__gnu_cxx13new_allocatorIfE10deallocateEPfm>
  40b6c2:	90                   	nop
  40b6c3:	c9                   	leaveq 
  40b6c4:	c3                   	retq   

000000000040b6c5 <_ZNSt12_Destroy_auxILb1EE9__destroyIPfEEvT_S3_>:
  40b6c5:	55                   	push   %rbp
  40b6c6:	48 89 e5             	mov    %rsp,%rbp
  40b6c9:	48 89 7d f8          	mov    %rdi,-0x8(%rbp)
  40b6cd:	48 89 75 f0          	mov    %rsi,-0x10(%rbp)
  40b6d1:	90                   	nop
  40b6d2:	5d                   	pop    %rbp
  40b6d3:	c3                   	retq   

000000000040b6d4 <_ZN9__gnu_cxx17__normal_iteratorIPfSt6vectorIfSaIfEEEC1ERKS1_>:
  40b6d4:	55                   	push   %rbp
  40b6d5:	48 89 e5             	mov    %rsp,%rbp
  40b6d8:	48 89 7d f8          	mov    %rdi,-0x8(%rbp)
  40b6dc:	48 89 75 f0          	mov    %rsi,-0x10(%rbp)
  40b6e0:	48 8b 45 f0          	mov    -0x10(%rbp),%rax
  40b6e4:	48 8b 10             	mov    (%rax),%rdx
  40b6e7:	48 8b 45 f8          	mov    -0x8(%rbp),%rax
  40b6eb:	48 89 10             	mov    %rdx,(%rax)
  40b6ee:	90                   	nop
  40b6ef:	5d                   	pop    %rbp
  40b6f0:	c3                   	retq   
  40b6f1:	90                   	nop

000000000040b6f2 <_ZNK9__gnu_cxx17__normal_iteratorIPfSt6vectorIfSaIfEEE4baseEv>:
  40b6f2:	55                   	push   %rbp
  40b6f3:	48 89 e5             	mov    %rsp,%rbp
  40b6f6:	48 89 7d f8          	mov    %rdi,-0x8(%rbp)
  40b6fa:	48 8b 45 f8          	mov    -0x8(%rbp),%rax
  40b6fe:	5d                   	pop    %rbp
  40b6ff:	c3                   	retq   

000000000040b700 <_ZNKSt6vectorIfSaIfEE6cbeginEv>:
  40b700:	55                   	push   %rbp
  40b701:	48 89 e5             	mov    %rsp,%rbp
  40b704:	48 83 ec 30          	sub    $0x30,%rsp
  40b708:	48 89 7d d8          	mov    %rdi,-0x28(%rbp)
  40b70c:	64 48 8b 04 25 28 00 	mov    %fs:0x28,%rax
  40b713:	00 00 
  40b715:	48 89 45 f8          	mov    %rax,-0x8(%rbp)
  40b719:	31 c0                	xor    %eax,%eax
  40b71b:	48 8b 45 d8          	mov    -0x28(%rbp),%rax
  40b71f:	48 8b 00             	mov    (%rax),%rax
  40b722:	48 89 45 e8          	mov    %rax,-0x18(%rbp)
  40b726:	48 8d 55 e8          	lea    -0x18(%rbp),%rdx
  40b72a:	48 8d 45 f0          	lea    -0x10(%rbp),%rax
  40b72e:	48 89 d6             	mov    %rdx,%rsi
  40b731:	48 89 c7             	mov    %rax,%rdi
  40b734:	e8 53 08 00 00       	callq  40bf8c <_ZN9__gnu_cxx17__normal_iteratorIPKfSt6vectorIfSaIfEEEC1ERKS2_>
  40b739:	48 8b 45 f0          	mov    -0x10(%rbp),%rax
  40b73d:	48 8b 4d f8          	mov    -0x8(%rbp),%rcx
  40b741:	64 48 33 0c 25 28 00 	xor    %fs:0x28,%rcx
  40b748:	00 00 
  40b74a:	74 05                	je     40b751 <_ZNKSt6vectorIfSaIfEE6cbeginEv+0x51>
  40b74c:	e8 cf 96 ff ff       	callq  404e20 <__stack_chk_fail@plt>
  40b751:	c9                   	leaveq 
  40b752:	c3                   	retq   

000000000040b753 <_ZN9__gnu_cxxmiIPKfSt6vectorIfSaIfEEEENS_17__normal_iteratorIT_T0_E15difference_typeERKS9_SC_>:
  40b753:	55                   	push   %rbp
  40b754:	48 89 e5             	mov    %rsp,%rbp
  40b757:	53                   	push   %rbx
  40b758:	48 83 ec 18          	sub    $0x18,%rsp
  40b75c:	48 89 7d e8          	mov    %rdi,-0x18(%rbp)
  40b760:	48 89 75 e0          	mov    %rsi,-0x20(%rbp)
  40b764:	48 8b 45 e8          	mov    -0x18(%rbp),%rax
  40b768:	48 89 c7             	mov    %rax,%rdi
  40b76b:	e8 3a 08 00 00       	callq  40bfaa <_ZNK9__gnu_cxx17__normal_iteratorIPKfSt6vectorIfSaIfEEE4baseEv>
  40b770:	48 8b 00             	mov    (%rax),%rax
  40b773:	48 89 c3             	mov    %rax,%rbx
  40b776:	48 8b 45 e0          	mov    -0x20(%rbp),%rax
  40b77a:	48 89 c7             	mov    %rax,%rdi
  40b77d:	e8 28 08 00 00       	callq  40bfaa <_ZNK9__gnu_cxx17__normal_iteratorIPKfSt6vectorIfSaIfEEE4baseEv>
  40b782:	48 8b 00             	mov    (%rax),%rax
  40b785:	48 29 c3             	sub    %rax,%rbx
  40b788:	48 89 d8             	mov    %rbx,%rax
  40b78b:	48 c1 f8 02          	sar    $0x2,%rax
  40b78f:	48 83 c4 18          	add    $0x18,%rsp
  40b793:	5b                   	pop    %rbx
  40b794:	5d                   	pop    %rbp
  40b795:	c3                   	retq   

000000000040b796 <_ZNSt6vectorIfSaIfEE14_M_fill_insertEN9__gnu_cxx17__normal_iteratorIPfS1_EEmRKf>:
  40b796:	55                   	push   %rbp
  40b797:	48 89 e5             	mov    %rsp,%rbp
  40b79a:	41 54                	push   %r12
  40b79c:	53                   	push   %rbx
  40b79d:	48 83 ec 70          	sub    $0x70,%rsp
  40b7a1:	48 89 7d 98          	mov    %rdi,-0x68(%rbp)
  40b7a5:	48 89 75 90          	mov    %rsi,-0x70(%rbp)
  40b7a9:	48 89 55 88          	mov    %rdx,-0x78(%rbp)
  40b7ad:	48 89 4d 80          	mov    %rcx,-0x80(%rbp)
  40b7b1:	64 48 8b 04 25 28 00 	mov    %fs:0x28,%rax
  40b7b8:	00 00 
  40b7ba:	48 89 45 e8          	mov    %rax,-0x18(%rbp)
  40b7be:	31 c0                	xor    %eax,%eax
  40b7c0:	48 83 7d 88 00       	cmpq   $0x0,-0x78(%rbp)
  40b7c5:	0f 84 55 04 00 00    	je     40bc20 <_ZNSt6vectorIfSaIfEE14_M_fill_insertEN9__gnu_cxx17__normal_iteratorIPfS1_EEmRKf+0x48a>
  40b7cb:	48 8b 45 98          	mov    -0x68(%rbp),%rax
  40b7cf:	48 8b 40 10          	mov    0x10(%rax),%rax
  40b7d3:	48 89 c2             	mov    %rax,%rdx
  40b7d6:	48 8b 45 98          	mov    -0x68(%rbp),%rax
  40b7da:	48 8b 40 08          	mov    0x8(%rax),%rax
  40b7de:	48 29 c2             	sub    %rax,%rdx
  40b7e1:	48 89 d0             	mov    %rdx,%rax
  40b7e4:	48 c1 f8 02          	sar    $0x2,%rax
  40b7e8:	48 3b 45 88          	cmp    -0x78(%rbp),%rax
  40b7ec:	0f 82 cf 01 00 00    	jb     40b9c1 <_ZNSt6vectorIfSaIfEE14_M_fill_insertEN9__gnu_cxx17__normal_iteratorIPfS1_EEmRKf+0x22b>
  40b7f2:	48 8b 45 80          	mov    -0x80(%rbp),%rax
  40b7f6:	f3 0f 10 00          	movss  (%rax),%xmm0
  40b7fa:	f3 0f 11 45 ac       	movss  %xmm0,-0x54(%rbp)
  40b7ff:	48 8b 45 98          	mov    -0x68(%rbp),%rax
  40b803:	48 89 c7             	mov    %rax,%rdi
  40b806:	e8 eb f6 ff ff       	callq  40aef6 <_ZNSt6vectorIfSaIfEE3endEv>
  40b80b:	48 89 45 b0          	mov    %rax,-0x50(%rbp)
  40b80f:	48 8d 55 90          	lea    -0x70(%rbp),%rdx
  40b813:	48 8d 45 b0          	lea    -0x50(%rbp),%rax
  40b817:	48 89 d6             	mov    %rdx,%rsi
  40b81a:	48 89 c7             	mov    %rax,%rdi
  40b81d:	e8 96 07 00 00       	callq  40bfb8 <_ZN9__gnu_cxxmiIPfSt6vectorIfSaIfEEEENS_17__normal_iteratorIT_T0_E15difference_typeERKS8_SB_>
  40b822:	48 89 45 c0          	mov    %rax,-0x40(%rbp)
  40b826:	48 8b 45 98          	mov    -0x68(%rbp),%rax
  40b82a:	48 8b 40 08          	mov    0x8(%rax),%rax
  40b82e:	48 89 45 c8          	mov    %rax,-0x38(%rbp)
  40b832:	48 8b 45 c0          	mov    -0x40(%rbp),%rax
  40b836:	48 3b 45 88          	cmp    -0x78(%rbp),%rax
  40b83a:	0f 86 ce 00 00 00    	jbe    40b90e <_ZNSt6vectorIfSaIfEE14_M_fill_insertEN9__gnu_cxx17__normal_iteratorIPfS1_EEmRKf+0x178>
  40b840:	48 8b 45 98          	mov    -0x68(%rbp),%rax
  40b844:	48 89 c7             	mov    %rax,%rdi
  40b847:	e8 d6 e9 ff ff       	callq  40a222 <_ZNSt12_Vector_baseIfSaIfEE19_M_get_Tp_allocatorEv>
  40b84c:	49 89 c0             	mov    %rax,%r8
  40b84f:	48 8b 45 98          	mov    -0x68(%rbp),%rax
  40b853:	48 8b 50 08          	mov    0x8(%rax),%rdx
  40b857:	48 8b 45 98          	mov    -0x68(%rbp),%rax
  40b85b:	48 8b 40 08          	mov    0x8(%rax),%rax
  40b85f:	48 8b 4d 98          	mov    -0x68(%rbp),%rcx
  40b863:	48 8b 49 08          	mov    0x8(%rcx),%rcx
  40b867:	48 8b 75 88          	mov    -0x78(%rbp),%rsi
  40b86b:	48 c1 e6 02          	shl    $0x2,%rsi
  40b86f:	48 f7 de             	neg    %rsi
  40b872:	48 8d 3c 31          	lea    (%rcx,%rsi,1),%rdi
  40b876:	4c 89 c1             	mov    %r8,%rcx
  40b879:	48 89 c6             	mov    %rax,%rsi
  40b87c:	e8 7a 07 00 00       	callq  40bffb <_ZSt22__uninitialized_move_aIPfS0_SaIfEET0_T_S3_S2_RT1_>
  40b881:	48 8b 45 98          	mov    -0x68(%rbp),%rax
  40b885:	48 8b 40 08          	mov    0x8(%rax),%rax
  40b889:	48 8b 55 88          	mov    -0x78(%rbp),%rdx
  40b88d:	48 c1 e2 02          	shl    $0x2,%rdx
  40b891:	48 01 c2             	add    %rax,%rdx
  40b894:	48 8b 45 98          	mov    -0x68(%rbp),%rax
  40b898:	48 89 50 08          	mov    %rdx,0x8(%rax)
  40b89c:	48 8b 45 88          	mov    -0x78(%rbp),%rax
  40b8a0:	48 c1 e0 02          	shl    $0x2,%rax
  40b8a4:	48 f7 d8             	neg    %rax
  40b8a7:	48 89 c2             	mov    %rax,%rdx
  40b8aa:	48 8b 45 c8          	mov    -0x38(%rbp),%rax
  40b8ae:	48 8d 1c 02          	lea    (%rdx,%rax,1),%rbx
  40b8b2:	48 8d 45 90          	lea    -0x70(%rbp),%rax
  40b8b6:	48 89 c7             	mov    %rax,%rdi
  40b8b9:	e8 34 fe ff ff       	callq  40b6f2 <_ZNK9__gnu_cxx17__normal_iteratorIPfSt6vectorIfSaIfEEE4baseEv>
  40b8be:	48 8b 00             	mov    (%rax),%rax
  40b8c1:	48 8b 55 c8          	mov    -0x38(%rbp),%rdx
  40b8c5:	48 89 de             	mov    %rbx,%rsi
  40b8c8:	48 89 c7             	mov    %rax,%rdi
  40b8cb:	e8 7f 07 00 00       	callq  40c04f <_ZSt13move_backwardIPfS0_ET0_T_S2_S1_>
  40b8d0:	48 8d 45 90          	lea    -0x70(%rbp),%rax
  40b8d4:	48 89 c7             	mov    %rax,%rdi
  40b8d7:	e8 16 fe ff ff       	callq  40b6f2 <_ZNK9__gnu_cxx17__normal_iteratorIPfSt6vectorIfSaIfEEE4baseEv>
  40b8dc:	48 8b 00             	mov    (%rax),%rax
  40b8df:	48 8b 55 88          	mov    -0x78(%rbp),%rdx
  40b8e3:	48 c1 e2 02          	shl    $0x2,%rdx
  40b8e7:	48 8d 1c 10          	lea    (%rax,%rdx,1),%rbx
  40b8eb:	48 8d 45 90          	lea    -0x70(%rbp),%rax
  40b8ef:	48 89 c7             	mov    %rax,%rdi
  40b8f2:	e8 fb fd ff ff       	callq  40b6f2 <_ZNK9__gnu_cxx17__normal_iteratorIPfSt6vectorIfSaIfEEE4baseEv>
  40b8f7:	48 8b 00             	mov    (%rax),%rax
  40b8fa:	48 8d 55 ac          	lea    -0x54(%rbp),%rdx
  40b8fe:	48 89 de             	mov    %rbx,%rsi
  40b901:	48 89 c7             	mov    %rax,%rdi
  40b904:	e8 92 07 00 00       	callq  40c09b <_ZSt4fillIPffEvT_S1_RKT0_>
  40b909:	e9 12 03 00 00       	jmpq   40bc20 <_ZNSt6vectorIfSaIfEE14_M_fill_insertEN9__gnu_cxx17__normal_iteratorIPfS1_EEmRKf+0x48a>
  40b90e:	48 8b 45 98          	mov    -0x68(%rbp),%rax
  40b912:	48 89 c7             	mov    %rax,%rdi
  40b915:	e8 08 e9 ff ff       	callq  40a222 <_ZNSt12_Vector_baseIfSaIfEE19_M_get_Tp_allocatorEv>
  40b91a:	48 89 c1             	mov    %rax,%rcx
  40b91d:	48 8b 45 88          	mov    -0x78(%rbp),%rax
  40b921:	48 2b 45 c0          	sub    -0x40(%rbp),%rax
  40b925:	48 89 c6             	mov    %rax,%rsi
  40b928:	48 8b 45 98          	mov    -0x68(%rbp),%rax
  40b92c:	48 8b 40 08          	mov    0x8(%rax),%rax
  40b930:	48 8d 55 ac          	lea    -0x54(%rbp),%rdx
  40b934:	48 89 c7             	mov    %rax,%rdi
  40b937:	e8 ac 07 00 00       	callq  40c0e8 <_ZSt24__uninitialized_fill_n_aIPfmffET_S1_T0_RKT1_RSaIT2_E>
  40b93c:	48 89 c2             	mov    %rax,%rdx
  40b93f:	48 8b 45 98          	mov    -0x68(%rbp),%rax
  40b943:	48 89 50 08          	mov    %rdx,0x8(%rax)
  40b947:	48 8b 45 98          	mov    -0x68(%rbp),%rax
  40b94b:	48 89 c7             	mov    %rax,%rdi
  40b94e:	e8 cf e8 ff ff       	callq  40a222 <_ZNSt12_Vector_baseIfSaIfEE19_M_get_Tp_allocatorEv>
  40b953:	49 89 c4             	mov    %rax,%r12
  40b956:	48 8b 45 98          	mov    -0x68(%rbp),%rax
  40b95a:	48 8b 58 08          	mov    0x8(%rax),%rbx
  40b95e:	48 8d 45 90          	lea    -0x70(%rbp),%rax
  40b962:	48 89 c7             	mov    %rax,%rdi
  40b965:	e8 88 fd ff ff       	callq  40b6f2 <_ZNK9__gnu_cxx17__normal_iteratorIPfSt6vectorIfSaIfEEE4baseEv>
  40b96a:	48 8b 00             	mov    (%rax),%rax
  40b96d:	48 8b 75 c8          	mov    -0x38(%rbp),%rsi
  40b971:	4c 89 e1             	mov    %r12,%rcx
  40b974:	48 89 da             	mov    %rbx,%rdx
  40b977:	48 89 c7             	mov    %rax,%rdi
  40b97a:	e8 7c 06 00 00       	callq  40bffb <_ZSt22__uninitialized_move_aIPfS0_SaIfEET0_T_S3_S2_RT1_>
  40b97f:	48 8b 45 98          	mov    -0x68(%rbp),%rax
  40b983:	48 8b 40 08          	mov    0x8(%rax),%rax
  40b987:	48 8b 55 c0          	mov    -0x40(%rbp),%rdx
  40b98b:	48 c1 e2 02          	shl    $0x2,%rdx
  40b98f:	48 01 c2             	add    %rax,%rdx
  40b992:	48 8b 45 98          	mov    -0x68(%rbp),%rax
  40b996:	48 89 50 08          	mov    %rdx,0x8(%rax)
  40b99a:	48 8d 45 90          	lea    -0x70(%rbp),%rax
  40b99e:	48 89 c7             	mov    %rax,%rdi
  40b9a1:	e8 4c fd ff ff       	callq  40b6f2 <_ZNK9__gnu_cxx17__normal_iteratorIPfSt6vectorIfSaIfEEE4baseEv>
  40b9a6:	48 8b 00             	mov    (%rax),%rax
  40b9a9:	48 8d 55 ac          	lea    -0x54(%rbp),%rdx
  40b9ad:	48 8b 4d c8          	mov    -0x38(%rbp),%rcx
  40b9b1:	48 89 ce             	mov    %rcx,%rsi
  40b9b4:	48 89 c7             	mov    %rax,%rdi
  40b9b7:	e8 df 06 00 00       	callq  40c09b <_ZSt4fillIPffEvT_S1_RKT0_>
  40b9bc:	e9 5f 02 00 00       	jmpq   40bc20 <_ZNSt6vectorIfSaIfEE14_M_fill_insertEN9__gnu_cxx17__normal_iteratorIPfS1_EEmRKf+0x48a>
  40b9c1:	48 8b 4d 88          	mov    -0x78(%rbp),%rcx
  40b9c5:	48 8b 45 98          	mov    -0x68(%rbp),%rax
  40b9c9:	ba 46 da 40 00       	mov    $0x40da46,%edx
  40b9ce:	48 89 ce             	mov    %rcx,%rsi
  40b9d1:	48 89 c7             	mov    %rax,%rdi
  40b9d4:	e8 41 07 00 00       	callq  40c11a <_ZNKSt6vectorIfSaIfEE12_M_check_lenEmPKc>
  40b9d9:	48 89 45 d0          	mov    %rax,-0x30(%rbp)
  40b9dd:	48 8b 45 98          	mov    -0x68(%rbp),%rax
  40b9e1:	48 89 c7             	mov    %rax,%rdi
  40b9e4:	e8 55 02 00 00       	callq  40bc3e <_ZNSt6vectorIfSaIfEE5beginEv>
  40b9e9:	48 89 45 b0          	mov    %rax,-0x50(%rbp)
  40b9ed:	48 8d 55 b0          	lea    -0x50(%rbp),%rdx
  40b9f1:	48 8d 45 90          	lea    -0x70(%rbp),%rax
  40b9f5:	48 89 d6             	mov    %rdx,%rsi
  40b9f8:	48 89 c7             	mov    %rax,%rdi
  40b9fb:	e8 b8 05 00 00       	callq  40bfb8 <_ZN9__gnu_cxxmiIPfSt6vectorIfSaIfEEEENS_17__normal_iteratorIT_T0_E15difference_typeERKS8_SB_>
  40ba00:	48 89 45 d8          	mov    %rax,-0x28(%rbp)
  40ba04:	48 8b 45 98          	mov    -0x68(%rbp),%rax
  40ba08:	48 8b 55 d0          	mov    -0x30(%rbp),%rdx
  40ba0c:	48 89 d6             	mov    %rdx,%rsi
  40ba0f:	48 89 c7             	mov    %rax,%rdi
  40ba12:	e8 ef 07 00 00       	callq  40c206 <_ZNSt12_Vector_baseIfSaIfEE11_M_allocateEm>
  40ba17:	48 89 45 e0          	mov    %rax,-0x20(%rbp)
  40ba1b:	48 8b 45 e0          	mov    -0x20(%rbp),%rax
  40ba1f:	48 89 45 b8          	mov    %rax,-0x48(%rbp)
  40ba23:	48 8b 45 98          	mov    -0x68(%rbp),%rax
  40ba27:	48 89 c7             	mov    %rax,%rdi
  40ba2a:	e8 f3 e7 ff ff       	callq  40a222 <_ZNSt12_Vector_baseIfSaIfEE19_M_get_Tp_allocatorEv>
  40ba2f:	48 89 c1             	mov    %rax,%rcx
  40ba32:	48 8b 45 d8          	mov    -0x28(%rbp),%rax
  40ba36:	48 8d 14 85 00 00 00 	lea    0x0(,%rax,4),%rdx
  40ba3d:	00 
  40ba3e:	48 8b 45 e0          	mov    -0x20(%rbp),%rax
  40ba42:	48 8d 3c 02          	lea    (%rdx,%rax,1),%rdi
  40ba46:	48 8b 55 80          	mov    -0x80(%rbp),%rdx
  40ba4a:	48 8b 45 88          	mov    -0x78(%rbp),%rax
  40ba4e:	48 89 c6             	mov    %rax,%rsi
  40ba51:	e8 92 06 00 00       	callq  40c0e8 <_ZSt24__uninitialized_fill_n_aIPfmffET_S1_T0_RKT1_RSaIT2_E>
  40ba56:	48 c7 45 b8 00 00 00 	movq   $0x0,-0x48(%rbp)
  40ba5d:	00 
  40ba5e:	48 8b 45 98          	mov    -0x68(%rbp),%rax
  40ba62:	48 89 c7             	mov    %rax,%rdi
  40ba65:	e8 b8 e7 ff ff       	callq  40a222 <_ZNSt12_Vector_baseIfSaIfEE19_M_get_Tp_allocatorEv>
  40ba6a:	48 89 c3             	mov    %rax,%rbx
  40ba6d:	48 8d 45 90          	lea    -0x70(%rbp),%rax
  40ba71:	48 89 c7             	mov    %rax,%rdi
  40ba74:	e8 79 fc ff ff       	callq  40b6f2 <_ZNK9__gnu_cxx17__normal_iteratorIPfSt6vectorIfSaIfEEE4baseEv>
  40ba79:	48 8b 30             	mov    (%rax),%rsi
  40ba7c:	48 8b 45 98          	mov    -0x68(%rbp),%rax
  40ba80:	48 8b 00             	mov    (%rax),%rax
  40ba83:	48 8b 55 e0          	mov    -0x20(%rbp),%rdx
  40ba87:	48 89 d9             	mov    %rbx,%rcx
  40ba8a:	48 89 c7             	mov    %rax,%rdi
  40ba8d:	e8 a7 07 00 00       	callq  40c239 <_ZSt34__uninitialized_move_if_noexcept_aIPfS0_SaIfEET0_T_S3_S2_RT1_>
  40ba92:	48 89 45 b8          	mov    %rax,-0x48(%rbp)
  40ba96:	48 8b 45 88          	mov    -0x78(%rbp),%rax
  40ba9a:	48 c1 e0 02          	shl    $0x2,%rax
  40ba9e:	48 01 45 b8          	add    %rax,-0x48(%rbp)
  40baa2:	48 8b 45 98          	mov    -0x68(%rbp),%rax
  40baa6:	48 89 c7             	mov    %rax,%rdi
  40baa9:	e8 74 e7 ff ff       	callq  40a222 <_ZNSt12_Vector_baseIfSaIfEE19_M_get_Tp_allocatorEv>
  40baae:	49 89 c4             	mov    %rax,%r12
  40bab1:	48 8b 45 98          	mov    -0x68(%rbp),%rax
  40bab5:	48 8b 58 08          	mov    0x8(%rax),%rbx
  40bab9:	48 8d 45 90          	lea    -0x70(%rbp),%rax
  40babd:	48 89 c7             	mov    %rax,%rdi
  40bac0:	e8 2d fc ff ff       	callq  40b6f2 <_ZNK9__gnu_cxx17__normal_iteratorIPfSt6vectorIfSaIfEEE4baseEv>
  40bac5:	48 8b 00             	mov    (%rax),%rax
  40bac8:	48 8b 55 b8          	mov    -0x48(%rbp),%rdx
  40bacc:	4c 89 e1             	mov    %r12,%rcx
  40bacf:	48 89 de             	mov    %rbx,%rsi
  40bad2:	48 89 c7             	mov    %rax,%rdi
  40bad5:	e8 5f 07 00 00       	callq  40c239 <_ZSt34__uninitialized_move_if_noexcept_aIPfS0_SaIfEET0_T_S3_S2_RT1_>
  40bada:	48 89 45 b8          	mov    %rax,-0x48(%rbp)
  40bade:	48 8b 45 98          	mov    -0x68(%rbp),%rax
  40bae2:	48 89 c7             	mov    %rax,%rdi
  40bae5:	e8 38 e7 ff ff       	callq  40a222 <_ZNSt12_Vector_baseIfSaIfEE19_M_get_Tp_allocatorEv>
  40baea:	48 89 c2             	mov    %rax,%rdx
  40baed:	48 8b 45 98          	mov    -0x68(%rbp),%rax
  40baf1:	48 8b 48 08          	mov    0x8(%rax),%rcx
  40baf5:	48 8b 45 98          	mov    -0x68(%rbp),%rax
  40baf9:	48 8b 00             	mov    (%rax),%rax
  40bafc:	48 89 ce             	mov    %rcx,%rsi
  40baff:	48 89 c7             	mov    %rax,%rdi
  40bb02:	e8 29 e7 ff ff       	callq  40a230 <_ZSt8_DestroyIPffEvT_S1_RSaIT0_E>
  40bb07:	48 8b 45 98          	mov    -0x68(%rbp),%rax
  40bb0b:	48 8b 40 10          	mov    0x10(%rax),%rax
  40bb0f:	48 89 c2             	mov    %rax,%rdx
  40bb12:	48 8b 45 98          	mov    -0x68(%rbp),%rax
  40bb16:	48 8b 00             	mov    (%rax),%rax
  40bb19:	48 29 c2             	sub    %rax,%rdx
  40bb1c:	48 89 d0             	mov    %rdx,%rax
  40bb1f:	48 c1 f8 02          	sar    $0x2,%rax
  40bb23:	48 89 c2             	mov    %rax,%rdx
  40bb26:	48 8b 45 98          	mov    -0x68(%rbp),%rax
  40bb2a:	48 8b 08             	mov    (%rax),%rcx
  40bb2d:	48 8b 45 98          	mov    -0x68(%rbp),%rax
  40bb31:	48 89 ce             	mov    %rcx,%rsi
  40bb34:	48 89 c7             	mov    %rax,%rdi
  40bb37:	e8 36 f3 ff ff       	callq  40ae72 <_ZNSt12_Vector_baseIfSaIfEE13_M_deallocateEPfm>
  40bb3c:	48 8b 45 98          	mov    -0x68(%rbp),%rax
  40bb40:	48 8b 55 e0          	mov    -0x20(%rbp),%rdx
  40bb44:	48 89 10             	mov    %rdx,(%rax)
  40bb47:	48 8b 45 98          	mov    -0x68(%rbp),%rax
  40bb4b:	48 8b 55 b8          	mov    -0x48(%rbp),%rdx
  40bb4f:	48 89 50 08          	mov    %rdx,0x8(%rax)
  40bb53:	48 8b 45 d0          	mov    -0x30(%rbp),%rax
  40bb57:	48 8d 14 85 00 00 00 	lea    0x0(,%rax,4),%rdx
  40bb5e:	00 
  40bb5f:	48 8b 45 e0          	mov    -0x20(%rbp),%rax
  40bb63:	48 01 c2             	add    %rax,%rdx
  40bb66:	48 8b 45 98          	mov    -0x68(%rbp),%rax
  40bb6a:	48 89 50 10          	mov    %rdx,0x10(%rax)
  40bb6e:	e9 ad 00 00 00       	jmpq   40bc20 <_ZNSt6vectorIfSaIfEE14_M_fill_insertEN9__gnu_cxx17__normal_iteratorIPfS1_EEmRKf+0x48a>
  40bb73:	48 89 c7             	mov    %rax,%rdi
  40bb76:	e8 b5 91 ff ff       	callq  404d30 <__cxa_begin_catch@plt>
  40bb7b:	48 83 7d b8 00       	cmpq   $0x0,-0x48(%rbp)
  40bb80:	75 4d                	jne    40bbcf <_ZNSt6vectorIfSaIfEE14_M_fill_insertEN9__gnu_cxx17__normal_iteratorIPfS1_EEmRKf+0x439>
  40bb82:	48 8b 45 98          	mov    -0x68(%rbp),%rax
  40bb86:	48 89 c7             	mov    %rax,%rdi
  40bb89:	e8 94 e6 ff ff       	callq  40a222 <_ZNSt12_Vector_baseIfSaIfEE19_M_get_Tp_allocatorEv>
  40bb8e:	48 89 c6             	mov    %rax,%rsi
  40bb91:	48 8b 55 d8          	mov    -0x28(%rbp),%rdx
  40bb95:	48 8b 45 88          	mov    -0x78(%rbp),%rax
  40bb99:	48 01 d0             	add    %rdx,%rax
  40bb9c:	48 8d 14 85 00 00 00 	lea    0x0(,%rax,4),%rdx
  40bba3:	00 
  40bba4:	48 8b 45 e0          	mov    -0x20(%rbp),%rax
  40bba8:	48 8d 0c 02          	lea    (%rdx,%rax,1),%rcx
  40bbac:	48 8b 45 d8          	mov    -0x28(%rbp),%rax
  40bbb0:	48 8d 14 85 00 00 00 	lea    0x0(,%rax,4),%rdx
  40bbb7:	00 
  40bbb8:	48 8b 45 e0          	mov    -0x20(%rbp),%rax
  40bbbc:	48 01 d0             	add    %rdx,%rax
  40bbbf:	48 89 f2             	mov    %rsi,%rdx
  40bbc2:	48 89 ce             	mov    %rcx,%rsi
  40bbc5:	48 89 c7             	mov    %rax,%rdi
  40bbc8:	e8 63 e6 ff ff       	callq  40a230 <_ZSt8_DestroyIPffEvT_S1_RSaIT0_E>
  40bbcd:	eb 22                	jmp    40bbf1 <_ZNSt6vectorIfSaIfEE14_M_fill_insertEN9__gnu_cxx17__normal_iteratorIPfS1_EEmRKf+0x45b>
  40bbcf:	48 8b 45 98          	mov    -0x68(%rbp),%rax
  40bbd3:	48 89 c7             	mov    %rax,%rdi
  40bbd6:	e8 47 e6 ff ff       	callq  40a222 <_ZNSt12_Vector_baseIfSaIfEE19_M_get_Tp_allocatorEv>
  40bbdb:	48 89 c2             	mov    %rax,%rdx
  40bbde:	48 8b 4d b8          	mov    -0x48(%rbp),%rcx
  40bbe2:	48 8b 45 e0          	mov    -0x20(%rbp),%rax
  40bbe6:	48 89 ce             	mov    %rcx,%rsi
  40bbe9:	48 89 c7             	mov    %rax,%rdi
  40bbec:	e8 3f e6 ff ff       	callq  40a230 <_ZSt8_DestroyIPffEvT_S1_RSaIT0_E>
  40bbf1:	48 8b 45 98          	mov    -0x68(%rbp),%rax
  40bbf5:	48 8b 55 d0          	mov    -0x30(%rbp),%rdx
  40bbf9:	48 8b 4d e0          	mov    -0x20(%rbp),%rcx
  40bbfd:	48 89 ce             	mov    %rcx,%rsi
  40bc00:	48 89 c7             	mov    %rax,%rdi
  40bc03:	e8 6a f2 ff ff       	callq  40ae72 <_ZNSt12_Vector_baseIfSaIfEE13_M_deallocateEPfm>
  40bc08:	e8 63 94 ff ff       	callq  405070 <__cxa_rethrow@plt>
  40bc0d:	48 89 c3             	mov    %rax,%rbx
  40bc10:	e8 2b 94 ff ff       	callq  405040 <__cxa_end_catch@plt>
  40bc15:	48 89 d8             	mov    %rbx,%rax
  40bc18:	48 89 c7             	mov    %rax,%rdi
  40bc1b:	e8 90 93 ff ff       	callq  404fb0 <_Unwind_Resume@plt>
  40bc20:	90                   	nop
  40bc21:	48 8b 45 e8          	mov    -0x18(%rbp),%rax
  40bc25:	64 48 33 04 25 28 00 	xor    %fs:0x28,%rax
  40bc2c:	00 00 
  40bc2e:	74 05                	je     40bc35 <_ZNSt6vectorIfSaIfEE14_M_fill_insertEN9__gnu_cxx17__normal_iteratorIPfS1_EEmRKf+0x49f>
  40bc30:	e8 eb 91 ff ff       	callq  404e20 <__stack_chk_fail@plt>
  40bc35:	48 83 c4 70          	add    $0x70,%rsp
  40bc39:	5b                   	pop    %rbx
  40bc3a:	41 5c                	pop    %r12
  40bc3c:	5d                   	pop    %rbp
  40bc3d:	c3                   	retq   

000000000040bc3e <_ZNSt6vectorIfSaIfEE5beginEv>:
  40bc3e:	55                   	push   %rbp
  40bc3f:	48 89 e5             	mov    %rsp,%rbp
  40bc42:	48 83 ec 20          	sub    $0x20,%rsp
  40bc46:	48 89 7d e8          	mov    %rdi,-0x18(%rbp)
  40bc4a:	64 48 8b 04 25 28 00 	mov    %fs:0x28,%rax
  40bc51:	00 00 
  40bc53:	48 89 45 f8          	mov    %rax,-0x8(%rbp)
  40bc57:	31 c0                	xor    %eax,%eax
  40bc59:	48 8b 55 e8          	mov    -0x18(%rbp),%rdx
  40bc5d:	48 8d 45 f0          	lea    -0x10(%rbp),%rax
  40bc61:	48 89 d6             	mov    %rdx,%rsi
  40bc64:	48 89 c7             	mov    %rax,%rdi
  40bc67:	e8 68 fa ff ff       	callq  40b6d4 <_ZN9__gnu_cxx17__normal_iteratorIPfSt6vectorIfSaIfEEEC1ERKS1_>
  40bc6c:	48 8b 45 f0          	mov    -0x10(%rbp),%rax
  40bc70:	48 8b 4d f8          	mov    -0x8(%rbp),%rcx
  40bc74:	64 48 33 0c 25 28 00 	xor    %fs:0x28,%rcx
  40bc7b:	00 00 
  40bc7d:	74 05                	je     40bc84 <_ZNSt6vectorIfSaIfEE5beginEv+0x46>
  40bc7f:	e8 9c 91 ff ff       	callq  404e20 <__stack_chk_fail@plt>
  40bc84:	c9                   	leaveq 
  40bc85:	c3                   	retq   

000000000040bc86 <_ZNK9__gnu_cxx17__normal_iteratorIPfSt6vectorIfSaIfEEEplEl>:
  40bc86:	55                   	push   %rbp
  40bc87:	48 89 e5             	mov    %rsp,%rbp
  40bc8a:	48 83 ec 30          	sub    $0x30,%rsp
  40bc8e:	48 89 7d d8          	mov    %rdi,-0x28(%rbp)
  40bc92:	48 89 75 d0          	mov    %rsi,-0x30(%rbp)
  40bc96:	64 48 8b 04 25 28 00 	mov    %fs:0x28,%rax
  40bc9d:	00 00 
  40bc9f:	48 89 45 f8          	mov    %rax,-0x8(%rbp)
  40bca3:	31 c0                	xor    %eax,%eax
  40bca5:	48 8b 45 d8          	mov    -0x28(%rbp),%rax
  40bca9:	48 8b 00             	mov    (%rax),%rax
  40bcac:	48 8b 55 d0          	mov    -0x30(%rbp),%rdx
  40bcb0:	48 c1 e2 02          	shl    $0x2,%rdx
  40bcb4:	48 01 d0             	add    %rdx,%rax
  40bcb7:	48 89 45 e8          	mov    %rax,-0x18(%rbp)
  40bcbb:	48 8d 55 e8          	lea    -0x18(%rbp),%rdx
  40bcbf:	48 8d 45 f0          	lea    -0x10(%rbp),%rax
  40bcc3:	48 89 d6             	mov    %rdx,%rsi
  40bcc6:	48 89 c7             	mov    %rax,%rdi
  40bcc9:	e8 06 fa ff ff       	callq  40b6d4 <_ZN9__gnu_cxx17__normal_iteratorIPfSt6vectorIfSaIfEEEC1ERKS1_>
  40bcce:	48 8b 45 f0          	mov    -0x10(%rbp),%rax
  40bcd2:	48 8b 4d f8          	mov    -0x8(%rbp),%rcx
  40bcd6:	64 48 33 0c 25 28 00 	xor    %fs:0x28,%rcx
  40bcdd:	00 00 
  40bcdf:	74 05                	je     40bce6 <_ZNK9__gnu_cxx17__normal_iteratorIPfSt6vectorIfSaIfEEEplEl+0x60>
  40bce1:	e8 3a 91 ff ff       	callq  404e20 <__stack_chk_fail@plt>
  40bce6:	c9                   	leaveq 
  40bce7:	c3                   	retq   

000000000040bce8 <_ZSt4copyISt13move_iteratorIPPN5caffe4BlobIfEEES5_ET0_T_S8_S7_>:
  40bce8:	55                   	push   %rbp
  40bce9:	48 89 e5             	mov    %rsp,%rbp
  40bcec:	53                   	push   %rbx
  40bced:	48 83 ec 28          	sub    $0x28,%rsp
  40bcf1:	48 89 7d e8          	mov    %rdi,-0x18(%rbp)
  40bcf5:	48 89 75 e0          	mov    %rsi,-0x20(%rbp)
  40bcf9:	48 89 55 d8          	mov    %rdx,-0x28(%rbp)
  40bcfd:	48 8b 45 e0          	mov    -0x20(%rbp),%rax
  40bd01:	48 89 c7             	mov    %rax,%rdi
  40bd04:	e8 a6 05 00 00       	callq  40c2af <_ZSt12__miter_baseIPPN5caffe4BlobIfEEEDTcl12__miter_basecldtfp_4baseEEESt13move_iteratorIT_E>
  40bd09:	48 89 c3             	mov    %rax,%rbx
  40bd0c:	48 8b 45 e8          	mov    -0x18(%rbp),%rax
  40bd10:	48 89 c7             	mov    %rax,%rdi
  40bd13:	e8 97 05 00 00       	callq  40c2af <_ZSt12__miter_baseIPPN5caffe4BlobIfEEEDTcl12__miter_basecldtfp_4baseEEESt13move_iteratorIT_E>
  40bd18:	48 89 c1             	mov    %rax,%rcx
  40bd1b:	48 8b 45 d8          	mov    -0x28(%rbp),%rax
  40bd1f:	48 89 c2             	mov    %rax,%rdx
  40bd22:	48 89 de             	mov    %rbx,%rsi
  40bd25:	48 89 cf             	mov    %rcx,%rdi
  40bd28:	e8 a4 05 00 00       	callq  40c2d1 <_ZSt14__copy_move_a2ILb1EPPN5caffe4BlobIfEES4_ET1_T0_S6_S5_>
  40bd2d:	48 83 c4 28          	add    $0x28,%rsp
  40bd31:	5b                   	pop    %rbx
  40bd32:	5d                   	pop    %rbp
  40bd33:	c3                   	retq   

000000000040bd34 <_ZNSaIN5boost10shared_ptrIN5caffe4BlobIfEEEEEC1Ev>:
  40bd34:	55                   	push   %rbp
  40bd35:	48 89 e5             	mov    %rsp,%rbp
  40bd38:	48 83 ec 10          	sub    $0x10,%rsp
  40bd3c:	48 89 7d f8          	mov    %rdi,-0x8(%rbp)
  40bd40:	48 8b 45 f8          	mov    -0x8(%rbp),%rax
  40bd44:	48 89 c7             	mov    %rax,%rdi
  40bd47:	e8 de 05 00 00       	callq  40c32a <_ZN9__gnu_cxx13new_allocatorIN5boost10shared_ptrIN5caffe4BlobIfEEEEEC1Ev>
  40bd4c:	90                   	nop
  40bd4d:	c9                   	leaveq 
  40bd4e:	c3                   	retq   
  40bd4f:	90                   	nop

000000000040bd50 <_ZNSaImEC1Ev>:
  40bd50:	55                   	push   %rbp
  40bd51:	48 89 e5             	mov    %rsp,%rbp
  40bd54:	48 83 ec 10          	sub    $0x10,%rsp
  40bd58:	48 89 7d f8          	mov    %rdi,-0x8(%rbp)
  40bd5c:	48 8b 45 f8          	mov    -0x8(%rbp),%rax
  40bd60:	48 89 c7             	mov    %rax,%rdi
  40bd63:	e8 ce 05 00 00       	callq  40c336 <_ZN9__gnu_cxx13new_allocatorImEC1Ev>
  40bd68:	90                   	nop
  40bd69:	c9                   	leaveq 
  40bd6a:	c3                   	retq   
  40bd6b:	90                   	nop

000000000040bd6c <_ZNSaIfEC1Ev>:
  40bd6c:	55                   	push   %rbp
  40bd6d:	48 89 e5             	mov    %rsp,%rbp
  40bd70:	48 83 ec 10          	sub    $0x10,%rsp
  40bd74:	48 89 7d f8          	mov    %rdi,-0x8(%rbp)
  40bd78:	48 8b 45 f8          	mov    -0x8(%rbp),%rax
  40bd7c:	48 89 c7             	mov    %rax,%rdi
  40bd7f:	e8 be 05 00 00       	callq  40c342 <_ZN9__gnu_cxx13new_allocatorIfEC1Ev>
  40bd84:	90                   	nop
  40bd85:	c9                   	leaveq 
  40bd86:	c3                   	retq   

000000000040bd87 <_ZSt25__uninitialized_default_nIPN5boost10shared_ptrIN5caffe4BlobIfEEEEmET_S7_T0_>:
  40bd87:	55                   	push   %rbp
  40bd88:	48 89 e5             	mov    %rsp,%rbp
  40bd8b:	48 83 ec 20          	sub    $0x20,%rsp
  40bd8f:	48 89 7d e8          	mov    %rdi,-0x18(%rbp)
  40bd93:	48 89 75 e0          	mov    %rsi,-0x20(%rbp)
  40bd97:	c6 45 ff 01          	movb   $0x1,-0x1(%rbp)
  40bd9b:	48 8b 55 e0          	mov    -0x20(%rbp),%rdx
  40bd9f:	48 8b 45 e8          	mov    -0x18(%rbp),%rax
  40bda3:	48 89 d6             	mov    %rdx,%rsi
  40bda6:	48 89 c7             	mov    %rax,%rdi
  40bda9:	e8 9f 05 00 00       	callq  40c34d <_ZNSt27__uninitialized_default_n_1ILb0EE18__uninit_default_nIPN5boost10shared_ptrIN5caffe4BlobIfEEEEmEET_S9_T0_>
  40bdae:	c9                   	leaveq 
  40bdaf:	c3                   	retq   

000000000040bdb0 <_ZNKSt6vectorIN5boost10shared_ptrIN5caffe4BlobIfEEEESaIS5_EE8max_sizeEv>:
  40bdb0:	55                   	push   %rbp
  40bdb1:	48 89 e5             	mov    %rsp,%rbp
  40bdb4:	48 83 ec 10          	sub    $0x10,%rsp
  40bdb8:	48 89 7d f8          	mov    %rdi,-0x8(%rbp)
  40bdbc:	48 8b 45 f8          	mov    -0x8(%rbp),%rax
  40bdc0:	48 89 c7             	mov    %rax,%rdi
  40bdc3:	e8 e4 05 00 00       	callq  40c3ac <_ZNKSt12_Vector_baseIN5boost10shared_ptrIN5caffe4BlobIfEEEESaIS5_EE19_M_get_Tp_allocatorEv>
  40bdc8:	48 89 c7             	mov    %rax,%rdi
  40bdcb:	e8 c2 05 00 00       	callq  40c392 <_ZNSt16allocator_traitsISaIN5boost10shared_ptrIN5caffe4BlobIfEEEEEE8max_sizeERKS6_>
  40bdd0:	c9                   	leaveq 
  40bdd1:	c3                   	retq   

000000000040bdd2 <_ZNSt16allocator_traitsISaIN5boost10shared_ptrIN5caffe4BlobIfEEEEEE8allocateERS6_m>:
  40bdd2:	55                   	push   %rbp
  40bdd3:	48 89 e5             	mov    %rsp,%rbp
  40bdd6:	48 83 ec 10          	sub    $0x10,%rsp
  40bdda:	48 89 7d f8          	mov    %rdi,-0x8(%rbp)
  40bdde:	48 89 75 f0          	mov    %rsi,-0x10(%rbp)
  40bde2:	48 8b 4d f0          	mov    -0x10(%rbp),%rcx
  40bde6:	48 8b 45 f8          	mov    -0x8(%rbp),%rax
  40bdea:	ba 00 00 00 00       	mov    $0x0,%edx
  40bdef:	48 89 ce             	mov    %rcx,%rsi
  40bdf2:	48 89 c7             	mov    %rax,%rdi
  40bdf5:	e8 c0 05 00 00       	callq  40c3ba <_ZN9__gnu_cxx13new_allocatorIN5boost10shared_ptrIN5caffe4BlobIfEEEEE8allocateEmPKv>
  40bdfa:	c9                   	leaveq 
  40bdfb:	c3                   	retq   

000000000040bdfc <_ZSt32__make_move_if_noexcept_iteratorIN5boost10shared_ptrIN5caffe4BlobIfEEEESt13move_iteratorIPS5_EET0_PT_>:
  40bdfc:	55                   	push   %rbp
  40bdfd:	48 89 e5             	mov    %rsp,%rbp
  40be00:	48 83 ec 20          	sub    $0x20,%rsp
  40be04:	48 89 7d e8          	mov    %rdi,-0x18(%rbp)
  40be08:	64 48 8b 04 25 28 00 	mov    %fs:0x28,%rax
  40be0f:	00 00 
  40be11:	48 89 45 f8          	mov    %rax,-0x8(%rbp)
  40be15:	31 c0                	xor    %eax,%eax
  40be17:	48 8b 55 e8          	mov    -0x18(%rbp),%rdx
  40be1b:	48 8d 45 f0          	lea    -0x10(%rbp),%rax
  40be1f:	48 89 d6             	mov    %rdx,%rsi
  40be22:	48 89 c7             	mov    %rax,%rdi
  40be25:	e8 d2 05 00 00       	callq  40c3fc <_ZNSt13move_iteratorIPN5boost10shared_ptrIN5caffe4BlobIfEEEEEC1ES6_>
  40be2a:	48 8b 45 f0          	mov    -0x10(%rbp),%rax
  40be2e:	48 8b 4d f8          	mov    -0x8(%rbp),%rcx
  40be32:	64 48 33 0c 25 28 00 	xor    %fs:0x28,%rcx
  40be39:	00 00 
  40be3b:	74 05                	je     40be42 <_ZSt32__make_move_if_noexcept_iteratorIN5boost10shared_ptrIN5caffe4BlobIfEEEESt13move_iteratorIPS5_EET0_PT_+0x46>
  40be3d:	e8 de 8f ff ff       	callq  404e20 <__stack_chk_fail@plt>
  40be42:	c9                   	leaveq 
  40be43:	c3                   	retq   

000000000040be44 <_ZSt22__uninitialized_copy_aISt13move_iteratorIPN5boost10shared_ptrIN5caffe4BlobIfEEEEES7_S6_ET0_T_SA_S9_RSaIT1_E>:
  40be44:	55                   	push   %rbp
  40be45:	48 89 e5             	mov    %rsp,%rbp
  40be48:	48 83 ec 20          	sub    $0x20,%rsp
  40be4c:	48 89 7d f8          	mov    %rdi,-0x8(%rbp)
  40be50:	48 89 75 f0          	mov    %rsi,-0x10(%rbp)
  40be54:	48 89 55 e8          	mov    %rdx,-0x18(%rbp)
  40be58:	48 89 4d e0          	mov    %rcx,-0x20(%rbp)
  40be5c:	48 8b 55 e8          	mov    -0x18(%rbp),%rdx
  40be60:	48 8b 4d f0          	mov    -0x10(%rbp),%rcx
  40be64:	48 8b 45 f8          	mov    -0x8(%rbp),%rax
  40be68:	48 89 ce             	mov    %rcx,%rsi
  40be6b:	48 89 c7             	mov    %rax,%rdi
  40be6e:	e8 a3 05 00 00       	callq  40c416 <_ZSt18uninitialized_copyISt13move_iteratorIPN5boost10shared_ptrIN5caffe4BlobIfEEEEES7_ET0_T_SA_S9_>
  40be73:	c9                   	leaveq 
  40be74:	c3                   	retq   
  40be75:	90                   	nop

000000000040be76 <_ZN5boost6detail12shared_countC1IN5caffe4BlobIfEEEEPT_>:
  40be76:	55                   	push   %rbp
  40be77:	48 89 e5             	mov    %rsp,%rbp
  40be7a:	53                   	push   %rbx
  40be7b:	48 83 ec 18          	sub    $0x18,%rsp
  40be7f:	48 89 7d e8          	mov    %rdi,-0x18(%rbp)
  40be83:	48 89 75 e0          	mov    %rsi,-0x20(%rbp)
  40be87:	48 8b 45 e8          	mov    -0x18(%rbp),%rax
  40be8b:	48 c7 00 00 00 00 00 	movq   $0x0,(%rax)
  40be92:	bf 18 00 00 00       	mov    $0x18,%edi
  40be97:	e8 14 8f ff ff       	callq  404db0 <_Znwm@plt>
  40be9c:	48 89 c3             	mov    %rax,%rbx
  40be9f:	48 8b 45 e0          	mov    -0x20(%rbp),%rax
  40bea3:	48 89 c6             	mov    %rax,%rsi
  40bea6:	48 89 df             	mov    %rbx,%rdi
  40bea9:	e8 9a 05 00 00       	callq  40c448 <_ZN5boost6detail17sp_counted_impl_pIN5caffe4BlobIfEEEC1EPS4_>
  40beae:	48 8b 45 e8          	mov    -0x18(%rbp),%rax
  40beb2:	48 89 18             	mov    %rbx,(%rax)
  40beb5:	eb 2c                	jmp    40bee3 <_ZN5boost6detail12shared_countC1IN5caffe4BlobIfEEEEPT_+0x6d>
  40beb7:	48 89 c7             	mov    %rax,%rdi
  40beba:	e8 71 8e ff ff       	callq  404d30 <__cxa_begin_catch@plt>
  40bebf:	48 8b 45 e0          	mov    -0x20(%rbp),%rax
  40bec3:	48 89 c7             	mov    %rax,%rdi
  40bec6:	e8 b4 05 00 00       	callq  40c47f <_ZN5boost14checked_deleteIN5caffe4BlobIfEEEEvPT_>
  40becb:	e8 a0 91 ff ff       	callq  405070 <__cxa_rethrow@plt>
  40bed0:	48 89 c3             	mov    %rax,%rbx
  40bed3:	e8 68 91 ff ff       	callq  405040 <__cxa_end_catch@plt>
  40bed8:	48 89 d8             	mov    %rbx,%rax
  40bedb:	48 89 c7             	mov    %rax,%rdi
  40bede:	e8 cd 90 ff ff       	callq  404fb0 <_Unwind_Resume@plt>
  40bee3:	48 83 c4 18          	add    $0x18,%rsp
  40bee7:	5b                   	pop    %rbx
  40bee8:	5d                   	pop    %rbp
  40bee9:	c3                   	retq   

000000000040beea <_ZN9__gnu_cxx13new_allocatorIN5boost10shared_ptrIN5caffe4BlobIfEEEEE10deallocateEPS6_m>:
  40beea:	55                   	push   %rbp
  40beeb:	48 89 e5             	mov    %rsp,%rbp
  40beee:	48 83 ec 20          	sub    $0x20,%rsp
  40bef2:	48 89 7d f8          	mov    %rdi,-0x8(%rbp)
  40bef6:	48 89 75 f0          	mov    %rsi,-0x10(%rbp)
  40befa:	48 89 55 e8          	mov    %rdx,-0x18(%rbp)
  40befe:	48 8b 45 f0          	mov    -0x10(%rbp),%rax
  40bf02:	48 89 c7             	mov    %rax,%rdi
  40bf05:	e8 16 90 ff ff       	callq  404f20 <_ZdlPv@plt>
  40bf0a:	90                   	nop
  40bf0b:	c9                   	leaveq 
  40bf0c:	c3                   	retq   

000000000040bf0d <_ZSt11__addressofIN5boost10shared_ptrIN5caffe4BlobIfEEEEEPT_RS6_>:
  40bf0d:	55                   	push   %rbp
  40bf0e:	48 89 e5             	mov    %rsp,%rbp
  40bf11:	48 89 7d f8          	mov    %rdi,-0x8(%rbp)
  40bf15:	48 8b 45 f8          	mov    -0x8(%rbp),%rax
  40bf19:	5d                   	pop    %rbp
  40bf1a:	c3                   	retq   

000000000040bf1b <_ZSt8_DestroyIN5boost10shared_ptrIN5caffe4BlobIfEEEEEvPT_>:
  40bf1b:	55                   	push   %rbp
  40bf1c:	48 89 e5             	mov    %rsp,%rbp
  40bf1f:	48 83 ec 10          	sub    $0x10,%rsp
  40bf23:	48 89 7d f8          	mov    %rdi,-0x8(%rbp)
  40bf27:	48 8b 45 f8          	mov    -0x8(%rbp),%rax
  40bf2b:	48 89 c7             	mov    %rax,%rdi
  40bf2e:	e8 ab e0 ff ff       	callq  409fde <_ZN5boost10shared_ptrIN5caffe4BlobIfEEED1Ev>
  40bf33:	90                   	nop
  40bf34:	c9                   	leaveq 
  40bf35:	c3                   	retq   

000000000040bf36 <_ZSt11__addressofImEPT_RS0_>:
  40bf36:	55                   	push   %rbp
  40bf37:	48 89 e5             	mov    %rsp,%rbp
  40bf3a:	48 89 7d f8          	mov    %rdi,-0x8(%rbp)
  40bf3e:	48 8b 45 f8          	mov    -0x8(%rbp),%rax
  40bf42:	5d                   	pop    %rbp
  40bf43:	c3                   	retq   

000000000040bf44 <_ZN9__gnu_cxx13new_allocatorImE10deallocateEPmm>:
  40bf44:	55                   	push   %rbp
  40bf45:	48 89 e5             	mov    %rsp,%rbp
  40bf48:	48 83 ec 20          	sub    $0x20,%rsp
  40bf4c:	48 89 7d f8          	mov    %rdi,-0x8(%rbp)
  40bf50:	48 89 75 f0          	mov    %rsi,-0x10(%rbp)
  40bf54:	48 89 55 e8          	mov    %rdx,-0x18(%rbp)
  40bf58:	48 8b 45 f0          	mov    -0x10(%rbp),%rax
  40bf5c:	48 89 c7             	mov    %rax,%rdi
  40bf5f:	e8 bc 8f ff ff       	callq  404f20 <_ZdlPv@plt>
  40bf64:	90                   	nop
  40bf65:	c9                   	leaveq 
  40bf66:	c3                   	retq   
  40bf67:	90                   	nop

000000000040bf68 <_ZN9__gnu_cxx13new_allocatorIfE10deallocateEPfm>:
  40bf68:	55                   	push   %rbp
  40bf69:	48 89 e5             	mov    %rsp,%rbp
  40bf6c:	48 83 ec 20          	sub    $0x20,%rsp
  40bf70:	48 89 7d f8          	mov    %rdi,-0x8(%rbp)
  40bf74:	48 89 75 f0          	mov    %rsi,-0x10(%rbp)
  40bf78:	48 89 55 e8          	mov    %rdx,-0x18(%rbp)
  40bf7c:	48 8b 45 f0          	mov    -0x10(%rbp),%rax
  40bf80:	48 89 c7             	mov    %rax,%rdi
  40bf83:	e8 98 8f ff ff       	callq  404f20 <_ZdlPv@plt>
  40bf88:	90                   	nop
  40bf89:	c9                   	leaveq 
  40bf8a:	c3                   	retq   
  40bf8b:	90                   	nop

000000000040bf8c <_ZN9__gnu_cxx17__normal_iteratorIPKfSt6vectorIfSaIfEEEC1ERKS2_>:
  40bf8c:	55                   	push   %rbp
  40bf8d:	48 89 e5             	mov    %rsp,%rbp
  40bf90:	48 89 7d f8          	mov    %rdi,-0x8(%rbp)
  40bf94:	48 89 75 f0          	mov    %rsi,-0x10(%rbp)
  40bf98:	48 8b 45 f0          	mov    -0x10(%rbp),%rax
  40bf9c:	48 8b 10             	mov    (%rax),%rdx
  40bf9f:	48 8b 45 f8          	mov    -0x8(%rbp),%rax
  40bfa3:	48 89 10             	mov    %rdx,(%rax)
  40bfa6:	90                   	nop
  40bfa7:	5d                   	pop    %rbp
  40bfa8:	c3                   	retq   
  40bfa9:	90                   	nop

000000000040bfaa <_ZNK9__gnu_cxx17__normal_iteratorIPKfSt6vectorIfSaIfEEE4baseEv>:
  40bfaa:	55                   	push   %rbp
  40bfab:	48 89 e5             	mov    %rsp,%rbp
  40bfae:	48 89 7d f8          	mov    %rdi,-0x8(%rbp)
  40bfb2:	48 8b 45 f8          	mov    -0x8(%rbp),%rax
  40bfb6:	5d                   	pop    %rbp
  40bfb7:	c3                   	retq   

000000000040bfb8 <_ZN9__gnu_cxxmiIPfSt6vectorIfSaIfEEEENS_17__normal_iteratorIT_T0_E15difference_typeERKS8_SB_>:
  40bfb8:	55                   	push   %rbp
  40bfb9:	48 89 e5             	mov    %rsp,%rbp
  40bfbc:	53                   	push   %rbx
  40bfbd:	48 83 ec 18          	sub    $0x18,%rsp
  40bfc1:	48 89 7d e8          	mov    %rdi,-0x18(%rbp)
  40bfc5:	48 89 75 e0          	mov    %rsi,-0x20(%rbp)
  40bfc9:	48 8b 45 e8          	mov    -0x18(%rbp),%rax
  40bfcd:	48 89 c7             	mov    %rax,%rdi
  40bfd0:	e8 1d f7 ff ff       	callq  40b6f2 <_ZNK9__gnu_cxx17__normal_iteratorIPfSt6vectorIfSaIfEEE4baseEv>
  40bfd5:	48 8b 00             	mov    (%rax),%rax
  40bfd8:	48 89 c3             	mov    %rax,%rbx
  40bfdb:	48 8b 45 e0          	mov    -0x20(%rbp),%rax
  40bfdf:	48 89 c7             	mov    %rax,%rdi
  40bfe2:	e8 0b f7 ff ff       	callq  40b6f2 <_ZNK9__gnu_cxx17__normal_iteratorIPfSt6vectorIfSaIfEEE4baseEv>
  40bfe7:	48 8b 00             	mov    (%rax),%rax
  40bfea:	48 29 c3             	sub    %rax,%rbx
  40bfed:	48 89 d8             	mov    %rbx,%rax
  40bff0:	48 c1 f8 02          	sar    $0x2,%rax
  40bff4:	48 83 c4 18          	add    $0x18,%rsp
  40bff8:	5b                   	pop    %rbx
  40bff9:	5d                   	pop    %rbp
  40bffa:	c3                   	retq   

000000000040bffb <_ZSt22__uninitialized_move_aIPfS0_SaIfEET0_T_S3_S2_RT1_>:
  40bffb:	55                   	push   %rbp
  40bffc:	48 89 e5             	mov    %rsp,%rbp
  40bfff:	53                   	push   %rbx
  40c000:	48 83 ec 28          	sub    $0x28,%rsp
  40c004:	48 89 7d e8          	mov    %rdi,-0x18(%rbp)
  40c008:	48 89 75 e0          	mov    %rsi,-0x20(%rbp)
  40c00c:	48 89 55 d8          	mov    %rdx,-0x28(%rbp)
  40c010:	48 89 4d d0          	mov    %rcx,-0x30(%rbp)
  40c014:	48 8b 45 e0          	mov    -0x20(%rbp),%rax
  40c018:	48 89 c7             	mov    %rax,%rdi
  40c01b:	e8 8d 04 00 00       	callq  40c4ad <_ZSt18make_move_iteratorIPfESt13move_iteratorIT_ES2_>
  40c020:	48 89 c3             	mov    %rax,%rbx
  40c023:	48 8b 45 e8          	mov    -0x18(%rbp),%rax
  40c027:	48 89 c7             	mov    %rax,%rdi
  40c02a:	e8 7e 04 00 00       	callq  40c4ad <_ZSt18make_move_iteratorIPfESt13move_iteratorIT_ES2_>
  40c02f:	48 89 c7             	mov    %rax,%rdi
  40c032:	48 8b 55 d0          	mov    -0x30(%rbp),%rdx
  40c036:	48 8b 45 d8          	mov    -0x28(%rbp),%rax
  40c03a:	48 89 d1             	mov    %rdx,%rcx
  40c03d:	48 89 c2             	mov    %rax,%rdx
  40c040:	48 89 de             	mov    %rbx,%rsi
  40c043:	e8 ad 04 00 00       	callq  40c4f5 <_ZSt22__uninitialized_copy_aISt13move_iteratorIPfES1_fET0_T_S4_S3_RSaIT1_E>
  40c048:	48 83 c4 28          	add    $0x28,%rsp
  40c04c:	5b                   	pop    %rbx
  40c04d:	5d                   	pop    %rbp
  40c04e:	c3                   	retq   

000000000040c04f <_ZSt13move_backwardIPfS0_ET0_T_S2_S1_>:
  40c04f:	55                   	push   %rbp
  40c050:	48 89 e5             	mov    %rsp,%rbp
  40c053:	53                   	push   %rbx
  40c054:	48 83 ec 28          	sub    $0x28,%rsp
  40c058:	48 89 7d e8          	mov    %rdi,-0x18(%rbp)
  40c05c:	48 89 75 e0          	mov    %rsi,-0x20(%rbp)
  40c060:	48 89 55 d8          	mov    %rdx,-0x28(%rbp)
  40c064:	48 8b 45 e0          	mov    -0x20(%rbp),%rax
  40c068:	48 89 c7             	mov    %rax,%rdi
  40c06b:	e8 b6 04 00 00       	callq  40c526 <_ZSt12__miter_baseIPfET_S1_>
  40c070:	48 89 c3             	mov    %rax,%rbx
  40c073:	48 8b 45 e8          	mov    -0x18(%rbp),%rax
  40c077:	48 89 c7             	mov    %rax,%rdi
  40c07a:	e8 a7 04 00 00       	callq  40c526 <_ZSt12__miter_baseIPfET_S1_>
  40c07f:	48 89 c1             	mov    %rax,%rcx
  40c082:	48 8b 45 d8          	mov    -0x28(%rbp),%rax
  40c086:	48 89 c2             	mov    %rax,%rdx
  40c089:	48 89 de             	mov    %rbx,%rsi
  40c08c:	48 89 cf             	mov    %rcx,%rdi
  40c08f:	e8 a0 04 00 00       	callq  40c534 <_ZSt23__copy_move_backward_a2ILb1EPfS0_ET1_T0_S2_S1_>
  40c094:	48 83 c4 28          	add    $0x28,%rsp
  40c098:	5b                   	pop    %rbx
  40c099:	5d                   	pop    %rbp
  40c09a:	c3                   	retq   

000000000040c09b <_ZSt4fillIPffEvT_S1_RKT0_>:
  40c09b:	55                   	push   %rbp
  40c09c:	48 89 e5             	mov    %rsp,%rbp
  40c09f:	53                   	push   %rbx
  40c0a0:	48 83 ec 28          	sub    $0x28,%rsp
  40c0a4:	48 89 7d e8          	mov    %rdi,-0x18(%rbp)
  40c0a8:	48 89 75 e0          	mov    %rsi,-0x20(%rbp)
  40c0ac:	48 89 55 d8          	mov    %rdx,-0x28(%rbp)
  40c0b0:	48 8b 45 e0          	mov    -0x20(%rbp),%rax
  40c0b4:	48 89 c7             	mov    %rax,%rdi
  40c0b7:	e8 d0 04 00 00       	callq  40c58c <_ZSt12__niter_baseIPfET_S1_>
  40c0bc:	48 89 c3             	mov    %rax,%rbx
  40c0bf:	48 8b 45 e8          	mov    -0x18(%rbp),%rax
  40c0c3:	48 89 c7             	mov    %rax,%rdi
  40c0c6:	e8 c1 04 00 00       	callq  40c58c <_ZSt12__niter_baseIPfET_S1_>
  40c0cb:	48 89 c1             	mov    %rax,%rcx
  40c0ce:	48 8b 45 d8          	mov    -0x28(%rbp),%rax
  40c0d2:	48 89 c2             	mov    %rax,%rdx
  40c0d5:	48 89 de             	mov    %rbx,%rsi
  40c0d8:	48 89 cf             	mov    %rcx,%rdi
  40c0db:	e8 ba 04 00 00       	callq  40c59a <_ZSt8__fill_aIPffEN9__gnu_cxx11__enable_ifIXsrSt11__is_scalarIT0_E7__valueEvE6__typeET_S8_RKS4_>
  40c0e0:	90                   	nop
  40c0e1:	48 83 c4 28          	add    $0x28,%rsp
  40c0e5:	5b                   	pop    %rbx
  40c0e6:	5d                   	pop    %rbp
  40c0e7:	c3                   	retq   

000000000040c0e8 <_ZSt24__uninitialized_fill_n_aIPfmffET_S1_T0_RKT1_RSaIT2_E>:
  40c0e8:	55                   	push   %rbp
  40c0e9:	48 89 e5             	mov    %rsp,%rbp
  40c0ec:	48 83 ec 20          	sub    $0x20,%rsp
  40c0f0:	48 89 7d f8          	mov    %rdi,-0x8(%rbp)
  40c0f4:	48 89 75 f0          	mov    %rsi,-0x10(%rbp)
  40c0f8:	48 89 55 e8          	mov    %rdx,-0x18(%rbp)
  40c0fc:	48 89 4d e0          	mov    %rcx,-0x20(%rbp)
  40c100:	48 8b 55 e8          	mov    -0x18(%rbp),%rdx
  40c104:	48 8b 4d f0          	mov    -0x10(%rbp),%rcx
  40c108:	48 8b 45 f8          	mov    -0x8(%rbp),%rax
  40c10c:	48 89 ce             	mov    %rcx,%rsi
  40c10f:	48 89 c7             	mov    %rax,%rdi
  40c112:	e8 c1 04 00 00       	callq  40c5d8 <_ZSt20uninitialized_fill_nIPfmfET_S1_T0_RKT1_>
  40c117:	c9                   	leaveq 
  40c118:	c3                   	retq   
  40c119:	90                   	nop

000000000040c11a <_ZNKSt6vectorIfSaIfEE12_M_check_lenEmPKc>:
  40c11a:	55                   	push   %rbp
  40c11b:	48 89 e5             	mov    %rsp,%rbp
  40c11e:	53                   	push   %rbx
  40c11f:	48 83 ec 48          	sub    $0x48,%rsp
  40c123:	48 89 7d c8          	mov    %rdi,-0x38(%rbp)
  40c127:	48 89 75 c0          	mov    %rsi,-0x40(%rbp)
  40c12b:	48 89 55 b8          	mov    %rdx,-0x48(%rbp)
  40c12f:	64 48 8b 04 25 28 00 	mov    %fs:0x28,%rax
  40c136:	00 00 
  40c138:	48 89 45 e8          	mov    %rax,-0x18(%rbp)
  40c13c:	31 c0                	xor    %eax,%eax
  40c13e:	48 8b 45 c8          	mov    -0x38(%rbp),%rax
  40c142:	48 89 c7             	mov    %rax,%rdi
  40c145:	e8 c0 04 00 00       	callq  40c60a <_ZNKSt6vectorIfSaIfEE8max_sizeEv>
  40c14a:	48 89 c3             	mov    %rax,%rbx
  40c14d:	48 8b 45 c8          	mov    -0x38(%rbp),%rax
  40c151:	48 89 c7             	mov    %rax,%rdi
  40c154:	e8 d7 d9 ff ff       	callq  409b30 <_ZNKSt6vectorIfSaIfEE4sizeEv>
  40c159:	48 29 c3             	sub    %rax,%rbx
  40c15c:	48 89 da             	mov    %rbx,%rdx
  40c15f:	48 8b 45 c0          	mov    -0x40(%rbp),%rax
  40c163:	48 39 c2             	cmp    %rax,%rdx
  40c166:	0f 92 c0             	setb   %al
  40c169:	84 c0                	test   %al,%al
  40c16b:	74 0c                	je     40c179 <_ZNKSt6vectorIfSaIfEE12_M_check_lenEmPKc+0x5f>
  40c16d:	48 8b 45 b8          	mov    -0x48(%rbp),%rax
  40c171:	48 89 c7             	mov    %rax,%rdi
  40c174:	e8 07 8e ff ff       	callq  404f80 <_ZSt20__throw_length_errorPKc@plt>
  40c179:	48 8b 45 c8          	mov    -0x38(%rbp),%rax
  40c17d:	48 89 c7             	mov    %rax,%rdi
  40c180:	e8 ab d9 ff ff       	callq  409b30 <_ZNKSt6vectorIfSaIfEE4sizeEv>
  40c185:	48 89 c3             	mov    %rax,%rbx
  40c188:	48 8b 45 c8          	mov    -0x38(%rbp),%rax
  40c18c:	48 89 c7             	mov    %rax,%rdi
  40c18f:	e8 9c d9 ff ff       	callq  409b30 <_ZNKSt6vectorIfSaIfEE4sizeEv>
  40c194:	48 89 45 d8          	mov    %rax,-0x28(%rbp)
  40c198:	48 8d 55 c0          	lea    -0x40(%rbp),%rdx
  40c19c:	48 8d 45 d8          	lea    -0x28(%rbp),%rax
  40c1a0:	48 89 d6             	mov    %rdx,%rsi
  40c1a3:	48 89 c7             	mov    %rax,%rdi
  40c1a6:	e8 17 dc ff ff       	callq  409dc2 <_ZSt3maxImERKT_S2_S2_>
  40c1ab:	48 8b 00             	mov    (%rax),%rax
  40c1ae:	48 01 d8             	add    %rbx,%rax
  40c1b1:	48 89 45 e0          	mov    %rax,-0x20(%rbp)
  40c1b5:	48 8b 45 c8          	mov    -0x38(%rbp),%rax
  40c1b9:	48 89 c7             	mov    %rax,%rdi
  40c1bc:	e8 6f d9 ff ff       	callq  409b30 <_ZNKSt6vectorIfSaIfEE4sizeEv>
  40c1c1:	48 3b 45 e0          	cmp    -0x20(%rbp),%rax
  40c1c5:	77 12                	ja     40c1d9 <_ZNKSt6vectorIfSaIfEE12_M_check_lenEmPKc+0xbf>
  40c1c7:	48 8b 45 c8          	mov    -0x38(%rbp),%rax
  40c1cb:	48 89 c7             	mov    %rax,%rdi
  40c1ce:	e8 37 04 00 00       	callq  40c60a <_ZNKSt6vectorIfSaIfEE8max_sizeEv>
  40c1d3:	48 3b 45 e0          	cmp    -0x20(%rbp),%rax
  40c1d7:	73 0e                	jae    40c1e7 <_ZNKSt6vectorIfSaIfEE12_M_check_lenEmPKc+0xcd>
  40c1d9:	48 8b 45 c8          	mov    -0x38(%rbp),%rax
  40c1dd:	48 89 c7             	mov    %rax,%rdi
  40c1e0:	e8 25 04 00 00       	callq  40c60a <_ZNKSt6vectorIfSaIfEE8max_sizeEv>
  40c1e5:	eb 04                	jmp    40c1eb <_ZNKSt6vectorIfSaIfEE12_M_check_lenEmPKc+0xd1>
  40c1e7:	48 8b 45 e0          	mov    -0x20(%rbp),%rax
  40c1eb:	48 8b 4d e8          	mov    -0x18(%rbp),%rcx
  40c1ef:	64 48 33 0c 25 28 00 	xor    %fs:0x28,%rcx
  40c1f6:	00 00 
  40c1f8:	74 05                	je     40c1ff <_ZNKSt6vectorIfSaIfEE12_M_check_lenEmPKc+0xe5>
  40c1fa:	e8 21 8c ff ff       	callq  404e20 <__stack_chk_fail@plt>
  40c1ff:	48 83 c4 48          	add    $0x48,%rsp
  40c203:	5b                   	pop    %rbx
  40c204:	5d                   	pop    %rbp
  40c205:	c3                   	retq   

000000000040c206 <_ZNSt12_Vector_baseIfSaIfEE11_M_allocateEm>:
  40c206:	55                   	push   %rbp
  40c207:	48 89 e5             	mov    %rsp,%rbp
  40c20a:	48 83 ec 10          	sub    $0x10,%rsp
  40c20e:	48 89 7d f8          	mov    %rdi,-0x8(%rbp)
  40c212:	48 89 75 f0          	mov    %rsi,-0x10(%rbp)
  40c216:	48 83 7d f0 00       	cmpq   $0x0,-0x10(%rbp)
  40c21b:	74 15                	je     40c232 <_ZNSt12_Vector_baseIfSaIfEE11_M_allocateEm+0x2c>
  40c21d:	48 8b 45 f8          	mov    -0x8(%rbp),%rax
  40c221:	48 8b 55 f0          	mov    -0x10(%rbp),%rdx
  40c225:	48 89 d6             	mov    %rdx,%rsi
  40c228:	48 89 c7             	mov    %rax,%rdi
  40c22b:	e8 fc 03 00 00       	callq  40c62c <_ZNSt16allocator_traitsISaIfEE8allocateERS0_m>
  40c230:	eb 05                	jmp    40c237 <_ZNSt12_Vector_baseIfSaIfEE11_M_allocateEm+0x31>
  40c232:	b8 00 00 00 00       	mov    $0x0,%eax
  40c237:	c9                   	leaveq 
  40c238:	c3                   	retq   

000000000040c239 <_ZSt34__uninitialized_move_if_noexcept_aIPfS0_SaIfEET0_T_S3_S2_RT1_>:
  40c239:	55                   	push   %rbp
  40c23a:	48 89 e5             	mov    %rsp,%rbp
  40c23d:	53                   	push   %rbx
  40c23e:	48 83 ec 28          	sub    $0x28,%rsp
  40c242:	48 89 7d e8          	mov    %rdi,-0x18(%rbp)
  40c246:	48 89 75 e0          	mov    %rsi,-0x20(%rbp)
  40c24a:	48 89 55 d8          	mov    %rdx,-0x28(%rbp)
  40c24e:	48 89 4d d0          	mov    %rcx,-0x30(%rbp)
  40c252:	48 8b 45 e0          	mov    -0x20(%rbp),%rax
  40c256:	48 89 c7             	mov    %rax,%rdi
  40c259:	e8 f8 03 00 00       	callq  40c656 <_ZSt32__make_move_if_noexcept_iteratorIfSt13move_iteratorIPfEET0_PT_>
  40c25e:	48 89 c3             	mov    %rax,%rbx
  40c261:	48 8b 45 e8          	mov    -0x18(%rbp),%rax
  40c265:	48 89 c7             	mov    %rax,%rdi
  40c268:	e8 e9 03 00 00       	callq  40c656 <_ZSt32__make_move_if_noexcept_iteratorIfSt13move_iteratorIPfEET0_PT_>
  40c26d:	48 89 c7             	mov    %rax,%rdi
  40c270:	48 8b 55 d0          	mov    -0x30(%rbp),%rdx
  40c274:	48 8b 45 d8          	mov    -0x28(%rbp),%rax
  40c278:	48 89 d1             	mov    %rdx,%rcx
  40c27b:	48 89 c2             	mov    %rax,%rdx
  40c27e:	48 89 de             	mov    %rbx,%rsi
  40c281:	e8 6f 02 00 00       	callq  40c4f5 <_ZSt22__uninitialized_copy_aISt13move_iteratorIPfES1_fET0_T_S4_S3_RSaIT1_E>
  40c286:	48 83 c4 28          	add    $0x28,%rsp
  40c28a:	5b                   	pop    %rbx
  40c28b:	5d                   	pop    %rbp
  40c28c:	c3                   	retq   

000000000040c28d <_ZN6google8protobuf8internal21arena_destruct_objectIN5caffe9BlobProtoEEEvPv>:
  40c28d:	55                   	push   %rbp
  40c28e:	48 89 e5             	mov    %rsp,%rbp
  40c291:	48 83 ec 10          	sub    $0x10,%rsp
  40c295:	48 89 7d f8          	mov    %rdi,-0x8(%rbp)
  40c299:	48 8b 45 f8          	mov    -0x8(%rbp),%rax
  40c29d:	48 8b 00             	mov    (%rax),%rax
  40c2a0:	48 8b 00             	mov    (%rax),%rax
  40c2a3:	48 8b 55 f8          	mov    -0x8(%rbp),%rdx
  40c2a7:	48 89 d7             	mov    %rdx,%rdi
  40c2aa:	ff d0                	callq  *%rax
  40c2ac:	90                   	nop
  40c2ad:	c9                   	leaveq 
  40c2ae:	c3                   	retq   

000000000040c2af <_ZSt12__miter_baseIPPN5caffe4BlobIfEEEDTcl12__miter_basecldtfp_4baseEEESt13move_iteratorIT_E>:
  40c2af:	55                   	push   %rbp
  40c2b0:	48 89 e5             	mov    %rsp,%rbp
  40c2b3:	48 83 ec 10          	sub    $0x10,%rsp
  40c2b7:	48 89 7d f8          	mov    %rdi,-0x8(%rbp)
  40c2bb:	48 8d 45 f8          	lea    -0x8(%rbp),%rax
  40c2bf:	48 89 c7             	mov    %rax,%rdi
  40c2c2:	e8 d7 03 00 00       	callq  40c69e <_ZNKSt13move_iteratorIPPN5caffe4BlobIfEEE4baseEv>
  40c2c7:	48 89 c7             	mov    %rax,%rdi
  40c2ca:	e8 e0 03 00 00       	callq  40c6af <_ZSt12__miter_baseIPPN5caffe4BlobIfEEET_S5_>
  40c2cf:	c9                   	leaveq 
  40c2d0:	c3                   	retq   

000000000040c2d1 <_ZSt14__copy_move_a2ILb1EPPN5caffe4BlobIfEES4_ET1_T0_S6_S5_>:
  40c2d1:	55                   	push   %rbp
  40c2d2:	48 89 e5             	mov    %rsp,%rbp
  40c2d5:	41 54                	push   %r12
  40c2d7:	53                   	push   %rbx
  40c2d8:	48 83 ec 20          	sub    $0x20,%rsp
  40c2dc:	48 89 7d e8          	mov    %rdi,-0x18(%rbp)
  40c2e0:	48 89 75 e0          	mov    %rsi,-0x20(%rbp)
  40c2e4:	48 89 55 d8          	mov    %rdx,-0x28(%rbp)
  40c2e8:	48 8b 45 d8          	mov    -0x28(%rbp),%rax
  40c2ec:	48 89 c7             	mov    %rax,%rdi
  40c2ef:	e8 c9 03 00 00       	callq  40c6bd <_ZSt12__niter_baseIPPN5caffe4BlobIfEEET_S5_>
  40c2f4:	49 89 c4             	mov    %rax,%r12
  40c2f7:	48 8b 45 e0          	mov    -0x20(%rbp),%rax
  40c2fb:	48 89 c7             	mov    %rax,%rdi
  40c2fe:	e8 ba 03 00 00       	callq  40c6bd <_ZSt12__niter_baseIPPN5caffe4BlobIfEEET_S5_>
  40c303:	48 89 c3             	mov    %rax,%rbx
  40c306:	48 8b 45 e8          	mov    -0x18(%rbp),%rax
  40c30a:	48 89 c7             	mov    %rax,%rdi
  40c30d:	e8 ab 03 00 00       	callq  40c6bd <_ZSt12__niter_baseIPPN5caffe4BlobIfEEET_S5_>
  40c312:	4c 89 e2             	mov    %r12,%rdx
  40c315:	48 89 de             	mov    %rbx,%rsi
  40c318:	48 89 c7             	mov    %rax,%rdi
  40c31b:	e8 ab 03 00 00       	callq  40c6cb <_ZSt13__copy_move_aILb1EPPN5caffe4BlobIfEES4_ET1_T0_S6_S5_>
  40c320:	48 83 c4 20          	add    $0x20,%rsp
  40c324:	5b                   	pop    %rbx
  40c325:	41 5c                	pop    %r12
  40c327:	5d                   	pop    %rbp
  40c328:	c3                   	retq   
  40c329:	90                   	nop

000000000040c32a <_ZN9__gnu_cxx13new_allocatorIN5boost10shared_ptrIN5caffe4BlobIfEEEEEC1Ev>:
  40c32a:	55                   	push   %rbp
  40c32b:	48 89 e5             	mov    %rsp,%rbp
  40c32e:	48 89 7d f8          	mov    %rdi,-0x8(%rbp)
  40c332:	90                   	nop
  40c333:	5d                   	pop    %rbp
  40c334:	c3                   	retq   
  40c335:	90                   	nop

000000000040c336 <_ZN9__gnu_cxx13new_allocatorImEC1Ev>:
  40c336:	55                   	push   %rbp
  40c337:	48 89 e5             	mov    %rsp,%rbp
  40c33a:	48 89 7d f8          	mov    %rdi,-0x8(%rbp)
  40c33e:	90                   	nop
  40c33f:	5d                   	pop    %rbp
  40c340:	c3                   	retq   
  40c341:	90                   	nop

000000000040c342 <_ZN9__gnu_cxx13new_allocatorIfEC1Ev>:
  40c342:	55                   	push   %rbp
  40c343:	48 89 e5             	mov    %rsp,%rbp
  40c346:	48 89 7d f8          	mov    %rdi,-0x8(%rbp)
  40c34a:	90                   	nop
  40c34b:	5d                   	pop    %rbp
  40c34c:	c3                   	retq   

000000000040c34d <_ZNSt27__uninitialized_default_n_1ILb0EE18__uninit_default_nIPN5boost10shared_ptrIN5caffe4BlobIfEEEEmEET_S9_T0_>:
  40c34d:	55                   	push   %rbp
  40c34e:	48 89 e5             	mov    %rsp,%rbp
  40c351:	48 83 ec 20          	sub    $0x20,%rsp
  40c355:	48 89 7d e8          	mov    %rdi,-0x18(%rbp)
  40c359:	48 89 75 e0          	mov    %rsi,-0x20(%rbp)
  40c35d:	48 8b 45 e8          	mov    -0x18(%rbp),%rax
  40c361:	48 89 45 f8          	mov    %rax,-0x8(%rbp)
  40c365:	48 83 7d e0 00       	cmpq   $0x0,-0x20(%rbp)
  40c36a:	74 20                	je     40c38c <_ZNSt27__uninitialized_default_n_1ILb0EE18__uninit_default_nIPN5boost10shared_ptrIN5caffe4BlobIfEEEEmEET_S9_T0_+0x3f>
  40c36c:	48 8b 45 f8          	mov    -0x8(%rbp),%rax
  40c370:	48 89 c7             	mov    %rax,%rdi
  40c373:	e8 95 fb ff ff       	callq  40bf0d <_ZSt11__addressofIN5boost10shared_ptrIN5caffe4BlobIfEEEEEPT_RS6_>
  40c378:	48 89 c7             	mov    %rax,%rdi
  40c37b:	e8 7c 03 00 00       	callq  40c6fc <_ZSt10_ConstructIN5boost10shared_ptrIN5caffe4BlobIfEEEEJEEvPT_DpOT0_>
  40c380:	48 83 6d e0 01       	subq   $0x1,-0x20(%rbp)
  40c385:	48 83 45 f8 10       	addq   $0x10,-0x8(%rbp)
  40c38a:	eb d9                	jmp    40c365 <_ZNSt27__uninitialized_default_n_1ILb0EE18__uninit_default_nIPN5boost10shared_ptrIN5caffe4BlobIfEEEEmEET_S9_T0_+0x18>
  40c38c:	48 8b 45 f8          	mov    -0x8(%rbp),%rax
  40c390:	c9                   	leaveq 
  40c391:	c3                   	retq   

000000000040c392 <_ZNSt16allocator_traitsISaIN5boost10shared_ptrIN5caffe4BlobIfEEEEEE8max_sizeERKS6_>:
  40c392:	55                   	push   %rbp
  40c393:	48 89 e5             	mov    %rsp,%rbp
  40c396:	48 83 ec 10          	sub    $0x10,%rsp
  40c39a:	48 89 7d f8          	mov    %rdi,-0x8(%rbp)
  40c39e:	48 8b 45 f8          	mov    -0x8(%rbp),%rax
  40c3a2:	48 89 c7             	mov    %rax,%rdi
  40c3a5:	e8 80 03 00 00       	callq  40c72a <_ZNK9__gnu_cxx13new_allocatorIN5boost10shared_ptrIN5caffe4BlobIfEEEEE8max_sizeEv>
  40c3aa:	c9                   	leaveq 
  40c3ab:	c3                   	retq   

000000000040c3ac <_ZNKSt12_Vector_baseIN5boost10shared_ptrIN5caffe4BlobIfEEEESaIS5_EE19_M_get_Tp_allocatorEv>:
  40c3ac:	55                   	push   %rbp
  40c3ad:	48 89 e5             	mov    %rsp,%rbp
  40c3b0:	48 89 7d f8          	mov    %rdi,-0x8(%rbp)
  40c3b4:	48 8b 45 f8          	mov    -0x8(%rbp),%rax
  40c3b8:	5d                   	pop    %rbp
  40c3b9:	c3                   	retq   

000000000040c3ba <_ZN9__gnu_cxx13new_allocatorIN5boost10shared_ptrIN5caffe4BlobIfEEEEE8allocateEmPKv>:
  40c3ba:	55                   	push   %rbp
  40c3bb:	48 89 e5             	mov    %rsp,%rbp
  40c3be:	48 83 ec 20          	sub    $0x20,%rsp
  40c3c2:	48 89 7d f8          	mov    %rdi,-0x8(%rbp)
  40c3c6:	48 89 75 f0          	mov    %rsi,-0x10(%rbp)
  40c3ca:	48 89 55 e8          	mov    %rdx,-0x18(%rbp)
  40c3ce:	48 8b 45 f8          	mov    -0x8(%rbp),%rax
  40c3d2:	48 89 c7             	mov    %rax,%rdi
  40c3d5:	e8 50 03 00 00       	callq  40c72a <_ZNK9__gnu_cxx13new_allocatorIN5boost10shared_ptrIN5caffe4BlobIfEEEEE8max_sizeEv>
  40c3da:	48 3b 45 f0          	cmp    -0x10(%rbp),%rax
  40c3de:	0f 92 c0             	setb   %al
  40c3e1:	84 c0                	test   %al,%al
  40c3e3:	74 05                	je     40c3ea <_ZN9__gnu_cxx13new_allocatorIN5boost10shared_ptrIN5caffe4BlobIfEEEEE8allocateEmPKv+0x30>
  40c3e5:	e8 96 89 ff ff       	callq  404d80 <_ZSt17__throw_bad_allocv@plt>
  40c3ea:	48 8b 45 f0          	mov    -0x10(%rbp),%rax
  40c3ee:	48 c1 e0 04          	shl    $0x4,%rax
  40c3f2:	48 89 c7             	mov    %rax,%rdi
  40c3f5:	e8 b6 89 ff ff       	callq  404db0 <_Znwm@plt>
  40c3fa:	c9                   	leaveq 
  40c3fb:	c3                   	retq   

000000000040c3fc <_ZNSt13move_iteratorIPN5boost10shared_ptrIN5caffe4BlobIfEEEEEC1ES6_>:
  40c3fc:	55                   	push   %rbp
  40c3fd:	48 89 e5             	mov    %rsp,%rbp
  40c400:	48 89 7d f8          	mov    %rdi,-0x8(%rbp)
  40c404:	48 89 75 f0          	mov    %rsi,-0x10(%rbp)
  40c408:	48 8b 45 f8          	mov    -0x8(%rbp),%rax
  40c40c:	48 8b 55 f0          	mov    -0x10(%rbp),%rdx
  40c410:	48 89 10             	mov    %rdx,(%rax)
  40c413:	90                   	nop
  40c414:	5d                   	pop    %rbp
  40c415:	c3                   	retq   

000000000040c416 <_ZSt18uninitialized_copyISt13move_iteratorIPN5boost10shared_ptrIN5caffe4BlobIfEEEEES7_ET0_T_SA_S9_>:
  40c416:	55                   	push   %rbp
  40c417:	48 89 e5             	mov    %rsp,%rbp
  40c41a:	48 83 ec 30          	sub    $0x30,%rsp
  40c41e:	48 89 7d e8          	mov    %rdi,-0x18(%rbp)
  40c422:	48 89 75 e0          	mov    %rsi,-0x20(%rbp)
  40c426:	48 89 55 d8          	mov    %rdx,-0x28(%rbp)
  40c42a:	c6 45 ff 01          	movb   $0x1,-0x1(%rbp)
  40c42e:	48 8b 55 d8          	mov    -0x28(%rbp),%rdx
  40c432:	48 8b 4d e0          	mov    -0x20(%rbp),%rcx
  40c436:	48 8b 45 e8          	mov    -0x18(%rbp),%rax
  40c43a:	48 89 ce             	mov    %rcx,%rsi
  40c43d:	48 89 c7             	mov    %rax,%rdi
  40c440:	e8 f9 02 00 00       	callq  40c73e <_ZNSt20__uninitialized_copyILb0EE13__uninit_copyISt13move_iteratorIPN5boost10shared_ptrIN5caffe4BlobIfEEEEES9_EET0_T_SC_SB_>
  40c445:	c9                   	leaveq 
  40c446:	c3                   	retq   
  40c447:	90                   	nop

000000000040c448 <_ZN5boost6detail17sp_counted_impl_pIN5caffe4BlobIfEEEC1EPS4_>:
  40c448:	55                   	push   %rbp
  40c449:	48 89 e5             	mov    %rsp,%rbp
  40c44c:	48 83 ec 10          	sub    $0x10,%rsp
  40c450:	48 89 7d f8          	mov    %rdi,-0x8(%rbp)
  40c454:	48 89 75 f0          	mov    %rsi,-0x10(%rbp)
  40c458:	48 8b 45 f8          	mov    -0x8(%rbp),%rax
  40c45c:	48 89 c7             	mov    %rax,%rdi
  40c45f:	e8 06 91 ff ff       	callq  40556a <_ZN5boost6detail15sp_counted_baseC1Ev>
  40c464:	ba a8 dc 40 00       	mov    $0x40dca8,%edx
  40c469:	48 8b 45 f8          	mov    -0x8(%rbp),%rax
  40c46d:	48 89 10             	mov    %rdx,(%rax)
  40c470:	48 8b 45 f8          	mov    -0x8(%rbp),%rax
  40c474:	48 8b 55 f0          	mov    -0x10(%rbp),%rdx
  40c478:	48 89 50 10          	mov    %rdx,0x10(%rax)
  40c47c:	90                   	nop
  40c47d:	c9                   	leaveq 
  40c47e:	c3                   	retq   

000000000040c47f <_ZN5boost14checked_deleteIN5caffe4BlobIfEEEEvPT_>:
  40c47f:	55                   	push   %rbp
  40c480:	48 89 e5             	mov    %rsp,%rbp
  40c483:	53                   	push   %rbx
  40c484:	48 83 ec 18          	sub    $0x18,%rsp
  40c488:	48 89 7d e8          	mov    %rdi,-0x18(%rbp)
  40c48c:	48 8b 5d e8          	mov    -0x18(%rbp),%rbx
  40c490:	48 85 db             	test   %rbx,%rbx
  40c493:	74 10                	je     40c4a5 <_ZN5boost14checked_deleteIN5caffe4BlobIfEEEEvPT_+0x26>
  40c495:	48 89 df             	mov    %rbx,%rdi
  40c498:	e8 d3 a0 ff ff       	callq  406570 <_ZN5caffe4BlobIfED1Ev>
  40c49d:	48 89 df             	mov    %rbx,%rdi
  40c4a0:	e8 7b 8a ff ff       	callq  404f20 <_ZdlPv@plt>
  40c4a5:	90                   	nop
  40c4a6:	48 83 c4 18          	add    $0x18,%rsp
  40c4aa:	5b                   	pop    %rbx
  40c4ab:	5d                   	pop    %rbp
  40c4ac:	c3                   	retq   

000000000040c4ad <_ZSt18make_move_iteratorIPfESt13move_iteratorIT_ES2_>:
  40c4ad:	55                   	push   %rbp
  40c4ae:	48 89 e5             	mov    %rsp,%rbp
  40c4b1:	48 83 ec 20          	sub    $0x20,%rsp
  40c4b5:	48 89 7d e8          	mov    %rdi,-0x18(%rbp)
  40c4b9:	64 48 8b 04 25 28 00 	mov    %fs:0x28,%rax
  40c4c0:	00 00 
  40c4c2:	48 89 45 f8          	mov    %rax,-0x8(%rbp)
  40c4c6:	31 c0                	xor    %eax,%eax
  40c4c8:	48 8b 55 e8          	mov    -0x18(%rbp),%rdx
  40c4cc:	48 8d 45 f0          	lea    -0x10(%rbp),%rax
  40c4d0:	48 89 d6             	mov    %rdx,%rsi
  40c4d3:	48 89 c7             	mov    %rax,%rdi
  40c4d6:	e8 11 03 00 00       	callq  40c7ec <_ZNSt13move_iteratorIPfEC1ES0_>
  40c4db:	48 8b 45 f0          	mov    -0x10(%rbp),%rax
  40c4df:	48 8b 4d f8          	mov    -0x8(%rbp),%rcx
  40c4e3:	64 48 33 0c 25 28 00 	xor    %fs:0x28,%rcx
  40c4ea:	00 00 
  40c4ec:	74 05                	je     40c4f3 <_ZSt18make_move_iteratorIPfESt13move_iteratorIT_ES2_+0x46>
  40c4ee:	e8 2d 89 ff ff       	callq  404e20 <__stack_chk_fail@plt>
  40c4f3:	c9                   	leaveq 
  40c4f4:	c3                   	retq   

000000000040c4f5 <_ZSt22__uninitialized_copy_aISt13move_iteratorIPfES1_fET0_T_S4_S3_RSaIT1_E>:
  40c4f5:	55                   	push   %rbp
  40c4f6:	48 89 e5             	mov    %rsp,%rbp
  40c4f9:	48 83 ec 20          	sub    $0x20,%rsp
  40c4fd:	48 89 7d f8          	mov    %rdi,-0x8(%rbp)
  40c501:	48 89 75 f0          	mov    %rsi,-0x10(%rbp)
  40c505:	48 89 55 e8          	mov    %rdx,-0x18(%rbp)
  40c509:	48 89 4d e0          	mov    %rcx,-0x20(%rbp)
  40c50d:	48 8b 55 e8          	mov    -0x18(%rbp),%rdx
  40c511:	48 8b 4d f0          	mov    -0x10(%rbp),%rcx
  40c515:	48 8b 45 f8          	mov    -0x8(%rbp),%rax
  40c519:	48 89 ce             	mov    %rcx,%rsi
  40c51c:	48 89 c7             	mov    %rax,%rdi
  40c51f:	e8 e2 02 00 00       	callq  40c806 <_ZSt18uninitialized_copyISt13move_iteratorIPfES1_ET0_T_S4_S3_>
  40c524:	c9                   	leaveq 
  40c525:	c3                   	retq   

000000000040c526 <_ZSt12__miter_baseIPfET_S1_>:
  40c526:	55                   	push   %rbp
  40c527:	48 89 e5             	mov    %rsp,%rbp
  40c52a:	48 89 7d f8          	mov    %rdi,-0x8(%rbp)
  40c52e:	48 8b 45 f8          	mov    -0x8(%rbp),%rax
  40c532:	5d                   	pop    %rbp
  40c533:	c3                   	retq   

000000000040c534 <_ZSt23__copy_move_backward_a2ILb1EPfS0_ET1_T0_S2_S1_>:
  40c534:	55                   	push   %rbp
  40c535:	48 89 e5             	mov    %rsp,%rbp
  40c538:	41 54                	push   %r12
  40c53a:	53                   	push   %rbx
  40c53b:	48 83 ec 20          	sub    $0x20,%rsp
  40c53f:	48 89 7d e8          	mov    %rdi,-0x18(%rbp)
  40c543:	48 89 75 e0          	mov    %rsi,-0x20(%rbp)
  40c547:	48 89 55 d8          	mov    %rdx,-0x28(%rbp)
  40c54b:	48 8b 45 d8          	mov    -0x28(%rbp),%rax
  40c54f:	48 89 c7             	mov    %rax,%rdi
  40c552:	e8 35 00 00 00       	callq  40c58c <_ZSt12__niter_baseIPfET_S1_>
  40c557:	49 89 c4             	mov    %rax,%r12
  40c55a:	48 8b 45 e0          	mov    -0x20(%rbp),%rax
  40c55e:	48 89 c7             	mov    %rax,%rdi
  40c561:	e8 26 00 00 00       	callq  40c58c <_ZSt12__niter_baseIPfET_S1_>
  40c566:	48 89 c3             	mov    %rax,%rbx
  40c569:	48 8b 45 e8          	mov    -0x18(%rbp),%rax
  40c56d:	48 89 c7             	mov    %rax,%rdi
  40c570:	e8 17 00 00 00       	callq  40c58c <_ZSt12__niter_baseIPfET_S1_>
  40c575:	4c 89 e2             	mov    %r12,%rdx
  40c578:	48 89 de             	mov    %rbx,%rsi
  40c57b:	48 89 c7             	mov    %rax,%rdi
  40c57e:	e8 b4 02 00 00       	callq  40c837 <_ZSt22__copy_move_backward_aILb1EPfS0_ET1_T0_S2_S1_>
  40c583:	48 83 c4 20          	add    $0x20,%rsp
  40c587:	5b                   	pop    %rbx
  40c588:	41 5c                	pop    %r12
  40c58a:	5d                   	pop    %rbp
  40c58b:	c3                   	retq   

000000000040c58c <_ZSt12__niter_baseIPfET_S1_>:
  40c58c:	55                   	push   %rbp
  40c58d:	48 89 e5             	mov    %rsp,%rbp
  40c590:	48 89 7d f8          	mov    %rdi,-0x8(%rbp)
  40c594:	48 8b 45 f8          	mov    -0x8(%rbp),%rax
  40c598:	5d                   	pop    %rbp
  40c599:	c3                   	retq   

000000000040c59a <_ZSt8__fill_aIPffEN9__gnu_cxx11__enable_ifIXsrSt11__is_scalarIT0_E7__valueEvE6__typeET_S8_RKS4_>:
  40c59a:	55                   	push   %rbp
  40c59b:	48 89 e5             	mov    %rsp,%rbp
  40c59e:	48 89 7d e8          	mov    %rdi,-0x18(%rbp)
  40c5a2:	48 89 75 e0          	mov    %rsi,-0x20(%rbp)
  40c5a6:	48 89 55 d8          	mov    %rdx,-0x28(%rbp)
  40c5aa:	48 8b 45 d8          	mov    -0x28(%rbp),%rax
  40c5ae:	f3 0f 10 00          	movss  (%rax),%xmm0
  40c5b2:	f3 0f 11 45 fc       	movss  %xmm0,-0x4(%rbp)
  40c5b7:	48 8b 45 e8          	mov    -0x18(%rbp),%rax
  40c5bb:	48 3b 45 e0          	cmp    -0x20(%rbp),%rax
  40c5bf:	74 14                	je     40c5d5 <_ZSt8__fill_aIPffEN9__gnu_cxx11__enable_ifIXsrSt11__is_scalarIT0_E7__valueEvE6__typeET_S8_RKS4_+0x3b>
  40c5c1:	48 8b 45 e8          	mov    -0x18(%rbp),%rax
  40c5c5:	f3 0f 10 45 fc       	movss  -0x4(%rbp),%xmm0
  40c5ca:	f3 0f 11 00          	movss  %xmm0,(%rax)
  40c5ce:	48 83 45 e8 04       	addq   $0x4,-0x18(%rbp)
  40c5d3:	eb e2                	jmp    40c5b7 <_ZSt8__fill_aIPffEN9__gnu_cxx11__enable_ifIXsrSt11__is_scalarIT0_E7__valueEvE6__typeET_S8_RKS4_+0x1d>
  40c5d5:	90                   	nop
  40c5d6:	5d                   	pop    %rbp
  40c5d7:	c3                   	retq   

000000000040c5d8 <_ZSt20uninitialized_fill_nIPfmfET_S1_T0_RKT1_>:
  40c5d8:	55                   	push   %rbp
  40c5d9:	48 89 e5             	mov    %rsp,%rbp
  40c5dc:	48 83 ec 30          	sub    $0x30,%rsp
  40c5e0:	48 89 7d e8          	mov    %rdi,-0x18(%rbp)
  40c5e4:	48 89 75 e0          	mov    %rsi,-0x20(%rbp)
  40c5e8:	48 89 55 d8          	mov    %rdx,-0x28(%rbp)
  40c5ec:	c6 45 ff 01          	movb   $0x1,-0x1(%rbp)
  40c5f0:	48 8b 55 d8          	mov    -0x28(%rbp),%rdx
  40c5f4:	48 8b 4d e0          	mov    -0x20(%rbp),%rcx
  40c5f8:	48 8b 45 e8          	mov    -0x18(%rbp),%rax
  40c5fc:	48 89 ce             	mov    %rcx,%rsi
  40c5ff:	48 89 c7             	mov    %rax,%rdi
  40c602:	e8 61 02 00 00       	callq  40c868 <_ZNSt22__uninitialized_fill_nILb1EE15__uninit_fill_nIPfmfEET_S3_T0_RKT1_>
  40c607:	c9                   	leaveq 
  40c608:	c3                   	retq   
  40c609:	90                   	nop

000000000040c60a <_ZNKSt6vectorIfSaIfEE8max_sizeEv>:
  40c60a:	55                   	push   %rbp
  40c60b:	48 89 e5             	mov    %rsp,%rbp
  40c60e:	48 83 ec 10          	sub    $0x10,%rsp
  40c612:	48 89 7d f8          	mov    %rdi,-0x8(%rbp)
  40c616:	48 8b 45 f8          	mov    -0x8(%rbp),%rax
  40c61a:	48 89 c7             	mov    %rax,%rdi
  40c61d:	e8 8e 02 00 00       	callq  40c8b0 <_ZNKSt12_Vector_baseIfSaIfEE19_M_get_Tp_allocatorEv>
  40c622:	48 89 c7             	mov    %rax,%rdi
  40c625:	e8 6b 02 00 00       	callq  40c895 <_ZNSt16allocator_traitsISaIfEE8max_sizeERKS0_>
  40c62a:	c9                   	leaveq 
  40c62b:	c3                   	retq   

000000000040c62c <_ZNSt16allocator_traitsISaIfEE8allocateERS0_m>:
  40c62c:	55                   	push   %rbp
  40c62d:	48 89 e5             	mov    %rsp,%rbp
  40c630:	48 83 ec 10          	sub    $0x10,%rsp
  40c634:	48 89 7d f8          	mov    %rdi,-0x8(%rbp)
  40c638:	48 89 75 f0          	mov    %rsi,-0x10(%rbp)
  40c63c:	48 8b 4d f0          	mov    -0x10(%rbp),%rcx
  40c640:	48 8b 45 f8          	mov    -0x8(%rbp),%rax
  40c644:	ba 00 00 00 00       	mov    $0x0,%edx
  40c649:	48 89 ce             	mov    %rcx,%rsi
  40c64c:	48 89 c7             	mov    %rax,%rdi
  40c64f:	e8 6a 02 00 00       	callq  40c8be <_ZN9__gnu_cxx13new_allocatorIfE8allocateEmPKv>
  40c654:	c9                   	leaveq 
  40c655:	c3                   	retq   

000000000040c656 <_ZSt32__make_move_if_noexcept_iteratorIfSt13move_iteratorIPfEET0_PT_>:
  40c656:	55                   	push   %rbp
  40c657:	48 89 e5             	mov    %rsp,%rbp
  40c65a:	48 83 ec 20          	sub    $0x20,%rsp
  40c65e:	48 89 7d e8          	mov    %rdi,-0x18(%rbp)
  40c662:	64 48 8b 04 25 28 00 	mov    %fs:0x28,%rax
  40c669:	00 00 
  40c66b:	48 89 45 f8          	mov    %rax,-0x8(%rbp)
  40c66f:	31 c0                	xor    %eax,%eax
  40c671:	48 8b 55 e8          	mov    -0x18(%rbp),%rdx
  40c675:	48 8d 45 f0          	lea    -0x10(%rbp),%rax
  40c679:	48 89 d6             	mov    %rdx,%rsi
  40c67c:	48 89 c7             	mov    %rax,%rdi
  40c67f:	e8 68 01 00 00       	callq  40c7ec <_ZNSt13move_iteratorIPfEC1ES0_>
  40c684:	48 8b 45 f0          	mov    -0x10(%rbp),%rax
  40c688:	48 8b 4d f8          	mov    -0x8(%rbp),%rcx
  40c68c:	64 48 33 0c 25 28 00 	xor    %fs:0x28,%rcx
  40c693:	00 00 
  40c695:	74 05                	je     40c69c <_ZSt32__make_move_if_noexcept_iteratorIfSt13move_iteratorIPfEET0_PT_+0x46>
  40c697:	e8 84 87 ff ff       	callq  404e20 <__stack_chk_fail@plt>
  40c69c:	c9                   	leaveq 
  40c69d:	c3                   	retq   

000000000040c69e <_ZNKSt13move_iteratorIPPN5caffe4BlobIfEEE4baseEv>:
  40c69e:	55                   	push   %rbp
  40c69f:	48 89 e5             	mov    %rsp,%rbp
  40c6a2:	48 89 7d f8          	mov    %rdi,-0x8(%rbp)
  40c6a6:	48 8b 45 f8          	mov    -0x8(%rbp),%rax
  40c6aa:	48 8b 00             	mov    (%rax),%rax
  40c6ad:	5d                   	pop    %rbp
  40c6ae:	c3                   	retq   

000000000040c6af <_ZSt12__miter_baseIPPN5caffe4BlobIfEEET_S5_>:
  40c6af:	55                   	push   %rbp
  40c6b0:	48 89 e5             	mov    %rsp,%rbp
  40c6b3:	48 89 7d f8          	mov    %rdi,-0x8(%rbp)
  40c6b7:	48 8b 45 f8          	mov    -0x8(%rbp),%rax
  40c6bb:	5d                   	pop    %rbp
  40c6bc:	c3                   	retq   

000000000040c6bd <_ZSt12__niter_baseIPPN5caffe4BlobIfEEET_S5_>:
  40c6bd:	55                   	push   %rbp
  40c6be:	48 89 e5             	mov    %rsp,%rbp
  40c6c1:	48 89 7d f8          	mov    %rdi,-0x8(%rbp)
  40c6c5:	48 8b 45 f8          	mov    -0x8(%rbp),%rax
  40c6c9:	5d                   	pop    %rbp
  40c6ca:	c3                   	retq   

000000000040c6cb <_ZSt13__copy_move_aILb1EPPN5caffe4BlobIfEES4_ET1_T0_S6_S5_>:
  40c6cb:	55                   	push   %rbp
  40c6cc:	48 89 e5             	mov    %rsp,%rbp
  40c6cf:	48 83 ec 30          	sub    $0x30,%rsp
  40c6d3:	48 89 7d e8          	mov    %rdi,-0x18(%rbp)
  40c6d7:	48 89 75 e0          	mov    %rsi,-0x20(%rbp)
  40c6db:	48 89 55 d8          	mov    %rdx,-0x28(%rbp)
  40c6df:	c6 45 ff 01          	movb   $0x1,-0x1(%rbp)
  40c6e3:	48 8b 55 d8          	mov    -0x28(%rbp),%rdx
  40c6e7:	48 8b 4d e0          	mov    -0x20(%rbp),%rcx
  40c6eb:	48 8b 45 e8          	mov    -0x18(%rbp),%rax
  40c6ef:	48 89 ce             	mov    %rcx,%rsi
  40c6f2:	48 89 c7             	mov    %rax,%rdi
  40c6f5:	e8 06 02 00 00       	callq  40c900 <_ZNSt11__copy_moveILb1ELb1ESt26random_access_iterator_tagE8__copy_mIPN5caffe4BlobIfEEEEPT_PKS7_SA_S8_>
  40c6fa:	c9                   	leaveq 
  40c6fb:	c3                   	retq   

000000000040c6fc <_ZSt10_ConstructIN5boost10shared_ptrIN5caffe4BlobIfEEEEJEEvPT_DpOT0_>:
  40c6fc:	55                   	push   %rbp
  40c6fd:	48 89 e5             	mov    %rsp,%rbp
  40c700:	48 83 ec 10          	sub    $0x10,%rsp
  40c704:	48 89 7d f8          	mov    %rdi,-0x8(%rbp)
  40c708:	48 8b 45 f8          	mov    -0x8(%rbp),%rax
  40c70c:	48 89 c6             	mov    %rax,%rsi
  40c70f:	bf 10 00 00 00       	mov    $0x10,%edi
  40c714:	e8 a3 8d ff ff       	callq  4054bc <_ZnwmPv>
  40c719:	48 85 c0             	test   %rax,%rax
  40c71c:	74 08                	je     40c726 <_ZSt10_ConstructIN5boost10shared_ptrIN5caffe4BlobIfEEEEJEEvPT_DpOT0_+0x2a>
  40c71e:	48 89 c7             	mov    %rax,%rdi
  40c721:	e8 40 02 00 00       	callq  40c966 <_ZN5boost10shared_ptrIN5caffe4BlobIfEEEC1Ev>
  40c726:	90                   	nop
  40c727:	c9                   	leaveq 
  40c728:	c3                   	retq   
  40c729:	90                   	nop

000000000040c72a <_ZNK9__gnu_cxx13new_allocatorIN5boost10shared_ptrIN5caffe4BlobIfEEEEE8max_sizeEv>:
  40c72a:	55                   	push   %rbp
  40c72b:	48 89 e5             	mov    %rsp,%rbp
  40c72e:	48 89 7d f8          	mov    %rdi,-0x8(%rbp)
  40c732:	48 b8 ff ff ff ff ff 	movabs $0xfffffffffffffff,%rax
  40c739:	ff ff 0f 
  40c73c:	5d                   	pop    %rbp
  40c73d:	c3                   	retq   

000000000040c73e <_ZNSt20__uninitialized_copyILb0EE13__uninit_copyISt13move_iteratorIPN5boost10shared_ptrIN5caffe4BlobIfEEEEES9_EET0_T_SC_SB_>:
  40c73e:	55                   	push   %rbp
  40c73f:	48 89 e5             	mov    %rsp,%rbp
  40c742:	53                   	push   %rbx
  40c743:	48 83 ec 38          	sub    $0x38,%rsp
  40c747:	48 89 7d d8          	mov    %rdi,-0x28(%rbp)
  40c74b:	48 89 75 d0          	mov    %rsi,-0x30(%rbp)
  40c74f:	48 89 55 c8          	mov    %rdx,-0x38(%rbp)
  40c753:	48 8b 45 c8          	mov    -0x38(%rbp),%rax
  40c757:	48 89 45 e8          	mov    %rax,-0x18(%rbp)
  40c75b:	48 8d 55 d0          	lea    -0x30(%rbp),%rdx
  40c75f:	48 8d 45 d8          	lea    -0x28(%rbp),%rax
  40c763:	48 89 d6             	mov    %rdx,%rsi
  40c766:	48 89 c7             	mov    %rax,%rdi
  40c769:	e8 22 02 00 00       	callq  40c990 <_ZStneIPN5boost10shared_ptrIN5caffe4BlobIfEEEEEbRKSt13move_iteratorIT_ESB_>
  40c76e:	84 c0                	test   %al,%al
  40c770:	74 39                	je     40c7ab <_ZNSt20__uninitialized_copyILb0EE13__uninit_copyISt13move_iteratorIPN5boost10shared_ptrIN5caffe4BlobIfEEEEES9_EET0_T_SC_SB_+0x6d>
  40c772:	48 8d 45 d8          	lea    -0x28(%rbp),%rax
  40c776:	48 89 c7             	mov    %rax,%rdi
  40c779:	e8 5a 02 00 00       	callq  40c9d8 <_ZNKSt13move_iteratorIPN5boost10shared_ptrIN5caffe4BlobIfEEEEEdeEv>
  40c77e:	48 89 c3             	mov    %rax,%rbx
  40c781:	48 8b 45 e8          	mov    -0x18(%rbp),%rax
  40c785:	48 89 c7             	mov    %rax,%rdi
  40c788:	e8 80 f7 ff ff       	callq  40bf0d <_ZSt11__addressofIN5boost10shared_ptrIN5caffe4BlobIfEEEEEPT_RS6_>
  40c78d:	48 89 de             	mov    %rbx,%rsi
  40c790:	48 89 c7             	mov    %rax,%rdi
  40c793:	e8 5f 02 00 00       	callq  40c9f7 <_ZSt10_ConstructIN5boost10shared_ptrIN5caffe4BlobIfEEEEJS5_EEvPT_DpOT0_>
  40c798:	48 8d 45 d8          	lea    -0x28(%rbp),%rax
  40c79c:	48 89 c7             	mov    %rax,%rdi
  40c79f:	e8 14 02 00 00       	callq  40c9b8 <_ZNSt13move_iteratorIPN5boost10shared_ptrIN5caffe4BlobIfEEEEEppEv>
  40c7a4:	48 83 45 e8 10       	addq   $0x10,-0x18(%rbp)
  40c7a9:	eb b0                	jmp    40c75b <_ZNSt20__uninitialized_copyILb0EE13__uninit_copyISt13move_iteratorIPN5boost10shared_ptrIN5caffe4BlobIfEEEEES9_EET0_T_SC_SB_+0x1d>
  40c7ab:	48 8b 45 e8          	mov    -0x18(%rbp),%rax
  40c7af:	eb 33                	jmp    40c7e4 <_ZNSt20__uninitialized_copyILb0EE13__uninit_copyISt13move_iteratorIPN5boost10shared_ptrIN5caffe4BlobIfEEEEES9_EET0_T_SC_SB_+0xa6>
  40c7b1:	48 89 c7             	mov    %rax,%rdi
  40c7b4:	e8 77 85 ff ff       	callq  404d30 <__cxa_begin_catch@plt>
  40c7b9:	48 8b 55 e8          	mov    -0x18(%rbp),%rdx
  40c7bd:	48 8b 45 c8          	mov    -0x38(%rbp),%rax
  40c7c1:	48 89 d6             	mov    %rdx,%rsi
  40c7c4:	48 89 c7             	mov    %rax,%rdi
  40c7c7:	e8 dd e5 ff ff       	callq  40ada9 <_ZSt8_DestroyIPN5boost10shared_ptrIN5caffe4BlobIfEEEEEvT_S7_>
  40c7cc:	e8 9f 88 ff ff       	callq  405070 <__cxa_rethrow@plt>
  40c7d1:	48 89 c3             	mov    %rax,%rbx
  40c7d4:	e8 67 88 ff ff       	callq  405040 <__cxa_end_catch@plt>
  40c7d9:	48 89 d8             	mov    %rbx,%rax
  40c7dc:	48 89 c7             	mov    %rax,%rdi
  40c7df:	e8 cc 87 ff ff       	callq  404fb0 <_Unwind_Resume@plt>
  40c7e4:	48 83 c4 38          	add    $0x38,%rsp
  40c7e8:	5b                   	pop    %rbx
  40c7e9:	5d                   	pop    %rbp
  40c7ea:	c3                   	retq   
  40c7eb:	90                   	nop

000000000040c7ec <_ZNSt13move_iteratorIPfEC1ES0_>:
  40c7ec:	55                   	push   %rbp
  40c7ed:	48 89 e5             	mov    %rsp,%rbp
  40c7f0:	48 89 7d f8          	mov    %rdi,-0x8(%rbp)
  40c7f4:	48 89 75 f0          	mov    %rsi,-0x10(%rbp)
  40c7f8:	48 8b 45 f8          	mov    -0x8(%rbp),%rax
  40c7fc:	48 8b 55 f0          	mov    -0x10(%rbp),%rdx
  40c800:	48 89 10             	mov    %rdx,(%rax)
  40c803:	90                   	nop
  40c804:	5d                   	pop    %rbp
  40c805:	c3                   	retq   

000000000040c806 <_ZSt18uninitialized_copyISt13move_iteratorIPfES1_ET0_T_S4_S3_>:
  40c806:	55                   	push   %rbp
  40c807:	48 89 e5             	mov    %rsp,%rbp
  40c80a:	48 83 ec 30          	sub    $0x30,%rsp
  40c80e:	48 89 7d e8          	mov    %rdi,-0x18(%rbp)
  40c812:	48 89 75 e0          	mov    %rsi,-0x20(%rbp)
  40c816:	48 89 55 d8          	mov    %rdx,-0x28(%rbp)
  40c81a:	c6 45 ff 01          	movb   $0x1,-0x1(%rbp)
  40c81e:	48 8b 55 d8          	mov    -0x28(%rbp),%rdx
  40c822:	48 8b 4d e0          	mov    -0x20(%rbp),%rcx
  40c826:	48 8b 45 e8          	mov    -0x18(%rbp),%rax
  40c82a:	48 89 ce             	mov    %rcx,%rsi
  40c82d:	48 89 c7             	mov    %rax,%rdi
  40c830:	e8 0b 02 00 00       	callq  40ca40 <_ZNSt20__uninitialized_copyILb1EE13__uninit_copyISt13move_iteratorIPfES3_EET0_T_S6_S5_>
  40c835:	c9                   	leaveq 
  40c836:	c3                   	retq   

000000000040c837 <_ZSt22__copy_move_backward_aILb1EPfS0_ET1_T0_S2_S1_>:
  40c837:	55                   	push   %rbp
  40c838:	48 89 e5             	mov    %rsp,%rbp
  40c83b:	48 83 ec 30          	sub    $0x30,%rsp
  40c83f:	48 89 7d e8          	mov    %rdi,-0x18(%rbp)
  40c843:	48 89 75 e0          	mov    %rsi,-0x20(%rbp)
  40c847:	48 89 55 d8          	mov    %rdx,-0x28(%rbp)
  40c84b:	c6 45 ff 01          	movb   $0x1,-0x1(%rbp)
  40c84f:	48 8b 55 d8          	mov    -0x28(%rbp),%rdx
  40c853:	48 8b 4d e0          	mov    -0x20(%rbp),%rcx
  40c857:	48 8b 45 e8          	mov    -0x18(%rbp),%rax
  40c85b:	48 89 ce             	mov    %rcx,%rsi
  40c85e:	48 89 c7             	mov    %rax,%rdi
  40c861:	e8 07 02 00 00       	callq  40ca6d <_ZNSt20__copy_move_backwardILb1ELb1ESt26random_access_iterator_tagE13__copy_move_bIfEEPT_PKS3_S6_S4_>
  40c866:	c9                   	leaveq 
  40c867:	c3                   	retq   

000000000040c868 <_ZNSt22__uninitialized_fill_nILb1EE15__uninit_fill_nIPfmfEET_S3_T0_RKT1_>:
  40c868:	55                   	push   %rbp
  40c869:	48 89 e5             	mov    %rsp,%rbp
  40c86c:	48 83 ec 20          	sub    $0x20,%rsp
  40c870:	48 89 7d f8          	mov    %rdi,-0x8(%rbp)
  40c874:	48 89 75 f0          	mov    %rsi,-0x10(%rbp)
  40c878:	48 89 55 e8          	mov    %rdx,-0x18(%rbp)
  40c87c:	48 8b 55 e8          	mov    -0x18(%rbp),%rdx
  40c880:	48 8b 4d f0          	mov    -0x10(%rbp),%rcx
  40c884:	48 8b 45 f8          	mov    -0x8(%rbp),%rax
  40c888:	48 89 ce             	mov    %rcx,%rsi
  40c88b:	48 89 c7             	mov    %rax,%rdi
  40c88e:	e8 52 02 00 00       	callq  40cae5 <_ZSt6fill_nIPfmfET_S1_T0_RKT1_>
  40c893:	c9                   	leaveq 
  40c894:	c3                   	retq   

000000000040c895 <_ZNSt16allocator_traitsISaIfEE8max_sizeERKS0_>:
  40c895:	55                   	push   %rbp
  40c896:	48 89 e5             	mov    %rsp,%rbp
  40c899:	48 83 ec 10          	sub    $0x10,%rsp
  40c89d:	48 89 7d f8          	mov    %rdi,-0x8(%rbp)
  40c8a1:	48 8b 45 f8          	mov    -0x8(%rbp),%rax
  40c8a5:	48 89 c7             	mov    %rax,%rdi
  40c8a8:	e8 71 02 00 00       	callq  40cb1e <_ZNK9__gnu_cxx13new_allocatorIfE8max_sizeEv>
  40c8ad:	c9                   	leaveq 
  40c8ae:	c3                   	retq   
  40c8af:	90                   	nop

000000000040c8b0 <_ZNKSt12_Vector_baseIfSaIfEE19_M_get_Tp_allocatorEv>:
  40c8b0:	55                   	push   %rbp
  40c8b1:	48 89 e5             	mov    %rsp,%rbp
  40c8b4:	48 89 7d f8          	mov    %rdi,-0x8(%rbp)
  40c8b8:	48 8b 45 f8          	mov    -0x8(%rbp),%rax
  40c8bc:	5d                   	pop    %rbp
  40c8bd:	c3                   	retq   

000000000040c8be <_ZN9__gnu_cxx13new_allocatorIfE8allocateEmPKv>:
  40c8be:	55                   	push   %rbp
  40c8bf:	48 89 e5             	mov    %rsp,%rbp
  40c8c2:	48 83 ec 20          	sub    $0x20,%rsp
  40c8c6:	48 89 7d f8          	mov    %rdi,-0x8(%rbp)
  40c8ca:	48 89 75 f0          	mov    %rsi,-0x10(%rbp)
  40c8ce:	48 89 55 e8          	mov    %rdx,-0x18(%rbp)
  40c8d2:	48 8b 45 f8          	mov    -0x8(%rbp),%rax
  40c8d6:	48 89 c7             	mov    %rax,%rdi
  40c8d9:	e8 40 02 00 00       	callq  40cb1e <_ZNK9__gnu_cxx13new_allocatorIfE8max_sizeEv>
  40c8de:	48 3b 45 f0          	cmp    -0x10(%rbp),%rax
  40c8e2:	0f 92 c0             	setb   %al
  40c8e5:	84 c0                	test   %al,%al
  40c8e7:	74 05                	je     40c8ee <_ZN9__gnu_cxx13new_allocatorIfE8allocateEmPKv+0x30>
  40c8e9:	e8 92 84 ff ff       	callq  404d80 <_ZSt17__throw_bad_allocv@plt>
  40c8ee:	48 8b 45 f0          	mov    -0x10(%rbp),%rax
  40c8f2:	48 c1 e0 02          	shl    $0x2,%rax
  40c8f6:	48 89 c7             	mov    %rax,%rdi
  40c8f9:	e8 b2 84 ff ff       	callq  404db0 <_Znwm@plt>
  40c8fe:	c9                   	leaveq 
  40c8ff:	c3                   	retq   

000000000040c900 <_ZNSt11__copy_moveILb1ELb1ESt26random_access_iterator_tagE8__copy_mIPN5caffe4BlobIfEEEEPT_PKS7_SA_S8_>:
  40c900:	55                   	push   %rbp
  40c901:	48 89 e5             	mov    %rsp,%rbp
  40c904:	48 83 ec 30          	sub    $0x30,%rsp
  40c908:	48 89 7d e8          	mov    %rdi,-0x18(%rbp)
  40c90c:	48 89 75 e0          	mov    %rsi,-0x20(%rbp)
  40c910:	48 89 55 d8          	mov    %rdx,-0x28(%rbp)
  40c914:	48 8b 55 e0          	mov    -0x20(%rbp),%rdx
  40c918:	48 8b 45 e8          	mov    -0x18(%rbp),%rax
  40c91c:	48 29 c2             	sub    %rax,%rdx
  40c91f:	48 89 d0             	mov    %rdx,%rax
  40c922:	48 c1 f8 03          	sar    $0x3,%rax
  40c926:	48 89 45 f8          	mov    %rax,-0x8(%rbp)
  40c92a:	48 83 7d f8 00       	cmpq   $0x0,-0x8(%rbp)
  40c92f:	74 1f                	je     40c950 <_ZNSt11__copy_moveILb1ELb1ESt26random_access_iterator_tagE8__copy_mIPN5caffe4BlobIfEEEEPT_PKS7_SA_S8_+0x50>
  40c931:	48 8b 45 f8          	mov    -0x8(%rbp),%rax
  40c935:	48 8d 14 c5 00 00 00 	lea    0x0(,%rax,8),%rdx
  40c93c:	00 
  40c93d:	48 8b 4d e8          	mov    -0x18(%rbp),%rcx
  40c941:	48 8b 45 d8          	mov    -0x28(%rbp),%rax
  40c945:	48 89 ce             	mov    %rcx,%rsi
  40c948:	48 89 c7             	mov    %rax,%rdi
  40c94b:	e8 70 84 ff ff       	callq  404dc0 <memmove@plt>
  40c950:	48 8b 45 f8          	mov    -0x8(%rbp),%rax
  40c954:	48 8d 14 c5 00 00 00 	lea    0x0(,%rax,8),%rdx
  40c95b:	00 
  40c95c:	48 8b 45 d8          	mov    -0x28(%rbp),%rax
  40c960:	48 01 d0             	add    %rdx,%rax
  40c963:	c9                   	leaveq 
  40c964:	c3                   	retq   
  40c965:	90                   	nop

000000000040c966 <_ZN5boost10shared_ptrIN5caffe4BlobIfEEEC1Ev>:
  40c966:	55                   	push   %rbp
  40c967:	48 89 e5             	mov    %rsp,%rbp
  40c96a:	48 83 ec 10          	sub    $0x10,%rsp
  40c96e:	48 89 7d f8          	mov    %rdi,-0x8(%rbp)
  40c972:	48 8b 45 f8          	mov    -0x8(%rbp),%rax
  40c976:	48 c7 00 00 00 00 00 	movq   $0x0,(%rax)
  40c97d:	48 8b 45 f8          	mov    -0x8(%rbp),%rax
  40c981:	48 83 c0 08          	add    $0x8,%rax
  40c985:	48 89 c7             	mov    %rax,%rdi
  40c988:	e8 0f 8d ff ff       	callq  40569c <_ZN5boost6detail12shared_countC1Ev>
  40c98d:	90                   	nop
  40c98e:	c9                   	leaveq 
  40c98f:	c3                   	retq   

000000000040c990 <_ZStneIPN5boost10shared_ptrIN5caffe4BlobIfEEEEEbRKSt13move_iteratorIT_ESB_>:
  40c990:	55                   	push   %rbp
  40c991:	48 89 e5             	mov    %rsp,%rbp
  40c994:	48 83 ec 10          	sub    $0x10,%rsp
  40c998:	48 89 7d f8          	mov    %rdi,-0x8(%rbp)
  40c99c:	48 89 75 f0          	mov    %rsi,-0x10(%rbp)
  40c9a0:	48 8b 55 f0          	mov    -0x10(%rbp),%rdx
  40c9a4:	48 8b 45 f8          	mov    -0x8(%rbp),%rax
  40c9a8:	48 89 d6             	mov    %rdx,%rsi
  40c9ab:	48 89 c7             	mov    %rax,%rdi
  40c9ae:	e8 7f 01 00 00       	callq  40cb32 <_ZSteqIPN5boost10shared_ptrIN5caffe4BlobIfEEEEEbRKSt13move_iteratorIT_ESB_>
  40c9b3:	83 f0 01             	xor    $0x1,%eax
  40c9b6:	c9                   	leaveq 
  40c9b7:	c3                   	retq   

000000000040c9b8 <_ZNSt13move_iteratorIPN5boost10shared_ptrIN5caffe4BlobIfEEEEEppEv>:
  40c9b8:	55                   	push   %rbp
  40c9b9:	48 89 e5             	mov    %rsp,%rbp
  40c9bc:	48 89 7d f8          	mov    %rdi,-0x8(%rbp)
  40c9c0:	48 8b 45 f8          	mov    -0x8(%rbp),%rax
  40c9c4:	48 8b 00             	mov    (%rax),%rax
  40c9c7:	48 8d 50 10          	lea    0x10(%rax),%rdx
  40c9cb:	48 8b 45 f8          	mov    -0x8(%rbp),%rax
  40c9cf:	48 89 10             	mov    %rdx,(%rax)
  40c9d2:	48 8b 45 f8          	mov    -0x8(%rbp),%rax
  40c9d6:	5d                   	pop    %rbp
  40c9d7:	c3                   	retq   

000000000040c9d8 <_ZNKSt13move_iteratorIPN5boost10shared_ptrIN5caffe4BlobIfEEEEEdeEv>:
  40c9d8:	55                   	push   %rbp
  40c9d9:	48 89 e5             	mov    %rsp,%rbp
  40c9dc:	48 89 7d f8          	mov    %rdi,-0x8(%rbp)
  40c9e0:	48 8b 45 f8          	mov    -0x8(%rbp),%rax
  40c9e4:	48 8b 00             	mov    (%rax),%rax
  40c9e7:	5d                   	pop    %rbp
  40c9e8:	c3                   	retq   

000000000040c9e9 <_ZSt7forwardIN5boost10shared_ptrIN5caffe4BlobIfEEEEEOT_RNSt16remove_referenceIS6_E4typeE>:
  40c9e9:	55                   	push   %rbp
  40c9ea:	48 89 e5             	mov    %rsp,%rbp
  40c9ed:	48 89 7d f8          	mov    %rdi,-0x8(%rbp)
  40c9f1:	48 8b 45 f8          	mov    -0x8(%rbp),%rax
  40c9f5:	5d                   	pop    %rbp
  40c9f6:	c3                   	retq   

000000000040c9f7 <_ZSt10_ConstructIN5boost10shared_ptrIN5caffe4BlobIfEEEEJS5_EEvPT_DpOT0_>:
  40c9f7:	55                   	push   %rbp
  40c9f8:	48 89 e5             	mov    %rsp,%rbp
  40c9fb:	53                   	push   %rbx
  40c9fc:	48 83 ec 18          	sub    $0x18,%rsp
  40ca00:	48 89 7d e8          	mov    %rdi,-0x18(%rbp)
  40ca04:	48 89 75 e0          	mov    %rsi,-0x20(%rbp)
  40ca08:	48 8b 45 e0          	mov    -0x20(%rbp),%rax
  40ca0c:	48 89 c7             	mov    %rax,%rdi
  40ca0f:	e8 d5 ff ff ff       	callq  40c9e9 <_ZSt7forwardIN5boost10shared_ptrIN5caffe4BlobIfEEEEEOT_RNSt16remove_referenceIS6_E4typeE>
  40ca14:	48 89 c3             	mov    %rax,%rbx
  40ca17:	48 8b 45 e8          	mov    -0x18(%rbp),%rax
  40ca1b:	48 89 c6             	mov    %rax,%rsi
  40ca1e:	bf 10 00 00 00       	mov    $0x10,%edi
  40ca23:	e8 94 8a ff ff       	callq  4054bc <_ZnwmPv>
  40ca28:	48 85 c0             	test   %rax,%rax
  40ca2b:	74 0b                	je     40ca38 <_ZSt10_ConstructIN5boost10shared_ptrIN5caffe4BlobIfEEEEJS5_EEvPT_DpOT0_+0x41>
  40ca2d:	48 89 de             	mov    %rbx,%rsi
  40ca30:	48 89 c7             	mov    %rax,%rdi
  40ca33:	e8 34 01 00 00       	callq  40cb6c <_ZN5boost10shared_ptrIN5caffe4BlobIfEEEC1EOS4_>
  40ca38:	90                   	nop
  40ca39:	48 83 c4 18          	add    $0x18,%rsp
  40ca3d:	5b                   	pop    %rbx
  40ca3e:	5d                   	pop    %rbp
  40ca3f:	c3                   	retq   

000000000040ca40 <_ZNSt20__uninitialized_copyILb1EE13__uninit_copyISt13move_iteratorIPfES3_EET0_T_S6_S5_>:
  40ca40:	55                   	push   %rbp
  40ca41:	48 89 e5             	mov    %rsp,%rbp
  40ca44:	48 83 ec 20          	sub    $0x20,%rsp
  40ca48:	48 89 7d f8          	mov    %rdi,-0x8(%rbp)
  40ca4c:	48 89 75 f0          	mov    %rsi,-0x10(%rbp)
  40ca50:	48 89 55 e8          	mov    %rdx,-0x18(%rbp)
  40ca54:	48 8b 55 e8          	mov    -0x18(%rbp),%rdx
  40ca58:	48 8b 4d f0          	mov    -0x10(%rbp),%rcx
  40ca5c:	48 8b 45 f8          	mov    -0x8(%rbp),%rax
  40ca60:	48 89 ce             	mov    %rcx,%rsi
  40ca63:	48 89 c7             	mov    %rax,%rdi
  40ca66:	e8 58 01 00 00       	callq  40cbc3 <_ZSt4copyISt13move_iteratorIPfES1_ET0_T_S4_S3_>
  40ca6b:	c9                   	leaveq 
  40ca6c:	c3                   	retq   

000000000040ca6d <_ZNSt20__copy_move_backwardILb1ELb1ESt26random_access_iterator_tagE13__copy_move_bIfEEPT_PKS3_S6_S4_>:
  40ca6d:	55                   	push   %rbp
  40ca6e:	48 89 e5             	mov    %rsp,%rbp
  40ca71:	48 83 ec 30          	sub    $0x30,%rsp
  40ca75:	48 89 7d e8          	mov    %rdi,-0x18(%rbp)
  40ca79:	48 89 75 e0          	mov    %rsi,-0x20(%rbp)
  40ca7d:	48 89 55 d8          	mov    %rdx,-0x28(%rbp)
  40ca81:	48 8b 55 e0          	mov    -0x20(%rbp),%rdx
  40ca85:	48 8b 45 e8          	mov    -0x18(%rbp),%rax
  40ca89:	48 29 c2             	sub    %rax,%rdx
  40ca8c:	48 89 d0             	mov    %rdx,%rax
  40ca8f:	48 c1 f8 02          	sar    $0x2,%rax
  40ca93:	48 89 45 f8          	mov    %rax,-0x8(%rbp)
  40ca97:	48 83 7d f8 00       	cmpq   $0x0,-0x8(%rbp)
  40ca9c:	74 30                	je     40cace <_ZNSt20__copy_move_backwardILb1ELb1ESt26random_access_iterator_tagE13__copy_move_bIfEEPT_PKS3_S6_S4_+0x61>
  40ca9e:	48 8b 45 f8          	mov    -0x8(%rbp),%rax
  40caa2:	48 8d 14 85 00 00 00 	lea    0x0(,%rax,4),%rdx
  40caa9:	00 
  40caaa:	48 8b 45 f8          	mov    -0x8(%rbp),%rax
  40caae:	48 c1 e0 02          	shl    $0x2,%rax
  40cab2:	48 f7 d8             	neg    %rax
  40cab5:	48 89 c1             	mov    %rax,%rcx
  40cab8:	48 8b 45 d8          	mov    -0x28(%rbp),%rax
  40cabc:	48 01 c1             	add    %rax,%rcx
  40cabf:	48 8b 45 e8          	mov    -0x18(%rbp),%rax
  40cac3:	48 89 c6             	mov    %rax,%rsi
  40cac6:	48 89 cf             	mov    %rcx,%rdi
  40cac9:	e8 f2 82 ff ff       	callq  404dc0 <memmove@plt>
  40cace:	48 8b 45 f8          	mov    -0x8(%rbp),%rax
  40cad2:	48 c1 e0 02          	shl    $0x2,%rax
  40cad6:	48 f7 d8             	neg    %rax
  40cad9:	48 89 c2             	mov    %rax,%rdx
  40cadc:	48 8b 45 d8          	mov    -0x28(%rbp),%rax
  40cae0:	48 01 d0             	add    %rdx,%rax
  40cae3:	c9                   	leaveq 
  40cae4:	c3                   	retq   

000000000040cae5 <_ZSt6fill_nIPfmfET_S1_T0_RKT1_>:
  40cae5:	55                   	push   %rbp
  40cae6:	48 89 e5             	mov    %rsp,%rbp
  40cae9:	48 83 ec 20          	sub    $0x20,%rsp
  40caed:	48 89 7d f8          	mov    %rdi,-0x8(%rbp)
  40caf1:	48 89 75 f0          	mov    %rsi,-0x10(%rbp)
  40caf5:	48 89 55 e8          	mov    %rdx,-0x18(%rbp)
  40caf9:	48 8b 45 f8          	mov    -0x8(%rbp),%rax
  40cafd:	48 89 c7             	mov    %rax,%rdi
  40cb00:	e8 87 fa ff ff       	callq  40c58c <_ZSt12__niter_baseIPfET_S1_>
  40cb05:	48 89 c1             	mov    %rax,%rcx
  40cb08:	48 8b 55 e8          	mov    -0x18(%rbp),%rdx
  40cb0c:	48 8b 45 f0          	mov    -0x10(%rbp),%rax
  40cb10:	48 89 c6             	mov    %rax,%rsi
  40cb13:	48 89 cf             	mov    %rcx,%rdi
  40cb16:	e8 f4 00 00 00       	callq  40cc0f <_ZSt10__fill_n_aIPfmfEN9__gnu_cxx11__enable_ifIXsrSt11__is_scalarIT1_E7__valueET_E6__typeES6_T0_RKS4_>
  40cb1b:	c9                   	leaveq 
  40cb1c:	c3                   	retq   
  40cb1d:	90                   	nop

000000000040cb1e <_ZNK9__gnu_cxx13new_allocatorIfE8max_sizeEv>:
  40cb1e:	55                   	push   %rbp
  40cb1f:	48 89 e5             	mov    %rsp,%rbp
  40cb22:	48 89 7d f8          	mov    %rdi,-0x8(%rbp)
  40cb26:	48 b8 ff ff ff ff ff 	movabs $0x3fffffffffffffff,%rax
  40cb2d:	ff ff 3f 
  40cb30:	5d                   	pop    %rbp
  40cb31:	c3                   	retq   

000000000040cb32 <_ZSteqIPN5boost10shared_ptrIN5caffe4BlobIfEEEEEbRKSt13move_iteratorIT_ESB_>:
  40cb32:	55                   	push   %rbp
  40cb33:	48 89 e5             	mov    %rsp,%rbp
  40cb36:	53                   	push   %rbx
  40cb37:	48 83 ec 18          	sub    $0x18,%rsp
  40cb3b:	48 89 7d e8          	mov    %rdi,-0x18(%rbp)
  40cb3f:	48 89 75 e0          	mov    %rsi,-0x20(%rbp)
  40cb43:	48 8b 45 e8          	mov    -0x18(%rbp),%rax
  40cb47:	48 89 c7             	mov    %rax,%rdi
  40cb4a:	e8 0b 01 00 00       	callq  40cc5a <_ZNKSt13move_iteratorIPN5boost10shared_ptrIN5caffe4BlobIfEEEEE4baseEv>
  40cb4f:	48 89 c3             	mov    %rax,%rbx
  40cb52:	48 8b 45 e0          	mov    -0x20(%rbp),%rax
  40cb56:	48 89 c7             	mov    %rax,%rdi
  40cb59:	e8 fc 00 00 00       	callq  40cc5a <_ZNKSt13move_iteratorIPN5boost10shared_ptrIN5caffe4BlobIfEEEEE4baseEv>
  40cb5e:	48 39 c3             	cmp    %rax,%rbx
  40cb61:	0f 94 c0             	sete   %al
  40cb64:	48 83 c4 18          	add    $0x18,%rsp
  40cb68:	5b                   	pop    %rbx
  40cb69:	5d                   	pop    %rbp
  40cb6a:	c3                   	retq   
  40cb6b:	90                   	nop

000000000040cb6c <_ZN5boost10shared_ptrIN5caffe4BlobIfEEEC1EOS4_>:
  40cb6c:	55                   	push   %rbp
  40cb6d:	48 89 e5             	mov    %rsp,%rbp
  40cb70:	48 83 ec 10          	sub    $0x10,%rsp
  40cb74:	48 89 7d f8          	mov    %rdi,-0x8(%rbp)
  40cb78:	48 89 75 f0          	mov    %rsi,-0x10(%rbp)
  40cb7c:	48 8b 45 f0          	mov    -0x10(%rbp),%rax
  40cb80:	48 8b 10             	mov    (%rax),%rdx
  40cb83:	48 8b 45 f8          	mov    -0x8(%rbp),%rax
  40cb87:	48 89 10             	mov    %rdx,(%rax)
  40cb8a:	48 8b 45 f8          	mov    -0x8(%rbp),%rax
  40cb8e:	48 83 c0 08          	add    $0x8,%rax
  40cb92:	48 89 c7             	mov    %rax,%rdi
  40cb95:	e8 02 8b ff ff       	callq  40569c <_ZN5boost6detail12shared_countC1Ev>
  40cb9a:	48 8b 45 f0          	mov    -0x10(%rbp),%rax
  40cb9e:	48 8d 50 08          	lea    0x8(%rax),%rdx
  40cba2:	48 8b 45 f8          	mov    -0x8(%rbp),%rax
  40cba6:	48 83 c0 08          	add    $0x8,%rax
  40cbaa:	48 89 d6             	mov    %rdx,%rsi
  40cbad:	48 89 c7             	mov    %rax,%rdi
  40cbb0:	e8 27 8b ff ff       	callq  4056dc <_ZN5boost6detail12shared_count4swapERS1_>
  40cbb5:	48 8b 45 f0          	mov    -0x10(%rbp),%rax
  40cbb9:	48 c7 00 00 00 00 00 	movq   $0x0,(%rax)
  40cbc0:	90                   	nop
  40cbc1:	c9                   	leaveq 
  40cbc2:	c3                   	retq   

000000000040cbc3 <_ZSt4copyISt13move_iteratorIPfES1_ET0_T_S4_S3_>:
  40cbc3:	55                   	push   %rbp
  40cbc4:	48 89 e5             	mov    %rsp,%rbp
  40cbc7:	53                   	push   %rbx
  40cbc8:	48 83 ec 28          	sub    $0x28,%rsp
  40cbcc:	48 89 7d e8          	mov    %rdi,-0x18(%rbp)
  40cbd0:	48 89 75 e0          	mov    %rsi,-0x20(%rbp)
  40cbd4:	48 89 55 d8          	mov    %rdx,-0x28(%rbp)
  40cbd8:	48 8b 45 e0          	mov    -0x20(%rbp),%rax
  40cbdc:	48 89 c7             	mov    %rax,%rdi
  40cbdf:	e8 87 00 00 00       	callq  40cc6b <_ZSt12__miter_baseIPfEDTcl12__miter_basecldtfp_4baseEEESt13move_iteratorIT_E>
  40cbe4:	48 89 c3             	mov    %rax,%rbx
  40cbe7:	48 8b 45 e8          	mov    -0x18(%rbp),%rax
  40cbeb:	48 89 c7             	mov    %rax,%rdi
  40cbee:	e8 78 00 00 00       	callq  40cc6b <_ZSt12__miter_baseIPfEDTcl12__miter_basecldtfp_4baseEEESt13move_iteratorIT_E>
  40cbf3:	48 89 c1             	mov    %rax,%rcx
  40cbf6:	48 8b 45 d8          	mov    -0x28(%rbp),%rax
  40cbfa:	48 89 c2             	mov    %rax,%rdx
  40cbfd:	48 89 de             	mov    %rbx,%rsi
  40cc00:	48 89 cf             	mov    %rcx,%rdi
  40cc03:	e8 85 00 00 00       	callq  40cc8d <_ZSt14__copy_move_a2ILb1EPfS0_ET1_T0_S2_S1_>
  40cc08:	48 83 c4 28          	add    $0x28,%rsp
  40cc0c:	5b                   	pop    %rbx
  40cc0d:	5d                   	pop    %rbp
  40cc0e:	c3                   	retq   

000000000040cc0f <_ZSt10__fill_n_aIPfmfEN9__gnu_cxx11__enable_ifIXsrSt11__is_scalarIT1_E7__valueET_E6__typeES6_T0_RKS4_>:
  40cc0f:	55                   	push   %rbp
  40cc10:	48 89 e5             	mov    %rsp,%rbp
  40cc13:	48 89 7d e8          	mov    %rdi,-0x18(%rbp)
  40cc17:	48 89 75 e0          	mov    %rsi,-0x20(%rbp)
  40cc1b:	48 89 55 d8          	mov    %rdx,-0x28(%rbp)
  40cc1f:	48 8b 45 d8          	mov    -0x28(%rbp),%rax
  40cc23:	f3 0f 10 00          	movss  (%rax),%xmm0
  40cc27:	f3 0f 11 45 f4       	movss  %xmm0,-0xc(%rbp)
  40cc2c:	48 8b 45 e0          	mov    -0x20(%rbp),%rax
  40cc30:	48 89 45 f8          	mov    %rax,-0x8(%rbp)
  40cc34:	48 83 7d f8 00       	cmpq   $0x0,-0x8(%rbp)
  40cc39:	74 19                	je     40cc54 <_ZSt10__fill_n_aIPfmfEN9__gnu_cxx11__enable_ifIXsrSt11__is_scalarIT1_E7__valueET_E6__typeES6_T0_RKS4_+0x45>
  40cc3b:	48 8b 45 e8          	mov    -0x18(%rbp),%rax
  40cc3f:	f3 0f 10 45 f4       	movss  -0xc(%rbp),%xmm0
  40cc44:	f3 0f 11 00          	movss  %xmm0,(%rax)
  40cc48:	48 83 6d f8 01       	subq   $0x1,-0x8(%rbp)
  40cc4d:	48 83 45 e8 04       	addq   $0x4,-0x18(%rbp)
  40cc52:	eb e0                	jmp    40cc34 <_ZSt10__fill_n_aIPfmfEN9__gnu_cxx11__enable_ifIXsrSt11__is_scalarIT1_E7__valueET_E6__typeES6_T0_RKS4_+0x25>
  40cc54:	48 8b 45 e8          	mov    -0x18(%rbp),%rax
  40cc58:	5d                   	pop    %rbp
  40cc59:	c3                   	retq   

000000000040cc5a <_ZNKSt13move_iteratorIPN5boost10shared_ptrIN5caffe4BlobIfEEEEE4baseEv>:
  40cc5a:	55                   	push   %rbp
  40cc5b:	48 89 e5             	mov    %rsp,%rbp
  40cc5e:	48 89 7d f8          	mov    %rdi,-0x8(%rbp)
  40cc62:	48 8b 45 f8          	mov    -0x8(%rbp),%rax
  40cc66:	48 8b 00             	mov    (%rax),%rax
  40cc69:	5d                   	pop    %rbp
  40cc6a:	c3                   	retq   

000000000040cc6b <_ZSt12__miter_baseIPfEDTcl12__miter_basecldtfp_4baseEEESt13move_iteratorIT_E>:
  40cc6b:	55                   	push   %rbp
  40cc6c:	48 89 e5             	mov    %rsp,%rbp
  40cc6f:	48 83 ec 10          	sub    $0x10,%rsp
  40cc73:	48 89 7d f8          	mov    %rdi,-0x8(%rbp)
  40cc77:	48 8d 45 f8          	lea    -0x8(%rbp),%rax
  40cc7b:	48 89 c7             	mov    %rax,%rdi
  40cc7e:	e8 63 00 00 00       	callq  40cce6 <_ZNKSt13move_iteratorIPfE4baseEv>
  40cc83:	48 89 c7             	mov    %rax,%rdi
  40cc86:	e8 9b f8 ff ff       	callq  40c526 <_ZSt12__miter_baseIPfET_S1_>
  40cc8b:	c9                   	leaveq 
  40cc8c:	c3                   	retq   

000000000040cc8d <_ZSt14__copy_move_a2ILb1EPfS0_ET1_T0_S2_S1_>:
  40cc8d:	55                   	push   %rbp
  40cc8e:	48 89 e5             	mov    %rsp,%rbp
  40cc91:	41 54                	push   %r12
  40cc93:	53                   	push   %rbx
  40cc94:	48 83 ec 20          	sub    $0x20,%rsp
  40cc98:	48 89 7d e8          	mov    %rdi,-0x18(%rbp)
  40cc9c:	48 89 75 e0          	mov    %rsi,-0x20(%rbp)
  40cca0:	48 89 55 d8          	mov    %rdx,-0x28(%rbp)
  40cca4:	48 8b 45 d8          	mov    -0x28(%rbp),%rax
  40cca8:	48 89 c7             	mov    %rax,%rdi
  40ccab:	e8 dc f8 ff ff       	callq  40c58c <_ZSt12__niter_baseIPfET_S1_>
  40ccb0:	49 89 c4             	mov    %rax,%r12
  40ccb3:	48 8b 45 e0          	mov    -0x20(%rbp),%rax
  40ccb7:	48 89 c7             	mov    %rax,%rdi
  40ccba:	e8 cd f8 ff ff       	callq  40c58c <_ZSt12__niter_baseIPfET_S1_>
  40ccbf:	48 89 c3             	mov    %rax,%rbx
  40ccc2:	48 8b 45 e8          	mov    -0x18(%rbp),%rax
  40ccc6:	48 89 c7             	mov    %rax,%rdi
  40ccc9:	e8 be f8 ff ff       	callq  40c58c <_ZSt12__niter_baseIPfET_S1_>
  40ccce:	4c 89 e2             	mov    %r12,%rdx
  40ccd1:	48 89 de             	mov    %rbx,%rsi
  40ccd4:	48 89 c7             	mov    %rax,%rdi
  40ccd7:	e8 1b 00 00 00       	callq  40ccf7 <_ZSt13__copy_move_aILb1EPfS0_ET1_T0_S2_S1_>
  40ccdc:	48 83 c4 20          	add    $0x20,%rsp
  40cce0:	5b                   	pop    %rbx
  40cce1:	41 5c                	pop    %r12
  40cce3:	5d                   	pop    %rbp
  40cce4:	c3                   	retq   
  40cce5:	90                   	nop

000000000040cce6 <_ZNKSt13move_iteratorIPfE4baseEv>:
  40cce6:	55                   	push   %rbp
  40cce7:	48 89 e5             	mov    %rsp,%rbp
  40ccea:	48 89 7d f8          	mov    %rdi,-0x8(%rbp)
  40ccee:	48 8b 45 f8          	mov    -0x8(%rbp),%rax
  40ccf2:	48 8b 00             	mov    (%rax),%rax
  40ccf5:	5d                   	pop    %rbp
  40ccf6:	c3                   	retq   

000000000040ccf7 <_ZSt13__copy_move_aILb1EPfS0_ET1_T0_S2_S1_>:
  40ccf7:	55                   	push   %rbp
  40ccf8:	48 89 e5             	mov    %rsp,%rbp
  40ccfb:	48 83 ec 30          	sub    $0x30,%rsp
  40ccff:	48 89 7d e8          	mov    %rdi,-0x18(%rbp)
  40cd03:	48 89 75 e0          	mov    %rsi,-0x20(%rbp)
  40cd07:	48 89 55 d8          	mov    %rdx,-0x28(%rbp)
  40cd0b:	c6 45 ff 01          	movb   $0x1,-0x1(%rbp)
  40cd0f:	48 8b 55 d8          	mov    -0x28(%rbp),%rdx
  40cd13:	48 8b 4d e0          	mov    -0x20(%rbp),%rcx
  40cd17:	48 8b 45 e8          	mov    -0x18(%rbp),%rax
  40cd1b:	48 89 ce             	mov    %rcx,%rsi
  40cd1e:	48 89 c7             	mov    %rax,%rdi
  40cd21:	e8 02 00 00 00       	callq  40cd28 <_ZNSt11__copy_moveILb1ELb1ESt26random_access_iterator_tagE8__copy_mIfEEPT_PKS3_S6_S4_>
  40cd26:	c9                   	leaveq 
  40cd27:	c3                   	retq   

000000000040cd28 <_ZNSt11__copy_moveILb1ELb1ESt26random_access_iterator_tagE8__copy_mIfEEPT_PKS3_S6_S4_>:
  40cd28:	55                   	push   %rbp
  40cd29:	48 89 e5             	mov    %rsp,%rbp
  40cd2c:	48 83 ec 30          	sub    $0x30,%rsp
  40cd30:	48 89 7d e8          	mov    %rdi,-0x18(%rbp)
  40cd34:	48 89 75 e0          	mov    %rsi,-0x20(%rbp)
  40cd38:	48 89 55 d8          	mov    %rdx,-0x28(%rbp)
  40cd3c:	48 8b 55 e0          	mov    -0x20(%rbp),%rdx
  40cd40:	48 8b 45 e8          	mov    -0x18(%rbp),%rax
  40cd44:	48 29 c2             	sub    %rax,%rdx
  40cd47:	48 89 d0             	mov    %rdx,%rax
  40cd4a:	48 c1 f8 02          	sar    $0x2,%rax
  40cd4e:	48 89 45 f8          	mov    %rax,-0x8(%rbp)
  40cd52:	48 83 7d f8 00       	cmpq   $0x0,-0x8(%rbp)
  40cd57:	74 1f                	je     40cd78 <_ZNSt11__copy_moveILb1ELb1ESt26random_access_iterator_tagE8__copy_mIfEEPT_PKS3_S6_S4_+0x50>
  40cd59:	48 8b 45 f8          	mov    -0x8(%rbp),%rax
  40cd5d:	48 8d 14 85 00 00 00 	lea    0x0(,%rax,4),%rdx
  40cd64:	00 
  40cd65:	48 8b 4d e8          	mov    -0x18(%rbp),%rcx
  40cd69:	48 8b 45 d8          	mov    -0x28(%rbp),%rax
  40cd6d:	48 89 ce             	mov    %rcx,%rsi
  40cd70:	48 89 c7             	mov    %rax,%rdi
  40cd73:	e8 48 80 ff ff       	callq  404dc0 <memmove@plt>
  40cd78:	48 8b 45 f8          	mov    -0x8(%rbp),%rax
  40cd7c:	48 8d 14 85 00 00 00 	lea    0x0(,%rax,4),%rdx
  40cd83:	00 
  40cd84:	48 8b 45 d8          	mov    -0x28(%rbp),%rax
  40cd88:	48 01 d0             	add    %rdx,%rax
  40cd8b:	c9                   	leaveq 
  40cd8c:	c3                   	retq   
  40cd8d:	90                   	nop

000000000040cd8e <_ZN5boost6detail17sp_counted_impl_pIN5caffe4BlobIfEEED1Ev>:
  40cd8e:	55                   	push   %rbp
  40cd8f:	48 89 e5             	mov    %rsp,%rbp
  40cd92:	48 83 ec 10          	sub    $0x10,%rsp
  40cd96:	48 89 7d f8          	mov    %rdi,-0x8(%rbp)
  40cd9a:	ba a8 dc 40 00       	mov    $0x40dca8,%edx
  40cd9f:	48 8b 45 f8          	mov    -0x8(%rbp),%rax
  40cda3:	48 89 10             	mov    %rdx,(%rax)
  40cda6:	48 8b 45 f8          	mov    -0x8(%rbp),%rax
  40cdaa:	48 89 c7             	mov    %rax,%rdi
  40cdad:	e8 e6 87 ff ff       	callq  405598 <_ZN5boost6detail15sp_counted_baseD1Ev>
  40cdb2:	90                   	nop
  40cdb3:	c9                   	leaveq 
  40cdb4:	c3                   	retq   
  40cdb5:	90                   	nop

000000000040cdb6 <_ZN5boost6detail17sp_counted_impl_pIN5caffe4BlobIfEEED0Ev>:
  40cdb6:	55                   	push   %rbp
  40cdb7:	48 89 e5             	mov    %rsp,%rbp
  40cdba:	48 83 ec 10          	sub    $0x10,%rsp
  40cdbe:	48 89 7d f8          	mov    %rdi,-0x8(%rbp)
  40cdc2:	48 8b 45 f8          	mov    -0x8(%rbp),%rax
  40cdc6:	48 89 c7             	mov    %rax,%rdi
  40cdc9:	e8 c0 ff ff ff       	callq  40cd8e <_ZN5boost6detail17sp_counted_impl_pIN5caffe4BlobIfEEED1Ev>
  40cdce:	48 8b 45 f8          	mov    -0x8(%rbp),%rax
  40cdd2:	48 89 c7             	mov    %rax,%rdi
  40cdd5:	e8 46 81 ff ff       	callq  404f20 <_ZdlPv@plt>
  40cdda:	c9                   	leaveq 
  40cddb:	c3                   	retq   

000000000040cddc <_ZN5caffe16ConvolutionLayerIfED1Ev>:
  40cddc:	55                   	push   %rbp
  40cddd:	48 89 e5             	mov    %rsp,%rbp
  40cde0:	48 83 ec 10          	sub    $0x10,%rsp
  40cde4:	48 89 7d f8          	mov    %rdi,-0x8(%rbp)
  40cde8:	ba e8 dc 40 00       	mov    $0x40dce8,%edx
  40cded:	48 8b 45 f8          	mov    -0x8(%rbp),%rax
  40cdf1:	48 89 10             	mov    %rdx,(%rax)
  40cdf4:	48 8b 45 f8          	mov    -0x8(%rbp),%rax
  40cdf8:	48 89 c7             	mov    %rax,%rdi
  40cdfb:	e8 a0 a2 ff ff       	callq  4070a0 <_ZN5caffe20BaseConvolutionLayerIfED1Ev>
  40ce00:	90                   	nop
  40ce01:	c9                   	leaveq 
  40ce02:	c3                   	retq   
  40ce03:	90                   	nop

000000000040ce04 <_ZN5caffe16ConvolutionLayerIfED0Ev>:
  40ce04:	55                   	push   %rbp
  40ce05:	48 89 e5             	mov    %rsp,%rbp
  40ce08:	48 83 ec 10          	sub    $0x10,%rsp
  40ce0c:	48 89 7d f8          	mov    %rdi,-0x8(%rbp)
  40ce10:	48 8b 45 f8          	mov    -0x8(%rbp),%rax
  40ce14:	48 89 c7             	mov    %rax,%rdi
  40ce17:	e8 c0 ff ff ff       	callq  40cddc <_ZN5caffe16ConvolutionLayerIfED1Ev>
  40ce1c:	48 8b 45 f8          	mov    -0x8(%rbp),%rax
  40ce20:	48 89 c7             	mov    %rax,%rdi
  40ce23:	e8 f8 80 ff ff       	callq  404f20 <_ZdlPv@plt>
  40ce28:	c9                   	leaveq 
  40ce29:	c3                   	retq   

000000000040ce2a <_ZN5boost6detail17sp_counted_impl_pIN5caffe4BlobIfEEE7disposeEv>:
  40ce2a:	55                   	push   %rbp
  40ce2b:	48 89 e5             	mov    %rsp,%rbp
  40ce2e:	48 83 ec 10          	sub    $0x10,%rsp
  40ce32:	48 89 7d f8          	mov    %rdi,-0x8(%rbp)
  40ce36:	48 8b 45 f8          	mov    -0x8(%rbp),%rax
  40ce3a:	48 8b 40 10          	mov    0x10(%rax),%rax
  40ce3e:	48 89 c7             	mov    %rax,%rdi
  40ce41:	e8 39 f6 ff ff       	callq  40c47f <_ZN5boost14checked_deleteIN5caffe4BlobIfEEEEvPT_>
  40ce46:	90                   	nop
  40ce47:	c9                   	leaveq 
  40ce48:	c3                   	retq   
  40ce49:	90                   	nop

000000000040ce4a <_ZN5boost6detail17sp_counted_impl_pIN5caffe4BlobIfEEE11get_deleterERKSt9type_info>:
  40ce4a:	55                   	push   %rbp
  40ce4b:	48 89 e5             	mov    %rsp,%rbp
  40ce4e:	48 89 7d f8          	mov    %rdi,-0x8(%rbp)
  40ce52:	48 89 75 f0          	mov    %rsi,-0x10(%rbp)
  40ce56:	b8 00 00 00 00       	mov    $0x0,%eax
  40ce5b:	5d                   	pop    %rbp
  40ce5c:	c3                   	retq   
  40ce5d:	90                   	nop

000000000040ce5e <_ZN5boost6detail17sp_counted_impl_pIN5caffe4BlobIfEEE19get_untyped_deleterEv>:
  40ce5e:	55                   	push   %rbp
  40ce5f:	48 89 e5             	mov    %rsp,%rbp
  40ce62:	48 89 7d f8          	mov    %rdi,-0x8(%rbp)
  40ce66:	b8 00 00 00 00       	mov    $0x0,%eax
  40ce6b:	5d                   	pop    %rbp
  40ce6c:	c3                   	retq   
  40ce6d:	90                   	nop

000000000040ce6e <_ZN5caffe5LayerIfE7ToProtoEPNS_14LayerParameterEb>:
  40ce6e:	55                   	push   %rbp
  40ce6f:	48 89 e5             	mov    %rsp,%rbp
  40ce72:	41 54                	push   %r12
  40ce74:	53                   	push   %rbx
  40ce75:	48 83 ec 30          	sub    $0x30,%rsp
  40ce79:	48 89 7d d8          	mov    %rdi,-0x28(%rbp)
  40ce7d:	48 89 75 d0          	mov    %rsi,-0x30(%rbp)
  40ce81:	89 d0                	mov    %edx,%eax
  40ce83:	88 45 cc             	mov    %al,-0x34(%rbp)
  40ce86:	48 8b 45 d0          	mov    -0x30(%rbp),%rax
  40ce8a:	48 8b 00             	mov    (%rax),%rax
  40ce8d:	48 83 c0 38          	add    $0x38,%rax
  40ce91:	48 8b 00             	mov    (%rax),%rax
  40ce94:	48 8b 55 d0          	mov    -0x30(%rbp),%rdx
  40ce98:	48 89 d7             	mov    %rdx,%rdi
  40ce9b:	ff d0                	callq  *%rax
  40ce9d:	48 8b 45 d8          	mov    -0x28(%rbp),%rax
  40cea1:	48 8d 50 08          	lea    0x8(%rax),%rdx
  40cea5:	48 8b 45 d0          	mov    -0x30(%rbp),%rax
  40cea9:	48 89 d6             	mov    %rdx,%rsi
  40ceac:	48 89 c7             	mov    %rax,%rdi
  40ceaf:	e8 2c 7f ff ff       	callq  404de0 <_ZN5caffe14LayerParameter8CopyFromERKS0_@plt>
  40ceb4:	48 8b 45 d0          	mov    -0x30(%rbp),%rax
  40ceb8:	48 89 c7             	mov    %rax,%rdi
  40cebb:	e8 2a 8c ff ff       	callq  405aea <_ZN5caffe14LayerParameter11clear_blobsEv>
  40cec0:	c7 45 ec 00 00 00 00 	movl   $0x0,-0x14(%rbp)
  40cec7:	8b 45 ec             	mov    -0x14(%rbp),%eax
  40ceca:	48 63 d8             	movslq %eax,%rbx
  40cecd:	48 8b 45 d8          	mov    -0x28(%rbp),%rax
  40ced1:	48 05 68 02 00 00    	add    $0x268,%rax
  40ced7:	48 89 c7             	mov    %rax,%rdi
  40ceda:	e8 57 db ff ff       	callq  40aa36 <_ZNKSt6vectorIN5boost10shared_ptrIN5caffe4BlobIfEEEESaIS5_EE4sizeEv>
  40cedf:	48 39 c3             	cmp    %rax,%rbx
  40cee2:	0f 92 c0             	setb   %al
  40cee5:	84 c0                	test   %al,%al
  40cee7:	74 49                	je     40cf32 <_ZN5caffe5LayerIfE7ToProtoEPNS_14LayerParameterEb+0xc4>
  40cee9:	0f b6 5d cc          	movzbl -0x34(%rbp),%ebx
  40ceed:	48 8b 45 d0          	mov    -0x30(%rbp),%rax
  40cef1:	48 89 c7             	mov    %rax,%rdi
  40cef4:	e8 37 8c ff ff       	callq  405b30 <_ZN5caffe14LayerParameter9add_blobsEv>
  40cef9:	49 89 c4             	mov    %rax,%r12
  40cefc:	8b 45 ec             	mov    -0x14(%rbp),%eax
  40ceff:	48 98                	cltq   
  40cf01:	48 8b 55 d8          	mov    -0x28(%rbp),%rdx
  40cf05:	48 81 c2 68 02 00 00 	add    $0x268,%rdx
  40cf0c:	48 89 c6             	mov    %rax,%rsi
  40cf0f:	48 89 d7             	mov    %rdx,%rdi
  40cf12:	e8 a7 d0 ff ff       	callq  409fbe <_ZNSt6vectorIN5boost10shared_ptrIN5caffe4BlobIfEEEESaIS5_EEixEm>
  40cf17:	48 89 c7             	mov    %rax,%rdi
  40cf1a:	e8 75 d1 ff ff       	callq  40a094 <_ZNK5boost10shared_ptrIN5caffe4BlobIfEEEptEv>
  40cf1f:	89 da                	mov    %ebx,%edx
  40cf21:	4c 89 e6             	mov    %r12,%rsi
  40cf24:	48 89 c7             	mov    %rax,%rdi
  40cf27:	e8 a4 82 ff ff       	callq  4051d0 <_ZNK5caffe4BlobIfE7ToProtoEPNS_9BlobProtoEb@plt>
  40cf2c:	83 45 ec 01          	addl   $0x1,-0x14(%rbp)
  40cf30:	eb 95                	jmp    40cec7 <_ZN5caffe5LayerIfE7ToProtoEPNS_14LayerParameterEb+0x59>
  40cf32:	90                   	nop
  40cf33:	48 83 c4 30          	add    $0x30,%rsp
  40cf37:	5b                   	pop    %rbx
  40cf38:	41 5c                	pop    %r12
  40cf3a:	5d                   	pop    %rbp
  40cf3b:	c3                   	retq   

000000000040cf3c <_ZNK5caffe16ConvolutionLayerIfE4typeEv>:
  40cf3c:	55                   	push   %rbp
  40cf3d:	48 89 e5             	mov    %rsp,%rbp
  40cf40:	48 89 7d f8          	mov    %rdi,-0x8(%rbp)
  40cf44:	b8 5d da 40 00       	mov    $0x40da5d,%eax
  40cf49:	5d                   	pop    %rbp
  40cf4a:	c3                   	retq   
  40cf4b:	90                   	nop

000000000040cf4c <_ZNK5caffe20BaseConvolutionLayerIfE14MinBottomBlobsEv>:
  40cf4c:	55                   	push   %rbp
  40cf4d:	48 89 e5             	mov    %rsp,%rbp
  40cf50:	48 89 7d f8          	mov    %rdi,-0x8(%rbp)
  40cf54:	b8 01 00 00 00       	mov    $0x1,%eax
  40cf59:	5d                   	pop    %rbp
  40cf5a:	c3                   	retq   
  40cf5b:	90                   	nop

000000000040cf5c <_ZNK5caffe20BaseConvolutionLayerIfE11MinTopBlobsEv>:
  40cf5c:	55                   	push   %rbp
  40cf5d:	48 89 e5             	mov    %rsp,%rbp
  40cf60:	48 89 7d f8          	mov    %rdi,-0x8(%rbp)
  40cf64:	b8 01 00 00 00       	mov    $0x1,%eax
  40cf69:	5d                   	pop    %rbp
  40cf6a:	c3                   	retq   
  40cf6b:	90                   	nop

000000000040cf6c <_ZNK5caffe20BaseConvolutionLayerIfE22EqualNumBottomTopBlobsEv>:
  40cf6c:	55                   	push   %rbp
  40cf6d:	48 89 e5             	mov    %rsp,%rbp
  40cf70:	48 89 7d f8          	mov    %rdi,-0x8(%rbp)
  40cf74:	b8 01 00 00 00       	mov    $0x1,%eax
  40cf79:	5d                   	pop    %rbp
  40cf7a:	c3                   	retq   
  40cf7b:	90                   	nop

000000000040cf7c <_ZNK5caffe5LayerIfE12AutoTopBlobsEv>:
  40cf7c:	55                   	push   %rbp
  40cf7d:	48 89 e5             	mov    %rsp,%rbp
  40cf80:	48 89 7d f8          	mov    %rdi,-0x8(%rbp)
  40cf84:	b8 00 00 00 00       	mov    $0x0,%eax
  40cf89:	5d                   	pop    %rbp
  40cf8a:	c3                   	retq   
  40cf8b:	90                   	nop

000000000040cf8c <_ZNK5caffe5LayerIfE18AllowForceBackwardEi>:
  40cf8c:	55                   	push   %rbp
  40cf8d:	48 89 e5             	mov    %rsp,%rbp
  40cf90:	48 89 7d f8          	mov    %rdi,-0x8(%rbp)
  40cf94:	89 75 f4             	mov    %esi,-0xc(%rbp)
  40cf97:	b8 01 00 00 00       	mov    $0x1,%eax
  40cf9c:	5d                   	pop    %rbp
  40cf9d:	c3                   	retq   

000000000040cf9e <_ZN5caffe16ConvolutionLayerIfE18reverse_dimensionsEv>:
  40cf9e:	55                   	push   %rbp
  40cf9f:	48 89 e5             	mov    %rsp,%rbp
  40cfa2:	48 89 7d f8          	mov    %rdi,-0x8(%rbp)
  40cfa6:	b8 00 00 00 00       	mov    $0x0,%eax
  40cfab:	5d                   	pop    %rbp
  40cfac:	c3                   	retq   
  40cfad:	90                   	nop

000000000040cfae <_ZN5caffe5LayerIfE12Backward_gpuERKSt6vectorIPNS_4BlobIfEESaIS5_EERKS2_IbSaIbEES9_>:
  40cfae:	55                   	push   %rbp
  40cfaf:	48 89 e5             	mov    %rsp,%rbp
  40cfb2:	48 83 ec 20          	sub    $0x20,%rsp
  40cfb6:	48 89 7d f8          	mov    %rdi,-0x8(%rbp)
  40cfba:	48 89 75 f0          	mov    %rsi,-0x10(%rbp)
  40cfbe:	48 89 55 e8          	mov    %rdx,-0x18(%rbp)
  40cfc2:	48 89 4d e0          	mov    %rcx,-0x20(%rbp)
  40cfc6:	48 8b 45 f8          	mov    -0x8(%rbp),%rax
  40cfca:	48 8b 00             	mov    (%rax),%rax
  40cfcd:	48 05 88 00 00 00    	add    $0x88,%rax
  40cfd3:	48 8b 00             	mov    (%rax),%rax
  40cfd6:	48 8b 4d e0          	mov    -0x20(%rbp),%rcx
  40cfda:	48 8b 55 e8          	mov    -0x18(%rbp),%rdx
  40cfde:	48 8b 75 f0          	mov    -0x10(%rbp),%rsi
  40cfe2:	48 8b 7d f8          	mov    -0x8(%rbp),%rdi
  40cfe6:	ff d0                	callq  *%rax
  40cfe8:	90                   	nop
  40cfe9:	c9                   	leaveq 
  40cfea:	c3                   	retq   
  40cfeb:	0f 1f 44 00 00       	nopl   0x0(%rax,%rax,1)

000000000040cff0 <__libc_csu_init>:
  40cff0:	41 57                	push   %r15
  40cff2:	41 56                	push   %r14
  40cff4:	41 89 ff             	mov    %edi,%r15d
  40cff7:	41 55                	push   %r13
  40cff9:	41 54                	push   %r12
  40cffb:	4c 8d 25 b6 5d 20 00 	lea    0x205db6(%rip),%r12        # 612db8 <__frame_dummy_init_array_entry>
  40d002:	55                   	push   %rbp
  40d003:	48 8d 2d be 5d 20 00 	lea    0x205dbe(%rip),%rbp        # 612dc8 <__init_array_end>
  40d00a:	53                   	push   %rbx
  40d00b:	49 89 f6             	mov    %rsi,%r14
  40d00e:	49 89 d5             	mov    %rdx,%r13
  40d011:	4c 29 e5             	sub    %r12,%rbp
  40d014:	48 83 ec 08          	sub    $0x8,%rsp
  40d018:	48 c1 fd 03          	sar    $0x3,%rbp
  40d01c:	e8 b7 7c ff ff       	callq  404cd8 <_init>
  40d021:	48 85 ed             	test   %rbp,%rbp
  40d024:	74 20                	je     40d046 <__libc_csu_init+0x56>
  40d026:	31 db                	xor    %ebx,%ebx
  40d028:	0f 1f 84 00 00 00 00 	nopl   0x0(%rax,%rax,1)
  40d02f:	00 
  40d030:	4c 89 ea             	mov    %r13,%rdx
  40d033:	4c 89 f6             	mov    %r14,%rsi
  40d036:	44 89 ff             	mov    %r15d,%edi
  40d039:	41 ff 14 dc          	callq  *(%r12,%rbx,8)
  40d03d:	48 83 c3 01          	add    $0x1,%rbx
  40d041:	48 39 eb             	cmp    %rbp,%rbx
  40d044:	75 ea                	jne    40d030 <__libc_csu_init+0x40>
  40d046:	48 83 c4 08          	add    $0x8,%rsp
  40d04a:	5b                   	pop    %rbx
  40d04b:	5d                   	pop    %rbp
  40d04c:	41 5c                	pop    %r12
  40d04e:	41 5d                	pop    %r13
  40d050:	41 5e                	pop    %r14
  40d052:	41 5f                	pop    %r15
  40d054:	c3                   	retq   
  40d055:	90                   	nop
  40d056:	66 2e 0f 1f 84 00 00 	nopw   %cs:0x0(%rax,%rax,1)
  40d05d:	00 00 00 

000000000040d060 <__libc_csu_fini>:
  40d060:	f3 c3                	repz retq 

Disassembly of section .fini:

000000000040d064 <_fini>:
  40d064:	48 83 ec 08          	sub    $0x8,%rsp
  40d068:	48 83 c4 08          	add    $0x8,%rsp
  40d06c:	c3                   	retq   
