
avgpool:     file format elf64-x86-64


Disassembly of section .init:

00000000004045d8 <_init>:
  4045d8:	48 83 ec 08          	sub    $0x8,%rsp
  4045dc:	48 8b 05 15 da 20 00 	mov    0x20da15(%rip),%rax        # 611ff8 <_DYNAMIC+0x220>
  4045e3:	48 85 c0             	test   %rax,%rax
  4045e6:	74 05                	je     4045ed <_init+0x15>
  4045e8:	e8 83 05 00 00       	callq  404b70 <_ZN5caffe35PoolingParameter_PoolMethod_IsValidEi@plt+0x10>
  4045ed:	48 83 c4 08          	add    $0x8,%rsp
  4045f1:	c3                   	retq   

Disassembly of section .plt:

0000000000404600 <xopenme_init@plt-0x10>:
  404600:	ff 35 02 da 20 00    	pushq  0x20da02(%rip)        # 612008 <_GLOBAL_OFFSET_TABLE_+0x8>
  404606:	ff 25 04 da 20 00    	jmpq   *0x20da04(%rip)        # 612010 <_GLOBAL_OFFSET_TABLE_+0x10>
  40460c:	0f 1f 40 00          	nopl   0x0(%rax)

0000000000404610 <xopenme_init@plt>:
  404610:	ff 25 02 da 20 00    	jmpq   *0x20da02(%rip)        # 612018 <_GLOBAL_OFFSET_TABLE_+0x18>
  404616:	68 00 00 00 00       	pushq  $0x0
  40461b:	e9 e0 ff ff ff       	jmpq   404600 <_init+0x28>

0000000000404620 <xopenme_add_var_f@plt>:
  404620:	ff 25 fa d9 20 00    	jmpq   *0x20d9fa(%rip)        # 612020 <_GLOBAL_OFFSET_TABLE_+0x20>
  404626:	68 01 00 00 00       	pushq  $0x1
  40462b:	e9 d0 ff ff ff       	jmpq   404600 <_init+0x28>

0000000000404630 <__cxa_begin_catch@plt>:
  404630:	ff 25 f2 d9 20 00    	jmpq   *0x20d9f2(%rip)        # 612028 <_GLOBAL_OFFSET_TABLE_+0x28>
  404636:	68 02 00 00 00       	pushq  $0x2
  40463b:	e9 c0 ff ff ff       	jmpq   404600 <_init+0x28>

0000000000404640 <_ZN5caffe14LayerParameterC1Ev@plt>:
  404640:	ff 25 ea d9 20 00    	jmpq   *0x20d9ea(%rip)        # 612030 <_GLOBAL_OFFSET_TABLE_+0x30>
  404646:	68 03 00 00 00       	pushq  $0x3
  40464b:	e9 b0 ff ff ff       	jmpq   404600 <_init+0x28>

0000000000404650 <printf@plt>:
  404650:	ff 25 e2 d9 20 00    	jmpq   *0x20d9e2(%rip)        # 612038 <_GLOBAL_OFFSET_TABLE_+0x38>
  404656:	68 04 00 00 00       	pushq  $0x4
  40465b:	e9 a0 ff ff ff       	jmpq   404600 <_init+0x28>

0000000000404660 <_ZN6google4base21CheckOpMessageBuilder7ForVar2Ev@plt>:
  404660:	ff 25 da d9 20 00    	jmpq   *0x20d9da(%rip)        # 612040 <_GLOBAL_OFFSET_TABLE_+0x40>
  404666:	68 05 00 00 00       	pushq  $0x5
  40466b:	e9 90 ff ff ff       	jmpq   404600 <_init+0x28>

0000000000404670 <memcpy@plt>:
  404670:	ff 25 d2 d9 20 00    	jmpq   *0x20d9d2(%rip)        # 612048 <_GLOBAL_OFFSET_TABLE_+0x48>
  404676:	68 06 00 00 00       	pushq  $0x6
  40467b:	e9 80 ff ff ff       	jmpq   404600 <_init+0x28>

0000000000404680 <_ZSt17__throw_bad_allocv@plt>:
  404680:	ff 25 ca d9 20 00    	jmpq   *0x20d9ca(%rip)        # 612050 <_GLOBAL_OFFSET_TABLE_+0x50>
  404686:	68 07 00 00 00       	pushq  $0x7
  40468b:	e9 70 ff ff ff       	jmpq   404600 <_init+0x28>

0000000000404690 <_ZN6google4base21CheckOpMessageBuilderC1EPKc@plt>:
  404690:	ff 25 c2 d9 20 00    	jmpq   *0x20d9c2(%rip)        # 612058 <_GLOBAL_OFFSET_TABLE_+0x58>
  404696:	68 08 00 00 00       	pushq  $0x8
  40469b:	e9 60 ff ff ff       	jmpq   404600 <_init+0x28>

00000000004046a0 <_ZN5caffe16PoolingParameterC1Ev@plt>:
  4046a0:	ff 25 ba d9 20 00    	jmpq   *0x20d9ba(%rip)        # 612060 <_GLOBAL_OFFSET_TABLE_+0x60>
  4046a6:	68 09 00 00 00       	pushq  $0x9
  4046ab:	e9 50 ff ff ff       	jmpq   404600 <_init+0x28>

00000000004046b0 <_Znwm@plt>:
  4046b0:	ff 25 b2 d9 20 00    	jmpq   *0x20d9b2(%rip)        # 612068 <_GLOBAL_OFFSET_TABLE_+0x68>
  4046b6:	68 0a 00 00 00       	pushq  $0xa
  4046bb:	e9 40 ff ff ff       	jmpq   404600 <_init+0x28>

00000000004046c0 <memmove@plt>:
  4046c0:	ff 25 aa d9 20 00    	jmpq   *0x20d9aa(%rip)        # 612070 <_GLOBAL_OFFSET_TABLE_+0x70>
  4046c6:	68 0b 00 00 00       	pushq  $0xb
  4046cb:	e9 30 ff ff ff       	jmpq   404600 <_init+0x28>

00000000004046d0 <__assert_fail@plt>:
  4046d0:	ff 25 a2 d9 20 00    	jmpq   *0x20d9a2(%rip)        # 612078 <_GLOBAL_OFFSET_TABLE_+0x78>
  4046d6:	68 0c 00 00 00       	pushq  $0xc
  4046db:	e9 20 ff ff ff       	jmpq   404600 <_init+0x28>

00000000004046e0 <_ZN5caffe14LayerParameter8CopyFromERKS0_@plt>:
  4046e0:	ff 25 9a d9 20 00    	jmpq   *0x20d99a(%rip)        # 612080 <_GLOBAL_OFFSET_TABLE_+0x80>
  4046e6:	68 0d 00 00 00       	pushq  $0xd
  4046eb:	e9 10 ff ff ff       	jmpq   404600 <_init+0x28>

00000000004046f0 <_ZN5caffe12PoolingLayerIfE12Backward_gpuERKSt6vectorIPNS_4BlobIfEESaIS5_EERKS2_IbSaIbEES9_@plt>:
  4046f0:	ff 25 92 d9 20 00    	jmpq   *0x20d992(%rip)        # 612088 <_GLOBAL_OFFSET_TABLE_+0x88>
  4046f6:	68 0e 00 00 00       	pushq  $0xe
  4046fb:	e9 00 ff ff ff       	jmpq   404600 <_init+0x28>

0000000000404700 <_ZN5caffe4BlobIfE16mutable_cpu_dataEv@plt>:
  404700:	ff 25 8a d9 20 00    	jmpq   *0x20d98a(%rip)        # 612090 <_GLOBAL_OFFSET_TABLE_+0x90>
  404706:	68 0f 00 00 00       	pushq  $0xf
  40470b:	e9 f0 fe ff ff       	jmpq   404600 <_init+0x28>

0000000000404710 <_ZN5caffe4BlobIfE16mutable_cpu_diffEv@plt>:
  404710:	ff 25 82 d9 20 00    	jmpq   *0x20d982(%rip)        # 612098 <_GLOBAL_OFFSET_TABLE_+0x98>
  404716:	68 10 00 00 00       	pushq  $0x10
  40471b:	e9 e0 fe ff ff       	jmpq   404600 <_init+0x28>

0000000000404720 <__stack_chk_fail@plt>:
  404720:	ff 25 7a d9 20 00    	jmpq   *0x20d97a(%rip)        # 6120a0 <_GLOBAL_OFFSET_TABLE_+0xa0>
  404726:	68 11 00 00 00       	pushq  $0x11
  40472b:	e9 d0 fe ff ff       	jmpq   404600 <_init+0x28>

0000000000404730 <_ZStlsIcSt11char_traitsIcESaIcEERSt13basic_ostreamIT_T0_ES7_RKNSt7__cxx1112basic_stringIS4_S5_T1_EE@plt>:
  404730:	ff 25 72 d9 20 00    	jmpq   *0x20d972(%rip)        # 6120a8 <_GLOBAL_OFFSET_TABLE_+0xa8>
  404736:	68 12 00 00 00       	pushq  $0x12
  40473b:	e9 c0 fe ff ff       	jmpq   404600 <_init+0x28>

0000000000404740 <_ZN6google4base21CheckOpMessageBuilderD1Ev@plt>:
  404740:	ff 25 6a d9 20 00    	jmpq   *0x20d96a(%rip)        # 6120b0 <_GLOBAL_OFFSET_TABLE_+0xb0>
  404746:	68 13 00 00 00       	pushq  $0x13
  40474b:	e9 b0 fe ff ff       	jmpq   404600 <_init+0x28>

0000000000404750 <_ZNSolsEi@plt>:
  404750:	ff 25 62 d9 20 00    	jmpq   *0x20d962(%rip)        # 6120b8 <_GLOBAL_OFFSET_TABLE_+0xb8>
  404756:	68 14 00 00 00       	pushq  $0x14
  40475b:	e9 a0 fe ff ff       	jmpq   404600 <_init+0x28>

0000000000404760 <_ZN6google8protobuf5Arena11AddListNodeEPvPFvS2_E@plt>:
  404760:	ff 25 5a d9 20 00    	jmpq   *0x20d95a(%rip)        # 6120c0 <_GLOBAL_OFFSET_TABLE_+0xc0>
  404766:	68 15 00 00 00       	pushq  $0x15
  40476b:	e9 90 fe ff ff       	jmpq   404600 <_init+0x28>

0000000000404770 <atoi@plt>:
  404770:	ff 25 52 d9 20 00    	jmpq   *0x20d952(%rip)        # 6120c8 <_GLOBAL_OFFSET_TABLE_+0xc8>
  404776:	68 16 00 00 00       	pushq  $0x16
  40477b:	e9 80 fe ff ff       	jmpq   404600 <_init+0x28>

0000000000404780 <_ZdaPv@plt>:
  404780:	ff 25 4a d9 20 00    	jmpq   *0x20d94a(%rip)        # 6120d0 <_GLOBAL_OFFSET_TABLE_+0xd0>
  404786:	68 17 00 00 00       	pushq  $0x17
  40478b:	e9 70 fe ff ff       	jmpq   404600 <_init+0x28>

0000000000404790 <strlen@plt>:
  404790:	ff 25 42 d9 20 00    	jmpq   *0x20d942(%rip)        # 6120d8 <_GLOBAL_OFFSET_TABLE_+0xd8>
  404796:	68 18 00 00 00       	pushq  $0x18
  40479b:	e9 60 fe ff ff       	jmpq   404600 <_init+0x28>

00000000004047a0 <_ZN5caffe12PoolingLayerIfE12Backward_cpuERKSt6vectorIPNS_4BlobIfEESaIS5_EERKS2_IbSaIbEES9_@plt>:
  4047a0:	ff 25 3a d9 20 00    	jmpq   *0x20d93a(%rip)        # 6120e0 <_GLOBAL_OFFSET_TABLE_+0xe0>
  4047a6:	68 19 00 00 00       	pushq  $0x19
  4047ab:	e9 50 fe ff ff       	jmpq   404600 <_init+0x28>

00000000004047b0 <_Znam@plt>:
  4047b0:	ff 25 32 d9 20 00    	jmpq   *0x20d932(%rip)        # 6120e8 <_GLOBAL_OFFSET_TABLE_+0xe8>
  4047b6:	68 1a 00 00 00       	pushq  $0x1a
  4047bb:	e9 40 fe ff ff       	jmpq   404600 <_init+0x28>

00000000004047c0 <xopenme_add_var_i@plt>:
  4047c0:	ff 25 2a d9 20 00    	jmpq   *0x20d92a(%rip)        # 6120f0 <_GLOBAL_OFFSET_TABLE_+0xf0>
  4047c6:	68 1b 00 00 00       	pushq  $0x1b
  4047cb:	e9 30 fe ff ff       	jmpq   404600 <_init+0x28>

00000000004047d0 <xopenme_get_timer@plt>:
  4047d0:	ff 25 22 d9 20 00    	jmpq   *0x20d922(%rip)        # 6120f8 <_GLOBAL_OFFSET_TABLE_+0xf8>
  4047d6:	68 1c 00 00 00       	pushq  $0x1c
  4047db:	e9 20 fe ff ff       	jmpq   404600 <_init+0x28>

00000000004047e0 <_ZN5caffe12PoolingLayerIfE7ReshapeERKSt6vectorIPNS_4BlobIfEESaIS5_EES9_@plt>:
  4047e0:	ff 25 1a d9 20 00    	jmpq   *0x20d91a(%rip)        # 612100 <_GLOBAL_OFFSET_TABLE_+0x100>
  4047e6:	68 1d 00 00 00       	pushq  $0x1d
  4047eb:	e9 10 fe ff ff       	jmpq   404600 <_init+0x28>

00000000004047f0 <xopenme_clock_end@plt>:
  4047f0:	ff 25 12 d9 20 00    	jmpq   *0x20d912(%rip)        # 612108 <_GLOBAL_OFFSET_TABLE_+0x108>
  4047f6:	68 1e 00 00 00       	pushq  $0x1e
  4047fb:	e9 00 fe ff ff       	jmpq   404600 <_init+0x28>

0000000000404800 <_ZdlPv@plt>:
  404800:	ff 25 0a d9 20 00    	jmpq   *0x20d90a(%rip)        # 612110 <_GLOBAL_OFFSET_TABLE_+0x110>
  404806:	68 1f 00 00 00       	pushq  $0x1f
  40480b:	e9 f0 fd ff ff       	jmpq   404600 <_init+0x28>

0000000000404810 <_ZStlsISt11char_traitsIcEERSt13basic_ostreamIcT_ES5_PKc@plt>:
  404810:	ff 25 02 d9 20 00    	jmpq   *0x20d902(%rip)        # 612118 <_GLOBAL_OFFSET_TABLE_+0x118>
  404816:	68 20 00 00 00       	pushq  $0x20
  40481b:	e9 e0 fd ff ff       	jmpq   404600 <_init+0x28>

0000000000404820 <xopenme_clock_start@plt>:
  404820:	ff 25 fa d8 20 00    	jmpq   *0x20d8fa(%rip)        # 612120 <_GLOBAL_OFFSET_TABLE_+0x120>
  404826:	68 21 00 00 00       	pushq  $0x21
  40482b:	e9 d0 fd ff ff       	jmpq   404600 <_init+0x28>

0000000000404830 <_ZN6google8protobuf8internal10LogMessageC1ENS0_8LogLevelEPKci@plt>:
  404830:	ff 25 f2 d8 20 00    	jmpq   *0x20d8f2(%rip)        # 612128 <_GLOBAL_OFFSET_TABLE_+0x128>
  404836:	68 22 00 00 00       	pushq  $0x22
  40483b:	e9 c0 fd ff ff       	jmpq   404600 <_init+0x28>

0000000000404840 <__gxx_personality_v0@plt>:
  404840:	ff 25 ea d8 20 00    	jmpq   *0x20d8ea(%rip)        # 612130 <_GLOBAL_OFFSET_TABLE_+0x130>
  404846:	68 23 00 00 00       	pushq  $0x23
  40484b:	e9 b0 fd ff ff       	jmpq   404600 <_init+0x28>

0000000000404850 <_ZSt20__throw_length_errorPKc@plt>:
  404850:	ff 25 e2 d8 20 00    	jmpq   *0x20d8e2(%rip)        # 612138 <_GLOBAL_OFFSET_TABLE_+0x138>
  404856:	68 24 00 00 00       	pushq  $0x24
  40485b:	e9 a0 fd ff ff       	jmpq   404600 <_init+0x28>

0000000000404860 <_ZN5caffe12PoolingLayerIfE11Forward_gpuERKSt6vectorIPNS_4BlobIfEESaIS5_EES9_@plt>:
  404860:	ff 25 da d8 20 00    	jmpq   *0x20d8da(%rip)        # 612140 <_GLOBAL_OFFSET_TABLE_+0x140>
  404866:	68 25 00 00 00       	pushq  $0x25
  40486b:	e9 90 fd ff ff       	jmpq   404600 <_init+0x28>

0000000000404870 <_ZNK5caffe4BlobIfE8cpu_dataEv@plt>:
  404870:	ff 25 d2 d8 20 00    	jmpq   *0x20d8d2(%rip)        # 612148 <_GLOBAL_OFFSET_TABLE_+0x148>
  404876:	68 26 00 00 00       	pushq  $0x26
  40487b:	e9 80 fd ff ff       	jmpq   404600 <_init+0x28>

0000000000404880 <_ZN6google15LogMessageFatalC1EPKciRKNS_13CheckOpStringE@plt>:
  404880:	ff 25 ca d8 20 00    	jmpq   *0x20d8ca(%rip)        # 612150 <_GLOBAL_OFFSET_TABLE_+0x150>
  404886:	68 27 00 00 00       	pushq  $0x27
  40488b:	e9 70 fd ff ff       	jmpq   404600 <_init+0x28>

0000000000404890 <_Unwind_Resume@plt>:
  404890:	ff 25 c2 d8 20 00    	jmpq   *0x20d8c2(%rip)        # 612158 <_GLOBAL_OFFSET_TABLE_+0x158>
  404896:	68 28 00 00 00       	pushq  $0x28
  40489b:	e9 60 fd ff ff       	jmpq   404600 <_init+0x28>

00000000004048a0 <_ZNSt8ios_base4InitD1Ev@plt>:
  4048a0:	ff 25 ba d8 20 00    	jmpq   *0x20d8ba(%rip)        # 612160 <_GLOBAL_OFFSET_TABLE_+0x160>
  4048a6:	68 29 00 00 00       	pushq  $0x29
  4048ab:	e9 50 fd ff ff       	jmpq   404600 <_init+0x28>

00000000004048b0 <_ZN5caffe9BlobProtoC1Ev@plt>:
  4048b0:	ff 25 b2 d8 20 00    	jmpq   *0x20d8b2(%rip)        # 612168 <_GLOBAL_OFFSET_TABLE_+0x168>
  4048b6:	68 2a 00 00 00       	pushq  $0x2a
  4048bb:	e9 40 fd ff ff       	jmpq   404600 <_init+0x28>

00000000004048c0 <_ZN5caffe12PoolingLayerIfE10LayerSetUpERKSt6vectorIPNS_4BlobIfEESaIS5_EES9_@plt>:
  4048c0:	ff 25 aa d8 20 00    	jmpq   *0x20d8aa(%rip)        # 612170 <_GLOBAL_OFFSET_TABLE_+0x170>
  4048c6:	68 2b 00 00 00       	pushq  $0x2b
  4048cb:	e9 30 fd ff ff       	jmpq   404600 <_init+0x28>

00000000004048d0 <_ZNK5caffe4BlobIfE8cpu_diffEv@plt>:
  4048d0:	ff 25 a2 d8 20 00    	jmpq   *0x20d8a2(%rip)        # 612178 <_GLOBAL_OFFSET_TABLE_+0x178>
  4048d6:	68 2c 00 00 00       	pushq  $0x2c
  4048db:	e9 20 fd ff ff       	jmpq   404600 <_init+0x28>

00000000004048e0 <_ZN5caffe9caffe_setIfEEviT_PS1_@plt>:
  4048e0:	ff 25 9a d8 20 00    	jmpq   *0x20d89a(%rip)        # 612180 <_GLOBAL_OFFSET_TABLE_+0x180>
  4048e6:	68 2d 00 00 00       	pushq  $0x2d
  4048eb:	e9 10 fd ff ff       	jmpq   404600 <_init+0x28>

00000000004048f0 <getenv@plt>:
  4048f0:	ff 25 92 d8 20 00    	jmpq   *0x20d892(%rip)        # 612188 <_GLOBAL_OFFSET_TABLE_+0x188>
  4048f6:	68 2e 00 00 00       	pushq  $0x2e
  4048fb:	e9 00 fd ff ff       	jmpq   404600 <_init+0x28>

0000000000404900 <_ZNSt7__cxx1112basic_stringIcSt11char_traitsIcESaIcEED1Ev@plt>:
  404900:	ff 25 8a d8 20 00    	jmpq   *0x20d88a(%rip)        # 612190 <_GLOBAL_OFFSET_TABLE_+0x190>
  404906:	68 2f 00 00 00       	pushq  $0x2f
  40490b:	e9 f0 fc ff ff       	jmpq   404600 <_init+0x28>

0000000000404910 <__cxa_end_catch@plt>:
  404910:	ff 25 82 d8 20 00    	jmpq   *0x20d882(%rip)        # 612198 <_GLOBAL_OFFSET_TABLE_+0x198>
  404916:	68 30 00 00 00       	pushq  $0x30
  40491b:	e9 e0 fc ff ff       	jmpq   404600 <_init+0x28>

0000000000404920 <_ZN6google8protobuf5Arena15AllocateAlignedEPKSt9type_infom@plt>:
  404920:	ff 25 7a d8 20 00    	jmpq   *0x20d87a(%rip)        # 6121a0 <_GLOBAL_OFFSET_TABLE_+0x1a0>
  404926:	68 31 00 00 00       	pushq  $0x31
  40492b:	e9 d0 fc ff ff       	jmpq   404600 <_init+0x28>

0000000000404930 <_ZN6google8protobuf8internal11LogFinisheraSERNS1_10LogMessageE@plt>:
  404930:	ff 25 72 d8 20 00    	jmpq   *0x20d872(%rip)        # 6121a8 <_GLOBAL_OFFSET_TABLE_+0x1a8>
  404936:	68 32 00 00 00       	pushq  $0x32
  40493b:	e9 c0 fc ff ff       	jmpq   404600 <_init+0x28>

0000000000404940 <__cxa_rethrow@plt>:
  404940:	ff 25 6a d8 20 00    	jmpq   *0x20d86a(%rip)        # 6121b0 <_GLOBAL_OFFSET_TABLE_+0x1b0>
  404946:	68 33 00 00 00       	pushq  $0x33
  40494b:	e9 b0 fc ff ff       	jmpq   404600 <_init+0x28>

0000000000404950 <__cxa_throw_bad_array_new_length@plt>:
  404950:	ff 25 62 d8 20 00    	jmpq   *0x20d862(%rip)        # 6121b8 <_GLOBAL_OFFSET_TABLE_+0x1b8>
  404956:	68 34 00 00 00       	pushq  $0x34
  40495b:	e9 a0 fc ff ff       	jmpq   404600 <_init+0x28>

0000000000404960 <_ZN5caffe5Caffe3GetEv@plt>:
  404960:	ff 25 5a d8 20 00    	jmpq   *0x20d85a(%rip)        # 6121c0 <_GLOBAL_OFFSET_TABLE_+0x1c0>
  404966:	68 35 00 00 00       	pushq  $0x35
  40496b:	e9 90 fc ff ff       	jmpq   404600 <_init+0x28>

0000000000404970 <_ZN5caffe12SyncedMemory8cpu_dataEv@plt>:
  404970:	ff 25 52 d8 20 00    	jmpq   *0x20d852(%rip)        # 6121c8 <_GLOBAL_OFFSET_TABLE_+0x1c8>
  404976:	68 36 00 00 00       	pushq  $0x36
  40497b:	e9 80 fc ff ff       	jmpq   404600 <_init+0x28>

0000000000404980 <__cxa_atexit@plt>:
  404980:	ff 25 4a d8 20 00    	jmpq   *0x20d84a(%rip)        # 6121d0 <_GLOBAL_OFFSET_TABLE_+0x1d0>
  404986:	68 37 00 00 00       	pushq  $0x37
  40498b:	e9 70 fc ff ff       	jmpq   404600 <_init+0x28>

0000000000404990 <_ZN6google15LogMessageFatalD1Ev@plt>:
  404990:	ff 25 42 d8 20 00    	jmpq   *0x20d842(%rip)        # 6121d8 <_GLOBAL_OFFSET_TABLE_+0x1d8>
  404996:	68 38 00 00 00       	pushq  $0x38
  40499b:	e9 60 fc ff ff       	jmpq   404600 <_init+0x28>

00000000004049a0 <_ZNSt7__cxx1119basic_ostringstreamIcSt11char_traitsIcESaIcEED1Ev@plt>:
  4049a0:	ff 25 3a d8 20 00    	jmpq   *0x20d83a(%rip)        # 6121e0 <_GLOBAL_OFFSET_TABLE_+0x1e0>
  4049a6:	68 39 00 00 00       	pushq  $0x39
  4049ab:	e9 50 fc ff ff       	jmpq   404600 <_init+0x28>

00000000004049b0 <_ZN6google8protobuf8internal10LogMessageD1Ev@plt>:
  4049b0:	ff 25 32 d8 20 00    	jmpq   *0x20d832(%rip)        # 6121e8 <_GLOBAL_OFFSET_TABLE_+0x1e8>
  4049b6:	68 3a 00 00 00       	pushq  $0x3a
  4049bb:	e9 40 fc ff ff       	jmpq   404600 <_init+0x28>

00000000004049c0 <__cxa_pure_virtual@plt>:
  4049c0:	ff 25 2a d8 20 00    	jmpq   *0x20d82a(%rip)        # 6121f0 <_GLOBAL_OFFSET_TABLE_+0x1f0>
  4049c6:	68 3b 00 00 00       	pushq  $0x3b
  4049cb:	e9 30 fc ff ff       	jmpq   404600 <_init+0x28>

00000000004049d0 <_ZN6google4base21CheckOpMessageBuilder9NewStringB5cxx11Ev@plt>:
  4049d0:	ff 25 22 d8 20 00    	jmpq   *0x20d822(%rip)        # 6121f8 <_GLOBAL_OFFSET_TABLE_+0x1f8>
  4049d6:	68 3c 00 00 00       	pushq  $0x3c
  4049db:	e9 20 fc ff ff       	jmpq   404600 <_init+0x28>

00000000004049e0 <__libc_start_main@plt>:
  4049e0:	ff 25 1a d8 20 00    	jmpq   *0x20d81a(%rip)        # 612200 <_GLOBAL_OFFSET_TABLE_+0x200>
  4049e6:	68 3d 00 00 00       	pushq  $0x3d
  4049eb:	e9 10 fc ff ff       	jmpq   404600 <_init+0x28>

00000000004049f0 <rand@plt>:
  4049f0:	ff 25 12 d8 20 00    	jmpq   *0x20d812(%rip)        # 612208 <_GLOBAL_OFFSET_TABLE_+0x208>
  4049f6:	68 3e 00 00 00       	pushq  $0x3e
  4049fb:	e9 00 fc ff ff       	jmpq   404600 <_init+0x28>

0000000000404a00 <_ZN5caffe4BlobIfEC1Eiiii@plt>:
  404a00:	ff 25 0a d8 20 00    	jmpq   *0x20d80a(%rip)        # 612210 <_GLOBAL_OFFSET_TABLE_+0x210>
  404a06:	68 3f 00 00 00       	pushq  $0x3f
  404a0b:	e9 f0 fb ff ff       	jmpq   404600 <_init+0x28>

0000000000404a10 <_ZNSt8ios_base4InitC1Ev@plt>:
  404a10:	ff 25 02 d8 20 00    	jmpq   *0x20d802(%rip)        # 612218 <_GLOBAL_OFFSET_TABLE_+0x218>
  404a16:	68 40 00 00 00       	pushq  $0x40
  404a1b:	e9 e0 fb ff ff       	jmpq   404600 <_init+0x28>

0000000000404a20 <_ZN5caffe12PoolingLayerIfE11Forward_cpuERKSt6vectorIPNS_4BlobIfEESaIS5_EES9_@plt>:
  404a20:	ff 25 fa d7 20 00    	jmpq   *0x20d7fa(%rip)        # 612220 <_GLOBAL_OFFSET_TABLE_+0x220>
  404a26:	68 41 00 00 00       	pushq  $0x41
  404a2b:	e9 d0 fb ff ff       	jmpq   404600 <_init+0x28>

0000000000404a30 <_ZN6google10LogMessage6streamEv@plt>:
  404a30:	ff 25 f2 d7 20 00    	jmpq   *0x20d7f2(%rip)        # 612228 <_GLOBAL_OFFSET_TABLE_+0x228>
  404a36:	68 42 00 00 00       	pushq  $0x42
  404a3b:	e9 c0 fb ff ff       	jmpq   404600 <_init+0x28>

0000000000404a40 <puts@plt>:
  404a40:	ff 25 ea d7 20 00    	jmpq   *0x20d7ea(%rip)        # 612230 <_GLOBAL_OFFSET_TABLE_+0x230>
  404a46:	68 43 00 00 00       	pushq  $0x43
  404a4b:	e9 b0 fb ff ff       	jmpq   404600 <_init+0x28>

0000000000404a50 <sprintf@plt>:
  404a50:	ff 25 e2 d7 20 00    	jmpq   *0x20d7e2(%rip)        # 612238 <_GLOBAL_OFFSET_TABLE_+0x238>
  404a56:	68 44 00 00 00       	pushq  $0x44
  404a5b:	e9 a0 fb ff ff       	jmpq   404600 <_init+0x28>

0000000000404a60 <_ZNSolsEm@plt>:
  404a60:	ff 25 da d7 20 00    	jmpq   *0x20d7da(%rip)        # 612240 <_GLOBAL_OFFSET_TABLE_+0x240>
  404a66:	68 45 00 00 00       	pushq  $0x45
  404a6b:	e9 90 fb ff ff       	jmpq   404600 <_init+0x28>

0000000000404a70 <_ZNK5caffe4BlobIfE7ToProtoEPNS_9BlobProtoEb@plt>:
  404a70:	ff 25 d2 d7 20 00    	jmpq   *0x20d7d2(%rip)        # 612248 <_GLOBAL_OFFSET_TABLE_+0x248>
  404a76:	68 46 00 00 00       	pushq  $0x46
  404a7b:	e9 80 fb ff ff       	jmpq   404600 <_init+0x28>

0000000000404a80 <putchar@plt>:
  404a80:	ff 25 ca d7 20 00    	jmpq   *0x20d7ca(%rip)        # 612250 <_GLOBAL_OFFSET_TABLE_+0x250>
  404a86:	68 47 00 00 00       	pushq  $0x47
  404a8b:	e9 70 fb ff ff       	jmpq   404600 <_init+0x28>

0000000000404a90 <_ZNSt7__cxx1119basic_ostringstreamIcSt11char_traitsIcESaIcEEC1ESt13_Ios_Openmode@plt>:
  404a90:	ff 25 c2 d7 20 00    	jmpq   *0x20d7c2(%rip)        # 612258 <_GLOBAL_OFFSET_TABLE_+0x258>
  404a96:	68 48 00 00 00       	pushq  $0x48
  404a9b:	e9 60 fb ff ff       	jmpq   404600 <_init+0x28>

0000000000404aa0 <_ZN5caffe14LayerParameterC1ERKS0_@plt>:
  404aa0:	ff 25 ba d7 20 00    	jmpq   *0x20d7ba(%rip)        # 612260 <_GLOBAL_OFFSET_TABLE_+0x260>
  404aa6:	68 49 00 00 00       	pushq  $0x49
  404aab:	e9 50 fb ff ff       	jmpq   404600 <_init+0x28>

0000000000404ab0 <xopenme_dump_state@plt>:
  404ab0:	ff 25 b2 d7 20 00    	jmpq   *0x20d7b2(%rip)        # 612268 <_GLOBAL_OFFSET_TABLE_+0x268>
  404ab6:	68 4a 00 00 00       	pushq  $0x4a
  404abb:	e9 40 fb ff ff       	jmpq   404600 <_init+0x28>

0000000000404ac0 <_ZN5caffe13caffe_cpu_dotIfEET_iPKS1_S3_@plt>:
  404ac0:	ff 25 aa d7 20 00    	jmpq   *0x20d7aa(%rip)        # 612270 <_GLOBAL_OFFSET_TABLE_+0x270>
  404ac6:	68 4b 00 00 00       	pushq  $0x4b
  404acb:	e9 30 fb ff ff       	jmpq   404600 <_init+0x28>

0000000000404ad0 <_ZNKSt7__cxx1119basic_ostringstreamIcSt11char_traitsIcESaIcEE3strEv@plt>:
  404ad0:	ff 25 a2 d7 20 00    	jmpq   *0x20d7a2(%rip)        # 612278 <_GLOBAL_OFFSET_TABLE_+0x278>
  404ad6:	68 4c 00 00 00       	pushq  $0x4c
  404adb:	e9 20 fb ff ff       	jmpq   404600 <_init+0x28>

0000000000404ae0 <srand@plt>:
  404ae0:	ff 25 9a d7 20 00    	jmpq   *0x20d79a(%rip)        # 612280 <_GLOBAL_OFFSET_TABLE_+0x280>
  404ae6:	68 4d 00 00 00       	pushq  $0x4d
  404aeb:	e9 10 fb ff ff       	jmpq   404600 <_init+0x28>

0000000000404af0 <_ZN6google8protobuf8internal20RepeatedPtrFieldBase7ReserveEi@plt>:
  404af0:	ff 25 92 d7 20 00    	jmpq   *0x20d792(%rip)        # 612288 <_GLOBAL_OFFSET_TABLE_+0x288>
  404af6:	68 4e 00 00 00       	pushq  $0x4e
  404afb:	e9 00 fb ff ff       	jmpq   404600 <_init+0x28>

0000000000404b00 <xopenme_finish@plt>:
  404b00:	ff 25 8a d7 20 00    	jmpq   *0x20d78a(%rip)        # 612290 <_GLOBAL_OFFSET_TABLE_+0x290>
  404b06:	68 4f 00 00 00       	pushq  $0x4f
  404b0b:	e9 f0 fa ff ff       	jmpq   404600 <_init+0x28>

0000000000404b10 <xopenme_dump_memory@plt>:
  404b10:	ff 25 82 d7 20 00    	jmpq   *0x20d782(%rip)        # 612298 <_GLOBAL_OFFSET_TABLE_+0x298>
  404b16:	68 50 00 00 00       	pushq  $0x50
  404b1b:	e9 e0 fa ff ff       	jmpq   404600 <_init+0x28>

0000000000404b20 <_ZN6google15LogMessageFatalC1EPKci@plt>:
  404b20:	ff 25 7a d7 20 00    	jmpq   *0x20d77a(%rip)        # 6122a0 <_GLOBAL_OFFSET_TABLE_+0x2a0>
  404b26:	68 51 00 00 00       	pushq  $0x51
  404b2b:	e9 d0 fa ff ff       	jmpq   404600 <_init+0x28>

0000000000404b30 <_ZN5caffe14LayerParameterD1Ev@plt>:
  404b30:	ff 25 72 d7 20 00    	jmpq   *0x20d772(%rip)        # 6122a8 <_GLOBAL_OFFSET_TABLE_+0x2a8>
  404b36:	68 52 00 00 00       	pushq  $0x52
  404b3b:	e9 c0 fa ff ff       	jmpq   404600 <_init+0x28>

0000000000404b40 <_ZN6google8protobuf8internal10LogMessagelsEPKc@plt>:
  404b40:	ff 25 6a d7 20 00    	jmpq   *0x20d76a(%rip)        # 6122b0 <_GLOBAL_OFFSET_TABLE_+0x2b0>
  404b46:	68 53 00 00 00       	pushq  $0x53
  404b4b:	e9 b0 fa ff ff       	jmpq   404600 <_init+0x28>

0000000000404b50 <_ZN5caffe4BlobIfE9FromProtoERKNS_9BlobProtoEb@plt>:
  404b50:	ff 25 62 d7 20 00    	jmpq   *0x20d762(%rip)        # 6122b8 <_GLOBAL_OFFSET_TABLE_+0x2b8>
  404b56:	68 54 00 00 00       	pushq  $0x54
  404b5b:	e9 a0 fa ff ff       	jmpq   404600 <_init+0x28>

0000000000404b60 <_ZN5caffe35PoolingParameter_PoolMethod_IsValidEi@plt>:
  404b60:	ff 25 5a d7 20 00    	jmpq   *0x20d75a(%rip)        # 6122c0 <_GLOBAL_OFFSET_TABLE_+0x2c0>
  404b66:	68 55 00 00 00       	pushq  $0x55
  404b6b:	e9 90 fa ff ff       	jmpq   404600 <_init+0x28>

Disassembly of section .plt.got:

0000000000404b70 <.plt.got>:
  404b70:	ff 25 82 d4 20 00    	jmpq   *0x20d482(%rip)        # 611ff8 <_DYNAMIC+0x220>
  404b76:	66 90                	xchg   %ax,%ax

Disassembly of section .text:

0000000000404b80 <_start>:
  404b80:	31 ed                	xor    %ebp,%ebp
  404b82:	49 89 d1             	mov    %rdx,%r9
  404b85:	5e                   	pop    %rsi
  404b86:	48 89 e2             	mov    %rsp,%rdx
  404b89:	48 83 e4 f0          	and    $0xfffffffffffffff0,%rsp
  404b8d:	50                   	push   %rax
  404b8e:	54                   	push   %rsp
  404b8f:	49 c7 c0 40 c2 40 00 	mov    $0x40c240,%r8
  404b96:	48 c7 c1 d0 c1 40 00 	mov    $0x40c1d0,%rcx
  404b9d:	48 c7 c7 ca 4c 40 00 	mov    $0x404cca,%rdi
  404ba4:	e8 37 fe ff ff       	callq  4049e0 <__libc_start_main@plt>
  404ba9:	f4                   	hlt    
  404baa:	66 0f 1f 44 00 00    	nopw   0x0(%rax,%rax,1)

0000000000404bb0 <deregister_tm_clones>:
  404bb0:	b8 df 22 61 00       	mov    $0x6122df,%eax
  404bb5:	55                   	push   %rbp
  404bb6:	48 2d d8 22 61 00    	sub    $0x6122d8,%rax
  404bbc:	48 83 f8 0e          	cmp    $0xe,%rax
  404bc0:	48 89 e5             	mov    %rsp,%rbp
  404bc3:	76 1b                	jbe    404be0 <deregister_tm_clones+0x30>
  404bc5:	b8 00 00 00 00       	mov    $0x0,%eax
  404bca:	48 85 c0             	test   %rax,%rax
  404bcd:	74 11                	je     404be0 <deregister_tm_clones+0x30>
  404bcf:	5d                   	pop    %rbp
  404bd0:	bf d8 22 61 00       	mov    $0x6122d8,%edi
  404bd5:	ff e0                	jmpq   *%rax
  404bd7:	66 0f 1f 84 00 00 00 	nopw   0x0(%rax,%rax,1)
  404bde:	00 00 
  404be0:	5d                   	pop    %rbp
  404be1:	c3                   	retq   
  404be2:	0f 1f 40 00          	nopl   0x0(%rax)
  404be6:	66 2e 0f 1f 84 00 00 	nopw   %cs:0x0(%rax,%rax,1)
  404bed:	00 00 00 

0000000000404bf0 <register_tm_clones>:
  404bf0:	be d8 22 61 00       	mov    $0x6122d8,%esi
  404bf5:	55                   	push   %rbp
  404bf6:	48 81 ee d8 22 61 00 	sub    $0x6122d8,%rsi
  404bfd:	48 c1 fe 03          	sar    $0x3,%rsi
  404c01:	48 89 e5             	mov    %rsp,%rbp
  404c04:	48 89 f0             	mov    %rsi,%rax
  404c07:	48 c1 e8 3f          	shr    $0x3f,%rax
  404c0b:	48 01 c6             	add    %rax,%rsi
  404c0e:	48 d1 fe             	sar    %rsi
  404c11:	74 15                	je     404c28 <register_tm_clones+0x38>
  404c13:	b8 00 00 00 00       	mov    $0x0,%eax
  404c18:	48 85 c0             	test   %rax,%rax
  404c1b:	74 0b                	je     404c28 <register_tm_clones+0x38>
  404c1d:	5d                   	pop    %rbp
  404c1e:	bf d8 22 61 00       	mov    $0x6122d8,%edi
  404c23:	ff e0                	jmpq   *%rax
  404c25:	0f 1f 00             	nopl   (%rax)
  404c28:	5d                   	pop    %rbp
  404c29:	c3                   	retq   
  404c2a:	66 0f 1f 44 00 00    	nopw   0x0(%rax,%rax,1)

0000000000404c30 <__do_global_dtors_aux>:
  404c30:	80 3d c9 d7 20 00 00 	cmpb   $0x0,0x20d7c9(%rip)        # 612400 <completed.7583>
  404c37:	75 11                	jne    404c4a <__do_global_dtors_aux+0x1a>
  404c39:	55                   	push   %rbp
  404c3a:	48 89 e5             	mov    %rsp,%rbp
  404c3d:	e8 6e ff ff ff       	callq  404bb0 <deregister_tm_clones>
  404c42:	5d                   	pop    %rbp
  404c43:	c6 05 b6 d7 20 00 01 	movb   $0x1,0x20d7b6(%rip)        # 612400 <completed.7583>
  404c4a:	f3 c3                	repz retq 
  404c4c:	0f 1f 40 00          	nopl   0x0(%rax)

0000000000404c50 <frame_dummy>:
  404c50:	bf d0 1d 61 00       	mov    $0x611dd0,%edi
  404c55:	48 83 3f 00          	cmpq   $0x0,(%rdi)
  404c59:	75 05                	jne    404c60 <frame_dummy+0x10>
  404c5b:	eb 93                	jmp    404bf0 <register_tm_clones>
  404c5d:	0f 1f 00             	nopl   (%rax)
  404c60:	b8 00 00 00 00       	mov    $0x0,%eax
  404c65:	48 85 c0             	test   %rax,%rax
  404c68:	74 f1                	je     404c5b <frame_dummy+0xb>
  404c6a:	55                   	push   %rbp
  404c6b:	48 89 e5             	mov    %rsp,%rbp
  404c6e:	ff d0                	callq  *%rax
  404c70:	5d                   	pop    %rbp
  404c71:	e9 7a ff ff ff       	jmpq   404bf0 <register_tm_clones>

0000000000404c76 <_ZN2CK16store_setup_timeEf>:
  404c76:	55                   	push   %rbp
  404c77:	48 89 e5             	mov    %rsp,%rbp
  404c7a:	48 83 ec 10          	sub    $0x10,%rsp
  404c7e:	f3 0f 11 45 fc       	movss  %xmm0,-0x4(%rbp)
  404c83:	8b 45 fc             	mov    -0x4(%rbp),%eax
  404c86:	89 45 f8             	mov    %eax,-0x8(%rbp)
  404c89:	f3 0f 10 45 f8       	movss  -0x8(%rbp),%xmm0
  404c8e:	be a8 c5 40 00       	mov    $0x40c5a8,%esi
  404c93:	bf 0a 00 00 00       	mov    $0xa,%edi
  404c98:	e8 21 0a 00 00       	callq  4056be <_ZN2CK13store_value_fEiPKcf>
  404c9d:	90                   	nop
  404c9e:	c9                   	leaveq 
  404c9f:	c3                   	retq   

0000000000404ca0 <_ZN2CK15store_test_timeEf>:
  404ca0:	55                   	push   %rbp
  404ca1:	48 89 e5             	mov    %rsp,%rbp
  404ca4:	48 83 ec 10          	sub    $0x10,%rsp
  404ca8:	f3 0f 11 45 fc       	movss  %xmm0,-0x4(%rbp)
  404cad:	8b 45 fc             	mov    -0x4(%rbp),%eax
  404cb0:	89 45 f8             	mov    %eax,-0x8(%rbp)
  404cb3:	f3 0f 10 45 f8       	movss  -0x8(%rbp),%xmm0
  404cb8:	be b3 c5 40 00       	mov    $0x40c5b3,%esi
  404cbd:	bf 0b 00 00 00       	mov    $0xb,%edi
  404cc2:	e8 f7 09 00 00       	callq  4056be <_ZN2CK13store_value_fEiPKcf>
  404cc7:	90                   	nop
  404cc8:	c9                   	leaveq 
  404cc9:	c3                   	retq   

0000000000404cca <main>:
  404cca:	55                   	push   %rbp
  404ccb:	48 89 e5             	mov    %rsp,%rbp
  404cce:	bf 00 00 00 00       	mov    $0x0,%edi
  404cd3:	e8 a7 03 00 00       	callq  40507f <_ZN5caffe5Caffe8set_modeENS0_4BrewE>
  404cd8:	e8 d8 0c 00 00       	callq  4059b5 <_ZN2CK5Caffe12test_avgpoolEv>
  404cdd:	b8 00 00 00 00       	mov    $0x0,%eax
  404ce2:	5d                   	pop    %rbp
  404ce3:	c3                   	retq   

0000000000404ce4 <_Z41__static_initialization_and_destruction_0ii>:
  404ce4:	55                   	push   %rbp
  404ce5:	48 89 e5             	mov    %rsp,%rbp
  404ce8:	48 83 ec 10          	sub    $0x10,%rsp
  404cec:	89 7d fc             	mov    %edi,-0x4(%rbp)
  404cef:	89 75 f8             	mov    %esi,-0x8(%rbp)
  404cf2:	83 7d fc 01          	cmpl   $0x1,-0x4(%rbp)
  404cf6:	75 27                	jne    404d1f <_Z41__static_initialization_and_destruction_0ii+0x3b>
  404cf8:	81 7d f8 ff ff 00 00 	cmpl   $0xffff,-0x8(%rbp)
  404cff:	75 1e                	jne    404d1f <_Z41__static_initialization_and_destruction_0ii+0x3b>
  404d01:	bf 01 24 61 00       	mov    $0x612401,%edi
  404d06:	e8 05 fd ff ff       	callq  404a10 <_ZNSt8ios_base4InitC1Ev@plt>
  404d0b:	ba d0 22 61 00       	mov    $0x6122d0,%edx
  404d10:	be 01 24 61 00       	mov    $0x612401,%esi
  404d15:	bf a0 48 40 00       	mov    $0x4048a0,%edi
  404d1a:	e8 61 fc ff ff       	callq  404980 <__cxa_atexit@plt>
  404d1f:	90                   	nop
  404d20:	c9                   	leaveq 
  404d21:	c3                   	retq   

0000000000404d22 <_GLOBAL__sub_I__ZN2CK16store_setup_timeEf>:
  404d22:	55                   	push   %rbp
  404d23:	48 89 e5             	mov    %rsp,%rbp
  404d26:	be ff ff 00 00       	mov    $0xffff,%esi
  404d2b:	bf 01 00 00 00       	mov    $0x1,%edi
  404d30:	e8 af ff ff ff       	callq  404ce4 <_Z41__static_initialization_and_destruction_0ii>
  404d35:	5d                   	pop    %rbp
  404d36:	c3                   	retq   

0000000000404d37 <_ZnwmPv>:
  404d37:	55                   	push   %rbp
  404d38:	48 89 e5             	mov    %rsp,%rbp
  404d3b:	48 89 7d f8          	mov    %rdi,-0x8(%rbp)
  404d3f:	48 89 75 f0          	mov    %rsi,-0x10(%rbp)
  404d43:	48 8b 45 f0          	mov    -0x10(%rbp),%rax
  404d47:	5d                   	pop    %rbp
  404d48:	c3                   	retq   

0000000000404d49 <_ZdlPvS_>:
  404d49:	55                   	push   %rbp
  404d4a:	48 89 e5             	mov    %rsp,%rbp
  404d4d:	48 89 7d f8          	mov    %rdi,-0x8(%rbp)
  404d51:	48 89 75 f0          	mov    %rsi,-0x10(%rbp)
  404d55:	90                   	nop
  404d56:	5d                   	pop    %rbp
  404d57:	c3                   	retq   

0000000000404d58 <_ZNSt8iteratorISt26random_access_iterator_tagblPbRbEC1Ev>:
  404d58:	55                   	push   %rbp
  404d59:	48 89 e5             	mov    %rsp,%rbp
  404d5c:	48 89 7d f8          	mov    %rdi,-0x8(%rbp)
  404d60:	90                   	nop
  404d61:	5d                   	pop    %rbp
  404d62:	c3                   	retq   
  404d63:	90                   	nop

0000000000404d64 <_ZNSt18_Bit_iterator_baseC1EPmj>:
  404d64:	55                   	push   %rbp
  404d65:	48 89 e5             	mov    %rsp,%rbp
  404d68:	48 83 ec 20          	sub    $0x20,%rsp
  404d6c:	48 89 7d f8          	mov    %rdi,-0x8(%rbp)
  404d70:	48 89 75 f0          	mov    %rsi,-0x10(%rbp)
  404d74:	89 55 ec             	mov    %edx,-0x14(%rbp)
  404d77:	48 8b 45 f8          	mov    -0x8(%rbp),%rax
  404d7b:	48 89 c7             	mov    %rax,%rdi
  404d7e:	e8 d5 ff ff ff       	callq  404d58 <_ZNSt8iteratorISt26random_access_iterator_tagblPbRbEC1Ev>
  404d83:	48 8b 45 f8          	mov    -0x8(%rbp),%rax
  404d87:	48 8b 55 f0          	mov    -0x10(%rbp),%rdx
  404d8b:	48 89 10             	mov    %rdx,(%rax)
  404d8e:	48 8b 45 f8          	mov    -0x8(%rbp),%rax
  404d92:	8b 55 ec             	mov    -0x14(%rbp),%edx
  404d95:	89 50 08             	mov    %edx,0x8(%rax)
  404d98:	90                   	nop
  404d99:	c9                   	leaveq 
  404d9a:	c3                   	retq   
  404d9b:	90                   	nop

0000000000404d9c <_ZNSt13_Bit_iteratorC1Ev>:
  404d9c:	55                   	push   %rbp
  404d9d:	48 89 e5             	mov    %rsp,%rbp
  404da0:	48 83 ec 10          	sub    $0x10,%rsp
  404da4:	48 89 7d f8          	mov    %rdi,-0x8(%rbp)
  404da8:	48 8b 45 f8          	mov    -0x8(%rbp),%rax
  404dac:	ba 00 00 00 00       	mov    $0x0,%edx
  404db1:	be 00 00 00 00       	mov    $0x0,%esi
  404db6:	48 89 c7             	mov    %rax,%rdi
  404db9:	e8 a6 ff ff ff       	callq  404d64 <_ZNSt18_Bit_iterator_baseC1EPmj>
  404dbe:	90                   	nop
  404dbf:	c9                   	leaveq 
  404dc0:	c3                   	retq   

0000000000404dc1 <_ZN5boost6detail23atomic_exchange_and_addEPii>:
  404dc1:	55                   	push   %rbp
  404dc2:	48 89 e5             	mov    %rsp,%rbp
  404dc5:	48 89 7d e8          	mov    %rdi,-0x18(%rbp)
  404dc9:	89 75 e4             	mov    %esi,-0x1c(%rbp)
  404dcc:	48 8b 55 e8          	mov    -0x18(%rbp),%rdx
  404dd0:	48 8b 4d e8          	mov    -0x18(%rbp),%rcx
  404dd4:	8b 45 e4             	mov    -0x1c(%rbp),%eax
  404dd7:	f0 0f c1 02          	lock xadd %eax,(%rdx)
  404ddb:	89 45 fc             	mov    %eax,-0x4(%rbp)
  404dde:	8b 45 fc             	mov    -0x4(%rbp),%eax
  404de1:	5d                   	pop    %rbp
  404de2:	c3                   	retq   
  404de3:	90                   	nop

0000000000404de4 <_ZN5boost6detail15sp_counted_baseC1Ev>:
  404de4:	55                   	push   %rbp
  404de5:	48 89 e5             	mov    %rsp,%rbp
  404de8:	48 89 7d f8          	mov    %rdi,-0x8(%rbp)
  404dec:	ba b8 d0 40 00       	mov    $0x40d0b8,%edx
  404df1:	48 8b 45 f8          	mov    -0x8(%rbp),%rax
  404df5:	48 89 10             	mov    %rdx,(%rax)
  404df8:	48 8b 45 f8          	mov    -0x8(%rbp),%rax
  404dfc:	c7 40 08 01 00 00 00 	movl   $0x1,0x8(%rax)
  404e03:	48 8b 45 f8          	mov    -0x8(%rbp),%rax
  404e07:	c7 40 0c 01 00 00 00 	movl   $0x1,0xc(%rax)
  404e0e:	90                   	nop
  404e0f:	5d                   	pop    %rbp
  404e10:	c3                   	retq   
  404e11:	90                   	nop

0000000000404e12 <_ZN5boost6detail15sp_counted_baseD1Ev>:
  404e12:	55                   	push   %rbp
  404e13:	48 89 e5             	mov    %rsp,%rbp
  404e16:	48 89 7d f8          	mov    %rdi,-0x8(%rbp)
  404e1a:	ba b8 d0 40 00       	mov    $0x40d0b8,%edx
  404e1f:	48 8b 45 f8          	mov    -0x8(%rbp),%rax
  404e23:	48 89 10             	mov    %rdx,(%rax)
  404e26:	90                   	nop
  404e27:	5d                   	pop    %rbp
  404e28:	c3                   	retq   
  404e29:	90                   	nop

0000000000404e2a <_ZN5boost6detail15sp_counted_baseD0Ev>:
  404e2a:	55                   	push   %rbp
  404e2b:	48 89 e5             	mov    %rsp,%rbp
  404e2e:	48 83 ec 10          	sub    $0x10,%rsp
  404e32:	48 89 7d f8          	mov    %rdi,-0x8(%rbp)
  404e36:	48 8b 45 f8          	mov    -0x8(%rbp),%rax
  404e3a:	48 89 c7             	mov    %rax,%rdi
  404e3d:	e8 d0 ff ff ff       	callq  404e12 <_ZN5boost6detail15sp_counted_baseD1Ev>
  404e42:	48 8b 45 f8          	mov    -0x8(%rbp),%rax
  404e46:	48 89 c7             	mov    %rax,%rdi
  404e49:	e8 b2 f9 ff ff       	callq  404800 <_ZdlPv@plt>
  404e4e:	c9                   	leaveq 
  404e4f:	c3                   	retq   

0000000000404e50 <_ZN5boost6detail15sp_counted_base7destroyEv>:
  404e50:	55                   	push   %rbp
  404e51:	48 89 e5             	mov    %rsp,%rbp
  404e54:	48 83 ec 10          	sub    $0x10,%rsp
  404e58:	48 89 7d f8          	mov    %rdi,-0x8(%rbp)
  404e5c:	48 83 7d f8 00       	cmpq   $0x0,-0x8(%rbp)
  404e61:	74 17                	je     404e7a <_ZN5boost6detail15sp_counted_base7destroyEv+0x2a>
  404e63:	48 8b 45 f8          	mov    -0x8(%rbp),%rax
  404e67:	48 8b 00             	mov    (%rax),%rax
  404e6a:	48 83 c0 08          	add    $0x8,%rax
  404e6e:	48 8b 00             	mov    (%rax),%rax
  404e71:	48 8b 55 f8          	mov    -0x8(%rbp),%rdx
  404e75:	48 89 d7             	mov    %rdx,%rdi
  404e78:	ff d0                	callq  *%rax
  404e7a:	90                   	nop
  404e7b:	c9                   	leaveq 
  404e7c:	c3                   	retq   
  404e7d:	90                   	nop

0000000000404e7e <_ZN5boost6detail15sp_counted_base7releaseEv>:
  404e7e:	55                   	push   %rbp
  404e7f:	48 89 e5             	mov    %rsp,%rbp
  404e82:	48 83 ec 10          	sub    $0x10,%rsp
  404e86:	48 89 7d f8          	mov    %rdi,-0x8(%rbp)
  404e8a:	48 8b 45 f8          	mov    -0x8(%rbp),%rax
  404e8e:	48 83 c0 08          	add    $0x8,%rax
  404e92:	be ff ff ff ff       	mov    $0xffffffff,%esi
  404e97:	48 89 c7             	mov    %rax,%rdi
  404e9a:	e8 22 ff ff ff       	callq  404dc1 <_ZN5boost6detail23atomic_exchange_and_addEPii>
  404e9f:	83 f8 01             	cmp    $0x1,%eax
  404ea2:	0f 94 c0             	sete   %al
  404ea5:	84 c0                	test   %al,%al
  404ea7:	74 23                	je     404ecc <_ZN5boost6detail15sp_counted_base7releaseEv+0x4e>
  404ea9:	48 8b 45 f8          	mov    -0x8(%rbp),%rax
  404ead:	48 8b 00             	mov    (%rax),%rax
  404eb0:	48 83 c0 10          	add    $0x10,%rax
  404eb4:	48 8b 00             	mov    (%rax),%rax
  404eb7:	48 8b 55 f8          	mov    -0x8(%rbp),%rdx
  404ebb:	48 89 d7             	mov    %rdx,%rdi
  404ebe:	ff d0                	callq  *%rax
  404ec0:	48 8b 45 f8          	mov    -0x8(%rbp),%rax
  404ec4:	48 89 c7             	mov    %rax,%rdi
  404ec7:	e8 04 00 00 00       	callq  404ed0 <_ZN5boost6detail15sp_counted_base12weak_releaseEv>
  404ecc:	90                   	nop
  404ecd:	c9                   	leaveq 
  404ece:	c3                   	retq   
  404ecf:	90                   	nop

0000000000404ed0 <_ZN5boost6detail15sp_counted_base12weak_releaseEv>:
  404ed0:	55                   	push   %rbp
  404ed1:	48 89 e5             	mov    %rsp,%rbp
  404ed4:	48 83 ec 10          	sub    $0x10,%rsp
  404ed8:	48 89 7d f8          	mov    %rdi,-0x8(%rbp)
  404edc:	48 8b 45 f8          	mov    -0x8(%rbp),%rax
  404ee0:	48 83 c0 0c          	add    $0xc,%rax
  404ee4:	be ff ff ff ff       	mov    $0xffffffff,%esi
  404ee9:	48 89 c7             	mov    %rax,%rdi
  404eec:	e8 d0 fe ff ff       	callq  404dc1 <_ZN5boost6detail23atomic_exchange_and_addEPii>
  404ef1:	83 f8 01             	cmp    $0x1,%eax
  404ef4:	0f 94 c0             	sete   %al
  404ef7:	84 c0                	test   %al,%al
  404ef9:	74 17                	je     404f12 <_ZN5boost6detail15sp_counted_base12weak_releaseEv+0x42>
  404efb:	48 8b 45 f8          	mov    -0x8(%rbp),%rax
  404eff:	48 8b 00             	mov    (%rax),%rax
  404f02:	48 83 c0 18          	add    $0x18,%rax
  404f06:	48 8b 00             	mov    (%rax),%rax
  404f09:	48 8b 55 f8          	mov    -0x8(%rbp),%rdx
  404f0d:	48 89 d7             	mov    %rdx,%rdi
  404f10:	ff d0                	callq  *%rax
  404f12:	90                   	nop
  404f13:	c9                   	leaveq 
  404f14:	c3                   	retq   
  404f15:	90                   	nop

0000000000404f16 <_ZN5boost6detail12shared_countC1Ev>:
  404f16:	55                   	push   %rbp
  404f17:	48 89 e5             	mov    %rsp,%rbp
  404f1a:	48 89 7d f8          	mov    %rdi,-0x8(%rbp)
  404f1e:	48 8b 45 f8          	mov    -0x8(%rbp),%rax
  404f22:	48 c7 00 00 00 00 00 	movq   $0x0,(%rax)
  404f29:	90                   	nop
  404f2a:	5d                   	pop    %rbp
  404f2b:	c3                   	retq   

0000000000404f2c <_ZN5boost6detail12shared_countD1Ev>:
  404f2c:	55                   	push   %rbp
  404f2d:	48 89 e5             	mov    %rsp,%rbp
  404f30:	48 83 ec 10          	sub    $0x10,%rsp
  404f34:	48 89 7d f8          	mov    %rdi,-0x8(%rbp)
  404f38:	48 8b 45 f8          	mov    -0x8(%rbp),%rax
  404f3c:	48 8b 00             	mov    (%rax),%rax
  404f3f:	48 85 c0             	test   %rax,%rax
  404f42:	74 0f                	je     404f53 <_ZN5boost6detail12shared_countD1Ev+0x27>
  404f44:	48 8b 45 f8          	mov    -0x8(%rbp),%rax
  404f48:	48 8b 00             	mov    (%rax),%rax
  404f4b:	48 89 c7             	mov    %rax,%rdi
  404f4e:	e8 2b ff ff ff       	callq  404e7e <_ZN5boost6detail15sp_counted_base7releaseEv>
  404f53:	90                   	nop
  404f54:	c9                   	leaveq 
  404f55:	c3                   	retq   

0000000000404f56 <_ZN5boost6detail12shared_count4swapERS1_>:
  404f56:	55                   	push   %rbp
  404f57:	48 89 e5             	mov    %rsp,%rbp
  404f5a:	48 89 7d e8          	mov    %rdi,-0x18(%rbp)
  404f5e:	48 89 75 e0          	mov    %rsi,-0x20(%rbp)
  404f62:	48 8b 45 e0          	mov    -0x20(%rbp),%rax
  404f66:	48 8b 00             	mov    (%rax),%rax
  404f69:	48 89 45 f8          	mov    %rax,-0x8(%rbp)
  404f6d:	48 8b 45 e8          	mov    -0x18(%rbp),%rax
  404f71:	48 8b 10             	mov    (%rax),%rdx
  404f74:	48 8b 45 e0          	mov    -0x20(%rbp),%rax
  404f78:	48 89 10             	mov    %rdx,(%rax)
  404f7b:	48 8b 45 e8          	mov    -0x18(%rbp),%rax
  404f7f:	48 8b 55 f8          	mov    -0x8(%rbp),%rdx
  404f83:	48 89 10             	mov    %rdx,(%rax)
  404f86:	90                   	nop
  404f87:	5d                   	pop    %rbp
  404f88:	c3                   	retq   

0000000000404f89 <_ZN5boost6detail26sp_enable_shared_from_thisEz>:
  404f89:	55                   	push   %rbp
  404f8a:	48 89 e5             	mov    %rsp,%rbp
  404f8d:	90                   	nop
  404f8e:	5d                   	pop    %rbp
  404f8f:	c3                   	retq   

0000000000404f90 <_ZN6google13CheckOpStringC1EPNSt7__cxx1112basic_stringIcSt11char_traitsIcESaIcEEE>:
  404f90:	55                   	push   %rbp
  404f91:	48 89 e5             	mov    %rsp,%rbp
  404f94:	48 89 7d f8          	mov    %rdi,-0x8(%rbp)
  404f98:	48 89 75 f0          	mov    %rsi,-0x10(%rbp)
  404f9c:	48 8b 45 f8          	mov    -0x8(%rbp),%rax
  404fa0:	48 8b 55 f0          	mov    -0x10(%rbp),%rdx
  404fa4:	48 89 10             	mov    %rdx,(%rax)
  404fa7:	90                   	nop
  404fa8:	5d                   	pop    %rbp
  404fa9:	c3                   	retq   

0000000000404faa <_ZN6google21GetReferenceableValueEi>:
  404faa:	55                   	push   %rbp
  404fab:	48 89 e5             	mov    %rsp,%rbp
  404fae:	89 7d fc             	mov    %edi,-0x4(%rbp)
  404fb1:	8b 45 fc             	mov    -0x4(%rbp),%eax
  404fb4:	5d                   	pop    %rbp
  404fb5:	c3                   	retq   

0000000000404fb6 <_ZN6google21GetReferenceableValueEm>:
  404fb6:	55                   	push   %rbp
  404fb7:	48 89 e5             	mov    %rsp,%rbp
  404fba:	48 89 7d f8          	mov    %rdi,-0x8(%rbp)
  404fbe:	48 8b 45 f8          	mov    -0x8(%rbp),%rax
  404fc2:	5d                   	pop    %rbp
  404fc3:	c3                   	retq   

0000000000404fc4 <_ZN6google4base21CheckOpMessageBuilder7ForVar1Ev>:
  404fc4:	55                   	push   %rbp
  404fc5:	48 89 e5             	mov    %rsp,%rbp
  404fc8:	48 89 7d f8          	mov    %rdi,-0x8(%rbp)
  404fcc:	48 8b 45 f8          	mov    -0x8(%rbp),%rax
  404fd0:	48 8b 00             	mov    (%rax),%rax
  404fd3:	5d                   	pop    %rbp
  404fd4:	c3                   	retq   

0000000000404fd5 <_ZN6google12Check_LEImplB5cxx11EiiPKc>:
  404fd5:	55                   	push   %rbp
  404fd6:	48 89 e5             	mov    %rsp,%rbp
  404fd9:	48 83 ec 10          	sub    $0x10,%rsp
  404fdd:	89 7d fc             	mov    %edi,-0x4(%rbp)
  404fe0:	89 75 f8             	mov    %esi,-0x8(%rbp)
  404fe3:	48 89 55 f0          	mov    %rdx,-0x10(%rbp)
  404fe7:	48 8b 55 f0          	mov    -0x10(%rbp),%rdx
  404feb:	48 8d 4d f8          	lea    -0x8(%rbp),%rcx
  404fef:	48 8d 45 fc          	lea    -0x4(%rbp),%rax
  404ff3:	48 89 ce             	mov    %rcx,%rsi
  404ff6:	48 89 c7             	mov    %rax,%rdi
  404ff9:	e8 39 0f 00 00       	callq  405f37 <_ZN6google12Check_LEImplIiiEEPNSt7__cxx1112basic_stringIcSt11char_traitsIcESaIcEEERKT_RKT0_PKc>
  404ffe:	c9                   	leaveq 
  404fff:	c3                   	retq   

0000000000405000 <_ZN6google12Check_LTImplB5cxx11EiiPKc>:
  405000:	55                   	push   %rbp
  405001:	48 89 e5             	mov    %rsp,%rbp
  405004:	48 83 ec 10          	sub    $0x10,%rsp
  405008:	89 7d fc             	mov    %edi,-0x4(%rbp)
  40500b:	89 75 f8             	mov    %esi,-0x8(%rbp)
  40500e:	48 89 55 f0          	mov    %rdx,-0x10(%rbp)
  405012:	48 8b 55 f0          	mov    -0x10(%rbp),%rdx
  405016:	48 8d 4d f8          	lea    -0x8(%rbp),%rcx
  40501a:	48 8d 45 fc          	lea    -0x4(%rbp),%rax
  40501e:	48 89 ce             	mov    %rcx,%rsi
  405021:	48 89 c7             	mov    %rax,%rdi
  405024:	e8 5b 0f 00 00       	callq  405f84 <_ZN6google12Check_LTImplIiiEEPNSt7__cxx1112basic_stringIcSt11char_traitsIcESaIcEEERKT_RKT0_PKc>
  405029:	c9                   	leaveq 
  40502a:	c3                   	retq   

000000000040502b <_ZN6google12Check_GEImplB5cxx11EiiPKc>:
  40502b:	55                   	push   %rbp
  40502c:	48 89 e5             	mov    %rsp,%rbp
  40502f:	48 83 ec 10          	sub    $0x10,%rsp
  405033:	89 7d fc             	mov    %edi,-0x4(%rbp)
  405036:	89 75 f8             	mov    %esi,-0x8(%rbp)
  405039:	48 89 55 f0          	mov    %rdx,-0x10(%rbp)
  40503d:	48 8b 55 f0          	mov    -0x10(%rbp),%rdx
  405041:	48 8d 4d f8          	lea    -0x8(%rbp),%rcx
  405045:	48 8d 45 fc          	lea    -0x4(%rbp),%rax
  405049:	48 89 ce             	mov    %rcx,%rsi
  40504c:	48 89 c7             	mov    %rax,%rdi
  40504f:	e8 7d 0f 00 00       	callq  405fd1 <_ZN6google12Check_GEImplIiiEEPNSt7__cxx1112basic_stringIcSt11char_traitsIcESaIcEEERKT_RKT0_PKc>
  405054:	c9                   	leaveq 
  405055:	c3                   	retq   

0000000000405056 <_ZN6google17LogMessageVoidifyC1Ev>:
  405056:	55                   	push   %rbp
  405057:	48 89 e5             	mov    %rsp,%rbp
  40505a:	48 89 7d f8          	mov    %rdi,-0x8(%rbp)
  40505e:	90                   	nop
  40505f:	5d                   	pop    %rbp
  405060:	c3                   	retq   
  405061:	90                   	nop

0000000000405062 <_ZN6google17LogMessageVoidifyanERSo>:
  405062:	55                   	push   %rbp
  405063:	48 89 e5             	mov    %rsp,%rbp
  405066:	48 89 7d f8          	mov    %rdi,-0x8(%rbp)
  40506a:	48 89 75 f0          	mov    %rsi,-0x10(%rbp)
  40506e:	90                   	nop
  40506f:	5d                   	pop    %rbp
  405070:	c3                   	retq   

0000000000405071 <_ZN5caffe5Caffe4modeEv>:
  405071:	55                   	push   %rbp
  405072:	48 89 e5             	mov    %rsp,%rbp
  405075:	e8 e6 f8 ff ff       	callq  404960 <_ZN5caffe5Caffe3GetEv@plt>
  40507a:	8b 40 10             	mov    0x10(%rax),%eax
  40507d:	5d                   	pop    %rbp
  40507e:	c3                   	retq   

000000000040507f <_ZN5caffe5Caffe8set_modeENS0_4BrewE>:
  40507f:	55                   	push   %rbp
  405080:	48 89 e5             	mov    %rsp,%rbp
  405083:	48 83 ec 10          	sub    $0x10,%rsp
  405087:	89 7d fc             	mov    %edi,-0x4(%rbp)
  40508a:	e8 d1 f8 ff ff       	callq  404960 <_ZN5caffe5Caffe3GetEv@plt>
  40508f:	48 89 c2             	mov    %rax,%rdx
  405092:	8b 45 fc             	mov    -0x4(%rbp),%eax
  405095:	89 42 10             	mov    %eax,0x10(%rdx)
  405098:	90                   	nop
  405099:	c9                   	leaveq 
  40509a:	c3                   	retq   
  40509b:	90                   	nop

000000000040509c <_ZNK6google8protobuf8internal20RepeatedPtrFieldBase4sizeEv>:
  40509c:	55                   	push   %rbp
  40509d:	48 89 e5             	mov    %rsp,%rbp
  4050a0:	48 89 7d f8          	mov    %rdi,-0x8(%rbp)
  4050a4:	48 8b 45 f8          	mov    -0x8(%rbp),%rax
  4050a8:	8b 40 08             	mov    0x8(%rax),%eax
  4050ab:	5d                   	pop    %rbp
  4050ac:	c3                   	retq   
  4050ad:	90                   	nop

00000000004050ae <_ZNK5caffe14LayerParameter5phaseEv>:
  4050ae:	55                   	push   %rbp
  4050af:	48 89 e5             	mov    %rsp,%rbp
  4050b2:	48 89 7d f8          	mov    %rdi,-0x8(%rbp)
  4050b6:	48 8b 45 f8          	mov    -0x8(%rbp),%rax
  4050ba:	8b 80 50 02 00 00    	mov    0x250(%rax),%eax
  4050c0:	5d                   	pop    %rbp
  4050c1:	c3                   	retq   

00000000004050c2 <_ZNK5caffe14LayerParameter16loss_weight_sizeEv>:
  4050c2:	55                   	push   %rbp
  4050c3:	48 89 e5             	mov    %rsp,%rbp
  4050c6:	48 83 ec 10          	sub    $0x10,%rsp
  4050ca:	48 89 7d f8          	mov    %rdi,-0x8(%rbp)
  4050ce:	48 8b 45 f8          	mov    -0x8(%rbp),%rax
  4050d2:	48 83 c0 48          	add    $0x48,%rax
  4050d6:	48 89 c7             	mov    %rax,%rdi
  4050d9:	e8 40 0f 00 00       	callq  40601e <_ZNK6google8protobuf13RepeatedFieldIfE4sizeEv>
  4050de:	c9                   	leaveq 
  4050df:	c3                   	retq   

00000000004050e0 <_ZNK5caffe14LayerParameter11loss_weightEi>:
  4050e0:	55                   	push   %rbp
  4050e1:	48 89 e5             	mov    %rsp,%rbp
  4050e4:	48 83 ec 10          	sub    $0x10,%rsp
  4050e8:	48 89 7d f8          	mov    %rdi,-0x8(%rbp)
  4050ec:	89 75 f4             	mov    %esi,-0xc(%rbp)
  4050ef:	48 8b 45 f8          	mov    -0x8(%rbp),%rax
  4050f3:	48 8d 50 48          	lea    0x48(%rax),%rdx
  4050f7:	8b 45 f4             	mov    -0xc(%rbp),%eax
  4050fa:	89 c6                	mov    %eax,%esi
  4050fc:	48 89 d7             	mov    %rdx,%rdi
  4050ff:	e8 2a 0f 00 00       	callq  40602e <_ZNK6google8protobuf13RepeatedFieldIfE3GetEi>
  405104:	f3 0f 10 00          	movss  (%rax),%xmm0
  405108:	c9                   	leaveq 
  405109:	c3                   	retq   

000000000040510a <_ZNK5caffe14LayerParameter10blobs_sizeEv>:
  40510a:	55                   	push   %rbp
  40510b:	48 89 e5             	mov    %rsp,%rbp
  40510e:	48 83 ec 10          	sub    $0x10,%rsp
  405112:	48 89 7d f8          	mov    %rdi,-0x8(%rbp)
  405116:	48 8b 45 f8          	mov    -0x8(%rbp),%rax
  40511a:	48 83 c0 70          	add    $0x70,%rax
  40511e:	48 89 c7             	mov    %rax,%rdi
  405121:	e8 c0 10 00 00       	callq  4061e6 <_ZNK6google8protobuf16RepeatedPtrFieldIN5caffe9BlobProtoEE4sizeEv>
  405126:	c9                   	leaveq 
  405127:	c3                   	retq   

0000000000405128 <_ZN5caffe14LayerParameter11clear_blobsEv>:
  405128:	55                   	push   %rbp
  405129:	48 89 e5             	mov    %rsp,%rbp
  40512c:	48 83 ec 10          	sub    $0x10,%rsp
  405130:	48 89 7d f8          	mov    %rdi,-0x8(%rbp)
  405134:	48 8b 45 f8          	mov    -0x8(%rbp),%rax
  405138:	48 83 c0 70          	add    $0x70,%rax
  40513c:	48 89 c7             	mov    %rax,%rdi
  40513f:	e8 bc 10 00 00       	callq  406200 <_ZN6google8protobuf16RepeatedPtrFieldIN5caffe9BlobProtoEE5ClearEv>
  405144:	90                   	nop
  405145:	c9                   	leaveq 
  405146:	c3                   	retq   
  405147:	90                   	nop

0000000000405148 <_ZNK5caffe14LayerParameter5blobsEi>:
  405148:	55                   	push   %rbp
  405149:	48 89 e5             	mov    %rsp,%rbp
  40514c:	48 83 ec 10          	sub    $0x10,%rsp
  405150:	48 89 7d f8          	mov    %rdi,-0x8(%rbp)
  405154:	89 75 f4             	mov    %esi,-0xc(%rbp)
  405157:	48 8b 45 f8          	mov    -0x8(%rbp),%rax
  40515b:	48 8d 50 70          	lea    0x70(%rax),%rdx
  40515f:	8b 45 f4             	mov    -0xc(%rbp),%eax
  405162:	89 c6                	mov    %eax,%esi
  405164:	48 89 d7             	mov    %rdx,%rdi
  405167:	e8 b0 10 00 00       	callq  40621c <_ZNK6google8protobuf16RepeatedPtrFieldIN5caffe9BlobProtoEE3GetEi>
  40516c:	c9                   	leaveq 
  40516d:	c3                   	retq   

000000000040516e <_ZN5caffe14LayerParameter9add_blobsEv>:
  40516e:	55                   	push   %rbp
  40516f:	48 89 e5             	mov    %rsp,%rbp
  405172:	48 83 ec 10          	sub    $0x10,%rsp
  405176:	48 89 7d f8          	mov    %rdi,-0x8(%rbp)
  40517a:	48 8b 45 f8          	mov    -0x8(%rbp),%rax
  40517e:	48 83 c0 70          	add    $0x70,%rax
  405182:	48 89 c7             	mov    %rax,%rdi
  405185:	e8 b4 10 00 00       	callq  40623e <_ZN6google8protobuf16RepeatedPtrFieldIN5caffe9BlobProtoEE3AddEv>
  40518a:	c9                   	leaveq 
  40518b:	c3                   	retq   

000000000040518c <_ZN5caffe14LayerParameter21set_has_pooling_paramEv>:
  40518c:	55                   	push   %rbp
  40518d:	48 89 e5             	mov    %rsp,%rbp
  405190:	48 89 7d e8          	mov    %rdi,-0x18(%rbp)
  405194:	48 8b 45 e8          	mov    -0x18(%rbp),%rax
  405198:	48 83 c0 10          	add    $0x10,%rax
  40519c:	48 89 45 f8          	mov    %rax,-0x8(%rbp)
  4051a0:	c7 45 f4 01 00 00 00 	movl   $0x1,-0xc(%rbp)
  4051a7:	8b 45 f4             	mov    -0xc(%rbp),%eax
  4051aa:	48 98                	cltq   
  4051ac:	48 8d 14 85 00 00 00 	lea    0x0(,%rax,4),%rdx
  4051b3:	00 
  4051b4:	48 8b 45 f8          	mov    -0x8(%rbp),%rax
  4051b8:	48 01 d0             	add    %rdx,%rax
  4051bb:	8b 10                	mov    (%rax),%edx
  4051bd:	80 ce 02             	or     $0x2,%dh
  4051c0:	89 10                	mov    %edx,(%rax)
  4051c2:	90                   	nop
  4051c3:	5d                   	pop    %rbp
  4051c4:	c3                   	retq   
  4051c5:	90                   	nop

00000000004051c6 <_ZNK5caffe14LayerParameter13pooling_paramEv>:
  4051c6:	55                   	push   %rbp
  4051c7:	48 89 e5             	mov    %rsp,%rbp
  4051ca:	48 83 ec 10          	sub    $0x10,%rsp
  4051ce:	48 89 7d f8          	mov    %rdi,-0x8(%rbp)
  4051d2:	48 8b 45 f8          	mov    -0x8(%rbp),%rax
  4051d6:	48 8b 80 c8 01 00 00 	mov    0x1c8(%rax),%rax
  4051dd:	48 85 c0             	test   %rax,%rax
  4051e0:	74 0d                	je     4051ef <_ZNK5caffe14LayerParameter13pooling_paramEv+0x29>
  4051e2:	48 8b 45 f8          	mov    -0x8(%rbp),%rax
  4051e6:	48 8b 80 c8 01 00 00 	mov    0x1c8(%rax),%rax
  4051ed:	eb 05                	jmp    4051f4 <_ZNK5caffe14LayerParameter13pooling_paramEv+0x2e>
  4051ef:	e8 62 03 00 00       	callq  405556 <_ZN5caffe16PoolingParameter25internal_default_instanceEv>
  4051f4:	c9                   	leaveq 
  4051f5:	c3                   	retq   

00000000004051f6 <_ZN5caffe14LayerParameter21mutable_pooling_paramEv>:
  4051f6:	55                   	push   %rbp
  4051f7:	48 89 e5             	mov    %rsp,%rbp
  4051fa:	41 54                	push   %r12
  4051fc:	53                   	push   %rbx
  4051fd:	48 83 ec 10          	sub    $0x10,%rsp
  405201:	48 89 7d e8          	mov    %rdi,-0x18(%rbp)
  405205:	48 8b 45 e8          	mov    -0x18(%rbp),%rax
  405209:	48 89 c7             	mov    %rax,%rdi
  40520c:	e8 7b ff ff ff       	callq  40518c <_ZN5caffe14LayerParameter21set_has_pooling_paramEv>
  405211:	48 8b 45 e8          	mov    -0x18(%rbp),%rax
  405215:	48 8b 80 c8 01 00 00 	mov    0x1c8(%rax),%rax
  40521c:	48 85 c0             	test   %rax,%rax
  40521f:	75 20                	jne    405241 <_ZN5caffe14LayerParameter21mutable_pooling_paramEv+0x4b>
  405221:	bf 48 00 00 00       	mov    $0x48,%edi
  405226:	e8 85 f4 ff ff       	callq  4046b0 <_Znwm@plt>
  40522b:	48 89 c3             	mov    %rax,%rbx
  40522e:	48 89 df             	mov    %rbx,%rdi
  405231:	e8 6a f4 ff ff       	callq  4046a0 <_ZN5caffe16PoolingParameterC1Ev@plt>
  405236:	48 8b 45 e8          	mov    -0x18(%rbp),%rax
  40523a:	48 89 98 c8 01 00 00 	mov    %rbx,0x1c8(%rax)
  405241:	48 8b 45 e8          	mov    -0x18(%rbp),%rax
  405245:	48 8b 80 c8 01 00 00 	mov    0x1c8(%rax),%rax
  40524c:	eb 16                	jmp    405264 <_ZN5caffe14LayerParameter21mutable_pooling_paramEv+0x6e>
  40524e:	49 89 c4             	mov    %rax,%r12
  405251:	48 89 df             	mov    %rbx,%rdi
  405254:	e8 a7 f5 ff ff       	callq  404800 <_ZdlPv@plt>
  405259:	4c 89 e0             	mov    %r12,%rax
  40525c:	48 89 c7             	mov    %rax,%rdi
  40525f:	e8 2c f6 ff ff       	callq  404890 <_Unwind_Resume@plt>
  405264:	48 83 c4 10          	add    $0x10,%rsp
  405268:	5b                   	pop    %rbx
  405269:	41 5c                	pop    %r12
  40526b:	5d                   	pop    %rbp
  40526c:	c3                   	retq   
  40526d:	90                   	nop

000000000040526e <_ZN5caffe16PoolingParameter12set_has_poolEv>:
  40526e:	55                   	push   %rbp
  40526f:	48 89 e5             	mov    %rsp,%rbp
  405272:	48 89 7d e8          	mov    %rdi,-0x18(%rbp)
  405276:	48 8b 45 e8          	mov    -0x18(%rbp),%rax
  40527a:	48 83 c0 10          	add    $0x10,%rax
  40527e:	48 89 45 f8          	mov    %rax,-0x8(%rbp)
  405282:	c7 45 f4 00 00 00 00 	movl   $0x0,-0xc(%rbp)
  405289:	8b 45 f4             	mov    -0xc(%rbp),%eax
  40528c:	48 98                	cltq   
  40528e:	48 8d 14 85 00 00 00 	lea    0x0(,%rax,4),%rdx
  405295:	00 
  405296:	48 8b 45 f8          	mov    -0x8(%rbp),%rax
  40529a:	48 01 d0             	add    %rdx,%rax
  40529d:	8b 10                	mov    (%rax),%edx
  40529f:	83 ca 01             	or     $0x1,%edx
  4052a2:	89 10                	mov    %edx,(%rax)
  4052a4:	90                   	nop
  4052a5:	5d                   	pop    %rbp
  4052a6:	c3                   	retq   
  4052a7:	90                   	nop

00000000004052a8 <_ZNK5caffe16PoolingParameter4poolEv>:
  4052a8:	55                   	push   %rbp
  4052a9:	48 89 e5             	mov    %rsp,%rbp
  4052ac:	48 89 7d f8          	mov    %rdi,-0x8(%rbp)
  4052b0:	48 8b 45 f8          	mov    -0x8(%rbp),%rax
  4052b4:	8b 40 18             	mov    0x18(%rax),%eax
  4052b7:	5d                   	pop    %rbp
  4052b8:	c3                   	retq   
  4052b9:	90                   	nop

00000000004052ba <_ZN5caffe16PoolingParameter8set_poolENS_27PoolingParameter_PoolMethodE>:
  4052ba:	55                   	push   %rbp
  4052bb:	48 89 e5             	mov    %rsp,%rbp
  4052be:	48 83 ec 10          	sub    $0x10,%rsp
  4052c2:	48 89 7d f8          	mov    %rdi,-0x8(%rbp)
  4052c6:	89 75 f4             	mov    %esi,-0xc(%rbp)
  4052c9:	8b 45 f4             	mov    -0xc(%rbp),%eax
  4052cc:	89 c7                	mov    %eax,%edi
  4052ce:	e8 8d f8 ff ff       	callq  404b60 <_ZN5caffe35PoolingParameter_PoolMethod_IsValidEi@plt>
  4052d3:	84 c0                	test   %al,%al
  4052d5:	75 19                	jne    4052f0 <_ZN5caffe16PoolingParameter8set_poolENS_27PoolingParameter_PoolMethodE+0x36>
  4052d7:	b9 a0 cc 40 00       	mov    $0x40cca0,%ecx
  4052dc:	ba be 50 00 00       	mov    $0x50be,%edx
  4052e1:	be 10 c4 40 00       	mov    $0x40c410,%esi
  4052e6:	bf 88 c4 40 00       	mov    $0x40c488,%edi
  4052eb:	e8 e0 f3 ff ff       	callq  4046d0 <__assert_fail@plt>
  4052f0:	48 8b 45 f8          	mov    -0x8(%rbp),%rax
  4052f4:	48 89 c7             	mov    %rax,%rdi
  4052f7:	e8 72 ff ff ff       	callq  40526e <_ZN5caffe16PoolingParameter12set_has_poolEv>
  4052fc:	8b 55 f4             	mov    -0xc(%rbp),%edx
  4052ff:	48 8b 45 f8          	mov    -0x8(%rbp),%rax
  405303:	89 50 18             	mov    %edx,0x18(%rax)
  405306:	90                   	nop
  405307:	c9                   	leaveq 
  405308:	c3                   	retq   
  405309:	90                   	nop

000000000040530a <_ZN5caffe16PoolingParameter13set_has_pad_hEv>:
  40530a:	55                   	push   %rbp
  40530b:	48 89 e5             	mov    %rsp,%rbp
  40530e:	48 89 7d e8          	mov    %rdi,-0x18(%rbp)
  405312:	48 8b 45 e8          	mov    -0x18(%rbp),%rax
  405316:	48 83 c0 10          	add    $0x10,%rax
  40531a:	48 89 45 f8          	mov    %rax,-0x8(%rbp)
  40531e:	c7 45 f4 00 00 00 00 	movl   $0x0,-0xc(%rbp)
  405325:	8b 45 f4             	mov    -0xc(%rbp),%eax
  405328:	48 98                	cltq   
  40532a:	48 8d 14 85 00 00 00 	lea    0x0(,%rax,4),%rdx
  405331:	00 
  405332:	48 8b 45 f8          	mov    -0x8(%rbp),%rax
  405336:	48 01 d0             	add    %rdx,%rax
  405339:	8b 10                	mov    (%rax),%edx
  40533b:	83 ca 04             	or     $0x4,%edx
  40533e:	89 10                	mov    %edx,(%rax)
  405340:	90                   	nop
  405341:	5d                   	pop    %rbp
  405342:	c3                   	retq   
  405343:	90                   	nop

0000000000405344 <_ZN5caffe16PoolingParameter9set_pad_hEj>:
  405344:	55                   	push   %rbp
  405345:	48 89 e5             	mov    %rsp,%rbp
  405348:	48 83 ec 10          	sub    $0x10,%rsp
  40534c:	48 89 7d f8          	mov    %rdi,-0x8(%rbp)
  405350:	89 75 f4             	mov    %esi,-0xc(%rbp)
  405353:	48 8b 45 f8          	mov    -0x8(%rbp),%rax
  405357:	48 89 c7             	mov    %rax,%rdi
  40535a:	e8 ab ff ff ff       	callq  40530a <_ZN5caffe16PoolingParameter13set_has_pad_hEv>
  40535f:	48 8b 45 f8          	mov    -0x8(%rbp),%rax
  405363:	8b 55 f4             	mov    -0xc(%rbp),%edx
  405366:	89 50 20             	mov    %edx,0x20(%rax)
  405369:	90                   	nop
  40536a:	c9                   	leaveq 
  40536b:	c3                   	retq   

000000000040536c <_ZN5caffe16PoolingParameter13set_has_pad_wEv>:
  40536c:	55                   	push   %rbp
  40536d:	48 89 e5             	mov    %rsp,%rbp
  405370:	48 89 7d e8          	mov    %rdi,-0x18(%rbp)
  405374:	48 8b 45 e8          	mov    -0x18(%rbp),%rax
  405378:	48 83 c0 10          	add    $0x10,%rax
  40537c:	48 89 45 f8          	mov    %rax,-0x8(%rbp)
  405380:	c7 45 f4 00 00 00 00 	movl   $0x0,-0xc(%rbp)
  405387:	8b 45 f4             	mov    -0xc(%rbp),%eax
  40538a:	48 98                	cltq   
  40538c:	48 8d 14 85 00 00 00 	lea    0x0(,%rax,4),%rdx
  405393:	00 
  405394:	48 8b 45 f8          	mov    -0x8(%rbp),%rax
  405398:	48 01 d0             	add    %rdx,%rax
  40539b:	8b 10                	mov    (%rax),%edx
  40539d:	83 ca 08             	or     $0x8,%edx
  4053a0:	89 10                	mov    %edx,(%rax)
  4053a2:	90                   	nop
  4053a3:	5d                   	pop    %rbp
  4053a4:	c3                   	retq   
  4053a5:	90                   	nop

00000000004053a6 <_ZN5caffe16PoolingParameter9set_pad_wEj>:
  4053a6:	55                   	push   %rbp
  4053a7:	48 89 e5             	mov    %rsp,%rbp
  4053aa:	48 83 ec 10          	sub    $0x10,%rsp
  4053ae:	48 89 7d f8          	mov    %rdi,-0x8(%rbp)
  4053b2:	89 75 f4             	mov    %esi,-0xc(%rbp)
  4053b5:	48 8b 45 f8          	mov    -0x8(%rbp),%rax
  4053b9:	48 89 c7             	mov    %rax,%rdi
  4053bc:	e8 ab ff ff ff       	callq  40536c <_ZN5caffe16PoolingParameter13set_has_pad_wEv>
  4053c1:	48 8b 45 f8          	mov    -0x8(%rbp),%rax
  4053c5:	8b 55 f4             	mov    -0xc(%rbp),%edx
  4053c8:	89 50 24             	mov    %edx,0x24(%rax)
  4053cb:	90                   	nop
  4053cc:	c9                   	leaveq 
  4053cd:	c3                   	retq   

00000000004053ce <_ZN5caffe16PoolingParameter16set_has_kernel_hEv>:
  4053ce:	55                   	push   %rbp
  4053cf:	48 89 e5             	mov    %rsp,%rbp
  4053d2:	48 89 7d e8          	mov    %rdi,-0x18(%rbp)
  4053d6:	48 8b 45 e8          	mov    -0x18(%rbp),%rax
  4053da:	48 83 c0 10          	add    $0x10,%rax
  4053de:	48 89 45 f8          	mov    %rax,-0x8(%rbp)
  4053e2:	c7 45 f4 00 00 00 00 	movl   $0x0,-0xc(%rbp)
  4053e9:	8b 45 f4             	mov    -0xc(%rbp),%eax
  4053ec:	48 98                	cltq   
  4053ee:	48 8d 14 85 00 00 00 	lea    0x0(,%rax,4),%rdx
  4053f5:	00 
  4053f6:	48 8b 45 f8          	mov    -0x8(%rbp),%rax
  4053fa:	48 01 d0             	add    %rdx,%rax
  4053fd:	8b 10                	mov    (%rax),%edx
  4053ff:	83 ca 20             	or     $0x20,%edx
  405402:	89 10                	mov    %edx,(%rax)
  405404:	90                   	nop
  405405:	5d                   	pop    %rbp
  405406:	c3                   	retq   
  405407:	90                   	nop

0000000000405408 <_ZN5caffe16PoolingParameter12set_kernel_hEj>:
  405408:	55                   	push   %rbp
  405409:	48 89 e5             	mov    %rsp,%rbp
  40540c:	48 83 ec 10          	sub    $0x10,%rsp
  405410:	48 89 7d f8          	mov    %rdi,-0x8(%rbp)
  405414:	89 75 f4             	mov    %esi,-0xc(%rbp)
  405417:	48 8b 45 f8          	mov    -0x8(%rbp),%rax
  40541b:	48 89 c7             	mov    %rax,%rdi
  40541e:	e8 ab ff ff ff       	callq  4053ce <_ZN5caffe16PoolingParameter16set_has_kernel_hEv>
  405423:	48 8b 45 f8          	mov    -0x8(%rbp),%rax
  405427:	8b 55 f4             	mov    -0xc(%rbp),%edx
  40542a:	89 50 2c             	mov    %edx,0x2c(%rax)
  40542d:	90                   	nop
  40542e:	c9                   	leaveq 
  40542f:	c3                   	retq   

0000000000405430 <_ZN5caffe16PoolingParameter16set_has_kernel_wEv>:
  405430:	55                   	push   %rbp
  405431:	48 89 e5             	mov    %rsp,%rbp
  405434:	48 89 7d e8          	mov    %rdi,-0x18(%rbp)
  405438:	48 8b 45 e8          	mov    -0x18(%rbp),%rax
  40543c:	48 83 c0 10          	add    $0x10,%rax
  405440:	48 89 45 f8          	mov    %rax,-0x8(%rbp)
  405444:	c7 45 f4 00 00 00 00 	movl   $0x0,-0xc(%rbp)
  40544b:	8b 45 f4             	mov    -0xc(%rbp),%eax
  40544e:	48 98                	cltq   
  405450:	48 8d 14 85 00 00 00 	lea    0x0(,%rax,4),%rdx
  405457:	00 
  405458:	48 8b 45 f8          	mov    -0x8(%rbp),%rax
  40545c:	48 01 d0             	add    %rdx,%rax
  40545f:	8b 10                	mov    (%rax),%edx
  405461:	83 ca 40             	or     $0x40,%edx
  405464:	89 10                	mov    %edx,(%rax)
  405466:	90                   	nop
  405467:	5d                   	pop    %rbp
  405468:	c3                   	retq   
  405469:	90                   	nop

000000000040546a <_ZN5caffe16PoolingParameter12set_kernel_wEj>:
  40546a:	55                   	push   %rbp
  40546b:	48 89 e5             	mov    %rsp,%rbp
  40546e:	48 83 ec 10          	sub    $0x10,%rsp
  405472:	48 89 7d f8          	mov    %rdi,-0x8(%rbp)
  405476:	89 75 f4             	mov    %esi,-0xc(%rbp)
  405479:	48 8b 45 f8          	mov    -0x8(%rbp),%rax
  40547d:	48 89 c7             	mov    %rax,%rdi
  405480:	e8 ab ff ff ff       	callq  405430 <_ZN5caffe16PoolingParameter16set_has_kernel_wEv>
  405485:	48 8b 45 f8          	mov    -0x8(%rbp),%rax
  405489:	8b 55 f4             	mov    -0xc(%rbp),%edx
  40548c:	89 50 30             	mov    %edx,0x30(%rax)
  40548f:	90                   	nop
  405490:	c9                   	leaveq 
  405491:	c3                   	retq   

0000000000405492 <_ZN5caffe16PoolingParameter16set_has_stride_hEv>:
  405492:	55                   	push   %rbp
  405493:	48 89 e5             	mov    %rsp,%rbp
  405496:	48 89 7d e8          	mov    %rdi,-0x18(%rbp)
  40549a:	48 8b 45 e8          	mov    -0x18(%rbp),%rax
  40549e:	48 83 c0 10          	add    $0x10,%rax
  4054a2:	48 89 45 f8          	mov    %rax,-0x8(%rbp)
  4054a6:	c7 45 f4 00 00 00 00 	movl   $0x0,-0xc(%rbp)
  4054ad:	8b 45 f4             	mov    -0xc(%rbp),%eax
  4054b0:	48 98                	cltq   
  4054b2:	48 8d 14 85 00 00 00 	lea    0x0(,%rax,4),%rdx
  4054b9:	00 
  4054ba:	48 8b 45 f8          	mov    -0x8(%rbp),%rax
  4054be:	48 01 d0             	add    %rdx,%rax
  4054c1:	8b 10                	mov    (%rax),%edx
  4054c3:	80 ce 01             	or     $0x1,%dh
  4054c6:	89 10                	mov    %edx,(%rax)
  4054c8:	90                   	nop
  4054c9:	5d                   	pop    %rbp
  4054ca:	c3                   	retq   
  4054cb:	90                   	nop

00000000004054cc <_ZN5caffe16PoolingParameter12set_stride_hEj>:
  4054cc:	55                   	push   %rbp
  4054cd:	48 89 e5             	mov    %rsp,%rbp
  4054d0:	48 83 ec 10          	sub    $0x10,%rsp
  4054d4:	48 89 7d f8          	mov    %rdi,-0x8(%rbp)
  4054d8:	89 75 f4             	mov    %esi,-0xc(%rbp)
  4054db:	48 8b 45 f8          	mov    -0x8(%rbp),%rax
  4054df:	48 89 c7             	mov    %rax,%rdi
  4054e2:	e8 ab ff ff ff       	callq  405492 <_ZN5caffe16PoolingParameter16set_has_stride_hEv>
  4054e7:	48 8b 45 f8          	mov    -0x8(%rbp),%rax
  4054eb:	8b 55 f4             	mov    -0xc(%rbp),%edx
  4054ee:	89 50 34             	mov    %edx,0x34(%rax)
  4054f1:	90                   	nop
  4054f2:	c9                   	leaveq 
  4054f3:	c3                   	retq   

00000000004054f4 <_ZN5caffe16PoolingParameter16set_has_stride_wEv>:
  4054f4:	55                   	push   %rbp
  4054f5:	48 89 e5             	mov    %rsp,%rbp
  4054f8:	48 89 7d e8          	mov    %rdi,-0x18(%rbp)
  4054fc:	48 8b 45 e8          	mov    -0x18(%rbp),%rax
  405500:	48 83 c0 10          	add    $0x10,%rax
  405504:	48 89 45 f8          	mov    %rax,-0x8(%rbp)
  405508:	c7 45 f4 00 00 00 00 	movl   $0x0,-0xc(%rbp)
  40550f:	8b 45 f4             	mov    -0xc(%rbp),%eax
  405512:	48 98                	cltq   
  405514:	48 8d 14 85 00 00 00 	lea    0x0(,%rax,4),%rdx
  40551b:	00 
  40551c:	48 8b 45 f8          	mov    -0x8(%rbp),%rax
  405520:	48 01 d0             	add    %rdx,%rax
  405523:	8b 10                	mov    (%rax),%edx
  405525:	80 ce 02             	or     $0x2,%dh
  405528:	89 10                	mov    %edx,(%rax)
  40552a:	90                   	nop
  40552b:	5d                   	pop    %rbp
  40552c:	c3                   	retq   
  40552d:	90                   	nop

000000000040552e <_ZN5caffe16PoolingParameter12set_stride_wEj>:
  40552e:	55                   	push   %rbp
  40552f:	48 89 e5             	mov    %rsp,%rbp
  405532:	48 83 ec 10          	sub    $0x10,%rsp
  405536:	48 89 7d f8          	mov    %rdi,-0x8(%rbp)
  40553a:	89 75 f4             	mov    %esi,-0xc(%rbp)
  40553d:	48 8b 45 f8          	mov    -0x8(%rbp),%rax
  405541:	48 89 c7             	mov    %rax,%rdi
  405544:	e8 ab ff ff ff       	callq  4054f4 <_ZN5caffe16PoolingParameter16set_has_stride_wEv>
  405549:	48 8b 45 f8          	mov    -0x8(%rbp),%rax
  40554d:	8b 55 f4             	mov    -0xc(%rbp),%edx
  405550:	89 50 38             	mov    %edx,0x38(%rax)
  405553:	90                   	nop
  405554:	c9                   	leaveq 
  405555:	c3                   	retq   

0000000000405556 <_ZN5caffe16PoolingParameter25internal_default_instanceEv>:
  405556:	55                   	push   %rbp
  405557:	48 89 e5             	mov    %rsp,%rbp
  40555a:	bf 40 23 61 00       	mov    $0x612340,%edi
  40555f:	e8 fa 0c 00 00       	callq  40625e <_ZNK6google8protobuf8internal21ExplicitlyConstructedIN5caffe16PoolingParameterEE3getEv>
  405564:	5d                   	pop    %rbp
  405565:	c3                   	retq   

0000000000405566 <_ZNK2CK5Shape10data_countEv>:
  405566:	55                   	push   %rbp
  405567:	48 89 e5             	mov    %rsp,%rbp
  40556a:	48 89 7d f8          	mov    %rdi,-0x8(%rbp)
  40556e:	48 8b 45 f8          	mov    -0x8(%rbp),%rax
  405572:	8b 10                	mov    (%rax),%edx
  405574:	48 8b 45 f8          	mov    -0x8(%rbp),%rax
  405578:	8b 40 04             	mov    0x4(%rax),%eax
  40557b:	0f af d0             	imul   %eax,%edx
  40557e:	48 8b 45 f8          	mov    -0x8(%rbp),%rax
  405582:	8b 40 08             	mov    0x8(%rax),%eax
  405585:	0f af d0             	imul   %eax,%edx
  405588:	48 8b 45 f8          	mov    -0x8(%rbp),%rax
  40558c:	8b 40 0c             	mov    0xc(%rax),%eax
  40558f:	0f af c2             	imul   %edx,%eax
  405592:	5d                   	pop    %rbp
  405593:	c3                   	retq   

0000000000405594 <_ZNK2CK5Shape14get_flat_indexEiiii>:
  405594:	55                   	push   %rbp
  405595:	48 89 e5             	mov    %rsp,%rbp
  405598:	48 83 ec 20          	sub    $0x20,%rsp
  40559c:	48 89 7d f8          	mov    %rdi,-0x8(%rbp)
  4055a0:	89 75 f4             	mov    %esi,-0xc(%rbp)
  4055a3:	89 55 f0             	mov    %edx,-0x10(%rbp)
  4055a6:	89 4d ec             	mov    %ecx,-0x14(%rbp)
  4055a9:	44 89 45 e8          	mov    %r8d,-0x18(%rbp)
  4055ad:	8b 7d e8             	mov    -0x18(%rbp),%edi
  4055b0:	8b 4d ec             	mov    -0x14(%rbp),%ecx
  4055b3:	8b 55 f0             	mov    -0x10(%rbp),%edx
  4055b6:	8b 75 f4             	mov    -0xc(%rbp),%esi
  4055b9:	48 8b 45 f8          	mov    -0x8(%rbp),%rax
  4055bd:	41 89 f8             	mov    %edi,%r8d
  4055c0:	48 89 c7             	mov    %rax,%rdi
  4055c3:	e8 02 00 00 00       	callq  4055ca <_ZNK2CK5Shape19get_flat_index_nchwEiiii>
  4055c8:	c9                   	leaveq 
  4055c9:	c3                   	retq   

00000000004055ca <_ZNK2CK5Shape19get_flat_index_nchwEiiii>:
  4055ca:	55                   	push   %rbp
  4055cb:	48 89 e5             	mov    %rsp,%rbp
  4055ce:	48 89 7d f8          	mov    %rdi,-0x8(%rbp)
  4055d2:	89 75 f4             	mov    %esi,-0xc(%rbp)
  4055d5:	89 55 f0             	mov    %edx,-0x10(%rbp)
  4055d8:	89 4d ec             	mov    %ecx,-0x14(%rbp)
  4055db:	44 89 45 e8          	mov    %r8d,-0x18(%rbp)
  4055df:	48 8b 45 f8          	mov    -0x8(%rbp),%rax
  4055e3:	8b 40 04             	mov    0x4(%rax),%eax
  4055e6:	0f af 45 f4          	imul   -0xc(%rbp),%eax
  4055ea:	89 c2                	mov    %eax,%edx
  4055ec:	8b 45 f0             	mov    -0x10(%rbp),%eax
  4055ef:	01 c2                	add    %eax,%edx
  4055f1:	48 8b 45 f8          	mov    -0x8(%rbp),%rax
  4055f5:	8b 40 08             	mov    0x8(%rax),%eax
  4055f8:	0f af d0             	imul   %eax,%edx
  4055fb:	8b 45 ec             	mov    -0x14(%rbp),%eax
  4055fe:	01 c2                	add    %eax,%edx
  405600:	48 8b 45 f8          	mov    -0x8(%rbp),%rax
  405604:	8b 40 0c             	mov    0xc(%rax),%eax
  405607:	0f af d0             	imul   %eax,%edx
  40560a:	8b 45 e8             	mov    -0x18(%rbp),%eax
  40560d:	01 d0                	add    %edx,%eax
  40560f:	5d                   	pop    %rbp
  405610:	c3                   	retq   

0000000000405611 <_ZN2CK8getenv_iEPKci>:
  405611:	55                   	push   %rbp
  405612:	48 89 e5             	mov    %rsp,%rbp
  405615:	48 83 ec 10          	sub    $0x10,%rsp
  405619:	48 89 7d f8          	mov    %rdi,-0x8(%rbp)
  40561d:	89 75 f4             	mov    %esi,-0xc(%rbp)
  405620:	48 8b 45 f8          	mov    -0x8(%rbp),%rax
  405624:	48 89 c7             	mov    %rax,%rdi
  405627:	e8 c4 f2 ff ff       	callq  4048f0 <getenv@plt>
  40562c:	48 85 c0             	test   %rax,%rax
  40562f:	74 16                	je     405647 <_ZN2CK8getenv_iEPKci+0x36>
  405631:	48 8b 45 f8          	mov    -0x8(%rbp),%rax
  405635:	48 89 c7             	mov    %rax,%rdi
  405638:	e8 b3 f2 ff ff       	callq  4048f0 <getenv@plt>
  40563d:	48 89 c7             	mov    %rax,%rdi
  405640:	e8 2b f1 ff ff       	callq  404770 <atoi@plt>
  405645:	eb 03                	jmp    40564a <_ZN2CK8getenv_iEPKci+0x39>
  405647:	8b 45 f4             	mov    -0xc(%rbp),%eax
  40564a:	c9                   	leaveq 
  40564b:	c3                   	retq   

000000000040564c <_ZN2CK13store_value_iEiPKci>:
  40564c:	55                   	push   %rbp
  40564d:	48 89 e5             	mov    %rsp,%rbp
  405650:	48 83 ec 20          	sub    $0x20,%rsp
  405654:	89 7d ec             	mov    %edi,-0x14(%rbp)
  405657:	48 89 75 e0          	mov    %rsi,-0x20(%rbp)
  40565b:	89 55 e8             	mov    %edx,-0x18(%rbp)
  40565e:	48 8b 45 e0          	mov    -0x20(%rbp),%rax
  405662:	48 89 c7             	mov    %rax,%rdi
  405665:	e8 26 f1 ff ff       	callq  404790 <strlen@plt>
  40566a:	48 83 c0 06          	add    $0x6,%rax
  40566e:	48 89 c7             	mov    %rax,%rdi
  405671:	e8 3a f1 ff ff       	callq  4047b0 <_Znam@plt>
  405676:	48 89 45 f8          	mov    %rax,-0x8(%rbp)
  40567a:	48 8b 55 e0          	mov    -0x20(%rbp),%rdx
  40567e:	48 8b 45 f8          	mov    -0x8(%rbp),%rax
  405682:	be c0 c4 40 00       	mov    $0x40c4c0,%esi
  405687:	48 89 c7             	mov    %rax,%rdi
  40568a:	b8 00 00 00 00       	mov    $0x0,%eax
  40568f:	e8 bc f3 ff ff       	callq  404a50 <sprintf@plt>
  405694:	8b 55 e8             	mov    -0x18(%rbp),%edx
  405697:	48 8b 4d f8          	mov    -0x8(%rbp),%rcx
  40569b:	8b 45 ec             	mov    -0x14(%rbp),%eax
  40569e:	48 89 ce             	mov    %rcx,%rsi
  4056a1:	89 c7                	mov    %eax,%edi
  4056a3:	e8 18 f1 ff ff       	callq  4047c0 <xopenme_add_var_i@plt>
  4056a8:	48 83 7d f8 00       	cmpq   $0x0,-0x8(%rbp)
  4056ad:	74 0c                	je     4056bb <_ZN2CK13store_value_iEiPKci+0x6f>
  4056af:	48 8b 45 f8          	mov    -0x8(%rbp),%rax
  4056b3:	48 89 c7             	mov    %rax,%rdi
  4056b6:	e8 c5 f0 ff ff       	callq  404780 <_ZdaPv@plt>
  4056bb:	90                   	nop
  4056bc:	c9                   	leaveq 
  4056bd:	c3                   	retq   

00000000004056be <_ZN2CK13store_value_fEiPKcf>:
  4056be:	55                   	push   %rbp
  4056bf:	48 89 e5             	mov    %rsp,%rbp
  4056c2:	48 83 ec 30          	sub    $0x30,%rsp
  4056c6:	89 7d ec             	mov    %edi,-0x14(%rbp)
  4056c9:	48 89 75 e0          	mov    %rsi,-0x20(%rbp)
  4056cd:	f3 0f 11 45 e8       	movss  %xmm0,-0x18(%rbp)
  4056d2:	48 8b 45 e0          	mov    -0x20(%rbp),%rax
  4056d6:	48 89 c7             	mov    %rax,%rdi
  4056d9:	e8 b2 f0 ff ff       	callq  404790 <strlen@plt>
  4056de:	48 83 c0 06          	add    $0x6,%rax
  4056e2:	48 89 c7             	mov    %rax,%rdi
  4056e5:	e8 c6 f0 ff ff       	callq  4047b0 <_Znam@plt>
  4056ea:	48 89 45 f8          	mov    %rax,-0x8(%rbp)
  4056ee:	48 8b 55 e0          	mov    -0x20(%rbp),%rdx
  4056f2:	48 8b 45 f8          	mov    -0x8(%rbp),%rax
  4056f6:	be c9 c4 40 00       	mov    $0x40c4c9,%esi
  4056fb:	48 89 c7             	mov    %rax,%rdi
  4056fe:	b8 00 00 00 00       	mov    $0x0,%eax
  405703:	e8 48 f3 ff ff       	callq  404a50 <sprintf@plt>
  405708:	8b 4d e8             	mov    -0x18(%rbp),%ecx
  40570b:	48 8b 55 f8          	mov    -0x8(%rbp),%rdx
  40570f:	8b 45 ec             	mov    -0x14(%rbp),%eax
  405712:	89 4d dc             	mov    %ecx,-0x24(%rbp)
  405715:	f3 0f 10 45 dc       	movss  -0x24(%rbp),%xmm0
  40571a:	48 89 d6             	mov    %rdx,%rsi
  40571d:	89 c7                	mov    %eax,%edi
  40571f:	e8 fc ee ff ff       	callq  404620 <xopenme_add_var_f@plt>
  405724:	48 83 7d f8 00       	cmpq   $0x0,-0x8(%rbp)
  405729:	74 0c                	je     405737 <_ZN2CK13store_value_fEiPKcf+0x79>
  40572b:	48 8b 45 f8          	mov    -0x8(%rbp),%rax
  40572f:	48 89 c7             	mov    %rax,%rdi
  405732:	e8 49 f0 ff ff       	callq  404780 <_ZdaPv@plt>
  405737:	90                   	nop
  405738:	c9                   	leaveq 
  405739:	c3                   	retq   

000000000040573a <_ZN2CK24get_input_shape_from_envEiiii>:
  40573a:	55                   	push   %rbp
  40573b:	48 89 e5             	mov    %rsp,%rbp
  40573e:	48 83 ec 30          	sub    $0x30,%rsp
  405742:	89 7d dc             	mov    %edi,-0x24(%rbp)
  405745:	89 75 d8             	mov    %esi,-0x28(%rbp)
  405748:	89 55 d4             	mov    %edx,-0x2c(%rbp)
  40574b:	89 4d d0             	mov    %ecx,-0x30(%rbp)
  40574e:	64 48 8b 04 25 28 00 	mov    %fs:0x28,%rax
  405755:	00 00 
  405757:	48 89 45 f8          	mov    %rax,-0x8(%rbp)
  40575b:	31 c0                	xor    %eax,%eax
  40575d:	c7 45 e0 01 00 00 00 	movl   $0x1,-0x20(%rbp)
  405764:	c7 45 e4 01 00 00 00 	movl   $0x1,-0x1c(%rbp)
  40576b:	c7 45 e8 01 00 00 00 	movl   $0x1,-0x18(%rbp)
  405772:	c7 45 ec 01 00 00 00 	movl   $0x1,-0x14(%rbp)
  405779:	8b 45 dc             	mov    -0x24(%rbp),%eax
  40577c:	89 c6                	mov    %eax,%esi
  40577e:	bf d2 c4 40 00       	mov    $0x40c4d2,%edi
  405783:	e8 89 fe ff ff       	callq  405611 <_ZN2CK8getenv_iEPKci>
  405788:	89 45 e0             	mov    %eax,-0x20(%rbp)
  40578b:	8b 45 d8             	mov    -0x28(%rbp),%eax
  40578e:	89 c6                	mov    %eax,%esi
  405790:	bf e0 c4 40 00       	mov    $0x40c4e0,%edi
  405795:	e8 77 fe ff ff       	callq  405611 <_ZN2CK8getenv_iEPKci>
  40579a:	89 45 e4             	mov    %eax,-0x1c(%rbp)
  40579d:	8b 45 d4             	mov    -0x2c(%rbp),%eax
  4057a0:	89 c6                	mov    %eax,%esi
  4057a2:	bf ee c4 40 00       	mov    $0x40c4ee,%edi
  4057a7:	e8 65 fe ff ff       	callq  405611 <_ZN2CK8getenv_iEPKci>
  4057ac:	89 45 e8             	mov    %eax,-0x18(%rbp)
  4057af:	8b 45 d0             	mov    -0x30(%rbp),%eax
  4057b2:	89 c6                	mov    %eax,%esi
  4057b4:	bf fc c4 40 00       	mov    $0x40c4fc,%edi
  4057b9:	e8 53 fe ff ff       	callq  405611 <_ZN2CK8getenv_iEPKci>
  4057be:	89 45 ec             	mov    %eax,-0x14(%rbp)
  4057c1:	8b 45 e0             	mov    -0x20(%rbp),%eax
  4057c4:	89 c2                	mov    %eax,%edx
  4057c6:	be 0a c5 40 00       	mov    $0x40c50a,%esi
  4057cb:	bf 04 00 00 00       	mov    $0x4,%edi
  4057d0:	e8 77 fe ff ff       	callq  40564c <_ZN2CK13store_value_iEiPKci>
  4057d5:	8b 45 e4             	mov    -0x1c(%rbp),%eax
  4057d8:	89 c2                	mov    %eax,%edx
  4057da:	be 15 c5 40 00       	mov    $0x40c515,%esi
  4057df:	bf 05 00 00 00       	mov    $0x5,%edi
  4057e4:	e8 63 fe ff ff       	callq  40564c <_ZN2CK13store_value_iEiPKci>
  4057e9:	8b 45 e8             	mov    -0x18(%rbp),%eax
  4057ec:	89 c2                	mov    %eax,%edx
  4057ee:	be 20 c5 40 00       	mov    $0x40c520,%esi
  4057f3:	bf 06 00 00 00       	mov    $0x6,%edi
  4057f8:	e8 4f fe ff ff       	callq  40564c <_ZN2CK13store_value_iEiPKci>
  4057fd:	8b 45 ec             	mov    -0x14(%rbp),%eax
  405800:	89 c2                	mov    %eax,%edx
  405802:	be 2b c5 40 00       	mov    $0x40c52b,%esi
  405807:	bf 07 00 00 00       	mov    $0x7,%edi
  40580c:	e8 3b fe ff ff       	callq  40564c <_ZN2CK13store_value_iEiPKci>
  405811:	8b 75 ec             	mov    -0x14(%rbp),%esi
  405814:	8b 4d e8             	mov    -0x18(%rbp),%ecx
  405817:	8b 55 e4             	mov    -0x1c(%rbp),%edx
  40581a:	8b 45 e0             	mov    -0x20(%rbp),%eax
  40581d:	41 89 f0             	mov    %esi,%r8d
  405820:	89 c6                	mov    %eax,%esi
  405822:	bf 38 c5 40 00       	mov    $0x40c538,%edi
  405827:	b8 00 00 00 00       	mov    $0x0,%eax
  40582c:	e8 1f ee ff ff       	callq  404650 <printf@plt>
  405831:	48 8b 45 e0          	mov    -0x20(%rbp),%rax
  405835:	48 8b 55 e8          	mov    -0x18(%rbp),%rdx
  405839:	48 8b 4d f8          	mov    -0x8(%rbp),%rcx
  40583d:	64 48 33 0c 25 28 00 	xor    %fs:0x28,%rcx
  405844:	00 00 
  405846:	74 05                	je     40584d <_ZN2CK24get_input_shape_from_envEiiii+0x113>
  405848:	e8 d3 ee ff ff       	callq  404720 <__stack_chk_fail@plt>
  40584d:	c9                   	leaveq 
  40584e:	c3                   	retq   

000000000040584f <_ZN2CK9init_testEv>:
  40584f:	55                   	push   %rbp
  405850:	48 89 e5             	mov    %rsp,%rbp
  405853:	48 83 ec 10          	sub    $0x10,%rsp
  405857:	be 0c 00 00 00       	mov    $0xc,%esi
  40585c:	bf 02 00 00 00       	mov    $0x2,%edi
  405861:	e8 aa ed ff ff       	callq  404610 <xopenme_init@plt>
  405866:	be 2a 00 00 00       	mov    $0x2a,%esi
  40586b:	bf 6f c5 40 00       	mov    $0x40c56f,%edi
  405870:	e8 9c fd ff ff       	callq  405611 <_ZN2CK8getenv_iEPKci>
  405875:	89 45 fc             	mov    %eax,-0x4(%rbp)
  405878:	8b 45 fc             	mov    -0x4(%rbp),%eax
  40587b:	89 c2                	mov    %eax,%edx
  40587d:	be 77 c5 40 00       	mov    $0x40c577,%esi
  405882:	bf 08 00 00 00       	mov    $0x8,%edi
  405887:	e8 c0 fd ff ff       	callq  40564c <_ZN2CK13store_value_iEiPKci>
  40588c:	8b 45 fc             	mov    -0x4(%rbp),%eax
  40588f:	89 c7                	mov    %eax,%edi
  405891:	e8 4a f2 ff ff       	callq  404ae0 <srand@plt>
  405896:	90                   	nop
  405897:	c9                   	leaveq 
  405898:	c3                   	retq   

0000000000405899 <_ZN2CK11finish_testEv>:
  405899:	55                   	push   %rbp
  40589a:	48 89 e5             	mov    %rsp,%rbp
  40589d:	bf 00 00 00 00       	mov    $0x0,%edi
  4058a2:	e8 29 ef ff ff       	callq  4047d0 <xopenme_get_timer@plt>
  4058a7:	be 00 00 00 00       	mov    $0x0,%esi
  4058ac:	bf 80 c5 40 00       	mov    $0x40c580,%edi
  4058b1:	b8 01 00 00 00       	mov    $0x1,%eax
  4058b6:	e8 95 ed ff ff       	callq  404650 <printf@plt>
  4058bb:	bf 01 00 00 00       	mov    $0x1,%edi
  4058c0:	e8 0b ef ff ff       	callq  4047d0 <xopenme_get_timer@plt>
  4058c5:	be 01 00 00 00       	mov    $0x1,%esi
  4058ca:	bf 94 c5 40 00       	mov    $0x40c594,%edi
  4058cf:	b8 01 00 00 00       	mov    $0x1,%eax
  4058d4:	e8 77 ed ff ff       	callq  404650 <printf@plt>
  4058d9:	e8 d2 f1 ff ff       	callq  404ab0 <xopenme_dump_state@plt>
  4058de:	e8 1d f2 ff ff       	callq  404b00 <xopenme_finish@plt>
  4058e3:	90                   	nop
  4058e4:	5d                   	pop    %rbp
  4058e5:	c3                   	retq   

00000000004058e6 <_ZZN2CK5Caffe12test_avgpoolEvENKUlvE_clEv>:
  4058e6:	55                   	push   %rbp
  4058e7:	48 89 e5             	mov    %rsp,%rbp
  4058ea:	48 83 ec 10          	sub    $0x10,%rsp
  4058ee:	48 89 7d f8          	mov    %rdi,-0x8(%rbp)
  4058f2:	48 8b 45 f8          	mov    -0x8(%rbp),%rax
  4058f6:	48 8b 50 10          	mov    0x10(%rax),%rdx
  4058fa:	48 8b 45 f8          	mov    -0x8(%rbp),%rax
  4058fe:	48 8b 40 08          	mov    0x8(%rax),%rax
  405902:	48 8b 4d f8          	mov    -0x8(%rbp),%rcx
  405906:	48 8b 09             	mov    (%rcx),%rcx
  405909:	48 89 c6             	mov    %rax,%rsi
  40590c:	48 89 cf             	mov    %rcx,%rdi
  40590f:	e8 28 0b 00 00       	callq  40643c <_ZN5caffe5LayerIfE5SetUpERKSt6vectorIPNS_4BlobIfEESaIS5_EES9_>
  405914:	90                   	nop
  405915:	c9                   	leaveq 
  405916:	c3                   	retq   
  405917:	90                   	nop

0000000000405918 <_ZZN2CK5Caffe12test_avgpoolEvENKUlvE0_clEv>:
  405918:	55                   	push   %rbp
  405919:	48 89 e5             	mov    %rsp,%rbp
  40591c:	48 83 ec 10          	sub    $0x10,%rsp
  405920:	48 89 7d f8          	mov    %rdi,-0x8(%rbp)
  405924:	48 8b 45 f8          	mov    -0x8(%rbp),%rax
  405928:	48 8b 50 10          	mov    0x10(%rax),%rdx
  40592c:	48 8b 45 f8          	mov    -0x8(%rbp),%rax
  405930:	48 8b 40 08          	mov    0x8(%rax),%rax
  405934:	48 8b 4d f8          	mov    -0x8(%rbp),%rcx
  405938:	48 8b 09             	mov    (%rcx),%rcx
  40593b:	48 89 c6             	mov    %rax,%rsi
  40593e:	48 89 cf             	mov    %rcx,%rdi
  405941:	e8 c6 0c 00 00       	callq  40660c <_ZN5caffe5LayerIfE7ForwardERKSt6vectorIPNS_4BlobIfEESaIS5_EES9_>
  405946:	90                   	nop
  405947:	c9                   	leaveq 
  405948:	c3                   	retq   
  405949:	90                   	nop

000000000040594a <_ZN5boost10shared_ptrIN5caffe12SyncedMemoryEED1Ev>:
  40594a:	55                   	push   %rbp
  40594b:	48 89 e5             	mov    %rsp,%rbp
  40594e:	48 83 ec 10          	sub    $0x10,%rsp
  405952:	48 89 7d f8          	mov    %rdi,-0x8(%rbp)
  405956:	48 8b 45 f8          	mov    -0x8(%rbp),%rax
  40595a:	48 83 c0 08          	add    $0x8,%rax
  40595e:	48 89 c7             	mov    %rax,%rdi
  405961:	e8 c6 f5 ff ff       	callq  404f2c <_ZN5boost6detail12shared_countD1Ev>
  405966:	90                   	nop
  405967:	c9                   	leaveq 
  405968:	c3                   	retq   
  405969:	90                   	nop

000000000040596a <_ZN5caffe4BlobIfED1Ev>:
  40596a:	55                   	push   %rbp
  40596b:	48 89 e5             	mov    %rsp,%rbp
  40596e:	48 83 ec 10          	sub    $0x10,%rsp
  405972:	48 89 7d f8          	mov    %rdi,-0x8(%rbp)
  405976:	48 8b 45 f8          	mov    -0x8(%rbp),%rax
  40597a:	48 83 c0 30          	add    $0x30,%rax
  40597e:	48 89 c7             	mov    %rax,%rdi
  405981:	e8 46 11 00 00       	callq  406acc <_ZNSt6vectorIiSaIiEED1Ev>
  405986:	48 8b 45 f8          	mov    -0x8(%rbp),%rax
  40598a:	48 83 c0 20          	add    $0x20,%rax
  40598e:	48 89 c7             	mov    %rax,%rdi
  405991:	e8 b4 ff ff ff       	callq  40594a <_ZN5boost10shared_ptrIN5caffe12SyncedMemoryEED1Ev>
  405996:	48 8b 45 f8          	mov    -0x8(%rbp),%rax
  40599a:	48 83 c0 10          	add    $0x10,%rax
  40599e:	48 89 c7             	mov    %rax,%rdi
  4059a1:	e8 a4 ff ff ff       	callq  40594a <_ZN5boost10shared_ptrIN5caffe12SyncedMemoryEED1Ev>
  4059a6:	48 8b 45 f8          	mov    -0x8(%rbp),%rax
  4059aa:	48 89 c7             	mov    %rax,%rdi
  4059ad:	e8 98 ff ff ff       	callq  40594a <_ZN5boost10shared_ptrIN5caffe12SyncedMemoryEED1Ev>
  4059b2:	90                   	nop
  4059b3:	c9                   	leaveq 
  4059b4:	c3                   	retq   

00000000004059b5 <_ZN2CK5Caffe12test_avgpoolEv>:
  4059b5:	55                   	push   %rbp
  4059b6:	48 89 e5             	mov    %rsp,%rbp
  4059b9:	41 54                	push   %r12
  4059bb:	53                   	push   %rbx
  4059bc:	48 81 ec b0 06 00 00 	sub    $0x6b0,%rsp
  4059c3:	64 48 8b 04 25 28 00 	mov    %fs:0x28,%rax
  4059ca:	00 00 
  4059cc:	48 89 45 e8          	mov    %rax,-0x18(%rbp)
  4059d0:	31 c0                	xor    %eax,%eax
  4059d2:	e8 78 fe ff ff       	callq  40584f <_ZN2CK9init_testEv>
  4059d7:	b9 07 00 00 00       	mov    $0x7,%ecx
  4059dc:	ba 07 00 00 00       	mov    $0x7,%edx
  4059e1:	be 01 00 00 00       	mov    $0x1,%esi
  4059e6:	bf 01 00 00 00       	mov    $0x1,%edi
  4059eb:	e8 4a fd ff ff       	callq  40573a <_ZN2CK24get_input_shape_from_envEiiii>
  4059f0:	48 89 85 80 f9 ff ff 	mov    %rax,-0x680(%rbp)
  4059f7:	48 89 95 88 f9 ff ff 	mov    %rdx,-0x678(%rbp)
  4059fe:	bf 50 00 00 00       	mov    $0x50,%edi
  405a03:	e8 a8 ec ff ff       	callq  4046b0 <_Znwm@plt>
  405a08:	48 89 c3             	mov    %rax,%rbx
  405a0b:	8b b5 8c f9 ff ff    	mov    -0x674(%rbp),%esi
  405a11:	8b 8d 88 f9 ff ff    	mov    -0x678(%rbp),%ecx
  405a17:	8b 95 84 f9 ff ff    	mov    -0x67c(%rbp),%edx
  405a1d:	8b 85 80 f9 ff ff    	mov    -0x680(%rbp),%eax
  405a23:	41 89 f0             	mov    %esi,%r8d
  405a26:	89 c6                	mov    %eax,%esi
  405a28:	48 89 df             	mov    %rbx,%rdi
  405a2b:	e8 d0 ef ff ff       	callq  404a00 <_ZN5caffe4BlobIfEC1Eiiii@plt>
  405a30:	48 89 9d 58 f9 ff ff 	mov    %rbx,-0x6a8(%rbp)
  405a37:	48 8d 85 90 f9 ff ff 	lea    -0x670(%rbp),%rax
  405a3e:	48 89 c7             	mov    %rax,%rdi
  405a41:	e8 26 08 00 00       	callq  40626c <_ZNSt6vectorIPN5caffe4BlobIfEESaIS3_EEC1Ev>
  405a46:	48 8d 95 58 f9 ff ff 	lea    -0x6a8(%rbp),%rdx
  405a4d:	48 8d 85 90 f9 ff ff 	lea    -0x670(%rbp),%rax
  405a54:	48 89 d6             	mov    %rdx,%rsi
  405a57:	48 89 c7             	mov    %rax,%rdi
  405a5a:	e8 6d 08 00 00       	callq  4062cc <_ZNSt6vectorIPN5caffe4BlobIfEESaIS3_EE9push_backERKS3_>
  405a5f:	bf 50 00 00 00       	mov    $0x50,%edi
  405a64:	e8 47 ec ff ff       	callq  4046b0 <_Znwm@plt>
  405a69:	48 89 c3             	mov    %rax,%rbx
  405a6c:	48 89 df             	mov    %rbx,%rdi
  405a6f:	e8 c4 08 00 00       	callq  406338 <_ZN5caffe4BlobIfEC1Ev>
  405a74:	48 89 9d 60 f9 ff ff 	mov    %rbx,-0x6a0(%rbp)
  405a7b:	48 8d 85 b0 f9 ff ff 	lea    -0x650(%rbp),%rax
  405a82:	48 89 c7             	mov    %rax,%rdi
  405a85:	e8 e2 07 00 00       	callq  40626c <_ZNSt6vectorIPN5caffe4BlobIfEESaIS3_EEC1Ev>
  405a8a:	48 8d 95 60 f9 ff ff 	lea    -0x6a0(%rbp),%rdx
  405a91:	48 8d 85 b0 f9 ff ff 	lea    -0x650(%rbp),%rax
  405a98:	48 89 d6             	mov    %rdx,%rsi
  405a9b:	48 89 c7             	mov    %rax,%rdi
  405a9e:	e8 29 08 00 00       	callq  4062cc <_ZNSt6vectorIPN5caffe4BlobIfEESaIS3_EE9push_backERKS3_>
  405aa3:	48 8d 85 f0 f9 ff ff 	lea    -0x610(%rbp),%rax
  405aaa:	48 89 c7             	mov    %rax,%rdi
  405aad:	e8 8e eb ff ff       	callq  404640 <_ZN5caffe14LayerParameterC1Ev@plt>
  405ab2:	48 8d 85 f0 f9 ff ff 	lea    -0x610(%rbp),%rax
  405ab9:	48 89 c7             	mov    %rax,%rdi
  405abc:	e8 35 f7 ff ff       	callq  4051f6 <_ZN5caffe14LayerParameter21mutable_pooling_paramEv>
  405ac1:	48 89 85 68 f9 ff ff 	mov    %rax,-0x698(%rbp)
  405ac8:	be 07 00 00 00       	mov    $0x7,%esi
  405acd:	bf bd c5 40 00       	mov    $0x40c5bd,%edi
  405ad2:	e8 3a fb ff ff       	callq  405611 <_ZN2CK8getenv_iEPKci>
  405ad7:	89 85 4c f9 ff ff    	mov    %eax,-0x6b4(%rbp)
  405add:	be 01 00 00 00       	mov    $0x1,%esi
  405ae2:	bf cc c5 40 00       	mov    $0x40c5cc,%edi
  405ae7:	e8 25 fb ff ff       	callq  405611 <_ZN2CK8getenv_iEPKci>
  405aec:	89 85 50 f9 ff ff    	mov    %eax,-0x6b0(%rbp)
  405af2:	be 00 00 00 00       	mov    $0x0,%esi
  405af7:	bf db c5 40 00       	mov    $0x40c5db,%edi
  405afc:	e8 10 fb ff ff       	callq  405611 <_ZN2CK8getenv_iEPKci>
  405b01:	89 85 54 f9 ff ff    	mov    %eax,-0x6ac(%rbp)
  405b07:	8b 8d 54 f9 ff ff    	mov    -0x6ac(%rbp),%ecx
  405b0d:	8b 95 50 f9 ff ff    	mov    -0x6b0(%rbp),%edx
  405b13:	8b 85 4c f9 ff ff    	mov    -0x6b4(%rbp),%eax
  405b19:	89 c6                	mov    %eax,%esi
  405b1b:	bf e8 c5 40 00       	mov    $0x40c5e8,%edi
  405b20:	b8 00 00 00 00       	mov    $0x0,%eax
  405b25:	e8 26 eb ff ff       	callq  404650 <printf@plt>
  405b2a:	8b 95 4c f9 ff ff    	mov    -0x6b4(%rbp),%edx
  405b30:	48 8b 85 68 f9 ff ff 	mov    -0x698(%rbp),%rax
  405b37:	89 d6                	mov    %edx,%esi
  405b39:	48 89 c7             	mov    %rax,%rdi
  405b3c:	e8 c7 f8 ff ff       	callq  405408 <_ZN5caffe16PoolingParameter12set_kernel_hEj>
  405b41:	8b 95 4c f9 ff ff    	mov    -0x6b4(%rbp),%edx
  405b47:	48 8b 85 68 f9 ff ff 	mov    -0x698(%rbp),%rax
  405b4e:	89 d6                	mov    %edx,%esi
  405b50:	48 89 c7             	mov    %rax,%rdi
  405b53:	e8 12 f9 ff ff       	callq  40546a <_ZN5caffe16PoolingParameter12set_kernel_wEj>
  405b58:	8b 95 50 f9 ff ff    	mov    -0x6b0(%rbp),%edx
  405b5e:	48 8b 85 68 f9 ff ff 	mov    -0x698(%rbp),%rax
  405b65:	89 d6                	mov    %edx,%esi
  405b67:	48 89 c7             	mov    %rax,%rdi
  405b6a:	e8 5d f9 ff ff       	callq  4054cc <_ZN5caffe16PoolingParameter12set_stride_hEj>
  405b6f:	8b 95 50 f9 ff ff    	mov    -0x6b0(%rbp),%edx
  405b75:	48 8b 85 68 f9 ff ff 	mov    -0x698(%rbp),%rax
  405b7c:	89 d6                	mov    %edx,%esi
  405b7e:	48 89 c7             	mov    %rax,%rdi
  405b81:	e8 a8 f9 ff ff       	callq  40552e <_ZN5caffe16PoolingParameter12set_stride_wEj>
  405b86:	8b 95 54 f9 ff ff    	mov    -0x6ac(%rbp),%edx
  405b8c:	48 8b 85 68 f9 ff ff 	mov    -0x698(%rbp),%rax
  405b93:	89 d6                	mov    %edx,%esi
  405b95:	48 89 c7             	mov    %rax,%rdi
  405b98:	e8 a7 f7 ff ff       	callq  405344 <_ZN5caffe16PoolingParameter9set_pad_hEj>
  405b9d:	8b 95 54 f9 ff ff    	mov    -0x6ac(%rbp),%edx
  405ba3:	48 8b 85 68 f9 ff ff 	mov    -0x698(%rbp),%rax
  405baa:	89 d6                	mov    %edx,%esi
  405bac:	48 89 c7             	mov    %rax,%rdi
  405baf:	e8 f2 f7 ff ff       	callq  4053a6 <_ZN5caffe16PoolingParameter9set_pad_wEj>
  405bb4:	48 8b 85 68 f9 ff ff 	mov    -0x698(%rbp),%rax
  405bbb:	be 01 00 00 00       	mov    $0x1,%esi
  405bc0:	48 89 c7             	mov    %rax,%rdi
  405bc3:	e8 f2 f6 ff ff       	callq  4052ba <_ZN5caffe16PoolingParameter8set_poolENS_27PoolingParameter_PoolMethodE>
  405bc8:	48 8d 95 f0 f9 ff ff 	lea    -0x610(%rbp),%rdx
  405bcf:	48 8d 85 50 fc ff ff 	lea    -0x3b0(%rbp),%rax
  405bd6:	48 89 d6             	mov    %rdx,%rsi
  405bd9:	48 89 c7             	mov    %rax,%rdi
  405bdc:	e8 05 08 00 00       	callq  4063e6 <_ZN5caffe12PoolingLayerIfEC1ERKNS_14LayerParameterE>
  405be1:	48 8d 85 50 fc ff ff 	lea    -0x3b0(%rbp),%rax
  405be8:	48 89 85 d0 f9 ff ff 	mov    %rax,-0x630(%rbp)
  405bef:	48 8d 85 90 f9 ff ff 	lea    -0x670(%rbp),%rax
  405bf6:	48 89 85 d8 f9 ff ff 	mov    %rax,-0x628(%rbp)
  405bfd:	48 8d 85 b0 f9 ff ff 	lea    -0x650(%rbp),%rax
  405c04:	48 89 85 e0 f9 ff ff 	mov    %rax,-0x620(%rbp)
  405c0b:	48 8d 85 d0 f9 ff ff 	lea    -0x630(%rbp),%rax
  405c12:	48 89 c7             	mov    %rax,%rdi
  405c15:	e8 ab 08 00 00       	callq  4064c5 <_ZN2CK13measure_setupIZNS_5Caffe12test_avgpoolEvEUlvE_EEvOT_>
  405c1a:	48 8d 85 80 f9 ff ff 	lea    -0x680(%rbp),%rax
  405c21:	48 89 c7             	mov    %rax,%rdi
  405c24:	e8 cf 08 00 00       	callq  4064f8 <_ZN2CK19get_random_raw_dataIfEEPT_RKNS_5ShapeE>
  405c29:	48 89 85 70 f9 ff ff 	mov    %rax,-0x690(%rbp)
  405c30:	48 8d 95 80 f9 ff ff 	lea    -0x680(%rbp),%rdx
  405c37:	48 8b 85 70 f9 ff ff 	mov    -0x690(%rbp),%rax
  405c3e:	48 89 d6             	mov    %rdx,%rsi
  405c41:	48 89 c7             	mov    %rax,%rdi
  405c44:	e8 96 09 00 00       	callq  4065df <_ZN2CK20print_input_raw_dataIfEEvPT_RKNS_5ShapeE>
  405c49:	48 8d 85 80 f9 ff ff 	lea    -0x680(%rbp),%rax
  405c50:	48 89 c7             	mov    %rax,%rdi
  405c53:	e8 0e f9 ff ff       	callq  405566 <_ZNK2CK5Shape10data_countEv>
  405c58:	48 98                	cltq   
  405c5a:	48 8d 1c 85 00 00 00 	lea    0x0(,%rax,4),%rbx
  405c61:	00 
  405c62:	48 8b 85 58 f9 ff ff 	mov    -0x6a8(%rbp),%rax
  405c69:	48 89 c7             	mov    %rax,%rdi
  405c6c:	e8 8f ea ff ff       	callq  404700 <_ZN5caffe4BlobIfE16mutable_cpu_dataEv@plt>
  405c71:	48 89 c1             	mov    %rax,%rcx
  405c74:	48 8b 85 70 f9 ff ff 	mov    -0x690(%rbp),%rax
  405c7b:	48 89 da             	mov    %rbx,%rdx
  405c7e:	48 89 c6             	mov    %rax,%rsi
  405c81:	48 89 cf             	mov    %rcx,%rdi
  405c84:	e8 e7 e9 ff ff       	callq  404670 <memcpy@plt>
  405c89:	48 83 bd 70 f9 ff ff 	cmpq   $0x0,-0x690(%rbp)
  405c90:	00 
  405c91:	74 0f                	je     405ca2 <_ZN2CK5Caffe12test_avgpoolEv+0x2ed>
  405c93:	48 8b 85 70 f9 ff ff 	mov    -0x690(%rbp),%rax
  405c9a:	48 89 c7             	mov    %rax,%rdi
  405c9d:	e8 de ea ff ff       	callq  404780 <_ZdaPv@plt>
  405ca2:	48 8d 85 50 fc ff ff 	lea    -0x3b0(%rbp),%rax
  405ca9:	48 89 85 d0 f9 ff ff 	mov    %rax,-0x630(%rbp)
  405cb0:	48 8d 85 90 f9 ff ff 	lea    -0x670(%rbp),%rax
  405cb7:	48 89 85 d8 f9 ff ff 	mov    %rax,-0x628(%rbp)
  405cbe:	48 8d 85 b0 f9 ff ff 	lea    -0x650(%rbp),%rax
  405cc5:	48 89 85 e0 f9 ff ff 	mov    %rax,-0x620(%rbp)
  405ccc:	48 8d 85 d0 f9 ff ff 	lea    -0x630(%rbp),%rax
  405cd3:	48 89 c7             	mov    %rax,%rdi
  405cd6:	e8 34 0b 00 00       	callq  40680f <_ZN2CK12measure_testIZNS_5Caffe12test_avgpoolEvEUlvE0_EEvOT_>
  405cdb:	c7 85 d0 f9 ff ff 01 	movl   $0x1,-0x630(%rbp)
  405ce2:	00 00 00 
  405ce5:	c7 85 d4 f9 ff ff 01 	movl   $0x1,-0x62c(%rbp)
  405cec:	00 00 00 
  405cef:	c7 85 d8 f9 ff ff 01 	movl   $0x1,-0x628(%rbp)
  405cf6:	00 00 00 
  405cf9:	c7 85 dc f9 ff ff 01 	movl   $0x1,-0x624(%rbp)
  405d00:	00 00 00 
  405d03:	48 8b 85 60 f9 ff ff 	mov    -0x6a0(%rbp),%rax
  405d0a:	48 89 c7             	mov    %rax,%rdi
  405d0d:	e8 30 0b 00 00       	callq  406842 <_ZNK5caffe4BlobIfE3numEv>
  405d12:	89 85 d0 f9 ff ff    	mov    %eax,-0x630(%rbp)
  405d18:	48 8b 85 60 f9 ff ff 	mov    -0x6a0(%rbp),%rax
  405d1f:	48 89 c7             	mov    %rax,%rdi
  405d22:	e8 3b 0b 00 00       	callq  406862 <_ZNK5caffe4BlobIfE8channelsEv>
  405d27:	89 85 d4 f9 ff ff    	mov    %eax,-0x62c(%rbp)
  405d2d:	48 8b 85 60 f9 ff ff 	mov    -0x6a0(%rbp),%rax
  405d34:	48 89 c7             	mov    %rax,%rdi
  405d37:	e8 46 0b 00 00       	callq  406882 <_ZNK5caffe4BlobIfE6heightEv>
  405d3c:	89 85 d8 f9 ff ff    	mov    %eax,-0x628(%rbp)
  405d42:	48 8b 85 60 f9 ff ff 	mov    -0x6a0(%rbp),%rax
  405d49:	48 89 c7             	mov    %rax,%rdi
  405d4c:	e8 51 0b 00 00       	callq  4068a2 <_ZNK5caffe4BlobIfE5widthEv>
  405d51:	89 85 dc f9 ff ff    	mov    %eax,-0x624(%rbp)
  405d57:	48 8d 85 d0 f9 ff ff 	lea    -0x630(%rbp),%rax
  405d5e:	48 89 c7             	mov    %rax,%rdi
  405d61:	e8 00 f8 ff ff       	callq  405566 <_ZNK2CK5Shape10data_countEv>
  405d66:	48 98                	cltq   
  405d68:	48 ba fe ff ff ff ff 	movabs $0x1ffffffffffffffe,%rdx
  405d6f:	ff ff 1f 
  405d72:	48 39 d0             	cmp    %rdx,%rax
  405d75:	77 0e                	ja     405d85 <_ZN2CK5Caffe12test_avgpoolEv+0x3d0>
  405d77:	48 c1 e0 02          	shl    $0x2,%rax
  405d7b:	48 89 c7             	mov    %rax,%rdi
  405d7e:	e8 2d ea ff ff       	callq  4047b0 <_Znam@plt>
  405d83:	eb 05                	jmp    405d8a <_ZN2CK5Caffe12test_avgpoolEv+0x3d5>
  405d85:	e8 c6 eb ff ff       	callq  404950 <__cxa_throw_bad_array_new_length@plt>
  405d8a:	48 89 85 78 f9 ff ff 	mov    %rax,-0x688(%rbp)
  405d91:	48 8d 85 d0 f9 ff ff 	lea    -0x630(%rbp),%rax
  405d98:	48 89 c7             	mov    %rax,%rdi
  405d9b:	e8 c6 f7 ff ff       	callq  405566 <_ZNK2CK5Shape10data_countEv>
  405da0:	48 98                	cltq   
  405da2:	48 8d 1c 85 00 00 00 	lea    0x0(,%rax,4),%rbx
  405da9:	00 
  405daa:	48 8b 85 60 f9 ff ff 	mov    -0x6a0(%rbp),%rax
  405db1:	48 89 c7             	mov    %rax,%rdi
  405db4:	e8 09 0b 00 00       	callq  4068c2 <_ZNK5caffe4BlobIfE4dataEv>
  405db9:	48 89 c7             	mov    %rax,%rdi
  405dbc:	e8 ef 0b 00 00       	callq  4069b0 <_ZNK5boost10shared_ptrIN5caffe12SyncedMemoryEEptEv>
  405dc1:	48 89 c7             	mov    %rax,%rdi
  405dc4:	e8 a7 eb ff ff       	callq  404970 <_ZN5caffe12SyncedMemory8cpu_dataEv@plt>
  405dc9:	48 89 c1             	mov    %rax,%rcx
  405dcc:	48 8b 85 78 f9 ff ff 	mov    -0x688(%rbp),%rax
  405dd3:	48 89 da             	mov    %rbx,%rdx
  405dd6:	48 89 ce             	mov    %rcx,%rsi
  405dd9:	48 89 c7             	mov    %rax,%rdi
  405ddc:	e8 8f e8 ff ff       	callq  404670 <memcpy@plt>
  405de1:	48 8d 95 d0 f9 ff ff 	lea    -0x630(%rbp),%rdx
  405de8:	48 8b 85 78 f9 ff ff 	mov    -0x688(%rbp),%rax
  405def:	48 89 d6             	mov    %rdx,%rsi
  405df2:	48 89 c7             	mov    %rax,%rdi
  405df5:	e8 f0 0b 00 00       	callq  4069ea <_ZN2CK21print_output_raw_dataIfEEvPT_RKNS_5ShapeE>
  405dfa:	48 8d 95 d0 f9 ff ff 	lea    -0x630(%rbp),%rdx
  405e01:	48 8b 85 78 f9 ff ff 	mov    -0x688(%rbp),%rax
  405e08:	48 89 d6             	mov    %rdx,%rsi
  405e0b:	48 89 c7             	mov    %rax,%rdi
  405e0e:	e8 04 0c 00 00       	callq  406a17 <_ZN2CK20dump_output_raw_dataIfEEvPT_RKNS_5ShapeE>
  405e13:	48 83 bd 78 f9 ff ff 	cmpq   $0x0,-0x688(%rbp)
  405e1a:	00 
  405e1b:	74 0f                	je     405e2c <_ZN2CK5Caffe12test_avgpoolEv+0x477>
  405e1d:	48 8b 85 78 f9 ff ff 	mov    -0x688(%rbp),%rax
  405e24:	48 89 c7             	mov    %rax,%rdi
  405e27:	e8 54 e9 ff ff       	callq  404780 <_ZdaPv@plt>
  405e2c:	48 8b 9d 58 f9 ff ff 	mov    -0x6a8(%rbp),%rbx
  405e33:	48 85 db             	test   %rbx,%rbx
  405e36:	74 10                	je     405e48 <_ZN2CK5Caffe12test_avgpoolEv+0x493>
  405e38:	48 89 df             	mov    %rbx,%rdi
  405e3b:	e8 2a fb ff ff       	callq  40596a <_ZN5caffe4BlobIfED1Ev>
  405e40:	48 89 df             	mov    %rbx,%rdi
  405e43:	e8 b8 e9 ff ff       	callq  404800 <_ZdlPv@plt>
  405e48:	48 8b 9d 60 f9 ff ff 	mov    -0x6a0(%rbp),%rbx
  405e4f:	48 85 db             	test   %rbx,%rbx
  405e52:	74 10                	je     405e64 <_ZN2CK5Caffe12test_avgpoolEv+0x4af>
  405e54:	48 89 df             	mov    %rbx,%rdi
  405e57:	e8 0e fb ff ff       	callq  40596a <_ZN5caffe4BlobIfED1Ev>
  405e5c:	48 89 df             	mov    %rbx,%rdi
  405e5f:	e8 9c e9 ff ff       	callq  404800 <_ZdlPv@plt>
  405e64:	e8 30 fa ff ff       	callq  405899 <_ZN2CK11finish_testEv>
  405e69:	48 8d 85 50 fc ff ff 	lea    -0x3b0(%rbp),%rax
  405e70:	48 89 c7             	mov    %rax,%rdi
  405e73:	e8 06 61 00 00       	callq  40bf7e <_ZN5caffe12PoolingLayerIfED1Ev>
  405e78:	48 8d 85 f0 f9 ff ff 	lea    -0x610(%rbp),%rax
  405e7f:	48 89 c7             	mov    %rax,%rdi
  405e82:	e8 a9 ec ff ff       	callq  404b30 <_ZN5caffe14LayerParameterD1Ev@plt>
  405e87:	48 8d 85 b0 f9 ff ff 	lea    -0x650(%rbp),%rax
  405e8e:	48 89 c7             	mov    %rax,%rdi
  405e91:	e8 f2 03 00 00       	callq  406288 <_ZNSt6vectorIPN5caffe4BlobIfEESaIS3_EED1Ev>
  405e96:	48 8d 85 90 f9 ff ff 	lea    -0x670(%rbp),%rax
  405e9d:	48 89 c7             	mov    %rax,%rdi
  405ea0:	e8 e3 03 00 00       	callq  406288 <_ZNSt6vectorIPN5caffe4BlobIfEESaIS3_EED1Ev>
  405ea5:	90                   	nop
  405ea6:	48 8b 45 e8          	mov    -0x18(%rbp),%rax
  405eaa:	64 48 33 04 25 28 00 	xor    %fs:0x28,%rax
  405eb1:	00 00 
  405eb3:	74 76                	je     405f2b <_ZN2CK5Caffe12test_avgpoolEv+0x576>
  405eb5:	eb 6f                	jmp    405f26 <_ZN2CK5Caffe12test_avgpoolEv+0x571>
  405eb7:	49 89 c4             	mov    %rax,%r12
  405eba:	48 89 df             	mov    %rbx,%rdi
  405ebd:	e8 3e e9 ff ff       	callq  404800 <_ZdlPv@plt>
  405ec2:	4c 89 e0             	mov    %r12,%rax
  405ec5:	48 89 c7             	mov    %rax,%rdi
  405ec8:	e8 c3 e9 ff ff       	callq  404890 <_Unwind_Resume@plt>
  405ecd:	48 89 c3             	mov    %rax,%rbx
  405ed0:	48 8d 85 50 fc ff ff 	lea    -0x3b0(%rbp),%rax
  405ed7:	48 89 c7             	mov    %rax,%rdi
  405eda:	e8 9f 60 00 00       	callq  40bf7e <_ZN5caffe12PoolingLayerIfED1Ev>
  405edf:	eb 03                	jmp    405ee4 <_ZN2CK5Caffe12test_avgpoolEv+0x52f>
  405ee1:	48 89 c3             	mov    %rax,%rbx
  405ee4:	48 8d 85 f0 f9 ff ff 	lea    -0x610(%rbp),%rax
  405eeb:	48 89 c7             	mov    %rax,%rdi
  405eee:	e8 3d ec ff ff       	callq  404b30 <_ZN5caffe14LayerParameterD1Ev@plt>
  405ef3:	eb 03                	jmp    405ef8 <_ZN2CK5Caffe12test_avgpoolEv+0x543>
  405ef5:	48 89 c3             	mov    %rax,%rbx
  405ef8:	48 8d 85 b0 f9 ff ff 	lea    -0x650(%rbp),%rax
  405eff:	48 89 c7             	mov    %rax,%rdi
  405f02:	e8 81 03 00 00       	callq  406288 <_ZNSt6vectorIPN5caffe4BlobIfEESaIS3_EED1Ev>
  405f07:	eb 03                	jmp    405f0c <_ZN2CK5Caffe12test_avgpoolEv+0x557>
  405f09:	48 89 c3             	mov    %rax,%rbx
  405f0c:	48 8d 85 90 f9 ff ff 	lea    -0x670(%rbp),%rax
  405f13:	48 89 c7             	mov    %rax,%rdi
  405f16:	e8 6d 03 00 00       	callq  406288 <_ZNSt6vectorIPN5caffe4BlobIfEESaIS3_EED1Ev>
  405f1b:	48 89 d8             	mov    %rbx,%rax
  405f1e:	48 89 c7             	mov    %rax,%rdi
  405f21:	e8 6a e9 ff ff       	callq  404890 <_Unwind_Resume@plt>
  405f26:	e8 f5 e7 ff ff       	callq  404720 <__stack_chk_fail@plt>
  405f2b:	48 81 c4 b0 06 00 00 	add    $0x6b0,%rsp
  405f32:	5b                   	pop    %rbx
  405f33:	41 5c                	pop    %r12
  405f35:	5d                   	pop    %rbp
  405f36:	c3                   	retq   

0000000000405f37 <_ZN6google12Check_LEImplIiiEEPNSt7__cxx1112basic_stringIcSt11char_traitsIcESaIcEEERKT_RKT0_PKc>:
  405f37:	55                   	push   %rbp
  405f38:	48 89 e5             	mov    %rsp,%rbp
  405f3b:	48 83 ec 20          	sub    $0x20,%rsp
  405f3f:	48 89 7d f8          	mov    %rdi,-0x8(%rbp)
  405f43:	48 89 75 f0          	mov    %rsi,-0x10(%rbp)
  405f47:	48 89 55 e8          	mov    %rdx,-0x18(%rbp)
  405f4b:	48 8b 45 f8          	mov    -0x8(%rbp),%rax
  405f4f:	8b 10                	mov    (%rax),%edx
  405f51:	48 8b 45 f0          	mov    -0x10(%rbp),%rax
  405f55:	8b 00                	mov    (%rax),%eax
  405f57:	39 c2                	cmp    %eax,%edx
  405f59:	0f 9e c0             	setle  %al
  405f5c:	0f b6 c0             	movzbl %al,%eax
  405f5f:	48 85 c0             	test   %rax,%rax
  405f62:	74 07                	je     405f6b <_ZN6google12Check_LEImplIiiEEPNSt7__cxx1112basic_stringIcSt11char_traitsIcESaIcEEERKT_RKT0_PKc+0x34>
  405f64:	b8 00 00 00 00       	mov    $0x0,%eax
  405f69:	eb 17                	jmp    405f82 <_ZN6google12Check_LEImplIiiEEPNSt7__cxx1112basic_stringIcSt11char_traitsIcESaIcEEERKT_RKT0_PKc+0x4b>
  405f6b:	48 8b 55 e8          	mov    -0x18(%rbp),%rdx
  405f6f:	48 8b 4d f0          	mov    -0x10(%rbp),%rcx
  405f73:	48 8b 45 f8          	mov    -0x8(%rbp),%rax
  405f77:	48 89 ce             	mov    %rcx,%rsi
  405f7a:	48 89 c7             	mov    %rax,%rdi
  405f7d:	e8 8e 0b 00 00       	callq  406b10 <_ZN6google17MakeCheckOpStringIiiEEPNSt7__cxx1112basic_stringIcSt11char_traitsIcESaIcEEERKT_RKT0_PKc>
  405f82:	c9                   	leaveq 
  405f83:	c3                   	retq   

0000000000405f84 <_ZN6google12Check_LTImplIiiEEPNSt7__cxx1112basic_stringIcSt11char_traitsIcESaIcEEERKT_RKT0_PKc>:
  405f84:	55                   	push   %rbp
  405f85:	48 89 e5             	mov    %rsp,%rbp
  405f88:	48 83 ec 20          	sub    $0x20,%rsp
  405f8c:	48 89 7d f8          	mov    %rdi,-0x8(%rbp)
  405f90:	48 89 75 f0          	mov    %rsi,-0x10(%rbp)
  405f94:	48 89 55 e8          	mov    %rdx,-0x18(%rbp)
  405f98:	48 8b 45 f8          	mov    -0x8(%rbp),%rax
  405f9c:	8b 10                	mov    (%rax),%edx
  405f9e:	48 8b 45 f0          	mov    -0x10(%rbp),%rax
  405fa2:	8b 00                	mov    (%rax),%eax
  405fa4:	39 c2                	cmp    %eax,%edx
  405fa6:	0f 9c c0             	setl   %al
  405fa9:	0f b6 c0             	movzbl %al,%eax
  405fac:	48 85 c0             	test   %rax,%rax
  405faf:	74 07                	je     405fb8 <_ZN6google12Check_LTImplIiiEEPNSt7__cxx1112basic_stringIcSt11char_traitsIcESaIcEEERKT_RKT0_PKc+0x34>
  405fb1:	b8 00 00 00 00       	mov    $0x0,%eax
  405fb6:	eb 17                	jmp    405fcf <_ZN6google12Check_LTImplIiiEEPNSt7__cxx1112basic_stringIcSt11char_traitsIcESaIcEEERKT_RKT0_PKc+0x4b>
  405fb8:	48 8b 55 e8          	mov    -0x18(%rbp),%rdx
  405fbc:	48 8b 4d f0          	mov    -0x10(%rbp),%rcx
  405fc0:	48 8b 45 f8          	mov    -0x8(%rbp),%rax
  405fc4:	48 89 ce             	mov    %rcx,%rsi
  405fc7:	48 89 c7             	mov    %rax,%rdi
  405fca:	e8 41 0b 00 00       	callq  406b10 <_ZN6google17MakeCheckOpStringIiiEEPNSt7__cxx1112basic_stringIcSt11char_traitsIcESaIcEEERKT_RKT0_PKc>
  405fcf:	c9                   	leaveq 
  405fd0:	c3                   	retq   

0000000000405fd1 <_ZN6google12Check_GEImplIiiEEPNSt7__cxx1112basic_stringIcSt11char_traitsIcESaIcEEERKT_RKT0_PKc>:
  405fd1:	55                   	push   %rbp
  405fd2:	48 89 e5             	mov    %rsp,%rbp
  405fd5:	48 83 ec 20          	sub    $0x20,%rsp
  405fd9:	48 89 7d f8          	mov    %rdi,-0x8(%rbp)
  405fdd:	48 89 75 f0          	mov    %rsi,-0x10(%rbp)
  405fe1:	48 89 55 e8          	mov    %rdx,-0x18(%rbp)
  405fe5:	48 8b 45 f8          	mov    -0x8(%rbp),%rax
  405fe9:	8b 10                	mov    (%rax),%edx
  405feb:	48 8b 45 f0          	mov    -0x10(%rbp),%rax
  405fef:	8b 00                	mov    (%rax),%eax
  405ff1:	39 c2                	cmp    %eax,%edx
  405ff3:	0f 9d c0             	setge  %al
  405ff6:	0f b6 c0             	movzbl %al,%eax
  405ff9:	48 85 c0             	test   %rax,%rax
  405ffc:	74 07                	je     406005 <_ZN6google12Check_GEImplIiiEEPNSt7__cxx1112basic_stringIcSt11char_traitsIcESaIcEEERKT_RKT0_PKc+0x34>
  405ffe:	b8 00 00 00 00       	mov    $0x0,%eax
  406003:	eb 17                	jmp    40601c <_ZN6google12Check_GEImplIiiEEPNSt7__cxx1112basic_stringIcSt11char_traitsIcESaIcEEERKT_RKT0_PKc+0x4b>
  406005:	48 8b 55 e8          	mov    -0x18(%rbp),%rdx
  406009:	48 8b 4d f0          	mov    -0x10(%rbp),%rcx
  40600d:	48 8b 45 f8          	mov    -0x8(%rbp),%rax
  406011:	48 89 ce             	mov    %rcx,%rsi
  406014:	48 89 c7             	mov    %rax,%rdi
  406017:	e8 f4 0a 00 00       	callq  406b10 <_ZN6google17MakeCheckOpStringIiiEEPNSt7__cxx1112basic_stringIcSt11char_traitsIcESaIcEEERKT_RKT0_PKc>
  40601c:	c9                   	leaveq 
  40601d:	c3                   	retq   

000000000040601e <_ZNK6google8protobuf13RepeatedFieldIfE4sizeEv>:
  40601e:	55                   	push   %rbp
  40601f:	48 89 e5             	mov    %rsp,%rbp
  406022:	48 89 7d f8          	mov    %rdi,-0x8(%rbp)
  406026:	48 8b 45 f8          	mov    -0x8(%rbp),%rax
  40602a:	8b 00                	mov    (%rax),%eax
  40602c:	5d                   	pop    %rbp
  40602d:	c3                   	retq   

000000000040602e <_ZNK6google8protobuf13RepeatedFieldIfE3GetEi>:
  40602e:	55                   	push   %rbp
  40602f:	48 89 e5             	mov    %rsp,%rbp
  406032:	41 54                	push   %r12
  406034:	53                   	push   %rbx
  406035:	48 81 ec a0 00 00 00 	sub    $0xa0,%rsp
  40603c:	48 89 bd 58 ff ff ff 	mov    %rdi,-0xa8(%rbp)
  406043:	89 b5 54 ff ff ff    	mov    %esi,-0xac(%rbp)
  406049:	64 48 8b 04 25 28 00 	mov    %fs:0x28,%rax
  406050:	00 00 
  406052:	48 89 45 e8          	mov    %rax,-0x18(%rbp)
  406056:	31 c0                	xor    %eax,%eax
  406058:	bb 00 00 00 00       	mov    $0x0,%ebx
  40605d:	41 bc 00 00 00 00    	mov    $0x0,%r12d
  406063:	83 bd 54 ff ff ff 00 	cmpl   $0x0,-0xac(%rbp)
  40606a:	79 52                	jns    4060be <_ZNK6google8protobuf13RepeatedFieldIfE3GetEi+0x90>
  40606c:	48 8d 85 70 ff ff ff 	lea    -0x90(%rbp),%rax
  406073:	b9 43 04 00 00       	mov    $0x443,%ecx
  406078:	ba 20 c6 40 00       	mov    $0x40c620,%edx
  40607d:	be 03 00 00 00       	mov    $0x3,%esi
  406082:	48 89 c7             	mov    %rax,%rdi
  406085:	e8 a6 e7 ff ff       	callq  404830 <_ZN6google8protobuf8internal10LogMessageC1ENS0_8LogLevelEPKci@plt>
  40608a:	bb 01 00 00 00       	mov    $0x1,%ebx
  40608f:	48 8d 85 70 ff ff ff 	lea    -0x90(%rbp),%rax
  406096:	be 90 c6 40 00       	mov    $0x40c690,%esi
  40609b:	48 89 c7             	mov    %rax,%rdi
  40609e:	e8 9d ea ff ff       	callq  404b40 <_ZN6google8protobuf8internal10LogMessagelsEPKc@plt>
  4060a3:	48 89 c2             	mov    %rax,%rdx
  4060a6:	41 bc 01 00 00 00    	mov    $0x1,%r12d
  4060ac:	48 8d 85 6e ff ff ff 	lea    -0x92(%rbp),%rax
  4060b3:	48 89 d6             	mov    %rdx,%rsi
  4060b6:	48 89 c7             	mov    %rax,%rdi
  4060b9:	e8 72 e8 ff ff       	callq  404930 <_ZN6google8protobuf8internal11LogFinisheraSERNS1_10LogMessageE@plt>
  4060be:	45 84 e4             	test   %r12b,%r12b
  4060c1:	84 db                	test   %bl,%bl
  4060c3:	74 12                	je     4060d7 <_ZNK6google8protobuf13RepeatedFieldIfE3GetEi+0xa9>
  4060c5:	90                   	nop
  4060c6:	48 8d 85 70 ff ff ff 	lea    -0x90(%rbp),%rax
  4060cd:	48 89 c7             	mov    %rax,%rdi
  4060d0:	e8 db e8 ff ff       	callq  4049b0 <_ZN6google8protobuf8internal10LogMessageD1Ev@plt>
  4060d5:	eb 01                	jmp    4060d8 <_ZNK6google8protobuf13RepeatedFieldIfE3GetEi+0xaa>
  4060d7:	90                   	nop
  4060d8:	48 8b 85 58 ff ff ff 	mov    -0xa8(%rbp),%rax
  4060df:	8b 00                	mov    (%rax),%eax
  4060e1:	bb 00 00 00 00       	mov    $0x0,%ebx
  4060e6:	41 bc 00 00 00 00    	mov    $0x0,%r12d
  4060ec:	3b 85 54 ff ff ff    	cmp    -0xac(%rbp),%eax
  4060f2:	7f 4c                	jg     406140 <_ZNK6google8protobuf13RepeatedFieldIfE3GetEi+0x112>
  4060f4:	48 8d 45 b0          	lea    -0x50(%rbp),%rax
  4060f8:	b9 44 04 00 00       	mov    $0x444,%ecx
  4060fd:	ba 20 c6 40 00       	mov    $0x40c620,%edx
  406102:	be 03 00 00 00       	mov    $0x3,%esi
  406107:	48 89 c7             	mov    %rax,%rdi
  40610a:	e8 21 e7 ff ff       	callq  404830 <_ZN6google8protobuf8internal10LogMessageC1ENS0_8LogLevelEPKci@plt>
  40610f:	bb 01 00 00 00       	mov    $0x1,%ebx
  406114:	48 8d 45 b0          	lea    -0x50(%rbp),%rax
  406118:	be b0 c6 40 00       	mov    $0x40c6b0,%esi
  40611d:	48 89 c7             	mov    %rax,%rdi
  406120:	e8 1b ea ff ff       	callq  404b40 <_ZN6google8protobuf8internal10LogMessagelsEPKc@plt>
  406125:	48 89 c2             	mov    %rax,%rdx
  406128:	41 bc 01 00 00 00    	mov    $0x1,%r12d
  40612e:	48 8d 85 6f ff ff ff 	lea    -0x91(%rbp),%rax
  406135:	48 89 d6             	mov    %rdx,%rsi
  406138:	48 89 c7             	mov    %rax,%rdi
  40613b:	e8 f0 e7 ff ff       	callq  404930 <_ZN6google8protobuf8internal11LogFinisheraSERNS1_10LogMessageE@plt>
  406140:	45 84 e4             	test   %r12b,%r12b
  406143:	84 db                	test   %bl,%bl
  406145:	74 0f                	je     406156 <_ZNK6google8protobuf13RepeatedFieldIfE3GetEi+0x128>
  406147:	90                   	nop
  406148:	48 8d 45 b0          	lea    -0x50(%rbp),%rax
  40614c:	48 89 c7             	mov    %rax,%rdi
  40614f:	e8 5c e8 ff ff       	callq  4049b0 <_ZN6google8protobuf8internal10LogMessageD1Ev@plt>
  406154:	eb 01                	jmp    406157 <_ZNK6google8protobuf13RepeatedFieldIfE3GetEi+0x129>
  406156:	90                   	nop
  406157:	48 8b 85 58 ff ff ff 	mov    -0xa8(%rbp),%rax
  40615e:	48 8b 40 08          	mov    0x8(%rax),%rax
  406162:	8b 95 54 ff ff ff    	mov    -0xac(%rbp),%edx
  406168:	48 63 d2             	movslq %edx,%rdx
  40616b:	48 c1 e2 02          	shl    $0x2,%rdx
  40616f:	48 01 d0             	add    %rdx,%rax
  406172:	48 83 c0 08          	add    $0x8,%rax
  406176:	48 8b 4d e8          	mov    -0x18(%rbp),%rcx
  40617a:	64 48 33 0c 25 28 00 	xor    %fs:0x28,%rcx
  406181:	00 00 
  406183:	74 54                	je     4061d9 <_ZNK6google8protobuf13RepeatedFieldIfE3GetEi+0x1ab>
  406185:	eb 4d                	jmp    4061d4 <_ZNK6google8protobuf13RepeatedFieldIfE3GetEi+0x1a6>
  406187:	45 84 e4             	test   %r12b,%r12b
  40618a:	49 89 c4             	mov    %rax,%r12
  40618d:	84 db                	test   %bl,%bl
  40618f:	74 12                	je     4061a3 <_ZNK6google8protobuf13RepeatedFieldIfE3GetEi+0x175>
  406191:	90                   	nop
  406192:	48 8d 85 70 ff ff ff 	lea    -0x90(%rbp),%rax
  406199:	48 89 c7             	mov    %rax,%rdi
  40619c:	e8 0f e8 ff ff       	callq  4049b0 <_ZN6google8protobuf8internal10LogMessageD1Ev@plt>
  4061a1:	eb 01                	jmp    4061a4 <_ZNK6google8protobuf13RepeatedFieldIfE3GetEi+0x176>
  4061a3:	90                   	nop
  4061a4:	4c 89 e0             	mov    %r12,%rax
  4061a7:	48 89 c7             	mov    %rax,%rdi
  4061aa:	e8 e1 e6 ff ff       	callq  404890 <_Unwind_Resume@plt>
  4061af:	45 84 e4             	test   %r12b,%r12b
  4061b2:	49 89 c4             	mov    %rax,%r12
  4061b5:	84 db                	test   %bl,%bl
  4061b7:	74 0f                	je     4061c8 <_ZNK6google8protobuf13RepeatedFieldIfE3GetEi+0x19a>
  4061b9:	90                   	nop
  4061ba:	48 8d 45 b0          	lea    -0x50(%rbp),%rax
  4061be:	48 89 c7             	mov    %rax,%rdi
  4061c1:	e8 ea e7 ff ff       	callq  4049b0 <_ZN6google8protobuf8internal10LogMessageD1Ev@plt>
  4061c6:	eb 01                	jmp    4061c9 <_ZNK6google8protobuf13RepeatedFieldIfE3GetEi+0x19b>
  4061c8:	90                   	nop
  4061c9:	4c 89 e0             	mov    %r12,%rax
  4061cc:	48 89 c7             	mov    %rax,%rdi
  4061cf:	e8 bc e6 ff ff       	callq  404890 <_Unwind_Resume@plt>
  4061d4:	e8 47 e5 ff ff       	callq  404720 <__stack_chk_fail@plt>
  4061d9:	48 81 c4 a0 00 00 00 	add    $0xa0,%rsp
  4061e0:	5b                   	pop    %rbx
  4061e1:	41 5c                	pop    %r12
  4061e3:	5d                   	pop    %rbp
  4061e4:	c3                   	retq   
  4061e5:	90                   	nop

00000000004061e6 <_ZNK6google8protobuf16RepeatedPtrFieldIN5caffe9BlobProtoEE4sizeEv>:
  4061e6:	55                   	push   %rbp
  4061e7:	48 89 e5             	mov    %rsp,%rbp
  4061ea:	48 83 ec 10          	sub    $0x10,%rsp
  4061ee:	48 89 7d f8          	mov    %rdi,-0x8(%rbp)
  4061f2:	48 8b 45 f8          	mov    -0x8(%rbp),%rax
  4061f6:	48 89 c7             	mov    %rax,%rdi
  4061f9:	e8 9e ee ff ff       	callq  40509c <_ZNK6google8protobuf8internal20RepeatedPtrFieldBase4sizeEv>
  4061fe:	c9                   	leaveq 
  4061ff:	c3                   	retq   

0000000000406200 <_ZN6google8protobuf16RepeatedPtrFieldIN5caffe9BlobProtoEE5ClearEv>:
  406200:	55                   	push   %rbp
  406201:	48 89 e5             	mov    %rsp,%rbp
  406204:	48 83 ec 10          	sub    $0x10,%rsp
  406208:	48 89 7d f8          	mov    %rdi,-0x8(%rbp)
  40620c:	48 8b 45 f8          	mov    -0x8(%rbp),%rax
  406210:	48 89 c7             	mov    %rax,%rdi
  406213:	e8 c0 09 00 00       	callq  406bd8 <_ZN6google8protobuf8internal20RepeatedPtrFieldBase5ClearINS0_16RepeatedPtrFieldIN5caffe9BlobProtoEE11TypeHandlerEEEvv>
  406218:	90                   	nop
  406219:	c9                   	leaveq 
  40621a:	c3                   	retq   
  40621b:	90                   	nop

000000000040621c <_ZNK6google8protobuf16RepeatedPtrFieldIN5caffe9BlobProtoEE3GetEi>:
  40621c:	55                   	push   %rbp
  40621d:	48 89 e5             	mov    %rsp,%rbp
  406220:	48 83 ec 10          	sub    $0x10,%rsp
  406224:	48 89 7d f8          	mov    %rdi,-0x8(%rbp)
  406228:	89 75 f4             	mov    %esi,-0xc(%rbp)
  40622b:	48 8b 45 f8          	mov    -0x8(%rbp),%rax
  40622f:	8b 55 f4             	mov    -0xc(%rbp),%edx
  406232:	89 d6                	mov    %edx,%esi
  406234:	48 89 c7             	mov    %rax,%rdi
  406237:	e8 de 0a 00 00       	callq  406d1a <_ZNK6google8protobuf8internal20RepeatedPtrFieldBase3GetINS0_16RepeatedPtrFieldIN5caffe9BlobProtoEE11TypeHandlerEEERKNT_4TypeEi>
  40623c:	c9                   	leaveq 
  40623d:	c3                   	retq   

000000000040623e <_ZN6google8protobuf16RepeatedPtrFieldIN5caffe9BlobProtoEE3AddEv>:
  40623e:	55                   	push   %rbp
  40623f:	48 89 e5             	mov    %rsp,%rbp
  406242:	48 83 ec 10          	sub    $0x10,%rsp
  406246:	48 89 7d f8          	mov    %rdi,-0x8(%rbp)
  40624a:	48 8b 45 f8          	mov    -0x8(%rbp),%rax
  40624e:	be 00 00 00 00       	mov    $0x0,%esi
  406253:	48 89 c7             	mov    %rax,%rdi
  406256:	e8 79 0c 00 00       	callq  406ed4 <_ZN6google8protobuf8internal20RepeatedPtrFieldBase3AddINS0_16RepeatedPtrFieldIN5caffe9BlobProtoEE11TypeHandlerEEEPNT_4TypeESB_>
  40625b:	c9                   	leaveq 
  40625c:	c3                   	retq   
  40625d:	90                   	nop

000000000040625e <_ZNK6google8protobuf8internal21ExplicitlyConstructedIN5caffe16PoolingParameterEE3getEv>:
  40625e:	55                   	push   %rbp
  40625f:	48 89 e5             	mov    %rsp,%rbp
  406262:	48 89 7d f8          	mov    %rdi,-0x8(%rbp)
  406266:	48 8b 45 f8          	mov    -0x8(%rbp),%rax
  40626a:	5d                   	pop    %rbp
  40626b:	c3                   	retq   

000000000040626c <_ZNSt6vectorIPN5caffe4BlobIfEESaIS3_EEC1Ev>:
  40626c:	55                   	push   %rbp
  40626d:	48 89 e5             	mov    %rsp,%rbp
  406270:	48 83 ec 10          	sub    $0x10,%rsp
  406274:	48 89 7d f8          	mov    %rdi,-0x8(%rbp)
  406278:	48 8b 45 f8          	mov    -0x8(%rbp),%rax
  40627c:	48 89 c7             	mov    %rax,%rdi
  40627f:	e8 58 0d 00 00       	callq  406fdc <_ZNSt12_Vector_baseIPN5caffe4BlobIfEESaIS3_EEC1Ev>
  406284:	90                   	nop
  406285:	c9                   	leaveq 
  406286:	c3                   	retq   
  406287:	90                   	nop

0000000000406288 <_ZNSt6vectorIPN5caffe4BlobIfEESaIS3_EED1Ev>:
  406288:	55                   	push   %rbp
  406289:	48 89 e5             	mov    %rsp,%rbp
  40628c:	48 83 ec 10          	sub    $0x10,%rsp
  406290:	48 89 7d f8          	mov    %rdi,-0x8(%rbp)
  406294:	48 8b 45 f8          	mov    -0x8(%rbp),%rax
  406298:	48 89 c7             	mov    %rax,%rdi
  40629b:	e8 a8 0d 00 00       	callq  407048 <_ZNSt12_Vector_baseIPN5caffe4BlobIfEESaIS3_EE19_M_get_Tp_allocatorEv>
  4062a0:	48 89 c2             	mov    %rax,%rdx
  4062a3:	48 8b 45 f8          	mov    -0x8(%rbp),%rax
  4062a7:	48 8b 48 08          	mov    0x8(%rax),%rcx
  4062ab:	48 8b 45 f8          	mov    -0x8(%rbp),%rax
  4062af:	48 8b 00             	mov    (%rax),%rax
  4062b2:	48 89 ce             	mov    %rcx,%rsi
  4062b5:	48 89 c7             	mov    %rax,%rdi
  4062b8:	e8 99 0d 00 00       	callq  407056 <_ZSt8_DestroyIPPN5caffe4BlobIfEES3_EvT_S5_RSaIT0_E>
  4062bd:	48 8b 45 f8          	mov    -0x8(%rbp),%rax
  4062c1:	48 89 c7             	mov    %rax,%rdi
  4062c4:	e8 2f 0d 00 00       	callq  406ff8 <_ZNSt12_Vector_baseIPN5caffe4BlobIfEESaIS3_EED1Ev>
  4062c9:	90                   	nop
  4062ca:	c9                   	leaveq 
  4062cb:	c3                   	retq   

00000000004062cc <_ZNSt6vectorIPN5caffe4BlobIfEESaIS3_EE9push_backERKS3_>:
  4062cc:	55                   	push   %rbp
  4062cd:	48 89 e5             	mov    %rsp,%rbp
  4062d0:	48 83 ec 10          	sub    $0x10,%rsp
  4062d4:	48 89 7d f8          	mov    %rdi,-0x8(%rbp)
  4062d8:	48 89 75 f0          	mov    %rsi,-0x10(%rbp)
  4062dc:	48 8b 45 f8          	mov    -0x8(%rbp),%rax
  4062e0:	48 8b 50 08          	mov    0x8(%rax),%rdx
  4062e4:	48 8b 45 f8          	mov    -0x8(%rbp),%rax
  4062e8:	48 8b 40 10          	mov    0x10(%rax),%rax
  4062ec:	48 39 c2             	cmp    %rax,%rdx
  4062ef:	74 31                	je     406322 <_ZNSt6vectorIPN5caffe4BlobIfEESaIS3_EE9push_backERKS3_+0x56>
  4062f1:	48 8b 45 f8          	mov    -0x8(%rbp),%rax
  4062f5:	48 8b 48 08          	mov    0x8(%rax),%rcx
  4062f9:	48 8b 45 f8          	mov    -0x8(%rbp),%rax
  4062fd:	48 8b 55 f0          	mov    -0x10(%rbp),%rdx
  406301:	48 89 ce             	mov    %rcx,%rsi
  406304:	48 89 c7             	mov    %rax,%rdi
  406307:	e8 82 0d 00 00       	callq  40708e <_ZNSt16allocator_traitsISaIPN5caffe4BlobIfEEEE9constructIS3_JRKS3_EEEvRS4_PT_DpOT0_>
  40630c:	48 8b 45 f8          	mov    -0x8(%rbp),%rax
  406310:	48 8b 40 08          	mov    0x8(%rax),%rax
  406314:	48 8d 50 08          	lea    0x8(%rax),%rdx
  406318:	48 8b 45 f8          	mov    -0x8(%rbp),%rax
  40631c:	48 89 50 08          	mov    %rdx,0x8(%rax)
  406320:	eb 13                	jmp    406335 <_ZNSt6vectorIPN5caffe4BlobIfEESaIS3_EE9push_backERKS3_+0x69>
  406322:	48 8b 55 f0          	mov    -0x10(%rbp),%rdx
  406326:	48 8b 45 f8          	mov    -0x8(%rbp),%rax
  40632a:	48 89 d6             	mov    %rdx,%rsi
  40632d:	48 89 c7             	mov    %rax,%rdi
  406330:	e8 93 0d 00 00       	callq  4070c8 <_ZNSt6vectorIPN5caffe4BlobIfEESaIS3_EE19_M_emplace_back_auxIJRKS3_EEEvDpOT_>
  406335:	90                   	nop
  406336:	c9                   	leaveq 
  406337:	c3                   	retq   

0000000000406338 <_ZN5caffe4BlobIfEC1Ev>:
  406338:	55                   	push   %rbp
  406339:	48 89 e5             	mov    %rsp,%rbp
  40633c:	48 83 ec 10          	sub    $0x10,%rsp
  406340:	48 89 7d f8          	mov    %rdi,-0x8(%rbp)
  406344:	48 8b 45 f8          	mov    -0x8(%rbp),%rax
  406348:	48 89 c7             	mov    %rax,%rdi
  40634b:	e8 62 0f 00 00       	callq  4072b2 <_ZN5boost10shared_ptrIN5caffe12SyncedMemoryEEC1Ev>
  406350:	48 8b 45 f8          	mov    -0x8(%rbp),%rax
  406354:	48 83 c0 10          	add    $0x10,%rax
  406358:	48 89 c7             	mov    %rax,%rdi
  40635b:	e8 52 0f 00 00       	callq  4072b2 <_ZN5boost10shared_ptrIN5caffe12SyncedMemoryEEC1Ev>
  406360:	48 8b 45 f8          	mov    -0x8(%rbp),%rax
  406364:	48 83 c0 20          	add    $0x20,%rax
  406368:	48 89 c7             	mov    %rax,%rdi
  40636b:	e8 42 0f 00 00       	callq  4072b2 <_ZN5boost10shared_ptrIN5caffe12SyncedMemoryEEC1Ev>
  406370:	48 8b 45 f8          	mov    -0x8(%rbp),%rax
  406374:	48 83 c0 30          	add    $0x30,%rax
  406378:	48 89 c7             	mov    %rax,%rdi
  40637b:	e8 5c 0f 00 00       	callq  4072dc <_ZNSt6vectorIiSaIiEEC1Ev>
  406380:	48 8b 45 f8          	mov    -0x8(%rbp),%rax
  406384:	c7 40 48 00 00 00 00 	movl   $0x0,0x48(%rax)
  40638b:	48 8b 45 f8          	mov    -0x8(%rbp),%rax
  40638f:	c7 40 4c 00 00 00 00 	movl   $0x0,0x4c(%rax)
  406396:	90                   	nop
  406397:	c9                   	leaveq 
  406398:	c3                   	retq   
  406399:	90                   	nop

000000000040639a <_ZN5caffe4BlobIiED1Ev>:
  40639a:	55                   	push   %rbp
  40639b:	48 89 e5             	mov    %rsp,%rbp
  40639e:	48 83 ec 10          	sub    $0x10,%rsp
  4063a2:	48 89 7d f8          	mov    %rdi,-0x8(%rbp)
  4063a6:	48 8b 45 f8          	mov    -0x8(%rbp),%rax
  4063aa:	48 83 c0 30          	add    $0x30,%rax
  4063ae:	48 89 c7             	mov    %rax,%rdi
  4063b1:	e8 16 07 00 00       	callq  406acc <_ZNSt6vectorIiSaIiEED1Ev>
  4063b6:	48 8b 45 f8          	mov    -0x8(%rbp),%rax
  4063ba:	48 83 c0 20          	add    $0x20,%rax
  4063be:	48 89 c7             	mov    %rax,%rdi
  4063c1:	e8 84 f5 ff ff       	callq  40594a <_ZN5boost10shared_ptrIN5caffe12SyncedMemoryEED1Ev>
  4063c6:	48 8b 45 f8          	mov    -0x8(%rbp),%rax
  4063ca:	48 83 c0 10          	add    $0x10,%rax
  4063ce:	48 89 c7             	mov    %rax,%rdi
  4063d1:	e8 74 f5 ff ff       	callq  40594a <_ZN5boost10shared_ptrIN5caffe12SyncedMemoryEED1Ev>
  4063d6:	48 8b 45 f8          	mov    -0x8(%rbp),%rax
  4063da:	48 89 c7             	mov    %rax,%rdi
  4063dd:	e8 68 f5 ff ff       	callq  40594a <_ZN5boost10shared_ptrIN5caffe12SyncedMemoryEED1Ev>
  4063e2:	90                   	nop
  4063e3:	c9                   	leaveq 
  4063e4:	c3                   	retq   
  4063e5:	90                   	nop

00000000004063e6 <_ZN5caffe12PoolingLayerIfEC1ERKNS_14LayerParameterE>:
  4063e6:	55                   	push   %rbp
  4063e7:	48 89 e5             	mov    %rsp,%rbp
  4063ea:	48 83 ec 10          	sub    $0x10,%rsp
  4063ee:	48 89 7d f8          	mov    %rdi,-0x8(%rbp)
  4063f2:	48 89 75 f0          	mov    %rsi,-0x10(%rbp)
  4063f6:	48 8b 45 f8          	mov    -0x8(%rbp),%rax
  4063fa:	48 8b 55 f0          	mov    -0x10(%rbp),%rdx
  4063fe:	48 89 d6             	mov    %rdx,%rsi
  406401:	48 89 c7             	mov    %rax,%rdi
  406404:	e8 ef 0e 00 00       	callq  4072f8 <_ZN5caffe5LayerIfEC1ERKNS_14LayerParameterE>
  406409:	ba 58 cf 40 00       	mov    $0x40cf58,%edx
  40640e:	48 8b 45 f8          	mov    -0x8(%rbp),%rax
  406412:	48 89 10             	mov    %rdx,(%rax)
  406415:	48 8b 45 f8          	mov    -0x8(%rbp),%rax
  406419:	48 05 f0 02 00 00    	add    $0x2f0,%rax
  40641f:	48 89 c7             	mov    %rax,%rdi
  406422:	e8 11 ff ff ff       	callq  406338 <_ZN5caffe4BlobIfEC1Ev>
  406427:	48 8b 45 f8          	mov    -0x8(%rbp),%rax
  40642b:	48 05 40 03 00 00    	add    $0x340,%rax
  406431:	48 89 c7             	mov    %rax,%rdi
  406434:	e8 1f 11 00 00       	callq  407558 <_ZN5caffe4BlobIiEC1Ev>
  406439:	90                   	nop
  40643a:	c9                   	leaveq 
  40643b:	c3                   	retq   

000000000040643c <_ZN5caffe5LayerIfE5SetUpERKSt6vectorIPNS_4BlobIfEESaIS5_EES9_>:
  40643c:	55                   	push   %rbp
  40643d:	48 89 e5             	mov    %rsp,%rbp
  406440:	48 83 ec 20          	sub    $0x20,%rsp
  406444:	48 89 7d f8          	mov    %rdi,-0x8(%rbp)
  406448:	48 89 75 f0          	mov    %rsi,-0x10(%rbp)
  40644c:	48 89 55 e8          	mov    %rdx,-0x18(%rbp)
  406450:	48 8b 45 f8          	mov    -0x8(%rbp),%rax
  406454:	48 8b 00             	mov    (%rax),%rax
  406457:	48 05 98 00 00 00    	add    $0x98,%rax
  40645d:	48 8b 00             	mov    (%rax),%rax
  406460:	48 8b 55 e8          	mov    -0x18(%rbp),%rdx
  406464:	48 8b 75 f0          	mov    -0x10(%rbp),%rsi
  406468:	48 8b 4d f8          	mov    -0x8(%rbp),%rcx
  40646c:	48 89 cf             	mov    %rcx,%rdi
  40646f:	ff d0                	callq  *%rax
  406471:	48 8b 45 f8          	mov    -0x8(%rbp),%rax
  406475:	48 8b 00             	mov    (%rax),%rax
  406478:	48 83 c0 10          	add    $0x10,%rax
  40647c:	48 8b 00             	mov    (%rax),%rax
  40647f:	48 8b 55 e8          	mov    -0x18(%rbp),%rdx
  406483:	48 8b 75 f0          	mov    -0x10(%rbp),%rsi
  406487:	48 8b 4d f8          	mov    -0x8(%rbp),%rcx
  40648b:	48 89 cf             	mov    %rcx,%rdi
  40648e:	ff d0                	callq  *%rax
  406490:	48 8b 45 f8          	mov    -0x8(%rbp),%rax
  406494:	48 8b 00             	mov    (%rax),%rax
  406497:	48 83 c0 18          	add    $0x18,%rax
  40649b:	48 8b 00             	mov    (%rax),%rax
  40649e:	48 8b 55 e8          	mov    -0x18(%rbp),%rdx
  4064a2:	48 8b 75 f0          	mov    -0x10(%rbp),%rsi
  4064a6:	48 8b 4d f8          	mov    -0x8(%rbp),%rcx
  4064aa:	48 89 cf             	mov    %rcx,%rdi
  4064ad:	ff d0                	callq  *%rax
  4064af:	48 8b 55 e8          	mov    -0x18(%rbp),%rdx
  4064b3:	48 8b 45 f8          	mov    -0x8(%rbp),%rax
  4064b7:	48 89 d6             	mov    %rdx,%rsi
  4064ba:	48 89 c7             	mov    %rax,%rdi
  4064bd:	e8 c4 19 00 00       	callq  407e86 <_ZN5caffe5LayerIfE14SetLossWeightsERKSt6vectorIPNS_4BlobIfEESaIS5_EE>
  4064c2:	90                   	nop
  4064c3:	c9                   	leaveq 
  4064c4:	c3                   	retq   

00000000004064c5 <_ZN2CK13measure_setupIZNS_5Caffe12test_avgpoolEvEUlvE_EEvOT_>:
  4064c5:	55                   	push   %rbp
  4064c6:	48 89 e5             	mov    %rsp,%rbp
  4064c9:	48 83 ec 10          	sub    $0x10,%rsp
  4064cd:	48 89 7d f8          	mov    %rdi,-0x8(%rbp)
  4064d1:	48 8b 45 f8          	mov    -0x8(%rbp),%rax
  4064d5:	be 00 00 00 00       	mov    $0x0,%esi
  4064da:	48 89 c7             	mov    %rax,%rdi
  4064dd:	e8 8c 1b 00 00       	callq  40806e <_ZN2CK11do_measuredIRZNS_5Caffe12test_avgpoolEvEUlvE_EEvOT_i>
  4064e2:	bf 00 00 00 00       	mov    $0x0,%edi
  4064e7:	e8 e4 e2 ff ff       	callq  4047d0 <xopenme_get_timer@plt>
  4064ec:	f2 0f 5a c0          	cvtsd2ss %xmm0,%xmm0
  4064f0:	e8 81 e7 ff ff       	callq  404c76 <_ZN2CK16store_setup_timeEf>
  4064f5:	90                   	nop
  4064f6:	c9                   	leaveq 
  4064f7:	c3                   	retq   

00000000004064f8 <_ZN2CK19get_random_raw_dataIfEEPT_RKNS_5ShapeE>:
  4064f8:	55                   	push   %rbp
  4064f9:	48 89 e5             	mov    %rsp,%rbp
  4064fc:	53                   	push   %rbx
  4064fd:	48 83 ec 38          	sub    $0x38,%rsp
  406501:	48 89 7d c8          	mov    %rdi,-0x38(%rbp)
  406505:	ba 20 00 00 00       	mov    $0x20,%edx
  40650a:	be da c6 40 00       	mov    $0x40c6da,%esi
  40650f:	bf 09 00 00 00       	mov    $0x9,%edi
  406514:	e8 33 f1 ff ff       	callq  40564c <_ZN2CK13store_value_iEiPKci>
  406519:	c7 45 dc 40 42 0f 00 	movl   $0xf4240,-0x24(%rbp)
  406520:	c7 45 e0 81 84 1e 00 	movl   $0x1e8481,-0x20(%rbp)
  406527:	48 8b 45 c8          	mov    -0x38(%rbp),%rax
  40652b:	48 89 c7             	mov    %rax,%rdi
  40652e:	e8 33 f0 ff ff       	callq  405566 <_ZNK2CK5Shape10data_countEv>
  406533:	89 45 e4             	mov    %eax,-0x1c(%rbp)
  406536:	8b 45 e4             	mov    -0x1c(%rbp),%eax
  406539:	48 63 d0             	movslq %eax,%rdx
  40653c:	48 b8 fe ff ff ff ff 	movabs $0x1ffffffffffffffe,%rax
  406543:	ff ff 1f 
  406546:	48 39 c2             	cmp    %rax,%rdx
  406549:	77 1e                	ja     406569 <_ZN2CK19get_random_raw_dataIfEEPT_RKNS_5ShapeE+0x71>
  40654b:	8b 45 e4             	mov    -0x1c(%rbp),%eax
  40654e:	48 98                	cltq   
  406550:	48 c1 e0 02          	shl    $0x2,%rax
  406554:	48 89 c7             	mov    %rax,%rdi
  406557:	e8 54 e2 ff ff       	callq  4047b0 <_Znam@plt>
  40655c:	48 89 45 e8          	mov    %rax,-0x18(%rbp)
  406560:	c7 45 d8 00 00 00 00 	movl   $0x0,-0x28(%rbp)
  406567:	eb 05                	jmp    40656e <_ZN2CK19get_random_raw_dataIfEEPT_RKNS_5ShapeE+0x76>
  406569:	e8 e2 e3 ff ff       	callq  404950 <__cxa_throw_bad_array_new_length@plt>
  40656e:	8b 45 d8             	mov    -0x28(%rbp),%eax
  406571:	3b 45 e4             	cmp    -0x1c(%rbp),%eax
  406574:	7d 5e                	jge    4065d4 <_ZN2CK19get_random_raw_dataIfEEPT_RKNS_5ShapeE+0xdc>
  406576:	8b 45 d8             	mov    -0x28(%rbp),%eax
  406579:	48 98                	cltq   
  40657b:	48 8d 14 85 00 00 00 	lea    0x0(,%rax,4),%rdx
  406582:	00 
  406583:	48 8b 45 e8          	mov    -0x18(%rbp),%rax
  406587:	48 8d 1c 02          	lea    (%rdx,%rax,1),%rbx
  40658b:	e8 60 e4 ff ff       	callq  4049f0 <rand@plt>
  406590:	89 c1                	mov    %eax,%ecx
  406592:	ba c5 bd 31 04       	mov    $0x431bdc5,%edx
  406597:	89 c8                	mov    %ecx,%eax
  406599:	f7 ea                	imul   %edx
  40659b:	c1 fa 0f             	sar    $0xf,%edx
  40659e:	89 c8                	mov    %ecx,%eax
  4065a0:	c1 f8 1f             	sar    $0x1f,%eax
  4065a3:	29 c2                	sub    %eax,%edx
  4065a5:	89 d0                	mov    %edx,%eax
  4065a7:	69 c0 81 84 1e 00    	imul   $0x1e8481,%eax,%eax
  4065ad:	29 c1                	sub    %eax,%ecx
  4065af:	89 c8                	mov    %ecx,%eax
  4065b1:	2d 40 42 0f 00       	sub    $0xf4240,%eax
  4065b6:	66 0f ef c0          	pxor   %xmm0,%xmm0
  4065ba:	f3 0f 2a c0          	cvtsi2ss %eax,%xmm0
  4065be:	f3 0f 10 0d 3e 69 00 	movss  0x693e(%rip),%xmm1        # 40cf04 <_ZZNK5boost10shared_ptrIN5caffe12SyncedMemoryEEptEvE19__PRETTY_FUNCTION__+0xc4>
  4065c5:	00 
  4065c6:	f3 0f 5e c1          	divss  %xmm1,%xmm0
  4065ca:	f3 0f 11 03          	movss  %xmm0,(%rbx)
  4065ce:	83 45 d8 01          	addl   $0x1,-0x28(%rbp)
  4065d2:	eb 9a                	jmp    40656e <_ZN2CK19get_random_raw_dataIfEEPT_RKNS_5ShapeE+0x76>
  4065d4:	48 8b 45 e8          	mov    -0x18(%rbp),%rax
  4065d8:	48 83 c4 38          	add    $0x38,%rsp
  4065dc:	5b                   	pop    %rbx
  4065dd:	5d                   	pop    %rbp
  4065de:	c3                   	retq   

00000000004065df <_ZN2CK20print_input_raw_dataIfEEvPT_RKNS_5ShapeE>:
  4065df:	55                   	push   %rbp
  4065e0:	48 89 e5             	mov    %rsp,%rbp
  4065e3:	48 83 ec 10          	sub    $0x10,%rsp
  4065e7:	48 89 7d f8          	mov    %rdi,-0x8(%rbp)
  4065eb:	48 89 75 f0          	mov    %rsi,-0x10(%rbp)
  4065ef:	48 8b 75 f0          	mov    -0x10(%rbp),%rsi
  4065f3:	48 8b 45 f8          	mov    -0x8(%rbp),%rax
  4065f7:	b9 e4 c6 40 00       	mov    $0x40c6e4,%ecx
  4065fc:	ba ea c6 40 00       	mov    $0x40c6ea,%edx
  406601:	48 89 c7             	mov    %rax,%rdi
  406604:	e8 97 1a 00 00       	callq  4080a0 <_ZN2CK12log_raw_dataIfEEvPT_RKNS_5ShapeEPKcS7_>
  406609:	90                   	nop
  40660a:	c9                   	leaveq 
  40660b:	c3                   	retq   

000000000040660c <_ZN5caffe5LayerIfE7ForwardERKSt6vectorIPNS_4BlobIfEESaIS5_EES9_>:
  40660c:	55                   	push   %rbp
  40660d:	48 89 e5             	mov    %rsp,%rbp
  406610:	53                   	push   %rbx
  406611:	48 83 ec 68          	sub    $0x68,%rsp
  406615:	48 89 7d a8          	mov    %rdi,-0x58(%rbp)
  406619:	48 89 75 a0          	mov    %rsi,-0x60(%rbp)
  40661d:	48 89 55 98          	mov    %rdx,-0x68(%rbp)
  406621:	64 48 8b 04 25 28 00 	mov    %fs:0x28,%rax
  406628:	00 00 
  40662a:	48 89 45 e8          	mov    %rax,-0x18(%rbp)
  40662e:	31 c0                	xor    %eax,%eax
  406630:	66 0f ef c0          	pxor   %xmm0,%xmm0
  406634:	f3 0f 11 45 b4       	movss  %xmm0,-0x4c(%rbp)
  406639:	48 8b 45 a8          	mov    -0x58(%rbp),%rax
  40663d:	48 8b 00             	mov    (%rax),%rax
  406640:	48 83 c0 18          	add    $0x18,%rax
  406644:	48 8b 00             	mov    (%rax),%rax
  406647:	48 8b 55 98          	mov    -0x68(%rbp),%rdx
  40664b:	48 8b 75 a0          	mov    -0x60(%rbp),%rsi
  40664f:	48 8b 4d a8          	mov    -0x58(%rbp),%rcx
  406653:	48 89 cf             	mov    %rcx,%rdi
  406656:	ff d0                	callq  *%rax
  406658:	e8 14 ea ff ff       	callq  405071 <_ZN5caffe5Caffe4modeEv>
  40665d:	85 c0                	test   %eax,%eax
  40665f:	74 0e                	je     40666f <_ZN5caffe5LayerIfE7ForwardERKSt6vectorIPNS_4BlobIfEESaIS5_EES9_+0x63>
  406661:	83 f8 01             	cmp    $0x1,%eax
  406664:	0f 84 1a 01 00 00    	je     406784 <_ZN5caffe5LayerIfE7ForwardERKSt6vectorIPNS_4BlobIfEESaIS5_EES9_+0x178>
  40666a:	e9 36 01 00 00       	jmpq   4067a5 <_ZN5caffe5LayerIfE7ForwardERKSt6vectorIPNS_4BlobIfEESaIS5_EES9_+0x199>
  40666f:	48 8b 45 a8          	mov    -0x58(%rbp),%rax
  406673:	48 8b 00             	mov    (%rax),%rax
  406676:	48 83 c0 78          	add    $0x78,%rax
  40667a:	48 8b 00             	mov    (%rax),%rax
  40667d:	48 8b 55 98          	mov    -0x68(%rbp),%rdx
  406681:	48 8b 75 a0          	mov    -0x60(%rbp),%rsi
  406685:	48 8b 4d a8          	mov    -0x58(%rbp),%rcx
  406689:	48 89 cf             	mov    %rcx,%rdi
  40668c:	ff d0                	callq  *%rax
  40668e:	c7 45 b8 00 00 00 00 	movl   $0x0,-0x48(%rbp)
  406695:	8b 45 b8             	mov    -0x48(%rbp),%eax
  406698:	48 63 d8             	movslq %eax,%rbx
  40669b:	48 8b 45 98          	mov    -0x68(%rbp),%rax
  40669f:	48 89 c7             	mov    %rax,%rdi
  4066a2:	e8 71 1a 00 00       	callq  408118 <_ZNKSt6vectorIPN5caffe4BlobIfEESaIS3_EE4sizeEv>
  4066a7:	48 39 c3             	cmp    %rax,%rbx
  4066aa:	0f 92 c0             	setb   %al
  4066ad:	84 c0                	test   %al,%al
  4066af:	0f 84 2b 01 00 00    	je     4067e0 <_ZN5caffe5LayerIfE7ForwardERKSt6vectorIPNS_4BlobIfEESaIS5_EES9_+0x1d4>
  4066b5:	8b 55 b8             	mov    -0x48(%rbp),%edx
  4066b8:	48 8b 45 a8          	mov    -0x58(%rbp),%rax
  4066bc:	89 d6                	mov    %edx,%esi
  4066be:	48 89 c7             	mov    %rax,%rdi
  4066c1:	e8 78 1a 00 00       	callq  40813e <_ZNK5caffe5LayerIfE4lossEi>
  4066c6:	66 0f ef c9          	pxor   %xmm1,%xmm1
  4066ca:	0f 2e c1             	ucomiss %xmm1,%xmm0
  4066cd:	0f 9b c0             	setnp  %al
  4066d0:	ba 00 00 00 00       	mov    $0x0,%edx
  4066d5:	66 0f ef c9          	pxor   %xmm1,%xmm1
  4066d9:	0f 2e c1             	ucomiss %xmm1,%xmm0
  4066dc:	0f 45 c2             	cmovne %edx,%eax
  4066df:	84 c0                	test   %al,%al
  4066e1:	0f 85 93 00 00 00    	jne    40677a <_ZN5caffe5LayerIfE7ForwardERKSt6vectorIPNS_4BlobIfEESaIS5_EES9_+0x16e>
  4066e7:	8b 45 b8             	mov    -0x48(%rbp),%eax
  4066ea:	48 63 d0             	movslq %eax,%rdx
  4066ed:	48 8b 45 98          	mov    -0x68(%rbp),%rax
  4066f1:	48 89 d6             	mov    %rdx,%rsi
  4066f4:	48 89 c7             	mov    %rax,%rdi
  4066f7:	e8 98 1a 00 00       	callq  408194 <_ZNKSt6vectorIPN5caffe4BlobIfEESaIS3_EEixEm>
  4066fc:	48 8b 00             	mov    (%rax),%rax
  4066ff:	48 89 c7             	mov    %rax,%rdi
  406702:	e8 ad 1a 00 00       	callq  4081b4 <_ZNK5caffe4BlobIfE5countEv>
  406707:	89 45 bc             	mov    %eax,-0x44(%rbp)
  40670a:	8b 45 b8             	mov    -0x48(%rbp),%eax
  40670d:	48 63 d0             	movslq %eax,%rdx
  406710:	48 8b 45 98          	mov    -0x68(%rbp),%rax
  406714:	48 89 d6             	mov    %rdx,%rsi
  406717:	48 89 c7             	mov    %rax,%rdi
  40671a:	e8 75 1a 00 00       	callq  408194 <_ZNKSt6vectorIPN5caffe4BlobIfEESaIS3_EEixEm>
  40671f:	48 8b 00             	mov    (%rax),%rax
  406722:	48 89 c7             	mov    %rax,%rdi
  406725:	e8 46 e1 ff ff       	callq  404870 <_ZNK5caffe4BlobIfE8cpu_dataEv@plt>
  40672a:	48 89 45 c0          	mov    %rax,-0x40(%rbp)
  40672e:	8b 45 b8             	mov    -0x48(%rbp),%eax
  406731:	48 63 d0             	movslq %eax,%rdx
  406734:	48 8b 45 98          	mov    -0x68(%rbp),%rax
  406738:	48 89 d6             	mov    %rdx,%rsi
  40673b:	48 89 c7             	mov    %rax,%rdi
  40673e:	e8 51 1a 00 00       	callq  408194 <_ZNKSt6vectorIPN5caffe4BlobIfEESaIS3_EEixEm>
  406743:	48 8b 00             	mov    (%rax),%rax
  406746:	48 89 c7             	mov    %rax,%rdi
  406749:	e8 82 e1 ff ff       	callq  4048d0 <_ZNK5caffe4BlobIfE8cpu_diffEv@plt>
  40674e:	48 89 45 c8          	mov    %rax,-0x38(%rbp)
  406752:	48 8b 55 c8          	mov    -0x38(%rbp),%rdx
  406756:	48 8b 4d c0          	mov    -0x40(%rbp),%rcx
  40675a:	8b 45 bc             	mov    -0x44(%rbp),%eax
  40675d:	48 89 ce             	mov    %rcx,%rsi
  406760:	89 c7                	mov    %eax,%edi
  406762:	e8 59 e3 ff ff       	callq  404ac0 <_ZN5caffe13caffe_cpu_dotIfEET_iPKS1_S3_@plt>
  406767:	0f 28 c8             	movaps %xmm0,%xmm1
  40676a:	f3 0f 10 45 b4       	movss  -0x4c(%rbp),%xmm0
  40676f:	f3 0f 58 c1          	addss  %xmm1,%xmm0
  406773:	f3 0f 11 45 b4       	movss  %xmm0,-0x4c(%rbp)
  406778:	eb 01                	jmp    40677b <_ZN5caffe5LayerIfE7ForwardERKSt6vectorIPNS_4BlobIfEESaIS5_EES9_+0x16f>
  40677a:	90                   	nop
  40677b:	83 45 b8 01          	addl   $0x1,-0x48(%rbp)
  40677f:	e9 11 ff ff ff       	jmpq   406695 <_ZN5caffe5LayerIfE7ForwardERKSt6vectorIPNS_4BlobIfEESaIS5_EES9_+0x89>
  406784:	48 8b 45 a8          	mov    -0x58(%rbp),%rax
  406788:	48 8b 00             	mov    (%rax),%rax
  40678b:	48 83 e8 80          	sub    $0xffffffffffffff80,%rax
  40678f:	48 8b 00             	mov    (%rax),%rax
  406792:	48 8b 55 98          	mov    -0x68(%rbp),%rdx
  406796:	48 8b 75 a0          	mov    -0x60(%rbp),%rsi
  40679a:	48 8b 4d a8          	mov    -0x58(%rbp),%rcx
  40679e:	48 89 cf             	mov    %rcx,%rdi
  4067a1:	ff d0                	callq  *%rax
  4067a3:	eb 3c                	jmp    4067e1 <_ZN5caffe5LayerIfE7ForwardERKSt6vectorIPNS_4BlobIfEESaIS5_EES9_+0x1d5>
  4067a5:	48 8d 45 d0          	lea    -0x30(%rbp),%rax
  4067a9:	ba bb 01 00 00       	mov    $0x1bb,%edx
  4067ae:	be 00 c7 40 00       	mov    $0x40c700,%esi
  4067b3:	48 89 c7             	mov    %rax,%rdi
  4067b6:	e8 65 e3 ff ff       	callq  404b20 <_ZN6google15LogMessageFatalC1EPKci@plt>
  4067bb:	48 8d 45 d0          	lea    -0x30(%rbp),%rax
  4067bf:	48 89 c7             	mov    %rax,%rdi
  4067c2:	e8 69 e2 ff ff       	callq  404a30 <_ZN6google10LogMessage6streamEv@plt>
  4067c7:	be 6d c7 40 00       	mov    $0x40c76d,%esi
  4067cc:	48 89 c7             	mov    %rax,%rdi
  4067cf:	e8 3c e0 ff ff       	callq  404810 <_ZStlsISt11char_traitsIcEERSt13basic_ostreamIcT_ES5_PKc@plt>
  4067d4:	48 8d 45 d0          	lea    -0x30(%rbp),%rax
  4067d8:	48 89 c7             	mov    %rax,%rdi
  4067db:	e8 b0 e1 ff ff       	callq  404990 <_ZN6google15LogMessageFatalD1Ev@plt>
  4067e0:	90                   	nop
  4067e1:	f3 0f 10 45 b4       	movss  -0x4c(%rbp),%xmm0
  4067e6:	48 8b 45 e8          	mov    -0x18(%rbp),%rax
  4067ea:	64 48 33 04 25 28 00 	xor    %fs:0x28,%rax
  4067f1:	00 00 
  4067f3:	74 13                	je     406808 <_ZN5caffe5LayerIfE7ForwardERKSt6vectorIPNS_4BlobIfEESaIS5_EES9_+0x1fc>
  4067f5:	eb 0c                	jmp    406803 <_ZN5caffe5LayerIfE7ForwardERKSt6vectorIPNS_4BlobIfEESaIS5_EES9_+0x1f7>
  4067f7:	48 8d 45 d0          	lea    -0x30(%rbp),%rax
  4067fb:	48 89 c7             	mov    %rax,%rdi
  4067fe:	e8 8d e1 ff ff       	callq  404990 <_ZN6google15LogMessageFatalD1Ev@plt>
  406803:	e8 18 df ff ff       	callq  404720 <__stack_chk_fail@plt>
  406808:	48 83 c4 68          	add    $0x68,%rsp
  40680c:	5b                   	pop    %rbx
  40680d:	5d                   	pop    %rbp
  40680e:	c3                   	retq   

000000000040680f <_ZN2CK12measure_testIZNS_5Caffe12test_avgpoolEvEUlvE0_EEvOT_>:
  40680f:	55                   	push   %rbp
  406810:	48 89 e5             	mov    %rsp,%rbp
  406813:	48 83 ec 10          	sub    $0x10,%rsp
  406817:	48 89 7d f8          	mov    %rdi,-0x8(%rbp)
  40681b:	48 8b 45 f8          	mov    -0x8(%rbp),%rax
  40681f:	be 01 00 00 00       	mov    $0x1,%esi
  406824:	48 89 c7             	mov    %rax,%rdi
  406827:	e8 cf 19 00 00       	callq  4081fb <_ZN2CK11do_measuredIRZNS_5Caffe12test_avgpoolEvEUlvE0_EEvOT_i>
  40682c:	bf 01 00 00 00       	mov    $0x1,%edi
  406831:	e8 9a df ff ff       	callq  4047d0 <xopenme_get_timer@plt>
  406836:	f2 0f 5a c0          	cvtsd2ss %xmm0,%xmm0
  40683a:	e8 61 e4 ff ff       	callq  404ca0 <_ZN2CK15store_test_timeEf>
  40683f:	90                   	nop
  406840:	c9                   	leaveq 
  406841:	c3                   	retq   

0000000000406842 <_ZNK5caffe4BlobIfE3numEv>:
  406842:	55                   	push   %rbp
  406843:	48 89 e5             	mov    %rsp,%rbp
  406846:	48 83 ec 10          	sub    $0x10,%rsp
  40684a:	48 89 7d f8          	mov    %rdi,-0x8(%rbp)
  40684e:	48 8b 45 f8          	mov    -0x8(%rbp),%rax
  406852:	be 00 00 00 00       	mov    $0x0,%esi
  406857:	48 89 c7             	mov    %rax,%rdi
  40685a:	e8 cf 19 00 00       	callq  40822e <_ZNK5caffe4BlobIfE11LegacyShapeEi>
  40685f:	c9                   	leaveq 
  406860:	c3                   	retq   
  406861:	90                   	nop

0000000000406862 <_ZNK5caffe4BlobIfE8channelsEv>:
  406862:	55                   	push   %rbp
  406863:	48 89 e5             	mov    %rsp,%rbp
  406866:	48 83 ec 10          	sub    $0x10,%rsp
  40686a:	48 89 7d f8          	mov    %rdi,-0x8(%rbp)
  40686e:	48 8b 45 f8          	mov    -0x8(%rbp),%rax
  406872:	be 01 00 00 00       	mov    $0x1,%esi
  406877:	48 89 c7             	mov    %rax,%rdi
  40687a:	e8 af 19 00 00       	callq  40822e <_ZNK5caffe4BlobIfE11LegacyShapeEi>
  40687f:	c9                   	leaveq 
  406880:	c3                   	retq   
  406881:	90                   	nop

0000000000406882 <_ZNK5caffe4BlobIfE6heightEv>:
  406882:	55                   	push   %rbp
  406883:	48 89 e5             	mov    %rsp,%rbp
  406886:	48 83 ec 10          	sub    $0x10,%rsp
  40688a:	48 89 7d f8          	mov    %rdi,-0x8(%rbp)
  40688e:	48 8b 45 f8          	mov    -0x8(%rbp),%rax
  406892:	be 02 00 00 00       	mov    $0x2,%esi
  406897:	48 89 c7             	mov    %rax,%rdi
  40689a:	e8 8f 19 00 00       	callq  40822e <_ZNK5caffe4BlobIfE11LegacyShapeEi>
  40689f:	c9                   	leaveq 
  4068a0:	c3                   	retq   
  4068a1:	90                   	nop

00000000004068a2 <_ZNK5caffe4BlobIfE5widthEv>:
  4068a2:	55                   	push   %rbp
  4068a3:	48 89 e5             	mov    %rsp,%rbp
  4068a6:	48 83 ec 10          	sub    $0x10,%rsp
  4068aa:	48 89 7d f8          	mov    %rdi,-0x8(%rbp)
  4068ae:	48 8b 45 f8          	mov    -0x8(%rbp),%rax
  4068b2:	be 03 00 00 00       	mov    $0x3,%esi
  4068b7:	48 89 c7             	mov    %rax,%rdi
  4068ba:	e8 6f 19 00 00       	callq  40822e <_ZNK5caffe4BlobIfE11LegacyShapeEi>
  4068bf:	c9                   	leaveq 
  4068c0:	c3                   	retq   
  4068c1:	90                   	nop

00000000004068c2 <_ZNK5caffe4BlobIfE4dataEv>:
  4068c2:	55                   	push   %rbp
  4068c3:	48 89 e5             	mov    %rsp,%rbp
  4068c6:	41 55                	push   %r13
  4068c8:	41 54                	push   %r12
  4068ca:	53                   	push   %rbx
  4068cb:	48 83 ec 48          	sub    $0x48,%rsp
  4068cf:	48 89 7d a8          	mov    %rdi,-0x58(%rbp)
  4068d3:	64 48 8b 04 25 28 00 	mov    %fs:0x28,%rax
  4068da:	00 00 
  4068dc:	48 89 45 d8          	mov    %rax,-0x28(%rbp)
  4068e0:	31 c0                	xor    %eax,%eax
  4068e2:	48 8b 45 a8          	mov    -0x58(%rbp),%rax
  4068e6:	48 89 c7             	mov    %rax,%rdi
  4068e9:	e8 68 1b 00 00       	callq  408456 <_ZNK5boost10shared_ptrIN5caffe12SyncedMemoryEEntEv>
  4068ee:	0f b6 c0             	movzbl %al,%eax
  4068f1:	bb 00 00 00 00       	mov    $0x0,%ebx
  4068f6:	41 bc 00 00 00 00    	mov    $0x0,%r12d
  4068fc:	48 85 c0             	test   %rax,%rax
  4068ff:	74 58                	je     406959 <_ZNK5caffe4BlobIfE4dataEv+0x97>
  406901:	48 8d 45 c0          	lea    -0x40(%rbp),%rax
  406905:	ba d2 00 00 00       	mov    $0xd2,%edx
  40690a:	be 88 c7 40 00       	mov    $0x40c788,%esi
  40690f:	48 89 c7             	mov    %rax,%rdi
  406912:	e8 09 e2 ff ff       	callq  404b20 <_ZN6google15LogMessageFatalC1EPKci@plt>
  406917:	bb 01 00 00 00       	mov    $0x1,%ebx
  40691c:	48 8d 45 c0          	lea    -0x40(%rbp),%rax
  406920:	48 89 c7             	mov    %rax,%rdi
  406923:	e8 08 e1 ff ff       	callq  404a30 <_ZN6google10LogMessage6streamEv@plt>
  406928:	be f4 c7 40 00       	mov    $0x40c7f4,%esi
  40692d:	48 89 c7             	mov    %rax,%rdi
  406930:	e8 db de ff ff       	callq  404810 <_ZStlsISt11char_traitsIcEERSt13basic_ostreamIcT_ES5_PKc@plt>
  406935:	49 89 c5             	mov    %rax,%r13
  406938:	48 8d 45 bf          	lea    -0x41(%rbp),%rax
  40693c:	48 89 c7             	mov    %rax,%rdi
  40693f:	e8 12 e7 ff ff       	callq  405056 <_ZN6google17LogMessageVoidifyC1Ev>
  406944:	41 bc 01 00 00 00    	mov    $0x1,%r12d
  40694a:	48 8d 45 bf          	lea    -0x41(%rbp),%rax
  40694e:	4c 89 ee             	mov    %r13,%rsi
  406951:	48 89 c7             	mov    %rax,%rdi
  406954:	e8 09 e7 ff ff       	callq  405062 <_ZN6google17LogMessageVoidifyanERSo>
  406959:	45 84 e4             	test   %r12b,%r12b
  40695c:	84 db                	test   %bl,%bl
  40695e:	74 0d                	je     40696d <_ZNK5caffe4BlobIfE4dataEv+0xab>
  406960:	90                   	nop
  406961:	48 8d 45 c0          	lea    -0x40(%rbp),%rax
  406965:	48 89 c7             	mov    %rax,%rdi
  406968:	e8 23 e0 ff ff       	callq  404990 <_ZN6google15LogMessageFatalD1Ev@plt>
  40696d:	90                   	nop
  40696e:	48 8b 45 a8          	mov    -0x58(%rbp),%rax
  406972:	48 8b 4d d8          	mov    -0x28(%rbp),%rcx
  406976:	64 48 33 0c 25 28 00 	xor    %fs:0x28,%rcx
  40697d:	00 00 
  40697f:	74 24                	je     4069a5 <_ZNK5caffe4BlobIfE4dataEv+0xe3>
  406981:	eb 1d                	jmp    4069a0 <_ZNK5caffe4BlobIfE4dataEv+0xde>
  406983:	45 84 e4             	test   %r12b,%r12b
  406986:	84 db                	test   %bl,%bl
  406988:	74 0d                	je     406997 <_ZNK5caffe4BlobIfE4dataEv+0xd5>
  40698a:	90                   	nop
  40698b:	48 8d 45 c0          	lea    -0x40(%rbp),%rax
  40698f:	48 89 c7             	mov    %rax,%rdi
  406992:	e8 f9 df ff ff       	callq  404990 <_ZN6google15LogMessageFatalD1Ev@plt>
  406997:	90                   	nop
  406998:	48 89 c7             	mov    %rax,%rdi
  40699b:	e8 f0 de ff ff       	callq  404890 <_Unwind_Resume@plt>
  4069a0:	e8 7b dd ff ff       	callq  404720 <__stack_chk_fail@plt>
  4069a5:	48 83 c4 48          	add    $0x48,%rsp
  4069a9:	5b                   	pop    %rbx
  4069aa:	41 5c                	pop    %r12
  4069ac:	41 5d                	pop    %r13
  4069ae:	5d                   	pop    %rbp
  4069af:	c3                   	retq   

00000000004069b0 <_ZNK5boost10shared_ptrIN5caffe12SyncedMemoryEEptEv>:
  4069b0:	55                   	push   %rbp
  4069b1:	48 89 e5             	mov    %rsp,%rbp
  4069b4:	48 83 ec 10          	sub    $0x10,%rsp
  4069b8:	48 89 7d f8          	mov    %rdi,-0x8(%rbp)
  4069bc:	48 8b 45 f8          	mov    -0x8(%rbp),%rax
  4069c0:	48 8b 00             	mov    (%rax),%rax
  4069c3:	48 85 c0             	test   %rax,%rax
  4069c6:	75 19                	jne    4069e1 <_ZNK5boost10shared_ptrIN5caffe12SyncedMemoryEEptEv+0x31>
  4069c8:	b9 40 ce 40 00       	mov    $0x40ce40,%ecx
  4069cd:	ba 88 02 00 00       	mov    $0x288,%edx
  4069d2:	be 10 c8 40 00       	mov    $0x40c810,%esi
  4069d7:	bf 3c c8 40 00       	mov    $0x40c83c,%edi
  4069dc:	e8 ef dc ff ff       	callq  4046d0 <__assert_fail@plt>
  4069e1:	48 8b 45 f8          	mov    -0x8(%rbp),%rax
  4069e5:	48 8b 00             	mov    (%rax),%rax
  4069e8:	c9                   	leaveq 
  4069e9:	c3                   	retq   

00000000004069ea <_ZN2CK21print_output_raw_dataIfEEvPT_RKNS_5ShapeE>:
  4069ea:	55                   	push   %rbp
  4069eb:	48 89 e5             	mov    %rsp,%rbp
  4069ee:	48 83 ec 10          	sub    $0x10,%rsp
  4069f2:	48 89 7d f8          	mov    %rdi,-0x8(%rbp)
  4069f6:	48 89 75 f0          	mov    %rsi,-0x10(%rbp)
  4069fa:	48 8b 75 f0          	mov    -0x10(%rbp),%rsi
  4069fe:	48 8b 45 f8          	mov    -0x8(%rbp),%rax
  406a02:	b9 44 c8 40 00       	mov    $0x40c844,%ecx
  406a07:	ba 4b c8 40 00       	mov    $0x40c84b,%edx
  406a0c:	48 89 c7             	mov    %rax,%rdi
  406a0f:	e8 8c 16 00 00       	callq  4080a0 <_ZN2CK12log_raw_dataIfEEvPT_RKNS_5ShapeEPKcS7_>
  406a14:	90                   	nop
  406a15:	c9                   	leaveq 
  406a16:	c3                   	retq   

0000000000406a17 <_ZN2CK20dump_output_raw_dataIfEEvPT_RKNS_5ShapeE>:
  406a17:	55                   	push   %rbp
  406a18:	48 89 e5             	mov    %rsp,%rbp
  406a1b:	48 83 ec 20          	sub    $0x20,%rsp
  406a1f:	48 89 7d e8          	mov    %rdi,-0x18(%rbp)
  406a23:	48 89 75 e0          	mov    %rsi,-0x20(%rbp)
  406a27:	bf 5f c8 40 00       	mov    $0x40c85f,%edi
  406a2c:	e8 bf de ff ff       	callq  4048f0 <getenv@plt>
  406a31:	48 89 45 f8          	mov    %rax,-0x8(%rbp)
  406a35:	48 83 7d f8 00       	cmpq   $0x0,-0x8(%rbp)
  406a3a:	0f 84 89 00 00 00    	je     406ac9 <_ZN2CK20dump_output_raw_dataIfEEvPT_RKNS_5ShapeE+0xb2>
  406a40:	48 8b 45 e0          	mov    -0x20(%rbp),%rax
  406a44:	48 89 c7             	mov    %rax,%rdi
  406a47:	e8 1a eb ff ff       	callq  405566 <_ZNK2CK5Shape10data_countEv>
  406a4c:	48 98                	cltq   
  406a4e:	48 c1 e0 02          	shl    $0x2,%rax
  406a52:	48 89 c2             	mov    %rax,%rdx
  406a55:	48 8b 4d e8          	mov    -0x18(%rbp),%rcx
  406a59:	48 8b 45 f8          	mov    -0x8(%rbp),%rax
  406a5d:	48 89 ce             	mov    %rcx,%rsi
  406a60:	48 89 c7             	mov    %rax,%rdi
  406a63:	e8 a8 e0 ff ff       	callq  404b10 <xopenme_dump_memory@plt>
  406a68:	48 8b 45 e0          	mov    -0x20(%rbp),%rax
  406a6c:	8b 00                	mov    (%rax),%eax
  406a6e:	89 c2                	mov    %eax,%edx
  406a70:	be 6f c8 40 00       	mov    $0x40c86f,%esi
  406a75:	bf 00 00 00 00       	mov    $0x0,%edi
  406a7a:	e8 cd eb ff ff       	callq  40564c <_ZN2CK13store_value_iEiPKci>
  406a7f:	48 8b 45 e0          	mov    -0x20(%rbp),%rax
  406a83:	8b 40 04             	mov    0x4(%rax),%eax
  406a86:	89 c2                	mov    %eax,%edx
  406a88:	be 7b c8 40 00       	mov    $0x40c87b,%esi
  406a8d:	bf 01 00 00 00       	mov    $0x1,%edi
  406a92:	e8 b5 eb ff ff       	callq  40564c <_ZN2CK13store_value_iEiPKci>
  406a97:	48 8b 45 e0          	mov    -0x20(%rbp),%rax
  406a9b:	8b 40 08             	mov    0x8(%rax),%eax
  406a9e:	89 c2                	mov    %eax,%edx
  406aa0:	be 87 c8 40 00       	mov    $0x40c887,%esi
  406aa5:	bf 02 00 00 00       	mov    $0x2,%edi
  406aaa:	e8 9d eb ff ff       	callq  40564c <_ZN2CK13store_value_iEiPKci>
  406aaf:	48 8b 45 e0          	mov    -0x20(%rbp),%rax
  406ab3:	8b 40 0c             	mov    0xc(%rax),%eax
  406ab6:	89 c2                	mov    %eax,%edx
  406ab8:	be 93 c8 40 00       	mov    $0x40c893,%esi
  406abd:	bf 03 00 00 00       	mov    $0x3,%edi
  406ac2:	e8 85 eb ff ff       	callq  40564c <_ZN2CK13store_value_iEiPKci>
  406ac7:	eb 01                	jmp    406aca <_ZN2CK20dump_output_raw_dataIfEEvPT_RKNS_5ShapeE+0xb3>
  406ac9:	90                   	nop
  406aca:	c9                   	leaveq 
  406acb:	c3                   	retq   

0000000000406acc <_ZNSt6vectorIiSaIiEED1Ev>:
  406acc:	55                   	push   %rbp
  406acd:	48 89 e5             	mov    %rsp,%rbp
  406ad0:	48 83 ec 10          	sub    $0x10,%rsp
  406ad4:	48 89 7d f8          	mov    %rdi,-0x8(%rbp)
  406ad8:	48 8b 45 f8          	mov    -0x8(%rbp),%rax
  406adc:	48 89 c7             	mov    %rax,%rdi
  406adf:	e8 f6 19 00 00       	callq  4084da <_ZNSt12_Vector_baseIiSaIiEE19_M_get_Tp_allocatorEv>
  406ae4:	48 89 c2             	mov    %rax,%rdx
  406ae7:	48 8b 45 f8          	mov    -0x8(%rbp),%rax
  406aeb:	48 8b 48 08          	mov    0x8(%rax),%rcx
  406aef:	48 8b 45 f8          	mov    -0x8(%rbp),%rax
  406af3:	48 8b 00             	mov    (%rax),%rax
  406af6:	48 89 ce             	mov    %rcx,%rsi
  406af9:	48 89 c7             	mov    %rax,%rdi
  406afc:	e8 e7 19 00 00       	callq  4084e8 <_ZSt8_DestroyIPiiEvT_S1_RSaIT0_E>
  406b01:	48 8b 45 f8          	mov    -0x8(%rbp),%rax
  406b05:	48 89 c7             	mov    %rax,%rdi
  406b08:	e8 7d 19 00 00       	callq  40848a <_ZNSt12_Vector_baseIiSaIiEED1Ev>
  406b0d:	90                   	nop
  406b0e:	c9                   	leaveq 
  406b0f:	c3                   	retq   

0000000000406b10 <_ZN6google17MakeCheckOpStringIiiEEPNSt7__cxx1112basic_stringIcSt11char_traitsIcESaIcEEERKT_RKT0_PKc>:
  406b10:	55                   	push   %rbp
  406b11:	48 89 e5             	mov    %rsp,%rbp
  406b14:	53                   	push   %rbx
  406b15:	48 83 ec 38          	sub    $0x38,%rsp
  406b19:	48 89 7d d8          	mov    %rdi,-0x28(%rbp)
  406b1d:	48 89 75 d0          	mov    %rsi,-0x30(%rbp)
  406b21:	48 89 55 c8          	mov    %rdx,-0x38(%rbp)
  406b25:	64 48 8b 04 25 28 00 	mov    %fs:0x28,%rax
  406b2c:	00 00 
  406b2e:	48 89 45 e8          	mov    %rax,-0x18(%rbp)
  406b32:	31 c0                	xor    %eax,%eax
  406b34:	48 8b 55 c8          	mov    -0x38(%rbp),%rdx
  406b38:	48 8d 45 e0          	lea    -0x20(%rbp),%rax
  406b3c:	48 89 d6             	mov    %rdx,%rsi
  406b3f:	48 89 c7             	mov    %rax,%rdi
  406b42:	e8 49 db ff ff       	callq  404690 <_ZN6google4base21CheckOpMessageBuilderC1EPKc@plt>
  406b47:	48 8d 45 e0          	lea    -0x20(%rbp),%rax
  406b4b:	48 89 c7             	mov    %rax,%rdi
  406b4e:	e8 71 e4 ff ff       	callq  404fc4 <_ZN6google4base21CheckOpMessageBuilder7ForVar1Ev>
  406b53:	48 89 c2             	mov    %rax,%rdx
  406b56:	48 8b 45 d8          	mov    -0x28(%rbp),%rax
  406b5a:	48 89 c6             	mov    %rax,%rsi
  406b5d:	48 89 d7             	mov    %rdx,%rdi
  406b60:	e8 ad 19 00 00       	callq  408512 <_ZN6google22MakeCheckOpValueStringIiEEvPSoRKT_>
  406b65:	48 8d 45 e0          	lea    -0x20(%rbp),%rax
  406b69:	48 89 c7             	mov    %rax,%rdi
  406b6c:	e8 ef da ff ff       	callq  404660 <_ZN6google4base21CheckOpMessageBuilder7ForVar2Ev@plt>
  406b71:	48 89 c2             	mov    %rax,%rdx
  406b74:	48 8b 45 d0          	mov    -0x30(%rbp),%rax
  406b78:	48 89 c6             	mov    %rax,%rsi
  406b7b:	48 89 d7             	mov    %rdx,%rdi
  406b7e:	e8 8f 19 00 00       	callq  408512 <_ZN6google22MakeCheckOpValueStringIiEEvPSoRKT_>
  406b83:	48 8d 45 e0          	lea    -0x20(%rbp),%rax
  406b87:	48 89 c7             	mov    %rax,%rdi
  406b8a:	e8 41 de ff ff       	callq  4049d0 <_ZN6google4base21CheckOpMessageBuilder9NewStringB5cxx11Ev@plt>
  406b8f:	48 89 c3             	mov    %rax,%rbx
  406b92:	48 8d 45 e0          	lea    -0x20(%rbp),%rax
  406b96:	48 89 c7             	mov    %rax,%rdi
  406b99:	e8 a2 db ff ff       	callq  404740 <_ZN6google4base21CheckOpMessageBuilderD1Ev@plt>
  406b9e:	48 89 d8             	mov    %rbx,%rax
  406ba1:	48 8b 4d e8          	mov    -0x18(%rbp),%rcx
  406ba5:	64 48 33 0c 25 28 00 	xor    %fs:0x28,%rcx
  406bac:	00 00 
  406bae:	74 21                	je     406bd1 <_ZN6google17MakeCheckOpStringIiiEEPNSt7__cxx1112basic_stringIcSt11char_traitsIcESaIcEEERKT_RKT0_PKc+0xc1>
  406bb0:	eb 1a                	jmp    406bcc <_ZN6google17MakeCheckOpStringIiiEEPNSt7__cxx1112basic_stringIcSt11char_traitsIcESaIcEEERKT_RKT0_PKc+0xbc>
  406bb2:	48 89 c3             	mov    %rax,%rbx
  406bb5:	48 8d 45 e0          	lea    -0x20(%rbp),%rax
  406bb9:	48 89 c7             	mov    %rax,%rdi
  406bbc:	e8 7f db ff ff       	callq  404740 <_ZN6google4base21CheckOpMessageBuilderD1Ev@plt>
  406bc1:	48 89 d8             	mov    %rbx,%rax
  406bc4:	48 89 c7             	mov    %rax,%rdi
  406bc7:	e8 c4 dc ff ff       	callq  404890 <_Unwind_Resume@plt>
  406bcc:	e8 4f db ff ff       	callq  404720 <__stack_chk_fail@plt>
  406bd1:	48 83 c4 38          	add    $0x38,%rsp
  406bd5:	5b                   	pop    %rbx
  406bd6:	5d                   	pop    %rbp
  406bd7:	c3                   	retq   

0000000000406bd8 <_ZN6google8protobuf8internal20RepeatedPtrFieldBase5ClearINS0_16RepeatedPtrFieldIN5caffe9BlobProtoEE11TypeHandlerEEEvv>:
  406bd8:	55                   	push   %rbp
  406bd9:	48 89 e5             	mov    %rsp,%rbp
  406bdc:	41 54                	push   %r12
  406bde:	53                   	push   %rbx
  406bdf:	48 83 ec 70          	sub    $0x70,%rsp
  406be3:	48 89 7d 88          	mov    %rdi,-0x78(%rbp)
  406be7:	64 48 8b 04 25 28 00 	mov    %fs:0x28,%rax
  406bee:	00 00 
  406bf0:	48 89 45 e8          	mov    %rax,-0x18(%rbp)
  406bf4:	31 c0                	xor    %eax,%eax
  406bf6:	48 8b 45 88          	mov    -0x78(%rbp),%rax
  406bfa:	8b 40 08             	mov    0x8(%rax),%eax
  406bfd:	89 45 a4             	mov    %eax,-0x5c(%rbp)
  406c00:	bb 00 00 00 00       	mov    $0x0,%ebx
  406c05:	41 bc 00 00 00 00    	mov    $0x0,%r12d
  406c0b:	83 7d a4 00          	cmpl   $0x0,-0x5c(%rbp)
  406c0f:	79 49                	jns    406c5a <_ZN6google8protobuf8internal20RepeatedPtrFieldBase5ClearINS0_16RepeatedPtrFieldIN5caffe9BlobProtoEE11TypeHandlerEEEvv+0x82>
  406c11:	48 8d 45 b0          	lea    -0x50(%rbp),%rax
  406c15:	b9 c4 05 00 00       	mov    $0x5c4,%ecx
  406c1a:	ba 20 c6 40 00       	mov    $0x40c620,%edx
  406c1f:	be 03 00 00 00       	mov    $0x3,%esi
  406c24:	48 89 c7             	mov    %rax,%rdi
  406c27:	e8 04 dc ff ff       	callq  404830 <_ZN6google8protobuf8internal10LogMessageC1ENS0_8LogLevelEPKci@plt>
  406c2c:	bb 01 00 00 00       	mov    $0x1,%ebx
  406c31:	48 8d 45 b0          	lea    -0x50(%rbp),%rax
  406c35:	be 9f c8 40 00       	mov    $0x40c89f,%esi
  406c3a:	48 89 c7             	mov    %rax,%rdi
  406c3d:	e8 fe de ff ff       	callq  404b40 <_ZN6google8protobuf8internal10LogMessagelsEPKc@plt>
  406c42:	48 89 c2             	mov    %rax,%rdx
  406c45:	41 bc 01 00 00 00    	mov    $0x1,%r12d
  406c4b:	48 8d 45 9f          	lea    -0x61(%rbp),%rax
  406c4f:	48 89 d6             	mov    %rdx,%rsi
  406c52:	48 89 c7             	mov    %rax,%rdi
  406c55:	e8 d6 dc ff ff       	callq  404930 <_ZN6google8protobuf8internal11LogFinisheraSERNS1_10LogMessageE@plt>
  406c5a:	45 84 e4             	test   %r12b,%r12b
  406c5d:	84 db                	test   %bl,%bl
  406c5f:	74 0f                	je     406c70 <_ZN6google8protobuf8internal20RepeatedPtrFieldBase5ClearINS0_16RepeatedPtrFieldIN5caffe9BlobProtoEE11TypeHandlerEEEvv+0x98>
  406c61:	90                   	nop
  406c62:	48 8d 45 b0          	lea    -0x50(%rbp),%rax
  406c66:	48 89 c7             	mov    %rax,%rdi
  406c69:	e8 42 dd ff ff       	callq  4049b0 <_ZN6google8protobuf8internal10LogMessageD1Ev@plt>
  406c6e:	eb 01                	jmp    406c71 <_ZN6google8protobuf8internal20RepeatedPtrFieldBase5ClearINS0_16RepeatedPtrFieldIN5caffe9BlobProtoEE11TypeHandlerEEEvv+0x99>
  406c70:	90                   	nop
  406c71:	83 7d a4 00          	cmpl   $0x0,-0x5c(%rbp)
  406c75:	0f 8e 80 00 00 00    	jle    406cfb <_ZN6google8protobuf8internal20RepeatedPtrFieldBase5ClearINS0_16RepeatedPtrFieldIN5caffe9BlobProtoEE11TypeHandlerEEEvv+0x123>
  406c7b:	48 8b 45 88          	mov    -0x78(%rbp),%rax
  406c7f:	48 8b 40 10          	mov    0x10(%rax),%rax
  406c83:	48 83 c0 08          	add    $0x8,%rax
  406c87:	48 89 45 a8          	mov    %rax,-0x58(%rbp)
  406c8b:	c7 45 a0 00 00 00 00 	movl   $0x0,-0x60(%rbp)
  406c92:	8b 45 a0             	mov    -0x60(%rbp),%eax
  406c95:	8d 50 01             	lea    0x1(%rax),%edx
  406c98:	89 55 a0             	mov    %edx,-0x60(%rbp)
  406c9b:	48 98                	cltq   
  406c9d:	48 8d 14 c5 00 00 00 	lea    0x0(,%rax,8),%rdx
  406ca4:	00 
  406ca5:	48 8b 45 a8          	mov    -0x58(%rbp),%rax
  406ca9:	48 01 d0             	add    %rdx,%rax
  406cac:	48 8b 00             	mov    (%rax),%rax
  406caf:	48 89 c7             	mov    %rax,%rdi
  406cb2:	e8 a8 18 00 00       	callq  40855f <_ZN6google8protobuf8internal20RepeatedPtrFieldBase4castINS0_16RepeatedPtrFieldIN5caffe9BlobProtoEE11TypeHandlerEEEPNT_4TypeEPv>
  406cb7:	48 89 c7             	mov    %rax,%rdi
  406cba:	e8 7a 18 00 00       	callq  408539 <_ZN6google8protobuf8internal18GenericTypeHandlerIN5caffe9BlobProtoEE5ClearEPS4_>
  406cbf:	8b 45 a0             	mov    -0x60(%rbp),%eax
  406cc2:	3b 45 a4             	cmp    -0x5c(%rbp),%eax
  406cc5:	7d 02                	jge    406cc9 <_ZN6google8protobuf8internal20RepeatedPtrFieldBase5ClearINS0_16RepeatedPtrFieldIN5caffe9BlobProtoEE11TypeHandlerEEEvv+0xf1>
  406cc7:	eb c9                	jmp    406c92 <_ZN6google8protobuf8internal20RepeatedPtrFieldBase5ClearINS0_16RepeatedPtrFieldIN5caffe9BlobProtoEE11TypeHandlerEEEvv+0xba>
  406cc9:	48 8b 45 88          	mov    -0x78(%rbp),%rax
  406ccd:	c7 40 08 00 00 00 00 	movl   $0x0,0x8(%rax)
  406cd4:	eb 25                	jmp    406cfb <_ZN6google8protobuf8internal20RepeatedPtrFieldBase5ClearINS0_16RepeatedPtrFieldIN5caffe9BlobProtoEE11TypeHandlerEEEvv+0x123>
  406cd6:	45 84 e4             	test   %r12b,%r12b
  406cd9:	49 89 c4             	mov    %rax,%r12
  406cdc:	84 db                	test   %bl,%bl
  406cde:	74 0f                	je     406cef <_ZN6google8protobuf8internal20RepeatedPtrFieldBase5ClearINS0_16RepeatedPtrFieldIN5caffe9BlobProtoEE11TypeHandlerEEEvv+0x117>
  406ce0:	90                   	nop
  406ce1:	48 8d 45 b0          	lea    -0x50(%rbp),%rax
  406ce5:	48 89 c7             	mov    %rax,%rdi
  406ce8:	e8 c3 dc ff ff       	callq  4049b0 <_ZN6google8protobuf8internal10LogMessageD1Ev@plt>
  406ced:	eb 01                	jmp    406cf0 <_ZN6google8protobuf8internal20RepeatedPtrFieldBase5ClearINS0_16RepeatedPtrFieldIN5caffe9BlobProtoEE11TypeHandlerEEEvv+0x118>
  406cef:	90                   	nop
  406cf0:	4c 89 e0             	mov    %r12,%rax
  406cf3:	48 89 c7             	mov    %rax,%rdi
  406cf6:	e8 95 db ff ff       	callq  404890 <_Unwind_Resume@plt>
  406cfb:	90                   	nop
  406cfc:	48 8b 45 e8          	mov    -0x18(%rbp),%rax
  406d00:	64 48 33 04 25 28 00 	xor    %fs:0x28,%rax
  406d07:	00 00 
  406d09:	74 05                	je     406d10 <_ZN6google8protobuf8internal20RepeatedPtrFieldBase5ClearINS0_16RepeatedPtrFieldIN5caffe9BlobProtoEE11TypeHandlerEEEvv+0x138>
  406d0b:	e8 10 da ff ff       	callq  404720 <__stack_chk_fail@plt>
  406d10:	48 83 c4 70          	add    $0x70,%rsp
  406d14:	5b                   	pop    %rbx
  406d15:	41 5c                	pop    %r12
  406d17:	5d                   	pop    %rbp
  406d18:	c3                   	retq   
  406d19:	90                   	nop

0000000000406d1a <_ZNK6google8protobuf8internal20RepeatedPtrFieldBase3GetINS0_16RepeatedPtrFieldIN5caffe9BlobProtoEE11TypeHandlerEEERKNT_4TypeEi>:
  406d1a:	55                   	push   %rbp
  406d1b:	48 89 e5             	mov    %rsp,%rbp
  406d1e:	41 54                	push   %r12
  406d20:	53                   	push   %rbx
  406d21:	48 81 ec a0 00 00 00 	sub    $0xa0,%rsp
  406d28:	48 89 bd 58 ff ff ff 	mov    %rdi,-0xa8(%rbp)
  406d2f:	89 b5 54 ff ff ff    	mov    %esi,-0xac(%rbp)
  406d35:	64 48 8b 04 25 28 00 	mov    %fs:0x28,%rax
  406d3c:	00 00 
  406d3e:	48 89 45 e8          	mov    %rax,-0x18(%rbp)
  406d42:	31 c0                	xor    %eax,%eax
  406d44:	bb 00 00 00 00       	mov    $0x0,%ebx
  406d49:	41 bc 00 00 00 00    	mov    $0x0,%r12d
  406d4f:	83 bd 54 ff ff ff 00 	cmpl   $0x0,-0xac(%rbp)
  406d56:	79 52                	jns    406daa <_ZNK6google8protobuf8internal20RepeatedPtrFieldBase3GetINS0_16RepeatedPtrFieldIN5caffe9BlobProtoEE11TypeHandlerEEERKNT_4TypeEi+0x90>
  406d58:	48 8d 85 70 ff ff ff 	lea    -0x90(%rbp),%rax
  406d5f:	b9 96 05 00 00       	mov    $0x596,%ecx
  406d64:	ba 20 c6 40 00       	mov    $0x40c620,%edx
  406d69:	be 03 00 00 00       	mov    $0x3,%esi
  406d6e:	48 89 c7             	mov    %rax,%rdi
  406d71:	e8 ba da ff ff       	callq  404830 <_ZN6google8protobuf8internal10LogMessageC1ENS0_8LogLevelEPKci@plt>
  406d76:	bb 01 00 00 00       	mov    $0x1,%ebx
  406d7b:	48 8d 85 70 ff ff ff 	lea    -0x90(%rbp),%rax
  406d82:	be 90 c6 40 00       	mov    $0x40c690,%esi
  406d87:	48 89 c7             	mov    %rax,%rdi
  406d8a:	e8 b1 dd ff ff       	callq  404b40 <_ZN6google8protobuf8internal10LogMessagelsEPKc@plt>
  406d8f:	48 89 c2             	mov    %rax,%rdx
  406d92:	41 bc 01 00 00 00    	mov    $0x1,%r12d
  406d98:	48 8d 85 6e ff ff ff 	lea    -0x92(%rbp),%rax
  406d9f:	48 89 d6             	mov    %rdx,%rsi
  406da2:	48 89 c7             	mov    %rax,%rdi
  406da5:	e8 86 db ff ff       	callq  404930 <_ZN6google8protobuf8internal11LogFinisheraSERNS1_10LogMessageE@plt>
  406daa:	45 84 e4             	test   %r12b,%r12b
  406dad:	84 db                	test   %bl,%bl
  406daf:	74 12                	je     406dc3 <_ZNK6google8protobuf8internal20RepeatedPtrFieldBase3GetINS0_16RepeatedPtrFieldIN5caffe9BlobProtoEE11TypeHandlerEEERKNT_4TypeEi+0xa9>
  406db1:	90                   	nop
  406db2:	48 8d 85 70 ff ff ff 	lea    -0x90(%rbp),%rax
  406db9:	48 89 c7             	mov    %rax,%rdi
  406dbc:	e8 ef db ff ff       	callq  4049b0 <_ZN6google8protobuf8internal10LogMessageD1Ev@plt>
  406dc1:	eb 01                	jmp    406dc4 <_ZNK6google8protobuf8internal20RepeatedPtrFieldBase3GetINS0_16RepeatedPtrFieldIN5caffe9BlobProtoEE11TypeHandlerEEERKNT_4TypeEi+0xaa>
  406dc3:	90                   	nop
  406dc4:	48 8b 85 58 ff ff ff 	mov    -0xa8(%rbp),%rax
  406dcb:	8b 40 08             	mov    0x8(%rax),%eax
  406dce:	bb 00 00 00 00       	mov    $0x0,%ebx
  406dd3:	41 bc 00 00 00 00    	mov    $0x0,%r12d
  406dd9:	3b 85 54 ff ff ff    	cmp    -0xac(%rbp),%eax
  406ddf:	7f 4c                	jg     406e2d <_ZNK6google8protobuf8internal20RepeatedPtrFieldBase3GetINS0_16RepeatedPtrFieldIN5caffe9BlobProtoEE11TypeHandlerEEERKNT_4TypeEi+0x113>
  406de1:	48 8d 45 b0          	lea    -0x50(%rbp),%rax
  406de5:	b9 97 05 00 00       	mov    $0x597,%ecx
  406dea:	ba 20 c6 40 00       	mov    $0x40c620,%edx
  406def:	be 03 00 00 00       	mov    $0x3,%esi
  406df4:	48 89 c7             	mov    %rax,%rdi
  406df7:	e8 34 da ff ff       	callq  404830 <_ZN6google8protobuf8internal10LogMessageC1ENS0_8LogLevelEPKci@plt>
  406dfc:	bb 01 00 00 00       	mov    $0x1,%ebx
  406e01:	48 8d 45 b0          	lea    -0x50(%rbp),%rax
  406e05:	be b0 c6 40 00       	mov    $0x40c6b0,%esi
  406e0a:	48 89 c7             	mov    %rax,%rdi
  406e0d:	e8 2e dd ff ff       	callq  404b40 <_ZN6google8protobuf8internal10LogMessagelsEPKc@plt>
  406e12:	48 89 c2             	mov    %rax,%rdx
  406e15:	41 bc 01 00 00 00    	mov    $0x1,%r12d
  406e1b:	48 8d 85 6f ff ff ff 	lea    -0x91(%rbp),%rax
  406e22:	48 89 d6             	mov    %rdx,%rsi
  406e25:	48 89 c7             	mov    %rax,%rdi
  406e28:	e8 03 db ff ff       	callq  404930 <_ZN6google8protobuf8internal11LogFinisheraSERNS1_10LogMessageE@plt>
  406e2d:	45 84 e4             	test   %r12b,%r12b
  406e30:	84 db                	test   %bl,%bl
  406e32:	74 0f                	je     406e43 <_ZNK6google8protobuf8internal20RepeatedPtrFieldBase3GetINS0_16RepeatedPtrFieldIN5caffe9BlobProtoEE11TypeHandlerEEERKNT_4TypeEi+0x129>
  406e34:	90                   	nop
  406e35:	48 8d 45 b0          	lea    -0x50(%rbp),%rax
  406e39:	48 89 c7             	mov    %rax,%rdi
  406e3c:	e8 6f db ff ff       	callq  4049b0 <_ZN6google8protobuf8internal10LogMessageD1Ev@plt>
  406e41:	eb 01                	jmp    406e44 <_ZNK6google8protobuf8internal20RepeatedPtrFieldBase3GetINS0_16RepeatedPtrFieldIN5caffe9BlobProtoEE11TypeHandlerEEERKNT_4TypeEi+0x12a>
  406e43:	90                   	nop
  406e44:	48 8b 85 58 ff ff ff 	mov    -0xa8(%rbp),%rax
  406e4b:	48 8b 40 10          	mov    0x10(%rax),%rax
  406e4f:	8b 95 54 ff ff ff    	mov    -0xac(%rbp),%edx
  406e55:	48 63 d2             	movslq %edx,%rdx
  406e58:	48 8b 44 d0 08       	mov    0x8(%rax,%rdx,8),%rax
  406e5d:	48 89 c7             	mov    %rax,%rdi
  406e60:	e8 fa 16 00 00       	callq  40855f <_ZN6google8protobuf8internal20RepeatedPtrFieldBase4castINS0_16RepeatedPtrFieldIN5caffe9BlobProtoEE11TypeHandlerEEEPNT_4TypeEPv>
  406e65:	48 8b 4d e8          	mov    -0x18(%rbp),%rcx
  406e69:	64 48 33 0c 25 28 00 	xor    %fs:0x28,%rcx
  406e70:	00 00 
  406e72:	74 54                	je     406ec8 <_ZNK6google8protobuf8internal20RepeatedPtrFieldBase3GetINS0_16RepeatedPtrFieldIN5caffe9BlobProtoEE11TypeHandlerEEERKNT_4TypeEi+0x1ae>
  406e74:	eb 4d                	jmp    406ec3 <_ZNK6google8protobuf8internal20RepeatedPtrFieldBase3GetINS0_16RepeatedPtrFieldIN5caffe9BlobProtoEE11TypeHandlerEEERKNT_4TypeEi+0x1a9>
  406e76:	45 84 e4             	test   %r12b,%r12b
  406e79:	49 89 c4             	mov    %rax,%r12
  406e7c:	84 db                	test   %bl,%bl
  406e7e:	74 12                	je     406e92 <_ZNK6google8protobuf8internal20RepeatedPtrFieldBase3GetINS0_16RepeatedPtrFieldIN5caffe9BlobProtoEE11TypeHandlerEEERKNT_4TypeEi+0x178>
  406e80:	90                   	nop
  406e81:	48 8d 85 70 ff ff ff 	lea    -0x90(%rbp),%rax
  406e88:	48 89 c7             	mov    %rax,%rdi
  406e8b:	e8 20 db ff ff       	callq  4049b0 <_ZN6google8protobuf8internal10LogMessageD1Ev@plt>
  406e90:	eb 01                	jmp    406e93 <_ZNK6google8protobuf8internal20RepeatedPtrFieldBase3GetINS0_16RepeatedPtrFieldIN5caffe9BlobProtoEE11TypeHandlerEEERKNT_4TypeEi+0x179>
  406e92:	90                   	nop
  406e93:	4c 89 e0             	mov    %r12,%rax
  406e96:	48 89 c7             	mov    %rax,%rdi
  406e99:	e8 f2 d9 ff ff       	callq  404890 <_Unwind_Resume@plt>
  406e9e:	45 84 e4             	test   %r12b,%r12b
  406ea1:	49 89 c4             	mov    %rax,%r12
  406ea4:	84 db                	test   %bl,%bl
  406ea6:	74 0f                	je     406eb7 <_ZNK6google8protobuf8internal20RepeatedPtrFieldBase3GetINS0_16RepeatedPtrFieldIN5caffe9BlobProtoEE11TypeHandlerEEERKNT_4TypeEi+0x19d>
  406ea8:	90                   	nop
  406ea9:	48 8d 45 b0          	lea    -0x50(%rbp),%rax
  406ead:	48 89 c7             	mov    %rax,%rdi
  406eb0:	e8 fb da ff ff       	callq  4049b0 <_ZN6google8protobuf8internal10LogMessageD1Ev@plt>
  406eb5:	eb 01                	jmp    406eb8 <_ZNK6google8protobuf8internal20RepeatedPtrFieldBase3GetINS0_16RepeatedPtrFieldIN5caffe9BlobProtoEE11TypeHandlerEEERKNT_4TypeEi+0x19e>
  406eb7:	90                   	nop
  406eb8:	4c 89 e0             	mov    %r12,%rax
  406ebb:	48 89 c7             	mov    %rax,%rdi
  406ebe:	e8 cd d9 ff ff       	callq  404890 <_Unwind_Resume@plt>
  406ec3:	e8 58 d8 ff ff       	callq  404720 <__stack_chk_fail@plt>
  406ec8:	48 81 c4 a0 00 00 00 	add    $0xa0,%rsp
  406ecf:	5b                   	pop    %rbx
  406ed0:	41 5c                	pop    %r12
  406ed2:	5d                   	pop    %rbp
  406ed3:	c3                   	retq   

0000000000406ed4 <_ZN6google8protobuf8internal20RepeatedPtrFieldBase3AddINS0_16RepeatedPtrFieldIN5caffe9BlobProtoEE11TypeHandlerEEEPNT_4TypeESB_>:
  406ed4:	55                   	push   %rbp
  406ed5:	48 89 e5             	mov    %rsp,%rbp
  406ed8:	48 83 ec 20          	sub    $0x20,%rsp
  406edc:	48 89 7d e8          	mov    %rdi,-0x18(%rbp)
  406ee0:	48 89 75 e0          	mov    %rsi,-0x20(%rbp)
  406ee4:	48 8b 45 e8          	mov    -0x18(%rbp),%rax
  406ee8:	48 8b 40 10          	mov    0x10(%rax),%rax
  406eec:	48 85 c0             	test   %rax,%rax
  406eef:	74 42                	je     406f33 <_ZN6google8protobuf8internal20RepeatedPtrFieldBase3AddINS0_16RepeatedPtrFieldIN5caffe9BlobProtoEE11TypeHandlerEEEPNT_4TypeESB_+0x5f>
  406ef1:	48 8b 45 e8          	mov    -0x18(%rbp),%rax
  406ef5:	8b 50 08             	mov    0x8(%rax),%edx
  406ef8:	48 8b 45 e8          	mov    -0x18(%rbp),%rax
  406efc:	48 8b 40 10          	mov    0x10(%rax),%rax
  406f00:	8b 00                	mov    (%rax),%eax
  406f02:	39 c2                	cmp    %eax,%edx
  406f04:	7d 2d                	jge    406f33 <_ZN6google8protobuf8internal20RepeatedPtrFieldBase3AddINS0_16RepeatedPtrFieldIN5caffe9BlobProtoEE11TypeHandlerEEEPNT_4TypeESB_+0x5f>
  406f06:	48 8b 45 e8          	mov    -0x18(%rbp),%rax
  406f0a:	48 8b 50 10          	mov    0x10(%rax),%rdx
  406f0e:	48 8b 45 e8          	mov    -0x18(%rbp),%rax
  406f12:	8b 40 08             	mov    0x8(%rax),%eax
  406f15:	8d 70 01             	lea    0x1(%rax),%esi
  406f18:	48 8b 4d e8          	mov    -0x18(%rbp),%rcx
  406f1c:	89 71 08             	mov    %esi,0x8(%rcx)
  406f1f:	48 98                	cltq   
  406f21:	48 8b 44 c2 08       	mov    0x8(%rdx,%rax,8),%rax
  406f26:	48 89 c7             	mov    %rax,%rdi
  406f29:	e8 31 16 00 00       	callq  40855f <_ZN6google8protobuf8internal20RepeatedPtrFieldBase4castINS0_16RepeatedPtrFieldIN5caffe9BlobProtoEE11TypeHandlerEEEPNT_4TypeEPv>
  406f2e:	e9 8b 00 00 00       	jmpq   406fbe <_ZN6google8protobuf8internal20RepeatedPtrFieldBase3AddINS0_16RepeatedPtrFieldIN5caffe9BlobProtoEE11TypeHandlerEEEPNT_4TypeESB_+0xea>
  406f33:	48 8b 45 e8          	mov    -0x18(%rbp),%rax
  406f37:	48 8b 40 10          	mov    0x10(%rax),%rax
  406f3b:	48 85 c0             	test   %rax,%rax
  406f3e:	74 15                	je     406f55 <_ZN6google8protobuf8internal20RepeatedPtrFieldBase3AddINS0_16RepeatedPtrFieldIN5caffe9BlobProtoEE11TypeHandlerEEEPNT_4TypeESB_+0x81>
  406f40:	48 8b 45 e8          	mov    -0x18(%rbp),%rax
  406f44:	48 8b 40 10          	mov    0x10(%rax),%rax
  406f48:	8b 10                	mov    (%rax),%edx
  406f4a:	48 8b 45 e8          	mov    -0x18(%rbp),%rax
  406f4e:	8b 40 0c             	mov    0xc(%rax),%eax
  406f51:	39 c2                	cmp    %eax,%edx
  406f53:	75 18                	jne    406f6d <_ZN6google8protobuf8internal20RepeatedPtrFieldBase3AddINS0_16RepeatedPtrFieldIN5caffe9BlobProtoEE11TypeHandlerEEEPNT_4TypeESB_+0x99>
  406f55:	48 8b 45 e8          	mov    -0x18(%rbp),%rax
  406f59:	8b 40 0c             	mov    0xc(%rax),%eax
  406f5c:	8d 50 01             	lea    0x1(%rax),%edx
  406f5f:	48 8b 45 e8          	mov    -0x18(%rbp),%rax
  406f63:	89 d6                	mov    %edx,%esi
  406f65:	48 89 c7             	mov    %rax,%rdi
  406f68:	e8 83 db ff ff       	callq  404af0 <_ZN6google8protobuf8internal20RepeatedPtrFieldBase7ReserveEi@plt>
  406f6d:	48 8b 45 e8          	mov    -0x18(%rbp),%rax
  406f71:	48 8b 40 10          	mov    0x10(%rax),%rax
  406f75:	8b 10                	mov    (%rax),%edx
  406f77:	83 c2 01             	add    $0x1,%edx
  406f7a:	89 10                	mov    %edx,(%rax)
  406f7c:	48 8b 45 e8          	mov    -0x18(%rbp),%rax
  406f80:	48 8b 10             	mov    (%rax),%rdx
  406f83:	48 8b 45 e0          	mov    -0x20(%rbp),%rax
  406f87:	48 89 d6             	mov    %rdx,%rsi
  406f8a:	48 89 c7             	mov    %rax,%rdi
  406f8d:	e8 dc 15 00 00       	callq  40856e <_ZN6google8protobuf8internal18GenericTypeHandlerIN5caffe9BlobProtoEE16NewFromPrototypeEPKS4_PNS0_5ArenaE>
  406f92:	48 89 45 f8          	mov    %rax,-0x8(%rbp)
  406f96:	48 8b 45 e8          	mov    -0x18(%rbp),%rax
  406f9a:	48 8b 50 10          	mov    0x10(%rax),%rdx
  406f9e:	48 8b 45 e8          	mov    -0x18(%rbp),%rax
  406fa2:	8b 40 08             	mov    0x8(%rax),%eax
  406fa5:	8d 70 01             	lea    0x1(%rax),%esi
  406fa8:	48 8b 4d e8          	mov    -0x18(%rbp),%rcx
  406fac:	89 71 08             	mov    %esi,0x8(%rcx)
  406faf:	48 98                	cltq   
  406fb1:	48 8b 4d f8          	mov    -0x8(%rbp),%rcx
  406fb5:	48 89 4c c2 08       	mov    %rcx,0x8(%rdx,%rax,8)
  406fba:	48 8b 45 f8          	mov    -0x8(%rbp),%rax
  406fbe:	c9                   	leaveq 
  406fbf:	c3                   	retq   

0000000000406fc0 <_ZNSt12_Vector_baseIPN5caffe4BlobIfEESaIS3_EE12_Vector_implD1Ev>:
  406fc0:	55                   	push   %rbp
  406fc1:	48 89 e5             	mov    %rsp,%rbp
  406fc4:	48 83 ec 10          	sub    $0x10,%rsp
  406fc8:	48 89 7d f8          	mov    %rdi,-0x8(%rbp)
  406fcc:	48 8b 45 f8          	mov    -0x8(%rbp),%rax
  406fd0:	48 89 c7             	mov    %rax,%rdi
  406fd3:	e8 f2 15 00 00       	callq  4085ca <_ZNSaIPN5caffe4BlobIfEEED1Ev>
  406fd8:	90                   	nop
  406fd9:	c9                   	leaveq 
  406fda:	c3                   	retq   
  406fdb:	90                   	nop

0000000000406fdc <_ZNSt12_Vector_baseIPN5caffe4BlobIfEESaIS3_EEC1Ev>:
  406fdc:	55                   	push   %rbp
  406fdd:	48 89 e5             	mov    %rsp,%rbp
  406fe0:	48 83 ec 10          	sub    $0x10,%rsp
  406fe4:	48 89 7d f8          	mov    %rdi,-0x8(%rbp)
  406fe8:	48 8b 45 f8          	mov    -0x8(%rbp),%rax
  406fec:	48 89 c7             	mov    %rax,%rdi
  406fef:	e8 98 15 00 00       	callq  40858c <_ZNSt12_Vector_baseIPN5caffe4BlobIfEESaIS3_EE12_Vector_implC1Ev>
  406ff4:	90                   	nop
  406ff5:	c9                   	leaveq 
  406ff6:	c3                   	retq   
  406ff7:	90                   	nop

0000000000406ff8 <_ZNSt12_Vector_baseIPN5caffe4BlobIfEESaIS3_EED1Ev>:
  406ff8:	55                   	push   %rbp
  406ff9:	48 89 e5             	mov    %rsp,%rbp
  406ffc:	48 83 ec 10          	sub    $0x10,%rsp
  407000:	48 89 7d f8          	mov    %rdi,-0x8(%rbp)
  407004:	48 8b 45 f8          	mov    -0x8(%rbp),%rax
  407008:	48 8b 40 10          	mov    0x10(%rax),%rax
  40700c:	48 89 c2             	mov    %rax,%rdx
  40700f:	48 8b 45 f8          	mov    -0x8(%rbp),%rax
  407013:	48 8b 00             	mov    (%rax),%rax
  407016:	48 29 c2             	sub    %rax,%rdx
  407019:	48 89 d0             	mov    %rdx,%rax
  40701c:	48 c1 f8 03          	sar    $0x3,%rax
  407020:	48 89 c2             	mov    %rax,%rdx
  407023:	48 8b 45 f8          	mov    -0x8(%rbp),%rax
  407027:	48 8b 08             	mov    (%rax),%rcx
  40702a:	48 8b 45 f8          	mov    -0x8(%rbp),%rax
  40702e:	48 89 ce             	mov    %rcx,%rsi
  407031:	48 89 c7             	mov    %rax,%rdi
  407034:	e8 ad 15 00 00       	callq  4085e6 <_ZNSt12_Vector_baseIPN5caffe4BlobIfEESaIS3_EE13_M_deallocateEPS3_m>
  407039:	48 8b 45 f8          	mov    -0x8(%rbp),%rax
  40703d:	48 89 c7             	mov    %rax,%rdi
  407040:	e8 7b ff ff ff       	callq  406fc0 <_ZNSt12_Vector_baseIPN5caffe4BlobIfEESaIS3_EE12_Vector_implD1Ev>
  407045:	90                   	nop
  407046:	c9                   	leaveq 
  407047:	c3                   	retq   

0000000000407048 <_ZNSt12_Vector_baseIPN5caffe4BlobIfEESaIS3_EE19_M_get_Tp_allocatorEv>:
  407048:	55                   	push   %rbp
  407049:	48 89 e5             	mov    %rsp,%rbp
  40704c:	48 89 7d f8          	mov    %rdi,-0x8(%rbp)
  407050:	48 8b 45 f8          	mov    -0x8(%rbp),%rax
  407054:	5d                   	pop    %rbp
  407055:	c3                   	retq   

0000000000407056 <_ZSt8_DestroyIPPN5caffe4BlobIfEES3_EvT_S5_RSaIT0_E>:
  407056:	55                   	push   %rbp
  407057:	48 89 e5             	mov    %rsp,%rbp
  40705a:	48 83 ec 20          	sub    $0x20,%rsp
  40705e:	48 89 7d f8          	mov    %rdi,-0x8(%rbp)
  407062:	48 89 75 f0          	mov    %rsi,-0x10(%rbp)
  407066:	48 89 55 e8          	mov    %rdx,-0x18(%rbp)
  40706a:	48 8b 55 f0          	mov    -0x10(%rbp),%rdx
  40706e:	48 8b 45 f8          	mov    -0x8(%rbp),%rax
  407072:	48 89 d6             	mov    %rdx,%rsi
  407075:	48 89 c7             	mov    %rax,%rdi
  407078:	e8 9e 15 00 00       	callq  40861b <_ZSt8_DestroyIPPN5caffe4BlobIfEEEvT_S5_>
  40707d:	90                   	nop
  40707e:	c9                   	leaveq 
  40707f:	c3                   	retq   

0000000000407080 <_ZSt7forwardIRKPN5caffe4BlobIfEEEOT_RNSt16remove_referenceIS6_E4typeE>:
  407080:	55                   	push   %rbp
  407081:	48 89 e5             	mov    %rsp,%rbp
  407084:	48 89 7d f8          	mov    %rdi,-0x8(%rbp)
  407088:	48 8b 45 f8          	mov    -0x8(%rbp),%rax
  40708c:	5d                   	pop    %rbp
  40708d:	c3                   	retq   

000000000040708e <_ZNSt16allocator_traitsISaIPN5caffe4BlobIfEEEE9constructIS3_JRKS3_EEEvRS4_PT_DpOT0_>:
  40708e:	55                   	push   %rbp
  40708f:	48 89 e5             	mov    %rsp,%rbp
  407092:	48 83 ec 20          	sub    $0x20,%rsp
  407096:	48 89 7d f8          	mov    %rdi,-0x8(%rbp)
  40709a:	48 89 75 f0          	mov    %rsi,-0x10(%rbp)
  40709e:	48 89 55 e8          	mov    %rdx,-0x18(%rbp)
  4070a2:	48 8b 45 e8          	mov    -0x18(%rbp),%rax
  4070a6:	48 89 c7             	mov    %rax,%rdi
  4070a9:	e8 d2 ff ff ff       	callq  407080 <_ZSt7forwardIRKPN5caffe4BlobIfEEEOT_RNSt16remove_referenceIS6_E4typeE>
  4070ae:	48 89 c2             	mov    %rax,%rdx
  4070b1:	48 8b 4d f0          	mov    -0x10(%rbp),%rcx
  4070b5:	48 8b 45 f8          	mov    -0x8(%rbp),%rax
  4070b9:	48 89 ce             	mov    %rcx,%rsi
  4070bc:	48 89 c7             	mov    %rax,%rdi
  4070bf:	e8 7e 15 00 00       	callq  408642 <_ZN9__gnu_cxx13new_allocatorIPN5caffe4BlobIfEEE9constructIS4_JRKS4_EEEvPT_DpOT0_>
  4070c4:	90                   	nop
  4070c5:	c9                   	leaveq 
  4070c6:	c3                   	retq   
  4070c7:	90                   	nop

00000000004070c8 <_ZNSt6vectorIPN5caffe4BlobIfEESaIS3_EE19_M_emplace_back_auxIJRKS3_EEEvDpOT_>:
  4070c8:	55                   	push   %rbp
  4070c9:	48 89 e5             	mov    %rsp,%rbp
  4070cc:	53                   	push   %rbx
  4070cd:	48 83 ec 38          	sub    $0x38,%rsp
  4070d1:	48 89 7d c8          	mov    %rdi,-0x38(%rbp)
  4070d5:	48 89 75 c0          	mov    %rsi,-0x40(%rbp)
  4070d9:	48 8b 45 c8          	mov    -0x38(%rbp),%rax
  4070dd:	ba ba c8 40 00       	mov    $0x40c8ba,%edx
  4070e2:	be 01 00 00 00       	mov    $0x1,%esi
  4070e7:	48 89 c7             	mov    %rax,%rdi
  4070ea:	e8 99 15 00 00       	callq  408688 <_ZNKSt6vectorIPN5caffe4BlobIfEESaIS3_EE12_M_check_lenEmPKc>
  4070ef:	48 89 45 e0          	mov    %rax,-0x20(%rbp)
  4070f3:	48 8b 45 c8          	mov    -0x38(%rbp),%rax
  4070f7:	48 8b 55 e0          	mov    -0x20(%rbp),%rdx
  4070fb:	48 89 d6             	mov    %rdx,%rsi
  4070fe:	48 89 c7             	mov    %rax,%rdi
  407101:	e8 6e 16 00 00       	callq  408774 <_ZNSt12_Vector_baseIPN5caffe4BlobIfEESaIS3_EE11_M_allocateEm>
  407106:	48 89 45 e8          	mov    %rax,-0x18(%rbp)
  40710a:	48 8b 45 e8          	mov    -0x18(%rbp),%rax
  40710e:	48 89 45 d8          	mov    %rax,-0x28(%rbp)
  407112:	48 8b 45 c0          	mov    -0x40(%rbp),%rax
  407116:	48 89 c7             	mov    %rax,%rdi
  407119:	e8 62 ff ff ff       	callq  407080 <_ZSt7forwardIRKPN5caffe4BlobIfEEEOT_RNSt16remove_referenceIS6_E4typeE>
  40711e:	48 89 c3             	mov    %rax,%rbx
  407121:	48 8b 45 c8          	mov    -0x38(%rbp),%rax
  407125:	48 89 c7             	mov    %rax,%rdi
  407128:	e8 eb 0f 00 00       	callq  408118 <_ZNKSt6vectorIPN5caffe4BlobIfEESaIS3_EE4sizeEv>
  40712d:	48 8d 14 c5 00 00 00 	lea    0x0(,%rax,8),%rdx
  407134:	00 
  407135:	48 8b 45 e8          	mov    -0x18(%rbp),%rax
  407139:	48 8d 0c 02          	lea    (%rdx,%rax,1),%rcx
  40713d:	48 8b 45 c8          	mov    -0x38(%rbp),%rax
  407141:	48 89 da             	mov    %rbx,%rdx
  407144:	48 89 ce             	mov    %rcx,%rsi
  407147:	48 89 c7             	mov    %rax,%rdi
  40714a:	e8 3f ff ff ff       	callq  40708e <_ZNSt16allocator_traitsISaIPN5caffe4BlobIfEEEE9constructIS3_JRKS3_EEEvRS4_PT_DpOT0_>
  40714f:	48 c7 45 d8 00 00 00 	movq   $0x0,-0x28(%rbp)
  407156:	00 
  407157:	48 8b 45 c8          	mov    -0x38(%rbp),%rax
  40715b:	48 89 c7             	mov    %rax,%rdi
  40715e:	e8 e5 fe ff ff       	callq  407048 <_ZNSt12_Vector_baseIPN5caffe4BlobIfEESaIS3_EE19_M_get_Tp_allocatorEv>
  407163:	48 89 c1             	mov    %rax,%rcx
  407166:	48 8b 45 c8          	mov    -0x38(%rbp),%rax
  40716a:	48 8b 70 08          	mov    0x8(%rax),%rsi
  40716e:	48 8b 45 c8          	mov    -0x38(%rbp),%rax
  407172:	48 8b 00             	mov    (%rax),%rax
  407175:	48 8b 55 e8          	mov    -0x18(%rbp),%rdx
  407179:	48 89 c7             	mov    %rax,%rdi
  40717c:	e8 26 16 00 00       	callq  4087a7 <_ZSt34__uninitialized_move_if_noexcept_aIPPN5caffe4BlobIfEES4_SaIS3_EET0_T_S7_S6_RT1_>
  407181:	48 89 45 d8          	mov    %rax,-0x28(%rbp)
  407185:	48 83 45 d8 08       	addq   $0x8,-0x28(%rbp)
  40718a:	48 8b 45 c8          	mov    -0x38(%rbp),%rax
  40718e:	48 89 c7             	mov    %rax,%rdi
  407191:	e8 b2 fe ff ff       	callq  407048 <_ZNSt12_Vector_baseIPN5caffe4BlobIfEESaIS3_EE19_M_get_Tp_allocatorEv>
  407196:	48 89 c2             	mov    %rax,%rdx
  407199:	48 8b 45 c8          	mov    -0x38(%rbp),%rax
  40719d:	48 8b 48 08          	mov    0x8(%rax),%rcx
  4071a1:	48 8b 45 c8          	mov    -0x38(%rbp),%rax
  4071a5:	48 8b 00             	mov    (%rax),%rax
  4071a8:	48 89 ce             	mov    %rcx,%rsi
  4071ab:	48 89 c7             	mov    %rax,%rdi
  4071ae:	e8 a3 fe ff ff       	callq  407056 <_ZSt8_DestroyIPPN5caffe4BlobIfEES3_EvT_S5_RSaIT0_E>
  4071b3:	48 8b 45 c8          	mov    -0x38(%rbp),%rax
  4071b7:	48 8b 40 10          	mov    0x10(%rax),%rax
  4071bb:	48 89 c2             	mov    %rax,%rdx
  4071be:	48 8b 45 c8          	mov    -0x38(%rbp),%rax
  4071c2:	48 8b 00             	mov    (%rax),%rax
  4071c5:	48 29 c2             	sub    %rax,%rdx
  4071c8:	48 89 d0             	mov    %rdx,%rax
  4071cb:	48 c1 f8 03          	sar    $0x3,%rax
  4071cf:	48 89 c2             	mov    %rax,%rdx
  4071d2:	48 8b 45 c8          	mov    -0x38(%rbp),%rax
  4071d6:	48 8b 08             	mov    (%rax),%rcx
  4071d9:	48 8b 45 c8          	mov    -0x38(%rbp),%rax
  4071dd:	48 89 ce             	mov    %rcx,%rsi
  4071e0:	48 89 c7             	mov    %rax,%rdi
  4071e3:	e8 fe 13 00 00       	callq  4085e6 <_ZNSt12_Vector_baseIPN5caffe4BlobIfEESaIS3_EE13_M_deallocateEPS3_m>
  4071e8:	48 8b 45 c8          	mov    -0x38(%rbp),%rax
  4071ec:	48 8b 55 e8          	mov    -0x18(%rbp),%rdx
  4071f0:	48 89 10             	mov    %rdx,(%rax)
  4071f3:	48 8b 45 c8          	mov    -0x38(%rbp),%rax
  4071f7:	48 8b 55 d8          	mov    -0x28(%rbp),%rdx
  4071fb:	48 89 50 08          	mov    %rdx,0x8(%rax)
  4071ff:	48 8b 45 e0          	mov    -0x20(%rbp),%rax
  407203:	48 8d 14 c5 00 00 00 	lea    0x0(,%rax,8),%rdx
  40720a:	00 
  40720b:	48 8b 45 e8          	mov    -0x18(%rbp),%rax
  40720f:	48 01 c2             	add    %rax,%rdx
  407212:	48 8b 45 c8          	mov    -0x38(%rbp),%rax
  407216:	48 89 50 10          	mov    %rdx,0x10(%rax)
  40721a:	e9 8c 00 00 00       	jmpq   4072ab <_ZNSt6vectorIPN5caffe4BlobIfEESaIS3_EE19_M_emplace_back_auxIJRKS3_EEEvDpOT_+0x1e3>
  40721f:	48 89 c7             	mov    %rax,%rdi
  407222:	e8 09 d4 ff ff       	callq  404630 <__cxa_begin_catch@plt>
  407227:	48 83 7d d8 00       	cmpq   $0x0,-0x28(%rbp)
  40722c:	75 2c                	jne    40725a <_ZNSt6vectorIPN5caffe4BlobIfEESaIS3_EE19_M_emplace_back_auxIJRKS3_EEEvDpOT_+0x192>
  40722e:	48 8b 45 c8          	mov    -0x38(%rbp),%rax
  407232:	48 89 c7             	mov    %rax,%rdi
  407235:	e8 de 0e 00 00       	callq  408118 <_ZNKSt6vectorIPN5caffe4BlobIfEESaIS3_EE4sizeEv>
  40723a:	48 8d 14 c5 00 00 00 	lea    0x0(,%rax,8),%rdx
  407241:	00 
  407242:	48 8b 45 e8          	mov    -0x18(%rbp),%rax
  407246:	48 01 c2             	add    %rax,%rdx
  407249:	48 8b 45 c8          	mov    -0x38(%rbp),%rax
  40724d:	48 89 d6             	mov    %rdx,%rsi
  407250:	48 89 c7             	mov    %rax,%rdi
  407253:	e8 a3 15 00 00       	callq  4087fb <_ZNSt16allocator_traitsISaIPN5caffe4BlobIfEEEE7destroyIS3_EEvRS4_PT_>
  407258:	eb 22                	jmp    40727c <_ZNSt6vectorIPN5caffe4BlobIfEESaIS3_EE19_M_emplace_back_auxIJRKS3_EEEvDpOT_+0x1b4>
  40725a:	48 8b 45 c8          	mov    -0x38(%rbp),%rax
  40725e:	48 89 c7             	mov    %rax,%rdi
  407261:	e8 e2 fd ff ff       	callq  407048 <_ZNSt12_Vector_baseIPN5caffe4BlobIfEESaIS3_EE19_M_get_Tp_allocatorEv>
  407266:	48 89 c2             	mov    %rax,%rdx
  407269:	48 8b 4d d8          	mov    -0x28(%rbp),%rcx
  40726d:	48 8b 45 e8          	mov    -0x18(%rbp),%rax
  407271:	48 89 ce             	mov    %rcx,%rsi
  407274:	48 89 c7             	mov    %rax,%rdi
  407277:	e8 da fd ff ff       	callq  407056 <_ZSt8_DestroyIPPN5caffe4BlobIfEES3_EvT_S5_RSaIT0_E>
  40727c:	48 8b 45 c8          	mov    -0x38(%rbp),%rax
  407280:	48 8b 55 e0          	mov    -0x20(%rbp),%rdx
  407284:	48 8b 4d e8          	mov    -0x18(%rbp),%rcx
  407288:	48 89 ce             	mov    %rcx,%rsi
  40728b:	48 89 c7             	mov    %rax,%rdi
  40728e:	e8 53 13 00 00       	callq  4085e6 <_ZNSt12_Vector_baseIPN5caffe4BlobIfEESaIS3_EE13_M_deallocateEPS3_m>
  407293:	e8 a8 d6 ff ff       	callq  404940 <__cxa_rethrow@plt>
  407298:	48 89 c3             	mov    %rax,%rbx
  40729b:	e8 70 d6 ff ff       	callq  404910 <__cxa_end_catch@plt>
  4072a0:	48 89 d8             	mov    %rbx,%rax
  4072a3:	48 89 c7             	mov    %rax,%rdi
  4072a6:	e8 e5 d5 ff ff       	callq  404890 <_Unwind_Resume@plt>
  4072ab:	48 83 c4 38          	add    $0x38,%rsp
  4072af:	5b                   	pop    %rbx
  4072b0:	5d                   	pop    %rbp
  4072b1:	c3                   	retq   

00000000004072b2 <_ZN5boost10shared_ptrIN5caffe12SyncedMemoryEEC1Ev>:
  4072b2:	55                   	push   %rbp
  4072b3:	48 89 e5             	mov    %rsp,%rbp
  4072b6:	48 83 ec 10          	sub    $0x10,%rsp
  4072ba:	48 89 7d f8          	mov    %rdi,-0x8(%rbp)
  4072be:	48 8b 45 f8          	mov    -0x8(%rbp),%rax
  4072c2:	48 c7 00 00 00 00 00 	movq   $0x0,(%rax)
  4072c9:	48 8b 45 f8          	mov    -0x8(%rbp),%rax
  4072cd:	48 83 c0 08          	add    $0x8,%rax
  4072d1:	48 89 c7             	mov    %rax,%rdi
  4072d4:	e8 3d dc ff ff       	callq  404f16 <_ZN5boost6detail12shared_countC1Ev>
  4072d9:	90                   	nop
  4072da:	c9                   	leaveq 
  4072db:	c3                   	retq   

00000000004072dc <_ZNSt6vectorIiSaIiEEC1Ev>:
  4072dc:	55                   	push   %rbp
  4072dd:	48 89 e5             	mov    %rsp,%rbp
  4072e0:	48 83 ec 10          	sub    $0x10,%rsp
  4072e4:	48 89 7d f8          	mov    %rdi,-0x8(%rbp)
  4072e8:	48 8b 45 f8          	mov    -0x8(%rbp),%rax
  4072ec:	48 89 c7             	mov    %rax,%rdi
  4072ef:	e8 2e 15 00 00       	callq  408822 <_ZNSt12_Vector_baseIiSaIiEEC1Ev>
  4072f4:	90                   	nop
  4072f5:	c9                   	leaveq 
  4072f6:	c3                   	retq   
  4072f7:	90                   	nop

00000000004072f8 <_ZN5caffe5LayerIfEC1ERKNS_14LayerParameterE>:
  4072f8:	55                   	push   %rbp
  4072f9:	48 89 e5             	mov    %rsp,%rbp
  4072fc:	53                   	push   %rbx
  4072fd:	48 83 ec 28          	sub    $0x28,%rsp
  407301:	48 89 7d d8          	mov    %rdi,-0x28(%rbp)
  407305:	48 89 75 d0          	mov    %rsi,-0x30(%rbp)
  407309:	ba 08 d0 40 00       	mov    $0x40d008,%edx
  40730e:	48 8b 45 d8          	mov    -0x28(%rbp),%rax
  407312:	48 89 10             	mov    %rdx,(%rax)
  407315:	48 8b 45 d8          	mov    -0x28(%rbp),%rax
  407319:	48 8d 50 08          	lea    0x8(%rax),%rdx
  40731d:	48 8b 45 d0          	mov    -0x30(%rbp),%rax
  407321:	48 89 c6             	mov    %rax,%rsi
  407324:	48 89 d7             	mov    %rdx,%rdi
  407327:	e8 74 d7 ff ff       	callq  404aa0 <_ZN5caffe14LayerParameterC1ERKS0_@plt>
  40732c:	48 8b 45 d8          	mov    -0x28(%rbp),%rax
  407330:	48 05 68 02 00 00    	add    $0x268,%rax
  407336:	48 89 c7             	mov    %rax,%rdi
  407339:	e8 00 15 00 00       	callq  40883e <_ZNSt6vectorIN5boost10shared_ptrIN5caffe4BlobIfEEEESaIS5_EEC1Ev>
  40733e:	48 8b 45 d8          	mov    -0x28(%rbp),%rax
  407342:	48 05 80 02 00 00    	add    $0x280,%rax
  407348:	48 89 c7             	mov    %rax,%rdi
  40734b:	e8 4e 15 00 00       	callq  40889e <_ZNSt6vectorIbSaIbEEC1Ev>
  407350:	48 8b 45 d8          	mov    -0x28(%rbp),%rax
  407354:	48 05 a8 02 00 00    	add    $0x2a8,%rax
  40735a:	48 89 c7             	mov    %rax,%rdi
  40735d:	e8 74 15 00 00       	callq  4088d6 <_ZNSt6vectorIfSaIfEEC1Ev>
  407362:	48 8b 45 d0          	mov    -0x30(%rbp),%rax
  407366:	48 89 c7             	mov    %rax,%rdi
  407369:	e8 40 dd ff ff       	callq  4050ae <_ZNK5caffe14LayerParameter5phaseEv>
  40736e:	89 c2                	mov    %eax,%edx
  407370:	48 8b 45 d8          	mov    -0x28(%rbp),%rax
  407374:	89 90 60 02 00 00    	mov    %edx,0x260(%rax)
  40737a:	48 8b 45 d8          	mov    -0x28(%rbp),%rax
  40737e:	48 83 c0 08          	add    $0x8,%rax
  407382:	48 89 c7             	mov    %rax,%rdi
  407385:	e8 80 dd ff ff       	callq  40510a <_ZNK5caffe14LayerParameter10blobs_sizeEv>
  40738a:	85 c0                	test   %eax,%eax
  40738c:	0f 9f c0             	setg   %al
  40738f:	84 c0                	test   %al,%al
  407391:	0f 84 30 01 00 00    	je     4074c7 <_ZN5caffe5LayerIfEC1ERKNS_14LayerParameterE+0x1cf>
  407397:	48 8b 45 d8          	mov    -0x28(%rbp),%rax
  40739b:	48 83 c0 08          	add    $0x8,%rax
  40739f:	48 89 c7             	mov    %rax,%rdi
  4073a2:	e8 63 dd ff ff       	callq  40510a <_ZNK5caffe14LayerParameter10blobs_sizeEv>
  4073a7:	48 98                	cltq   
  4073a9:	48 8b 55 d8          	mov    -0x28(%rbp),%rdx
  4073ad:	48 81 c2 68 02 00 00 	add    $0x268,%rdx
  4073b4:	48 89 c6             	mov    %rax,%rsi
  4073b7:	48 89 d7             	mov    %rdx,%rdi
  4073ba:	e8 77 15 00 00       	callq  408936 <_ZNSt6vectorIN5boost10shared_ptrIN5caffe4BlobIfEEEESaIS5_EE6resizeEm>
  4073bf:	c7 45 ec 00 00 00 00 	movl   $0x0,-0x14(%rbp)
  4073c6:	48 8b 45 d8          	mov    -0x28(%rbp),%rax
  4073ca:	48 83 c0 08          	add    $0x8,%rax
  4073ce:	48 89 c7             	mov    %rax,%rdi
  4073d1:	e8 34 dd ff ff       	callq  40510a <_ZNK5caffe14LayerParameter10blobs_sizeEv>
  4073d6:	3b 45 ec             	cmp    -0x14(%rbp),%eax
  4073d9:	0f 9f c0             	setg   %al
  4073dc:	84 c0                	test   %al,%al
  4073de:	0f 84 e3 00 00 00    	je     4074c7 <_ZN5caffe5LayerIfEC1ERKNS_14LayerParameterE+0x1cf>
  4073e4:	bf 50 00 00 00       	mov    $0x50,%edi
  4073e9:	e8 c2 d2 ff ff       	callq  4046b0 <_Znwm@plt>
  4073ee:	48 89 c3             	mov    %rax,%rbx
  4073f1:	48 89 df             	mov    %rbx,%rdi
  4073f4:	e8 3f ef ff ff       	callq  406338 <_ZN5caffe4BlobIfEC1Ev>
  4073f9:	8b 45 ec             	mov    -0x14(%rbp),%eax
  4073fc:	48 98                	cltq   
  4073fe:	48 8b 55 d8          	mov    -0x28(%rbp),%rdx
  407402:	48 81 c2 68 02 00 00 	add    $0x268,%rdx
  407409:	48 89 c6             	mov    %rax,%rsi
  40740c:	48 89 d7             	mov    %rdx,%rdi
  40740f:	e8 ae 15 00 00       	callq  4089c2 <_ZNSt6vectorIN5boost10shared_ptrIN5caffe4BlobIfEEEESaIS5_EEixEm>
  407414:	48 89 de             	mov    %rbx,%rsi
  407417:	48 89 c7             	mov    %rax,%rdi
  40741a:	e8 e3 15 00 00       	callq  408a02 <_ZN5boost10shared_ptrIN5caffe4BlobIfEEE5resetIS3_EEvPT_>
  40741f:	48 8b 45 d8          	mov    -0x28(%rbp),%rax
  407423:	48 8d 50 08          	lea    0x8(%rax),%rdx
  407427:	8b 45 ec             	mov    -0x14(%rbp),%eax
  40742a:	89 c6                	mov    %eax,%esi
  40742c:	48 89 d7             	mov    %rdx,%rdi
  40742f:	e8 14 dd ff ff       	callq  405148 <_ZNK5caffe14LayerParameter5blobsEi>
  407434:	48 89 c3             	mov    %rax,%rbx
  407437:	8b 45 ec             	mov    -0x14(%rbp),%eax
  40743a:	48 98                	cltq   
  40743c:	48 8b 55 d8          	mov    -0x28(%rbp),%rdx
  407440:	48 81 c2 68 02 00 00 	add    $0x268,%rdx
  407447:	48 89 c6             	mov    %rax,%rsi
  40744a:	48 89 d7             	mov    %rdx,%rdi
  40744d:	e8 70 15 00 00       	callq  4089c2 <_ZNSt6vectorIN5boost10shared_ptrIN5caffe4BlobIfEEEESaIS5_EEixEm>
  407452:	48 89 c7             	mov    %rax,%rdi
  407455:	e8 3e 16 00 00       	callq  408a98 <_ZNK5boost10shared_ptrIN5caffe4BlobIfEEEptEv>
  40745a:	ba 01 00 00 00       	mov    $0x1,%edx
  40745f:	48 89 de             	mov    %rbx,%rsi
  407462:	48 89 c7             	mov    %rax,%rdi
  407465:	e8 e6 d6 ff ff       	callq  404b50 <_ZN5caffe4BlobIfE9FromProtoERKNS_9BlobProtoEb@plt>
  40746a:	83 45 ec 01          	addl   $0x1,-0x14(%rbp)
  40746e:	e9 53 ff ff ff       	jmpq   4073c6 <_ZN5caffe5LayerIfEC1ERKNS_14LayerParameterE+0xce>
  407473:	48 89 c3             	mov    %rax,%rbx
  407476:	48 8b 45 d8          	mov    -0x28(%rbp),%rax
  40747a:	48 05 a8 02 00 00    	add    $0x2a8,%rax
  407480:	48 89 c7             	mov    %rax,%rdi
  407483:	e8 6a 14 00 00       	callq  4088f2 <_ZNSt6vectorIfSaIfEED1Ev>
  407488:	48 8b 45 d8          	mov    -0x28(%rbp),%rax
  40748c:	48 05 80 02 00 00    	add    $0x280,%rax
  407492:	48 89 c7             	mov    %rax,%rdi
  407495:	e8 20 14 00 00       	callq  4088ba <_ZNSt6vectorIbSaIbEED1Ev>
  40749a:	48 8b 45 d8          	mov    -0x28(%rbp),%rax
  40749e:	48 05 68 02 00 00    	add    $0x268,%rax
  4074a4:	48 89 c7             	mov    %rax,%rdi
  4074a7:	e8 ae 13 00 00       	callq  40885a <_ZNSt6vectorIN5boost10shared_ptrIN5caffe4BlobIfEEEESaIS5_EED1Ev>
  4074ac:	48 8b 45 d8          	mov    -0x28(%rbp),%rax
  4074b0:	48 83 c0 08          	add    $0x8,%rax
  4074b4:	48 89 c7             	mov    %rax,%rdi
  4074b7:	e8 74 d6 ff ff       	callq  404b30 <_ZN5caffe14LayerParameterD1Ev@plt>
  4074bc:	48 89 d8             	mov    %rbx,%rax
  4074bf:	48 89 c7             	mov    %rax,%rdi
  4074c2:	e8 c9 d3 ff ff       	callq  404890 <_Unwind_Resume@plt>
  4074c7:	90                   	nop
  4074c8:	48 83 c4 28          	add    $0x28,%rsp
  4074cc:	5b                   	pop    %rbx
  4074cd:	5d                   	pop    %rbp
  4074ce:	c3                   	retq   
  4074cf:	90                   	nop

00000000004074d0 <_ZN5caffe5LayerIfED1Ev>:
  4074d0:	55                   	push   %rbp
  4074d1:	48 89 e5             	mov    %rsp,%rbp
  4074d4:	48 83 ec 10          	sub    $0x10,%rsp
  4074d8:	48 89 7d f8          	mov    %rdi,-0x8(%rbp)
  4074dc:	ba 08 d0 40 00       	mov    $0x40d008,%edx
  4074e1:	48 8b 45 f8          	mov    -0x8(%rbp),%rax
  4074e5:	48 89 10             	mov    %rdx,(%rax)
  4074e8:	48 8b 45 f8          	mov    -0x8(%rbp),%rax
  4074ec:	48 05 a8 02 00 00    	add    $0x2a8,%rax
  4074f2:	48 89 c7             	mov    %rax,%rdi
  4074f5:	e8 f8 13 00 00       	callq  4088f2 <_ZNSt6vectorIfSaIfEED1Ev>
  4074fa:	48 8b 45 f8          	mov    -0x8(%rbp),%rax
  4074fe:	48 05 80 02 00 00    	add    $0x280,%rax
  407504:	48 89 c7             	mov    %rax,%rdi
  407507:	e8 ae 13 00 00       	callq  4088ba <_ZNSt6vectorIbSaIbEED1Ev>
  40750c:	48 8b 45 f8          	mov    -0x8(%rbp),%rax
  407510:	48 05 68 02 00 00    	add    $0x268,%rax
  407516:	48 89 c7             	mov    %rax,%rdi
  407519:	e8 3c 13 00 00       	callq  40885a <_ZNSt6vectorIN5boost10shared_ptrIN5caffe4BlobIfEEEESaIS5_EED1Ev>
  40751e:	48 8b 45 f8          	mov    -0x8(%rbp),%rax
  407522:	48 83 c0 08          	add    $0x8,%rax
  407526:	48 89 c7             	mov    %rax,%rdi
  407529:	e8 02 d6 ff ff       	callq  404b30 <_ZN5caffe14LayerParameterD1Ev@plt>
  40752e:	90                   	nop
  40752f:	c9                   	leaveq 
  407530:	c3                   	retq   
  407531:	90                   	nop

0000000000407532 <_ZN5caffe5LayerIfED0Ev>:
  407532:	55                   	push   %rbp
  407533:	48 89 e5             	mov    %rsp,%rbp
  407536:	48 83 ec 10          	sub    $0x10,%rsp
  40753a:	48 89 7d f8          	mov    %rdi,-0x8(%rbp)
  40753e:	48 8b 45 f8          	mov    -0x8(%rbp),%rax
  407542:	48 89 c7             	mov    %rax,%rdi
  407545:	e8 86 ff ff ff       	callq  4074d0 <_ZN5caffe5LayerIfED1Ev>
  40754a:	48 8b 45 f8          	mov    -0x8(%rbp),%rax
  40754e:	48 89 c7             	mov    %rax,%rdi
  407551:	e8 aa d2 ff ff       	callq  404800 <_ZdlPv@plt>
  407556:	c9                   	leaveq 
  407557:	c3                   	retq   

0000000000407558 <_ZN5caffe4BlobIiEC1Ev>:
  407558:	55                   	push   %rbp
  407559:	48 89 e5             	mov    %rsp,%rbp
  40755c:	48 83 ec 10          	sub    $0x10,%rsp
  407560:	48 89 7d f8          	mov    %rdi,-0x8(%rbp)
  407564:	48 8b 45 f8          	mov    -0x8(%rbp),%rax
  407568:	48 89 c7             	mov    %rax,%rdi
  40756b:	e8 42 fd ff ff       	callq  4072b2 <_ZN5boost10shared_ptrIN5caffe12SyncedMemoryEEC1Ev>
  407570:	48 8b 45 f8          	mov    -0x8(%rbp),%rax
  407574:	48 83 c0 10          	add    $0x10,%rax
  407578:	48 89 c7             	mov    %rax,%rdi
  40757b:	e8 32 fd ff ff       	callq  4072b2 <_ZN5boost10shared_ptrIN5caffe12SyncedMemoryEEC1Ev>
  407580:	48 8b 45 f8          	mov    -0x8(%rbp),%rax
  407584:	48 83 c0 20          	add    $0x20,%rax
  407588:	48 89 c7             	mov    %rax,%rdi
  40758b:	e8 22 fd ff ff       	callq  4072b2 <_ZN5boost10shared_ptrIN5caffe12SyncedMemoryEEC1Ev>
  407590:	48 8b 45 f8          	mov    -0x8(%rbp),%rax
  407594:	48 83 c0 30          	add    $0x30,%rax
  407598:	48 89 c7             	mov    %rax,%rdi
  40759b:	e8 3c fd ff ff       	callq  4072dc <_ZNSt6vectorIiSaIiEEC1Ev>
  4075a0:	48 8b 45 f8          	mov    -0x8(%rbp),%rax
  4075a4:	c7 40 48 00 00 00 00 	movl   $0x0,0x48(%rax)
  4075ab:	48 8b 45 f8          	mov    -0x8(%rbp),%rax
  4075af:	c7 40 4c 00 00 00 00 	movl   $0x0,0x4c(%rax)
  4075b6:	90                   	nop
  4075b7:	c9                   	leaveq 
  4075b8:	c3                   	retq   
  4075b9:	90                   	nop

00000000004075ba <_ZN5caffe5LayerIfE15CheckBlobCountsERKSt6vectorIPNS_4BlobIfEESaIS5_EES9_>:
  4075ba:	55                   	push   %rbp
  4075bb:	48 89 e5             	mov    %rsp,%rbp
  4075be:	41 54                	push   %r12
  4075c0:	53                   	push   %rbx
  4075c1:	48 83 c4 80          	add    $0xffffffffffffff80,%rsp
  4075c5:	48 89 7d 88          	mov    %rdi,-0x78(%rbp)
  4075c9:	48 89 75 80          	mov    %rsi,-0x80(%rbp)
  4075cd:	48 89 95 78 ff ff ff 	mov    %rdx,-0x88(%rbp)
  4075d4:	64 48 8b 04 25 28 00 	mov    %fs:0x28,%rax
  4075db:	00 00 
  4075dd:	48 89 45 e8          	mov    %rax,-0x18(%rbp)
  4075e1:	31 c0                	xor    %eax,%eax
  4075e3:	48 8b 45 88          	mov    -0x78(%rbp),%rax
  4075e7:	48 8b 00             	mov    (%rax),%rax
  4075ea:	48 83 c0 30          	add    $0x30,%rax
  4075ee:	48 8b 00             	mov    (%rax),%rax
  4075f1:	48 8b 55 88          	mov    -0x78(%rbp),%rdx
  4075f5:	48 89 d7             	mov    %rdx,%rdi
  4075f8:	ff d0                	callq  *%rax
  4075fa:	f7 d0                	not    %eax
  4075fc:	c1 e8 1f             	shr    $0x1f,%eax
  4075ff:	84 c0                	test   %al,%al
  407601:	0f 84 0a 01 00 00    	je     407711 <_ZN5caffe5LayerIfE15CheckBlobCountsERKSt6vectorIPNS_4BlobIfEESaIS5_EES9_+0x157>
  407607:	48 8b 45 80          	mov    -0x80(%rbp),%rax
  40760b:	48 89 c7             	mov    %rax,%rdi
  40760e:	e8 05 0b 00 00       	callq  408118 <_ZNKSt6vectorIPN5caffe4BlobIfEESaIS3_EE4sizeEv>
  407613:	48 89 c7             	mov    %rax,%rdi
  407616:	e8 9b d9 ff ff       	callq  404fb6 <_ZN6google21GetReferenceableValueEm>
  40761b:	48 89 45 d0          	mov    %rax,-0x30(%rbp)
  40761f:	48 8b 45 88          	mov    -0x78(%rbp),%rax
  407623:	48 8b 00             	mov    (%rax),%rax
  407626:	48 83 c0 30          	add    $0x30,%rax
  40762a:	48 8b 00             	mov    (%rax),%rax
  40762d:	48 8b 55 88          	mov    -0x78(%rbp),%rdx
  407631:	48 89 d7             	mov    %rdx,%rdi
  407634:	ff d0                	callq  *%rax
  407636:	89 c7                	mov    %eax,%edi
  407638:	e8 6d d9 ff ff       	callq  404faa <_ZN6google21GetReferenceableValueEi>
  40763d:	89 45 90             	mov    %eax,-0x70(%rbp)
  407640:	48 8d 4d d0          	lea    -0x30(%rbp),%rcx
  407644:	48 8d 45 90          	lea    -0x70(%rbp),%rax
  407648:	ba d8 c8 40 00       	mov    $0x40c8d8,%edx
  40764d:	48 89 ce             	mov    %rcx,%rsi
  407650:	48 89 c7             	mov    %rax,%rdi
  407653:	e8 89 14 00 00       	callq  408ae1 <_ZN6google12Check_EQImplIimEEPNSt7__cxx1112basic_stringIcSt11char_traitsIcESaIcEEERKT_RKT0_PKc>
  407658:	48 89 45 98          	mov    %rax,-0x68(%rbp)
  40765c:	48 83 7d 98 00       	cmpq   $0x0,-0x68(%rbp)
  407661:	0f 84 aa 00 00 00    	je     407711 <_ZN5caffe5LayerIfE15CheckBlobCountsERKSt6vectorIPNS_4BlobIfEESaIS5_EES9_+0x157>
  407667:	48 8b 45 88          	mov    -0x78(%rbp),%rax
  40766b:	48 8b 00             	mov    (%rax),%rax
  40766e:	48 83 c0 30          	add    $0x30,%rax
  407672:	48 8b 00             	mov    (%rax),%rax
  407675:	48 8b 55 88          	mov    -0x78(%rbp),%rdx
  407679:	48 89 d7             	mov    %rdx,%rdi
  40767c:	ff d0                	callq  *%rax
  40767e:	89 c3                	mov    %eax,%ebx
  407680:	48 8b 45 88          	mov    -0x78(%rbp),%rax
  407684:	48 8b 00             	mov    (%rax),%rax
  407687:	48 83 c0 28          	add    $0x28,%rax
  40768b:	48 8b 00             	mov    (%rax),%rax
  40768e:	48 8b 55 88          	mov    -0x78(%rbp),%rdx
  407692:	48 89 d7             	mov    %rdx,%rdi
  407695:	ff d0                	callq  *%rax
  407697:	49 89 c4             	mov    %rax,%r12
  40769a:	48 8b 55 98          	mov    -0x68(%rbp),%rdx
  40769e:	48 8d 45 90          	lea    -0x70(%rbp),%rax
  4076a2:	48 89 d6             	mov    %rdx,%rsi
  4076a5:	48 89 c7             	mov    %rax,%rdi
  4076a8:	e8 e3 d8 ff ff       	callq  404f90 <_ZN6google13CheckOpStringC1EPNSt7__cxx1112basic_stringIcSt11char_traitsIcESaIcEEE>
  4076ad:	48 8d 55 90          	lea    -0x70(%rbp),%rdx
  4076b1:	48 8d 45 d0          	lea    -0x30(%rbp),%rax
  4076b5:	48 89 d1             	mov    %rdx,%rcx
  4076b8:	ba 5d 01 00 00       	mov    $0x15d,%edx
  4076bd:	be 00 c7 40 00       	mov    $0x40c700,%esi
  4076c2:	48 89 c7             	mov    %rax,%rdi
  4076c5:	e8 b6 d1 ff ff       	callq  404880 <_ZN6google15LogMessageFatalC1EPKciRKNS_13CheckOpStringE@plt>
  4076ca:	48 8d 45 d0          	lea    -0x30(%rbp),%rax
  4076ce:	48 89 c7             	mov    %rax,%rdi
  4076d1:	e8 5a d3 ff ff       	callq  404a30 <_ZN6google10LogMessage6streamEv@plt>
  4076d6:	4c 89 e6             	mov    %r12,%rsi
  4076d9:	48 89 c7             	mov    %rax,%rdi
  4076dc:	e8 2f d1 ff ff       	callq  404810 <_ZStlsISt11char_traitsIcEERSt13basic_ostreamIcT_ES5_PKc@plt>
  4076e1:	be ff c8 40 00       	mov    $0x40c8ff,%esi
  4076e6:	48 89 c7             	mov    %rax,%rdi
  4076e9:	e8 22 d1 ff ff       	callq  404810 <_ZStlsISt11char_traitsIcEERSt13basic_ostreamIcT_ES5_PKc@plt>
  4076ee:	89 de                	mov    %ebx,%esi
  4076f0:	48 89 c7             	mov    %rax,%rdi
  4076f3:	e8 58 d0 ff ff       	callq  404750 <_ZNSolsEi@plt>
  4076f8:	be 0d c9 40 00       	mov    $0x40c90d,%esi
  4076fd:	48 89 c7             	mov    %rax,%rdi
  407700:	e8 0b d1 ff ff       	callq  404810 <_ZStlsISt11char_traitsIcEERSt13basic_ostreamIcT_ES5_PKc@plt>
  407705:	48 8d 45 d0          	lea    -0x30(%rbp),%rax
  407709:	48 89 c7             	mov    %rax,%rdi
  40770c:	e8 7f d2 ff ff       	callq  404990 <_ZN6google15LogMessageFatalD1Ev@plt>
  407711:	48 8b 45 88          	mov    -0x78(%rbp),%rax
  407715:	48 8b 00             	mov    (%rax),%rax
  407718:	48 83 c0 38          	add    $0x38,%rax
  40771c:	48 8b 00             	mov    (%rax),%rax
  40771f:	48 8b 55 88          	mov    -0x78(%rbp),%rdx
  407723:	48 89 d7             	mov    %rdx,%rdi
  407726:	ff d0                	callq  *%rax
  407728:	f7 d0                	not    %eax
  40772a:	c1 e8 1f             	shr    $0x1f,%eax
  40772d:	84 c0                	test   %al,%al
  40772f:	0f 84 0a 01 00 00    	je     40783f <_ZN5caffe5LayerIfE15CheckBlobCountsERKSt6vectorIPNS_4BlobIfEESaIS5_EES9_+0x285>
  407735:	48 8b 45 80          	mov    -0x80(%rbp),%rax
  407739:	48 89 c7             	mov    %rax,%rdi
  40773c:	e8 d7 09 00 00       	callq  408118 <_ZNKSt6vectorIPN5caffe4BlobIfEESaIS3_EE4sizeEv>
  407741:	48 89 c7             	mov    %rax,%rdi
  407744:	e8 6d d8 ff ff       	callq  404fb6 <_ZN6google21GetReferenceableValueEm>
  407749:	48 89 45 d0          	mov    %rax,-0x30(%rbp)
  40774d:	48 8b 45 88          	mov    -0x78(%rbp),%rax
  407751:	48 8b 00             	mov    (%rax),%rax
  407754:	48 83 c0 38          	add    $0x38,%rax
  407758:	48 8b 00             	mov    (%rax),%rax
  40775b:	48 8b 55 88          	mov    -0x78(%rbp),%rdx
  40775f:	48 89 d7             	mov    %rdx,%rdi
  407762:	ff d0                	callq  *%rax
  407764:	89 c7                	mov    %eax,%edi
  407766:	e8 3f d8 ff ff       	callq  404faa <_ZN6google21GetReferenceableValueEi>
  40776b:	89 45 90             	mov    %eax,-0x70(%rbp)
  40776e:	48 8d 4d d0          	lea    -0x30(%rbp),%rcx
  407772:	48 8d 45 90          	lea    -0x70(%rbp),%rax
  407776:	ba 28 c9 40 00       	mov    $0x40c928,%edx
  40777b:	48 89 ce             	mov    %rcx,%rsi
  40777e:	48 89 c7             	mov    %rax,%rdi
  407781:	e8 cd 13 00 00       	callq  408b53 <_ZN6google12Check_LEImplIimEEPNSt7__cxx1112basic_stringIcSt11char_traitsIcESaIcEEERKT_RKT0_PKc>
  407786:	48 89 45 a0          	mov    %rax,-0x60(%rbp)
  40778a:	48 83 7d a0 00       	cmpq   $0x0,-0x60(%rbp)
  40778f:	0f 84 aa 00 00 00    	je     40783f <_ZN5caffe5LayerIfE15CheckBlobCountsERKSt6vectorIPNS_4BlobIfEESaIS5_EES9_+0x285>
  407795:	48 8b 45 88          	mov    -0x78(%rbp),%rax
  407799:	48 8b 00             	mov    (%rax),%rax
  40779c:	48 83 c0 38          	add    $0x38,%rax
  4077a0:	48 8b 00             	mov    (%rax),%rax
  4077a3:	48 8b 55 88          	mov    -0x78(%rbp),%rdx
  4077a7:	48 89 d7             	mov    %rdx,%rdi
  4077aa:	ff d0                	callq  *%rax
  4077ac:	89 c3                	mov    %eax,%ebx
  4077ae:	48 8b 45 88          	mov    -0x78(%rbp),%rax
  4077b2:	48 8b 00             	mov    (%rax),%rax
  4077b5:	48 83 c0 28          	add    $0x28,%rax
  4077b9:	48 8b 00             	mov    (%rax),%rax
  4077bc:	48 8b 55 88          	mov    -0x78(%rbp),%rdx
  4077c0:	48 89 d7             	mov    %rdx,%rdi
  4077c3:	ff d0                	callq  *%rax
  4077c5:	49 89 c4             	mov    %rax,%r12
  4077c8:	48 8b 55 a0          	mov    -0x60(%rbp),%rdx
  4077cc:	48 8d 45 90          	lea    -0x70(%rbp),%rax
  4077d0:	48 89 d6             	mov    %rdx,%rsi
  4077d3:	48 89 c7             	mov    %rax,%rdi
  4077d6:	e8 b5 d7 ff ff       	callq  404f90 <_ZN6google13CheckOpStringC1EPNSt7__cxx1112basic_stringIcSt11char_traitsIcESaIcEEE>
  4077db:	48 8d 55 90          	lea    -0x70(%rbp),%rdx
  4077df:	48 8d 45 d0          	lea    -0x30(%rbp),%rax
  4077e3:	48 89 d1             	mov    %rdx,%rcx
  4077e6:	ba 62 01 00 00       	mov    $0x162,%edx
  4077eb:	be 00 c7 40 00       	mov    $0x40c700,%esi
  4077f0:	48 89 c7             	mov    %rax,%rdi
  4077f3:	e8 88 d0 ff ff       	callq  404880 <_ZN6google15LogMessageFatalC1EPKciRKNS_13CheckOpStringE@plt>
  4077f8:	48 8d 45 d0          	lea    -0x30(%rbp),%rax
  4077fc:	48 89 c7             	mov    %rax,%rdi
  4077ff:	e8 2c d2 ff ff       	callq  404a30 <_ZN6google10LogMessage6streamEv@plt>
  407804:	4c 89 e6             	mov    %r12,%rsi
  407807:	48 89 c7             	mov    %rax,%rdi
  40780a:	e8 01 d0 ff ff       	callq  404810 <_ZStlsISt11char_traitsIcEERSt13basic_ostreamIcT_ES5_PKc@plt>
  40780f:	be 4a c9 40 00       	mov    $0x40c94a,%esi
  407814:	48 89 c7             	mov    %rax,%rdi
  407817:	e8 f4 cf ff ff       	callq  404810 <_ZStlsISt11char_traitsIcEERSt13basic_ostreamIcT_ES5_PKc@plt>
  40781c:	89 de                	mov    %ebx,%esi
  40781e:	48 89 c7             	mov    %rax,%rdi
  407821:	e8 2a cf ff ff       	callq  404750 <_ZNSolsEi@plt>
  407826:	be 0d c9 40 00       	mov    $0x40c90d,%esi
  40782b:	48 89 c7             	mov    %rax,%rdi
  40782e:	e8 dd cf ff ff       	callq  404810 <_ZStlsISt11char_traitsIcEERSt13basic_ostreamIcT_ES5_PKc@plt>
  407833:	48 8d 45 d0          	lea    -0x30(%rbp),%rax
  407837:	48 89 c7             	mov    %rax,%rdi
  40783a:	e8 51 d1 ff ff       	callq  404990 <_ZN6google15LogMessageFatalD1Ev@plt>
  40783f:	48 8b 45 88          	mov    -0x78(%rbp),%rax
  407843:	48 8b 00             	mov    (%rax),%rax
  407846:	48 83 c0 40          	add    $0x40,%rax
  40784a:	48 8b 00             	mov    (%rax),%rax
  40784d:	48 8b 55 88          	mov    -0x78(%rbp),%rdx
  407851:	48 89 d7             	mov    %rdx,%rdi
  407854:	ff d0                	callq  *%rax
  407856:	f7 d0                	not    %eax
  407858:	c1 e8 1f             	shr    $0x1f,%eax
  40785b:	84 c0                	test   %al,%al
  40785d:	0f 84 0a 01 00 00    	je     40796d <_ZN5caffe5LayerIfE15CheckBlobCountsERKSt6vectorIPNS_4BlobIfEESaIS5_EES9_+0x3b3>
  407863:	48 8b 45 80          	mov    -0x80(%rbp),%rax
  407867:	48 89 c7             	mov    %rax,%rdi
  40786a:	e8 a9 08 00 00       	callq  408118 <_ZNKSt6vectorIPN5caffe4BlobIfEESaIS3_EE4sizeEv>
  40786f:	48 89 c7             	mov    %rax,%rdi
  407872:	e8 3f d7 ff ff       	callq  404fb6 <_ZN6google21GetReferenceableValueEm>
  407877:	48 89 45 d0          	mov    %rax,-0x30(%rbp)
  40787b:	48 8b 45 88          	mov    -0x78(%rbp),%rax
  40787f:	48 8b 00             	mov    (%rax),%rax
  407882:	48 83 c0 40          	add    $0x40,%rax
  407886:	48 8b 00             	mov    (%rax),%rax
  407889:	48 8b 55 88          	mov    -0x78(%rbp),%rdx
  40788d:	48 89 d7             	mov    %rdx,%rdi
  407890:	ff d0                	callq  *%rax
  407892:	89 c7                	mov    %eax,%edi
  407894:	e8 11 d7 ff ff       	callq  404faa <_ZN6google21GetReferenceableValueEi>
  407899:	89 45 90             	mov    %eax,-0x70(%rbp)
  40789c:	48 8d 4d d0          	lea    -0x30(%rbp),%rcx
  4078a0:	48 8d 45 90          	lea    -0x70(%rbp),%rax
  4078a4:	ba 68 c9 40 00       	mov    $0x40c968,%edx
  4078a9:	48 89 ce             	mov    %rcx,%rsi
  4078ac:	48 89 c7             	mov    %rax,%rdi
  4078af:	e8 01 13 00 00       	callq  408bb5 <_ZN6google12Check_GEImplIimEEPNSt7__cxx1112basic_stringIcSt11char_traitsIcESaIcEEERKT_RKT0_PKc>
  4078b4:	48 89 45 a8          	mov    %rax,-0x58(%rbp)
  4078b8:	48 83 7d a8 00       	cmpq   $0x0,-0x58(%rbp)
  4078bd:	0f 84 aa 00 00 00    	je     40796d <_ZN5caffe5LayerIfE15CheckBlobCountsERKSt6vectorIPNS_4BlobIfEESaIS5_EES9_+0x3b3>
  4078c3:	48 8b 45 88          	mov    -0x78(%rbp),%rax
  4078c7:	48 8b 00             	mov    (%rax),%rax
  4078ca:	48 83 c0 40          	add    $0x40,%rax
  4078ce:	48 8b 00             	mov    (%rax),%rax
  4078d1:	48 8b 55 88          	mov    -0x78(%rbp),%rdx
  4078d5:	48 89 d7             	mov    %rdx,%rdi
  4078d8:	ff d0                	callq  *%rax
  4078da:	89 c3                	mov    %eax,%ebx
  4078dc:	48 8b 45 88          	mov    -0x78(%rbp),%rax
  4078e0:	48 8b 00             	mov    (%rax),%rax
  4078e3:	48 83 c0 28          	add    $0x28,%rax
  4078e7:	48 8b 00             	mov    (%rax),%rax
  4078ea:	48 8b 55 88          	mov    -0x78(%rbp),%rdx
  4078ee:	48 89 d7             	mov    %rdx,%rdi
  4078f1:	ff d0                	callq  *%rax
  4078f3:	49 89 c4             	mov    %rax,%r12
  4078f6:	48 8b 55 a8          	mov    -0x58(%rbp),%rdx
  4078fa:	48 8d 45 90          	lea    -0x70(%rbp),%rax
  4078fe:	48 89 d6             	mov    %rdx,%rsi
  407901:	48 89 c7             	mov    %rax,%rdi
  407904:	e8 87 d6 ff ff       	callq  404f90 <_ZN6google13CheckOpStringC1EPNSt7__cxx1112basic_stringIcSt11char_traitsIcESaIcEEE>
  407909:	48 8d 55 90          	lea    -0x70(%rbp),%rdx
  40790d:	48 8d 45 d0          	lea    -0x30(%rbp),%rax
  407911:	48 89 d1             	mov    %rdx,%rcx
  407914:	ba 67 01 00 00       	mov    $0x167,%edx
  407919:	be 00 c7 40 00       	mov    $0x40c700,%esi
  40791e:	48 89 c7             	mov    %rax,%rdi
  407921:	e8 5a cf ff ff       	callq  404880 <_ZN6google15LogMessageFatalC1EPKciRKNS_13CheckOpStringE@plt>
  407926:	48 8d 45 d0          	lea    -0x30(%rbp),%rax
  40792a:	48 89 c7             	mov    %rax,%rdi
  40792d:	e8 fe d0 ff ff       	callq  404a30 <_ZN6google10LogMessage6streamEv@plt>
  407932:	4c 89 e6             	mov    %r12,%rsi
  407935:	48 89 c7             	mov    %rax,%rdi
  407938:	e8 d3 ce ff ff       	callq  404810 <_ZStlsISt11char_traitsIcEERSt13basic_ostreamIcT_ES5_PKc@plt>
  40793d:	be 8a c9 40 00       	mov    $0x40c98a,%esi
  407942:	48 89 c7             	mov    %rax,%rdi
  407945:	e8 c6 ce ff ff       	callq  404810 <_ZStlsISt11char_traitsIcEERSt13basic_ostreamIcT_ES5_PKc@plt>
  40794a:	89 de                	mov    %ebx,%esi
  40794c:	48 89 c7             	mov    %rax,%rdi
  40794f:	e8 fc cd ff ff       	callq  404750 <_ZNSolsEi@plt>
  407954:	be 0d c9 40 00       	mov    $0x40c90d,%esi
  407959:	48 89 c7             	mov    %rax,%rdi
  40795c:	e8 af ce ff ff       	callq  404810 <_ZStlsISt11char_traitsIcEERSt13basic_ostreamIcT_ES5_PKc@plt>
  407961:	48 8d 45 d0          	lea    -0x30(%rbp),%rax
  407965:	48 89 c7             	mov    %rax,%rdi
  407968:	e8 23 d0 ff ff       	callq  404990 <_ZN6google15LogMessageFatalD1Ev@plt>
  40796d:	48 8b 45 88          	mov    -0x78(%rbp),%rax
  407971:	48 8b 00             	mov    (%rax),%rax
  407974:	48 83 c0 48          	add    $0x48,%rax
  407978:	48 8b 00             	mov    (%rax),%rax
  40797b:	48 8b 55 88          	mov    -0x78(%rbp),%rdx
  40797f:	48 89 d7             	mov    %rdx,%rdi
  407982:	ff d0                	callq  *%rax
  407984:	f7 d0                	not    %eax
  407986:	c1 e8 1f             	shr    $0x1f,%eax
  407989:	84 c0                	test   %al,%al
  40798b:	0f 84 0d 01 00 00    	je     407a9e <_ZN5caffe5LayerIfE15CheckBlobCountsERKSt6vectorIPNS_4BlobIfEESaIS5_EES9_+0x4e4>
  407991:	48 8b 85 78 ff ff ff 	mov    -0x88(%rbp),%rax
  407998:	48 89 c7             	mov    %rax,%rdi
  40799b:	e8 78 07 00 00       	callq  408118 <_ZNKSt6vectorIPN5caffe4BlobIfEESaIS3_EE4sizeEv>
  4079a0:	48 89 c7             	mov    %rax,%rdi
  4079a3:	e8 0e d6 ff ff       	callq  404fb6 <_ZN6google21GetReferenceableValueEm>
  4079a8:	48 89 45 d0          	mov    %rax,-0x30(%rbp)
  4079ac:	48 8b 45 88          	mov    -0x78(%rbp),%rax
  4079b0:	48 8b 00             	mov    (%rax),%rax
  4079b3:	48 83 c0 48          	add    $0x48,%rax
  4079b7:	48 8b 00             	mov    (%rax),%rax
  4079ba:	48 8b 55 88          	mov    -0x78(%rbp),%rdx
  4079be:	48 89 d7             	mov    %rdx,%rdi
  4079c1:	ff d0                	callq  *%rax
  4079c3:	89 c7                	mov    %eax,%edi
  4079c5:	e8 e0 d5 ff ff       	callq  404faa <_ZN6google21GetReferenceableValueEi>
  4079ca:	89 45 90             	mov    %eax,-0x70(%rbp)
  4079cd:	48 8d 4d d0          	lea    -0x30(%rbp),%rcx
  4079d1:	48 8d 45 90          	lea    -0x70(%rbp),%rax
  4079d5:	ba a0 c9 40 00       	mov    $0x40c9a0,%edx
  4079da:	48 89 ce             	mov    %rcx,%rsi
  4079dd:	48 89 c7             	mov    %rax,%rdi
  4079e0:	e8 fc 10 00 00       	callq  408ae1 <_ZN6google12Check_EQImplIimEEPNSt7__cxx1112basic_stringIcSt11char_traitsIcESaIcEEERKT_RKT0_PKc>
  4079e5:	48 89 45 b0          	mov    %rax,-0x50(%rbp)
  4079e9:	48 83 7d b0 00       	cmpq   $0x0,-0x50(%rbp)
  4079ee:	0f 84 aa 00 00 00    	je     407a9e <_ZN5caffe5LayerIfE15CheckBlobCountsERKSt6vectorIPNS_4BlobIfEESaIS5_EES9_+0x4e4>
  4079f4:	48 8b 45 88          	mov    -0x78(%rbp),%rax
  4079f8:	48 8b 00             	mov    (%rax),%rax
  4079fb:	48 83 c0 48          	add    $0x48,%rax
  4079ff:	48 8b 00             	mov    (%rax),%rax
  407a02:	48 8b 55 88          	mov    -0x78(%rbp),%rdx
  407a06:	48 89 d7             	mov    %rdx,%rdi
  407a09:	ff d0                	callq  *%rax
  407a0b:	89 c3                	mov    %eax,%ebx
  407a0d:	48 8b 45 88          	mov    -0x78(%rbp),%rax
  407a11:	48 8b 00             	mov    (%rax),%rax
  407a14:	48 83 c0 28          	add    $0x28,%rax
  407a18:	48 8b 00             	mov    (%rax),%rax
  407a1b:	48 8b 55 88          	mov    -0x78(%rbp),%rdx
  407a1f:	48 89 d7             	mov    %rdx,%rdi
  407a22:	ff d0                	callq  *%rax
  407a24:	49 89 c4             	mov    %rax,%r12
  407a27:	48 8b 55 b0          	mov    -0x50(%rbp),%rdx
  407a2b:	48 8d 45 90          	lea    -0x70(%rbp),%rax
  407a2f:	48 89 d6             	mov    %rdx,%rsi
  407a32:	48 89 c7             	mov    %rax,%rdi
  407a35:	e8 56 d5 ff ff       	callq  404f90 <_ZN6google13CheckOpStringC1EPNSt7__cxx1112basic_stringIcSt11char_traitsIcESaIcEEE>
  407a3a:	48 8d 55 90          	lea    -0x70(%rbp),%rdx
  407a3e:	48 8d 45 d0          	lea    -0x30(%rbp),%rax
  407a42:	48 89 d1             	mov    %rdx,%rcx
  407a45:	ba 6c 01 00 00       	mov    $0x16c,%edx
  407a4a:	be 00 c7 40 00       	mov    $0x40c700,%esi
  407a4f:	48 89 c7             	mov    %rax,%rdi
  407a52:	e8 29 ce ff ff       	callq  404880 <_ZN6google15LogMessageFatalC1EPKciRKNS_13CheckOpStringE@plt>
  407a57:	48 8d 45 d0          	lea    -0x30(%rbp),%rax
  407a5b:	48 89 c7             	mov    %rax,%rdi
  407a5e:	e8 cd cf ff ff       	callq  404a30 <_ZN6google10LogMessage6streamEv@plt>
  407a63:	4c 89 e6             	mov    %r12,%rsi
  407a66:	48 89 c7             	mov    %rax,%rdi
  407a69:	e8 a2 cd ff ff       	callq  404810 <_ZStlsISt11char_traitsIcEERSt13basic_ostreamIcT_ES5_PKc@plt>
  407a6e:	be c1 c9 40 00       	mov    $0x40c9c1,%esi
  407a73:	48 89 c7             	mov    %rax,%rdi
  407a76:	e8 95 cd ff ff       	callq  404810 <_ZStlsISt11char_traitsIcEERSt13basic_ostreamIcT_ES5_PKc@plt>
  407a7b:	89 de                	mov    %ebx,%esi
  407a7d:	48 89 c7             	mov    %rax,%rdi
  407a80:	e8 cb cc ff ff       	callq  404750 <_ZNSolsEi@plt>
  407a85:	be d2 c9 40 00       	mov    $0x40c9d2,%esi
  407a8a:	48 89 c7             	mov    %rax,%rdi
  407a8d:	e8 7e cd ff ff       	callq  404810 <_ZStlsISt11char_traitsIcEERSt13basic_ostreamIcT_ES5_PKc@plt>
  407a92:	48 8d 45 d0          	lea    -0x30(%rbp),%rax
  407a96:	48 89 c7             	mov    %rax,%rdi
  407a99:	e8 f2 ce ff ff       	callq  404990 <_ZN6google15LogMessageFatalD1Ev@plt>
  407a9e:	48 8b 45 88          	mov    -0x78(%rbp),%rax
  407aa2:	48 8b 00             	mov    (%rax),%rax
  407aa5:	48 83 c0 50          	add    $0x50,%rax
  407aa9:	48 8b 00             	mov    (%rax),%rax
  407aac:	48 8b 55 88          	mov    -0x78(%rbp),%rdx
  407ab0:	48 89 d7             	mov    %rdx,%rdi
  407ab3:	ff d0                	callq  *%rax
  407ab5:	f7 d0                	not    %eax
  407ab7:	c1 e8 1f             	shr    $0x1f,%eax
  407aba:	84 c0                	test   %al,%al
  407abc:	0f 84 0d 01 00 00    	je     407bcf <_ZN5caffe5LayerIfE15CheckBlobCountsERKSt6vectorIPNS_4BlobIfEESaIS5_EES9_+0x615>
  407ac2:	48 8b 85 78 ff ff ff 	mov    -0x88(%rbp),%rax
  407ac9:	48 89 c7             	mov    %rax,%rdi
  407acc:	e8 47 06 00 00       	callq  408118 <_ZNKSt6vectorIPN5caffe4BlobIfEESaIS3_EE4sizeEv>
  407ad1:	48 89 c7             	mov    %rax,%rdi
  407ad4:	e8 dd d4 ff ff       	callq  404fb6 <_ZN6google21GetReferenceableValueEm>
  407ad9:	48 89 45 d0          	mov    %rax,-0x30(%rbp)
  407add:	48 8b 45 88          	mov    -0x78(%rbp),%rax
  407ae1:	48 8b 00             	mov    (%rax),%rax
  407ae4:	48 83 c0 50          	add    $0x50,%rax
  407ae8:	48 8b 00             	mov    (%rax),%rax
  407aeb:	48 8b 55 88          	mov    -0x78(%rbp),%rdx
  407aef:	48 89 d7             	mov    %rdx,%rdi
  407af2:	ff d0                	callq  *%rax
  407af4:	89 c7                	mov    %eax,%edi
  407af6:	e8 af d4 ff ff       	callq  404faa <_ZN6google21GetReferenceableValueEi>
  407afb:	89 45 90             	mov    %eax,-0x70(%rbp)
  407afe:	48 8d 4d d0          	lea    -0x30(%rbp),%rcx
  407b02:	48 8d 45 90          	lea    -0x70(%rbp),%rax
  407b06:	ba ea c9 40 00       	mov    $0x40c9ea,%edx
  407b0b:	48 89 ce             	mov    %rcx,%rsi
  407b0e:	48 89 c7             	mov    %rax,%rdi
  407b11:	e8 3d 10 00 00       	callq  408b53 <_ZN6google12Check_LEImplIimEEPNSt7__cxx1112basic_stringIcSt11char_traitsIcESaIcEEERKT_RKT0_PKc>
  407b16:	48 89 45 b8          	mov    %rax,-0x48(%rbp)
  407b1a:	48 83 7d b8 00       	cmpq   $0x0,-0x48(%rbp)
  407b1f:	0f 84 aa 00 00 00    	je     407bcf <_ZN5caffe5LayerIfE15CheckBlobCountsERKSt6vectorIPNS_4BlobIfEESaIS5_EES9_+0x615>
  407b25:	48 8b 45 88          	mov    -0x78(%rbp),%rax
  407b29:	48 8b 00             	mov    (%rax),%rax
  407b2c:	48 83 c0 50          	add    $0x50,%rax
  407b30:	48 8b 00             	mov    (%rax),%rax
  407b33:	48 8b 55 88          	mov    -0x78(%rbp),%rdx
  407b37:	48 89 d7             	mov    %rdx,%rdi
  407b3a:	ff d0                	callq  *%rax
  407b3c:	89 c3                	mov    %eax,%ebx
  407b3e:	48 8b 45 88          	mov    -0x78(%rbp),%rax
  407b42:	48 8b 00             	mov    (%rax),%rax
  407b45:	48 83 c0 28          	add    $0x28,%rax
  407b49:	48 8b 00             	mov    (%rax),%rax
  407b4c:	48 8b 55 88          	mov    -0x78(%rbp),%rdx
  407b50:	48 89 d7             	mov    %rdx,%rdi
  407b53:	ff d0                	callq  *%rax
  407b55:	49 89 c4             	mov    %rax,%r12
  407b58:	48 8b 55 b8          	mov    -0x48(%rbp),%rdx
  407b5c:	48 8d 45 90          	lea    -0x70(%rbp),%rax
  407b60:	48 89 d6             	mov    %rdx,%rsi
  407b63:	48 89 c7             	mov    %rax,%rdi
  407b66:	e8 25 d4 ff ff       	callq  404f90 <_ZN6google13CheckOpStringC1EPNSt7__cxx1112basic_stringIcSt11char_traitsIcESaIcEEE>
  407b6b:	48 8d 55 90          	lea    -0x70(%rbp),%rdx
  407b6f:	48 8d 45 d0          	lea    -0x30(%rbp),%rax
  407b73:	48 89 d1             	mov    %rdx,%rcx
  407b76:	ba 71 01 00 00       	mov    $0x171,%edx
  407b7b:	be 00 c7 40 00       	mov    $0x40c700,%esi
  407b80:	48 89 c7             	mov    %rax,%rdi
  407b83:	e8 f8 cc ff ff       	callq  404880 <_ZN6google15LogMessageFatalC1EPKciRKNS_13CheckOpStringE@plt>
  407b88:	48 8d 45 d0          	lea    -0x30(%rbp),%rax
  407b8c:	48 89 c7             	mov    %rax,%rdi
  407b8f:	e8 9c ce ff ff       	callq  404a30 <_ZN6google10LogMessage6streamEv@plt>
  407b94:	4c 89 e6             	mov    %r12,%rsi
  407b97:	48 89 c7             	mov    %rax,%rdi
  407b9a:	e8 71 cc ff ff       	callq  404810 <_ZStlsISt11char_traitsIcEERSt13basic_ostreamIcT_ES5_PKc@plt>
  407b9f:	be 06 ca 40 00       	mov    $0x40ca06,%esi
  407ba4:	48 89 c7             	mov    %rax,%rdi
  407ba7:	e8 64 cc ff ff       	callq  404810 <_ZStlsISt11char_traitsIcEERSt13basic_ostreamIcT_ES5_PKc@plt>
  407bac:	89 de                	mov    %ebx,%esi
  407bae:	48 89 c7             	mov    %rax,%rdi
  407bb1:	e8 9a cb ff ff       	callq  404750 <_ZNSolsEi@plt>
  407bb6:	be d2 c9 40 00       	mov    $0x40c9d2,%esi
  407bbb:	48 89 c7             	mov    %rax,%rdi
  407bbe:	e8 4d cc ff ff       	callq  404810 <_ZStlsISt11char_traitsIcEERSt13basic_ostreamIcT_ES5_PKc@plt>
  407bc3:	48 8d 45 d0          	lea    -0x30(%rbp),%rax
  407bc7:	48 89 c7             	mov    %rax,%rdi
  407bca:	e8 c1 cd ff ff       	callq  404990 <_ZN6google15LogMessageFatalD1Ev@plt>
  407bcf:	48 8b 45 88          	mov    -0x78(%rbp),%rax
  407bd3:	48 8b 00             	mov    (%rax),%rax
  407bd6:	48 83 c0 58          	add    $0x58,%rax
  407bda:	48 8b 00             	mov    (%rax),%rax
  407bdd:	48 8b 55 88          	mov    -0x78(%rbp),%rdx
  407be1:	48 89 d7             	mov    %rdx,%rdi
  407be4:	ff d0                	callq  *%rax
  407be6:	f7 d0                	not    %eax
  407be8:	c1 e8 1f             	shr    $0x1f,%eax
  407beb:	84 c0                	test   %al,%al
  407bed:	0f 84 0d 01 00 00    	je     407d00 <_ZN5caffe5LayerIfE15CheckBlobCountsERKSt6vectorIPNS_4BlobIfEESaIS5_EES9_+0x746>
  407bf3:	48 8b 85 78 ff ff ff 	mov    -0x88(%rbp),%rax
  407bfa:	48 89 c7             	mov    %rax,%rdi
  407bfd:	e8 16 05 00 00       	callq  408118 <_ZNKSt6vectorIPN5caffe4BlobIfEESaIS3_EE4sizeEv>
  407c02:	48 89 c7             	mov    %rax,%rdi
  407c05:	e8 ac d3 ff ff       	callq  404fb6 <_ZN6google21GetReferenceableValueEm>
  407c0a:	48 89 45 d0          	mov    %rax,-0x30(%rbp)
  407c0e:	48 8b 45 88          	mov    -0x78(%rbp),%rax
  407c12:	48 8b 00             	mov    (%rax),%rax
  407c15:	48 83 c0 58          	add    $0x58,%rax
  407c19:	48 8b 00             	mov    (%rax),%rax
  407c1c:	48 8b 55 88          	mov    -0x78(%rbp),%rdx
  407c20:	48 89 d7             	mov    %rdx,%rdi
  407c23:	ff d0                	callq  *%rax
  407c25:	89 c7                	mov    %eax,%edi
  407c27:	e8 7e d3 ff ff       	callq  404faa <_ZN6google21GetReferenceableValueEi>
  407c2c:	89 45 90             	mov    %eax,-0x70(%rbp)
  407c2f:	48 8d 4d d0          	lea    -0x30(%rbp),%rcx
  407c33:	48 8d 45 90          	lea    -0x70(%rbp),%rax
  407c37:	ba 20 ca 40 00       	mov    $0x40ca20,%edx
  407c3c:	48 89 ce             	mov    %rcx,%rsi
  407c3f:	48 89 c7             	mov    %rax,%rdi
  407c42:	e8 6e 0f 00 00       	callq  408bb5 <_ZN6google12Check_GEImplIimEEPNSt7__cxx1112basic_stringIcSt11char_traitsIcESaIcEEERKT_RKT0_PKc>
  407c47:	48 89 45 c0          	mov    %rax,-0x40(%rbp)
  407c4b:	48 83 7d c0 00       	cmpq   $0x0,-0x40(%rbp)
  407c50:	0f 84 aa 00 00 00    	je     407d00 <_ZN5caffe5LayerIfE15CheckBlobCountsERKSt6vectorIPNS_4BlobIfEESaIS5_EES9_+0x746>
  407c56:	48 8b 45 88          	mov    -0x78(%rbp),%rax
  407c5a:	48 8b 00             	mov    (%rax),%rax
  407c5d:	48 83 c0 58          	add    $0x58,%rax
  407c61:	48 8b 00             	mov    (%rax),%rax
  407c64:	48 8b 55 88          	mov    -0x78(%rbp),%rdx
  407c68:	48 89 d7             	mov    %rdx,%rdi
  407c6b:	ff d0                	callq  *%rax
  407c6d:	89 c3                	mov    %eax,%ebx
  407c6f:	48 8b 45 88          	mov    -0x78(%rbp),%rax
  407c73:	48 8b 00             	mov    (%rax),%rax
  407c76:	48 83 c0 28          	add    $0x28,%rax
  407c7a:	48 8b 00             	mov    (%rax),%rax
  407c7d:	48 8b 55 88          	mov    -0x78(%rbp),%rdx
  407c81:	48 89 d7             	mov    %rdx,%rdi
  407c84:	ff d0                	callq  *%rax
  407c86:	49 89 c4             	mov    %rax,%r12
  407c89:	48 8b 55 c0          	mov    -0x40(%rbp),%rdx
  407c8d:	48 8d 45 90          	lea    -0x70(%rbp),%rax
  407c91:	48 89 d6             	mov    %rdx,%rsi
  407c94:	48 89 c7             	mov    %rax,%rdi
  407c97:	e8 f4 d2 ff ff       	callq  404f90 <_ZN6google13CheckOpStringC1EPNSt7__cxx1112basic_stringIcSt11char_traitsIcESaIcEEE>
  407c9c:	48 8d 55 90          	lea    -0x70(%rbp),%rdx
  407ca0:	48 8d 45 d0          	lea    -0x30(%rbp),%rax
  407ca4:	48 89 d1             	mov    %rdx,%rcx
  407ca7:	ba 76 01 00 00       	mov    $0x176,%edx
  407cac:	be 00 c7 40 00       	mov    $0x40c700,%esi
  407cb1:	48 89 c7             	mov    %rax,%rdi
  407cb4:	e8 c7 cb ff ff       	callq  404880 <_ZN6google15LogMessageFatalC1EPKciRKNS_13CheckOpStringE@plt>
  407cb9:	48 8d 45 d0          	lea    -0x30(%rbp),%rax
  407cbd:	48 89 c7             	mov    %rax,%rdi
  407cc0:	e8 6b cd ff ff       	callq  404a30 <_ZN6google10LogMessage6streamEv@plt>
  407cc5:	4c 89 e6             	mov    %r12,%rsi
  407cc8:	48 89 c7             	mov    %rax,%rdi
  407ccb:	e8 40 cb ff ff       	callq  404810 <_ZStlsISt11char_traitsIcEERSt13basic_ostreamIcT_ES5_PKc@plt>
  407cd0:	be 3c ca 40 00       	mov    $0x40ca3c,%esi
  407cd5:	48 89 c7             	mov    %rax,%rdi
  407cd8:	e8 33 cb ff ff       	callq  404810 <_ZStlsISt11char_traitsIcEERSt13basic_ostreamIcT_ES5_PKc@plt>
  407cdd:	89 de                	mov    %ebx,%esi
  407cdf:	48 89 c7             	mov    %rax,%rdi
  407ce2:	e8 69 ca ff ff       	callq  404750 <_ZNSolsEi@plt>
  407ce7:	be d2 c9 40 00       	mov    $0x40c9d2,%esi
  407cec:	48 89 c7             	mov    %rax,%rdi
  407cef:	e8 1c cb ff ff       	callq  404810 <_ZStlsISt11char_traitsIcEERSt13basic_ostreamIcT_ES5_PKc@plt>
  407cf4:	48 8d 45 d0          	lea    -0x30(%rbp),%rax
  407cf8:	48 89 c7             	mov    %rax,%rdi
  407cfb:	e8 90 cc ff ff       	callq  404990 <_ZN6google15LogMessageFatalD1Ev@plt>
  407d00:	48 8b 45 88          	mov    -0x78(%rbp),%rax
  407d04:	48 8b 00             	mov    (%rax),%rax
  407d07:	48 83 c0 60          	add    $0x60,%rax
  407d0b:	48 8b 00             	mov    (%rax),%rax
  407d0e:	48 8b 55 88          	mov    -0x78(%rbp),%rdx
  407d12:	48 89 d7             	mov    %rdx,%rdi
  407d15:	ff d0                	callq  *%rax
  407d17:	84 c0                	test   %al,%al
  407d19:	0f 84 35 01 00 00    	je     407e54 <_ZN5caffe5LayerIfE15CheckBlobCountsERKSt6vectorIPNS_4BlobIfEESaIS5_EES9_+0x89a>
  407d1f:	48 8b 85 78 ff ff ff 	mov    -0x88(%rbp),%rax
  407d26:	48 89 c7             	mov    %rax,%rdi
  407d29:	e8 ea 03 00 00       	callq  408118 <_ZNKSt6vectorIPN5caffe4BlobIfEESaIS3_EE4sizeEv>
  407d2e:	48 89 c7             	mov    %rax,%rdi
  407d31:	e8 80 d2 ff ff       	callq  404fb6 <_ZN6google21GetReferenceableValueEm>
  407d36:	48 89 45 d0          	mov    %rax,-0x30(%rbp)
  407d3a:	48 8b 45 80          	mov    -0x80(%rbp),%rax
  407d3e:	48 89 c7             	mov    %rax,%rdi
  407d41:	e8 d2 03 00 00       	callq  408118 <_ZNKSt6vectorIPN5caffe4BlobIfEESaIS3_EE4sizeEv>
  407d46:	48 89 c7             	mov    %rax,%rdi
  407d49:	e8 68 d2 ff ff       	callq  404fb6 <_ZN6google21GetReferenceableValueEm>
  407d4e:	48 89 45 90          	mov    %rax,-0x70(%rbp)
  407d52:	48 8d 4d d0          	lea    -0x30(%rbp),%rcx
  407d56:	48 8d 45 90          	lea    -0x70(%rbp),%rax
  407d5a:	ba 55 ca 40 00       	mov    $0x40ca55,%edx
  407d5f:	48 89 ce             	mov    %rcx,%rsi
  407d62:	48 89 c7             	mov    %rax,%rdi
  407d65:	e8 dd 0e 00 00       	callq  408c47 <_ZN6google12Check_EQImplImmEEPNSt7__cxx1112basic_stringIcSt11char_traitsIcESaIcEEERKT_RKT0_PKc>
  407d6a:	48 89 45 c8          	mov    %rax,-0x38(%rbp)
  407d6e:	48 83 7d c8 00       	cmpq   $0x0,-0x38(%rbp)
  407d73:	0f 84 db 00 00 00    	je     407e54 <_ZN5caffe5LayerIfE15CheckBlobCountsERKSt6vectorIPNS_4BlobIfEESaIS5_EES9_+0x89a>
  407d79:	48 8b 45 88          	mov    -0x78(%rbp),%rax
  407d7d:	48 8b 00             	mov    (%rax),%rax
  407d80:	48 83 c0 28          	add    $0x28,%rax
  407d84:	48 8b 00             	mov    (%rax),%rax
  407d87:	48 8b 55 88          	mov    -0x78(%rbp),%rdx
  407d8b:	48 89 d7             	mov    %rdx,%rdi
  407d8e:	ff d0                	callq  *%rax
  407d90:	48 89 c3             	mov    %rax,%rbx
  407d93:	48 8b 55 c8          	mov    -0x38(%rbp),%rdx
  407d97:	48 8d 45 90          	lea    -0x70(%rbp),%rax
  407d9b:	48 89 d6             	mov    %rdx,%rsi
  407d9e:	48 89 c7             	mov    %rax,%rdi
  407da1:	e8 ea d1 ff ff       	callq  404f90 <_ZN6google13CheckOpStringC1EPNSt7__cxx1112basic_stringIcSt11char_traitsIcESaIcEEE>
  407da6:	48 8d 55 90          	lea    -0x70(%rbp),%rdx
  407daa:	48 8d 45 d0          	lea    -0x30(%rbp),%rax
  407dae:	48 89 d1             	mov    %rdx,%rcx
  407db1:	ba 7b 01 00 00       	mov    $0x17b,%edx
  407db6:	be 00 c7 40 00       	mov    $0x40c700,%esi
  407dbb:	48 89 c7             	mov    %rax,%rdi
  407dbe:	e8 bd ca ff ff       	callq  404880 <_ZN6google15LogMessageFatalC1EPKciRKNS_13CheckOpStringE@plt>
  407dc3:	48 8d 45 d0          	lea    -0x30(%rbp),%rax
  407dc7:	48 89 c7             	mov    %rax,%rdi
  407dca:	e8 61 cc ff ff       	callq  404a30 <_ZN6google10LogMessage6streamEv@plt>
  407dcf:	48 89 de             	mov    %rbx,%rsi
  407dd2:	48 89 c7             	mov    %rax,%rdi
  407dd5:	e8 36 ca ff ff       	callq  404810 <_ZStlsISt11char_traitsIcEERSt13basic_ostreamIcT_ES5_PKc@plt>
  407dda:	be 78 ca 40 00       	mov    $0x40ca78,%esi
  407ddf:	48 89 c7             	mov    %rax,%rdi
  407de2:	e8 29 ca ff ff       	callq  404810 <_ZStlsISt11char_traitsIcEERSt13basic_ostreamIcT_ES5_PKc@plt>
  407de7:	be a9 ca 40 00       	mov    $0x40caa9,%esi
  407dec:	48 89 c7             	mov    %rax,%rdi
  407def:	e8 1c ca ff ff       	callq  404810 <_ZStlsISt11char_traitsIcEERSt13basic_ostreamIcT_ES5_PKc@plt>
  407df4:	48 8d 45 d0          	lea    -0x30(%rbp),%rax
  407df8:	48 89 c7             	mov    %rax,%rdi
  407dfb:	e8 90 cb ff ff       	callq  404990 <_ZN6google15LogMessageFatalD1Ev@plt>
  407e00:	48 8d 45 d0          	lea    -0x30(%rbp),%rax
  407e04:	48 89 c7             	mov    %rax,%rdi
  407e07:	e8 84 cb ff ff       	callq  404990 <_ZN6google15LogMessageFatalD1Ev@plt>
  407e0c:	48 8d 45 d0          	lea    -0x30(%rbp),%rax
  407e10:	48 89 c7             	mov    %rax,%rdi
  407e13:	e8 78 cb ff ff       	callq  404990 <_ZN6google15LogMessageFatalD1Ev@plt>
  407e18:	48 8d 45 d0          	lea    -0x30(%rbp),%rax
  407e1c:	48 89 c7             	mov    %rax,%rdi
  407e1f:	e8 6c cb ff ff       	callq  404990 <_ZN6google15LogMessageFatalD1Ev@plt>
  407e24:	48 8d 45 d0          	lea    -0x30(%rbp),%rax
  407e28:	48 89 c7             	mov    %rax,%rdi
  407e2b:	e8 60 cb ff ff       	callq  404990 <_ZN6google15LogMessageFatalD1Ev@plt>
  407e30:	48 8d 45 d0          	lea    -0x30(%rbp),%rax
  407e34:	48 89 c7             	mov    %rax,%rdi
  407e37:	e8 54 cb ff ff       	callq  404990 <_ZN6google15LogMessageFatalD1Ev@plt>
  407e3c:	48 8d 45 d0          	lea    -0x30(%rbp),%rax
  407e40:	48 89 c7             	mov    %rax,%rdi
  407e43:	e8 48 cb ff ff       	callq  404990 <_ZN6google15LogMessageFatalD1Ev@plt>
  407e48:	48 8d 45 d0          	lea    -0x30(%rbp),%rax
  407e4c:	48 89 c7             	mov    %rax,%rdi
  407e4f:	e8 3c cb ff ff       	callq  404990 <_ZN6google15LogMessageFatalD1Ev@plt>
  407e54:	90                   	nop
  407e55:	48 8b 45 e8          	mov    -0x18(%rbp),%rax
  407e59:	64 48 33 04 25 28 00 	xor    %fs:0x28,%rax
  407e60:	00 00 
  407e62:	74 05                	je     407e69 <_ZN5caffe5LayerIfE15CheckBlobCountsERKSt6vectorIPNS_4BlobIfEESaIS5_EES9_+0x8af>
  407e64:	e8 b7 c8 ff ff       	callq  404720 <__stack_chk_fail@plt>
  407e69:	48 83 ec 80          	sub    $0xffffffffffffff80,%rsp
  407e6d:	5b                   	pop    %rbx
  407e6e:	41 5c                	pop    %r12
  407e70:	5d                   	pop    %rbp
  407e71:	c3                   	retq   

0000000000407e72 <_ZN5caffe5LayerIfE10LayerSetUpERKSt6vectorIPNS_4BlobIfEESaIS5_EES9_>:
  407e72:	55                   	push   %rbp
  407e73:	48 89 e5             	mov    %rsp,%rbp
  407e76:	48 89 7d f8          	mov    %rdi,-0x8(%rbp)
  407e7a:	48 89 75 f0          	mov    %rsi,-0x10(%rbp)
  407e7e:	48 89 55 e8          	mov    %rdx,-0x18(%rbp)
  407e82:	90                   	nop
  407e83:	5d                   	pop    %rbp
  407e84:	c3                   	retq   
  407e85:	90                   	nop

0000000000407e86 <_ZN5caffe5LayerIfE14SetLossWeightsERKSt6vectorIPNS_4BlobIfEESaIS5_EE>:
  407e86:	55                   	push   %rbp
  407e87:	48 89 e5             	mov    %rsp,%rbp
  407e8a:	53                   	push   %rbx
  407e8b:	48 83 ec 78          	sub    $0x78,%rsp
  407e8f:	48 89 7d 98          	mov    %rdi,-0x68(%rbp)
  407e93:	48 89 75 90          	mov    %rsi,-0x70(%rbp)
  407e97:	64 48 8b 04 25 28 00 	mov    %fs:0x28,%rax
  407e9e:	00 00 
  407ea0:	48 89 45 e8          	mov    %rax,-0x18(%rbp)
  407ea4:	31 c0                	xor    %eax,%eax
  407ea6:	48 8b 45 98          	mov    -0x68(%rbp),%rax
  407eaa:	48 83 c0 08          	add    $0x8,%rax
  407eae:	48 89 c7             	mov    %rax,%rdi
  407eb1:	e8 0c d2 ff ff       	callq  4050c2 <_ZNK5caffe14LayerParameter16loss_weight_sizeEv>
  407eb6:	89 45 ac             	mov    %eax,-0x54(%rbp)
  407eb9:	83 7d ac 00          	cmpl   $0x0,-0x54(%rbp)
  407ebd:	0f 84 8f 01 00 00    	je     408052 <_ZN5caffe5LayerIfE14SetLossWeightsERKSt6vectorIPNS_4BlobIfEESaIS5_EE+0x1cc>
  407ec3:	8b 45 ac             	mov    -0x54(%rbp),%eax
  407ec6:	89 c7                	mov    %eax,%edi
  407ec8:	e8 dd d0 ff ff       	callq  404faa <_ZN6google21GetReferenceableValueEi>
  407ecd:	89 45 b8             	mov    %eax,-0x48(%rbp)
  407ed0:	48 8b 45 90          	mov    -0x70(%rbp),%rax
  407ed4:	48 89 c7             	mov    %rax,%rdi
  407ed7:	e8 3c 02 00 00       	callq  408118 <_ZNKSt6vectorIPN5caffe4BlobIfEESaIS3_EE4sizeEv>
  407edc:	48 89 c7             	mov    %rax,%rdi
  407edf:	e8 d2 d0 ff ff       	callq  404fb6 <_ZN6google21GetReferenceableValueEm>
  407ee4:	48 89 45 d0          	mov    %rax,-0x30(%rbp)
  407ee8:	48 8d 4d b8          	lea    -0x48(%rbp),%rcx
  407eec:	48 8d 45 d0          	lea    -0x30(%rbp),%rax
  407ef0:	ba c0 ca 40 00       	mov    $0x40cac0,%edx
  407ef5:	48 89 ce             	mov    %rcx,%rsi
  407ef8:	48 89 c7             	mov    %rax,%rdi
  407efb:	e8 97 0d 00 00       	callq  408c97 <_ZN6google12Check_EQImplImiEEPNSt7__cxx1112basic_stringIcSt11char_traitsIcESaIcEEERKT_RKT0_PKc>
  407f00:	48 89 45 c0          	mov    %rax,-0x40(%rbp)
  407f04:	48 83 7d c0 00       	cmpq   $0x0,-0x40(%rbp)
  407f09:	74 55                	je     407f60 <_ZN5caffe5LayerIfE14SetLossWeightsERKSt6vectorIPNS_4BlobIfEESaIS5_EE+0xda>
  407f0b:	48 8b 55 c0          	mov    -0x40(%rbp),%rdx
  407f0f:	48 8d 45 b8          	lea    -0x48(%rbp),%rax
  407f13:	48 89 d6             	mov    %rdx,%rsi
  407f16:	48 89 c7             	mov    %rax,%rdi
  407f19:	e8 72 d0 ff ff       	callq  404f90 <_ZN6google13CheckOpStringC1EPNSt7__cxx1112basic_stringIcSt11char_traitsIcESaIcEEE>
  407f1e:	48 8d 55 b8          	lea    -0x48(%rbp),%rdx
  407f22:	48 8d 45 d0          	lea    -0x30(%rbp),%rax
  407f26:	48 89 d1             	mov    %rdx,%rcx
  407f29:	ba 88 01 00 00       	mov    $0x188,%edx
  407f2e:	be 00 c7 40 00       	mov    $0x40c700,%esi
  407f33:	48 89 c7             	mov    %rax,%rdi
  407f36:	e8 45 c9 ff ff       	callq  404880 <_ZN6google15LogMessageFatalC1EPKciRKNS_13CheckOpStringE@plt>
  407f3b:	48 8d 45 d0          	lea    -0x30(%rbp),%rax
  407f3f:	48 89 c7             	mov    %rax,%rdi
  407f42:	e8 e9 ca ff ff       	callq  404a30 <_ZN6google10LogMessage6streamEv@plt>
