
fullyconnected:     file format elf64-x86-64


Disassembly of section .init:

00000000004043a0 <_init>:
  4043a0:	48 83 ec 08          	sub    $0x8,%rsp
  4043a4:	48 8b 05 4d cc 20 00 	mov    0x20cc4d(%rip),%rax        # 610ff8 <_DYNAMIC+0x220>
  4043ab:	48 85 c0             	test   %rax,%rax
  4043ae:	74 05                	je     4043b5 <_init+0x15>
  4043b0:	e8 9b 05 00 00       	callq  404950 <_ZNSaIcED1Ev@plt+0x10>
  4043b5:	48 83 c4 08          	add    $0x8,%rsp
  4043b9:	c3                   	retq   

Disassembly of section .plt:

00000000004043c0 <xopenme_init@plt-0x10>:
  4043c0:	ff 35 42 cc 20 00    	pushq  0x20cc42(%rip)        # 611008 <_GLOBAL_OFFSET_TABLE_+0x8>
  4043c6:	ff 25 44 cc 20 00    	jmpq   *0x20cc44(%rip)        # 611010 <_GLOBAL_OFFSET_TABLE_+0x10>
  4043cc:	0f 1f 40 00          	nopl   0x0(%rax)

00000000004043d0 <xopenme_init@plt>:
  4043d0:	ff 25 42 cc 20 00    	jmpq   *0x20cc42(%rip)        # 611018 <_GLOBAL_OFFSET_TABLE_+0x18>
  4043d6:	68 00 00 00 00       	pushq  $0x0
  4043db:	e9 e0 ff ff ff       	jmpq   4043c0 <_init+0x20>

00000000004043e0 <xopenme_add_var_f@plt>:
  4043e0:	ff 25 3a cc 20 00    	jmpq   *0x20cc3a(%rip)        # 611020 <_GLOBAL_OFFSET_TABLE_+0x20>
  4043e6:	68 01 00 00 00       	pushq  $0x1
  4043eb:	e9 d0 ff ff ff       	jmpq   4043c0 <_init+0x20>

00000000004043f0 <__cxa_begin_catch@plt>:
  4043f0:	ff 25 32 cc 20 00    	jmpq   *0x20cc32(%rip)        # 611028 <_GLOBAL_OFFSET_TABLE_+0x28>
  4043f6:	68 02 00 00 00       	pushq  $0x2
  4043fb:	e9 c0 ff ff ff       	jmpq   4043c0 <_init+0x20>

0000000000404400 <_ZN5caffe14LayerParameterC1Ev@plt>:
  404400:	ff 25 2a cc 20 00    	jmpq   *0x20cc2a(%rip)        # 611030 <_GLOBAL_OFFSET_TABLE_+0x30>
  404406:	68 03 00 00 00       	pushq  $0x3
  40440b:	e9 b0 ff ff ff       	jmpq   4043c0 <_init+0x20>

0000000000404410 <printf@plt>:
  404410:	ff 25 22 cc 20 00    	jmpq   *0x20cc22(%rip)        # 611038 <_GLOBAL_OFFSET_TABLE_+0x38>
  404416:	68 04 00 00 00       	pushq  $0x4
  40441b:	e9 a0 ff ff ff       	jmpq   4043c0 <_init+0x20>

0000000000404420 <_ZN6google4base21CheckOpMessageBuilder7ForVar2Ev@plt>:
  404420:	ff 25 1a cc 20 00    	jmpq   *0x20cc1a(%rip)        # 611040 <_GLOBAL_OFFSET_TABLE_+0x40>
  404426:	68 05 00 00 00       	pushq  $0x5
  40442b:	e9 90 ff ff ff       	jmpq   4043c0 <_init+0x20>

0000000000404430 <memcpy@plt>:
  404430:	ff 25 12 cc 20 00    	jmpq   *0x20cc12(%rip)        # 611048 <_GLOBAL_OFFSET_TABLE_+0x48>
  404436:	68 06 00 00 00       	pushq  $0x6
  40443b:	e9 80 ff ff ff       	jmpq   4043c0 <_init+0x20>

0000000000404440 <_ZSt17__throw_bad_allocv@plt>:
  404440:	ff 25 0a cc 20 00    	jmpq   *0x20cc0a(%rip)        # 611050 <_GLOBAL_OFFSET_TABLE_+0x50>
  404446:	68 07 00 00 00       	pushq  $0x7
  40444b:	e9 70 ff ff ff       	jmpq   4043c0 <_init+0x20>

0000000000404450 <_ZN6google4base21CheckOpMessageBuilderC1EPKc@plt>:
  404450:	ff 25 02 cc 20 00    	jmpq   *0x20cc02(%rip)        # 611058 <_GLOBAL_OFFSET_TABLE_+0x58>
  404456:	68 08 00 00 00       	pushq  $0x8
  40445b:	e9 60 ff ff ff       	jmpq   4043c0 <_init+0x20>

0000000000404460 <_ZNSt7__cxx1112basic_stringIcSt11char_traitsIcESaIcEEC1ERKS4_@plt>:
  404460:	ff 25 fa cb 20 00    	jmpq   *0x20cbfa(%rip)        # 611060 <_GLOBAL_OFFSET_TABLE_+0x60>
  404466:	68 09 00 00 00       	pushq  $0x9
  40446b:	e9 50 ff ff ff       	jmpq   4043c0 <_init+0x20>

0000000000404470 <_ZN5caffe17InnerProductLayerIfE7ReshapeERKSt6vectorIPNS_4BlobIfEESaIS5_EES9_@plt>:
  404470:	ff 25 f2 cb 20 00    	jmpq   *0x20cbf2(%rip)        # 611068 <_GLOBAL_OFFSET_TABLE_+0x68>
  404476:	68 0a 00 00 00       	pushq  $0xa
  40447b:	e9 40 ff ff ff       	jmpq   4043c0 <_init+0x20>

0000000000404480 <_Znwm@plt>:
  404480:	ff 25 ea cb 20 00    	jmpq   *0x20cbea(%rip)        # 611070 <_GLOBAL_OFFSET_TABLE_+0x70>
  404486:	68 0b 00 00 00       	pushq  $0xb
  40448b:	e9 30 ff ff ff       	jmpq   4043c0 <_init+0x20>

0000000000404490 <memmove@plt>:
  404490:	ff 25 e2 cb 20 00    	jmpq   *0x20cbe2(%rip)        # 611078 <_GLOBAL_OFFSET_TABLE_+0x78>
  404496:	68 0c 00 00 00       	pushq  $0xc
  40449b:	e9 20 ff ff ff       	jmpq   4043c0 <_init+0x20>

00000000004044a0 <__assert_fail@plt>:
  4044a0:	ff 25 da cb 20 00    	jmpq   *0x20cbda(%rip)        # 611080 <_GLOBAL_OFFSET_TABLE_+0x80>
  4044a6:	68 0d 00 00 00       	pushq  $0xd
  4044ab:	e9 10 ff ff ff       	jmpq   4043c0 <_init+0x20>

00000000004044b0 <_ZN5caffe14LayerParameter8CopyFromERKS0_@plt>:
  4044b0:	ff 25 d2 cb 20 00    	jmpq   *0x20cbd2(%rip)        # 611088 <_GLOBAL_OFFSET_TABLE_+0x88>
  4044b6:	68 0e 00 00 00       	pushq  $0xe
  4044bb:	e9 00 ff ff ff       	jmpq   4043c0 <_init+0x20>

00000000004044c0 <_ZN5caffe17InnerProductLayerIfE11Forward_gpuERKSt6vectorIPNS_4BlobIfEESaIS5_EES9_@plt>:
  4044c0:	ff 25 ca cb 20 00    	jmpq   *0x20cbca(%rip)        # 611090 <_GLOBAL_OFFSET_TABLE_+0x90>
  4044c6:	68 0f 00 00 00       	pushq  $0xf
  4044cb:	e9 f0 fe ff ff       	jmpq   4043c0 <_init+0x20>

00000000004044d0 <_ZN5caffe4BlobIfE16mutable_cpu_dataEv@plt>:
  4044d0:	ff 25 c2 cb 20 00    	jmpq   *0x20cbc2(%rip)        # 611098 <_GLOBAL_OFFSET_TABLE_+0x98>
  4044d6:	68 10 00 00 00       	pushq  $0x10
  4044db:	e9 e0 fe ff ff       	jmpq   4043c0 <_init+0x20>

00000000004044e0 <_ZN5caffe17InnerProductLayerIfE12Backward_gpuERKSt6vectorIPNS_4BlobIfEESaIS5_EERKS2_IbSaIbEES9_@plt>:
  4044e0:	ff 25 ba cb 20 00    	jmpq   *0x20cbba(%rip)        # 6110a0 <_GLOBAL_OFFSET_TABLE_+0xa0>
  4044e6:	68 11 00 00 00       	pushq  $0x11
  4044eb:	e9 d0 fe ff ff       	jmpq   4043c0 <_init+0x20>

00000000004044f0 <_ZN5caffe4BlobIfE16mutable_cpu_diffEv@plt>:
  4044f0:	ff 25 b2 cb 20 00    	jmpq   *0x20cbb2(%rip)        # 6110a8 <_GLOBAL_OFFSET_TABLE_+0xa8>
  4044f6:	68 12 00 00 00       	pushq  $0x12
  4044fb:	e9 c0 fe ff ff       	jmpq   4043c0 <_init+0x20>

0000000000404500 <__stack_chk_fail@plt>:
  404500:	ff 25 aa cb 20 00    	jmpq   *0x20cbaa(%rip)        # 6110b0 <_GLOBAL_OFFSET_TABLE_+0xb0>
  404506:	68 13 00 00 00       	pushq  $0x13
  40450b:	e9 b0 fe ff ff       	jmpq   4043c0 <_init+0x20>

0000000000404510 <_ZN6google4base21CheckOpMessageBuilderD1Ev@plt>:
  404510:	ff 25 a2 cb 20 00    	jmpq   *0x20cba2(%rip)        # 6110b8 <_GLOBAL_OFFSET_TABLE_+0xb8>
  404516:	68 14 00 00 00       	pushq  $0x14
  40451b:	e9 a0 fe ff ff       	jmpq   4043c0 <_init+0x20>

0000000000404520 <_ZNSolsEi@plt>:
  404520:	ff 25 9a cb 20 00    	jmpq   *0x20cb9a(%rip)        # 6110c0 <_GLOBAL_OFFSET_TABLE_+0xc0>
  404526:	68 15 00 00 00       	pushq  $0x15
  40452b:	e9 90 fe ff ff       	jmpq   4043c0 <_init+0x20>

0000000000404530 <_ZN6google8protobuf5Arena11AddListNodeEPvPFvS2_E@plt>:
  404530:	ff 25 92 cb 20 00    	jmpq   *0x20cb92(%rip)        # 6110c8 <_GLOBAL_OFFSET_TABLE_+0xc8>
  404536:	68 16 00 00 00       	pushq  $0x16
  40453b:	e9 80 fe ff ff       	jmpq   4043c0 <_init+0x20>

0000000000404540 <_ZN5caffe17InnerProductLayerIfE10LayerSetUpERKSt6vectorIPNS_4BlobIfEESaIS5_EES9_@plt>:
  404540:	ff 25 8a cb 20 00    	jmpq   *0x20cb8a(%rip)        # 6110d0 <_GLOBAL_OFFSET_TABLE_+0xd0>
  404546:	68 17 00 00 00       	pushq  $0x17
  40454b:	e9 70 fe ff ff       	jmpq   4043c0 <_init+0x20>

0000000000404550 <atoi@plt>:
  404550:	ff 25 82 cb 20 00    	jmpq   *0x20cb82(%rip)        # 6110d8 <_GLOBAL_OFFSET_TABLE_+0xd8>
  404556:	68 18 00 00 00       	pushq  $0x18
  40455b:	e9 60 fe ff ff       	jmpq   4043c0 <_init+0x20>

0000000000404560 <_ZNSt7__cxx1112basic_stringIcSt11char_traitsIcESaIcEEC1Ev@plt>:
  404560:	ff 25 7a cb 20 00    	jmpq   *0x20cb7a(%rip)        # 6110e0 <_GLOBAL_OFFSET_TABLE_+0xe0>
  404566:	68 19 00 00 00       	pushq  $0x19
  40456b:	e9 50 fe ff ff       	jmpq   4043c0 <_init+0x20>

0000000000404570 <_ZdaPv@plt>:
  404570:	ff 25 72 cb 20 00    	jmpq   *0x20cb72(%rip)        # 6110e8 <_GLOBAL_OFFSET_TABLE_+0xe8>
  404576:	68 1a 00 00 00       	pushq  $0x1a
  40457b:	e9 40 fe ff ff       	jmpq   4043c0 <_init+0x20>

0000000000404580 <strlen@plt>:
  404580:	ff 25 6a cb 20 00    	jmpq   *0x20cb6a(%rip)        # 6110f0 <_GLOBAL_OFFSET_TABLE_+0xf0>
  404586:	68 1b 00 00 00       	pushq  $0x1b
  40458b:	e9 30 fe ff ff       	jmpq   4043c0 <_init+0x20>

0000000000404590 <_Znam@plt>:
  404590:	ff 25 62 cb 20 00    	jmpq   *0x20cb62(%rip)        # 6110f8 <_GLOBAL_OFFSET_TABLE_+0xf8>
  404596:	68 1c 00 00 00       	pushq  $0x1c
  40459b:	e9 20 fe ff ff       	jmpq   4043c0 <_init+0x20>

00000000004045a0 <xopenme_add_var_i@plt>:
  4045a0:	ff 25 5a cb 20 00    	jmpq   *0x20cb5a(%rip)        # 611100 <_GLOBAL_OFFSET_TABLE_+0x100>
  4045a6:	68 1d 00 00 00       	pushq  $0x1d
  4045ab:	e9 10 fe ff ff       	jmpq   4043c0 <_init+0x20>

00000000004045b0 <_ZN5caffe21InnerProductParameterC1Ev@plt>:
  4045b0:	ff 25 52 cb 20 00    	jmpq   *0x20cb52(%rip)        # 611108 <_GLOBAL_OFFSET_TABLE_+0x108>
  4045b6:	68 1e 00 00 00       	pushq  $0x1e
  4045bb:	e9 00 fe ff ff       	jmpq   4043c0 <_init+0x20>

00000000004045c0 <xopenme_get_timer@plt>:
  4045c0:	ff 25 4a cb 20 00    	jmpq   *0x20cb4a(%rip)        # 611110 <_GLOBAL_OFFSET_TABLE_+0x110>
  4045c6:	68 1f 00 00 00       	pushq  $0x1f
  4045cb:	e9 f0 fd ff ff       	jmpq   4043c0 <_init+0x20>

00000000004045d0 <xopenme_clock_end@plt>:
  4045d0:	ff 25 42 cb 20 00    	jmpq   *0x20cb42(%rip)        # 611118 <_GLOBAL_OFFSET_TABLE_+0x118>
  4045d6:	68 20 00 00 00       	pushq  $0x20
  4045db:	e9 e0 fd ff ff       	jmpq   4043c0 <_init+0x20>

00000000004045e0 <_ZdlPv@plt>:
  4045e0:	ff 25 3a cb 20 00    	jmpq   *0x20cb3a(%rip)        # 611120 <_GLOBAL_OFFSET_TABLE_+0x120>
  4045e6:	68 21 00 00 00       	pushq  $0x21
  4045eb:	e9 d0 fd ff ff       	jmpq   4043c0 <_init+0x20>

00000000004045f0 <_ZStlsISt11char_traitsIcEERSt13basic_ostreamIcT_ES5_PKc@plt>:
  4045f0:	ff 25 32 cb 20 00    	jmpq   *0x20cb32(%rip)        # 611128 <_GLOBAL_OFFSET_TABLE_+0x128>
  4045f6:	68 22 00 00 00       	pushq  $0x22
  4045fb:	e9 c0 fd ff ff       	jmpq   4043c0 <_init+0x20>

0000000000404600 <xopenme_clock_start@plt>:
  404600:	ff 25 2a cb 20 00    	jmpq   *0x20cb2a(%rip)        # 611130 <_GLOBAL_OFFSET_TABLE_+0x130>
  404606:	68 23 00 00 00       	pushq  $0x23
  40460b:	e9 b0 fd ff ff       	jmpq   4043c0 <_init+0x20>

0000000000404610 <_ZN6google8protobuf8internal10LogMessageC1ENS0_8LogLevelEPKci@plt>:
  404610:	ff 25 22 cb 20 00    	jmpq   *0x20cb22(%rip)        # 611138 <_GLOBAL_OFFSET_TABLE_+0x138>
  404616:	68 24 00 00 00       	pushq  $0x24
  40461b:	e9 a0 fd ff ff       	jmpq   4043c0 <_init+0x20>

0000000000404620 <__gxx_personality_v0@plt>:
  404620:	ff 25 1a cb 20 00    	jmpq   *0x20cb1a(%rip)        # 611140 <_GLOBAL_OFFSET_TABLE_+0x140>
  404626:	68 25 00 00 00       	pushq  $0x25
  40462b:	e9 90 fd ff ff       	jmpq   4043c0 <_init+0x20>

0000000000404630 <_ZSt20__throw_length_errorPKc@plt>:
  404630:	ff 25 12 cb 20 00    	jmpq   *0x20cb12(%rip)        # 611148 <_GLOBAL_OFFSET_TABLE_+0x148>
  404636:	68 26 00 00 00       	pushq  $0x26
  40463b:	e9 80 fd ff ff       	jmpq   4043c0 <_init+0x20>

0000000000404640 <_ZNK5caffe4BlobIfE8cpu_dataEv@plt>:
  404640:	ff 25 0a cb 20 00    	jmpq   *0x20cb0a(%rip)        # 611150 <_GLOBAL_OFFSET_TABLE_+0x150>
  404646:	68 27 00 00 00       	pushq  $0x27
  40464b:	e9 70 fd ff ff       	jmpq   4043c0 <_init+0x20>

0000000000404650 <_ZN6google15LogMessageFatalC1EPKciRKNS_13CheckOpStringE@plt>:
  404650:	ff 25 02 cb 20 00    	jmpq   *0x20cb02(%rip)        # 611158 <_GLOBAL_OFFSET_TABLE_+0x158>
  404656:	68 28 00 00 00       	pushq  $0x28
  40465b:	e9 60 fd ff ff       	jmpq   4043c0 <_init+0x20>

0000000000404660 <_ZN5caffe17InnerProductLayerIfE11Forward_cpuERKSt6vectorIPNS_4BlobIfEESaIS5_EES9_@plt>:
  404660:	ff 25 fa ca 20 00    	jmpq   *0x20cafa(%rip)        # 611160 <_GLOBAL_OFFSET_TABLE_+0x160>
  404666:	68 29 00 00 00       	pushq  $0x29
  40466b:	e9 50 fd ff ff       	jmpq   4043c0 <_init+0x20>

0000000000404670 <_Unwind_Resume@plt>:
  404670:	ff 25 f2 ca 20 00    	jmpq   *0x20caf2(%rip)        # 611168 <_GLOBAL_OFFSET_TABLE_+0x168>
  404676:	68 2a 00 00 00       	pushq  $0x2a
  40467b:	e9 40 fd ff ff       	jmpq   4043c0 <_init+0x20>

0000000000404680 <_ZNSt8ios_base4InitD1Ev@plt>:
  404680:	ff 25 ea ca 20 00    	jmpq   *0x20caea(%rip)        # 611170 <_GLOBAL_OFFSET_TABLE_+0x170>
  404686:	68 2b 00 00 00       	pushq  $0x2b
  40468b:	e9 30 fd ff ff       	jmpq   4043c0 <_init+0x20>

0000000000404690 <_ZN5caffe9BlobProtoC1Ev@plt>:
  404690:	ff 25 e2 ca 20 00    	jmpq   *0x20cae2(%rip)        # 611178 <_GLOBAL_OFFSET_TABLE_+0x178>
  404696:	68 2c 00 00 00       	pushq  $0x2c
  40469b:	e9 20 fd ff ff       	jmpq   4043c0 <_init+0x20>

00000000004046a0 <_ZNK5caffe4BlobIfE8cpu_diffEv@plt>:
  4046a0:	ff 25 da ca 20 00    	jmpq   *0x20cada(%rip)        # 611180 <_GLOBAL_OFFSET_TABLE_+0x180>
  4046a6:	68 2d 00 00 00       	pushq  $0x2d
  4046ab:	e9 10 fd ff ff       	jmpq   4043c0 <_init+0x20>

00000000004046b0 <_ZN5caffe9caffe_setIfEEviT_PS1_@plt>:
  4046b0:	ff 25 d2 ca 20 00    	jmpq   *0x20cad2(%rip)        # 611188 <_GLOBAL_OFFSET_TABLE_+0x188>
  4046b6:	68 2e 00 00 00       	pushq  $0x2e
  4046bb:	e9 00 fd ff ff       	jmpq   4043c0 <_init+0x20>

00000000004046c0 <getenv@plt>:
  4046c0:	ff 25 ca ca 20 00    	jmpq   *0x20caca(%rip)        # 611190 <_GLOBAL_OFFSET_TABLE_+0x190>
  4046c6:	68 2f 00 00 00       	pushq  $0x2f
  4046cb:	e9 f0 fc ff ff       	jmpq   4043c0 <_init+0x20>

00000000004046d0 <_ZNSt7__cxx1112basic_stringIcSt11char_traitsIcESaIcEED1Ev@plt>:
  4046d0:	ff 25 c2 ca 20 00    	jmpq   *0x20cac2(%rip)        # 611198 <_GLOBAL_OFFSET_TABLE_+0x198>
  4046d6:	68 30 00 00 00       	pushq  $0x30
  4046db:	e9 e0 fc ff ff       	jmpq   4043c0 <_init+0x20>

00000000004046e0 <__cxa_end_catch@plt>:
  4046e0:	ff 25 ba ca 20 00    	jmpq   *0x20caba(%rip)        # 6111a0 <_GLOBAL_OFFSET_TABLE_+0x1a0>
  4046e6:	68 31 00 00 00       	pushq  $0x31
  4046eb:	e9 d0 fc ff ff       	jmpq   4043c0 <_init+0x20>

00000000004046f0 <_ZN6google8protobuf5Arena15AllocateAlignedEPKSt9type_infom@plt>:
  4046f0:	ff 25 b2 ca 20 00    	jmpq   *0x20cab2(%rip)        # 6111a8 <_GLOBAL_OFFSET_TABLE_+0x1a8>
  4046f6:	68 32 00 00 00       	pushq  $0x32
  4046fb:	e9 c0 fc ff ff       	jmpq   4043c0 <_init+0x20>

0000000000404700 <_ZN6google8protobuf8internal11LogFinisheraSERNS1_10LogMessageE@plt>:
  404700:	ff 25 aa ca 20 00    	jmpq   *0x20caaa(%rip)        # 6111b0 <_GLOBAL_OFFSET_TABLE_+0x1b0>
  404706:	68 33 00 00 00       	pushq  $0x33
  40470b:	e9 b0 fc ff ff       	jmpq   4043c0 <_init+0x20>

0000000000404710 <__cxa_rethrow@plt>:
  404710:	ff 25 a2 ca 20 00    	jmpq   *0x20caa2(%rip)        # 6111b8 <_GLOBAL_OFFSET_TABLE_+0x1b8>
  404716:	68 34 00 00 00       	pushq  $0x34
  40471b:	e9 a0 fc ff ff       	jmpq   4043c0 <_init+0x20>

0000000000404720 <__cxa_throw_bad_array_new_length@plt>:
  404720:	ff 25 9a ca 20 00    	jmpq   *0x20ca9a(%rip)        # 6111c0 <_GLOBAL_OFFSET_TABLE_+0x1c0>
  404726:	68 35 00 00 00       	pushq  $0x35
  40472b:	e9 90 fc ff ff       	jmpq   4043c0 <_init+0x20>

0000000000404730 <_ZNSt7__cxx1112basic_stringIcSt11char_traitsIcESaIcEEC1EPKcRKS3_@plt>:
  404730:	ff 25 92 ca 20 00    	jmpq   *0x20ca92(%rip)        # 6111c8 <_GLOBAL_OFFSET_TABLE_+0x1c8>
  404736:	68 36 00 00 00       	pushq  $0x36
  40473b:	e9 80 fc ff ff       	jmpq   4043c0 <_init+0x20>

0000000000404740 <_ZN5caffe5Caffe3GetEv@plt>:
  404740:	ff 25 8a ca 20 00    	jmpq   *0x20ca8a(%rip)        # 6111d0 <_GLOBAL_OFFSET_TABLE_+0x1d0>
  404746:	68 37 00 00 00       	pushq  $0x37
  40474b:	e9 70 fc ff ff       	jmpq   4043c0 <_init+0x20>

0000000000404750 <_ZN5caffe12SyncedMemory8cpu_dataEv@plt>:
  404750:	ff 25 82 ca 20 00    	jmpq   *0x20ca82(%rip)        # 6111d8 <_GLOBAL_OFFSET_TABLE_+0x1d8>
  404756:	68 38 00 00 00       	pushq  $0x38
  40475b:	e9 60 fc ff ff       	jmpq   4043c0 <_init+0x20>

0000000000404760 <__cxa_atexit@plt>:
  404760:	ff 25 7a ca 20 00    	jmpq   *0x20ca7a(%rip)        # 6111e0 <_GLOBAL_OFFSET_TABLE_+0x1e0>
  404766:	68 39 00 00 00       	pushq  $0x39
  40476b:	e9 50 fc ff ff       	jmpq   4043c0 <_init+0x20>

0000000000404770 <_ZN6google15LogMessageFatalD1Ev@plt>:
  404770:	ff 25 72 ca 20 00    	jmpq   *0x20ca72(%rip)        # 6111e8 <_GLOBAL_OFFSET_TABLE_+0x1e8>
  404776:	68 3a 00 00 00       	pushq  $0x3a
  40477b:	e9 40 fc ff ff       	jmpq   4043c0 <_init+0x20>

0000000000404780 <_ZN6google8protobuf8internal10LogMessageD1Ev@plt>:
  404780:	ff 25 6a ca 20 00    	jmpq   *0x20ca6a(%rip)        # 6111f0 <_GLOBAL_OFFSET_TABLE_+0x1f0>
  404786:	68 3b 00 00 00       	pushq  $0x3b
  40478b:	e9 30 fc ff ff       	jmpq   4043c0 <_init+0x20>

0000000000404790 <__cxa_pure_virtual@plt>:
  404790:	ff 25 62 ca 20 00    	jmpq   *0x20ca62(%rip)        # 6111f8 <_GLOBAL_OFFSET_TABLE_+0x1f8>
  404796:	68 3c 00 00 00       	pushq  $0x3c
  40479b:	e9 20 fc ff ff       	jmpq   4043c0 <_init+0x20>

00000000004047a0 <_ZN6google4base21CheckOpMessageBuilder9NewStringB5cxx11Ev@plt>:
  4047a0:	ff 25 5a ca 20 00    	jmpq   *0x20ca5a(%rip)        # 611200 <_GLOBAL_OFFSET_TABLE_+0x200>
  4047a6:	68 3d 00 00 00       	pushq  $0x3d
  4047ab:	e9 10 fc ff ff       	jmpq   4043c0 <_init+0x20>

00000000004047b0 <__libc_start_main@plt>:
  4047b0:	ff 25 52 ca 20 00    	jmpq   *0x20ca52(%rip)        # 611208 <_GLOBAL_OFFSET_TABLE_+0x208>
  4047b6:	68 3e 00 00 00       	pushq  $0x3e
  4047bb:	e9 00 fc ff ff       	jmpq   4043c0 <_init+0x20>

00000000004047c0 <_ZNSaIcEC1Ev@plt>:
  4047c0:	ff 25 4a ca 20 00    	jmpq   *0x20ca4a(%rip)        # 611210 <_GLOBAL_OFFSET_TABLE_+0x210>
  4047c6:	68 3f 00 00 00       	pushq  $0x3f
  4047cb:	e9 f0 fb ff ff       	jmpq   4043c0 <_init+0x20>

00000000004047d0 <rand@plt>:
  4047d0:	ff 25 42 ca 20 00    	jmpq   *0x20ca42(%rip)        # 611218 <_GLOBAL_OFFSET_TABLE_+0x218>
  4047d6:	68 40 00 00 00       	pushq  $0x40
  4047db:	e9 e0 fb ff ff       	jmpq   4043c0 <_init+0x20>

00000000004047e0 <_ZN5caffe17InnerProductLayerIfE12Backward_cpuERKSt6vectorIPNS_4BlobIfEESaIS5_EERKS2_IbSaIbEES9_@plt>:
  4047e0:	ff 25 3a ca 20 00    	jmpq   *0x20ca3a(%rip)        # 611220 <_GLOBAL_OFFSET_TABLE_+0x220>
  4047e6:	68 41 00 00 00       	pushq  $0x41
  4047eb:	e9 d0 fb ff ff       	jmpq   4043c0 <_init+0x20>

00000000004047f0 <_ZN5caffe4BlobIfEC1Eiiii@plt>:
  4047f0:	ff 25 32 ca 20 00    	jmpq   *0x20ca32(%rip)        # 611228 <_GLOBAL_OFFSET_TABLE_+0x228>
  4047f6:	68 42 00 00 00       	pushq  $0x42
  4047fb:	e9 c0 fb ff ff       	jmpq   4043c0 <_init+0x20>

0000000000404800 <_ZNSt8ios_base4InitC1Ev@plt>:
  404800:	ff 25 2a ca 20 00    	jmpq   *0x20ca2a(%rip)        # 611230 <_GLOBAL_OFFSET_TABLE_+0x230>
  404806:	68 43 00 00 00       	pushq  $0x43
  40480b:	e9 b0 fb ff ff       	jmpq   4043c0 <_init+0x20>

0000000000404810 <_ZN6google10LogMessage6streamEv@plt>:
  404810:	ff 25 22 ca 20 00    	jmpq   *0x20ca22(%rip)        # 611238 <_GLOBAL_OFFSET_TABLE_+0x238>
  404816:	68 44 00 00 00       	pushq  $0x44
  40481b:	e9 a0 fb ff ff       	jmpq   4043c0 <_init+0x20>

0000000000404820 <puts@plt>:
  404820:	ff 25 1a ca 20 00    	jmpq   *0x20ca1a(%rip)        # 611240 <_GLOBAL_OFFSET_TABLE_+0x240>
  404826:	68 45 00 00 00       	pushq  $0x45
  40482b:	e9 90 fb ff ff       	jmpq   4043c0 <_init+0x20>

0000000000404830 <sprintf@plt>:
  404830:	ff 25 12 ca 20 00    	jmpq   *0x20ca12(%rip)        # 611248 <_GLOBAL_OFFSET_TABLE_+0x248>
  404836:	68 46 00 00 00       	pushq  $0x46
  40483b:	e9 80 fb ff ff       	jmpq   4043c0 <_init+0x20>

0000000000404840 <_ZNSolsEm@plt>:
  404840:	ff 25 0a ca 20 00    	jmpq   *0x20ca0a(%rip)        # 611250 <_GLOBAL_OFFSET_TABLE_+0x250>
  404846:	68 47 00 00 00       	pushq  $0x47
  40484b:	e9 70 fb ff ff       	jmpq   4043c0 <_init+0x20>

0000000000404850 <_ZNK5caffe4BlobIfE7ToProtoEPNS_9BlobProtoEb@plt>:
  404850:	ff 25 02 ca 20 00    	jmpq   *0x20ca02(%rip)        # 611258 <_GLOBAL_OFFSET_TABLE_+0x258>
  404856:	68 48 00 00 00       	pushq  $0x48
  40485b:	e9 60 fb ff ff       	jmpq   4043c0 <_init+0x20>

0000000000404860 <putchar@plt>:
  404860:	ff 25 fa c9 20 00    	jmpq   *0x20c9fa(%rip)        # 611260 <_GLOBAL_OFFSET_TABLE_+0x260>
  404866:	68 49 00 00 00       	pushq  $0x49
  40486b:	e9 50 fb ff ff       	jmpq   4043c0 <_init+0x20>

0000000000404870 <_ZN5caffe14LayerParameterC1ERKS0_@plt>:
  404870:	ff 25 f2 c9 20 00    	jmpq   *0x20c9f2(%rip)        # 611268 <_GLOBAL_OFFSET_TABLE_+0x268>
  404876:	68 4a 00 00 00       	pushq  $0x4a
  40487b:	e9 40 fb ff ff       	jmpq   4043c0 <_init+0x20>

0000000000404880 <xopenme_dump_state@plt>:
  404880:	ff 25 ea c9 20 00    	jmpq   *0x20c9ea(%rip)        # 611270 <_GLOBAL_OFFSET_TABLE_+0x270>
  404886:	68 4b 00 00 00       	pushq  $0x4b
  40488b:	e9 30 fb ff ff       	jmpq   4043c0 <_init+0x20>

0000000000404890 <_ZN5caffe13caffe_cpu_dotIfEET_iPKS1_S3_@plt>:
  404890:	ff 25 e2 c9 20 00    	jmpq   *0x20c9e2(%rip)        # 611278 <_GLOBAL_OFFSET_TABLE_+0x278>
  404896:	68 4c 00 00 00       	pushq  $0x4c
  40489b:	e9 20 fb ff ff       	jmpq   4043c0 <_init+0x20>

00000000004048a0 <_ZNSt7__cxx1112basic_stringIcSt11char_traitsIcESaIcEEaSERKS4_@plt>:
  4048a0:	ff 25 da c9 20 00    	jmpq   *0x20c9da(%rip)        # 611280 <_GLOBAL_OFFSET_TABLE_+0x280>
  4048a6:	68 4d 00 00 00       	pushq  $0x4d
  4048ab:	e9 10 fb ff ff       	jmpq   4043c0 <_init+0x20>

00000000004048b0 <_ZN5caffe15FillerParameterC1Ev@plt>:
  4048b0:	ff 25 d2 c9 20 00    	jmpq   *0x20c9d2(%rip)        # 611288 <_GLOBAL_OFFSET_TABLE_+0x288>
  4048b6:	68 4e 00 00 00       	pushq  $0x4e
  4048bb:	e9 00 fb ff ff       	jmpq   4043c0 <_init+0x20>

00000000004048c0 <srand@plt>:
  4048c0:	ff 25 ca c9 20 00    	jmpq   *0x20c9ca(%rip)        # 611290 <_GLOBAL_OFFSET_TABLE_+0x290>
  4048c6:	68 4f 00 00 00       	pushq  $0x4f
  4048cb:	e9 f0 fa ff ff       	jmpq   4043c0 <_init+0x20>

00000000004048d0 <_ZN6google8protobuf8internal20RepeatedPtrFieldBase7ReserveEi@plt>:
  4048d0:	ff 25 c2 c9 20 00    	jmpq   *0x20c9c2(%rip)        # 611298 <_GLOBAL_OFFSET_TABLE_+0x298>
  4048d6:	68 50 00 00 00       	pushq  $0x50
  4048db:	e9 e0 fa ff ff       	jmpq   4043c0 <_init+0x20>

00000000004048e0 <xopenme_finish@plt>:
  4048e0:	ff 25 ba c9 20 00    	jmpq   *0x20c9ba(%rip)        # 6112a0 <_GLOBAL_OFFSET_TABLE_+0x2a0>
  4048e6:	68 51 00 00 00       	pushq  $0x51
  4048eb:	e9 d0 fa ff ff       	jmpq   4043c0 <_init+0x20>

00000000004048f0 <xopenme_dump_memory@plt>:
  4048f0:	ff 25 b2 c9 20 00    	jmpq   *0x20c9b2(%rip)        # 6112a8 <_GLOBAL_OFFSET_TABLE_+0x2a8>
  4048f6:	68 52 00 00 00       	pushq  $0x52
  4048fb:	e9 c0 fa ff ff       	jmpq   4043c0 <_init+0x20>

0000000000404900 <_ZN6google15LogMessageFatalC1EPKci@plt>:
  404900:	ff 25 aa c9 20 00    	jmpq   *0x20c9aa(%rip)        # 6112b0 <_GLOBAL_OFFSET_TABLE_+0x2b0>
  404906:	68 53 00 00 00       	pushq  $0x53
  40490b:	e9 b0 fa ff ff       	jmpq   4043c0 <_init+0x20>

0000000000404910 <_ZN5caffe14LayerParameterD1Ev@plt>:
  404910:	ff 25 a2 c9 20 00    	jmpq   *0x20c9a2(%rip)        # 6112b8 <_GLOBAL_OFFSET_TABLE_+0x2b8>
  404916:	68 54 00 00 00       	pushq  $0x54
  40491b:	e9 a0 fa ff ff       	jmpq   4043c0 <_init+0x20>

0000000000404920 <_ZN6google8protobuf8internal10LogMessagelsEPKc@plt>:
  404920:	ff 25 9a c9 20 00    	jmpq   *0x20c99a(%rip)        # 6112c0 <_GLOBAL_OFFSET_TABLE_+0x2c0>
  404926:	68 55 00 00 00       	pushq  $0x55
  40492b:	e9 90 fa ff ff       	jmpq   4043c0 <_init+0x20>

0000000000404930 <_ZN5caffe4BlobIfE9FromProtoERKNS_9BlobProtoEb@plt>:
  404930:	ff 25 92 c9 20 00    	jmpq   *0x20c992(%rip)        # 6112c8 <_GLOBAL_OFFSET_TABLE_+0x2c8>
  404936:	68 56 00 00 00       	pushq  $0x56
  40493b:	e9 80 fa ff ff       	jmpq   4043c0 <_init+0x20>

0000000000404940 <_ZNSaIcED1Ev@plt>:
  404940:	ff 25 8a c9 20 00    	jmpq   *0x20c98a(%rip)        # 6112d0 <_GLOBAL_OFFSET_TABLE_+0x2d0>
  404946:	68 57 00 00 00       	pushq  $0x57
  40494b:	e9 70 fa ff ff       	jmpq   4043c0 <_init+0x20>

Disassembly of section .plt.got:

0000000000404950 <.plt.got>:
  404950:	ff 25 a2 c6 20 00    	jmpq   *0x20c6a2(%rip)        # 610ff8 <_DYNAMIC+0x220>
  404956:	66 90                	xchg   %ax,%ax

Disassembly of section .text:

0000000000404960 <_start>:
  404960:	31 ed                	xor    %ebp,%ebp
  404962:	49 89 d1             	mov    %rdx,%r9
  404965:	5e                   	pop    %rsi
  404966:	48 89 e2             	mov    %rsp,%rdx
  404969:	48 83 e4 f0          	and    $0xfffffffffffffff0,%rsp
  40496d:	50                   	push   %rax
  40496e:	54                   	push   %rsp
  40496f:	49 c7 c0 b0 b7 40 00 	mov    $0x40b7b0,%r8
  404976:	48 c7 c1 40 b7 40 00 	mov    $0x40b740,%rcx
  40497d:	48 c7 c7 aa 4a 40 00 	mov    $0x404aaa,%rdi
  404984:	e8 27 fe ff ff       	callq  4047b0 <__libc_start_main@plt>
  404989:	f4                   	hlt    
  40498a:	66 0f 1f 44 00 00    	nopw   0x0(%rax,%rax,1)

0000000000404990 <deregister_tm_clones>:
  404990:	b8 ef 12 61 00       	mov    $0x6112ef,%eax
  404995:	55                   	push   %rbp
  404996:	48 2d e8 12 61 00    	sub    $0x6112e8,%rax
  40499c:	48 83 f8 0e          	cmp    $0xe,%rax
  4049a0:	48 89 e5             	mov    %rsp,%rbp
  4049a3:	76 1b                	jbe    4049c0 <deregister_tm_clones+0x30>
  4049a5:	b8 00 00 00 00       	mov    $0x0,%eax
  4049aa:	48 85 c0             	test   %rax,%rax
  4049ad:	74 11                	je     4049c0 <deregister_tm_clones+0x30>
  4049af:	5d                   	pop    %rbp
  4049b0:	bf e8 12 61 00       	mov    $0x6112e8,%edi
  4049b5:	ff e0                	jmpq   *%rax
  4049b7:	66 0f 1f 84 00 00 00 	nopw   0x0(%rax,%rax,1)
  4049be:	00 00 
  4049c0:	5d                   	pop    %rbp
  4049c1:	c3                   	retq   
  4049c2:	0f 1f 40 00          	nopl   0x0(%rax)
  4049c6:	66 2e 0f 1f 84 00 00 	nopw   %cs:0x0(%rax,%rax,1)
  4049cd:	00 00 00 

00000000004049d0 <register_tm_clones>:
  4049d0:	be e8 12 61 00       	mov    $0x6112e8,%esi
  4049d5:	55                   	push   %rbp
  4049d6:	48 81 ee e8 12 61 00 	sub    $0x6112e8,%rsi
  4049dd:	48 c1 fe 03          	sar    $0x3,%rsi
  4049e1:	48 89 e5             	mov    %rsp,%rbp
  4049e4:	48 89 f0             	mov    %rsi,%rax
  4049e7:	48 c1 e8 3f          	shr    $0x3f,%rax
  4049eb:	48 01 c6             	add    %rax,%rsi
  4049ee:	48 d1 fe             	sar    %rsi
  4049f1:	74 15                	je     404a08 <register_tm_clones+0x38>
  4049f3:	b8 00 00 00 00       	mov    $0x0,%eax
  4049f8:	48 85 c0             	test   %rax,%rax
  4049fb:	74 0b                	je     404a08 <register_tm_clones+0x38>
  4049fd:	5d                   	pop    %rbp
  4049fe:	bf e8 12 61 00       	mov    $0x6112e8,%edi
  404a03:	ff e0                	jmpq   *%rax
  404a05:	0f 1f 00             	nopl   (%rax)
  404a08:	5d                   	pop    %rbp
  404a09:	c3                   	retq   
  404a0a:	66 0f 1f 44 00 00    	nopw   0x0(%rax,%rax,1)

0000000000404a10 <__do_global_dtors_aux>:
  404a10:	80 3d a1 c9 20 00 00 	cmpb   $0x0,0x20c9a1(%rip)        # 6113b8 <completed.7583>
  404a17:	75 11                	jne    404a2a <__do_global_dtors_aux+0x1a>
  404a19:	55                   	push   %rbp
  404a1a:	48 89 e5             	mov    %rsp,%rbp
  404a1d:	e8 6e ff ff ff       	callq  404990 <deregister_tm_clones>
  404a22:	5d                   	pop    %rbp
  404a23:	c6 05 8e c9 20 00 01 	movb   $0x1,0x20c98e(%rip)        # 6113b8 <completed.7583>
  404a2a:	f3 c3                	repz retq 
  404a2c:	0f 1f 40 00          	nopl   0x0(%rax)

0000000000404a30 <frame_dummy>:
  404a30:	bf d0 0d 61 00       	mov    $0x610dd0,%edi
  404a35:	48 83 3f 00          	cmpq   $0x0,(%rdi)
  404a39:	75 05                	jne    404a40 <frame_dummy+0x10>
  404a3b:	eb 93                	jmp    4049d0 <register_tm_clones>
  404a3d:	0f 1f 00             	nopl   (%rax)
  404a40:	b8 00 00 00 00       	mov    $0x0,%eax
  404a45:	48 85 c0             	test   %rax,%rax
  404a48:	74 f1                	je     404a3b <frame_dummy+0xb>
  404a4a:	55                   	push   %rbp
  404a4b:	48 89 e5             	mov    %rsp,%rbp
  404a4e:	ff d0                	callq  *%rax
  404a50:	5d                   	pop    %rbp
  404a51:	e9 7a ff ff ff       	jmpq   4049d0 <register_tm_clones>

0000000000404a56 <_ZN2CK16store_setup_timeEf>:
  404a56:	55                   	push   %rbp
  404a57:	48 89 e5             	mov    %rsp,%rbp
  404a5a:	48 83 ec 10          	sub    $0x10,%rsp
  404a5e:	f3 0f 11 45 fc       	movss  %xmm0,-0x4(%rbp)
  404a63:	8b 45 fc             	mov    -0x4(%rbp),%eax
  404a66:	89 45 f8             	mov    %eax,-0x8(%rbp)
  404a69:	f3 0f 10 45 f8       	movss  -0x8(%rbp),%xmm0
  404a6e:	be 60 ba 40 00       	mov    $0x40ba60,%esi
  404a73:	bf 0a 00 00 00       	mov    $0xa,%edi
  404a78:	e8 9d 0b 00 00       	callq  40561a <_ZN2CK13store_value_fEiPKcf>
  404a7d:	90                   	nop
  404a7e:	c9                   	leaveq 
  404a7f:	c3                   	retq   

0000000000404a80 <_ZN2CK15store_test_timeEf>:
  404a80:	55                   	push   %rbp
  404a81:	48 89 e5             	mov    %rsp,%rbp
  404a84:	48 83 ec 10          	sub    $0x10,%rsp
  404a88:	f3 0f 11 45 fc       	movss  %xmm0,-0x4(%rbp)
  404a8d:	8b 45 fc             	mov    -0x4(%rbp),%eax
  404a90:	89 45 f8             	mov    %eax,-0x8(%rbp)
  404a93:	f3 0f 10 45 f8       	movss  -0x8(%rbp),%xmm0
  404a98:	be 6b ba 40 00       	mov    $0x40ba6b,%esi
  404a9d:	bf 0b 00 00 00       	mov    $0xb,%edi
  404aa2:	e8 73 0b 00 00       	callq  40561a <_ZN2CK13store_value_fEiPKcf>
  404aa7:	90                   	nop
  404aa8:	c9                   	leaveq 
  404aa9:	c3                   	retq   

0000000000404aaa <main>:
  404aaa:	55                   	push   %rbp
  404aab:	48 89 e5             	mov    %rsp,%rbp
  404aae:	bf 00 00 00 00       	mov    $0x0,%edi
  404ab3:	e8 27 03 00 00       	callq  404ddf <_ZN5caffe5Caffe8set_modeENS0_4BrewE>
  404ab8:	e8 54 0e 00 00       	callq  405911 <_ZN2CK5Caffe7test_fcEv>
  404abd:	b8 00 00 00 00       	mov    $0x0,%eax
  404ac2:	5d                   	pop    %rbp
  404ac3:	c3                   	retq   

0000000000404ac4 <_Z41__static_initialization_and_destruction_0ii>:
  404ac4:	55                   	push   %rbp
  404ac5:	48 89 e5             	mov    %rsp,%rbp
  404ac8:	48 83 ec 10          	sub    $0x10,%rsp
  404acc:	89 7d fc             	mov    %edi,-0x4(%rbp)
  404acf:	89 75 f8             	mov    %esi,-0x8(%rbp)
  404ad2:	83 7d fc 01          	cmpl   $0x1,-0x4(%rbp)
  404ad6:	75 27                	jne    404aff <_Z41__static_initialization_and_destruction_0ii+0x3b>
  404ad8:	81 7d f8 ff ff 00 00 	cmpl   $0xffff,-0x8(%rbp)
  404adf:	75 1e                	jne    404aff <_Z41__static_initialization_and_destruction_0ii+0x3b>
  404ae1:	bf b9 13 61 00       	mov    $0x6113b9,%edi
  404ae6:	e8 15 fd ff ff       	callq  404800 <_ZNSt8ios_base4InitC1Ev@plt>
  404aeb:	ba e0 12 61 00       	mov    $0x6112e0,%edx
  404af0:	be b9 13 61 00       	mov    $0x6113b9,%esi
  404af5:	bf 80 46 40 00       	mov    $0x404680,%edi
  404afa:	e8 61 fc ff ff       	callq  404760 <__cxa_atexit@plt>
  404aff:	90                   	nop
  404b00:	c9                   	leaveq 
  404b01:	c3                   	retq   

0000000000404b02 <_GLOBAL__sub_I__ZN2CK16store_setup_timeEf>:
  404b02:	55                   	push   %rbp
  404b03:	48 89 e5             	mov    %rsp,%rbp
  404b06:	be ff ff 00 00       	mov    $0xffff,%esi
  404b0b:	bf 01 00 00 00       	mov    $0x1,%edi
  404b10:	e8 af ff ff ff       	callq  404ac4 <_Z41__static_initialization_and_destruction_0ii>
  404b15:	5d                   	pop    %rbp
  404b16:	c3                   	retq   

0000000000404b17 <_ZnwmPv>:
  404b17:	55                   	push   %rbp
  404b18:	48 89 e5             	mov    %rsp,%rbp
  404b1b:	48 89 7d f8          	mov    %rdi,-0x8(%rbp)
  404b1f:	48 89 75 f0          	mov    %rsi,-0x10(%rbp)
  404b23:	48 8b 45 f0          	mov    -0x10(%rbp),%rax
  404b27:	5d                   	pop    %rbp
  404b28:	c3                   	retq   

0000000000404b29 <_ZdlPvS_>:
  404b29:	55                   	push   %rbp
  404b2a:	48 89 e5             	mov    %rsp,%rbp
  404b2d:	48 89 7d f8          	mov    %rdi,-0x8(%rbp)
  404b31:	48 89 75 f0          	mov    %rsi,-0x10(%rbp)
  404b35:	90                   	nop
  404b36:	5d                   	pop    %rbp
  404b37:	c3                   	retq   

0000000000404b38 <_ZNSt8iteratorISt26random_access_iterator_tagblPbRbEC1Ev>:
  404b38:	55                   	push   %rbp
  404b39:	48 89 e5             	mov    %rsp,%rbp
  404b3c:	48 89 7d f8          	mov    %rdi,-0x8(%rbp)
  404b40:	90                   	nop
  404b41:	5d                   	pop    %rbp
  404b42:	c3                   	retq   
  404b43:	90                   	nop

0000000000404b44 <_ZNSt18_Bit_iterator_baseC1EPmj>:
  404b44:	55                   	push   %rbp
  404b45:	48 89 e5             	mov    %rsp,%rbp
  404b48:	48 83 ec 20          	sub    $0x20,%rsp
  404b4c:	48 89 7d f8          	mov    %rdi,-0x8(%rbp)
  404b50:	48 89 75 f0          	mov    %rsi,-0x10(%rbp)
  404b54:	89 55 ec             	mov    %edx,-0x14(%rbp)
  404b57:	48 8b 45 f8          	mov    -0x8(%rbp),%rax
  404b5b:	48 89 c7             	mov    %rax,%rdi
  404b5e:	e8 d5 ff ff ff       	callq  404b38 <_ZNSt8iteratorISt26random_access_iterator_tagblPbRbEC1Ev>
  404b63:	48 8b 45 f8          	mov    -0x8(%rbp),%rax
  404b67:	48 8b 55 f0          	mov    -0x10(%rbp),%rdx
  404b6b:	48 89 10             	mov    %rdx,(%rax)
  404b6e:	48 8b 45 f8          	mov    -0x8(%rbp),%rax
  404b72:	8b 55 ec             	mov    -0x14(%rbp),%edx
  404b75:	89 50 08             	mov    %edx,0x8(%rax)
  404b78:	90                   	nop
  404b79:	c9                   	leaveq 
  404b7a:	c3                   	retq   
  404b7b:	90                   	nop

0000000000404b7c <_ZNSt13_Bit_iteratorC1Ev>:
  404b7c:	55                   	push   %rbp
  404b7d:	48 89 e5             	mov    %rsp,%rbp
  404b80:	48 83 ec 10          	sub    $0x10,%rsp
  404b84:	48 89 7d f8          	mov    %rdi,-0x8(%rbp)
  404b88:	48 8b 45 f8          	mov    -0x8(%rbp),%rax
  404b8c:	ba 00 00 00 00       	mov    $0x0,%edx
  404b91:	be 00 00 00 00       	mov    $0x0,%esi
  404b96:	48 89 c7             	mov    %rax,%rdi
  404b99:	e8 a6 ff ff ff       	callq  404b44 <_ZNSt18_Bit_iterator_baseC1EPmj>
  404b9e:	90                   	nop
  404b9f:	c9                   	leaveq 
  404ba0:	c3                   	retq   

0000000000404ba1 <_ZN5boost6detail23atomic_exchange_and_addEPii>:
  404ba1:	55                   	push   %rbp
  404ba2:	48 89 e5             	mov    %rsp,%rbp
  404ba5:	48 89 7d e8          	mov    %rdi,-0x18(%rbp)
  404ba9:	89 75 e4             	mov    %esi,-0x1c(%rbp)
  404bac:	48 8b 55 e8          	mov    -0x18(%rbp),%rdx
  404bb0:	48 8b 4d e8          	mov    -0x18(%rbp),%rcx
  404bb4:	8b 45 e4             	mov    -0x1c(%rbp),%eax
  404bb7:	f0 0f c1 02          	lock xadd %eax,(%rdx)
  404bbb:	89 45 fc             	mov    %eax,-0x4(%rbp)
  404bbe:	8b 45 fc             	mov    -0x4(%rbp),%eax
  404bc1:	5d                   	pop    %rbp
  404bc2:	c3                   	retq   
  404bc3:	90                   	nop

0000000000404bc4 <_ZN5boost6detail15sp_counted_baseC1Ev>:
  404bc4:	55                   	push   %rbp
  404bc5:	48 89 e5             	mov    %rsp,%rbp
  404bc8:	48 89 7d f8          	mov    %rdi,-0x8(%rbp)
  404bcc:	ba 38 c4 40 00       	mov    $0x40c438,%edx
  404bd1:	48 8b 45 f8          	mov    -0x8(%rbp),%rax
  404bd5:	48 89 10             	mov    %rdx,(%rax)
  404bd8:	48 8b 45 f8          	mov    -0x8(%rbp),%rax
  404bdc:	c7 40 08 01 00 00 00 	movl   $0x1,0x8(%rax)
  404be3:	48 8b 45 f8          	mov    -0x8(%rbp),%rax
  404be7:	c7 40 0c 01 00 00 00 	movl   $0x1,0xc(%rax)
  404bee:	90                   	nop
  404bef:	5d                   	pop    %rbp
  404bf0:	c3                   	retq   
  404bf1:	90                   	nop

0000000000404bf2 <_ZN5boost6detail15sp_counted_baseD1Ev>:
  404bf2:	55                   	push   %rbp
  404bf3:	48 89 e5             	mov    %rsp,%rbp
  404bf6:	48 89 7d f8          	mov    %rdi,-0x8(%rbp)
  404bfa:	ba 38 c4 40 00       	mov    $0x40c438,%edx
  404bff:	48 8b 45 f8          	mov    -0x8(%rbp),%rax
  404c03:	48 89 10             	mov    %rdx,(%rax)
  404c06:	90                   	nop
  404c07:	5d                   	pop    %rbp
  404c08:	c3                   	retq   
  404c09:	90                   	nop

0000000000404c0a <_ZN5boost6detail15sp_counted_baseD0Ev>:
  404c0a:	55                   	push   %rbp
  404c0b:	48 89 e5             	mov    %rsp,%rbp
  404c0e:	48 83 ec 10          	sub    $0x10,%rsp
  404c12:	48 89 7d f8          	mov    %rdi,-0x8(%rbp)
  404c16:	48 8b 45 f8          	mov    -0x8(%rbp),%rax
  404c1a:	48 89 c7             	mov    %rax,%rdi
  404c1d:	e8 d0 ff ff ff       	callq  404bf2 <_ZN5boost6detail15sp_counted_baseD1Ev>
  404c22:	48 8b 45 f8          	mov    -0x8(%rbp),%rax
  404c26:	48 89 c7             	mov    %rax,%rdi
  404c29:	e8 b2 f9 ff ff       	callq  4045e0 <_ZdlPv@plt>
  404c2e:	c9                   	leaveq 
  404c2f:	c3                   	retq   

0000000000404c30 <_ZN5boost6detail15sp_counted_base7destroyEv>:
  404c30:	55                   	push   %rbp
  404c31:	48 89 e5             	mov    %rsp,%rbp
  404c34:	48 83 ec 10          	sub    $0x10,%rsp
  404c38:	48 89 7d f8          	mov    %rdi,-0x8(%rbp)
  404c3c:	48 83 7d f8 00       	cmpq   $0x0,-0x8(%rbp)
  404c41:	74 17                	je     404c5a <_ZN5boost6detail15sp_counted_base7destroyEv+0x2a>
  404c43:	48 8b 45 f8          	mov    -0x8(%rbp),%rax
  404c47:	48 8b 00             	mov    (%rax),%rax
  404c4a:	48 83 c0 08          	add    $0x8,%rax
  404c4e:	48 8b 00             	mov    (%rax),%rax
  404c51:	48 8b 55 f8          	mov    -0x8(%rbp),%rdx
  404c55:	48 89 d7             	mov    %rdx,%rdi
  404c58:	ff d0                	callq  *%rax
  404c5a:	90                   	nop
  404c5b:	c9                   	leaveq 
  404c5c:	c3                   	retq   
  404c5d:	90                   	nop

0000000000404c5e <_ZN5boost6detail15sp_counted_base7releaseEv>:
  404c5e:	55                   	push   %rbp
  404c5f:	48 89 e5             	mov    %rsp,%rbp
  404c62:	48 83 ec 10          	sub    $0x10,%rsp
  404c66:	48 89 7d f8          	mov    %rdi,-0x8(%rbp)
  404c6a:	48 8b 45 f8          	mov    -0x8(%rbp),%rax
  404c6e:	48 83 c0 08          	add    $0x8,%rax
  404c72:	be ff ff ff ff       	mov    $0xffffffff,%esi
  404c77:	48 89 c7             	mov    %rax,%rdi
  404c7a:	e8 22 ff ff ff       	callq  404ba1 <_ZN5boost6detail23atomic_exchange_and_addEPii>
  404c7f:	83 f8 01             	cmp    $0x1,%eax
  404c82:	0f 94 c0             	sete   %al
  404c85:	84 c0                	test   %al,%al
  404c87:	74 23                	je     404cac <_ZN5boost6detail15sp_counted_base7releaseEv+0x4e>
  404c89:	48 8b 45 f8          	mov    -0x8(%rbp),%rax
  404c8d:	48 8b 00             	mov    (%rax),%rax
  404c90:	48 83 c0 10          	add    $0x10,%rax
  404c94:	48 8b 00             	mov    (%rax),%rax
  404c97:	48 8b 55 f8          	mov    -0x8(%rbp),%rdx
  404c9b:	48 89 d7             	mov    %rdx,%rdi
  404c9e:	ff d0                	callq  *%rax
  404ca0:	48 8b 45 f8          	mov    -0x8(%rbp),%rax
  404ca4:	48 89 c7             	mov    %rax,%rdi
  404ca7:	e8 04 00 00 00       	callq  404cb0 <_ZN5boost6detail15sp_counted_base12weak_releaseEv>
  404cac:	90                   	nop
  404cad:	c9                   	leaveq 
  404cae:	c3                   	retq   
  404caf:	90                   	nop

0000000000404cb0 <_ZN5boost6detail15sp_counted_base12weak_releaseEv>:
  404cb0:	55                   	push   %rbp
  404cb1:	48 89 e5             	mov    %rsp,%rbp
  404cb4:	48 83 ec 10          	sub    $0x10,%rsp
  404cb8:	48 89 7d f8          	mov    %rdi,-0x8(%rbp)
  404cbc:	48 8b 45 f8          	mov    -0x8(%rbp),%rax
  404cc0:	48 83 c0 0c          	add    $0xc,%rax
  404cc4:	be ff ff ff ff       	mov    $0xffffffff,%esi
  404cc9:	48 89 c7             	mov    %rax,%rdi
  404ccc:	e8 d0 fe ff ff       	callq  404ba1 <_ZN5boost6detail23atomic_exchange_and_addEPii>
  404cd1:	83 f8 01             	cmp    $0x1,%eax
  404cd4:	0f 94 c0             	sete   %al
  404cd7:	84 c0                	test   %al,%al
  404cd9:	74 17                	je     404cf2 <_ZN5boost6detail15sp_counted_base12weak_releaseEv+0x42>
  404cdb:	48 8b 45 f8          	mov    -0x8(%rbp),%rax
  404cdf:	48 8b 00             	mov    (%rax),%rax
  404ce2:	48 83 c0 18          	add    $0x18,%rax
  404ce6:	48 8b 00             	mov    (%rax),%rax
  404ce9:	48 8b 55 f8          	mov    -0x8(%rbp),%rdx
  404ced:	48 89 d7             	mov    %rdx,%rdi
  404cf0:	ff d0                	callq  *%rax
  404cf2:	90                   	nop
  404cf3:	c9                   	leaveq 
  404cf4:	c3                   	retq   
  404cf5:	90                   	nop

0000000000404cf6 <_ZN5boost6detail12shared_countC1Ev>:
  404cf6:	55                   	push   %rbp
  404cf7:	48 89 e5             	mov    %rsp,%rbp
  404cfa:	48 89 7d f8          	mov    %rdi,-0x8(%rbp)
  404cfe:	48 8b 45 f8          	mov    -0x8(%rbp),%rax
  404d02:	48 c7 00 00 00 00 00 	movq   $0x0,(%rax)
  404d09:	90                   	nop
  404d0a:	5d                   	pop    %rbp
  404d0b:	c3                   	retq   

0000000000404d0c <_ZN5boost6detail12shared_countD1Ev>:
  404d0c:	55                   	push   %rbp
  404d0d:	48 89 e5             	mov    %rsp,%rbp
  404d10:	48 83 ec 10          	sub    $0x10,%rsp
  404d14:	48 89 7d f8          	mov    %rdi,-0x8(%rbp)
  404d18:	48 8b 45 f8          	mov    -0x8(%rbp),%rax
  404d1c:	48 8b 00             	mov    (%rax),%rax
  404d1f:	48 85 c0             	test   %rax,%rax
  404d22:	74 0f                	je     404d33 <_ZN5boost6detail12shared_countD1Ev+0x27>
  404d24:	48 8b 45 f8          	mov    -0x8(%rbp),%rax
  404d28:	48 8b 00             	mov    (%rax),%rax
  404d2b:	48 89 c7             	mov    %rax,%rdi
  404d2e:	e8 2b ff ff ff       	callq  404c5e <_ZN5boost6detail15sp_counted_base7releaseEv>
  404d33:	90                   	nop
  404d34:	c9                   	leaveq 
  404d35:	c3                   	retq   

0000000000404d36 <_ZN5boost6detail12shared_count4swapERS1_>:
  404d36:	55                   	push   %rbp
  404d37:	48 89 e5             	mov    %rsp,%rbp
  404d3a:	48 89 7d e8          	mov    %rdi,-0x18(%rbp)
  404d3e:	48 89 75 e0          	mov    %rsi,-0x20(%rbp)
  404d42:	48 8b 45 e0          	mov    -0x20(%rbp),%rax
  404d46:	48 8b 00             	mov    (%rax),%rax
  404d49:	48 89 45 f8          	mov    %rax,-0x8(%rbp)
  404d4d:	48 8b 45 e8          	mov    -0x18(%rbp),%rax
  404d51:	48 8b 10             	mov    (%rax),%rdx
  404d54:	48 8b 45 e0          	mov    -0x20(%rbp),%rax
  404d58:	48 89 10             	mov    %rdx,(%rax)
  404d5b:	48 8b 45 e8          	mov    -0x18(%rbp),%rax
  404d5f:	48 8b 55 f8          	mov    -0x8(%rbp),%rdx
  404d63:	48 89 10             	mov    %rdx,(%rax)
  404d66:	90                   	nop
  404d67:	5d                   	pop    %rbp
  404d68:	c3                   	retq   

0000000000404d69 <_ZN5boost6detail26sp_enable_shared_from_thisEz>:
  404d69:	55                   	push   %rbp
  404d6a:	48 89 e5             	mov    %rsp,%rbp
  404d6d:	90                   	nop
  404d6e:	5d                   	pop    %rbp
  404d6f:	c3                   	retq   

0000000000404d70 <_ZN6google13CheckOpStringC1EPNSt7__cxx1112basic_stringIcSt11char_traitsIcESaIcEEE>:
  404d70:	55                   	push   %rbp
  404d71:	48 89 e5             	mov    %rsp,%rbp
  404d74:	48 89 7d f8          	mov    %rdi,-0x8(%rbp)
  404d78:	48 89 75 f0          	mov    %rsi,-0x10(%rbp)
  404d7c:	48 8b 45 f8          	mov    -0x8(%rbp),%rax
  404d80:	48 8b 55 f0          	mov    -0x10(%rbp),%rdx
  404d84:	48 89 10             	mov    %rdx,(%rax)
  404d87:	90                   	nop
  404d88:	5d                   	pop    %rbp
  404d89:	c3                   	retq   

0000000000404d8a <_ZN6google21GetReferenceableValueEi>:
  404d8a:	55                   	push   %rbp
  404d8b:	48 89 e5             	mov    %rsp,%rbp
  404d8e:	89 7d fc             	mov    %edi,-0x4(%rbp)
  404d91:	8b 45 fc             	mov    -0x4(%rbp),%eax
  404d94:	5d                   	pop    %rbp
  404d95:	c3                   	retq   

0000000000404d96 <_ZN6google21GetReferenceableValueEm>:
  404d96:	55                   	push   %rbp
  404d97:	48 89 e5             	mov    %rsp,%rbp
  404d9a:	48 89 7d f8          	mov    %rdi,-0x8(%rbp)
  404d9e:	48 8b 45 f8          	mov    -0x8(%rbp),%rax
  404da2:	5d                   	pop    %rbp
  404da3:	c3                   	retq   

0000000000404da4 <_ZN6google4base21CheckOpMessageBuilder7ForVar1Ev>:
  404da4:	55                   	push   %rbp
  404da5:	48 89 e5             	mov    %rsp,%rbp
  404da8:	48 89 7d f8          	mov    %rdi,-0x8(%rbp)
  404dac:	48 8b 45 f8          	mov    -0x8(%rbp),%rax
  404db0:	48 8b 00             	mov    (%rax),%rax
  404db3:	5d                   	pop    %rbp
  404db4:	c3                   	retq   
  404db5:	90                   	nop

0000000000404db6 <_ZN6google17LogMessageVoidifyC1Ev>:
  404db6:	55                   	push   %rbp
  404db7:	48 89 e5             	mov    %rsp,%rbp
  404dba:	48 89 7d f8          	mov    %rdi,-0x8(%rbp)
  404dbe:	90                   	nop
  404dbf:	5d                   	pop    %rbp
  404dc0:	c3                   	retq   
  404dc1:	90                   	nop

0000000000404dc2 <_ZN6google17LogMessageVoidifyanERSo>:
  404dc2:	55                   	push   %rbp
  404dc3:	48 89 e5             	mov    %rsp,%rbp
  404dc6:	48 89 7d f8          	mov    %rdi,-0x8(%rbp)
  404dca:	48 89 75 f0          	mov    %rsi,-0x10(%rbp)
  404dce:	90                   	nop
  404dcf:	5d                   	pop    %rbp
  404dd0:	c3                   	retq   

0000000000404dd1 <_ZN5caffe5Caffe4modeEv>:
  404dd1:	55                   	push   %rbp
  404dd2:	48 89 e5             	mov    %rsp,%rbp
  404dd5:	e8 66 f9 ff ff       	callq  404740 <_ZN5caffe5Caffe3GetEv@plt>
  404dda:	8b 40 10             	mov    0x10(%rax),%eax
  404ddd:	5d                   	pop    %rbp
  404dde:	c3                   	retq   

0000000000404ddf <_ZN5caffe5Caffe8set_modeENS0_4BrewE>:
  404ddf:	55                   	push   %rbp
  404de0:	48 89 e5             	mov    %rsp,%rbp
  404de3:	48 83 ec 10          	sub    $0x10,%rsp
  404de7:	89 7d fc             	mov    %edi,-0x4(%rbp)
  404dea:	e8 51 f9 ff ff       	callq  404740 <_ZN5caffe5Caffe3GetEv@plt>
  404def:	48 89 c2             	mov    %rax,%rdx
  404df2:	8b 45 fc             	mov    -0x4(%rbp),%eax
  404df5:	89 42 10             	mov    %eax,0x10(%rdx)
  404df8:	90                   	nop
  404df9:	c9                   	leaveq 
  404dfa:	c3                   	retq   
  404dfb:	90                   	nop

0000000000404dfc <_ZN6google8protobuf8internal14ArenaStringPtr10SetNoArenaEPKNSt7__cxx1112basic_stringIcSt11char_traitsIcESaIcEEERS9_>:
  404dfc:	55                   	push   %rbp
  404dfd:	48 89 e5             	mov    %rsp,%rbp
  404e00:	48 83 ec 20          	sub    $0x20,%rsp
  404e04:	48 89 7d f8          	mov    %rdi,-0x8(%rbp)
  404e08:	48 89 75 f0          	mov    %rsi,-0x10(%rbp)
  404e0c:	48 89 55 e8          	mov    %rdx,-0x18(%rbp)
  404e10:	48 8b 45 f8          	mov    -0x8(%rbp),%rax
  404e14:	48 8b 00             	mov    (%rax),%rax
  404e17:	48 3b 45 f0          	cmp    -0x10(%rbp),%rax
  404e1b:	75 15                	jne    404e32 <_ZN6google8protobuf8internal14ArenaStringPtr10SetNoArenaEPKNSt7__cxx1112basic_stringIcSt11char_traitsIcESaIcEEERS9_+0x36>
  404e1d:	48 8b 55 e8          	mov    -0x18(%rbp),%rdx
  404e21:	48 8b 45 f8          	mov    -0x8(%rbp),%rax
  404e25:	48 89 d6             	mov    %rdx,%rsi
  404e28:	48 89 c7             	mov    %rax,%rdi
  404e2b:	e8 1c 00 00 00       	callq  404e4c <_ZN6google8protobuf8internal14ArenaStringPtr21CreateInstanceNoArenaEPKNSt7__cxx1112basic_stringIcSt11char_traitsIcESaIcEEE>
  404e30:	eb 16                	jmp    404e48 <_ZN6google8protobuf8internal14ArenaStringPtr10SetNoArenaEPKNSt7__cxx1112basic_stringIcSt11char_traitsIcESaIcEEERS9_+0x4c>
  404e32:	48 8b 45 f8          	mov    -0x8(%rbp),%rax
  404e36:	48 8b 00             	mov    (%rax),%rax
  404e39:	48 8b 55 e8          	mov    -0x18(%rbp),%rdx
  404e3d:	48 89 d6             	mov    %rdx,%rsi
  404e40:	48 89 c7             	mov    %rax,%rdi
  404e43:	e8 58 fa ff ff       	callq  4048a0 <_ZNSt7__cxx1112basic_stringIcSt11char_traitsIcESaIcEEaSERKS4_@plt>
  404e48:	90                   	nop
  404e49:	c9                   	leaveq 
  404e4a:	c3                   	retq   
  404e4b:	90                   	nop

0000000000404e4c <_ZN6google8protobuf8internal14ArenaStringPtr21CreateInstanceNoArenaEPKNSt7__cxx1112basic_stringIcSt11char_traitsIcESaIcEEE>:
  404e4c:	55                   	push   %rbp
  404e4d:	48 89 e5             	mov    %rsp,%rbp
  404e50:	41 54                	push   %r12
  404e52:	53                   	push   %rbx
  404e53:	48 83 ec 10          	sub    $0x10,%rsp
  404e57:	48 89 7d e8          	mov    %rdi,-0x18(%rbp)
  404e5b:	48 89 75 e0          	mov    %rsi,-0x20(%rbp)
  404e5f:	48 83 7d e0 00       	cmpq   $0x0,-0x20(%rbp)
  404e64:	74 25                	je     404e8b <_ZN6google8protobuf8internal14ArenaStringPtr21CreateInstanceNoArenaEPKNSt7__cxx1112basic_stringIcSt11char_traitsIcESaIcEEE+0x3f>
  404e66:	bf 20 00 00 00       	mov    $0x20,%edi
  404e6b:	e8 10 f6 ff ff       	callq  404480 <_Znwm@plt>
  404e70:	48 89 c3             	mov    %rax,%rbx
  404e73:	48 8b 45 e0          	mov    -0x20(%rbp),%rax
  404e77:	48 89 c6             	mov    %rax,%rsi
  404e7a:	48 89 df             	mov    %rbx,%rdi
  404e7d:	e8 de f5 ff ff       	callq  404460 <_ZNSt7__cxx1112basic_stringIcSt11char_traitsIcESaIcEEC1ERKS4_@plt>
  404e82:	48 8b 45 e8          	mov    -0x18(%rbp),%rax
  404e86:	48 89 18             	mov    %rbx,(%rax)
  404e89:	eb 34                	jmp    404ebf <_ZN6google8protobuf8internal14ArenaStringPtr21CreateInstanceNoArenaEPKNSt7__cxx1112basic_stringIcSt11char_traitsIcESaIcEEE+0x73>
  404e8b:	bf 20 00 00 00       	mov    $0x20,%edi
  404e90:	e8 eb f5 ff ff       	callq  404480 <_Znwm@plt>
  404e95:	48 89 c3             	mov    %rax,%rbx
  404e98:	48 89 df             	mov    %rbx,%rdi
  404e9b:	e8 c0 f6 ff ff       	callq  404560 <_ZNSt7__cxx1112basic_stringIcSt11char_traitsIcESaIcEEC1Ev@plt>
  404ea0:	48 8b 45 e8          	mov    -0x18(%rbp),%rax
  404ea4:	48 89 18             	mov    %rbx,(%rax)
  404ea7:	eb 16                	jmp    404ebf <_ZN6google8protobuf8internal14ArenaStringPtr21CreateInstanceNoArenaEPKNSt7__cxx1112basic_stringIcSt11char_traitsIcESaIcEEE+0x73>
  404ea9:	49 89 c4             	mov    %rax,%r12
  404eac:	48 89 df             	mov    %rbx,%rdi
  404eaf:	e8 2c f7 ff ff       	callq  4045e0 <_ZdlPv@plt>
  404eb4:	4c 89 e0             	mov    %r12,%rax
  404eb7:	48 89 c7             	mov    %rax,%rdi
  404eba:	e8 b1 f7 ff ff       	callq  404670 <_Unwind_Resume@plt>
  404ebf:	48 83 c4 10          	add    $0x10,%rsp
  404ec3:	5b                   	pop    %rbx
  404ec4:	41 5c                	pop    %r12
  404ec6:	5d                   	pop    %rbp
  404ec7:	c3                   	retq   

0000000000404ec8 <_ZNK6google8protobuf8internal20RepeatedPtrFieldBase4sizeEv>:
  404ec8:	55                   	push   %rbp
  404ec9:	48 89 e5             	mov    %rsp,%rbp
  404ecc:	48 89 7d f8          	mov    %rdi,-0x8(%rbp)
  404ed0:	48 8b 45 f8          	mov    -0x8(%rbp),%rax
  404ed4:	8b 40 08             	mov    0x8(%rax),%eax
  404ed7:	5d                   	pop    %rbp
  404ed8:	c3                   	retq   
  404ed9:	90                   	nop

0000000000404eda <_ZN5caffe15FillerParameter12set_has_typeEv>:
  404eda:	55                   	push   %rbp
  404edb:	48 89 e5             	mov    %rsp,%rbp
  404ede:	48 89 7d e8          	mov    %rdi,-0x18(%rbp)
  404ee2:	48 8b 45 e8          	mov    -0x18(%rbp),%rax
  404ee6:	48 83 c0 10          	add    $0x10,%rax
  404eea:	48 89 45 f8          	mov    %rax,-0x8(%rbp)
  404eee:	c7 45 f4 00 00 00 00 	movl   $0x0,-0xc(%rbp)
  404ef5:	8b 45 f4             	mov    -0xc(%rbp),%eax
  404ef8:	48 98                	cltq   
  404efa:	48 8d 14 85 00 00 00 	lea    0x0(,%rax,4),%rdx
  404f01:	00 
  404f02:	48 8b 45 f8          	mov    -0x8(%rbp),%rax
  404f06:	48 01 d0             	add    %rdx,%rax
  404f09:	8b 10                	mov    (%rax),%edx
  404f0b:	83 ca 01             	or     $0x1,%edx
  404f0e:	89 10                	mov    %edx,(%rax)
  404f10:	90                   	nop
  404f11:	5d                   	pop    %rbp
  404f12:	c3                   	retq   
  404f13:	90                   	nop

0000000000404f14 <_ZN5caffe15FillerParameter8set_typeEPKc>:
  404f14:	55                   	push   %rbp
  404f15:	48 89 e5             	mov    %rsp,%rbp
  404f18:	53                   	push   %rbx
  404f19:	48 83 ec 58          	sub    $0x58,%rsp
  404f1d:	48 89 7d a8          	mov    %rdi,-0x58(%rbp)
  404f21:	48 89 75 a0          	mov    %rsi,-0x60(%rbp)
  404f25:	64 48 8b 04 25 28 00 	mov    %fs:0x28,%rax
  404f2c:	00 00 
  404f2e:	48 89 45 e8          	mov    %rax,-0x18(%rbp)
  404f32:	31 c0                	xor    %eax,%eax
  404f34:	48 8b 45 a8          	mov    -0x58(%rbp),%rax
  404f38:	48 89 c7             	mov    %rax,%rdi
  404f3b:	e8 9a ff ff ff       	callq  404eda <_ZN5caffe15FillerParameter12set_has_typeEv>
  404f40:	48 8d 45 bf          	lea    -0x41(%rbp),%rax
  404f44:	48 89 c7             	mov    %rax,%rdi
  404f47:	e8 74 f8 ff ff       	callq  4047c0 <_ZNSaIcEC1Ev@plt>
  404f4c:	48 8d 55 bf          	lea    -0x41(%rbp),%rdx
  404f50:	48 8b 4d a0          	mov    -0x60(%rbp),%rcx
  404f54:	48 8d 45 c0          	lea    -0x40(%rbp),%rax
  404f58:	48 89 ce             	mov    %rcx,%rsi
  404f5b:	48 89 c7             	mov    %rax,%rdi
  404f5e:	e8 cd f7 ff ff       	callq  404730 <_ZNSt7__cxx1112basic_stringIcSt11char_traitsIcESaIcEEC1EPKcRKS3_@plt>
  404f63:	48 8b 05 2e c4 20 00 	mov    0x20c42e(%rip),%rax        # 611398 <_ZN5caffe15FillerParameter14_default_type_B5cxx11E>
  404f6a:	48 8b 55 a8          	mov    -0x58(%rbp),%rdx
  404f6e:	48 8d 4a 18          	lea    0x18(%rdx),%rcx
  404f72:	48 8d 55 c0          	lea    -0x40(%rbp),%rdx
  404f76:	48 89 c6             	mov    %rax,%rsi
  404f79:	48 89 cf             	mov    %rcx,%rdi
  404f7c:	e8 7b fe ff ff       	callq  404dfc <_ZN6google8protobuf8internal14ArenaStringPtr10SetNoArenaEPKNSt7__cxx1112basic_stringIcSt11char_traitsIcESaIcEEERS9_>
  404f81:	48 8d 45 c0          	lea    -0x40(%rbp),%rax
  404f85:	48 89 c7             	mov    %rax,%rdi
  404f88:	e8 43 f7 ff ff       	callq  4046d0 <_ZNSt7__cxx1112basic_stringIcSt11char_traitsIcESaIcEED1Ev@plt>
  404f8d:	48 8d 45 bf          	lea    -0x41(%rbp),%rax
  404f91:	48 89 c7             	mov    %rax,%rdi
  404f94:	e8 a7 f9 ff ff       	callq  404940 <_ZNSaIcED1Ev@plt>
  404f99:	90                   	nop
  404f9a:	48 8b 45 e8          	mov    -0x18(%rbp),%rax
  404f9e:	64 48 33 04 25 28 00 	xor    %fs:0x28,%rax
  404fa5:	00 00 
  404fa7:	74 32                	je     404fdb <_ZN5caffe15FillerParameter8set_typeEPKc+0xc7>
  404fa9:	eb 2b                	jmp    404fd6 <_ZN5caffe15FillerParameter8set_typeEPKc+0xc2>
  404fab:	48 89 c3             	mov    %rax,%rbx
  404fae:	48 8d 45 c0          	lea    -0x40(%rbp),%rax
  404fb2:	48 89 c7             	mov    %rax,%rdi
  404fb5:	e8 16 f7 ff ff       	callq  4046d0 <_ZNSt7__cxx1112basic_stringIcSt11char_traitsIcESaIcEED1Ev@plt>
  404fba:	eb 03                	jmp    404fbf <_ZN5caffe15FillerParameter8set_typeEPKc+0xab>
  404fbc:	48 89 c3             	mov    %rax,%rbx
  404fbf:	48 8d 45 bf          	lea    -0x41(%rbp),%rax
  404fc3:	48 89 c7             	mov    %rax,%rdi
  404fc6:	e8 75 f9 ff ff       	callq  404940 <_ZNSaIcED1Ev@plt>
  404fcb:	48 89 d8             	mov    %rbx,%rax
  404fce:	48 89 c7             	mov    %rax,%rdi
  404fd1:	e8 9a f6 ff ff       	callq  404670 <_Unwind_Resume@plt>
  404fd6:	e8 25 f5 ff ff       	callq  404500 <__stack_chk_fail@plt>
  404fdb:	48 83 c4 58          	add    $0x58,%rsp
  404fdf:	5b                   	pop    %rbx
  404fe0:	5d                   	pop    %rbp
  404fe1:	c3                   	retq   

0000000000404fe2 <_ZN5caffe15FillerParameter13set_has_valueEv>:
  404fe2:	55                   	push   %rbp
  404fe3:	48 89 e5             	mov    %rsp,%rbp
  404fe6:	48 89 7d e8          	mov    %rdi,-0x18(%rbp)
  404fea:	48 8b 45 e8          	mov    -0x18(%rbp),%rax
  404fee:	48 83 c0 10          	add    $0x10,%rax
  404ff2:	48 89 45 f8          	mov    %rax,-0x8(%rbp)
  404ff6:	c7 45 f4 00 00 00 00 	movl   $0x0,-0xc(%rbp)
  404ffd:	8b 45 f4             	mov    -0xc(%rbp),%eax
  405000:	48 98                	cltq   
  405002:	48 8d 14 85 00 00 00 	lea    0x0(,%rax,4),%rdx
  405009:	00 
  40500a:	48 8b 45 f8          	mov    -0x8(%rbp),%rax
  40500e:	48 01 d0             	add    %rdx,%rax
  405011:	8b 10                	mov    (%rax),%edx
  405013:	83 ca 02             	or     $0x2,%edx
  405016:	89 10                	mov    %edx,(%rax)
  405018:	90                   	nop
  405019:	5d                   	pop    %rbp
  40501a:	c3                   	retq   
  40501b:	90                   	nop

000000000040501c <_ZN5caffe15FillerParameter9set_valueEf>:
  40501c:	55                   	push   %rbp
  40501d:	48 89 e5             	mov    %rsp,%rbp
  405020:	48 83 ec 10          	sub    $0x10,%rsp
  405024:	48 89 7d f8          	mov    %rdi,-0x8(%rbp)
  405028:	f3 0f 11 45 f4       	movss  %xmm0,-0xc(%rbp)
  40502d:	48 8b 45 f8          	mov    -0x8(%rbp),%rax
  405031:	48 89 c7             	mov    %rax,%rdi
  405034:	e8 a9 ff ff ff       	callq  404fe2 <_ZN5caffe15FillerParameter13set_has_valueEv>
  405039:	48 8b 45 f8          	mov    -0x8(%rbp),%rax
  40503d:	f3 0f 10 45 f4       	movss  -0xc(%rbp),%xmm0
  405042:	f3 0f 11 40 20       	movss  %xmm0,0x20(%rax)
  405047:	90                   	nop
  405048:	c9                   	leaveq 
  405049:	c3                   	retq   

000000000040504a <_ZN5caffe15FillerParameter11set_has_minEv>:
  40504a:	55                   	push   %rbp
  40504b:	48 89 e5             	mov    %rsp,%rbp
  40504e:	48 89 7d e8          	mov    %rdi,-0x18(%rbp)
  405052:	48 8b 45 e8          	mov    -0x18(%rbp),%rax
  405056:	48 83 c0 10          	add    $0x10,%rax
  40505a:	48 89 45 f8          	mov    %rax,-0x8(%rbp)
  40505e:	c7 45 f4 00 00 00 00 	movl   $0x0,-0xc(%rbp)
  405065:	8b 45 f4             	mov    -0xc(%rbp),%eax
  405068:	48 98                	cltq   
  40506a:	48 8d 14 85 00 00 00 	lea    0x0(,%rax,4),%rdx
  405071:	00 
  405072:	48 8b 45 f8          	mov    -0x8(%rbp),%rax
  405076:	48 01 d0             	add    %rdx,%rax
  405079:	8b 10                	mov    (%rax),%edx
  40507b:	83 ca 04             	or     $0x4,%edx
  40507e:	89 10                	mov    %edx,(%rax)
  405080:	90                   	nop
  405081:	5d                   	pop    %rbp
  405082:	c3                   	retq   
  405083:	90                   	nop

0000000000405084 <_ZN5caffe15FillerParameter7set_minEf>:
  405084:	55                   	push   %rbp
  405085:	48 89 e5             	mov    %rsp,%rbp
  405088:	48 83 ec 10          	sub    $0x10,%rsp
  40508c:	48 89 7d f8          	mov    %rdi,-0x8(%rbp)
  405090:	f3 0f 11 45 f4       	movss  %xmm0,-0xc(%rbp)
  405095:	48 8b 45 f8          	mov    -0x8(%rbp),%rax
  405099:	48 89 c7             	mov    %rax,%rdi
  40509c:	e8 a9 ff ff ff       	callq  40504a <_ZN5caffe15FillerParameter11set_has_minEv>
  4050a1:	48 8b 45 f8          	mov    -0x8(%rbp),%rax
  4050a5:	f3 0f 10 45 f4       	movss  -0xc(%rbp),%xmm0
  4050aa:	f3 0f 11 40 24       	movss  %xmm0,0x24(%rax)
  4050af:	90                   	nop
  4050b0:	c9                   	leaveq 
  4050b1:	c3                   	retq   

00000000004050b2 <_ZN5caffe15FillerParameter11set_has_maxEv>:
  4050b2:	55                   	push   %rbp
  4050b3:	48 89 e5             	mov    %rsp,%rbp
  4050b6:	48 89 7d e8          	mov    %rdi,-0x18(%rbp)
  4050ba:	48 8b 45 e8          	mov    -0x18(%rbp),%rax
  4050be:	48 83 c0 10          	add    $0x10,%rax
  4050c2:	48 89 45 f8          	mov    %rax,-0x8(%rbp)
  4050c6:	c7 45 f4 00 00 00 00 	movl   $0x0,-0xc(%rbp)
  4050cd:	8b 45 f4             	mov    -0xc(%rbp),%eax
  4050d0:	48 98                	cltq   
  4050d2:	48 8d 14 85 00 00 00 	lea    0x0(,%rax,4),%rdx
  4050d9:	00 
  4050da:	48 8b 45 f8          	mov    -0x8(%rbp),%rax
  4050de:	48 01 d0             	add    %rdx,%rax
  4050e1:	8b 10                	mov    (%rax),%edx
  4050e3:	83 ca 08             	or     $0x8,%edx
  4050e6:	89 10                	mov    %edx,(%rax)
  4050e8:	90                   	nop
  4050e9:	5d                   	pop    %rbp
  4050ea:	c3                   	retq   
  4050eb:	90                   	nop

00000000004050ec <_ZN5caffe15FillerParameter7set_maxEf>:
  4050ec:	55                   	push   %rbp
  4050ed:	48 89 e5             	mov    %rsp,%rbp
  4050f0:	48 83 ec 10          	sub    $0x10,%rsp
  4050f4:	48 89 7d f8          	mov    %rdi,-0x8(%rbp)
  4050f8:	f3 0f 11 45 f4       	movss  %xmm0,-0xc(%rbp)
  4050fd:	48 8b 45 f8          	mov    -0x8(%rbp),%rax
  405101:	48 89 c7             	mov    %rax,%rdi
  405104:	e8 a9 ff ff ff       	callq  4050b2 <_ZN5caffe15FillerParameter11set_has_maxEv>
  405109:	48 8b 45 f8          	mov    -0x8(%rbp),%rax
  40510d:	f3 0f 10 45 f4       	movss  -0xc(%rbp),%xmm0
  405112:	f3 0f 11 40 34       	movss  %xmm0,0x34(%rax)
  405117:	90                   	nop
  405118:	c9                   	leaveq 
  405119:	c3                   	retq   

000000000040511a <_ZNK5caffe14LayerParameter5phaseEv>:
  40511a:	55                   	push   %rbp
  40511b:	48 89 e5             	mov    %rsp,%rbp
  40511e:	48 89 7d f8          	mov    %rdi,-0x8(%rbp)
  405122:	48 8b 45 f8          	mov    -0x8(%rbp),%rax
  405126:	8b 80 50 02 00 00    	mov    0x250(%rax),%eax
  40512c:	5d                   	pop    %rbp
  40512d:	c3                   	retq   

000000000040512e <_ZNK5caffe14LayerParameter16loss_weight_sizeEv>:
  40512e:	55                   	push   %rbp
  40512f:	48 89 e5             	mov    %rsp,%rbp
  405132:	48 83 ec 10          	sub    $0x10,%rsp
  405136:	48 89 7d f8          	mov    %rdi,-0x8(%rbp)
  40513a:	48 8b 45 f8          	mov    -0x8(%rbp),%rax
  40513e:	48 83 c0 48          	add    $0x48,%rax
  405142:	48 89 c7             	mov    %rax,%rdi
  405145:	e8 58 0d 00 00       	callq  405ea2 <_ZNK6google8protobuf13RepeatedFieldIfE4sizeEv>
  40514a:	c9                   	leaveq 
  40514b:	c3                   	retq   

000000000040514c <_ZNK5caffe14LayerParameter11loss_weightEi>:
  40514c:	55                   	push   %rbp
  40514d:	48 89 e5             	mov    %rsp,%rbp
  405150:	48 83 ec 10          	sub    $0x10,%rsp
  405154:	48 89 7d f8          	mov    %rdi,-0x8(%rbp)
  405158:	89 75 f4             	mov    %esi,-0xc(%rbp)
  40515b:	48 8b 45 f8          	mov    -0x8(%rbp),%rax
  40515f:	48 8d 50 48          	lea    0x48(%rax),%rdx
  405163:	8b 45 f4             	mov    -0xc(%rbp),%eax
  405166:	89 c6                	mov    %eax,%esi
  405168:	48 89 d7             	mov    %rdx,%rdi
  40516b:	e8 42 0d 00 00       	callq  405eb2 <_ZNK6google8protobuf13RepeatedFieldIfE3GetEi>
  405170:	f3 0f 10 00          	movss  (%rax),%xmm0
  405174:	c9                   	leaveq 
  405175:	c3                   	retq   

0000000000405176 <_ZNK5caffe14LayerParameter10blobs_sizeEv>:
  405176:	55                   	push   %rbp
  405177:	48 89 e5             	mov    %rsp,%rbp
  40517a:	48 83 ec 10          	sub    $0x10,%rsp
  40517e:	48 89 7d f8          	mov    %rdi,-0x8(%rbp)
  405182:	48 8b 45 f8          	mov    -0x8(%rbp),%rax
  405186:	48 83 c0 70          	add    $0x70,%rax
  40518a:	48 89 c7             	mov    %rax,%rdi
  40518d:	e8 d8 0e 00 00       	callq  40606a <_ZNK6google8protobuf16RepeatedPtrFieldIN5caffe9BlobProtoEE4sizeEv>
  405192:	c9                   	leaveq 
  405193:	c3                   	retq   

0000000000405194 <_ZN5caffe14LayerParameter11clear_blobsEv>:
  405194:	55                   	push   %rbp
  405195:	48 89 e5             	mov    %rsp,%rbp
  405198:	48 83 ec 10          	sub    $0x10,%rsp
  40519c:	48 89 7d f8          	mov    %rdi,-0x8(%rbp)
  4051a0:	48 8b 45 f8          	mov    -0x8(%rbp),%rax
  4051a4:	48 83 c0 70          	add    $0x70,%rax
  4051a8:	48 89 c7             	mov    %rax,%rdi
  4051ab:	e8 d4 0e 00 00       	callq  406084 <_ZN6google8protobuf16RepeatedPtrFieldIN5caffe9BlobProtoEE5ClearEv>
  4051b0:	90                   	nop
  4051b1:	c9                   	leaveq 
  4051b2:	c3                   	retq   
  4051b3:	90                   	nop

00000000004051b4 <_ZNK5caffe14LayerParameter5blobsEi>:
  4051b4:	55                   	push   %rbp
  4051b5:	48 89 e5             	mov    %rsp,%rbp
  4051b8:	48 83 ec 10          	sub    $0x10,%rsp
  4051bc:	48 89 7d f8          	mov    %rdi,-0x8(%rbp)
  4051c0:	89 75 f4             	mov    %esi,-0xc(%rbp)
  4051c3:	48 8b 45 f8          	mov    -0x8(%rbp),%rax
  4051c7:	48 8d 50 70          	lea    0x70(%rax),%rdx
  4051cb:	8b 45 f4             	mov    -0xc(%rbp),%eax
  4051ce:	89 c6                	mov    %eax,%esi
  4051d0:	48 89 d7             	mov    %rdx,%rdi
  4051d3:	e8 c8 0e 00 00       	callq  4060a0 <_ZNK6google8protobuf16RepeatedPtrFieldIN5caffe9BlobProtoEE3GetEi>
  4051d8:	c9                   	leaveq 
  4051d9:	c3                   	retq   

00000000004051da <_ZN5caffe14LayerParameter9add_blobsEv>:
  4051da:	55                   	push   %rbp
  4051db:	48 89 e5             	mov    %rsp,%rbp
  4051de:	48 83 ec 10          	sub    $0x10,%rsp
  4051e2:	48 89 7d f8          	mov    %rdi,-0x8(%rbp)
  4051e6:	48 8b 45 f8          	mov    -0x8(%rbp),%rax
  4051ea:	48 83 c0 70          	add    $0x70,%rax
  4051ee:	48 89 c7             	mov    %rax,%rdi
  4051f1:	e8 cc 0e 00 00       	callq  4060c2 <_ZN6google8protobuf16RepeatedPtrFieldIN5caffe9BlobProtoEE3AddEv>
  4051f6:	c9                   	leaveq 
  4051f7:	c3                   	retq   

00000000004051f8 <_ZN5caffe14LayerParameter27set_has_inner_product_paramEv>:
  4051f8:	55                   	push   %rbp
  4051f9:	48 89 e5             	mov    %rsp,%rbp
  4051fc:	48 89 7d e8          	mov    %rdi,-0x18(%rbp)
  405200:	48 8b 45 e8          	mov    -0x18(%rbp),%rax
  405204:	48 83 c0 10          	add    $0x10,%rax
  405208:	48 89 45 f8          	mov    %rax,-0x8(%rbp)
  40520c:	c7 45 f4 01 00 00 00 	movl   $0x1,-0xc(%rbp)
  405213:	8b 45 f4             	mov    -0xc(%rbp),%eax
  405216:	48 98                	cltq   
  405218:	48 8d 14 85 00 00 00 	lea    0x0(,%rax,4),%rdx
  40521f:	00 
  405220:	48 8b 45 f8          	mov    -0x8(%rbp),%rax
  405224:	48 01 d0             	add    %rdx,%rax
  405227:	8b 10                	mov    (%rax),%edx
  405229:	83 ca 04             	or     $0x4,%edx
  40522c:	89 10                	mov    %edx,(%rax)
  40522e:	90                   	nop
  40522f:	5d                   	pop    %rbp
  405230:	c3                   	retq   
  405231:	90                   	nop

0000000000405232 <_ZN5caffe14LayerParameter27mutable_inner_product_paramEv>:
  405232:	55                   	push   %rbp
  405233:	48 89 e5             	mov    %rsp,%rbp
  405236:	41 54                	push   %r12
  405238:	53                   	push   %rbx
  405239:	48 83 ec 10          	sub    $0x10,%rsp
  40523d:	48 89 7d e8          	mov    %rdi,-0x18(%rbp)
  405241:	48 8b 45 e8          	mov    -0x18(%rbp),%rax
  405245:	48 89 c7             	mov    %rax,%rdi
  405248:	e8 ab ff ff ff       	callq  4051f8 <_ZN5caffe14LayerParameter27set_has_inner_product_paramEv>
  40524d:	48 8b 45 e8          	mov    -0x18(%rbp),%rax
  405251:	48 8b 80 90 01 00 00 	mov    0x190(%rax),%rax
  405258:	48 85 c0             	test   %rax,%rax
  40525b:	75 20                	jne    40527d <_ZN5caffe14LayerParameter27mutable_inner_product_paramEv+0x4b>
  40525d:	bf 38 00 00 00       	mov    $0x38,%edi
  405262:	e8 19 f2 ff ff       	callq  404480 <_Znwm@plt>
  405267:	48 89 c3             	mov    %rax,%rbx
  40526a:	48 89 df             	mov    %rbx,%rdi
  40526d:	e8 3e f3 ff ff       	callq  4045b0 <_ZN5caffe21InnerProductParameterC1Ev@plt>
  405272:	48 8b 45 e8          	mov    -0x18(%rbp),%rax
  405276:	48 89 98 90 01 00 00 	mov    %rbx,0x190(%rax)
  40527d:	48 8b 45 e8          	mov    -0x18(%rbp),%rax
  405281:	48 8b 80 90 01 00 00 	mov    0x190(%rax),%rax
  405288:	eb 16                	jmp    4052a0 <_ZN5caffe14LayerParameter27mutable_inner_product_paramEv+0x6e>
  40528a:	49 89 c4             	mov    %rax,%r12
  40528d:	48 89 df             	mov    %rbx,%rdi
  405290:	e8 4b f3 ff ff       	callq  4045e0 <_ZdlPv@plt>
  405295:	4c 89 e0             	mov    %r12,%rax
  405298:	48 89 c7             	mov    %rax,%rdi
  40529b:	e8 d0 f3 ff ff       	callq  404670 <_Unwind_Resume@plt>
  4052a0:	48 83 c4 10          	add    $0x10,%rsp
  4052a4:	5b                   	pop    %rbx
  4052a5:	41 5c                	pop    %r12
  4052a7:	5d                   	pop    %rbp
  4052a8:	c3                   	retq   
  4052a9:	90                   	nop

00000000004052aa <_ZN5caffe21InnerProductParameter18set_has_num_outputEv>:
  4052aa:	55                   	push   %rbp
  4052ab:	48 89 e5             	mov    %rsp,%rbp
  4052ae:	48 89 7d e8          	mov    %rdi,-0x18(%rbp)
  4052b2:	48 8b 45 e8          	mov    -0x18(%rbp),%rax
  4052b6:	48 83 c0 10          	add    $0x10,%rax
  4052ba:	48 89 45 f8          	mov    %rax,-0x8(%rbp)
  4052be:	c7 45 f4 00 00 00 00 	movl   $0x0,-0xc(%rbp)
  4052c5:	8b 45 f4             	mov    -0xc(%rbp),%eax
  4052c8:	48 98                	cltq   
  4052ca:	48 8d 14 85 00 00 00 	lea    0x0(,%rax,4),%rdx
  4052d1:	00 
  4052d2:	48 8b 45 f8          	mov    -0x8(%rbp),%rax
  4052d6:	48 01 d0             	add    %rdx,%rax
  4052d9:	8b 10                	mov    (%rax),%edx
  4052db:	83 ca 01             	or     $0x1,%edx
  4052de:	89 10                	mov    %edx,(%rax)
  4052e0:	90                   	nop
  4052e1:	5d                   	pop    %rbp
  4052e2:	c3                   	retq   
  4052e3:	90                   	nop

00000000004052e4 <_ZN5caffe21InnerProductParameter14set_num_outputEj>:
  4052e4:	55                   	push   %rbp
  4052e5:	48 89 e5             	mov    %rsp,%rbp
  4052e8:	48 83 ec 10          	sub    $0x10,%rsp
  4052ec:	48 89 7d f8          	mov    %rdi,-0x8(%rbp)
  4052f0:	89 75 f4             	mov    %esi,-0xc(%rbp)
  4052f3:	48 8b 45 f8          	mov    -0x8(%rbp),%rax
  4052f7:	48 89 c7             	mov    %rax,%rdi
  4052fa:	e8 ab ff ff ff       	callq  4052aa <_ZN5caffe21InnerProductParameter18set_has_num_outputEv>
  4052ff:	48 8b 45 f8          	mov    -0x8(%rbp),%rax
  405303:	8b 55 f4             	mov    -0xc(%rbp),%edx
  405306:	89 50 28             	mov    %edx,0x28(%rax)
  405309:	90                   	nop
  40530a:	c9                   	leaveq 
  40530b:	c3                   	retq   

000000000040530c <_ZN5caffe21InnerProductParameter17set_has_bias_termEv>:
  40530c:	55                   	push   %rbp
  40530d:	48 89 e5             	mov    %rsp,%rbp
  405310:	48 89 7d e8          	mov    %rdi,-0x18(%rbp)
  405314:	48 8b 45 e8          	mov    -0x18(%rbp),%rax
  405318:	48 83 c0 10          	add    $0x10,%rax
  40531c:	48 89 45 f8          	mov    %rax,-0x8(%rbp)
  405320:	c7 45 f4 00 00 00 00 	movl   $0x0,-0xc(%rbp)
  405327:	8b 45 f4             	mov    -0xc(%rbp),%eax
  40532a:	48 98                	cltq   
  40532c:	48 8d 14 85 00 00 00 	lea    0x0(,%rax,4),%rdx
  405333:	00 
  405334:	48 8b 45 f8          	mov    -0x8(%rbp),%rax
  405338:	48 01 d0             	add    %rdx,%rax
  40533b:	8b 10                	mov    (%rax),%edx
  40533d:	83 ca 02             	or     $0x2,%edx
  405340:	89 10                	mov    %edx,(%rax)
  405342:	90                   	nop
  405343:	5d                   	pop    %rbp
  405344:	c3                   	retq   
  405345:	90                   	nop

0000000000405346 <_ZN5caffe21InnerProductParameter13set_bias_termEb>:
  405346:	55                   	push   %rbp
  405347:	48 89 e5             	mov    %rsp,%rbp
  40534a:	48 83 ec 10          	sub    $0x10,%rsp
  40534e:	48 89 7d f8          	mov    %rdi,-0x8(%rbp)
  405352:	89 f0                	mov    %esi,%eax
  405354:	88 45 f4             	mov    %al,-0xc(%rbp)
  405357:	48 8b 45 f8          	mov    -0x8(%rbp),%rax
  40535b:	48 89 c7             	mov    %rax,%rdi
  40535e:	e8 a9 ff ff ff       	callq  40530c <_ZN5caffe21InnerProductParameter17set_has_bias_termEv>
  405363:	48 8b 45 f8          	mov    -0x8(%rbp),%rax
  405367:	0f b6 55 f4          	movzbl -0xc(%rbp),%edx
  40536b:	88 50 2d             	mov    %dl,0x2d(%rax)
  40536e:	90                   	nop
  40536f:	c9                   	leaveq 
  405370:	c3                   	retq   
  405371:	90                   	nop

0000000000405372 <_ZN5caffe21InnerProductParameter21set_has_weight_fillerEv>:
  405372:	55                   	push   %rbp
  405373:	48 89 e5             	mov    %rsp,%rbp
  405376:	48 89 7d e8          	mov    %rdi,-0x18(%rbp)
  40537a:	48 8b 45 e8          	mov    -0x18(%rbp),%rax
  40537e:	48 83 c0 10          	add    $0x10,%rax
  405382:	48 89 45 f8          	mov    %rax,-0x8(%rbp)
  405386:	c7 45 f4 00 00 00 00 	movl   $0x0,-0xc(%rbp)
  40538d:	8b 45 f4             	mov    -0xc(%rbp),%eax
  405390:	48 98                	cltq   
  405392:	48 8d 14 85 00 00 00 	lea    0x0(,%rax,4),%rdx
  405399:	00 
  40539a:	48 8b 45 f8          	mov    -0x8(%rbp),%rax
  40539e:	48 01 d0             	add    %rdx,%rax
  4053a1:	8b 10                	mov    (%rax),%edx
  4053a3:	83 ca 04             	or     $0x4,%edx
  4053a6:	89 10                	mov    %edx,(%rax)
  4053a8:	90                   	nop
  4053a9:	5d                   	pop    %rbp
  4053aa:	c3                   	retq   
  4053ab:	90                   	nop

00000000004053ac <_ZN5caffe21InnerProductParameter21mutable_weight_fillerEv>:
  4053ac:	55                   	push   %rbp
  4053ad:	48 89 e5             	mov    %rsp,%rbp
  4053b0:	41 54                	push   %r12
  4053b2:	53                   	push   %rbx
  4053b3:	48 83 ec 10          	sub    $0x10,%rsp
  4053b7:	48 89 7d e8          	mov    %rdi,-0x18(%rbp)
  4053bb:	48 8b 45 e8          	mov    -0x18(%rbp),%rax
  4053bf:	48 89 c7             	mov    %rax,%rdi
  4053c2:	e8 ab ff ff ff       	callq  405372 <_ZN5caffe21InnerProductParameter21set_has_weight_fillerEv>
  4053c7:	48 8b 45 e8          	mov    -0x18(%rbp),%rax
  4053cb:	48 8b 40 18          	mov    0x18(%rax),%rax
  4053cf:	48 85 c0             	test   %rax,%rax
  4053d2:	75 1d                	jne    4053f1 <_ZN5caffe21InnerProductParameter21mutable_weight_fillerEv+0x45>
  4053d4:	bf 40 00 00 00       	mov    $0x40,%edi
  4053d9:	e8 a2 f0 ff ff       	callq  404480 <_Znwm@plt>
  4053de:	48 89 c3             	mov    %rax,%rbx
  4053e1:	48 89 df             	mov    %rbx,%rdi
  4053e4:	e8 c7 f4 ff ff       	callq  4048b0 <_ZN5caffe15FillerParameterC1Ev@plt>
  4053e9:	48 8b 45 e8          	mov    -0x18(%rbp),%rax
  4053ed:	48 89 58 18          	mov    %rbx,0x18(%rax)
  4053f1:	48 8b 45 e8          	mov    -0x18(%rbp),%rax
  4053f5:	48 8b 40 18          	mov    0x18(%rax),%rax
  4053f9:	eb 16                	jmp    405411 <_ZN5caffe21InnerProductParameter21mutable_weight_fillerEv+0x65>
  4053fb:	49 89 c4             	mov    %rax,%r12
  4053fe:	48 89 df             	mov    %rbx,%rdi
  405401:	e8 da f1 ff ff       	callq  4045e0 <_ZdlPv@plt>
  405406:	4c 89 e0             	mov    %r12,%rax
  405409:	48 89 c7             	mov    %rax,%rdi
  40540c:	e8 5f f2 ff ff       	callq  404670 <_Unwind_Resume@plt>
  405411:	48 83 c4 10          	add    $0x10,%rsp
  405415:	5b                   	pop    %rbx
  405416:	41 5c                	pop    %r12
  405418:	5d                   	pop    %rbp
  405419:	c3                   	retq   

000000000040541a <_ZN5caffe21InnerProductParameter19set_has_bias_fillerEv>:
  40541a:	55                   	push   %rbp
  40541b:	48 89 e5             	mov    %rsp,%rbp
  40541e:	48 89 7d e8          	mov    %rdi,-0x18(%rbp)
  405422:	48 8b 45 e8          	mov    -0x18(%rbp),%rax
  405426:	48 83 c0 10          	add    $0x10,%rax
  40542a:	48 89 45 f8          	mov    %rax,-0x8(%rbp)
  40542e:	c7 45 f4 00 00 00 00 	movl   $0x0,-0xc(%rbp)
  405435:	8b 45 f4             	mov    -0xc(%rbp),%eax
  405438:	48 98                	cltq   
  40543a:	48 8d 14 85 00 00 00 	lea    0x0(,%rax,4),%rdx
  405441:	00 
  405442:	48 8b 45 f8          	mov    -0x8(%rbp),%rax
  405446:	48 01 d0             	add    %rdx,%rax
  405449:	8b 10                	mov    (%rax),%edx
  40544b:	83 ca 08             	or     $0x8,%edx
  40544e:	89 10                	mov    %edx,(%rax)
  405450:	90                   	nop
  405451:	5d                   	pop    %rbp
  405452:	c3                   	retq   
  405453:	90                   	nop

0000000000405454 <_ZN5caffe21InnerProductParameter19mutable_bias_fillerEv>:
  405454:	55                   	push   %rbp
  405455:	48 89 e5             	mov    %rsp,%rbp
  405458:	41 54                	push   %r12
  40545a:	53                   	push   %rbx
  40545b:	48 83 ec 10          	sub    $0x10,%rsp
  40545f:	48 89 7d e8          	mov    %rdi,-0x18(%rbp)
  405463:	48 8b 45 e8          	mov    -0x18(%rbp),%rax
  405467:	48 89 c7             	mov    %rax,%rdi
  40546a:	e8 ab ff ff ff       	callq  40541a <_ZN5caffe21InnerProductParameter19set_has_bias_fillerEv>
  40546f:	48 8b 45 e8          	mov    -0x18(%rbp),%rax
  405473:	48 8b 40 20          	mov    0x20(%rax),%rax
  405477:	48 85 c0             	test   %rax,%rax
  40547a:	75 1d                	jne    405499 <_ZN5caffe21InnerProductParameter19mutable_bias_fillerEv+0x45>
  40547c:	bf 40 00 00 00       	mov    $0x40,%edi
  405481:	e8 fa ef ff ff       	callq  404480 <_Znwm@plt>
  405486:	48 89 c3             	mov    %rax,%rbx
  405489:	48 89 df             	mov    %rbx,%rdi
  40548c:	e8 1f f4 ff ff       	callq  4048b0 <_ZN5caffe15FillerParameterC1Ev@plt>
  405491:	48 8b 45 e8          	mov    -0x18(%rbp),%rax
  405495:	48 89 58 20          	mov    %rbx,0x20(%rax)
  405499:	48 8b 45 e8          	mov    -0x18(%rbp),%rax
  40549d:	48 8b 40 20          	mov    0x20(%rax),%rax
  4054a1:	eb 16                	jmp    4054b9 <_ZN5caffe21InnerProductParameter19mutable_bias_fillerEv+0x65>
  4054a3:	49 89 c4             	mov    %rax,%r12
  4054a6:	48 89 df             	mov    %rbx,%rdi
  4054a9:	e8 32 f1 ff ff       	callq  4045e0 <_ZdlPv@plt>
  4054ae:	4c 89 e0             	mov    %r12,%rax
  4054b1:	48 89 c7             	mov    %rax,%rdi
  4054b4:	e8 b7 f1 ff ff       	callq  404670 <_Unwind_Resume@plt>
  4054b9:	48 83 c4 10          	add    $0x10,%rsp
  4054bd:	5b                   	pop    %rbx
  4054be:	41 5c                	pop    %r12
  4054c0:	5d                   	pop    %rbp
  4054c1:	c3                   	retq   

00000000004054c2 <_ZNK2CK5Shape10data_countEv>:
  4054c2:	55                   	push   %rbp
  4054c3:	48 89 e5             	mov    %rsp,%rbp
  4054c6:	48 89 7d f8          	mov    %rdi,-0x8(%rbp)
  4054ca:	48 8b 45 f8          	mov    -0x8(%rbp),%rax
  4054ce:	8b 10                	mov    (%rax),%edx
  4054d0:	48 8b 45 f8          	mov    -0x8(%rbp),%rax
  4054d4:	8b 40 04             	mov    0x4(%rax),%eax
  4054d7:	0f af d0             	imul   %eax,%edx
  4054da:	48 8b 45 f8          	mov    -0x8(%rbp),%rax
  4054de:	8b 40 08             	mov    0x8(%rax),%eax
  4054e1:	0f af d0             	imul   %eax,%edx
  4054e4:	48 8b 45 f8          	mov    -0x8(%rbp),%rax
  4054e8:	8b 40 0c             	mov    0xc(%rax),%eax
  4054eb:	0f af c2             	imul   %edx,%eax
  4054ee:	5d                   	pop    %rbp
  4054ef:	c3                   	retq   

00000000004054f0 <_ZNK2CK5Shape14get_flat_indexEiiii>:
  4054f0:	55                   	push   %rbp
  4054f1:	48 89 e5             	mov    %rsp,%rbp
  4054f4:	48 83 ec 20          	sub    $0x20,%rsp
  4054f8:	48 89 7d f8          	mov    %rdi,-0x8(%rbp)
  4054fc:	89 75 f4             	mov    %esi,-0xc(%rbp)
  4054ff:	89 55 f0             	mov    %edx,-0x10(%rbp)
  405502:	89 4d ec             	mov    %ecx,-0x14(%rbp)
  405505:	44 89 45 e8          	mov    %r8d,-0x18(%rbp)
  405509:	8b 7d e8             	mov    -0x18(%rbp),%edi
  40550c:	8b 4d ec             	mov    -0x14(%rbp),%ecx
  40550f:	8b 55 f0             	mov    -0x10(%rbp),%edx
  405512:	8b 75 f4             	mov    -0xc(%rbp),%esi
  405515:	48 8b 45 f8          	mov    -0x8(%rbp),%rax
  405519:	41 89 f8             	mov    %edi,%r8d
  40551c:	48 89 c7             	mov    %rax,%rdi
  40551f:	e8 02 00 00 00       	callq  405526 <_ZNK2CK5Shape19get_flat_index_nchwEiiii>
  405524:	c9                   	leaveq 
  405525:	c3                   	retq   

0000000000405526 <_ZNK2CK5Shape19get_flat_index_nchwEiiii>:
  405526:	55                   	push   %rbp
  405527:	48 89 e5             	mov    %rsp,%rbp
  40552a:	48 89 7d f8          	mov    %rdi,-0x8(%rbp)
  40552e:	89 75 f4             	mov    %esi,-0xc(%rbp)
  405531:	89 55 f0             	mov    %edx,-0x10(%rbp)
  405534:	89 4d ec             	mov    %ecx,-0x14(%rbp)
  405537:	44 89 45 e8          	mov    %r8d,-0x18(%rbp)
  40553b:	48 8b 45 f8          	mov    -0x8(%rbp),%rax
  40553f:	8b 40 04             	mov    0x4(%rax),%eax
  405542:	0f af 45 f4          	imul   -0xc(%rbp),%eax
  405546:	89 c2                	mov    %eax,%edx
  405548:	8b 45 f0             	mov    -0x10(%rbp),%eax
  40554b:	01 c2                	add    %eax,%edx
  40554d:	48 8b 45 f8          	mov    -0x8(%rbp),%rax
  405551:	8b 40 08             	mov    0x8(%rax),%eax
  405554:	0f af d0             	imul   %eax,%edx
  405557:	8b 45 ec             	mov    -0x14(%rbp),%eax
  40555a:	01 c2                	add    %eax,%edx
  40555c:	48 8b 45 f8          	mov    -0x8(%rbp),%rax
  405560:	8b 40 0c             	mov    0xc(%rax),%eax
  405563:	0f af d0             	imul   %eax,%edx
  405566:	8b 45 e8             	mov    -0x18(%rbp),%eax
  405569:	01 d0                	add    %edx,%eax
  40556b:	5d                   	pop    %rbp
  40556c:	c3                   	retq   

000000000040556d <_ZN2CK8getenv_iEPKci>:
  40556d:	55                   	push   %rbp
  40556e:	48 89 e5             	mov    %rsp,%rbp
  405571:	48 83 ec 10          	sub    $0x10,%rsp
  405575:	48 89 7d f8          	mov    %rdi,-0x8(%rbp)
  405579:	89 75 f4             	mov    %esi,-0xc(%rbp)
  40557c:	48 8b 45 f8          	mov    -0x8(%rbp),%rax
  405580:	48 89 c7             	mov    %rax,%rdi
  405583:	e8 38 f1 ff ff       	callq  4046c0 <getenv@plt>
  405588:	48 85 c0             	test   %rax,%rax
  40558b:	74 16                	je     4055a3 <_ZN2CK8getenv_iEPKci+0x36>
  40558d:	48 8b 45 f8          	mov    -0x8(%rbp),%rax
  405591:	48 89 c7             	mov    %rax,%rdi
  405594:	e8 27 f1 ff ff       	callq  4046c0 <getenv@plt>
  405599:	48 89 c7             	mov    %rax,%rdi
  40559c:	e8 af ef ff ff       	callq  404550 <atoi@plt>
  4055a1:	eb 03                	jmp    4055a6 <_ZN2CK8getenv_iEPKci+0x39>
  4055a3:	8b 45 f4             	mov    -0xc(%rbp),%eax
  4055a6:	c9                   	leaveq 
  4055a7:	c3                   	retq   

00000000004055a8 <_ZN2CK13store_value_iEiPKci>:
  4055a8:	55                   	push   %rbp
  4055a9:	48 89 e5             	mov    %rsp,%rbp
  4055ac:	48 83 ec 20          	sub    $0x20,%rsp
  4055b0:	89 7d ec             	mov    %edi,-0x14(%rbp)
  4055b3:	48 89 75 e0          	mov    %rsi,-0x20(%rbp)
  4055b7:	89 55 e8             	mov    %edx,-0x18(%rbp)
  4055ba:	48 8b 45 e0          	mov    -0x20(%rbp),%rax
  4055be:	48 89 c7             	mov    %rax,%rdi
  4055c1:	e8 ba ef ff ff       	callq  404580 <strlen@plt>
  4055c6:	48 83 c0 06          	add    $0x6,%rax
  4055ca:	48 89 c7             	mov    %rax,%rdi
  4055cd:	e8 be ef ff ff       	callq  404590 <_Znam@plt>
  4055d2:	48 89 45 f8          	mov    %rax,-0x8(%rbp)
  4055d6:	48 8b 55 e0          	mov    -0x20(%rbp),%rdx
  4055da:	48 8b 45 f8          	mov    -0x8(%rbp),%rax
  4055de:	be 74 b9 40 00       	mov    $0x40b974,%esi
  4055e3:	48 89 c7             	mov    %rax,%rdi
  4055e6:	b8 00 00 00 00       	mov    $0x0,%eax
  4055eb:	e8 40 f2 ff ff       	callq  404830 <sprintf@plt>
  4055f0:	8b 55 e8             	mov    -0x18(%rbp),%edx
  4055f3:	48 8b 4d f8          	mov    -0x8(%rbp),%rcx
  4055f7:	8b 45 ec             	mov    -0x14(%rbp),%eax
  4055fa:	48 89 ce             	mov    %rcx,%rsi
  4055fd:	89 c7                	mov    %eax,%edi
  4055ff:	e8 9c ef ff ff       	callq  4045a0 <xopenme_add_var_i@plt>
  405604:	48 83 7d f8 00       	cmpq   $0x0,-0x8(%rbp)
  405609:	74 0c                	je     405617 <_ZN2CK13store_value_iEiPKci+0x6f>
  40560b:	48 8b 45 f8          	mov    -0x8(%rbp),%rax
  40560f:	48 89 c7             	mov    %rax,%rdi
  405612:	e8 59 ef ff ff       	callq  404570 <_ZdaPv@plt>
  405617:	90                   	nop
  405618:	c9                   	leaveq 
  405619:	c3                   	retq   

000000000040561a <_ZN2CK13store_value_fEiPKcf>:
  40561a:	55                   	push   %rbp
  40561b:	48 89 e5             	mov    %rsp,%rbp
  40561e:	48 83 ec 30          	sub    $0x30,%rsp
  405622:	89 7d ec             	mov    %edi,-0x14(%rbp)
  405625:	48 89 75 e0          	mov    %rsi,-0x20(%rbp)
  405629:	f3 0f 11 45 e8       	movss  %xmm0,-0x18(%rbp)
  40562e:	48 8b 45 e0          	mov    -0x20(%rbp),%rax
  405632:	48 89 c7             	mov    %rax,%rdi
  405635:	e8 46 ef ff ff       	callq  404580 <strlen@plt>
  40563a:	48 83 c0 06          	add    $0x6,%rax
  40563e:	48 89 c7             	mov    %rax,%rdi
  405641:	e8 4a ef ff ff       	callq  404590 <_Znam@plt>
  405646:	48 89 45 f8          	mov    %rax,-0x8(%rbp)
  40564a:	48 8b 55 e0          	mov    -0x20(%rbp),%rdx
  40564e:	48 8b 45 f8          	mov    -0x8(%rbp),%rax
  405652:	be 7d b9 40 00       	mov    $0x40b97d,%esi
  405657:	48 89 c7             	mov    %rax,%rdi
  40565a:	b8 00 00 00 00       	mov    $0x0,%eax
  40565f:	e8 cc f1 ff ff       	callq  404830 <sprintf@plt>
  405664:	8b 4d e8             	mov    -0x18(%rbp),%ecx
  405667:	48 8b 55 f8          	mov    -0x8(%rbp),%rdx
  40566b:	8b 45 ec             	mov    -0x14(%rbp),%eax
  40566e:	89 4d dc             	mov    %ecx,-0x24(%rbp)
  405671:	f3 0f 10 45 dc       	movss  -0x24(%rbp),%xmm0
  405676:	48 89 d6             	mov    %rdx,%rsi
  405679:	89 c7                	mov    %eax,%edi
  40567b:	e8 60 ed ff ff       	callq  4043e0 <xopenme_add_var_f@plt>
  405680:	48 83 7d f8 00       	cmpq   $0x0,-0x8(%rbp)
  405685:	74 0c                	je     405693 <_ZN2CK13store_value_fEiPKcf+0x79>
  405687:	48 8b 45 f8          	mov    -0x8(%rbp),%rax
  40568b:	48 89 c7             	mov    %rax,%rdi
  40568e:	e8 dd ee ff ff       	callq  404570 <_ZdaPv@plt>
  405693:	90                   	nop
  405694:	c9                   	leaveq 
  405695:	c3                   	retq   

0000000000405696 <_ZN2CK24get_input_shape_from_envEiiii>:
  405696:	55                   	push   %rbp
  405697:	48 89 e5             	mov    %rsp,%rbp
  40569a:	48 83 ec 30          	sub    $0x30,%rsp
  40569e:	89 7d dc             	mov    %edi,-0x24(%rbp)
  4056a1:	89 75 d8             	mov    %esi,-0x28(%rbp)
  4056a4:	89 55 d4             	mov    %edx,-0x2c(%rbp)
  4056a7:	89 4d d0             	mov    %ecx,-0x30(%rbp)
  4056aa:	64 48 8b 04 25 28 00 	mov    %fs:0x28,%rax
  4056b1:	00 00 
  4056b3:	48 89 45 f8          	mov    %rax,-0x8(%rbp)
  4056b7:	31 c0                	xor    %eax,%eax
  4056b9:	c7 45 e0 01 00 00 00 	movl   $0x1,-0x20(%rbp)
  4056c0:	c7 45 e4 01 00 00 00 	movl   $0x1,-0x1c(%rbp)
  4056c7:	c7 45 e8 01 00 00 00 	movl   $0x1,-0x18(%rbp)
  4056ce:	c7 45 ec 01 00 00 00 	movl   $0x1,-0x14(%rbp)
  4056d5:	8b 45 dc             	mov    -0x24(%rbp),%eax
  4056d8:	89 c6                	mov    %eax,%esi
  4056da:	bf 86 b9 40 00       	mov    $0x40b986,%edi
  4056df:	e8 89 fe ff ff       	callq  40556d <_ZN2CK8getenv_iEPKci>
  4056e4:	89 45 e0             	mov    %eax,-0x20(%rbp)
  4056e7:	8b 45 d8             	mov    -0x28(%rbp),%eax
  4056ea:	89 c6                	mov    %eax,%esi
  4056ec:	bf 94 b9 40 00       	mov    $0x40b994,%edi
  4056f1:	e8 77 fe ff ff       	callq  40556d <_ZN2CK8getenv_iEPKci>
  4056f6:	89 45 e4             	mov    %eax,-0x1c(%rbp)
  4056f9:	8b 45 d4             	mov    -0x2c(%rbp),%eax
  4056fc:	89 c6                	mov    %eax,%esi
  4056fe:	bf a2 b9 40 00       	mov    $0x40b9a2,%edi
  405703:	e8 65 fe ff ff       	callq  40556d <_ZN2CK8getenv_iEPKci>
  405708:	89 45 e8             	mov    %eax,-0x18(%rbp)
  40570b:	8b 45 d0             	mov    -0x30(%rbp),%eax
  40570e:	89 c6                	mov    %eax,%esi
  405710:	bf b0 b9 40 00       	mov    $0x40b9b0,%edi
  405715:	e8 53 fe ff ff       	callq  40556d <_ZN2CK8getenv_iEPKci>
  40571a:	89 45 ec             	mov    %eax,-0x14(%rbp)
  40571d:	8b 45 e0             	mov    -0x20(%rbp),%eax
  405720:	89 c2                	mov    %eax,%edx
  405722:	be be b9 40 00       	mov    $0x40b9be,%esi
  405727:	bf 04 00 00 00       	mov    $0x4,%edi
  40572c:	e8 77 fe ff ff       	callq  4055a8 <_ZN2CK13store_value_iEiPKci>
  405731:	8b 45 e4             	mov    -0x1c(%rbp),%eax
  405734:	89 c2                	mov    %eax,%edx
  405736:	be c9 b9 40 00       	mov    $0x40b9c9,%esi
  40573b:	bf 05 00 00 00       	mov    $0x5,%edi
  405740:	e8 63 fe ff ff       	callq  4055a8 <_ZN2CK13store_value_iEiPKci>
  405745:	8b 45 e8             	mov    -0x18(%rbp),%eax
  405748:	89 c2                	mov    %eax,%edx
  40574a:	be d4 b9 40 00       	mov    $0x40b9d4,%esi
  40574f:	bf 06 00 00 00       	mov    $0x6,%edi
  405754:	e8 4f fe ff ff       	callq  4055a8 <_ZN2CK13store_value_iEiPKci>
  405759:	8b 45 ec             	mov    -0x14(%rbp),%eax
  40575c:	89 c2                	mov    %eax,%edx
  40575e:	be df b9 40 00       	mov    $0x40b9df,%esi
  405763:	bf 07 00 00 00       	mov    $0x7,%edi
  405768:	e8 3b fe ff ff       	callq  4055a8 <_ZN2CK13store_value_iEiPKci>
  40576d:	8b 75 ec             	mov    -0x14(%rbp),%esi
  405770:	8b 4d e8             	mov    -0x18(%rbp),%ecx
  405773:	8b 55 e4             	mov    -0x1c(%rbp),%edx
  405776:	8b 45 e0             	mov    -0x20(%rbp),%eax
  405779:	41 89 f0             	mov    %esi,%r8d
  40577c:	89 c6                	mov    %eax,%esi
  40577e:	bf f0 b9 40 00       	mov    $0x40b9f0,%edi
  405783:	b8 00 00 00 00       	mov    $0x0,%eax
  405788:	e8 83 ec ff ff       	callq  404410 <printf@plt>
  40578d:	48 8b 45 e0          	mov    -0x20(%rbp),%rax
  405791:	48 8b 55 e8          	mov    -0x18(%rbp),%rdx
  405795:	48 8b 4d f8          	mov    -0x8(%rbp),%rcx
  405799:	64 48 33 0c 25 28 00 	xor    %fs:0x28,%rcx
  4057a0:	00 00 
  4057a2:	74 05                	je     4057a9 <_ZN2CK24get_input_shape_from_envEiiii+0x113>
  4057a4:	e8 57 ed ff ff       	callq  404500 <__stack_chk_fail@plt>
  4057a9:	c9                   	leaveq 
  4057aa:	c3                   	retq   

00000000004057ab <_ZN2CK9init_testEv>:
  4057ab:	55                   	push   %rbp
  4057ac:	48 89 e5             	mov    %rsp,%rbp
  4057af:	48 83 ec 10          	sub    $0x10,%rsp
  4057b3:	be 0c 00 00 00       	mov    $0xc,%esi
  4057b8:	bf 02 00 00 00       	mov    $0x2,%edi
  4057bd:	e8 0e ec ff ff       	callq  4043d0 <xopenme_init@plt>
  4057c2:	be 2a 00 00 00       	mov    $0x2a,%esi
  4057c7:	bf 27 ba 40 00       	mov    $0x40ba27,%edi
  4057cc:	e8 9c fd ff ff       	callq  40556d <_ZN2CK8getenv_iEPKci>
  4057d1:	89 45 fc             	mov    %eax,-0x4(%rbp)
  4057d4:	8b 45 fc             	mov    -0x4(%rbp),%eax
  4057d7:	89 c2                	mov    %eax,%edx
  4057d9:	be 2f ba 40 00       	mov    $0x40ba2f,%esi
  4057de:	bf 08 00 00 00       	mov    $0x8,%edi
  4057e3:	e8 c0 fd ff ff       	callq  4055a8 <_ZN2CK13store_value_iEiPKci>
  4057e8:	8b 45 fc             	mov    -0x4(%rbp),%eax
  4057eb:	89 c7                	mov    %eax,%edi
  4057ed:	e8 ce f0 ff ff       	callq  4048c0 <srand@plt>
  4057f2:	90                   	nop
  4057f3:	c9                   	leaveq 
  4057f4:	c3                   	retq   

00000000004057f5 <_ZN2CK11finish_testEv>:
  4057f5:	55                   	push   %rbp
  4057f6:	48 89 e5             	mov    %rsp,%rbp
  4057f9:	bf 00 00 00 00       	mov    $0x0,%edi
  4057fe:	e8 bd ed ff ff       	callq  4045c0 <xopenme_get_timer@plt>
  405803:	be 00 00 00 00       	mov    $0x0,%esi
  405808:	bf 38 ba 40 00       	mov    $0x40ba38,%edi
  40580d:	b8 01 00 00 00       	mov    $0x1,%eax
  405812:	e8 f9 eb ff ff       	callq  404410 <printf@plt>
  405817:	bf 01 00 00 00       	mov    $0x1,%edi
  40581c:	e8 9f ed ff ff       	callq  4045c0 <xopenme_get_timer@plt>
  405821:	be 01 00 00 00       	mov    $0x1,%esi
  405826:	bf 4c ba 40 00       	mov    $0x40ba4c,%edi
  40582b:	b8 01 00 00 00       	mov    $0x1,%eax
  405830:	e8 db eb ff ff       	callq  404410 <printf@plt>
  405835:	e8 46 f0 ff ff       	callq  404880 <xopenme_dump_state@plt>
  40583a:	e8 a1 f0 ff ff       	callq  4048e0 <xopenme_finish@plt>
  40583f:	90                   	nop
  405840:	5d                   	pop    %rbp
  405841:	c3                   	retq   

0000000000405842 <_ZZN2CK5Caffe7test_fcEvENKUlvE_clEv>:
  405842:	55                   	push   %rbp
  405843:	48 89 e5             	mov    %rsp,%rbp
  405846:	48 83 ec 10          	sub    $0x10,%rsp
  40584a:	48 89 7d f8          	mov    %rdi,-0x8(%rbp)
  40584e:	48 8b 45 f8          	mov    -0x8(%rbp),%rax
  405852:	48 8b 50 10          	mov    0x10(%rax),%rdx
  405856:	48 8b 45 f8          	mov    -0x8(%rbp),%rax
  40585a:	48 8b 40 08          	mov    0x8(%rax),%rax
  40585e:	48 8b 4d f8          	mov    -0x8(%rbp),%rcx
  405862:	48 8b 09             	mov    (%rcx),%rcx
  405865:	48 89 c6             	mov    %rax,%rsi
  405868:	48 89 cf             	mov    %rcx,%rdi
  40586b:	e8 82 09 00 00       	callq  4061f2 <_ZN5caffe5LayerIfE5SetUpERKSt6vectorIPNS_4BlobIfEESaIS5_EES9_>
  405870:	90                   	nop
  405871:	c9                   	leaveq 
  405872:	c3                   	retq   
  405873:	90                   	nop

0000000000405874 <_ZZN2CK5Caffe7test_fcEvENKUlvE0_clEv>:
  405874:	55                   	push   %rbp
  405875:	48 89 e5             	mov    %rsp,%rbp
  405878:	48 83 ec 10          	sub    $0x10,%rsp
  40587c:	48 89 7d f8          	mov    %rdi,-0x8(%rbp)
  405880:	48 8b 45 f8          	mov    -0x8(%rbp),%rax
  405884:	48 8b 50 10          	mov    0x10(%rax),%rdx
  405888:	48 8b 45 f8          	mov    -0x8(%rbp),%rax
  40588c:	48 8b 40 08          	mov    0x8(%rax),%rax
  405890:	48 8b 4d f8          	mov    -0x8(%rbp),%rcx
  405894:	48 8b 09             	mov    (%rcx),%rcx
  405897:	48 89 c6             	mov    %rax,%rsi
  40589a:	48 89 cf             	mov    %rcx,%rdi
  40589d:	e8 20 0b 00 00       	callq  4063c2 <_ZN5caffe5LayerIfE7ForwardERKSt6vectorIPNS_4BlobIfEESaIS5_EES9_>
  4058a2:	90                   	nop
  4058a3:	c9                   	leaveq 
  4058a4:	c3                   	retq   
  4058a5:	90                   	nop

00000000004058a6 <_ZN5boost10shared_ptrIN5caffe12SyncedMemoryEED1Ev>:
  4058a6:	55                   	push   %rbp
  4058a7:	48 89 e5             	mov    %rsp,%rbp
  4058aa:	48 83 ec 10          	sub    $0x10,%rsp
  4058ae:	48 89 7d f8          	mov    %rdi,-0x8(%rbp)
  4058b2:	48 8b 45 f8          	mov    -0x8(%rbp),%rax
  4058b6:	48 83 c0 08          	add    $0x8,%rax
  4058ba:	48 89 c7             	mov    %rax,%rdi
  4058bd:	e8 4a f4 ff ff       	callq  404d0c <_ZN5boost6detail12shared_countD1Ev>
  4058c2:	90                   	nop
  4058c3:	c9                   	leaveq 
  4058c4:	c3                   	retq   
  4058c5:	90                   	nop

00000000004058c6 <_ZN5caffe4BlobIfED1Ev>:
  4058c6:	55                   	push   %rbp
  4058c7:	48 89 e5             	mov    %rsp,%rbp
  4058ca:	48 83 ec 10          	sub    $0x10,%rsp
  4058ce:	48 89 7d f8          	mov    %rdi,-0x8(%rbp)
  4058d2:	48 8b 45 f8          	mov    -0x8(%rbp),%rax
  4058d6:	48 83 c0 30          	add    $0x30,%rax
  4058da:	48 89 c7             	mov    %rax,%rdi
  4058dd:	e8 20 0f 00 00       	callq  406802 <_ZNSt6vectorIiSaIiEED1Ev>
  4058e2:	48 8b 45 f8          	mov    -0x8(%rbp),%rax
  4058e6:	48 83 c0 20          	add    $0x20,%rax
  4058ea:	48 89 c7             	mov    %rax,%rdi
  4058ed:	e8 b4 ff ff ff       	callq  4058a6 <_ZN5boost10shared_ptrIN5caffe12SyncedMemoryEED1Ev>
  4058f2:	48 8b 45 f8          	mov    -0x8(%rbp),%rax
  4058f6:	48 83 c0 10          	add    $0x10,%rax
  4058fa:	48 89 c7             	mov    %rax,%rdi
  4058fd:	e8 a4 ff ff ff       	callq  4058a6 <_ZN5boost10shared_ptrIN5caffe12SyncedMemoryEED1Ev>
  405902:	48 8b 45 f8          	mov    -0x8(%rbp),%rax
  405906:	48 89 c7             	mov    %rax,%rdi
  405909:	e8 98 ff ff ff       	callq  4058a6 <_ZN5boost10shared_ptrIN5caffe12SyncedMemoryEED1Ev>
  40590e:	90                   	nop
  40590f:	c9                   	leaveq 
  405910:	c3                   	retq   

0000000000405911 <_ZN2CK5Caffe7test_fcEv>:
  405911:	55                   	push   %rbp
  405912:	48 89 e5             	mov    %rsp,%rbp
  405915:	41 54                	push   %r12
  405917:	53                   	push   %rbx
  405918:	48 81 ec 50 06 00 00 	sub    $0x650,%rsp
  40591f:	64 48 8b 04 25 28 00 	mov    %fs:0x28,%rax
  405926:	00 00 
  405928:	48 89 45 e8          	mov    %rax,-0x18(%rbp)
  40592c:	31 c0                	xor    %eax,%eax
  40592e:	e8 78 fe ff ff       	callq  4057ab <_ZN2CK9init_testEv>
  405933:	b9 01 00 00 00       	mov    $0x1,%ecx
  405938:	ba 01 00 00 00       	mov    $0x1,%edx
  40593d:	be 03 00 00 00       	mov    $0x3,%esi
  405942:	bf 01 00 00 00       	mov    $0x1,%edi
  405947:	e8 4a fd ff ff       	callq  405696 <_ZN2CK24get_input_shape_from_envEiiii>
  40594c:	48 89 85 e0 f9 ff ff 	mov    %rax,-0x620(%rbp)
  405953:	48 89 95 e8 f9 ff ff 	mov    %rdx,-0x618(%rbp)
  40595a:	bf 50 00 00 00       	mov    $0x50,%edi
  40595f:	e8 1c eb ff ff       	callq  404480 <_Znwm@plt>
  405964:	48 89 c3             	mov    %rax,%rbx
  405967:	8b b5 ec f9 ff ff    	mov    -0x614(%rbp),%esi
  40596d:	8b 8d e8 f9 ff ff    	mov    -0x618(%rbp),%ecx
  405973:	8b 95 e4 f9 ff ff    	mov    -0x61c(%rbp),%edx
  405979:	8b 85 e0 f9 ff ff    	mov    -0x620(%rbp),%eax
  40597f:	41 89 f0             	mov    %esi,%r8d
  405982:	89 c6                	mov    %eax,%esi
  405984:	48 89 df             	mov    %rbx,%rdi
  405987:	e8 64 ee ff ff       	callq  4047f0 <_ZN5caffe4BlobIfEC1Eiiii@plt>
  40598c:	48 89 9d b8 f9 ff ff 	mov    %rbx,-0x648(%rbp)
  405993:	48 8d 85 00 fa ff ff 	lea    -0x600(%rbp),%rax
  40599a:	48 89 c7             	mov    %rax,%rdi
  40599d:	e8 40 07 00 00       	callq  4060e2 <_ZNSt6vectorIPN5caffe4BlobIfEESaIS3_EEC1Ev>
  4059a2:	48 8d 95 b8 f9 ff ff 	lea    -0x648(%rbp),%rdx
  4059a9:	48 8d 85 00 fa ff ff 	lea    -0x600(%rbp),%rax
  4059b0:	48 89 d6             	mov    %rdx,%rsi
  4059b3:	48 89 c7             	mov    %rax,%rdi
  4059b6:	e8 87 07 00 00       	callq  406142 <_ZNSt6vectorIPN5caffe4BlobIfEESaIS3_EE9push_backERKS3_>
  4059bb:	c7 85 f0 f9 ff ff 01 	movl   $0x1,-0x610(%rbp)
  4059c2:	00 00 00 
  4059c5:	c7 85 f4 f9 ff ff 01 	movl   $0x1,-0x60c(%rbp)
  4059cc:	00 00 00 
  4059cf:	c7 85 f8 f9 ff ff 01 	movl   $0x1,-0x608(%rbp)
  4059d6:	00 00 00 
  4059d9:	c7 85 fc f9 ff ff 01 	movl   $0x1,-0x604(%rbp)
  4059e0:	00 00 00 
  4059e3:	8b 85 e0 f9 ff ff    	mov    -0x620(%rbp),%eax
  4059e9:	89 85 f0 f9 ff ff    	mov    %eax,-0x610(%rbp)
  4059ef:	be 01 00 00 00       	mov    $0x1,%esi
  4059f4:	bf 75 ba 40 00       	mov    $0x40ba75,%edi
  4059f9:	e8 6f fb ff ff       	callq  40556d <_ZN2CK8getenv_iEPKci>
  4059fe:	89 85 f4 f9 ff ff    	mov    %eax,-0x60c(%rbp)
  405a04:	c7 85 fc f9 ff ff 01 	movl   $0x1,-0x604(%rbp)
  405a0b:	00 00 00 
  405a0e:	c7 85 f8 f9 ff ff 01 	movl   $0x1,-0x608(%rbp)
  405a15:	00 00 00 
  405a18:	bf 50 00 00 00       	mov    $0x50,%edi
  405a1d:	e8 5e ea ff ff       	callq  404480 <_Znwm@plt>
  405a22:	48 89 c3             	mov    %rax,%rbx
  405a25:	8b b5 ec f9 ff ff    	mov    -0x614(%rbp),%esi
  405a2b:	8b 8d e8 f9 ff ff    	mov    -0x618(%rbp),%ecx
  405a31:	8b 95 e4 f9 ff ff    	mov    -0x61c(%rbp),%edx
  405a37:	8b 85 e0 f9 ff ff    	mov    -0x620(%rbp),%eax
  405a3d:	41 89 f0             	mov    %esi,%r8d
  405a40:	89 c6                	mov    %eax,%esi
  405a42:	48 89 df             	mov    %rbx,%rdi
  405a45:	e8 a6 ed ff ff       	callq  4047f0 <_ZN5caffe4BlobIfEC1Eiiii@plt>
  405a4a:	48 89 9d c0 f9 ff ff 	mov    %rbx,-0x640(%rbp)
  405a51:	48 8d 85 20 fa ff ff 	lea    -0x5e0(%rbp),%rax
  405a58:	48 89 c7             	mov    %rax,%rdi
  405a5b:	e8 82 06 00 00       	callq  4060e2 <_ZNSt6vectorIPN5caffe4BlobIfEESaIS3_EEC1Ev>
  405a60:	48 8d 95 c0 f9 ff ff 	lea    -0x640(%rbp),%rdx
  405a67:	48 8d 85 20 fa ff ff 	lea    -0x5e0(%rbp),%rax
  405a6e:	48 89 d6             	mov    %rdx,%rsi
  405a71:	48 89 c7             	mov    %rax,%rdi
  405a74:	e8 c9 06 00 00       	callq  406142 <_ZNSt6vectorIPN5caffe4BlobIfEESaIS3_EE9push_backERKS3_>
  405a79:	48 8d 85 60 fa ff ff 	lea    -0x5a0(%rbp),%rax
  405a80:	48 89 c7             	mov    %rax,%rdi
  405a83:	e8 78 e9 ff ff       	callq  404400 <_ZN5caffe14LayerParameterC1Ev@plt>
  405a88:	48 8d 85 60 fa ff ff 	lea    -0x5a0(%rbp),%rax
  405a8f:	48 89 c7             	mov    %rax,%rdi
  405a92:	e8 9b f7 ff ff       	callq  405232 <_ZN5caffe14LayerParameter27mutable_inner_product_paramEv>
  405a97:	48 89 85 c8 f9 ff ff 	mov    %rax,-0x638(%rbp)
  405a9e:	8b 85 f4 f9 ff ff    	mov    -0x60c(%rbp),%eax
  405aa4:	89 c2                	mov    %eax,%edx
  405aa6:	48 8b 85 c8 f9 ff ff 	mov    -0x638(%rbp),%rax
  405aad:	89 d6                	mov    %edx,%esi
  405aaf:	48 89 c7             	mov    %rax,%rdi
  405ab2:	e8 2d f8 ff ff       	callq  4052e4 <_ZN5caffe21InnerProductParameter14set_num_outputEj>
  405ab7:	48 8b 85 c8 f9 ff ff 	mov    -0x638(%rbp),%rax
  405abe:	be 01 00 00 00       	mov    $0x1,%esi
  405ac3:	48 89 c7             	mov    %rax,%rdi
  405ac6:	e8 7b f8 ff ff       	callq  405346 <_ZN5caffe21InnerProductParameter13set_bias_termEb>
  405acb:	48 8b 85 c8 f9 ff ff 	mov    -0x638(%rbp),%rax
  405ad2:	48 89 c7             	mov    %rax,%rdi
  405ad5:	e8 d2 f8 ff ff       	callq  4053ac <_ZN5caffe21InnerProductParameter21mutable_weight_fillerEv>
  405ada:	be 84 ba 40 00       	mov    $0x40ba84,%esi
  405adf:	48 89 c7             	mov    %rax,%rdi
  405ae2:	e8 2d f4 ff ff       	callq  404f14 <_ZN5caffe15FillerParameter8set_typeEPKc>
  405ae7:	be 01 00 00 00       	mov    $0x1,%esi
  405aec:	bf 8d ba 40 00       	mov    $0x40ba8d,%edi
  405af1:	e8 77 fa ff ff       	callq  40556d <_ZN2CK8getenv_iEPKci>
  405af6:	66 0f ef c9          	pxor   %xmm1,%xmm1
  405afa:	f3 0f 2a c8          	cvtsi2ss %eax,%xmm1
  405afe:	f3 0f 11 8d ac f9 ff 	movss  %xmm1,-0x654(%rbp)
  405b05:	ff 
  405b06:	48 8b 85 c8 f9 ff ff 	mov    -0x638(%rbp),%rax
  405b0d:	48 89 c7             	mov    %rax,%rdi
  405b10:	e8 97 f8 ff ff       	callq  4053ac <_ZN5caffe21InnerProductParameter21mutable_weight_fillerEv>
  405b15:	f3 0f 10 85 ac f9 ff 	movss  -0x654(%rbp),%xmm0
  405b1c:	ff 
  405b1d:	48 89 c7             	mov    %rax,%rdi
  405b20:	e8 f7 f4 ff ff       	callq  40501c <_ZN5caffe15FillerParameter9set_valueEf>
  405b25:	48 8b 85 c8 f9 ff ff 	mov    -0x638(%rbp),%rax
  405b2c:	48 89 c7             	mov    %rax,%rdi
  405b2f:	e8 20 f9 ff ff       	callq  405454 <_ZN5caffe21InnerProductParameter19mutable_bias_fillerEv>
  405b34:	be 84 ba 40 00       	mov    $0x40ba84,%esi
  405b39:	48 89 c7             	mov    %rax,%rdi
  405b3c:	e8 d3 f3 ff ff       	callq  404f14 <_ZN5caffe15FillerParameter8set_typeEPKc>
  405b41:	48 8b 85 c8 f9 ff ff 	mov    -0x638(%rbp),%rax
  405b48:	48 89 c7             	mov    %rax,%rdi
  405b4b:	e8 04 f9 ff ff       	callq  405454 <_ZN5caffe21InnerProductParameter19mutable_bias_fillerEv>
  405b50:	66 0f ef c0          	pxor   %xmm0,%xmm0
  405b54:	48 89 c7             	mov    %rax,%rdi
  405b57:	e8 28 f5 ff ff       	callq  405084 <_ZN5caffe15FillerParameter7set_minEf>
  405b5c:	be 00 00 00 00       	mov    $0x0,%esi
  405b61:	bf a7 ba 40 00       	mov    $0x40baa7,%edi
  405b66:	e8 02 fa ff ff       	callq  40556d <_ZN2CK8getenv_iEPKci>
  405b6b:	66 0f ef d2          	pxor   %xmm2,%xmm2
  405b6f:	f3 0f 2a d0          	cvtsi2ss %eax,%xmm2
  405b73:	f3 0f 11 95 ac f9 ff 	movss  %xmm2,-0x654(%rbp)
  405b7a:	ff 
  405b7b:	48 8b 85 c8 f9 ff ff 	mov    -0x638(%rbp),%rax
  405b82:	48 89 c7             	mov    %rax,%rdi
  405b85:	e8 ca f8 ff ff       	callq  405454 <_ZN5caffe21InnerProductParameter19mutable_bias_fillerEv>
  405b8a:	f3 0f 10 85 ac f9 ff 	movss  -0x654(%rbp),%xmm0
  405b91:	ff 
  405b92:	48 89 c7             	mov    %rax,%rdi
  405b95:	e8 52 f5 ff ff       	callq  4050ec <_ZN5caffe15FillerParameter7set_maxEf>
  405b9a:	48 8d 95 60 fa ff ff 	lea    -0x5a0(%rbp),%rdx
  405ba1:	48 8d 85 c0 fc ff ff 	lea    -0x340(%rbp),%rax
  405ba8:	48 89 d6             	mov    %rdx,%rsi
  405bab:	48 89 c7             	mov    %rax,%rdi
  405bae:	e8 fb 05 00 00       	callq  4061ae <_ZN5caffe17InnerProductLayerIfEC1ERKNS_14LayerParameterE>
  405bb3:	48 8d 85 c0 fc ff ff 	lea    -0x340(%rbp),%rax
  405bba:	48 89 85 40 fa ff ff 	mov    %rax,-0x5c0(%rbp)
  405bc1:	48 8d 85 00 fa ff ff 	lea    -0x600(%rbp),%rax
  405bc8:	48 89 85 48 fa ff ff 	mov    %rax,-0x5b8(%rbp)
  405bcf:	48 8d 85 20 fa ff ff 	lea    -0x5e0(%rbp),%rax
  405bd6:	48 89 85 50 fa ff ff 	mov    %rax,-0x5b0(%rbp)
  405bdd:	48 8d 85 40 fa ff ff 	lea    -0x5c0(%rbp),%rax
  405be4:	48 89 c7             	mov    %rax,%rdi
  405be7:	e8 8f 06 00 00       	callq  40627b <_ZN2CK13measure_setupIZNS_5Caffe7test_fcEvEUlvE_EEvOT_>
  405bec:	48 8d 85 e0 f9 ff ff 	lea    -0x620(%rbp),%rax
  405bf3:	48 89 c7             	mov    %rax,%rdi
  405bf6:	e8 b3 06 00 00       	callq  4062ae <_ZN2CK19get_random_raw_dataIfEEPT_RKNS_5ShapeE>
  405bfb:	48 89 85 d0 f9 ff ff 	mov    %rax,-0x630(%rbp)
  405c02:	48 8d 95 e0 f9 ff ff 	lea    -0x620(%rbp),%rdx
  405c09:	48 8b 85 d0 f9 ff ff 	mov    -0x630(%rbp),%rax
  405c10:	48 89 d6             	mov    %rdx,%rsi
  405c13:	48 89 c7             	mov    %rax,%rdi
  405c16:	e8 7a 07 00 00       	callq  406395 <_ZN2CK20print_input_raw_dataIfEEvPT_RKNS_5ShapeE>
  405c1b:	48 8d 85 e0 f9 ff ff 	lea    -0x620(%rbp),%rax
  405c22:	48 89 c7             	mov    %rax,%rdi
  405c25:	e8 98 f8 ff ff       	callq  4054c2 <_ZNK2CK5Shape10data_countEv>
  405c2a:	48 98                	cltq   
  405c2c:	48 8d 1c 85 00 00 00 	lea    0x0(,%rax,4),%rbx
  405c33:	00 
  405c34:	48 8b 85 b8 f9 ff ff 	mov    -0x648(%rbp),%rax
  405c3b:	48 89 c7             	mov    %rax,%rdi
  405c3e:	e8 8d e8 ff ff       	callq  4044d0 <_ZN5caffe4BlobIfE16mutable_cpu_dataEv@plt>
  405c43:	48 89 c1             	mov    %rax,%rcx
  405c46:	48 8b 85 d0 f9 ff ff 	mov    -0x630(%rbp),%rax
  405c4d:	48 89 da             	mov    %rbx,%rdx
  405c50:	48 89 c6             	mov    %rax,%rsi
  405c53:	48 89 cf             	mov    %rcx,%rdi
  405c56:	e8 d5 e7 ff ff       	callq  404430 <memcpy@plt>
  405c5b:	48 83 bd d0 f9 ff ff 	cmpq   $0x0,-0x630(%rbp)
  405c62:	00 
  405c63:	74 0f                	je     405c74 <_ZN2CK5Caffe7test_fcEv+0x363>
  405c65:	48 8b 85 d0 f9 ff ff 	mov    -0x630(%rbp),%rax
  405c6c:	48 89 c7             	mov    %rax,%rdi
  405c6f:	e8 fc e8 ff ff       	callq  404570 <_ZdaPv@plt>
  405c74:	48 8d 85 c0 fc ff ff 	lea    -0x340(%rbp),%rax
  405c7b:	48 89 85 40 fa ff ff 	mov    %rax,-0x5c0(%rbp)
  405c82:	48 8d 85 00 fa ff ff 	lea    -0x600(%rbp),%rax
  405c89:	48 89 85 48 fa ff ff 	mov    %rax,-0x5b8(%rbp)
  405c90:	48 8d 85 20 fa ff ff 	lea    -0x5e0(%rbp),%rax
  405c97:	48 89 85 50 fa ff ff 	mov    %rax,-0x5b0(%rbp)
  405c9e:	48 8d 85 40 fa ff ff 	lea    -0x5c0(%rbp),%rax
  405ca5:	48 89 c7             	mov    %rax,%rdi
  405ca8:	e8 18 09 00 00       	callq  4065c5 <_ZN2CK12measure_testIZNS_5Caffe7test_fcEvEUlvE0_EEvOT_>
  405cad:	48 8d 85 f0 f9 ff ff 	lea    -0x610(%rbp),%rax
  405cb4:	48 89 c7             	mov    %rax,%rdi
  405cb7:	e8 06 f8 ff ff       	callq  4054c2 <_ZNK2CK5Shape10data_countEv>
  405cbc:	48 98                	cltq   
  405cbe:	48 ba fe ff ff ff ff 	movabs $0x1ffffffffffffffe,%rdx
  405cc5:	ff ff 1f 
  405cc8:	48 39 d0             	cmp    %rdx,%rax
  405ccb:	77 0e                	ja     405cdb <_ZN2CK5Caffe7test_fcEv+0x3ca>
  405ccd:	48 c1 e0 02          	shl    $0x2,%rax
  405cd1:	48 89 c7             	mov    %rax,%rdi
  405cd4:	e8 b7 e8 ff ff       	callq  404590 <_Znam@plt>
  405cd9:	eb 05                	jmp    405ce0 <_ZN2CK5Caffe7test_fcEv+0x3cf>
  405cdb:	e8 40 ea ff ff       	callq  404720 <__cxa_throw_bad_array_new_length@plt>
  405ce0:	48 89 85 d8 f9 ff ff 	mov    %rax,-0x628(%rbp)
  405ce7:	48 8d 85 f0 f9 ff ff 	lea    -0x610(%rbp),%rax
  405cee:	48 89 c7             	mov    %rax,%rdi
  405cf1:	e8 cc f7 ff ff       	callq  4054c2 <_ZNK2CK5Shape10data_countEv>
  405cf6:	48 98                	cltq   
  405cf8:	48 8d 1c 85 00 00 00 	lea    0x0(,%rax,4),%rbx
  405cff:	00 
  405d00:	48 8b 85 c0 f9 ff ff 	mov    -0x640(%rbp),%rax
  405d07:	48 89 c7             	mov    %rax,%rdi
  405d0a:	e8 e9 08 00 00       	callq  4065f8 <_ZNK5caffe4BlobIfE4dataEv>
  405d0f:	48 89 c7             	mov    %rax,%rdi
  405d12:	e8 cf 09 00 00       	callq  4066e6 <_ZNK5boost10shared_ptrIN5caffe12SyncedMemoryEEptEv>
  405d17:	48 89 c7             	mov    %rax,%rdi
  405d1a:	e8 31 ea ff ff       	callq  404750 <_ZN5caffe12SyncedMemory8cpu_dataEv@plt>
  405d1f:	48 89 c1             	mov    %rax,%rcx
  405d22:	48 8b 85 d8 f9 ff ff 	mov    -0x628(%rbp),%rax
  405d29:	48 89 da             	mov    %rbx,%rdx
  405d2c:	48 89 ce             	mov    %rcx,%rsi
  405d2f:	48 89 c7             	mov    %rax,%rdi
  405d32:	e8 f9 e6 ff ff       	callq  404430 <memcpy@plt>
  405d37:	48 8d 95 f0 f9 ff ff 	lea    -0x610(%rbp),%rdx
  405d3e:	48 8b 85 d8 f9 ff ff 	mov    -0x628(%rbp),%rax
  405d45:	48 89 d6             	mov    %rdx,%rsi
  405d48:	48 89 c7             	mov    %rax,%rdi
  405d4b:	e8 d0 09 00 00       	callq  406720 <_ZN2CK21print_output_raw_dataIfEEvPT_RKNS_5ShapeE>
  405d50:	48 8d 95 f0 f9 ff ff 	lea    -0x610(%rbp),%rdx
  405d57:	48 8b 85 d8 f9 ff ff 	mov    -0x628(%rbp),%rax
  405d5e:	48 89 d6             	mov    %rdx,%rsi
  405d61:	48 89 c7             	mov    %rax,%rdi
  405d64:	e8 e4 09 00 00       	callq  40674d <_ZN2CK20dump_output_raw_dataIfEEvPT_RKNS_5ShapeE>
  405d69:	48 83 bd d8 f9 ff ff 	cmpq   $0x0,-0x628(%rbp)
  405d70:	00 
  405d71:	74 0f                	je     405d82 <_ZN2CK5Caffe7test_fcEv+0x471>
  405d73:	48 8b 85 d8 f9 ff ff 	mov    -0x628(%rbp),%rax
  405d7a:	48 89 c7             	mov    %rax,%rdi
  405d7d:	e8 ee e7 ff ff       	callq  404570 <_ZdaPv@plt>
  405d82:	48 8b 9d b8 f9 ff ff 	mov    -0x648(%rbp),%rbx
  405d89:	48 85 db             	test   %rbx,%rbx
  405d8c:	74 10                	je     405d9e <_ZN2CK5Caffe7test_fcEv+0x48d>
  405d8e:	48 89 df             	mov    %rbx,%rdi
  405d91:	e8 30 fb ff ff       	callq  4058c6 <_ZN5caffe4BlobIfED1Ev>
  405d96:	48 89 df             	mov    %rbx,%rdi
  405d99:	e8 42 e8 ff ff       	callq  4045e0 <_ZdlPv@plt>
  405d9e:	48 8b 9d c0 f9 ff ff 	mov    -0x640(%rbp),%rbx
  405da5:	48 85 db             	test   %rbx,%rbx
  405da8:	74 10                	je     405dba <_ZN2CK5Caffe7test_fcEv+0x4a9>
  405daa:	48 89 df             	mov    %rbx,%rdi
  405dad:	e8 14 fb ff ff       	callq  4058c6 <_ZN5caffe4BlobIfED1Ev>
  405db2:	48 89 df             	mov    %rbx,%rdi
  405db5:	e8 26 e8 ff ff       	callq  4045e0 <_ZdlPv@plt>
  405dba:	e8 36 fa ff ff       	callq  4057f5 <_ZN2CK11finish_testEv>
  405dbf:	48 8d 85 c0 fc ff ff 	lea    -0x340(%rbp),%rax
  405dc6:	48 89 c7             	mov    %rax,%rdi
  405dc9:	e8 68 57 00 00       	callq  40b536 <_ZN5caffe17InnerProductLayerIfED1Ev>
  405dce:	48 8d 85 60 fa ff ff 	lea    -0x5a0(%rbp),%rax
  405dd5:	48 89 c7             	mov    %rax,%rdi
  405dd8:	e8 33 eb ff ff       	callq  404910 <_ZN5caffe14LayerParameterD1Ev@plt>
  405ddd:	48 8d 85 20 fa ff ff 	lea    -0x5e0(%rbp),%rax
  405de4:	48 89 c7             	mov    %rax,%rdi
  405de7:	e8 12 03 00 00       	callq  4060fe <_ZNSt6vectorIPN5caffe4BlobIfEESaIS3_EED1Ev>
  405dec:	48 8d 85 00 fa ff ff 	lea    -0x600(%rbp),%rax
  405df3:	48 89 c7             	mov    %rax,%rdi
  405df6:	e8 03 03 00 00       	callq  4060fe <_ZNSt6vectorIPN5caffe4BlobIfEESaIS3_EED1Ev>
  405dfb:	90                   	nop
  405dfc:	48 8b 45 e8          	mov    -0x18(%rbp),%rax
  405e00:	64 48 33 04 25 28 00 	xor    %fs:0x28,%rax
  405e07:	00 00 
  405e09:	0f 84 86 00 00 00    	je     405e95 <_ZN2CK5Caffe7test_fcEv+0x584>
  405e0f:	eb 7f                	jmp    405e90 <_ZN2CK5Caffe7test_fcEv+0x57f>
  405e11:	49 89 c4             	mov    %rax,%r12
  405e14:	48 89 df             	mov    %rbx,%rdi
  405e17:	e8 c4 e7 ff ff       	callq  4045e0 <_ZdlPv@plt>
  405e1c:	4c 89 e0             	mov    %r12,%rax
  405e1f:	48 89 c7             	mov    %rax,%rdi
  405e22:	e8 49 e8 ff ff       	callq  404670 <_Unwind_Resume@plt>
  405e27:	49 89 c4             	mov    %rax,%r12
  405e2a:	48 89 df             	mov    %rbx,%rdi
  405e2d:	e8 ae e7 ff ff       	callq  4045e0 <_ZdlPv@plt>
  405e32:	4c 89 e3             	mov    %r12,%rbx
  405e35:	eb 3f                	jmp    405e76 <_ZN2CK5Caffe7test_fcEv+0x565>
  405e37:	48 89 c3             	mov    %rax,%rbx
  405e3a:	48 8d 85 c0 fc ff ff 	lea    -0x340(%rbp),%rax
  405e41:	48 89 c7             	mov    %rax,%rdi
  405e44:	e8 ed 56 00 00       	callq  40b536 <_ZN5caffe17InnerProductLayerIfED1Ev>
  405e49:	eb 03                	jmp    405e4e <_ZN2CK5Caffe7test_fcEv+0x53d>
  405e4b:	48 89 c3             	mov    %rax,%rbx
  405e4e:	48 8d 85 60 fa ff ff 	lea    -0x5a0(%rbp),%rax
  405e55:	48 89 c7             	mov    %rax,%rdi
  405e58:	e8 b3 ea ff ff       	callq  404910 <_ZN5caffe14LayerParameterD1Ev@plt>
  405e5d:	eb 03                	jmp    405e62 <_ZN2CK5Caffe7test_fcEv+0x551>
  405e5f:	48 89 c3             	mov    %rax,%rbx
  405e62:	48 8d 85 20 fa ff ff 	lea    -0x5e0(%rbp),%rax
  405e69:	48 89 c7             	mov    %rax,%rdi
  405e6c:	e8 8d 02 00 00       	callq  4060fe <_ZNSt6vectorIPN5caffe4BlobIfEESaIS3_EED1Ev>
  405e71:	eb 03                	jmp    405e76 <_ZN2CK5Caffe7test_fcEv+0x565>
  405e73:	48 89 c3             	mov    %rax,%rbx
  405e76:	48 8d 85 00 fa ff ff 	lea    -0x600(%rbp),%rax
  405e7d:	48 89 c7             	mov    %rax,%rdi
  405e80:	e8 79 02 00 00       	callq  4060fe <_ZNSt6vectorIPN5caffe4BlobIfEESaIS3_EED1Ev>
  405e85:	48 89 d8             	mov    %rbx,%rax
  405e88:	48 89 c7             	mov    %rax,%rdi
  405e8b:	e8 e0 e7 ff ff       	callq  404670 <_Unwind_Resume@plt>
  405e90:	e8 6b e6 ff ff       	callq  404500 <__stack_chk_fail@plt>
  405e95:	48 81 c4 50 06 00 00 	add    $0x650,%rsp
  405e9c:	5b                   	pop    %rbx
  405e9d:	41 5c                	pop    %r12
  405e9f:	5d                   	pop    %rbp
  405ea0:	c3                   	retq   
  405ea1:	90                   	nop

0000000000405ea2 <_ZNK6google8protobuf13RepeatedFieldIfE4sizeEv>:
  405ea2:	55                   	push   %rbp
  405ea3:	48 89 e5             	mov    %rsp,%rbp
  405ea6:	48 89 7d f8          	mov    %rdi,-0x8(%rbp)
  405eaa:	48 8b 45 f8          	mov    -0x8(%rbp),%rax
  405eae:	8b 00                	mov    (%rax),%eax
  405eb0:	5d                   	pop    %rbp
  405eb1:	c3                   	retq   

0000000000405eb2 <_ZNK6google8protobuf13RepeatedFieldIfE3GetEi>:
  405eb2:	55                   	push   %rbp
  405eb3:	48 89 e5             	mov    %rsp,%rbp
  405eb6:	41 54                	push   %r12
  405eb8:	53                   	push   %rbx
  405eb9:	48 81 ec a0 00 00 00 	sub    $0xa0,%rsp
  405ec0:	48 89 bd 58 ff ff ff 	mov    %rdi,-0xa8(%rbp)
  405ec7:	89 b5 54 ff ff ff    	mov    %esi,-0xac(%rbp)
  405ecd:	64 48 8b 04 25 28 00 	mov    %fs:0x28,%rax
  405ed4:	00 00 
  405ed6:	48 89 45 e8          	mov    %rax,-0x18(%rbp)
  405eda:	31 c0                	xor    %eax,%eax
  405edc:	bb 00 00 00 00       	mov    $0x0,%ebx
  405ee1:	41 bc 00 00 00 00    	mov    $0x0,%r12d
  405ee7:	83 bd 54 ff ff ff 00 	cmpl   $0x0,-0xac(%rbp)
  405eee:	79 52                	jns    405f42 <_ZNK6google8protobuf13RepeatedFieldIfE3GetEi+0x90>
  405ef0:	48 8d 85 70 ff ff ff 	lea    -0x90(%rbp),%rax
  405ef7:	b9 43 04 00 00       	mov    $0x443,%ecx
  405efc:	ba c0 ba 40 00       	mov    $0x40bac0,%edx
  405f01:	be 03 00 00 00       	mov    $0x3,%esi
  405f06:	48 89 c7             	mov    %rax,%rdi
  405f09:	e8 02 e7 ff ff       	callq  404610 <_ZN6google8protobuf8internal10LogMessageC1ENS0_8LogLevelEPKci@plt>
  405f0e:	bb 01 00 00 00       	mov    $0x1,%ebx
  405f13:	48 8d 85 70 ff ff ff 	lea    -0x90(%rbp),%rax
  405f1a:	be 30 bb 40 00       	mov    $0x40bb30,%esi
  405f1f:	48 89 c7             	mov    %rax,%rdi
  405f22:	e8 f9 e9 ff ff       	callq  404920 <_ZN6google8protobuf8internal10LogMessagelsEPKc@plt>
  405f27:	48 89 c2             	mov    %rax,%rdx
  405f2a:	41 bc 01 00 00 00    	mov    $0x1,%r12d
  405f30:	48 8d 85 6e ff ff ff 	lea    -0x92(%rbp),%rax
  405f37:	48 89 d6             	mov    %rdx,%rsi
  405f3a:	48 89 c7             	mov    %rax,%rdi
  405f3d:	e8 be e7 ff ff       	callq  404700 <_ZN6google8protobuf8internal11LogFinisheraSERNS1_10LogMessageE@plt>
  405f42:	45 84 e4             	test   %r12b,%r12b
  405f45:	84 db                	test   %bl,%bl
  405f47:	74 12                	je     405f5b <_ZNK6google8protobuf13RepeatedFieldIfE3GetEi+0xa9>
  405f49:	90                   	nop
  405f4a:	48 8d 85 70 ff ff ff 	lea    -0x90(%rbp),%rax
  405f51:	48 89 c7             	mov    %rax,%rdi
  405f54:	e8 27 e8 ff ff       	callq  404780 <_ZN6google8protobuf8internal10LogMessageD1Ev@plt>
  405f59:	eb 01                	jmp    405f5c <_ZNK6google8protobuf13RepeatedFieldIfE3GetEi+0xaa>
  405f5b:	90                   	nop
  405f5c:	48 8b 85 58 ff ff ff 	mov    -0xa8(%rbp),%rax
  405f63:	8b 00                	mov    (%rax),%eax
  405f65:	bb 00 00 00 00       	mov    $0x0,%ebx
  405f6a:	41 bc 00 00 00 00    	mov    $0x0,%r12d
  405f70:	3b 85 54 ff ff ff    	cmp    -0xac(%rbp),%eax
  405f76:	7f 4c                	jg     405fc4 <_ZNK6google8protobuf13RepeatedFieldIfE3GetEi+0x112>
  405f78:	48 8d 45 b0          	lea    -0x50(%rbp),%rax
  405f7c:	b9 44 04 00 00       	mov    $0x444,%ecx
  405f81:	ba c0 ba 40 00       	mov    $0x40bac0,%edx
  405f86:	be 03 00 00 00       	mov    $0x3,%esi
  405f8b:	48 89 c7             	mov    %rax,%rdi
  405f8e:	e8 7d e6 ff ff       	callq  404610 <_ZN6google8protobuf8internal10LogMessageC1ENS0_8LogLevelEPKci@plt>
  405f93:	bb 01 00 00 00       	mov    $0x1,%ebx
  405f98:	48 8d 45 b0          	lea    -0x50(%rbp),%rax
  405f9c:	be 50 bb 40 00       	mov    $0x40bb50,%esi
  405fa1:	48 89 c7             	mov    %rax,%rdi
  405fa4:	e8 77 e9 ff ff       	callq  404920 <_ZN6google8protobuf8internal10LogMessagelsEPKc@plt>
  405fa9:	48 89 c2             	mov    %rax,%rdx
  405fac:	41 bc 01 00 00 00    	mov    $0x1,%r12d
  405fb2:	48 8d 85 6f ff ff ff 	lea    -0x91(%rbp),%rax
  405fb9:	48 89 d6             	mov    %rdx,%rsi
  405fbc:	48 89 c7             	mov    %rax,%rdi
  405fbf:	e8 3c e7 ff ff       	callq  404700 <_ZN6google8protobuf8internal11LogFinisheraSERNS1_10LogMessageE@plt>
  405fc4:	45 84 e4             	test   %r12b,%r12b
  405fc7:	84 db                	test   %bl,%bl
  405fc9:	74 0f                	je     405fda <_ZNK6google8protobuf13RepeatedFieldIfE3GetEi+0x128>
  405fcb:	90                   	nop
  405fcc:	48 8d 45 b0          	lea    -0x50(%rbp),%rax
  405fd0:	48 89 c7             	mov    %rax,%rdi
  405fd3:	e8 a8 e7 ff ff       	callq  404780 <_ZN6google8protobuf8internal10LogMessageD1Ev@plt>
  405fd8:	eb 01                	jmp    405fdb <_ZNK6google8protobuf13RepeatedFieldIfE3GetEi+0x129>
  405fda:	90                   	nop
  405fdb:	48 8b 85 58 ff ff ff 	mov    -0xa8(%rbp),%rax
  405fe2:	48 8b 40 08          	mov    0x8(%rax),%rax
  405fe6:	8b 95 54 ff ff ff    	mov    -0xac(%rbp),%edx
  405fec:	48 63 d2             	movslq %edx,%rdx
  405fef:	48 c1 e2 02          	shl    $0x2,%rdx
  405ff3:	48 01 d0             	add    %rdx,%rax
  405ff6:	48 83 c0 08          	add    $0x8,%rax
  405ffa:	48 8b 4d e8          	mov    -0x18(%rbp),%rcx
  405ffe:	64 48 33 0c 25 28 00 	xor    %fs:0x28,%rcx
  406005:	00 00 
  406007:	74 54                	je     40605d <_ZNK6google8protobuf13RepeatedFieldIfE3GetEi+0x1ab>
  406009:	eb 4d                	jmp    406058 <_ZNK6google8protobuf13RepeatedFieldIfE3GetEi+0x1a6>
  40600b:	45 84 e4             	test   %r12b,%r12b
  40600e:	49 89 c4             	mov    %rax,%r12
  406011:	84 db                	test   %bl,%bl
  406013:	74 12                	je     406027 <_ZNK6google8protobuf13RepeatedFieldIfE3GetEi+0x175>
  406015:	90                   	nop
  406016:	48 8d 85 70 ff ff ff 	lea    -0x90(%rbp),%rax
  40601d:	48 89 c7             	mov    %rax,%rdi
  406020:	e8 5b e7 ff ff       	callq  404780 <_ZN6google8protobuf8internal10LogMessageD1Ev@plt>
  406025:	eb 01                	jmp    406028 <_ZNK6google8protobuf13RepeatedFieldIfE3GetEi+0x176>
  406027:	90                   	nop
  406028:	4c 89 e0             	mov    %r12,%rax
  40602b:	48 89 c7             	mov    %rax,%rdi
  40602e:	e8 3d e6 ff ff       	callq  404670 <_Unwind_Resume@plt>
  406033:	45 84 e4             	test   %r12b,%r12b
  406036:	49 89 c4             	mov    %rax,%r12
  406039:	84 db                	test   %bl,%bl
  40603b:	74 0f                	je     40604c <_ZNK6google8protobuf13RepeatedFieldIfE3GetEi+0x19a>
  40603d:	90                   	nop
  40603e:	48 8d 45 b0          	lea    -0x50(%rbp),%rax
  406042:	48 89 c7             	mov    %rax,%rdi
  406045:	e8 36 e7 ff ff       	callq  404780 <_ZN6google8protobuf8internal10LogMessageD1Ev@plt>
  40604a:	eb 01                	jmp    40604d <_ZNK6google8protobuf13RepeatedFieldIfE3GetEi+0x19b>
  40604c:	90                   	nop
  40604d:	4c 89 e0             	mov    %r12,%rax
  406050:	48 89 c7             	mov    %rax,%rdi
  406053:	e8 18 e6 ff ff       	callq  404670 <_Unwind_Resume@plt>
  406058:	e8 a3 e4 ff ff       	callq  404500 <__stack_chk_fail@plt>
  40605d:	48 81 c4 a0 00 00 00 	add    $0xa0,%rsp
  406064:	5b                   	pop    %rbx
  406065:	41 5c                	pop    %r12
  406067:	5d                   	pop    %rbp
  406068:	c3                   	retq   
  406069:	90                   	nop

000000000040606a <_ZNK6google8protobuf16RepeatedPtrFieldIN5caffe9BlobProtoEE4sizeEv>:
  40606a:	55                   	push   %rbp
  40606b:	48 89 e5             	mov    %rsp,%rbp
  40606e:	48 83 ec 10          	sub    $0x10,%rsp
  406072:	48 89 7d f8          	mov    %rdi,-0x8(%rbp)
  406076:	48 8b 45 f8          	mov    -0x8(%rbp),%rax
  40607a:	48 89 c7             	mov    %rax,%rdi
  40607d:	e8 46 ee ff ff       	callq  404ec8 <_ZNK6google8protobuf8internal20RepeatedPtrFieldBase4sizeEv>
  406082:	c9                   	leaveq 
  406083:	c3                   	retq   

0000000000406084 <_ZN6google8protobuf16RepeatedPtrFieldIN5caffe9BlobProtoEE5ClearEv>:
  406084:	55                   	push   %rbp
  406085:	48 89 e5             	mov    %rsp,%rbp
  406088:	48 83 ec 10          	sub    $0x10,%rsp
  40608c:	48 89 7d f8          	mov    %rdi,-0x8(%rbp)
  406090:	48 8b 45 f8          	mov    -0x8(%rbp),%rax
  406094:	48 89 c7             	mov    %rax,%rdi
  406097:	e8 aa 07 00 00       	callq  406846 <_ZN6google8protobuf8internal20RepeatedPtrFieldBase5ClearINS0_16RepeatedPtrFieldIN5caffe9BlobProtoEE11TypeHandlerEEEvv>
  40609c:	90                   	nop
  40609d:	c9                   	leaveq 
  40609e:	c3                   	retq   
  40609f:	90                   	nop

00000000004060a0 <_ZNK6google8protobuf16RepeatedPtrFieldIN5caffe9BlobProtoEE3GetEi>:
  4060a0:	55                   	push   %rbp
  4060a1:	48 89 e5             	mov    %rsp,%rbp
  4060a4:	48 83 ec 10          	sub    $0x10,%rsp
  4060a8:	48 89 7d f8          	mov    %rdi,-0x8(%rbp)
  4060ac:	89 75 f4             	mov    %esi,-0xc(%rbp)
  4060af:	48 8b 45 f8          	mov    -0x8(%rbp),%rax
  4060b3:	8b 55 f4             	mov    -0xc(%rbp),%edx
  4060b6:	89 d6                	mov    %edx,%esi
  4060b8:	48 89 c7             	mov    %rax,%rdi
  4060bb:	e8 c8 08 00 00       	callq  406988 <_ZNK6google8protobuf8internal20RepeatedPtrFieldBase3GetINS0_16RepeatedPtrFieldIN5caffe9BlobProtoEE11TypeHandlerEEERKNT_4TypeEi>
  4060c0:	c9                   	leaveq 
  4060c1:	c3                   	retq   

00000000004060c2 <_ZN6google8protobuf16RepeatedPtrFieldIN5caffe9BlobProtoEE3AddEv>:
  4060c2:	55                   	push   %rbp
  4060c3:	48 89 e5             	mov    %rsp,%rbp
  4060c6:	48 83 ec 10          	sub    $0x10,%rsp
  4060ca:	48 89 7d f8          	mov    %rdi,-0x8(%rbp)
  4060ce:	48 8b 45 f8          	mov    -0x8(%rbp),%rax
  4060d2:	be 00 00 00 00       	mov    $0x0,%esi
  4060d7:	48 89 c7             	mov    %rax,%rdi
  4060da:	e8 63 0a 00 00       	callq  406b42 <_ZN6google8protobuf8internal20RepeatedPtrFieldBase3AddINS0_16RepeatedPtrFieldIN5caffe9BlobProtoEE11TypeHandlerEEEPNT_4TypeESB_>
  4060df:	c9                   	leaveq 
  4060e0:	c3                   	retq   
  4060e1:	90                   	nop

00000000004060e2 <_ZNSt6vectorIPN5caffe4BlobIfEESaIS3_EEC1Ev>:
  4060e2:	55                   	push   %rbp
  4060e3:	48 89 e5             	mov    %rsp,%rbp
  4060e6:	48 83 ec 10          	sub    $0x10,%rsp
  4060ea:	48 89 7d f8          	mov    %rdi,-0x8(%rbp)
  4060ee:	48 8b 45 f8          	mov    -0x8(%rbp),%rax
  4060f2:	48 89 c7             	mov    %rax,%rdi
  4060f5:	e8 50 0b 00 00       	callq  406c4a <_ZNSt12_Vector_baseIPN5caffe4BlobIfEESaIS3_EEC1Ev>
  4060fa:	90                   	nop
  4060fb:	c9                   	leaveq 
  4060fc:	c3                   	retq   
  4060fd:	90                   	nop

00000000004060fe <_ZNSt6vectorIPN5caffe4BlobIfEESaIS3_EED1Ev>:
  4060fe:	55                   	push   %rbp
  4060ff:	48 89 e5             	mov    %rsp,%rbp
  406102:	48 83 ec 10          	sub    $0x10,%rsp
  406106:	48 89 7d f8          	mov    %rdi,-0x8(%rbp)
  40610a:	48 8b 45 f8          	mov    -0x8(%rbp),%rax
  40610e:	48 89 c7             	mov    %rax,%rdi
  406111:	e8 a0 0b 00 00       	callq  406cb6 <_ZNSt12_Vector_baseIPN5caffe4BlobIfEESaIS3_EE19_M_get_Tp_allocatorEv>
  406116:	48 89 c2             	mov    %rax,%rdx
  406119:	48 8b 45 f8          	mov    -0x8(%rbp),%rax
  40611d:	48 8b 48 08          	mov    0x8(%rax),%rcx
  406121:	48 8b 45 f8          	mov    -0x8(%rbp),%rax
  406125:	48 8b 00             	mov    (%rax),%rax
  406128:	48 89 ce             	mov    %rcx,%rsi
  40612b:	48 89 c7             	mov    %rax,%rdi
  40612e:	e8 91 0b 00 00       	callq  406cc4 <_ZSt8_DestroyIPPN5caffe4BlobIfEES3_EvT_S5_RSaIT0_E>
  406133:	48 8b 45 f8          	mov    -0x8(%rbp),%rax
  406137:	48 89 c7             	mov    %rax,%rdi
  40613a:	e8 27 0b 00 00       	callq  406c66 <_ZNSt12_Vector_baseIPN5caffe4BlobIfEESaIS3_EED1Ev>
  40613f:	90                   	nop
  406140:	c9                   	leaveq 
  406141:	c3                   	retq   

0000000000406142 <_ZNSt6vectorIPN5caffe4BlobIfEESaIS3_EE9push_backERKS3_>:
  406142:	55                   	push   %rbp
  406143:	48 89 e5             	mov    %rsp,%rbp
  406146:	48 83 ec 10          	sub    $0x10,%rsp
  40614a:	48 89 7d f8          	mov    %rdi,-0x8(%rbp)
  40614e:	48 89 75 f0          	mov    %rsi,-0x10(%rbp)
  406152:	48 8b 45 f8          	mov    -0x8(%rbp),%rax
  406156:	48 8b 50 08          	mov    0x8(%rax),%rdx
  40615a:	48 8b 45 f8          	mov    -0x8(%rbp),%rax
  40615e:	48 8b 40 10          	mov    0x10(%rax),%rax
  406162:	48 39 c2             	cmp    %rax,%rdx
  406165:	74 31                	je     406198 <_ZNSt6vectorIPN5caffe4BlobIfEESaIS3_EE9push_backERKS3_+0x56>
  406167:	48 8b 45 f8          	mov    -0x8(%rbp),%rax
  40616b:	48 8b 48 08          	mov    0x8(%rax),%rcx
  40616f:	48 8b 45 f8          	mov    -0x8(%rbp),%rax
  406173:	48 8b 55 f0          	mov    -0x10(%rbp),%rdx
  406177:	48 89 ce             	mov    %rcx,%rsi
  40617a:	48 89 c7             	mov    %rax,%rdi
  40617d:	e8 7a 0b 00 00       	callq  406cfc <_ZNSt16allocator_traitsISaIPN5caffe4BlobIfEEEE9constructIS3_JRKS3_EEEvRS4_PT_DpOT0_>
  406182:	48 8b 45 f8          	mov    -0x8(%rbp),%rax
  406186:	48 8b 40 08          	mov    0x8(%rax),%rax
  40618a:	48 8d 50 08          	lea    0x8(%rax),%rdx
  40618e:	48 8b 45 f8          	mov    -0x8(%rbp),%rax
  406192:	48 89 50 08          	mov    %rdx,0x8(%rax)
  406196:	eb 13                	jmp    4061ab <_ZNSt6vectorIPN5caffe4BlobIfEESaIS3_EE9push_backERKS3_+0x69>
  406198:	48 8b 55 f0          	mov    -0x10(%rbp),%rdx
  40619c:	48 8b 45 f8          	mov    -0x8(%rbp),%rax
  4061a0:	48 89 d6             	mov    %rdx,%rsi
  4061a3:	48 89 c7             	mov    %rax,%rdi
  4061a6:	e8 8b 0b 00 00       	callq  406d36 <_ZNSt6vectorIPN5caffe4BlobIfEESaIS3_EE19_M_emplace_back_auxIJRKS3_EEEvDpOT_>
  4061ab:	90                   	nop
  4061ac:	c9                   	leaveq 
  4061ad:	c3                   	retq   

00000000004061ae <_ZN5caffe17InnerProductLayerIfEC1ERKNS_14LayerParameterE>:
  4061ae:	55                   	push   %rbp
  4061af:	48 89 e5             	mov    %rsp,%rbp
  4061b2:	48 83 ec 10          	sub    $0x10,%rsp
  4061b6:	48 89 7d f8          	mov    %rdi,-0x8(%rbp)
  4061ba:	48 89 75 f0          	mov    %rsi,-0x10(%rbp)
  4061be:	48 8b 45 f8          	mov    -0x8(%rbp),%rax
  4061c2:	48 8b 55 f0          	mov    -0x10(%rbp),%rdx
  4061c6:	48 89 d6             	mov    %rdx,%rsi
  4061c9:	48 89 c7             	mov    %rax,%rdi
  4061cc:	e8 4f 0d 00 00       	callq  406f20 <_ZN5caffe5LayerIfEC1ERKNS_14LayerParameterE>
  4061d1:	ba d8 c2 40 00       	mov    $0x40c2d8,%edx
  4061d6:	48 8b 45 f8          	mov    -0x8(%rbp),%rax
  4061da:	48 89 10             	mov    %rdx,(%rax)
  4061dd:	48 8b 45 f8          	mov    -0x8(%rbp),%rax
  4061e1:	48 05 d0 02 00 00    	add    $0x2d0,%rax
  4061e7:	48 89 c7             	mov    %rax,%rdi
  4061ea:	e8 91 0f 00 00       	callq  407180 <_ZN5caffe4BlobIfEC1Ev>
  4061ef:	90                   	nop
  4061f0:	c9                   	leaveq 
  4061f1:	c3                   	retq   

00000000004061f2 <_ZN5caffe5LayerIfE5SetUpERKSt6vectorIPNS_4BlobIfEESaIS5_EES9_>:
  4061f2:	55                   	push   %rbp
  4061f3:	48 89 e5             	mov    %rsp,%rbp
  4061f6:	48 83 ec 20          	sub    $0x20,%rsp
  4061fa:	48 89 7d f8          	mov    %rdi,-0x8(%rbp)
  4061fe:	48 89 75 f0          	mov    %rsi,-0x10(%rbp)
  406202:	48 89 55 e8          	mov    %rdx,-0x18(%rbp)
  406206:	48 8b 45 f8          	mov    -0x8(%rbp),%rax
  40620a:	48 8b 00             	mov    (%rax),%rax
  40620d:	48 05 98 00 00 00    	add    $0x98,%rax
  406213:	48 8b 00             	mov    (%rax),%rax
  406216:	48 8b 55 e8          	mov    -0x18(%rbp),%rdx
  40621a:	48 8b 75 f0          	mov    -0x10(%rbp),%rsi
  40621e:	48 8b 4d f8          	mov    -0x8(%rbp),%rcx
  406222:	48 89 cf             	mov    %rcx,%rdi
  406225:	ff d0                	callq  *%rax
  406227:	48 8b 45 f8          	mov    -0x8(%rbp),%rax
  40622b:	48 8b 00             	mov    (%rax),%rax
  40622e:	48 83 c0 10          	add    $0x10,%rax
  406232:	48 8b 00             	mov    (%rax),%rax
  406235:	48 8b 55 e8          	mov    -0x18(%rbp),%rdx
  406239:	48 8b 75 f0          	mov    -0x10(%rbp),%rsi
  40623d:	48 8b 4d f8          	mov    -0x8(%rbp),%rcx
  406241:	48 89 cf             	mov    %rcx,%rdi
  406244:	ff d0                	callq  *%rax
  406246:	48 8b 45 f8          	mov    -0x8(%rbp),%rax
  40624a:	48 8b 00             	mov    (%rax),%rax
  40624d:	48 83 c0 18          	add    $0x18,%rax
  406251:	48 8b 00             	mov    (%rax),%rax
  406254:	48 8b 55 e8          	mov    -0x18(%rbp),%rdx
  406258:	48 8b 75 f0          	mov    -0x10(%rbp),%rsi
  40625c:	48 8b 4d f8          	mov    -0x8(%rbp),%rcx
  406260:	48 89 cf             	mov    %rcx,%rdi
  406263:	ff d0                	callq  *%rax
  406265:	48 8b 55 e8          	mov    -0x18(%rbp),%rdx
  406269:	48 8b 45 f8          	mov    -0x8(%rbp),%rax
  40626d:	48 89 d6             	mov    %rdx,%rsi
  406270:	48 89 c7             	mov    %rax,%rdi
  406273:	e8 36 18 00 00       	callq  407aae <_ZN5caffe5LayerIfE14SetLossWeightsERKSt6vectorIPNS_4BlobIfEESaIS5_EE>
  406278:	90                   	nop
  406279:	c9                   	leaveq 
  40627a:	c3                   	retq   

000000000040627b <_ZN2CK13measure_setupIZNS_5Caffe7test_fcEvEUlvE_EEvOT_>:
  40627b:	55                   	push   %rbp
  40627c:	48 89 e5             	mov    %rsp,%rbp
  40627f:	48 83 ec 10          	sub    $0x10,%rsp
  406283:	48 89 7d f8          	mov    %rdi,-0x8(%rbp)
  406287:	48 8b 45 f8          	mov    -0x8(%rbp),%rax
  40628b:	be 00 00 00 00       	mov    $0x0,%esi
  406290:	48 89 c7             	mov    %rax,%rdi
  406293:	e8 fe 19 00 00       	callq  407c96 <_ZN2CK11do_measuredIRZNS_5Caffe7test_fcEvEUlvE_EEvOT_i>
  406298:	bf 00 00 00 00       	mov    $0x0,%edi
  40629d:	e8 1e e3 ff ff       	callq  4045c0 <xopenme_get_timer@plt>
  4062a2:	f2 0f 5a c0          	cvtsd2ss %xmm0,%xmm0
  4062a6:	e8 ab e7 ff ff       	callq  404a56 <_ZN2CK16store_setup_timeEf>
  4062ab:	90                   	nop
  4062ac:	c9                   	leaveq 
  4062ad:	c3                   	retq   

00000000004062ae <_ZN2CK19get_random_raw_dataIfEEPT_RKNS_5ShapeE>:
  4062ae:	55                   	push   %rbp
  4062af:	48 89 e5             	mov    %rsp,%rbp
  4062b2:	53                   	push   %rbx
  4062b3:	48 83 ec 38          	sub    $0x38,%rsp
  4062b7:	48 89 7d c8          	mov    %rdi,-0x38(%rbp)
  4062bb:	ba 20 00 00 00       	mov    $0x20,%edx
  4062c0:	be 7a bb 40 00       	mov    $0x40bb7a,%esi
  4062c5:	bf 09 00 00 00       	mov    $0x9,%edi
  4062ca:	e8 d9 f2 ff ff       	callq  4055a8 <_ZN2CK13store_value_iEiPKci>
  4062cf:	c7 45 dc 40 42 0f 00 	movl   $0xf4240,-0x24(%rbp)
  4062d6:	c7 45 e0 81 84 1e 00 	movl   $0x1e8481,-0x20(%rbp)
  4062dd:	48 8b 45 c8          	mov    -0x38(%rbp),%rax
  4062e1:	48 89 c7             	mov    %rax,%rdi
  4062e4:	e8 d9 f1 ff ff       	callq  4054c2 <_ZNK2CK5Shape10data_countEv>
  4062e9:	89 45 e4             	mov    %eax,-0x1c(%rbp)
  4062ec:	8b 45 e4             	mov    -0x1c(%rbp),%eax
  4062ef:	48 63 d0             	movslq %eax,%rdx
  4062f2:	48 b8 fe ff ff ff ff 	movabs $0x1ffffffffffffffe,%rax
  4062f9:	ff ff 1f 
  4062fc:	48 39 c2             	cmp    %rax,%rdx
  4062ff:	77 1e                	ja     40631f <_ZN2CK19get_random_raw_dataIfEEPT_RKNS_5ShapeE+0x71>
  406301:	8b 45 e4             	mov    -0x1c(%rbp),%eax
  406304:	48 98                	cltq   
  406306:	48 c1 e0 02          	shl    $0x2,%rax
  40630a:	48 89 c7             	mov    %rax,%rdi
  40630d:	e8 7e e2 ff ff       	callq  404590 <_Znam@plt>
  406312:	48 89 45 e8          	mov    %rax,-0x18(%rbp)
  406316:	c7 45 d8 00 00 00 00 	movl   $0x0,-0x28(%rbp)
  40631d:	eb 05                	jmp    406324 <_ZN2CK19get_random_raw_dataIfEEPT_RKNS_5ShapeE+0x76>
  40631f:	e8 fc e3 ff ff       	callq  404720 <__cxa_throw_bad_array_new_length@plt>
  406324:	8b 45 d8             	mov    -0x28(%rbp),%eax
  406327:	3b 45 e4             	cmp    -0x1c(%rbp),%eax
  40632a:	7d 5e                	jge    40638a <_ZN2CK19get_random_raw_dataIfEEPT_RKNS_5ShapeE+0xdc>
  40632c:	8b 45 d8             	mov    -0x28(%rbp),%eax
  40632f:	48 98                	cltq   
  406331:	48 8d 14 85 00 00 00 	lea    0x0(,%rax,4),%rdx
  406338:	00 
  406339:	48 8b 45 e8          	mov    -0x18(%rbp),%rax
  40633d:	48 8d 1c 02          	lea    (%rdx,%rax,1),%rbx
  406341:	e8 8a e4 ff ff       	callq  4047d0 <rand@plt>
  406346:	89 c1                	mov    %eax,%ecx
  406348:	ba c5 bd 31 04       	mov    $0x431bdc5,%edx
  40634d:	89 c8                	mov    %ecx,%eax
  40634f:	f7 ea                	imul   %edx
  406351:	c1 fa 0f             	sar    $0xf,%edx
  406354:	89 c8                	mov    %ecx,%eax
  406356:	c1 f8 1f             	sar    $0x1f,%eax
  406359:	29 c2                	sub    %eax,%edx
  40635b:	89 d0                	mov    %edx,%eax
  40635d:	69 c0 81 84 1e 00    	imul   $0x1e8481,%eax,%eax
  406363:	29 c1                	sub    %eax,%ecx
  406365:	89 c8                	mov    %ecx,%eax
  406367:	2d 40 42 0f 00       	sub    $0xf4240,%eax
  40636c:	66 0f ef c0          	pxor   %xmm0,%xmm0
  406370:	f3 0f 2a c0          	cvtsi2ss %eax,%xmm0
  406374:	f3 0f 10 0d 08 5f 00 	movss  0x5f08(%rip),%xmm1        # 40c284 <_ZZNK5boost10shared_ptrIN5caffe12SyncedMemoryEEptEvE19__PRETTY_FUNCTION__+0xc4>
  40637b:	00 
  40637c:	f3 0f 5e c1          	divss  %xmm1,%xmm0
  406380:	f3 0f 11 03          	movss  %xmm0,(%rbx)
  406384:	83 45 d8 01          	addl   $0x1,-0x28(%rbp)
  406388:	eb 9a                	jmp    406324 <_ZN2CK19get_random_raw_dataIfEEPT_RKNS_5ShapeE+0x76>
  40638a:	48 8b 45 e8          	mov    -0x18(%rbp),%rax
  40638e:	48 83 c4 38          	add    $0x38,%rsp
  406392:	5b                   	pop    %rbx
  406393:	5d                   	pop    %rbp
  406394:	c3                   	retq   

0000000000406395 <_ZN2CK20print_input_raw_dataIfEEvPT_RKNS_5ShapeE>:
  406395:	55                   	push   %rbp
  406396:	48 89 e5             	mov    %rsp,%rbp
  406399:	48 83 ec 10          	sub    $0x10,%rsp
  40639d:	48 89 7d f8          	mov    %rdi,-0x8(%rbp)
  4063a1:	48 89 75 f0          	mov    %rsi,-0x10(%rbp)
  4063a5:	48 8b 75 f0          	mov    -0x10(%rbp),%rsi
  4063a9:	48 8b 45 f8          	mov    -0x8(%rbp),%rax
  4063ad:	b9 84 bb 40 00       	mov    $0x40bb84,%ecx
  4063b2:	ba 8a bb 40 00       	mov    $0x40bb8a,%edx
  4063b7:	48 89 c7             	mov    %rax,%rdi
  4063ba:	e8 09 19 00 00       	callq  407cc8 <_ZN2CK12log_raw_dataIfEEvPT_RKNS_5ShapeEPKcS7_>
  4063bf:	90                   	nop
  4063c0:	c9                   	leaveq 
  4063c1:	c3                   	retq   

00000000004063c2 <_ZN5caffe5LayerIfE7ForwardERKSt6vectorIPNS_4BlobIfEESaIS5_EES9_>:
  4063c2:	55                   	push   %rbp
  4063c3:	48 89 e5             	mov    %rsp,%rbp
  4063c6:	53                   	push   %rbx
  4063c7:	48 83 ec 68          	sub    $0x68,%rsp
  4063cb:	48 89 7d a8          	mov    %rdi,-0x58(%rbp)
  4063cf:	48 89 75 a0          	mov    %rsi,-0x60(%rbp)
  4063d3:	48 89 55 98          	mov    %rdx,-0x68(%rbp)
  4063d7:	64 48 8b 04 25 28 00 	mov    %fs:0x28,%rax
  4063de:	00 00 
  4063e0:	48 89 45 e8          	mov    %rax,-0x18(%rbp)
  4063e4:	31 c0                	xor    %eax,%eax
  4063e6:	66 0f ef c0          	pxor   %xmm0,%xmm0
  4063ea:	f3 0f 11 45 b4       	movss  %xmm0,-0x4c(%rbp)
  4063ef:	48 8b 45 a8          	mov    -0x58(%rbp),%rax
  4063f3:	48 8b 00             	mov    (%rax),%rax
  4063f6:	48 83 c0 18          	add    $0x18,%rax
  4063fa:	48 8b 00             	mov    (%rax),%rax
  4063fd:	48 8b 55 98          	mov    -0x68(%rbp),%rdx
  406401:	48 8b 75 a0          	mov    -0x60(%rbp),%rsi
  406405:	48 8b 4d a8          	mov    -0x58(%rbp),%rcx
  406409:	48 89 cf             	mov    %rcx,%rdi
  40640c:	ff d0                	callq  *%rax
  40640e:	e8 be e9 ff ff       	callq  404dd1 <_ZN5caffe5Caffe4modeEv>
  406413:	85 c0                	test   %eax,%eax
  406415:	74 0e                	je     406425 <_ZN5caffe5LayerIfE7ForwardERKSt6vectorIPNS_4BlobIfEESaIS5_EES9_+0x63>
  406417:	83 f8 01             	cmp    $0x1,%eax
  40641a:	0f 84 1a 01 00 00    	je     40653a <_ZN5caffe5LayerIfE7ForwardERKSt6vectorIPNS_4BlobIfEESaIS5_EES9_+0x178>
  406420:	e9 36 01 00 00       	jmpq   40655b <_ZN5caffe5LayerIfE7ForwardERKSt6vectorIPNS_4BlobIfEESaIS5_EES9_+0x199>
  406425:	48 8b 45 a8          	mov    -0x58(%rbp),%rax
  406429:	48 8b 00             	mov    (%rax),%rax
  40642c:	48 83 c0 78          	add    $0x78,%rax
  406430:	48 8b 00             	mov    (%rax),%rax
  406433:	48 8b 55 98          	mov    -0x68(%rbp),%rdx
  406437:	48 8b 75 a0          	mov    -0x60(%rbp),%rsi
  40643b:	48 8b 4d a8          	mov    -0x58(%rbp),%rcx
  40643f:	48 89 cf             	mov    %rcx,%rdi
  406442:	ff d0                	callq  *%rax
  406444:	c7 45 b8 00 00 00 00 	movl   $0x0,-0x48(%rbp)
  40644b:	8b 45 b8             	mov    -0x48(%rbp),%eax
  40644e:	48 63 d8             	movslq %eax,%rbx
  406451:	48 8b 45 98          	mov    -0x68(%rbp),%rax
  406455:	48 89 c7             	mov    %rax,%rdi
  406458:	e8 e3 18 00 00       	callq  407d40 <_ZNKSt6vectorIPN5caffe4BlobIfEESaIS3_EE4sizeEv>
  40645d:	48 39 c3             	cmp    %rax,%rbx
  406460:	0f 92 c0             	setb   %al
  406463:	84 c0                	test   %al,%al
  406465:	0f 84 2b 01 00 00    	je     406596 <_ZN5caffe5LayerIfE7ForwardERKSt6vectorIPNS_4BlobIfEESaIS5_EES9_+0x1d4>
  40646b:	8b 55 b8             	mov    -0x48(%rbp),%edx
  40646e:	48 8b 45 a8          	mov    -0x58(%rbp),%rax
  406472:	89 d6                	mov    %edx,%esi
  406474:	48 89 c7             	mov    %rax,%rdi
  406477:	e8 ea 18 00 00       	callq  407d66 <_ZNK5caffe5LayerIfE4lossEi>
  40647c:	66 0f ef c9          	pxor   %xmm1,%xmm1
  406480:	0f 2e c1             	ucomiss %xmm1,%xmm0
  406483:	0f 9b c0             	setnp  %al
  406486:	ba 00 00 00 00       	mov    $0x0,%edx
  40648b:	66 0f ef c9          	pxor   %xmm1,%xmm1
  40648f:	0f 2e c1             	ucomiss %xmm1,%xmm0
  406492:	0f 45 c2             	cmovne %edx,%eax
  406495:	84 c0                	test   %al,%al
  406497:	0f 85 93 00 00 00    	jne    406530 <_ZN5caffe5LayerIfE7ForwardERKSt6vectorIPNS_4BlobIfEESaIS5_EES9_+0x16e>
  40649d:	8b 45 b8             	mov    -0x48(%rbp),%eax
  4064a0:	48 63 d0             	movslq %eax,%rdx
  4064a3:	48 8b 45 98          	mov    -0x68(%rbp),%rax
  4064a7:	48 89 d6             	mov    %rdx,%rsi
  4064aa:	48 89 c7             	mov    %rax,%rdi
  4064ad:	e8 0a 19 00 00       	callq  407dbc <_ZNKSt6vectorIPN5caffe4BlobIfEESaIS3_EEixEm>
  4064b2:	48 8b 00             	mov    (%rax),%rax
  4064b5:	48 89 c7             	mov    %rax,%rdi
  4064b8:	e8 1f 19 00 00       	callq  407ddc <_ZNK5caffe4BlobIfE5countEv>
  4064bd:	89 45 bc             	mov    %eax,-0x44(%rbp)
  4064c0:	8b 45 b8             	mov    -0x48(%rbp),%eax
  4064c3:	48 63 d0             	movslq %eax,%rdx
  4064c6:	48 8b 45 98          	mov    -0x68(%rbp),%rax
  4064ca:	48 89 d6             	mov    %rdx,%rsi
  4064cd:	48 89 c7             	mov    %rax,%rdi
  4064d0:	e8 e7 18 00 00       	callq  407dbc <_ZNKSt6vectorIPN5caffe4BlobIfEESaIS3_EEixEm>
  4064d5:	48 8b 00             	mov    (%rax),%rax
  4064d8:	48 89 c7             	mov    %rax,%rdi
  4064db:	e8 60 e1 ff ff       	callq  404640 <_ZNK5caffe4BlobIfE8cpu_dataEv@plt>
  4064e0:	48 89 45 c0          	mov    %rax,-0x40(%rbp)
  4064e4:	8b 45 b8             	mov    -0x48(%rbp),%eax
  4064e7:	48 63 d0             	movslq %eax,%rdx
  4064ea:	48 8b 45 98          	mov    -0x68(%rbp),%rax
  4064ee:	48 89 d6             	mov    %rdx,%rsi
  4064f1:	48 89 c7             	mov    %rax,%rdi
  4064f4:	e8 c3 18 00 00       	callq  407dbc <_ZNKSt6vectorIPN5caffe4BlobIfEESaIS3_EEixEm>
  4064f9:	48 8b 00             	mov    (%rax),%rax
  4064fc:	48 89 c7             	mov    %rax,%rdi
  4064ff:	e8 9c e1 ff ff       	callq  4046a0 <_ZNK5caffe4BlobIfE8cpu_diffEv@plt>
  406504:	48 89 45 c8          	mov    %rax,-0x38(%rbp)
  406508:	48 8b 55 c8          	mov    -0x38(%rbp),%rdx
  40650c:	48 8b 4d c0          	mov    -0x40(%rbp),%rcx
  406510:	8b 45 bc             	mov    -0x44(%rbp),%eax
  406513:	48 89 ce             	mov    %rcx,%rsi
  406516:	89 c7                	mov    %eax,%edi
  406518:	e8 73 e3 ff ff       	callq  404890 <_ZN5caffe13caffe_cpu_dotIfEET_iPKS1_S3_@plt>
  40651d:	0f 28 c8             	movaps %xmm0,%xmm1
  406520:	f3 0f 10 45 b4       	movss  -0x4c(%rbp),%xmm0
  406525:	f3 0f 58 c1          	addss  %xmm1,%xmm0
  406529:	f3 0f 11 45 b4       	movss  %xmm0,-0x4c(%rbp)
  40652e:	eb 01                	jmp    406531 <_ZN5caffe5LayerIfE7ForwardERKSt6vectorIPNS_4BlobIfEESaIS5_EES9_+0x16f>
  406530:	90                   	nop
  406531:	83 45 b8 01          	addl   $0x1,-0x48(%rbp)
  406535:	e9 11 ff ff ff       	jmpq   40644b <_ZN5caffe5LayerIfE7ForwardERKSt6vectorIPNS_4BlobIfEESaIS5_EES9_+0x89>
  40653a:	48 8b 45 a8          	mov    -0x58(%rbp),%rax
  40653e:	48 8b 00             	mov    (%rax),%rax
  406541:	48 83 e8 80          	sub    $0xffffffffffffff80,%rax
  406545:	48 8b 00             	mov    (%rax),%rax
  406548:	48 8b 55 98          	mov    -0x68(%rbp),%rdx
  40654c:	48 8b 75 a0          	mov    -0x60(%rbp),%rsi
  406550:	48 8b 4d a8          	mov    -0x58(%rbp),%rcx
  406554:	48 89 cf             	mov    %rcx,%rdi
  406557:	ff d0                	callq  *%rax
  406559:	eb 3c                	jmp    406597 <_ZN5caffe5LayerIfE7ForwardERKSt6vectorIPNS_4BlobIfEESaIS5_EES9_+0x1d5>
  40655b:	48 8d 45 d0          	lea    -0x30(%rbp),%rax
  40655f:	ba bb 01 00 00       	mov    $0x1bb,%edx
  406564:	be a0 bb 40 00       	mov    $0x40bba0,%esi
  406569:	48 89 c7             	mov    %rax,%rdi
  40656c:	e8 8f e3 ff ff       	callq  404900 <_ZN6google15LogMessageFatalC1EPKci@plt>
  406571:	48 8d 45 d0          	lea    -0x30(%rbp),%rax
  406575:	48 89 c7             	mov    %rax,%rdi
  406578:	e8 93 e2 ff ff       	callq  404810 <_ZN6google10LogMessage6streamEv@plt>
  40657d:	be 0d bc 40 00       	mov    $0x40bc0d,%esi
  406582:	48 89 c7             	mov    %rax,%rdi
  406585:	e8 66 e0 ff ff       	callq  4045f0 <_ZStlsISt11char_traitsIcEERSt13basic_ostreamIcT_ES5_PKc@plt>
  40658a:	48 8d 45 d0          	lea    -0x30(%rbp),%rax
  40658e:	48 89 c7             	mov    %rax,%rdi
  406591:	e8 da e1 ff ff       	callq  404770 <_ZN6google15LogMessageFatalD1Ev@plt>
  406596:	90                   	nop
  406597:	f3 0f 10 45 b4       	movss  -0x4c(%rbp),%xmm0
  40659c:	48 8b 45 e8          	mov    -0x18(%rbp),%rax
  4065a0:	64 48 33 04 25 28 00 	xor    %fs:0x28,%rax
  4065a7:	00 00 
  4065a9:	74 13                	je     4065be <_ZN5caffe5LayerIfE7ForwardERKSt6vectorIPNS_4BlobIfEESaIS5_EES9_+0x1fc>
  4065ab:	eb 0c                	jmp    4065b9 <_ZN5caffe5LayerIfE7ForwardERKSt6vectorIPNS_4BlobIfEESaIS5_EES9_+0x1f7>
  4065ad:	48 8d 45 d0          	lea    -0x30(%rbp),%rax
  4065b1:	48 89 c7             	mov    %rax,%rdi
  4065b4:	e8 b7 e1 ff ff       	callq  404770 <_ZN6google15LogMessageFatalD1Ev@plt>
  4065b9:	e8 42 df ff ff       	callq  404500 <__stack_chk_fail@plt>
  4065be:	48 83 c4 68          	add    $0x68,%rsp
  4065c2:	5b                   	pop    %rbx
  4065c3:	5d                   	pop    %rbp
  4065c4:	c3                   	retq   

00000000004065c5 <_ZN2CK12measure_testIZNS_5Caffe7test_fcEvEUlvE0_EEvOT_>:
  4065c5:	55                   	push   %rbp
  4065c6:	48 89 e5             	mov    %rsp,%rbp
  4065c9:	48 83 ec 10          	sub    $0x10,%rsp
  4065cd:	48 89 7d f8          	mov    %rdi,-0x8(%rbp)
  4065d1:	48 8b 45 f8          	mov    -0x8(%rbp),%rax
  4065d5:	be 01 00 00 00       	mov    $0x1,%esi
  4065da:	48 89 c7             	mov    %rax,%rdi
  4065dd:	e8 41 18 00 00       	callq  407e23 <_ZN2CK11do_measuredIRZNS_5Caffe7test_fcEvEUlvE0_EEvOT_i>
  4065e2:	bf 01 00 00 00       	mov    $0x1,%edi
  4065e7:	e8 d4 df ff ff       	callq  4045c0 <xopenme_get_timer@plt>
  4065ec:	f2 0f 5a c0          	cvtsd2ss %xmm0,%xmm0
  4065f0:	e8 8b e4 ff ff       	callq  404a80 <_ZN2CK15store_test_timeEf>
  4065f5:	90                   	nop
  4065f6:	c9                   	leaveq 
  4065f7:	c3                   	retq   

00000000004065f8 <_ZNK5caffe4BlobIfE4dataEv>:
  4065f8:	55                   	push   %rbp
  4065f9:	48 89 e5             	mov    %rsp,%rbp
  4065fc:	41 55                	push   %r13
  4065fe:	41 54                	push   %r12
  406600:	53                   	push   %rbx
  406601:	48 83 ec 48          	sub    $0x48,%rsp
  406605:	48 89 7d a8          	mov    %rdi,-0x58(%rbp)
  406609:	64 48 8b 04 25 28 00 	mov    %fs:0x28,%rax
  406610:	00 00 
  406612:	48 89 45 d8          	mov    %rax,-0x28(%rbp)
  406616:	31 c0                	xor    %eax,%eax
  406618:	48 8b 45 a8          	mov    -0x58(%rbp),%rax
  40661c:	48 89 c7             	mov    %rax,%rdi
  40661f:	e8 32 18 00 00       	callq  407e56 <_ZNK5boost10shared_ptrIN5caffe12SyncedMemoryEEntEv>
  406624:	0f b6 c0             	movzbl %al,%eax
  406627:	bb 00 00 00 00       	mov    $0x0,%ebx
  40662c:	41 bc 00 00 00 00    	mov    $0x0,%r12d
  406632:	48 85 c0             	test   %rax,%rax
  406635:	74 58                	je     40668f <_ZNK5caffe4BlobIfE4dataEv+0x97>
  406637:	48 8d 45 c0          	lea    -0x40(%rbp),%rax
  40663b:	ba d2 00 00 00       	mov    $0xd2,%edx
  406640:	be 28 bc 40 00       	mov    $0x40bc28,%esi
  406645:	48 89 c7             	mov    %rax,%rdi
  406648:	e8 b3 e2 ff ff       	callq  404900 <_ZN6google15LogMessageFatalC1EPKci@plt>
  40664d:	bb 01 00 00 00       	mov    $0x1,%ebx
  406652:	48 8d 45 c0          	lea    -0x40(%rbp),%rax
  406656:	48 89 c7             	mov    %rax,%rdi
  406659:	e8 b2 e1 ff ff       	callq  404810 <_ZN6google10LogMessage6streamEv@plt>
  40665e:	be 94 bc 40 00       	mov    $0x40bc94,%esi
  406663:	48 89 c7             	mov    %rax,%rdi
  406666:	e8 85 df ff ff       	callq  4045f0 <_ZStlsISt11char_traitsIcEERSt13basic_ostreamIcT_ES5_PKc@plt>
  40666b:	49 89 c5             	mov    %rax,%r13
  40666e:	48 8d 45 bf          	lea    -0x41(%rbp),%rax
  406672:	48 89 c7             	mov    %rax,%rdi
  406675:	e8 3c e7 ff ff       	callq  404db6 <_ZN6google17LogMessageVoidifyC1Ev>
  40667a:	41 bc 01 00 00 00    	mov    $0x1,%r12d
  406680:	48 8d 45 bf          	lea    -0x41(%rbp),%rax
  406684:	4c 89 ee             	mov    %r13,%rsi
  406687:	48 89 c7             	mov    %rax,%rdi
  40668a:	e8 33 e7 ff ff       	callq  404dc2 <_ZN6google17LogMessageVoidifyanERSo>
  40668f:	45 84 e4             	test   %r12b,%r12b
  406692:	84 db                	test   %bl,%bl
  406694:	74 0d                	je     4066a3 <_ZNK5caffe4BlobIfE4dataEv+0xab>
  406696:	90                   	nop
  406697:	48 8d 45 c0          	lea    -0x40(%rbp),%rax
  40669b:	48 89 c7             	mov    %rax,%rdi
  40669e:	e8 cd e0 ff ff       	callq  404770 <_ZN6google15LogMessageFatalD1Ev@plt>
  4066a3:	90                   	nop
  4066a4:	48 8b 45 a8          	mov    -0x58(%rbp),%rax
  4066a8:	48 8b 4d d8          	mov    -0x28(%rbp),%rcx
  4066ac:	64 48 33 0c 25 28 00 	xor    %fs:0x28,%rcx
  4066b3:	00 00 
  4066b5:	74 24                	je     4066db <_ZNK5caffe4BlobIfE4dataEv+0xe3>
  4066b7:	eb 1d                	jmp    4066d6 <_ZNK5caffe4BlobIfE4dataEv+0xde>
  4066b9:	45 84 e4             	test   %r12b,%r12b
  4066bc:	84 db                	test   %bl,%bl
  4066be:	74 0d                	je     4066cd <_ZNK5caffe4BlobIfE4dataEv+0xd5>
  4066c0:	90                   	nop
  4066c1:	48 8d 45 c0          	lea    -0x40(%rbp),%rax
  4066c5:	48 89 c7             	mov    %rax,%rdi
  4066c8:	e8 a3 e0 ff ff       	callq  404770 <_ZN6google15LogMessageFatalD1Ev@plt>
  4066cd:	90                   	nop
  4066ce:	48 89 c7             	mov    %rax,%rdi
  4066d1:	e8 9a df ff ff       	callq  404670 <_Unwind_Resume@plt>
  4066d6:	e8 25 de ff ff       	callq  404500 <__stack_chk_fail@plt>
  4066db:	48 83 c4 48          	add    $0x48,%rsp
  4066df:	5b                   	pop    %rbx
  4066e0:	41 5c                	pop    %r12
  4066e2:	41 5d                	pop    %r13
  4066e4:	5d                   	pop    %rbp
  4066e5:	c3                   	retq   

00000000004066e6 <_ZNK5boost10shared_ptrIN5caffe12SyncedMemoryEEptEv>:
  4066e6:	55                   	push   %rbp
  4066e7:	48 89 e5             	mov    %rsp,%rbp
  4066ea:	48 83 ec 10          	sub    $0x10,%rsp
  4066ee:	48 89 7d f8          	mov    %rdi,-0x8(%rbp)
  4066f2:	48 8b 45 f8          	mov    -0x8(%rbp),%rax
  4066f6:	48 8b 00             	mov    (%rax),%rax
  4066f9:	48 85 c0             	test   %rax,%rax
  4066fc:	75 19                	jne    406717 <_ZNK5boost10shared_ptrIN5caffe12SyncedMemoryEEptEv+0x31>
  4066fe:	b9 c0 c1 40 00       	mov    $0x40c1c0,%ecx
  406703:	ba 88 02 00 00       	mov    $0x288,%edx
  406708:	be b0 bc 40 00       	mov    $0x40bcb0,%esi
  40670d:	bf dc bc 40 00       	mov    $0x40bcdc,%edi
  406712:	e8 89 dd ff ff       	callq  4044a0 <__assert_fail@plt>
  406717:	48 8b 45 f8          	mov    -0x8(%rbp),%rax
  40671b:	48 8b 00             	mov    (%rax),%rax
  40671e:	c9                   	leaveq 
  40671f:	c3                   	retq   

0000000000406720 <_ZN2CK21print_output_raw_dataIfEEvPT_RKNS_5ShapeE>:
  406720:	55                   	push   %rbp
  406721:	48 89 e5             	mov    %rsp,%rbp
  406724:	48 83 ec 10          	sub    $0x10,%rsp
  406728:	48 89 7d f8          	mov    %rdi,-0x8(%rbp)
  40672c:	48 89 75 f0          	mov    %rsi,-0x10(%rbp)
  406730:	48 8b 75 f0          	mov    -0x10(%rbp),%rsi
  406734:	48 8b 45 f8          	mov    -0x8(%rbp),%rax
  406738:	b9 e4 bc 40 00       	mov    $0x40bce4,%ecx
  40673d:	ba eb bc 40 00       	mov    $0x40bceb,%edx
  406742:	48 89 c7             	mov    %rax,%rdi
  406745:	e8 7e 15 00 00       	callq  407cc8 <_ZN2CK12log_raw_dataIfEEvPT_RKNS_5ShapeEPKcS7_>
  40674a:	90                   	nop
  40674b:	c9                   	leaveq 
  40674c:	c3                   	retq   

000000000040674d <_ZN2CK20dump_output_raw_dataIfEEvPT_RKNS_5ShapeE>:
  40674d:	55                   	push   %rbp
  40674e:	48 89 e5             	mov    %rsp,%rbp
  406751:	48 83 ec 20          	sub    $0x20,%rsp
  406755:	48 89 7d e8          	mov    %rdi,-0x18(%rbp)
  406759:	48 89 75 e0          	mov    %rsi,-0x20(%rbp)
  40675d:	bf ff bc 40 00       	mov    $0x40bcff,%edi
  406762:	e8 59 df ff ff       	callq  4046c0 <getenv@plt>
  406767:	48 89 45 f8          	mov    %rax,-0x8(%rbp)
  40676b:	48 83 7d f8 00       	cmpq   $0x0,-0x8(%rbp)
  406770:	0f 84 89 00 00 00    	je     4067ff <_ZN2CK20dump_output_raw_dataIfEEvPT_RKNS_5ShapeE+0xb2>
  406776:	48 8b 45 e0          	mov    -0x20(%rbp),%rax
  40677a:	48 89 c7             	mov    %rax,%rdi
  40677d:	e8 40 ed ff ff       	callq  4054c2 <_ZNK2CK5Shape10data_countEv>
  406782:	48 98                	cltq   
  406784:	48 c1 e0 02          	shl    $0x2,%rax
  406788:	48 89 c2             	mov    %rax,%rdx
  40678b:	48 8b 4d e8          	mov    -0x18(%rbp),%rcx
  40678f:	48 8b 45 f8          	mov    -0x8(%rbp),%rax
  406793:	48 89 ce             	mov    %rcx,%rsi
  406796:	48 89 c7             	mov    %rax,%rdi
  406799:	e8 52 e1 ff ff       	callq  4048f0 <xopenme_dump_memory@plt>
  40679e:	48 8b 45 e0          	mov    -0x20(%rbp),%rax
  4067a2:	8b 00                	mov    (%rax),%eax
  4067a4:	89 c2                	mov    %eax,%edx
  4067a6:	be 0f bd 40 00       	mov    $0x40bd0f,%esi
  4067ab:	bf 00 00 00 00       	mov    $0x0,%edi
  4067b0:	e8 f3 ed ff ff       	callq  4055a8 <_ZN2CK13store_value_iEiPKci>
  4067b5:	48 8b 45 e0          	mov    -0x20(%rbp),%rax
  4067b9:	8b 40 04             	mov    0x4(%rax),%eax
  4067bc:	89 c2                	mov    %eax,%edx
  4067be:	be 1b bd 40 00       	mov    $0x40bd1b,%esi
  4067c3:	bf 01 00 00 00       	mov    $0x1,%edi
  4067c8:	e8 db ed ff ff       	callq  4055a8 <_ZN2CK13store_value_iEiPKci>
  4067cd:	48 8b 45 e0          	mov    -0x20(%rbp),%rax
  4067d1:	8b 40 08             	mov    0x8(%rax),%eax
  4067d4:	89 c2                	mov    %eax,%edx
  4067d6:	be 27 bd 40 00       	mov    $0x40bd27,%esi
  4067db:	bf 02 00 00 00       	mov    $0x2,%edi
  4067e0:	e8 c3 ed ff ff       	callq  4055a8 <_ZN2CK13store_value_iEiPKci>
  4067e5:	48 8b 45 e0          	mov    -0x20(%rbp),%rax
  4067e9:	8b 40 0c             	mov    0xc(%rax),%eax
  4067ec:	89 c2                	mov    %eax,%edx
  4067ee:	be 33 bd 40 00       	mov    $0x40bd33,%esi
  4067f3:	bf 03 00 00 00       	mov    $0x3,%edi
  4067f8:	e8 ab ed ff ff       	callq  4055a8 <_ZN2CK13store_value_iEiPKci>
  4067fd:	eb 01                	jmp    406800 <_ZN2CK20dump_output_raw_dataIfEEvPT_RKNS_5ShapeE+0xb3>
  4067ff:	90                   	nop
  406800:	c9                   	leaveq 
  406801:	c3                   	retq   

0000000000406802 <_ZNSt6vectorIiSaIiEED1Ev>:
  406802:	55                   	push   %rbp
  406803:	48 89 e5             	mov    %rsp,%rbp
  406806:	48 83 ec 10          	sub    $0x10,%rsp
  40680a:	48 89 7d f8          	mov    %rdi,-0x8(%rbp)
  40680e:	48 8b 45 f8          	mov    -0x8(%rbp),%rax
  406812:	48 89 c7             	mov    %rax,%rdi
  406815:	e8 c0 16 00 00       	callq  407eda <_ZNSt12_Vector_baseIiSaIiEE19_M_get_Tp_allocatorEv>
  40681a:	48 89 c2             	mov    %rax,%rdx
  40681d:	48 8b 45 f8          	mov    -0x8(%rbp),%rax
  406821:	48 8b 48 08          	mov    0x8(%rax),%rcx
  406825:	48 8b 45 f8          	mov    -0x8(%rbp),%rax
  406829:	48 8b 00             	mov    (%rax),%rax
  40682c:	48 89 ce             	mov    %rcx,%rsi
  40682f:	48 89 c7             	mov    %rax,%rdi
  406832:	e8 b1 16 00 00       	callq  407ee8 <_ZSt8_DestroyIPiiEvT_S1_RSaIT0_E>
  406837:	48 8b 45 f8          	mov    -0x8(%rbp),%rax
  40683b:	48 89 c7             	mov    %rax,%rdi
  40683e:	e8 47 16 00 00       	callq  407e8a <_ZNSt12_Vector_baseIiSaIiEED1Ev>
  406843:	90                   	nop
  406844:	c9                   	leaveq 
  406845:	c3                   	retq   

0000000000406846 <_ZN6google8protobuf8internal20RepeatedPtrFieldBase5ClearINS0_16RepeatedPtrFieldIN5caffe9BlobProtoEE11TypeHandlerEEEvv>:
  406846:	55                   	push   %rbp
  406847:	48 89 e5             	mov    %rsp,%rbp
  40684a:	41 54                	push   %r12
  40684c:	53                   	push   %rbx
  40684d:	48 83 ec 70          	sub    $0x70,%rsp
  406851:	48 89 7d 88          	mov    %rdi,-0x78(%rbp)
  406855:	64 48 8b 04 25 28 00 	mov    %fs:0x28,%rax
  40685c:	00 00 
  40685e:	48 89 45 e8          	mov    %rax,-0x18(%rbp)
  406862:	31 c0                	xor    %eax,%eax
  406864:	48 8b 45 88          	mov    -0x78(%rbp),%rax
  406868:	8b 40 08             	mov    0x8(%rax),%eax
  40686b:	89 45 a4             	mov    %eax,-0x5c(%rbp)
  40686e:	bb 00 00 00 00       	mov    $0x0,%ebx
  406873:	41 bc 00 00 00 00    	mov    $0x0,%r12d
  406879:	83 7d a4 00          	cmpl   $0x0,-0x5c(%rbp)
  40687d:	79 49                	jns    4068c8 <_ZN6google8protobuf8internal20RepeatedPtrFieldBase5ClearINS0_16RepeatedPtrFieldIN5caffe9BlobProtoEE11TypeHandlerEEEvv+0x82>
  40687f:	48 8d 45 b0          	lea    -0x50(%rbp),%rax
  406883:	b9 c4 05 00 00       	mov    $0x5c4,%ecx
  406888:	ba c0 ba 40 00       	mov    $0x40bac0,%edx
  40688d:	be 03 00 00 00       	mov    $0x3,%esi
  406892:	48 89 c7             	mov    %rax,%rdi
  406895:	e8 76 dd ff ff       	callq  404610 <_ZN6google8protobuf8internal10LogMessageC1ENS0_8LogLevelEPKci@plt>
  40689a:	bb 01 00 00 00       	mov    $0x1,%ebx
  40689f:	48 8d 45 b0          	lea    -0x50(%rbp),%rax
  4068a3:	be 3f bd 40 00       	mov    $0x40bd3f,%esi
  4068a8:	48 89 c7             	mov    %rax,%rdi
  4068ab:	e8 70 e0 ff ff       	callq  404920 <_ZN6google8protobuf8internal10LogMessagelsEPKc@plt>
  4068b0:	48 89 c2             	mov    %rax,%rdx
  4068b3:	41 bc 01 00 00 00    	mov    $0x1,%r12d
  4068b9:	48 8d 45 9f          	lea    -0x61(%rbp),%rax
  4068bd:	48 89 d6             	mov    %rdx,%rsi
  4068c0:	48 89 c7             	mov    %rax,%rdi
  4068c3:	e8 38 de ff ff       	callq  404700 <_ZN6google8protobuf8internal11LogFinisheraSERNS1_10LogMessageE@plt>
  4068c8:	45 84 e4             	test   %r12b,%r12b
  4068cb:	84 db                	test   %bl,%bl
  4068cd:	74 0f                	je     4068de <_ZN6google8protobuf8internal20RepeatedPtrFieldBase5ClearINS0_16RepeatedPtrFieldIN5caffe9BlobProtoEE11TypeHandlerEEEvv+0x98>
  4068cf:	90                   	nop
  4068d0:	48 8d 45 b0          	lea    -0x50(%rbp),%rax
  4068d4:	48 89 c7             	mov    %rax,%rdi
  4068d7:	e8 a4 de ff ff       	callq  404780 <_ZN6google8protobuf8internal10LogMessageD1Ev@plt>
  4068dc:	eb 01                	jmp    4068df <_ZN6google8protobuf8internal20RepeatedPtrFieldBase5ClearINS0_16RepeatedPtrFieldIN5caffe9BlobProtoEE11TypeHandlerEEEvv+0x99>
  4068de:	90                   	nop
  4068df:	83 7d a4 00          	cmpl   $0x0,-0x5c(%rbp)
  4068e3:	0f 8e 80 00 00 00    	jle    406969 <_ZN6google8protobuf8internal20RepeatedPtrFieldBase5ClearINS0_16RepeatedPtrFieldIN5caffe9BlobProtoEE11TypeHandlerEEEvv+0x123>
  4068e9:	48 8b 45 88          	mov    -0x78(%rbp),%rax
  4068ed:	48 8b 40 10          	mov    0x10(%rax),%rax
  4068f1:	48 83 c0 08          	add    $0x8,%rax
  4068f5:	48 89 45 a8          	mov    %rax,-0x58(%rbp)
  4068f9:	c7 45 a0 00 00 00 00 	movl   $0x0,-0x60(%rbp)
  406900:	8b 45 a0             	mov    -0x60(%rbp),%eax
  406903:	8d 50 01             	lea    0x1(%rax),%edx
  406906:	89 55 a0             	mov    %edx,-0x60(%rbp)
  406909:	48 98                	cltq   
  40690b:	48 8d 14 c5 00 00 00 	lea    0x0(,%rax,8),%rdx
  406912:	00 
  406913:	48 8b 45 a8          	mov    -0x58(%rbp),%rax
  406917:	48 01 d0             	add    %rdx,%rax
  40691a:	48 8b 00             	mov    (%rax),%rax
  40691d:	48 89 c7             	mov    %rax,%rdi
  406920:	e8 3a 16 00 00       	callq  407f5f <_ZN6google8protobuf8internal20RepeatedPtrFieldBase4castINS0_16RepeatedPtrFieldIN5caffe9BlobProtoEE11TypeHandlerEEEPNT_4TypeEPv>
  406925:	48 89 c7             	mov    %rax,%rdi
  406928:	e8 0c 16 00 00       	callq  407f39 <_ZN6google8protobuf8internal18GenericTypeHandlerIN5caffe9BlobProtoEE5ClearEPS4_>
  40692d:	8b 45 a0             	mov    -0x60(%rbp),%eax
  406930:	3b 45 a4             	cmp    -0x5c(%rbp),%eax
  406933:	7d 02                	jge    406937 <_ZN6google8protobuf8internal20RepeatedPtrFieldBase5ClearINS0_16RepeatedPtrFieldIN5caffe9BlobProtoEE11TypeHandlerEEEvv+0xf1>
  406935:	eb c9                	jmp    406900 <_ZN6google8protobuf8internal20RepeatedPtrFieldBase5ClearINS0_16RepeatedPtrFieldIN5caffe9BlobProtoEE11TypeHandlerEEEvv+0xba>
  406937:	48 8b 45 88          	mov    -0x78(%rbp),%rax
  40693b:	c7 40 08 00 00 00 00 	movl   $0x0,0x8(%rax)
  406942:	eb 25                	jmp    406969 <_ZN6google8protobuf8internal20RepeatedPtrFieldBase5ClearINS0_16RepeatedPtrFieldIN5caffe9BlobProtoEE11TypeHandlerEEEvv+0x123>
  406944:	45 84 e4             	test   %r12b,%r12b
  406947:	49 89 c4             	mov    %rax,%r12
  40694a:	84 db                	test   %bl,%bl
  40694c:	74 0f                	je     40695d <_ZN6google8protobuf8internal20RepeatedPtrFieldBase5ClearINS0_16RepeatedPtrFieldIN5caffe9BlobProtoEE11TypeHandlerEEEvv+0x117>
  40694e:	90                   	nop
  40694f:	48 8d 45 b0          	lea    -0x50(%rbp),%rax
  406953:	48 89 c7             	mov    %rax,%rdi
  406956:	e8 25 de ff ff       	callq  404780 <_ZN6google8protobuf8internal10LogMessageD1Ev@plt>
  40695b:	eb 01                	jmp    40695e <_ZN6google8protobuf8internal20RepeatedPtrFieldBase5ClearINS0_16RepeatedPtrFieldIN5caffe9BlobProtoEE11TypeHandlerEEEvv+0x118>
  40695d:	90                   	nop
  40695e:	4c 89 e0             	mov    %r12,%rax
  406961:	48 89 c7             	mov    %rax,%rdi
  406964:	e8 07 dd ff ff       	callq  404670 <_Unwind_Resume@plt>
  406969:	90                   	nop
  40696a:	48 8b 45 e8          	mov    -0x18(%rbp),%rax
  40696e:	64 48 33 04 25 28 00 	xor    %fs:0x28,%rax
  406975:	00 00 
  406977:	74 05                	je     40697e <_ZN6google8protobuf8internal20RepeatedPtrFieldBase5ClearINS0_16RepeatedPtrFieldIN5caffe9BlobProtoEE11TypeHandlerEEEvv+0x138>
  406979:	e8 82 db ff ff       	callq  404500 <__stack_chk_fail@plt>
  40697e:	48 83 c4 70          	add    $0x70,%rsp
  406982:	5b                   	pop    %rbx
  406983:	41 5c                	pop    %r12
  406985:	5d                   	pop    %rbp
  406986:	c3                   	retq   
  406987:	90                   	nop

0000000000406988 <_ZNK6google8protobuf8internal20RepeatedPtrFieldBase3GetINS0_16RepeatedPtrFieldIN5caffe9BlobProtoEE11TypeHandlerEEERKNT_4TypeEi>:
  406988:	55                   	push   %rbp
  406989:	48 89 e5             	mov    %rsp,%rbp
  40698c:	41 54                	push   %r12
  40698e:	53                   	push   %rbx
  40698f:	48 81 ec a0 00 00 00 	sub    $0xa0,%rsp
  406996:	48 89 bd 58 ff ff ff 	mov    %rdi,-0xa8(%rbp)
  40699d:	89 b5 54 ff ff ff    	mov    %esi,-0xac(%rbp)
  4069a3:	64 48 8b 04 25 28 00 	mov    %fs:0x28,%rax
  4069aa:	00 00 
  4069ac:	48 89 45 e8          	mov    %rax,-0x18(%rbp)
  4069b0:	31 c0                	xor    %eax,%eax
  4069b2:	bb 00 00 00 00       	mov    $0x0,%ebx
  4069b7:	41 bc 00 00 00 00    	mov    $0x0,%r12d
  4069bd:	83 bd 54 ff ff ff 00 	cmpl   $0x0,-0xac(%rbp)
  4069c4:	79 52                	jns    406a18 <_ZNK6google8protobuf8internal20RepeatedPtrFieldBase3GetINS0_16RepeatedPtrFieldIN5caffe9BlobProtoEE11TypeHandlerEEERKNT_4TypeEi+0x90>
  4069c6:	48 8d 85 70 ff ff ff 	lea    -0x90(%rbp),%rax
  4069cd:	b9 96 05 00 00       	mov    $0x596,%ecx
  4069d2:	ba c0 ba 40 00       	mov    $0x40bac0,%edx
  4069d7:	be 03 00 00 00       	mov    $0x3,%esi
  4069dc:	48 89 c7             	mov    %rax,%rdi
  4069df:	e8 2c dc ff ff       	callq  404610 <_ZN6google8protobuf8internal10LogMessageC1ENS0_8LogLevelEPKci@plt>
  4069e4:	bb 01 00 00 00       	mov    $0x1,%ebx
  4069e9:	48 8d 85 70 ff ff ff 	lea    -0x90(%rbp),%rax
  4069f0:	be 30 bb 40 00       	mov    $0x40bb30,%esi
  4069f5:	48 89 c7             	mov    %rax,%rdi
  4069f8:	e8 23 df ff ff       	callq  404920 <_ZN6google8protobuf8internal10LogMessagelsEPKc@plt>
  4069fd:	48 89 c2             	mov    %rax,%rdx
  406a00:	41 bc 01 00 00 00    	mov    $0x1,%r12d
  406a06:	48 8d 85 6e ff ff ff 	lea    -0x92(%rbp),%rax
  406a0d:	48 89 d6             	mov    %rdx,%rsi
  406a10:	48 89 c7             	mov    %rax,%rdi
  406a13:	e8 e8 dc ff ff       	callq  404700 <_ZN6google8protobuf8internal11LogFinisheraSERNS1_10LogMessageE@plt>
  406a18:	45 84 e4             	test   %r12b,%r12b
  406a1b:	84 db                	test   %bl,%bl
  406a1d:	74 12                	je     406a31 <_ZNK6google8protobuf8internal20RepeatedPtrFieldBase3GetINS0_16RepeatedPtrFieldIN5caffe9BlobProtoEE11TypeHandlerEEERKNT_4TypeEi+0xa9>
  406a1f:	90                   	nop
  406a20:	48 8d 85 70 ff ff ff 	lea    -0x90(%rbp),%rax
  406a27:	48 89 c7             	mov    %rax,%rdi
  406a2a:	e8 51 dd ff ff       	callq  404780 <_ZN6google8protobuf8internal10LogMessageD1Ev@plt>
  406a2f:	eb 01                	jmp    406a32 <_ZNK6google8protobuf8internal20RepeatedPtrFieldBase3GetINS0_16RepeatedPtrFieldIN5caffe9BlobProtoEE11TypeHandlerEEERKNT_4TypeEi+0xaa>
  406a31:	90                   	nop
  406a32:	48 8b 85 58 ff ff ff 	mov    -0xa8(%rbp),%rax
  406a39:	8b 40 08             	mov    0x8(%rax),%eax
  406a3c:	bb 00 00 00 00       	mov    $0x0,%ebx
  406a41:	41 bc 00 00 00 00    	mov    $0x0,%r12d
  406a47:	3b 85 54 ff ff ff    	cmp    -0xac(%rbp),%eax
  406a4d:	7f 4c                	jg     406a9b <_ZNK6google8protobuf8internal20RepeatedPtrFieldBase3GetINS0_16RepeatedPtrFieldIN5caffe9BlobProtoEE11TypeHandlerEEERKNT_4TypeEi+0x113>
  406a4f:	48 8d 45 b0          	lea    -0x50(%rbp),%rax
  406a53:	b9 97 05 00 00       	mov    $0x597,%ecx
  406a58:	ba c0 ba 40 00       	mov    $0x40bac0,%edx
  406a5d:	be 03 00 00 00       	mov    $0x3,%esi
  406a62:	48 89 c7             	mov    %rax,%rdi
  406a65:	e8 a6 db ff ff       	callq  404610 <_ZN6google8protobuf8internal10LogMessageC1ENS0_8LogLevelEPKci@plt>
  406a6a:	bb 01 00 00 00       	mov    $0x1,%ebx
  406a6f:	48 8d 45 b0          	lea    -0x50(%rbp),%rax
  406a73:	be 50 bb 40 00       	mov    $0x40bb50,%esi
  406a78:	48 89 c7             	mov    %rax,%rdi
  406a7b:	e8 a0 de ff ff       	callq  404920 <_ZN6google8protobuf8internal10LogMessagelsEPKc@plt>
  406a80:	48 89 c2             	mov    %rax,%rdx
  406a83:	41 bc 01 00 00 00    	mov    $0x1,%r12d
  406a89:	48 8d 85 6f ff ff ff 	lea    -0x91(%rbp),%rax
  406a90:	48 89 d6             	mov    %rdx,%rsi
  406a93:	48 89 c7             	mov    %rax,%rdi
  406a96:	e8 65 dc ff ff       	callq  404700 <_ZN6google8protobuf8internal11LogFinisheraSERNS1_10LogMessageE@plt>
  406a9b:	45 84 e4             	test   %r12b,%r12b
  406a9e:	84 db                	test   %bl,%bl
  406aa0:	74 0f                	je     406ab1 <_ZNK6google8protobuf8internal20RepeatedPtrFieldBase3GetINS0_16RepeatedPtrFieldIN5caffe9BlobProtoEE11TypeHandlerEEERKNT_4TypeEi+0x129>
  406aa2:	90                   	nop
  406aa3:	48 8d 45 b0          	lea    -0x50(%rbp),%rax
  406aa7:	48 89 c7             	mov    %rax,%rdi
  406aaa:	e8 d1 dc ff ff       	callq  404780 <_ZN6google8protobuf8internal10LogMessageD1Ev@plt>
  406aaf:	eb 01                	jmp    406ab2 <_ZNK6google8protobuf8internal20RepeatedPtrFieldBase3GetINS0_16RepeatedPtrFieldIN5caffe9BlobProtoEE11TypeHandlerEEERKNT_4TypeEi+0x12a>
  406ab1:	90                   	nop
  406ab2:	48 8b 85 58 ff ff ff 	mov    -0xa8(%rbp),%rax
  406ab9:	48 8b 40 10          	mov    0x10(%rax),%rax
  406abd:	8b 95 54 ff ff ff    	mov    -0xac(%rbp),%edx
  406ac3:	48 63 d2             	movslq %edx,%rdx
  406ac6:	48 8b 44 d0 08       	mov    0x8(%rax,%rdx,8),%rax
  406acb:	48 89 c7             	mov    %rax,%rdi
  406ace:	e8 8c 14 00 00       	callq  407f5f <_ZN6google8protobuf8internal20RepeatedPtrFieldBase4castINS0_16RepeatedPtrFieldIN5caffe9BlobProtoEE11TypeHandlerEEEPNT_4TypeEPv>
  406ad3:	48 8b 4d e8          	mov    -0x18(%rbp),%rcx
  406ad7:	64 48 33 0c 25 28 00 	xor    %fs:0x28,%rcx
  406ade:	00 00 
  406ae0:	74 54                	je     406b36 <_ZNK6google8protobuf8internal20RepeatedPtrFieldBase3GetINS0_16RepeatedPtrFieldIN5caffe9BlobProtoEE11TypeHandlerEEERKNT_4TypeEi+0x1ae>
  406ae2:	eb 4d                	jmp    406b31 <_ZNK6google8protobuf8internal20RepeatedPtrFieldBase3GetINS0_16RepeatedPtrFieldIN5caffe9BlobProtoEE11TypeHandlerEEERKNT_4TypeEi+0x1a9>
  406ae4:	45 84 e4             	test   %r12b,%r12b
  406ae7:	49 89 c4             	mov    %rax,%r12
  406aea:	84 db                	test   %bl,%bl
  406aec:	74 12                	je     406b00 <_ZNK6google8protobuf8internal20RepeatedPtrFieldBase3GetINS0_16RepeatedPtrFieldIN5caffe9BlobProtoEE11TypeHandlerEEERKNT_4TypeEi+0x178>
  406aee:	90                   	nop
  406aef:	48 8d 85 70 ff ff ff 	lea    -0x90(%rbp),%rax
  406af6:	48 89 c7             	mov    %rax,%rdi
  406af9:	e8 82 dc ff ff       	callq  404780 <_ZN6google8protobuf8internal10LogMessageD1Ev@plt>
  406afe:	eb 01                	jmp    406b01 <_ZNK6google8protobuf8internal20RepeatedPtrFieldBase3GetINS0_16RepeatedPtrFieldIN5caffe9BlobProtoEE11TypeHandlerEEERKNT_4TypeEi+0x179>
  406b00:	90                   	nop
  406b01:	4c 89 e0             	mov    %r12,%rax
  406b04:	48 89 c7             	mov    %rax,%rdi
  406b07:	e8 64 db ff ff       	callq  404670 <_Unwind_Resume@plt>
  406b0c:	45 84 e4             	test   %r12b,%r12b
  406b0f:	49 89 c4             	mov    %rax,%r12
  406b12:	84 db                	test   %bl,%bl
  406b14:	74 0f                	je     406b25 <_ZNK6google8protobuf8internal20RepeatedPtrFieldBase3GetINS0_16RepeatedPtrFieldIN5caffe9BlobProtoEE11TypeHandlerEEERKNT_4TypeEi+0x19d>
  406b16:	90                   	nop
  406b17:	48 8d 45 b0          	lea    -0x50(%rbp),%rax
  406b1b:	48 89 c7             	mov    %rax,%rdi
  406b1e:	e8 5d dc ff ff       	callq  404780 <_ZN6google8protobuf8internal10LogMessageD1Ev@plt>
  406b23:	eb 01                	jmp    406b26 <_ZNK6google8protobuf8internal20RepeatedPtrFieldBase3GetINS0_16RepeatedPtrFieldIN5caffe9BlobProtoEE11TypeHandlerEEERKNT_4TypeEi+0x19e>
  406b25:	90                   	nop
  406b26:	4c 89 e0             	mov    %r12,%rax
  406b29:	48 89 c7             	mov    %rax,%rdi
  406b2c:	e8 3f db ff ff       	callq  404670 <_Unwind_Resume@plt>
  406b31:	e8 ca d9 ff ff       	callq  404500 <__stack_chk_fail@plt>
  406b36:	48 81 c4 a0 00 00 00 	add    $0xa0,%rsp
  406b3d:	5b                   	pop    %rbx
  406b3e:	41 5c                	pop    %r12
  406b40:	5d                   	pop    %rbp
  406b41:	c3                   	retq   

0000000000406b42 <_ZN6google8protobuf8internal20RepeatedPtrFieldBase3AddINS0_16RepeatedPtrFieldIN5caffe9BlobProtoEE11TypeHandlerEEEPNT_4TypeESB_>:
  406b42:	55                   	push   %rbp
  406b43:	48 89 e5             	mov    %rsp,%rbp
  406b46:	48 83 ec 20          	sub    $0x20,%rsp
  406b4a:	48 89 7d e8          	mov    %rdi,-0x18(%rbp)
  406b4e:	48 89 75 e0          	mov    %rsi,-0x20(%rbp)
  406b52:	48 8b 45 e8          	mov    -0x18(%rbp),%rax
  406b56:	48 8b 40 10          	mov    0x10(%rax),%rax
  406b5a:	48 85 c0             	test   %rax,%rax
  406b5d:	74 42                	je     406ba1 <_ZN6google8protobuf8internal20RepeatedPtrFieldBase3AddINS0_16RepeatedPtrFieldIN5caffe9BlobProtoEE11TypeHandlerEEEPNT_4TypeESB_+0x5f>
  406b5f:	48 8b 45 e8          	mov    -0x18(%rbp),%rax
  406b63:	8b 50 08             	mov    0x8(%rax),%edx
  406b66:	48 8b 45 e8          	mov    -0x18(%rbp),%rax
  406b6a:	48 8b 40 10          	mov    0x10(%rax),%rax
  406b6e:	8b 00                	mov    (%rax),%eax
  406b70:	39 c2                	cmp    %eax,%edx
  406b72:	7d 2d                	jge    406ba1 <_ZN6google8protobuf8internal20RepeatedPtrFieldBase3AddINS0_16RepeatedPtrFieldIN5caffe9BlobProtoEE11TypeHandlerEEEPNT_4TypeESB_+0x5f>
  406b74:	48 8b 45 e8          	mov    -0x18(%rbp),%rax
  406b78:	48 8b 50 10          	mov    0x10(%rax),%rdx
  406b7c:	48 8b 45 e8          	mov    -0x18(%rbp),%rax
  406b80:	8b 40 08             	mov    0x8(%rax),%eax
  406b83:	8d 70 01             	lea    0x1(%rax),%esi
  406b86:	48 8b 4d e8          	mov    -0x18(%rbp),%rcx
  406b8a:	89 71 08             	mov    %esi,0x8(%rcx)
  406b8d:	48 98                	cltq   
  406b8f:	48 8b 44 c2 08       	mov    0x8(%rdx,%rax,8),%rax
  406b94:	48 89 c7             	mov    %rax,%rdi
  406b97:	e8 c3 13 00 00       	callq  407f5f <_ZN6google8protobuf8internal20RepeatedPtrFieldBase4castINS0_16RepeatedPtrFieldIN5caffe9BlobProtoEE11TypeHandlerEEEPNT_4TypeEPv>
  406b9c:	e9 8b 00 00 00       	jmpq   406c2c <_ZN6google8protobuf8internal20RepeatedPtrFieldBase3AddINS0_16RepeatedPtrFieldIN5caffe9BlobProtoEE11TypeHandlerEEEPNT_4TypeESB_+0xea>
  406ba1:	48 8b 45 e8          	mov    -0x18(%rbp),%rax
  406ba5:	48 8b 40 10          	mov    0x10(%rax),%rax
  406ba9:	48 85 c0             	test   %rax,%rax
  406bac:	74 15                	je     406bc3 <_ZN6google8protobuf8internal20RepeatedPtrFieldBase3AddINS0_16RepeatedPtrFieldIN5caffe9BlobProtoEE11TypeHandlerEEEPNT_4TypeESB_+0x81>
  406bae:	48 8b 45 e8          	mov    -0x18(%rbp),%rax
  406bb2:	48 8b 40 10          	mov    0x10(%rax),%rax
  406bb6:	8b 10                	mov    (%rax),%edx
  406bb8:	48 8b 45 e8          	mov    -0x18(%rbp),%rax
  406bbc:	8b 40 0c             	mov    0xc(%rax),%eax
  406bbf:	39 c2                	cmp    %eax,%edx
  406bc1:	75 18                	jne    406bdb <_ZN6google8protobuf8internal20RepeatedPtrFieldBase3AddINS0_16RepeatedPtrFieldIN5caffe9BlobProtoEE11TypeHandlerEEEPNT_4TypeESB_+0x99>
  406bc3:	48 8b 45 e8          	mov    -0x18(%rbp),%rax
  406bc7:	8b 40 0c             	mov    0xc(%rax),%eax
  406bca:	8d 50 01             	lea    0x1(%rax),%edx
  406bcd:	48 8b 45 e8          	mov    -0x18(%rbp),%rax
  406bd1:	89 d6                	mov    %edx,%esi
  406bd3:	48 89 c7             	mov    %rax,%rdi
  406bd6:	e8 f5 dc ff ff       	callq  4048d0 <_ZN6google8protobuf8internal20RepeatedPtrFieldBase7ReserveEi@plt>
  406bdb:	48 8b 45 e8          	mov    -0x18(%rbp),%rax
  406bdf:	48 8b 40 10          	mov    0x10(%rax),%rax
  406be3:	8b 10                	mov    (%rax),%edx
  406be5:	83 c2 01             	add    $0x1,%edx
  406be8:	89 10                	mov    %edx,(%rax)
  406bea:	48 8b 45 e8          	mov    -0x18(%rbp),%rax
  406bee:	48 8b 10             	mov    (%rax),%rdx
  406bf1:	48 8b 45 e0          	mov    -0x20(%rbp),%rax
  406bf5:	48 89 d6             	mov    %rdx,%rsi
  406bf8:	48 89 c7             	mov    %rax,%rdi
  406bfb:	e8 6e 13 00 00       	callq  407f6e <_ZN6google8protobuf8internal18GenericTypeHandlerIN5caffe9BlobProtoEE16NewFromPrototypeEPKS4_PNS0_5ArenaE>
  406c00:	48 89 45 f8          	mov    %rax,-0x8(%rbp)
  406c04:	48 8b 45 e8          	mov    -0x18(%rbp),%rax
  406c08:	48 8b 50 10          	mov    0x10(%rax),%rdx
  406c0c:	48 8b 45 e8          	mov    -0x18(%rbp),%rax
  406c10:	8b 40 08             	mov    0x8(%rax),%eax
  406c13:	8d 70 01             	lea    0x1(%rax),%esi
  406c16:	48 8b 4d e8          	mov    -0x18(%rbp),%rcx
  406c1a:	89 71 08             	mov    %esi,0x8(%rcx)
  406c1d:	48 98                	cltq   
  406c1f:	48 8b 4d f8          	mov    -0x8(%rbp),%rcx
  406c23:	48 89 4c c2 08       	mov    %rcx,0x8(%rdx,%rax,8)
  406c28:	48 8b 45 f8          	mov    -0x8(%rbp),%rax
  406c2c:	c9                   	leaveq 
  406c2d:	c3                   	retq   

0000000000406c2e <_ZNSt12_Vector_baseIPN5caffe4BlobIfEESaIS3_EE12_Vector_implD1Ev>:
  406c2e:	55                   	push   %rbp
  406c2f:	48 89 e5             	mov    %rsp,%rbp
  406c32:	48 83 ec 10          	sub    $0x10,%rsp
  406c36:	48 89 7d f8          	mov    %rdi,-0x8(%rbp)
  406c3a:	48 8b 45 f8          	mov    -0x8(%rbp),%rax
  406c3e:	48 89 c7             	mov    %rax,%rdi
  406c41:	e8 84 13 00 00       	callq  407fca <_ZNSaIPN5caffe4BlobIfEEED1Ev>
  406c46:	90                   	nop
  406c47:	c9                   	leaveq 
  406c48:	c3                   	retq   
  406c49:	90                   	nop

0000000000406c4a <_ZNSt12_Vector_baseIPN5caffe4BlobIfEESaIS3_EEC1Ev>:
  406c4a:	55                   	push   %rbp
  406c4b:	48 89 e5             	mov    %rsp,%rbp
  406c4e:	48 83 ec 10          	sub    $0x10,%rsp
  406c52:	48 89 7d f8          	mov    %rdi,-0x8(%rbp)
  406c56:	48 8b 45 f8          	mov    -0x8(%rbp),%rax
  406c5a:	48 89 c7             	mov    %rax,%rdi
  406c5d:	e8 2a 13 00 00       	callq  407f8c <_ZNSt12_Vector_baseIPN5caffe4BlobIfEESaIS3_EE12_Vector_implC1Ev>
  406c62:	90                   	nop
  406c63:	c9                   	leaveq 
  406c64:	c3                   	retq   
  406c65:	90                   	nop

0000000000406c66 <_ZNSt12_Vector_baseIPN5caffe4BlobIfEESaIS3_EED1Ev>:
  406c66:	55                   	push   %rbp
  406c67:	48 89 e5             	mov    %rsp,%rbp
  406c6a:	48 83 ec 10          	sub    $0x10,%rsp
  406c6e:	48 89 7d f8          	mov    %rdi,-0x8(%rbp)
  406c72:	48 8b 45 f8          	mov    -0x8(%rbp),%rax
  406c76:	48 8b 40 10          	mov    0x10(%rax),%rax
  406c7a:	48 89 c2             	mov    %rax,%rdx
  406c7d:	48 8b 45 f8          	mov    -0x8(%rbp),%rax
  406c81:	48 8b 00             	mov    (%rax),%rax
  406c84:	48 29 c2             	sub    %rax,%rdx
  406c87:	48 89 d0             	mov    %rdx,%rax
  406c8a:	48 c1 f8 03          	sar    $0x3,%rax
  406c8e:	48 89 c2             	mov    %rax,%rdx
  406c91:	48 8b 45 f8          	mov    -0x8(%rbp),%rax
  406c95:	48 8b 08             	mov    (%rax),%rcx
  406c98:	48 8b 45 f8          	mov    -0x8(%rbp),%rax
  406c9c:	48 89 ce             	mov    %rcx,%rsi
  406c9f:	48 89 c7             	mov    %rax,%rdi
  406ca2:	e8 3f 13 00 00       	callq  407fe6 <_ZNSt12_Vector_baseIPN5caffe4BlobIfEESaIS3_EE13_M_deallocateEPS3_m>
  406ca7:	48 8b 45 f8          	mov    -0x8(%rbp),%rax
  406cab:	48 89 c7             	mov    %rax,%rdi
  406cae:	e8 7b ff ff ff       	callq  406c2e <_ZNSt12_Vector_baseIPN5caffe4BlobIfEESaIS3_EE12_Vector_implD1Ev>
  406cb3:	90                   	nop
  406cb4:	c9                   	leaveq 
  406cb5:	c3                   	retq   

0000000000406cb6 <_ZNSt12_Vector_baseIPN5caffe4BlobIfEESaIS3_EE19_M_get_Tp_allocatorEv>:
  406cb6:	55                   	push   %rbp
  406cb7:	48 89 e5             	mov    %rsp,%rbp
  406cba:	48 89 7d f8          	mov    %rdi,-0x8(%rbp)
  406cbe:	48 8b 45 f8          	mov    -0x8(%rbp),%rax
  406cc2:	5d                   	pop    %rbp
  406cc3:	c3                   	retq   

0000000000406cc4 <_ZSt8_DestroyIPPN5caffe4BlobIfEES3_EvT_S5_RSaIT0_E>:
  406cc4:	55                   	push   %rbp
  406cc5:	48 89 e5             	mov    %rsp,%rbp
  406cc8:	48 83 ec 20          	sub    $0x20,%rsp
  406ccc:	48 89 7d f8          	mov    %rdi,-0x8(%rbp)
  406cd0:	48 89 75 f0          	mov    %rsi,-0x10(%rbp)
  406cd4:	48 89 55 e8          	mov    %rdx,-0x18(%rbp)
  406cd8:	48 8b 55 f0          	mov    -0x10(%rbp),%rdx
  406cdc:	48 8b 45 f8          	mov    -0x8(%rbp),%rax
  406ce0:	48 89 d6             	mov    %rdx,%rsi
  406ce3:	48 89 c7             	mov    %rax,%rdi
  406ce6:	e8 30 13 00 00       	callq  40801b <_ZSt8_DestroyIPPN5caffe4BlobIfEEEvT_S5_>
  406ceb:	90                   	nop
  406cec:	c9                   	leaveq 
  406ced:	c3                   	retq   

0000000000406cee <_ZSt7forwardIRKPN5caffe4BlobIfEEEOT_RNSt16remove_referenceIS6_E4typeE>:
  406cee:	55                   	push   %rbp
  406cef:	48 89 e5             	mov    %rsp,%rbp
  406cf2:	48 89 7d f8          	mov    %rdi,-0x8(%rbp)
  406cf6:	48 8b 45 f8          	mov    -0x8(%rbp),%rax
  406cfa:	5d                   	pop    %rbp
  406cfb:	c3                   	retq   

0000000000406cfc <_ZNSt16allocator_traitsISaIPN5caffe4BlobIfEEEE9constructIS3_JRKS3_EEEvRS4_PT_DpOT0_>:
  406cfc:	55                   	push   %rbp
  406cfd:	48 89 e5             	mov    %rsp,%rbp
  406d00:	48 83 ec 20          	sub    $0x20,%rsp
  406d04:	48 89 7d f8          	mov    %rdi,-0x8(%rbp)
  406d08:	48 89 75 f0          	mov    %rsi,-0x10(%rbp)
  406d0c:	48 89 55 e8          	mov    %rdx,-0x18(%rbp)
  406d10:	48 8b 45 e8          	mov    -0x18(%rbp),%rax
  406d14:	48 89 c7             	mov    %rax,%rdi
  406d17:	e8 d2 ff ff ff       	callq  406cee <_ZSt7forwardIRKPN5caffe4BlobIfEEEOT_RNSt16remove_referenceIS6_E4typeE>
  406d1c:	48 89 c2             	mov    %rax,%rdx
  406d1f:	48 8b 4d f0          	mov    -0x10(%rbp),%rcx
  406d23:	48 8b 45 f8          	mov    -0x8(%rbp),%rax
  406d27:	48 89 ce             	mov    %rcx,%rsi
  406d2a:	48 89 c7             	mov    %rax,%rdi
  406d2d:	e8 10 13 00 00       	callq  408042 <_ZN9__gnu_cxx13new_allocatorIPN5caffe4BlobIfEEE9constructIS4_JRKS4_EEEvPT_DpOT0_>
  406d32:	90                   	nop
  406d33:	c9                   	leaveq 
  406d34:	c3                   	retq   
  406d35:	90                   	nop

0000000000406d36 <_ZNSt6vectorIPN5caffe4BlobIfEESaIS3_EE19_M_emplace_back_auxIJRKS3_EEEvDpOT_>:
  406d36:	55                   	push   %rbp
  406d37:	48 89 e5             	mov    %rsp,%rbp
  406d3a:	53                   	push   %rbx
  406d3b:	48 83 ec 38          	sub    $0x38,%rsp
  406d3f:	48 89 7d c8          	mov    %rdi,-0x38(%rbp)
  406d43:	48 89 75 c0          	mov    %rsi,-0x40(%rbp)
  406d47:	48 8b 45 c8          	mov    -0x38(%rbp),%rax
  406d4b:	ba 5a bd 40 00       	mov    $0x40bd5a,%edx
  406d50:	be 01 00 00 00       	mov    $0x1,%esi
  406d55:	48 89 c7             	mov    %rax,%rdi
  406d58:	e8 2b 13 00 00       	callq  408088 <_ZNKSt6vectorIPN5caffe4BlobIfEESaIS3_EE12_M_check_lenEmPKc>
  406d5d:	48 89 45 e0          	mov    %rax,-0x20(%rbp)
  406d61:	48 8b 45 c8          	mov    -0x38(%rbp),%rax
  406d65:	48 8b 55 e0          	mov    -0x20(%rbp),%rdx
  406d69:	48 89 d6             	mov    %rdx,%rsi
  406d6c:	48 89 c7             	mov    %rax,%rdi
  406d6f:	e8 00 14 00 00       	callq  408174 <_ZNSt12_Vector_baseIPN5caffe4BlobIfEESaIS3_EE11_M_allocateEm>
  406d74:	48 89 45 e8          	mov    %rax,-0x18(%rbp)
  406d78:	48 8b 45 e8          	mov    -0x18(%rbp),%rax
  406d7c:	48 89 45 d8          	mov    %rax,-0x28(%rbp)
  406d80:	48 8b 45 c0          	mov    -0x40(%rbp),%rax
  406d84:	48 89 c7             	mov    %rax,%rdi
  406d87:	e8 62 ff ff ff       	callq  406cee <_ZSt7forwardIRKPN5caffe4BlobIfEEEOT_RNSt16remove_referenceIS6_E4typeE>
  406d8c:	48 89 c3             	mov    %rax,%rbx
  406d8f:	48 8b 45 c8          	mov    -0x38(%rbp),%rax
  406d93:	48 89 c7             	mov    %rax,%rdi
  406d96:	e8 a5 0f 00 00       	callq  407d40 <_ZNKSt6vectorIPN5caffe4BlobIfEESaIS3_EE4sizeEv>
  406d9b:	48 8d 14 c5 00 00 00 	lea    0x0(,%rax,8),%rdx
  406da2:	00 
  406da3:	48 8b 45 e8          	mov    -0x18(%rbp),%rax
  406da7:	48 8d 0c 02          	lea    (%rdx,%rax,1),%rcx
  406dab:	48 8b 45 c8          	mov    -0x38(%rbp),%rax
  406daf:	48 89 da             	mov    %rbx,%rdx
  406db2:	48 89 ce             	mov    %rcx,%rsi
  406db5:	48 89 c7             	mov    %rax,%rdi
  406db8:	e8 3f ff ff ff       	callq  406cfc <_ZNSt16allocator_traitsISaIPN5caffe4BlobIfEEEE9constructIS3_JRKS3_EEEvRS4_PT_DpOT0_>
  406dbd:	48 c7 45 d8 00 00 00 	movq   $0x0,-0x28(%rbp)
  406dc4:	00 
  406dc5:	48 8b 45 c8          	mov    -0x38(%rbp),%rax
  406dc9:	48 89 c7             	mov    %rax,%rdi
  406dcc:	e8 e5 fe ff ff       	callq  406cb6 <_ZNSt12_Vector_baseIPN5caffe4BlobIfEESaIS3_EE19_M_get_Tp_allocatorEv>
  406dd1:	48 89 c1             	mov    %rax,%rcx
  406dd4:	48 8b 45 c8          	mov    -0x38(%rbp),%rax
  406dd8:	48 8b 70 08          	mov    0x8(%rax),%rsi
  406ddc:	48 8b 45 c8          	mov    -0x38(%rbp),%rax
  406de0:	48 8b 00             	mov    (%rax),%rax
  406de3:	48 8b 55 e8          	mov    -0x18(%rbp),%rdx
  406de7:	48 89 c7             	mov    %rax,%rdi
  406dea:	e8 b8 13 00 00       	callq  4081a7 <_ZSt34__uninitialized_move_if_noexcept_aIPPN5caffe4BlobIfEES4_SaIS3_EET0_T_S7_S6_RT1_>
  406def:	48 89 45 d8          	mov    %rax,-0x28(%rbp)
  406df3:	48 83 45 d8 08       	addq   $0x8,-0x28(%rbp)
  406df8:	48 8b 45 c8          	mov    -0x38(%rbp),%rax
  406dfc:	48 89 c7             	mov    %rax,%rdi
  406dff:	e8 b2 fe ff ff       	callq  406cb6 <_ZNSt12_Vector_baseIPN5caffe4BlobIfEESaIS3_EE19_M_get_Tp_allocatorEv>
  406e04:	48 89 c2             	mov    %rax,%rdx
  406e07:	48 8b 45 c8          	mov    -0x38(%rbp),%rax
  406e0b:	48 8b 48 08          	mov    0x8(%rax),%rcx
  406e0f:	48 8b 45 c8          	mov    -0x38(%rbp),%rax
  406e13:	48 8b 00             	mov    (%rax),%rax
  406e16:	48 89 ce             	mov    %rcx,%rsi
  406e19:	48 89 c7             	mov    %rax,%rdi
  406e1c:	e8 a3 fe ff ff       	callq  406cc4 <_ZSt8_DestroyIPPN5caffe4BlobIfEES3_EvT_S5_RSaIT0_E>
  406e21:	48 8b 45 c8          	mov    -0x38(%rbp),%rax
  406e25:	48 8b 40 10          	mov    0x10(%rax),%rax
  406e29:	48 89 c2             	mov    %rax,%rdx
  406e2c:	48 8b 45 c8          	mov    -0x38(%rbp),%rax
  406e30:	48 8b 00             	mov    (%rax),%rax
  406e33:	48 29 c2             	sub    %rax,%rdx
  406e36:	48 89 d0             	mov    %rdx,%rax
  406e39:	48 c1 f8 03          	sar    $0x3,%rax
  406e3d:	48 89 c2             	mov    %rax,%rdx
  406e40:	48 8b 45 c8          	mov    -0x38(%rbp),%rax
  406e44:	48 8b 08             	mov    (%rax),%rcx
  406e47:	48 8b 45 c8          	mov    -0x38(%rbp),%rax
  406e4b:	48 89 ce             	mov    %rcx,%rsi
  406e4e:	48 89 c7             	mov    %rax,%rdi
  406e51:	e8 90 11 00 00       	callq  407fe6 <_ZNSt12_Vector_baseIPN5caffe4BlobIfEESaIS3_EE13_M_deallocateEPS3_m>
  406e56:	48 8b 45 c8          	mov    -0x38(%rbp),%rax
  406e5a:	48 8b 55 e8          	mov    -0x18(%rbp),%rdx
  406e5e:	48 89 10             	mov    %rdx,(%rax)
  406e61:	48 8b 45 c8          	mov    -0x38(%rbp),%rax
  406e65:	48 8b 55 d8          	mov    -0x28(%rbp),%rdx
  406e69:	48 89 50 08          	mov    %rdx,0x8(%rax)
  406e6d:	48 8b 45 e0          	mov    -0x20(%rbp),%rax
  406e71:	48 8d 14 c5 00 00 00 	lea    0x0(,%rax,8),%rdx
  406e78:	00 
  406e79:	48 8b 45 e8          	mov    -0x18(%rbp),%rax
  406e7d:	48 01 c2             	add    %rax,%rdx
  406e80:	48 8b 45 c8          	mov    -0x38(%rbp),%rax
  406e84:	48 89 50 10          	mov    %rdx,0x10(%rax)
  406e88:	e9 8c 00 00 00       	jmpq   406f19 <_ZNSt6vectorIPN5caffe4BlobIfEESaIS3_EE19_M_emplace_back_auxIJRKS3_EEEvDpOT_+0x1e3>
  406e8d:	48 89 c7             	mov    %rax,%rdi
  406e90:	e8 5b d5 ff ff       	callq  4043f0 <__cxa_begin_catch@plt>
  406e95:	48 83 7d d8 00       	cmpq   $0x0,-0x28(%rbp)
  406e9a:	75 2c                	jne    406ec8 <_ZNSt6vectorIPN5caffe4BlobIfEESaIS3_EE19_M_emplace_back_auxIJRKS3_EEEvDpOT_+0x192>
  406e9c:	48 8b 45 c8          	mov    -0x38(%rbp),%rax
  406ea0:	48 89 c7             	mov    %rax,%rdi
  406ea3:	e8 98 0e 00 00       	callq  407d40 <_ZNKSt6vectorIPN5caffe4BlobIfEESaIS3_EE4sizeEv>
  406ea8:	48 8d 14 c5 00 00 00 	lea    0x0(,%rax,8),%rdx
  406eaf:	00 
  406eb0:	48 8b 45 e8          	mov    -0x18(%rbp),%rax
  406eb4:	48 01 c2             	add    %rax,%rdx
  406eb7:	48 8b 45 c8          	mov    -0x38(%rbp),%rax
  406ebb:	48 89 d6             	mov    %rdx,%rsi
  406ebe:	48 89 c7             	mov    %rax,%rdi
  406ec1:	e8 35 13 00 00       	callq  4081fb <_ZNSt16allocator_traitsISaIPN5caffe4BlobIfEEEE7destroyIS3_EEvRS4_PT_>
  406ec6:	eb 22                	jmp    406eea <_ZNSt6vectorIPN5caffe4BlobIfEESaIS3_EE19_M_emplace_back_auxIJRKS3_EEEvDpOT_+0x1b4>
  406ec8:	48 8b 45 c8          	mov    -0x38(%rbp),%rax
  406ecc:	48 89 c7             	mov    %rax,%rdi
  406ecf:	e8 e2 fd ff ff       	callq  406cb6 <_ZNSt12_Vector_baseIPN5caffe4BlobIfEESaIS3_EE19_M_get_Tp_allocatorEv>
  406ed4:	48 89 c2             	mov    %rax,%rdx
  406ed7:	48 8b 4d d8          	mov    -0x28(%rbp),%rcx
  406edb:	48 8b 45 e8          	mov    -0x18(%rbp),%rax
  406edf:	48 89 ce             	mov    %rcx,%rsi
  406ee2:	48 89 c7             	mov    %rax,%rdi
  406ee5:	e8 da fd ff ff       	callq  406cc4 <_ZSt8_DestroyIPPN5caffe4BlobIfEES3_EvT_S5_RSaIT0_E>
  406eea:	48 8b 45 c8          	mov    -0x38(%rbp),%rax
  406eee:	48 8b 55 e0          	mov    -0x20(%rbp),%rdx
  406ef2:	48 8b 4d e8          	mov    -0x18(%rbp),%rcx
  406ef6:	48 89 ce             	mov    %rcx,%rsi
  406ef9:	48 89 c7             	mov    %rax,%rdi
  406efc:	e8 e5 10 00 00       	callq  407fe6 <_ZNSt12_Vector_baseIPN5caffe4BlobIfEESaIS3_EE13_M_deallocateEPS3_m>
  406f01:	e8 0a d8 ff ff       	callq  404710 <__cxa_rethrow@plt>
  406f06:	48 89 c3             	mov    %rax,%rbx
  406f09:	e8 d2 d7 ff ff       	callq  4046e0 <__cxa_end_catch@plt>
  406f0e:	48 89 d8             	mov    %rbx,%rax
  406f11:	48 89 c7             	mov    %rax,%rdi
  406f14:	e8 57 d7 ff ff       	callq  404670 <_Unwind_Resume@plt>
  406f19:	48 83 c4 38          	add    $0x38,%rsp
  406f1d:	5b                   	pop    %rbx
  406f1e:	5d                   	pop    %rbp
  406f1f:	c3                   	retq   

0000000000406f20 <_ZN5caffe5LayerIfEC1ERKNS_14LayerParameterE>:
  406f20:	55                   	push   %rbp
  406f21:	48 89 e5             	mov    %rsp,%rbp
  406f24:	53                   	push   %rbx
  406f25:	48 83 ec 28          	sub    $0x28,%rsp
  406f29:	48 89 7d d8          	mov    %rdi,-0x28(%rbp)
  406f2d:	48 89 75 d0          	mov    %rsi,-0x30(%rbp)
  406f31:	ba 88 c3 40 00       	mov    $0x40c388,%edx
  406f36:	48 8b 45 d8          	mov    -0x28(%rbp),%rax
  406f3a:	48 89 10             	mov    %rdx,(%rax)
  406f3d:	48 8b 45 d8          	mov    -0x28(%rbp),%rax
  406f41:	48 8d 50 08          	lea    0x8(%rax),%rdx
  406f45:	48 8b 45 d0          	mov    -0x30(%rbp),%rax
  406f49:	48 89 c6             	mov    %rax,%rsi
  406f4c:	48 89 d7             	mov    %rdx,%rdi
  406f4f:	e8 1c d9 ff ff       	callq  404870 <_ZN5caffe14LayerParameterC1ERKS0_@plt>
  406f54:	48 8b 45 d8          	mov    -0x28(%rbp),%rax
  406f58:	48 05 68 02 00 00    	add    $0x268,%rax
  406f5e:	48 89 c7             	mov    %rax,%rdi
  406f61:	e8 bc 12 00 00       	callq  408222 <_ZNSt6vectorIN5boost10shared_ptrIN5caffe4BlobIfEEEESaIS5_EEC1Ev>
  406f66:	48 8b 45 d8          	mov    -0x28(%rbp),%rax
  406f6a:	48 05 80 02 00 00    	add    $0x280,%rax
  406f70:	48 89 c7             	mov    %rax,%rdi
  406f73:	e8 0a 13 00 00       	callq  408282 <_ZNSt6vectorIbSaIbEEC1Ev>
  406f78:	48 8b 45 d8          	mov    -0x28(%rbp),%rax
  406f7c:	48 05 a8 02 00 00    	add    $0x2a8,%rax
  406f82:	48 89 c7             	mov    %rax,%rdi
  406f85:	e8 30 13 00 00       	callq  4082ba <_ZNSt6vectorIfSaIfEEC1Ev>
  406f8a:	48 8b 45 d0          	mov    -0x30(%rbp),%rax
  406f8e:	48 89 c7             	mov    %rax,%rdi
  406f91:	e8 84 e1 ff ff       	callq  40511a <_ZNK5caffe14LayerParameter5phaseEv>
  406f96:	89 c2                	mov    %eax,%edx
  406f98:	48 8b 45 d8          	mov    -0x28(%rbp),%rax
  406f9c:	89 90 60 02 00 00    	mov    %edx,0x260(%rax)
  406fa2:	48 8b 45 d8          	mov    -0x28(%rbp),%rax
  406fa6:	48 83 c0 08          	add    $0x8,%rax
  406faa:	48 89 c7             	mov    %rax,%rdi
  406fad:	e8 c4 e1 ff ff       	callq  405176 <_ZNK5caffe14LayerParameter10blobs_sizeEv>
  406fb2:	85 c0                	test   %eax,%eax
  406fb4:	0f 9f c0             	setg   %al
  406fb7:	84 c0                	test   %al,%al
  406fb9:	0f 84 30 01 00 00    	je     4070ef <_ZN5caffe5LayerIfEC1ERKNS_14LayerParameterE+0x1cf>
  406fbf:	48 8b 45 d8          	mov    -0x28(%rbp),%rax
  406fc3:	48 83 c0 08          	add    $0x8,%rax
  406fc7:	48 89 c7             	mov    %rax,%rdi
  406fca:	e8 a7 e1 ff ff       	callq  405176 <_ZNK5caffe14LayerParameter10blobs_sizeEv>
  406fcf:	48 98                	cltq   
  406fd1:	48 8b 55 d8          	mov    -0x28(%rbp),%rdx
  406fd5:	48 81 c2 68 02 00 00 	add    $0x268,%rdx
  406fdc:	48 89 c6             	mov    %rax,%rsi
  406fdf:	48 89 d7             	mov    %rdx,%rdi
  406fe2:	e8 33 13 00 00       	callq  40831a <_ZNSt6vectorIN5boost10shared_ptrIN5caffe4BlobIfEEEESaIS5_EE6resizeEm>
  406fe7:	c7 45 ec 00 00 00 00 	movl   $0x0,-0x14(%rbp)
  406fee:	48 8b 45 d8          	mov    -0x28(%rbp),%rax
  406ff2:	48 83 c0 08          	add    $0x8,%rax
  406ff6:	48 89 c7             	mov    %rax,%rdi
  406ff9:	e8 78 e1 ff ff       	callq  405176 <_ZNK5caffe14LayerParameter10blobs_sizeEv>
  406ffe:	3b 45 ec             	cmp    -0x14(%rbp),%eax
  407001:	0f 9f c0             	setg   %al
  407004:	84 c0                	test   %al,%al
  407006:	0f 84 e3 00 00 00    	je     4070ef <_ZN5caffe5LayerIfEC1ERKNS_14LayerParameterE+0x1cf>
  40700c:	bf 50 00 00 00       	mov    $0x50,%edi
  407011:	e8 6a d4 ff ff       	callq  404480 <_Znwm@plt>
  407016:	48 89 c3             	mov    %rax,%rbx
  407019:	48 89 df             	mov    %rbx,%rdi
  40701c:	e8 5f 01 00 00       	callq  407180 <_ZN5caffe4BlobIfEC1Ev>
  407021:	8b 45 ec             	mov    -0x14(%rbp),%eax
  407024:	48 98                	cltq   
  407026:	48 8b 55 d8          	mov    -0x28(%rbp),%rdx
  40702a:	48 81 c2 68 02 00 00 	add    $0x268,%rdx
  407031:	48 89 c6             	mov    %rax,%rsi
  407034:	48 89 d7             	mov    %rdx,%rdi
  407037:	e8 6a 13 00 00       	callq  4083a6 <_ZNSt6vectorIN5boost10shared_ptrIN5caffe4BlobIfEEEESaIS5_EEixEm>
  40703c:	48 89 de             	mov    %rbx,%rsi
  40703f:	48 89 c7             	mov    %rax,%rdi
  407042:	e8 9f 13 00 00       	callq  4083e6 <_ZN5boost10shared_ptrIN5caffe4BlobIfEEE5resetIS3_EEvPT_>
  407047:	48 8b 45 d8          	mov    -0x28(%rbp),%rax
  40704b:	48 8d 50 08          	lea    0x8(%rax),%rdx
  40704f:	8b 45 ec             	mov    -0x14(%rbp),%eax
  407052:	89 c6                	mov    %eax,%esi
  407054:	48 89 d7             	mov    %rdx,%rdi
  407057:	e8 58 e1 ff ff       	callq  4051b4 <_ZNK5caffe14LayerParameter5blobsEi>
  40705c:	48 89 c3             	mov    %rax,%rbx
  40705f:	8b 45 ec             	mov    -0x14(%rbp),%eax
  407062:	48 98                	cltq   
  407064:	48 8b 55 d8          	mov    -0x28(%rbp),%rdx
  407068:	48 81 c2 68 02 00 00 	add    $0x268,%rdx
  40706f:	48 89 c6             	mov    %rax,%rsi
  407072:	48 89 d7             	mov    %rdx,%rdi
  407075:	e8 2c 13 00 00       	callq  4083a6 <_ZNSt6vectorIN5boost10shared_ptrIN5caffe4BlobIfEEEESaIS5_EEixEm>
  40707a:	48 89 c7             	mov    %rax,%rdi
  40707d:	e8 fa 13 00 00       	callq  40847c <_ZNK5boost10shared_ptrIN5caffe4BlobIfEEEptEv>
  407082:	ba 01 00 00 00       	mov    $0x1,%edx
  407087:	48 89 de             	mov    %rbx,%rsi
  40708a:	48 89 c7             	mov    %rax,%rdi
  40708d:	e8 9e d8 ff ff       	callq  404930 <_ZN5caffe4BlobIfE9FromProtoERKNS_9BlobProtoEb@plt>
  407092:	83 45 ec 01          	addl   $0x1,-0x14(%rbp)
  407096:	e9 53 ff ff ff       	jmpq   406fee <_ZN5caffe5LayerIfEC1ERKNS_14LayerParameterE+0xce>
  40709b:	48 89 c3             	mov    %rax,%rbx
  40709e:	48 8b 45 d8          	mov    -0x28(%rbp),%rax
  4070a2:	48 05 a8 02 00 00    	add    $0x2a8,%rax
  4070a8:	48 89 c7             	mov    %rax,%rdi
  4070ab:	e8 26 12 00 00       	callq  4082d6 <_ZNSt6vectorIfSaIfEED1Ev>
  4070b0:	48 8b 45 d8          	mov    -0x28(%rbp),%rax
  4070b4:	48 05 80 02 00 00    	add    $0x280,%rax
  4070ba:	48 89 c7             	mov    %rax,%rdi
  4070bd:	e8 dc 11 00 00       	callq  40829e <_ZNSt6vectorIbSaIbEED1Ev>
  4070c2:	48 8b 45 d8          	mov    -0x28(%rbp),%rax
  4070c6:	48 05 68 02 00 00    	add    $0x268,%rax
  4070cc:	48 89 c7             	mov    %rax,%rdi
  4070cf:	e8 6a 11 00 00       	callq  40823e <_ZNSt6vectorIN5boost10shared_ptrIN5caffe4BlobIfEEEESaIS5_EED1Ev>
  4070d4:	48 8b 45 d8          	mov    -0x28(%rbp),%rax
  4070d8:	48 83 c0 08          	add    $0x8,%rax
  4070dc:	48 89 c7             	mov    %rax,%rdi
  4070df:	e8 2c d8 ff ff       	callq  404910 <_ZN5caffe14LayerParameterD1Ev@plt>
  4070e4:	48 89 d8             	mov    %rbx,%rax
  4070e7:	48 89 c7             	mov    %rax,%rdi
  4070ea:	e8 81 d5 ff ff       	callq  404670 <_Unwind_Resume@plt>
  4070ef:	90                   	nop
  4070f0:	48 83 c4 28          	add    $0x28,%rsp
  4070f4:	5b                   	pop    %rbx
  4070f5:	5d                   	pop    %rbp
  4070f6:	c3                   	retq   
  4070f7:	90                   	nop

00000000004070f8 <_ZN5caffe5LayerIfED1Ev>:
  4070f8:	55                   	push   %rbp
  4070f9:	48 89 e5             	mov    %rsp,%rbp
  4070fc:	48 83 ec 10          	sub    $0x10,%rsp
  407100:	48 89 7d f8          	mov    %rdi,-0x8(%rbp)
  407104:	ba 88 c3 40 00       	mov    $0x40c388,%edx
  407109:	48 8b 45 f8          	mov    -0x8(%rbp),%rax
  40710d:	48 89 10             	mov    %rdx,(%rax)
  407110:	48 8b 45 f8          	mov    -0x8(%rbp),%rax
  407114:	48 05 a8 02 00 00    	add    $0x2a8,%rax
  40711a:	48 89 c7             	mov    %rax,%rdi
  40711d:	e8 b4 11 00 00       	callq  4082d6 <_ZNSt6vectorIfSaIfEED1Ev>
  407122:	48 8b 45 f8          	mov    -0x8(%rbp),%rax
  407126:	48 05 80 02 00 00    	add    $0x280,%rax
  40712c:	48 89 c7             	mov    %rax,%rdi
  40712f:	e8 6a 11 00 00       	callq  40829e <_ZNSt6vectorIbSaIbEED1Ev>
  407134:	48 8b 45 f8          	mov    -0x8(%rbp),%rax
  407138:	48 05 68 02 00 00    	add    $0x268,%rax
  40713e:	48 89 c7             	mov    %rax,%rdi
  407141:	e8 f8 10 00 00       	callq  40823e <_ZNSt6vectorIN5boost10shared_ptrIN5caffe4BlobIfEEEESaIS5_EED1Ev>
  407146:	48 8b 45 f8          	mov    -0x8(%rbp),%rax
  40714a:	48 83 c0 08          	add    $0x8,%rax
  40714e:	48 89 c7             	mov    %rax,%rdi
  407151:	e8 ba d7 ff ff       	callq  404910 <_ZN5caffe14LayerParameterD1Ev@plt>
  407156:	90                   	nop
  407157:	c9                   	leaveq 
  407158:	c3                   	retq   
  407159:	90                   	nop

000000000040715a <_ZN5caffe5LayerIfED0Ev>:
  40715a:	55                   	push   %rbp
  40715b:	48 89 e5             	mov    %rsp,%rbp
  40715e:	48 83 ec 10          	sub    $0x10,%rsp
  407162:	48 89 7d f8          	mov    %rdi,-0x8(%rbp)
  407166:	48 8b 45 f8          	mov    -0x8(%rbp),%rax
  40716a:	48 89 c7             	mov    %rax,%rdi
  40716d:	e8 86 ff ff ff       	callq  4070f8 <_ZN5caffe5LayerIfED1Ev>
  407172:	48 8b 45 f8          	mov    -0x8(%rbp),%rax
  407176:	48 89 c7             	mov    %rax,%rdi
  407179:	e8 62 d4 ff ff       	callq  4045e0 <_ZdlPv@plt>
  40717e:	c9                   	leaveq 
  40717f:	c3                   	retq   

0000000000407180 <_ZN5caffe4BlobIfEC1Ev>:
  407180:	55                   	push   %rbp
  407181:	48 89 e5             	mov    %rsp,%rbp
  407184:	48 83 ec 10          	sub    $0x10,%rsp
  407188:	48 89 7d f8          	mov    %rdi,-0x8(%rbp)
  40718c:	48 8b 45 f8          	mov    -0x8(%rbp),%rax
  407190:	48 89 c7             	mov    %rax,%rdi
  407193:	e8 1e 13 00 00       	callq  4084b6 <_ZN5boost10shared_ptrIN5caffe12SyncedMemoryEEC1Ev>
  407198:	48 8b 45 f8          	mov    -0x8(%rbp),%rax
  40719c:	48 83 c0 10          	add    $0x10,%rax
  4071a0:	48 89 c7             	mov    %rax,%rdi
  4071a3:	e8 0e 13 00 00       	callq  4084b6 <_ZN5boost10shared_ptrIN5caffe12SyncedMemoryEEC1Ev>
  4071a8:	48 8b 45 f8          	mov    -0x8(%rbp),%rax
  4071ac:	48 83 c0 20          	add    $0x20,%rax
  4071b0:	48 89 c7             	mov    %rax,%rdi
  4071b3:	e8 fe 12 00 00       	callq  4084b6 <_ZN5boost10shared_ptrIN5caffe12SyncedMemoryEEC1Ev>
  4071b8:	48 8b 45 f8          	mov    -0x8(%rbp),%rax
  4071bc:	48 83 c0 30          	add    $0x30,%rax
  4071c0:	48 89 c7             	mov    %rax,%rdi
  4071c3:	e8 18 13 00 00       	callq  4084e0 <_ZNSt6vectorIiSaIiEEC1Ev>
  4071c8:	48 8b 45 f8          	mov    -0x8(%rbp),%rax
  4071cc:	c7 40 48 00 00 00 00 	movl   $0x0,0x48(%rax)
  4071d3:	48 8b 45 f8          	mov    -0x8(%rbp),%rax
  4071d7:	c7 40 4c 00 00 00 00 	movl   $0x0,0x4c(%rax)
  4071de:	90                   	nop
  4071df:	c9                   	leaveq 
  4071e0:	c3                   	retq   
  4071e1:	90                   	nop

00000000004071e2 <_ZN5caffe5LayerIfE15CheckBlobCountsERKSt6vectorIPNS_4BlobIfEESaIS5_EES9_>:
  4071e2:	55                   	push   %rbp
  4071e3:	48 89 e5             	mov    %rsp,%rbp
  4071e6:	41 54                	push   %r12
  4071e8:	53                   	push   %rbx
  4071e9:	48 83 c4 80          	add    $0xffffffffffffff80,%rsp
  4071ed:	48 89 7d 88          	mov    %rdi,-0x78(%rbp)
  4071f1:	48 89 75 80          	mov    %rsi,-0x80(%rbp)
  4071f5:	48 89 95 78 ff ff ff 	mov    %rdx,-0x88(%rbp)
  4071fc:	64 48 8b 04 25 28 00 	mov    %fs:0x28,%rax
  407203:	00 00 
  407205:	48 89 45 e8          	mov    %rax,-0x18(%rbp)
  407209:	31 c0                	xor    %eax,%eax
  40720b:	48 8b 45 88          	mov    -0x78(%rbp),%rax
  40720f:	48 8b 00             	mov    (%rax),%rax
  407212:	48 83 c0 30          	add    $0x30,%rax
  407216:	48 8b 00             	mov    (%rax),%rax
  407219:	48 8b 55 88          	mov    -0x78(%rbp),%rdx
  40721d:	48 89 d7             	mov    %rdx,%rdi
  407220:	ff d0                	callq  *%rax
  407222:	f7 d0                	not    %eax
  407224:	c1 e8 1f             	shr    $0x1f,%eax
  407227:	84 c0                	test   %al,%al
  407229:	0f 84 0a 01 00 00    	je     407339 <_ZN5caffe5LayerIfE15CheckBlobCountsERKSt6vectorIPNS_4BlobIfEESaIS5_EES9_+0x157>
  40722f:	48 8b 45 80          	mov    -0x80(%rbp),%rax
  407233:	48 89 c7             	mov    %rax,%rdi
  407236:	e8 05 0b 00 00       	callq  407d40 <_ZNKSt6vectorIPN5caffe4BlobIfEESaIS3_EE4sizeEv>
  40723b:	48 89 c7             	mov    %rax,%rdi
  40723e:	e8 53 db ff ff       	callq  404d96 <_ZN6google21GetReferenceableValueEm>
  407243:	48 89 45 d0          	mov    %rax,-0x30(%rbp)
  407247:	48 8b 45 88          	mov    -0x78(%rbp),%rax
  40724b:	48 8b 00             	mov    (%rax),%rax
  40724e:	48 83 c0 30          	add    $0x30,%rax
  407252:	48 8b 00             	mov    (%rax),%rax
  407255:	48 8b 55 88          	mov    -0x78(%rbp),%rdx
  407259:	48 89 d7             	mov    %rdx,%rdi
  40725c:	ff d0                	callq  *%rax
  40725e:	89 c7                	mov    %eax,%edi
  407260:	e8 25 db ff ff       	callq  404d8a <_ZN6google21GetReferenceableValueEi>
  407265:	89 45 90             	mov    %eax,-0x70(%rbp)
  407268:	48 8d 4d d0          	lea    -0x30(%rbp),%rcx
  40726c:	48 8d 45 90          	lea    -0x70(%rbp),%rax
  407270:	ba 78 bd 40 00       	mov    $0x40bd78,%edx
  407275:	48 89 ce             	mov    %rcx,%rsi
  407278:	48 89 c7             	mov    %rax,%rdi
  40727b:	e8 8b 12 00 00       	callq  40850b <_ZN6google12Check_EQImplIimEEPNSt7__cxx1112basic_stringIcSt11char_traitsIcESaIcEEERKT_RKT0_PKc>
  407280:	48 89 45 98          	mov    %rax,-0x68(%rbp)
  407284:	48 83 7d 98 00       	cmpq   $0x0,-0x68(%rbp)
  407289:	0f 84 aa 00 00 00    	je     407339 <_ZN5caffe5LayerIfE15CheckBlobCountsERKSt6vectorIPNS_4BlobIfEESaIS5_EES9_+0x157>
  40728f:	48 8b 45 88          	mov    -0x78(%rbp),%rax
  407293:	48 8b 00             	mov    (%rax),%rax
  407296:	48 83 c0 30          	add    $0x30,%rax
  40729a:	48 8b 00             	mov    (%rax),%rax
  40729d:	48 8b 55 88          	mov    -0x78(%rbp),%rdx
  4072a1:	48 89 d7             	mov    %rdx,%rdi
  4072a4:	ff d0                	callq  *%rax
  4072a6:	89 c3                	mov    %eax,%ebx
  4072a8:	48 8b 45 88          	mov    -0x78(%rbp),%rax
  4072ac:	48 8b 00             	mov    (%rax),%rax
  4072af:	48 83 c0 28          	add    $0x28,%rax
  4072b3:	48 8b 00             	mov    (%rax),%rax
  4072b6:	48 8b 55 88          	mov    -0x78(%rbp),%rdx
  4072ba:	48 89 d7             	mov    %rdx,%rdi
  4072bd:	ff d0                	callq  *%rax
  4072bf:	49 89 c4             	mov    %rax,%r12
  4072c2:	48 8b 55 98          	mov    -0x68(%rbp),%rdx
  4072c6:	48 8d 45 90          	lea    -0x70(%rbp),%rax
  4072ca:	48 89 d6             	mov    %rdx,%rsi
  4072cd:	48 89 c7             	mov    %rax,%rdi
  4072d0:	e8 9b da ff ff       	callq  404d70 <_ZN6google13CheckOpStringC1EPNSt7__cxx1112basic_stringIcSt11char_traitsIcESaIcEEE>
  4072d5:	48 8d 55 90          	lea    -0x70(%rbp),%rdx
  4072d9:	48 8d 45 d0          	lea    -0x30(%rbp),%rax
  4072dd:	48 89 d1             	mov    %rdx,%rcx
  4072e0:	ba 5d 01 00 00       	mov    $0x15d,%edx
  4072e5:	be a0 bb 40 00       	mov    $0x40bba0,%esi
  4072ea:	48 89 c7             	mov    %rax,%rdi
  4072ed:	e8 5e d3 ff ff       	callq  404650 <_ZN6google15LogMessageFatalC1EPKciRKNS_13CheckOpStringE@plt>
  4072f2:	48 8d 45 d0          	lea    -0x30(%rbp),%rax
  4072f6:	48 89 c7             	mov    %rax,%rdi
  4072f9:	e8 12 d5 ff ff       	callq  404810 <_ZN6google10LogMessage6streamEv@plt>
  4072fe:	4c 89 e6             	mov    %r12,%rsi
  407301:	48 89 c7             	mov    %rax,%rdi
  407304:	e8 e7 d2 ff ff       	callq  4045f0 <_ZStlsISt11char_traitsIcEERSt13basic_ostreamIcT_ES5_PKc@plt>
  407309:	be 9f bd 40 00       	mov    $0x40bd9f,%esi
  40730e:	48 89 c7             	mov    %rax,%rdi
  407311:	e8 da d2 ff ff       	callq  4045f0 <_ZStlsISt11char_traitsIcEERSt13basic_ostreamIcT_ES5_PKc@plt>
  407316:	89 de                	mov    %ebx,%esi
  407318:	48 89 c7             	mov    %rax,%rdi
  40731b:	e8 00 d2 ff ff       	callq  404520 <_ZNSolsEi@plt>
  407320:	be ad bd 40 00       	mov    $0x40bdad,%esi
  407325:	48 89 c7             	mov    %rax,%rdi
  407328:	e8 c3 d2 ff ff       	callq  4045f0 <_ZStlsISt11char_traitsIcEERSt13basic_ostreamIcT_ES5_PKc@plt>
  40732d:	48 8d 45 d0          	lea    -0x30(%rbp),%rax
  407331:	48 89 c7             	mov    %rax,%rdi
  407334:	e8 37 d4 ff ff       	callq  404770 <_ZN6google15LogMessageFatalD1Ev@plt>
  407339:	48 8b 45 88          	mov    -0x78(%rbp),%rax
  40733d:	48 8b 00             	mov    (%rax),%rax
  407340:	48 83 c0 38          	add    $0x38,%rax
  407344:	48 8b 00             	mov    (%rax),%rax
  407347:	48 8b 55 88          	mov    -0x78(%rbp),%rdx
  40734b:	48 89 d7             	mov    %rdx,%rdi
  40734e:	ff d0                	callq  *%rax
  407350:	f7 d0                	not    %eax
  407352:	c1 e8 1f             	shr    $0x1f,%eax
  407355:	84 c0                	test   %al,%al
  407357:	0f 84 0a 01 00 00    	je     407467 <_ZN5caffe5LayerIfE15CheckBlobCountsERKSt6vectorIPNS_4BlobIfEESaIS5_EES9_+0x285>
  40735d:	48 8b 45 80          	mov    -0x80(%rbp),%rax
  407361:	48 89 c7             	mov    %rax,%rdi
  407364:	e8 d7 09 00 00       	callq  407d40 <_ZNKSt6vectorIPN5caffe4BlobIfEESaIS3_EE4sizeEv>
  407369:	48 89 c7             	mov    %rax,%rdi
  40736c:	e8 25 da ff ff       	callq  404d96 <_ZN6google21GetReferenceableValueEm>
  407371:	48 89 45 d0          	mov    %rax,-0x30(%rbp)
  407375:	48 8b 45 88          	mov    -0x78(%rbp),%rax
  407379:	48 8b 00             	mov    (%rax),%rax
  40737c:	48 83 c0 38          	add    $0x38,%rax
  407380:	48 8b 00             	mov    (%rax),%rax
  407383:	48 8b 55 88          	mov    -0x78(%rbp),%rdx
  407387:	48 89 d7             	mov    %rdx,%rdi
  40738a:	ff d0                	callq  *%rax
  40738c:	89 c7                	mov    %eax,%edi
  40738e:	e8 f7 d9 ff ff       	callq  404d8a <_ZN6google21GetReferenceableValueEi>
  407393:	89 45 90             	mov    %eax,-0x70(%rbp)
  407396:	48 8d 4d d0          	lea    -0x30(%rbp),%rcx
  40739a:	48 8d 45 90          	lea    -0x70(%rbp),%rax
  40739e:	ba c8 bd 40 00       	mov    $0x40bdc8,%edx
  4073a3:	48 89 ce             	mov    %rcx,%rsi
  4073a6:	48 89 c7             	mov    %rax,%rdi
  4073a9:	e8 cf 11 00 00       	callq  40857d <_ZN6google12Check_LEImplIimEEPNSt7__cxx1112basic_stringIcSt11char_traitsIcESaIcEEERKT_RKT0_PKc>
  4073ae:	48 89 45 a0          	mov    %rax,-0x60(%rbp)
  4073b2:	48 83 7d a0 00       	cmpq   $0x0,-0x60(%rbp)
  4073b7:	0f 84 aa 00 00 00    	je     407467 <_ZN5caffe5LayerIfE15CheckBlobCountsERKSt6vectorIPNS_4BlobIfEESaIS5_EES9_+0x285>
  4073bd:	48 8b 45 88          	mov    -0x78(%rbp),%rax
  4073c1:	48 8b 00             	mov    (%rax),%rax
  4073c4:	48 83 c0 38          	add    $0x38,%rax
  4073c8:	48 8b 00             	mov    (%rax),%rax
  4073cb:	48 8b 55 88          	mov    -0x78(%rbp),%rdx
  4073cf:	48 89 d7             	mov    %rdx,%rdi
  4073d2:	ff d0                	callq  *%rax
  4073d4:	89 c3                	mov    %eax,%ebx
  4073d6:	48 8b 45 88          	mov    -0x78(%rbp),%rax
  4073da:	48 8b 00             	mov    (%rax),%rax
  4073dd:	48 83 c0 28          	add    $0x28,%rax
  4073e1:	48 8b 00             	mov    (%rax),%rax
  4073e4:	48 8b 55 88          	mov    -0x78(%rbp),%rdx
  4073e8:	48 89 d7             	mov    %rdx,%rdi
  4073eb:	ff d0                	callq  *%rax
  4073ed:	49 89 c4             	mov    %rax,%r12
  4073f0:	48 8b 55 a0          	mov    -0x60(%rbp),%rdx
  4073f4:	48 8d 45 90          	lea    -0x70(%rbp),%rax
  4073f8:	48 89 d6             	mov    %rdx,%rsi
  4073fb:	48 89 c7             	mov    %rax,%rdi
  4073fe:	e8 6d d9 ff ff       	callq  404d70 <_ZN6google13CheckOpStringC1EPNSt7__cxx1112basic_stringIcSt11char_traitsIcESaIcEEE>
  407403:	48 8d 55 90          	lea    -0x70(%rbp),%rdx
  407407:	48 8d 45 d0          	lea    -0x30(%rbp),%rax
  40740b:	48 89 d1             	mov    %rdx,%rcx
  40740e:	ba 62 01 00 00       	mov    $0x162,%edx
  407413:	be a0 bb 40 00       	mov    $0x40bba0,%esi
  407418:	48 89 c7             	mov    %rax,%rdi
  40741b:	e8 30 d2 ff ff       	callq  404650 <_ZN6google15LogMessageFatalC1EPKciRKNS_13CheckOpStringE@plt>
  407420:	48 8d 45 d0          	lea    -0x30(%rbp),%rax
  407424:	48 89 c7             	mov    %rax,%rdi
  407427:	e8 e4 d3 ff ff       	callq  404810 <_ZN6google10LogMessage6streamEv@plt>
  40742c:	4c 89 e6             	mov    %r12,%rsi
  40742f:	48 89 c7             	mov    %rax,%rdi
  407432:	e8 b9 d1 ff ff       	callq  4045f0 <_ZStlsISt11char_traitsIcEERSt13basic_ostreamIcT_ES5_PKc@plt>
  407437:	be ea bd 40 00       	mov    $0x40bdea,%esi
  40743c:	48 89 c7             	mov    %rax,%rdi
  40743f:	e8 ac d1 ff ff       	callq  4045f0 <_ZStlsISt11char_traitsIcEERSt13basic_ostreamIcT_ES5_PKc@plt>
  407444:	89 de                	mov    %ebx,%esi
  407446:	48 89 c7             	mov    %rax,%rdi
  407449:	e8 d2 d0 ff ff       	callq  404520 <_ZNSolsEi@plt>
  40744e:	be ad bd 40 00       	mov    $0x40bdad,%esi
  407453:	48 89 c7             	mov    %rax,%rdi
  407456:	e8 95 d1 ff ff       	callq  4045f0 <_ZStlsISt11char_traitsIcEERSt13basic_ostreamIcT_ES5_PKc@plt>
  40745b:	48 8d 45 d0          	lea    -0x30(%rbp),%rax
  40745f:	48 89 c7             	mov    %rax,%rdi
  407462:	e8 09 d3 ff ff       	callq  404770 <_ZN6google15LogMessageFatalD1Ev@plt>
  407467:	48 8b 45 88          	mov    -0x78(%rbp),%rax
  40746b:	48 8b 00             	mov    (%rax),%rax
  40746e:	48 83 c0 40          	add    $0x40,%rax
  407472:	48 8b 00             	mov    (%rax),%rax
  407475:	48 8b 55 88          	mov    -0x78(%rbp),%rdx
  407479:	48 89 d7             	mov    %rdx,%rdi
  40747c:	ff d0                	callq  *%rax
  40747e:	f7 d0                	not    %eax
  407480:	c1 e8 1f             	shr    $0x1f,%eax
  407483:	84 c0                	test   %al,%al
  407485:	0f 84 0a 01 00 00    	je     407595 <_ZN5caffe5LayerIfE15CheckBlobCountsERKSt6vectorIPNS_4BlobIfEESaIS5_EES9_+0x3b3>
  40748b:	48 8b 45 80          	mov    -0x80(%rbp),%rax
  40748f:	48 89 c7             	mov    %rax,%rdi
  407492:	e8 a9 08 00 00       	callq  407d40 <_ZNKSt6vectorIPN5caffe4BlobIfEESaIS3_EE4sizeEv>
  407497:	48 89 c7             	mov    %rax,%rdi
  40749a:	e8 f7 d8 ff ff       	callq  404d96 <_ZN6google21GetReferenceableValueEm>
  40749f:	48 89 45 d0          	mov    %rax,-0x30(%rbp)
  4074a3:	48 8b 45 88          	mov    -0x78(%rbp),%rax
  4074a7:	48 8b 00             	mov    (%rax),%rax
  4074aa:	48 83 c0 40          	add    $0x40,%rax
  4074ae:	48 8b 00             	mov    (%rax),%rax
  4074b1:	48 8b 55 88          	mov    -0x78(%rbp),%rdx
  4074b5:	48 89 d7             	mov    %rdx,%rdi
  4074b8:	ff d0                	callq  *%rax
  4074ba:	89 c7                	mov    %eax,%edi
  4074bc:	e8 c9 d8 ff ff       	callq  404d8a <_ZN6google21GetReferenceableValueEi>
  4074c1:	89 45 90             	mov    %eax,-0x70(%rbp)
  4074c4:	48 8d 4d d0          	lea    -0x30(%rbp),%rcx
  4074c8:	48 8d 45 90          	lea    -0x70(%rbp),%rax
  4074cc:	ba 08 be 40 00       	mov    $0x40be08,%edx
  4074d1:	48 89 ce             	mov    %rcx,%rsi
  4074d4:	48 89 c7             	mov    %rax,%rdi
  4074d7:	e8 03 11 00 00       	callq  4085df <_ZN6google12Check_GEImplIimEEPNSt7__cxx1112basic_stringIcSt11char_traitsIcESaIcEEERKT_RKT0_PKc>
  4074dc:	48 89 45 a8          	mov    %rax,-0x58(%rbp)
  4074e0:	48 83 7d a8 00       	cmpq   $0x0,-0x58(%rbp)
  4074e5:	0f 84 aa 00 00 00    	je     407595 <_ZN5caffe5LayerIfE15CheckBlobCountsERKSt6vectorIPNS_4BlobIfEESaIS5_EES9_+0x3b3>
  4074eb:	48 8b 45 88          	mov    -0x78(%rbp),%rax
  4074ef:	48 8b 00             	mov    (%rax),%rax
  4074f2:	48 83 c0 40          	add    $0x40,%rax
  4074f6:	48 8b 00             	mov    (%rax),%rax
  4074f9:	48 8b 55 88          	mov    -0x78(%rbp),%rdx
  4074fd:	48 89 d7             	mov    %rdx,%rdi
  407500:	ff d0                	callq  *%rax
  407502:	89 c3                	mov    %eax,%ebx
  407504:	48 8b 45 88          	mov    -0x78(%rbp),%rax
  407508:	48 8b 00             	mov    (%rax),%rax
  40750b:	48 83 c0 28          	add    $0x28,%rax
  40750f:	48 8b 00             	mov    (%rax),%rax
  407512:	48 8b 55 88          	mov    -0x78(%rbp),%rdx
  407516:	48 89 d7             	mov    %rdx,%rdi
  407519:	ff d0                	callq  *%rax
  40751b:	49 89 c4             	mov    %rax,%r12
  40751e:	48 8b 55 a8          	mov    -0x58(%rbp),%rdx
  407522:	48 8d 45 90          	lea    -0x70(%rbp),%rax
  407526:	48 89 d6             	mov    %rdx,%rsi
  407529:	48 89 c7             	mov    %rax,%rdi
  40752c:	e8 3f d8 ff ff       	callq  404d70 <_ZN6google13CheckOpStringC1EPNSt7__cxx1112basic_stringIcSt11char_traitsIcESaIcEEE>
  407531:	48 8d 55 90          	lea    -0x70(%rbp),%rdx
  407535:	48 8d 45 d0          	lea    -0x30(%rbp),%rax
  407539:	48 89 d1             	mov    %rdx,%rcx
  40753c:	ba 67 01 00 00       	mov    $0x167,%edx
  407541:	be a0 bb 40 00       	mov    $0x40bba0,%esi
  407546:	48 89 c7             	mov    %rax,%rdi
  407549:	e8 02 d1 ff ff       	callq  404650 <_ZN6google15LogMessageFatalC1EPKciRKNS_13CheckOpStringE@plt>
  40754e:	48 8d 45 d0          	lea    -0x30(%rbp),%rax
  407552:	48 89 c7             	mov    %rax,%rdi
  407555:	e8 b6 d2 ff ff       	callq  404810 <_ZN6google10LogMessage6streamEv@plt>
  40755a:	4c 89 e6             	mov    %r12,%rsi
  40755d:	48 89 c7             	mov    %rax,%rdi
  407560:	e8 8b d0 ff ff       	callq  4045f0 <_ZStlsISt11char_traitsIcEERSt13basic_ostreamIcT_ES5_PKc@plt>
  407565:	be 2a be 40 00       	mov    $0x40be2a,%esi
  40756a:	48 89 c7             	mov    %rax,%rdi
  40756d:	e8 7e d0 ff ff       	callq  4045f0 <_ZStlsISt11char_traitsIcEERSt13basic_ostreamIcT_ES5_PKc@plt>
  407572:	89 de                	mov    %ebx,%esi
  407574:	48 89 c7             	mov    %rax,%rdi
  407577:	e8 a4 cf ff ff       	callq  404520 <_ZNSolsEi@plt>
  40757c:	be ad bd 40 00       	mov    $0x40bdad,%esi
  407581:	48 89 c7             	mov    %rax,%rdi
  407584:	e8 67 d0 ff ff       	callq  4045f0 <_ZStlsISt11char_traitsIcEERSt13basic_ostreamIcT_ES5_PKc@plt>
  407589:	48 8d 45 d0          	lea    -0x30(%rbp),%rax
  40758d:	48 89 c7             	mov    %rax,%rdi
  407590:	e8 db d1 ff ff       	callq  404770 <_ZN6google15LogMessageFatalD1Ev@plt>
  407595:	48 8b 45 88          	mov    -0x78(%rbp),%rax
  407599:	48 8b 00             	mov    (%rax),%rax
  40759c:	48 83 c0 48          	add    $0x48,%rax
  4075a0:	48 8b 00             	mov    (%rax),%rax
  4075a3:	48 8b 55 88          	mov    -0x78(%rbp),%rdx
  4075a7:	48 89 d7             	mov    %rdx,%rdi
  4075aa:	ff d0                	callq  *%rax
  4075ac:	f7 d0                	not    %eax
  4075ae:	c1 e8 1f             	shr    $0x1f,%eax
  4075b1:	84 c0                	test   %al,%al
  4075b3:	0f 84 0d 01 00 00    	je     4076c6 <_ZN5caffe5LayerIfE15CheckBlobCountsERKSt6vectorIPNS_4BlobIfEESaIS5_EES9_+0x4e4>
  4075b9:	48 8b 85 78 ff ff ff 	mov    -0x88(%rbp),%rax
  4075c0:	48 89 c7             	mov    %rax,%rdi
  4075c3:	e8 78 07 00 00       	callq  407d40 <_ZNKSt6vectorIPN5caffe4BlobIfEESaIS3_EE4sizeEv>
  4075c8:	48 89 c7             	mov    %rax,%rdi
  4075cb:	e8 c6 d7 ff ff       	callq  404d96 <_ZN6google21GetReferenceableValueEm>
  4075d0:	48 89 45 d0          	mov    %rax,-0x30(%rbp)
  4075d4:	48 8b 45 88          	mov    -0x78(%rbp),%rax
  4075d8:	48 8b 00             	mov    (%rax),%rax
  4075db:	48 83 c0 48          	add    $0x48,%rax
  4075df:	48 8b 00             	mov    (%rax),%rax
  4075e2:	48 8b 55 88          	mov    -0x78(%rbp),%rdx
  4075e6:	48 89 d7             	mov    %rdx,%rdi
  4075e9:	ff d0                	callq  *%rax
  4075eb:	89 c7                	mov    %eax,%edi
  4075ed:	e8 98 d7 ff ff       	callq  404d8a <_ZN6google21GetReferenceableValueEi>
  4075f2:	89 45 90             	mov    %eax,-0x70(%rbp)
  4075f5:	48 8d 4d d0          	lea    -0x30(%rbp),%rcx
  4075f9:	48 8d 45 90          	lea    -0x70(%rbp),%rax
  4075fd:	ba 40 be 40 00       	mov    $0x40be40,%edx
  407602:	48 89 ce             	mov    %rcx,%rsi
  407605:	48 89 c7             	mov    %rax,%rdi
  407608:	e8 fe 0e 00 00       	callq  40850b <_ZN6google12Check_EQImplIimEEPNSt7__cxx1112basic_stringIcSt11char_traitsIcESaIcEEERKT_RKT0_PKc>
  40760d:	48 89 45 b0          	mov    %rax,-0x50(%rbp)
  407611:	48 83 7d b0 00       	cmpq   $0x0,-0x50(%rbp)
  407616:	0f 84 aa 00 00 00    	je     4076c6 <_ZN5caffe5LayerIfE15CheckBlobCountsERKSt6vectorIPNS_4BlobIfEESaIS5_EES9_+0x4e4>
  40761c:	48 8b 45 88          	mov    -0x78(%rbp),%rax
  407620:	48 8b 00             	mov    (%rax),%rax
  407623:	48 83 c0 48          	add    $0x48,%rax
  407627:	48 8b 00             	mov    (%rax),%rax
  40762a:	48 8b 55 88          	mov    -0x78(%rbp),%rdx
  40762e:	48 89 d7             	mov    %rdx,%rdi
  407631:	ff d0                	callq  *%rax
  407633:	89 c3                	mov    %eax,%ebx
  407635:	48 8b 45 88          	mov    -0x78(%rbp),%rax
  407639:	48 8b 00             	mov    (%rax),%rax
  40763c:	48 83 c0 28          	add    $0x28,%rax
  407640:	48 8b 00             	mov    (%rax),%rax
  407643:	48 8b 55 88          	mov    -0x78(%rbp),%rdx
  407647:	48 89 d7             	mov    %rdx,%rdi
  40764a:	ff d0                	callq  *%rax
  40764c:	49 89 c4             	mov    %rax,%r12
  40764f:	48 8b 55 b0          	mov    -0x50(%rbp),%rdx
  407653:	48 8d 45 90          	lea    -0x70(%rbp),%rax
  407657:	48 89 d6             	mov    %rdx,%rsi
  40765a:	48 89 c7             	mov    %rax,%rdi
  40765d:	e8 0e d7 ff ff       	callq  404d70 <_ZN6google13CheckOpStringC1EPNSt7__cxx1112basic_stringIcSt11char_traitsIcESaIcEEE>
  407662:	48 8d 55 90          	lea    -0x70(%rbp),%rdx
  407666:	48 8d 45 d0          	lea    -0x30(%rbp),%rax
  40766a:	48 89 d1             	mov    %rdx,%rcx
  40766d:	ba 6c 01 00 00       	mov    $0x16c,%edx
  407672:	be a0 bb 40 00       	mov    $0x40bba0,%esi
  407677:	48 89 c7             	mov    %rax,%rdi
  40767a:	e8 d1 cf ff ff       	callq  404650 <_ZN6google15LogMessageFatalC1EPKciRKNS_13CheckOpStringE@plt>
  40767f:	48 8d 45 d0          	lea    -0x30(%rbp),%rax
  407683:	48 89 c7             	mov    %rax,%rdi
  407686:	e8 85 d1 ff ff       	callq  404810 <_ZN6google10LogMessage6streamEv@plt>
  40768b:	4c 89 e6             	mov    %r12,%rsi
  40768e:	48 89 c7             	mov    %rax,%rdi
  407691:	e8 5a cf ff ff       	callq  4045f0 <_ZStlsISt11char_traitsIcEERSt13basic_ostreamIcT_ES5_PKc@plt>
  407696:	be 61 be 40 00       	mov    $0x40be61,%esi
  40769b:	48 89 c7             	mov    %rax,%rdi
  40769e:	e8 4d cf ff ff       	callq  4045f0 <_ZStlsISt11char_traitsIcEERSt13basic_ostreamIcT_ES5_PKc@plt>
  4076a3:	89 de                	mov    %ebx,%esi
  4076a5:	48 89 c7             	mov    %rax,%rdi
  4076a8:	e8 73 ce ff ff       	callq  404520 <_ZNSolsEi@plt>
  4076ad:	be 72 be 40 00       	mov    $0x40be72,%esi
  4076b2:	48 89 c7             	mov    %rax,%rdi
  4076b5:	e8 36 cf ff ff       	callq  4045f0 <_ZStlsISt11char_traitsIcEERSt13basic_ostreamIcT_ES5_PKc@plt>
  4076ba:	48 8d 45 d0          	lea    -0x30(%rbp),%rax
  4076be:	48 89 c7             	mov    %rax,%rdi
  4076c1:	e8 aa d0 ff ff       	callq  404770 <_ZN6google15LogMessageFatalD1Ev@plt>
  4076c6:	48 8b 45 88          	mov    -0x78(%rbp),%rax
  4076ca:	48 8b 00             	mov    (%rax),%rax
  4076cd:	48 83 c0 50          	add    $0x50,%rax
  4076d1:	48 8b 00             	mov    (%rax),%rax
  4076d4:	48 8b 55 88          	mov    -0x78(%rbp),%rdx
  4076d8:	48 89 d7             	mov    %rdx,%rdi
  4076db:	ff d0                	callq  *%rax
  4076dd:	f7 d0                	not    %eax
  4076df:	c1 e8 1f             	shr    $0x1f,%eax
  4076e2:	84 c0                	test   %al,%al
  4076e4:	0f 84 0d 01 00 00    	je     4077f7 <_ZN5caffe5LayerIfE15CheckBlobCountsERKSt6vectorIPNS_4BlobIfEESaIS5_EES9_+0x615>
  4076ea:	48 8b 85 78 ff ff ff 	mov    -0x88(%rbp),%rax
  4076f1:	48 89 c7             	mov    %rax,%rdi
  4076f4:	e8 47 06 00 00       	callq  407d40 <_ZNKSt6vectorIPN5caffe4BlobIfEESaIS3_EE4sizeEv>
  4076f9:	48 89 c7             	mov    %rax,%rdi
  4076fc:	e8 95 d6 ff ff       	callq  404d96 <_ZN6google21GetReferenceableValueEm>
  407701:	48 89 45 d0          	mov    %rax,-0x30(%rbp)
  407705:	48 8b 45 88          	mov    -0x78(%rbp),%rax
  407709:	48 8b 00             	mov    (%rax),%rax
  40770c:	48 83 c0 50          	add    $0x50,%rax
  407710:	48 8b 00             	mov    (%rax),%rax
  407713:	48 8b 55 88          	mov    -0x78(%rbp),%rdx
  407717:	48 89 d7             	mov    %rdx,%rdi
  40771a:	ff d0                	callq  *%rax
  40771c:	89 c7                	mov    %eax,%edi
  40771e:	e8 67 d6 ff ff       	callq  404d8a <_ZN6google21GetReferenceableValueEi>
  407723:	89 45 90             	mov    %eax,-0x70(%rbp)
  407726:	48 8d 4d d0          	lea    -0x30(%rbp),%rcx
  40772a:	48 8d 45 90          	lea    -0x70(%rbp),%rax
  40772e:	ba 8a be 40 00       	mov    $0x40be8a,%edx
  407733:	48 89 ce             	mov    %rcx,%rsi
  407736:	48 89 c7             	mov    %rax,%rdi
  407739:	e8 3f 0e 00 00       	callq  40857d <_ZN6google12Check_LEImplIimEEPNSt7__cxx1112basic_stringIcSt11char_traitsIcESaIcEEERKT_RKT0_PKc>
  40773e:	48 89 45 b8          	mov    %rax,-0x48(%rbp)
  407742:	48 83 7d b8 00       	cmpq   $0x0,-0x48(%rbp)
  407747:	0f 84 aa 00 00 00    	je     4077f7 <_ZN5caffe5LayerIfE15CheckBlobCountsERKSt6vectorIPNS_4BlobIfEESaIS5_EES9_+0x615>
  40774d:	48 8b 45 88          	mov    -0x78(%rbp),%rax
  407751:	48 8b 00             	mov    (%rax),%rax
  407754:	48 83 c0 50          	add    $0x50,%rax
  407758:	48 8b 00             	mov    (%rax),%rax
  40775b:	48 8b 55 88          	mov    -0x78(%rbp),%rdx
  40775f:	48 89 d7             	mov    %rdx,%rdi
  407762:	ff d0                	callq  *%rax
  407764:	89 c3                	mov    %eax,%ebx
  407766:	48 8b 45 88          	mov    -0x78(%rbp),%rax
  40776a:	48 8b 00             	mov    (%rax),%rax
  40776d:	48 83 c0 28          	add    $0x28,%rax
  407771:	48 8b 00             	mov    (%rax),%rax
  407774:	48 8b 55 88          	mov    -0x78(%rbp),%rdx
  407778:	48 89 d7             	mov    %rdx,%rdi
  40777b:	ff d0                	callq  *%rax
  40777d:	49 89 c4             	mov    %rax,%r12
  407780:	48 8b 55 b8          	mov    -0x48(%rbp),%rdx
  407784:	48 8d 45 90          	lea    -0x70(%rbp),%rax
  407788:	48 89 d6             	mov    %rdx,%rsi
  40778b:	48 89 c7             	mov    %rax,%rdi
  40778e:	e8 dd d5 ff ff       	callq  404d70 <_ZN6google13CheckOpStringC1EPNSt7__cxx1112basic_stringIcSt11char_traitsIcESaIcEEE>
  407793:	48 8d 55 90          	lea    -0x70(%rbp),%rdx
  407797:	48 8d 45 d0          	lea    -0x30(%rbp),%rax
  40779b:	48 89 d1             	mov    %rdx,%rcx
  40779e:	ba 71 01 00 00       	mov    $0x171,%edx
  4077a3:	be a0 bb 40 00       	mov    $0x40bba0,%esi
  4077a8:	48 89 c7             	mov    %rax,%rdi
  4077ab:	e8 a0 ce ff ff       	callq  404650 <_ZN6google15LogMessageFatalC1EPKciRKNS_13CheckOpStringE@plt>
  4077b0:	48 8d 45 d0          	lea    -0x30(%rbp),%rax
  4077b4:	48 89 c7             	mov    %rax,%rdi
  4077b7:	e8 54 d0 ff ff       	callq  404810 <_ZN6google10LogMessage6streamEv@plt>
  4077bc:	4c 89 e6             	mov    %r12,%rsi
  4077bf:	48 89 c7             	mov    %rax,%rdi
  4077c2:	e8 29 ce ff ff       	callq  4045f0 <_ZStlsISt11char_traitsIcEERSt13basic_ostreamIcT_ES5_PKc@plt>
  4077c7:	be a6 be 40 00       	mov    $0x40bea6,%esi
  4077cc:	48 89 c7             	mov    %rax,%rdi
  4077cf:	e8 1c ce ff ff       	callq  4045f0 <_ZStlsISt11char_traitsIcEERSt13basic_ostreamIcT_ES5_PKc@plt>
  4077d4:	89 de                	mov    %ebx,%esi
  4077d6:	48 89 c7             	mov    %rax,%rdi
  4077d9:	e8 42 cd ff ff       	callq  404520 <_ZNSolsEi@plt>
  4077de:	be 72 be 40 00       	mov    $0x40be72,%esi
  4077e3:	48 89 c7             	mov    %rax,%rdi
  4077e6:	e8 05 ce ff ff       	callq  4045f0 <_ZStlsISt11char_traitsIcEERSt13basic_ostreamIcT_ES5_PKc@plt>
  4077eb:	48 8d 45 d0          	lea    -0x30(%rbp),%rax
  4077ef:	48 89 c7             	mov    %rax,%rdi
  4077f2:	e8 79 cf ff ff       	callq  404770 <_ZN6google15LogMessageFatalD1Ev@plt>
  4077f7:	48 8b 45 88          	mov    -0x78(%rbp),%rax
  4077fb:	48 8b 00             	mov    (%rax),%rax
  4077fe:	48 83 c0 58          	add    $0x58,%rax
  407802:	48 8b 00             	mov    (%rax),%rax
  407805:	48 8b 55 88          	mov    -0x78(%rbp),%rdx
  407809:	48 89 d7             	mov    %rdx,%rdi
  40780c:	ff d0                	callq  *%rax
  40780e:	f7 d0                	not    %eax
  407810:	c1 e8 1f             	shr    $0x1f,%eax
  407813:	84 c0                	test   %al,%al
  407815:	0f 84 0d 01 00 00    	je     407928 <_ZN5caffe5LayerIfE15CheckBlobCountsERKSt6vectorIPNS_4BlobIfEESaIS5_EES9_+0x746>
  40781b:	48 8b 85 78 ff ff ff 	mov    -0x88(%rbp),%rax
  407822:	48 89 c7             	mov    %rax,%rdi
  407825:	e8 16 05 00 00       	callq  407d40 <_ZNKSt6vectorIPN5caffe4BlobIfEESaIS3_EE4sizeEv>
  40782a:	48 89 c7             	mov    %rax,%rdi
  40782d:	e8 64 d5 ff ff       	callq  404d96 <_ZN6google21GetReferenceableValueEm>
  407832:	48 89 45 d0          	mov    %rax,-0x30(%rbp)
  407836:	48 8b 45 88          	mov    -0x78(%rbp),%rax
  40783a:	48 8b 00             	mov    (%rax),%rax
  40783d:	48 83 c0 58          	add    $0x58,%rax
  407841:	48 8b 00             	mov    (%rax),%rax
  407844:	48 8b 55 88          	mov    -0x78(%rbp),%rdx
  407848:	48 89 d7             	mov    %rdx,%rdi
  40784b:	ff d0                	callq  *%rax
  40784d:	89 c7                	mov    %eax,%edi
  40784f:	e8 36 d5 ff ff       	callq  404d8a <_ZN6google21GetReferenceableValueEi>
  407854:	89 45 90             	mov    %eax,-0x70(%rbp)
  407857:	48 8d 4d d0          	lea    -0x30(%rbp),%rcx
  40785b:	48 8d 45 90          	lea    -0x70(%rbp),%rax
  40785f:	ba c0 be 40 00       	mov    $0x40bec0,%edx
  407864:	48 89 ce             	mov    %rcx,%rsi
  407867:	48 89 c7             	mov    %rax,%rdi
  40786a:	e8 70 0d 00 00       	callq  4085df <_ZN6google12Check_GEImplIimEEPNSt7__cxx1112basic_stringIcSt11char_traitsIcESaIcEEERKT_RKT0_PKc>
  40786f:	48 89 45 c0          	mov    %rax,-0x40(%rbp)
  407873:	48 83 7d c0 00       	cmpq   $0x0,-0x40(%rbp)
  407878:	0f 84 aa 00 00 00    	je     407928 <_ZN5caffe5LayerIfE15CheckBlobCountsERKSt6vectorIPNS_4BlobIfEESaIS5_EES9_+0x746>
  40787e:	48 8b 45 88          	mov    -0x78(%rbp),%rax
  407882:	48 8b 00             	mov    (%rax),%rax
  407885:	48 83 c0 58          	add    $0x58,%rax
  407889:	48 8b 00             	mov    (%rax),%rax
  40788c:	48 8b 55 88          	mov    -0x78(%rbp),%rdx
  407890:	48 89 d7             	mov    %rdx,%rdi
  407893:	ff d0                	callq  *%rax
  407895:	89 c3                	mov    %eax,%ebx
  407897:	48 8b 45 88          	mov    -0x78(%rbp),%rax
  40789b:	48 8b 00             	mov    (%rax),%rax
  40789e:	48 83 c0 28          	add    $0x28,%rax
  4078a2:	48 8b 00             	mov    (%rax),%rax
  4078a5:	48 8b 55 88          	mov    -0x78(%rbp),%rdx
  4078a9:	48 89 d7             	mov    %rdx,%rdi
  4078ac:	ff d0                	callq  *%rax
  4078ae:	49 89 c4             	mov    %rax,%r12
  4078b1:	48 8b 55 c0          	mov    -0x40(%rbp),%rdx
  4078b5:	48 8d 45 90          	lea    -0x70(%rbp),%rax
  4078b9:	48 89 d6             	mov    %rdx,%rsi
  4078bc:	48 89 c7             	mov    %rax,%rdi
  4078bf:	e8 ac d4 ff ff       	callq  404d70 <_ZN6google13CheckOpStringC1EPNSt7__cxx1112basic_stringIcSt11char_traitsIcESaIcEEE>
  4078c4:	48 8d 55 90          	lea    -0x70(%rbp),%rdx
  4078c8:	48 8d 45 d0          	lea    -0x30(%rbp),%rax
  4078cc:	48 89 d1             	mov    %rdx,%rcx
  4078cf:	ba 76 01 00 00       	mov    $0x176,%edx
  4078d4:	be a0 bb 40 00       	mov    $0x40bba0,%esi
  4078d9:	48 89 c7             	mov    %rax,%rdi
  4078dc:	e8 6f cd ff ff       	callq  404650 <_ZN6google15LogMessageFatalC1EPKciRKNS_13CheckOpStringE@plt>
  4078e1:	48 8d 45 d0          	lea    -0x30(%rbp),%rax
  4078e5:	48 89 c7             	mov    %rax,%rdi
  4078e8:	e8 23 cf ff ff       	callq  404810 <_ZN6google10LogMessage6streamEv@plt>
  4078ed:	4c 89 e6             	mov    %r12,%rsi
  4078f0:	48 89 c7             	mov    %rax,%rdi
  4078f3:	e8 f8 cc ff ff       	callq  4045f0 <_ZStlsISt11char_traitsIcEERSt13basic_ostreamIcT_ES5_PKc@plt>
  4078f8:	be dc be 40 00       	mov    $0x40bedc,%esi
  4078fd:	48 89 c7             	mov    %rax,%rdi
  407900:	e8 eb cc ff ff       	callq  4045f0 <_ZStlsISt11char_traitsIcEERSt13basic_ostreamIcT_ES5_PKc@plt>
  407905:	89 de                	mov    %ebx,%esi
  407907:	48 89 c7             	mov    %rax,%rdi
  40790a:	e8 11 cc ff ff       	callq  404520 <_ZNSolsEi@plt>
  40790f:	be 72 be 40 00       	mov    $0x40be72,%esi
  407914:	48 89 c7             	mov    %rax,%rdi
  407917:	e8 d4 cc ff ff       	callq  4045f0 <_ZStlsISt11char_traitsIcEERSt13basic_ostreamIcT_ES5_PKc@plt>
  40791c:	48 8d 45 d0          	lea    -0x30(%rbp),%rax
  407920:	48 89 c7             	mov    %rax,%rdi
  407923:	e8 48 ce ff ff       	callq  404770 <_ZN6google15LogMessageFatalD1Ev@plt>
  407928:	48 8b 45 88          	mov    -0x78(%rbp),%rax
  40792c:	48 8b 00             	mov    (%rax),%rax
  40792f:	48 83 c0 60          	add    $0x60,%rax
  407933:	48 8b 00             	mov    (%rax),%rax
  407936:	48 8b 55 88          	mov    -0x78(%rbp),%rdx
  40793a:	48 89 d7             	mov    %rdx,%rdi
  40793d:	ff d0                	callq  *%rax
  40793f:	84 c0                	test   %al,%al
  407941:	0f 84 35 01 00 00    	je     407a7c <_ZN5caffe5LayerIfE15CheckBlobCountsERKSt6vectorIPNS_4BlobIfEESaIS5_EES9_+0x89a>
  407947:	48 8b 85 78 ff ff ff 	mov    -0x88(%rbp),%rax
  40794e:	48 89 c7             	mov    %rax,%rdi
  407951:	e8 ea 03 00 00       	callq  407d40 <_ZNKSt6vectorIPN5caffe4BlobIfEESaIS3_EE4sizeEv>
  407956:	48 89 c7             	mov    %rax,%rdi
  407959:	e8 38 d4 ff ff       	callq  404d96 <_ZN6google21GetReferenceableValueEm>
  40795e:	48 89 45 d0          	mov    %rax,-0x30(%rbp)
  407962:	48 8b 45 80          	mov    -0x80(%rbp),%rax
  407966:	48 89 c7             	mov    %rax,%rdi
  407969:	e8 d2 03 00 00       	callq  407d40 <_ZNKSt6vectorIPN5caffe4BlobIfEESaIS3_EE4sizeEv>
  40796e:	48 89 c7             	mov    %rax,%rdi
  407971:	e8 20 d4 ff ff       	callq  404d96 <_ZN6google21GetReferenceableValueEm>
  407976:	48 89 45 90          	mov    %rax,-0x70(%rbp)
  40797a:	48 8d 4d d0          	lea    -0x30(%rbp),%rcx
  40797e:	48 8d 45 90          	lea    -0x70(%rbp),%rax
  407982:	ba f5 be 40 00       	mov    $0x40bef5,%edx
  407987:	48 89 ce             	mov    %rcx,%rsi
  40798a:	48 89 c7             	mov    %rax,%rdi
  40798d:	e8 df 0c 00 00       	callq  408671 <_ZN6google12Check_EQImplImmEEPNSt7__cxx1112basic_stringIcSt11char_traitsIcESaIcEEERKT_RKT0_PKc>
  407992:	48 89 45 c8          	mov    %rax,-0x38(%rbp)
  407996:	48 83 7d c8 00       	cmpq   $0x0,-0x38(%rbp)
  40799b:	0f 84 db 00 00 00    	je     407a7c <_ZN5caffe5LayerIfE15CheckBlobCountsERKSt6vectorIPNS_4BlobIfEESaIS5_EES9_+0x89a>
  4079a1:	48 8b 45 88          	mov    -0x78(%rbp),%rax
  4079a5:	48 8b 00             	mov    (%rax),%rax
  4079a8:	48 83 c0 28          	add    $0x28,%rax
  4079ac:	48 8b 00             	mov    (%rax),%rax
  4079af:	48 8b 55 88          	mov    -0x78(%rbp),%rdx
  4079b3:	48 89 d7             	mov    %rdx,%rdi
  4079b6:	ff d0                	callq  *%rax
  4079b8:	48 89 c3             	mov    %rax,%rbx
  4079bb:	48 8b 55 c8          	mov    -0x38(%rbp),%rdx
  4079bf:	48 8d 45 90          	lea    -0x70(%rbp),%rax
  4079c3:	48 89 d6             	mov    %rdx,%rsi
  4079c6:	48 89 c7             	mov    %rax,%rdi
  4079c9:	e8 a2 d3 ff ff       	callq  404d70 <_ZN6google13CheckOpStringC1EPNSt7__cxx1112basic_stringIcSt11char_traitsIcESaIcEEE>
  4079ce:	48 8d 55 90          	lea    -0x70(%rbp),%rdx
  4079d2:	48 8d 45 d0          	lea    -0x30(%rbp),%rax
  4079d6:	48 89 d1             	mov    %rdx,%rcx
  4079d9:	ba 7b 01 00 00       	mov    $0x17b,%edx
  4079de:	be a0 bb 40 00       	mov    $0x40bba0,%esi
  4079e3:	48 89 c7             	mov    %rax,%rdi
  4079e6:	e8 65 cc ff ff       	callq  404650 <_ZN6google15LogMessageFatalC1EPKciRKNS_13CheckOpStringE@plt>
  4079eb:	48 8d 45 d0          	lea    -0x30(%rbp),%rax
  4079ef:	48 89 c7             	mov    %rax,%rdi
  4079f2:	e8 19 ce ff ff       	callq  404810 <_ZN6google10LogMessage6streamEv@plt>
  4079f7:	48 89 de             	mov    %rbx,%rsi
  4079fa:	48 89 c7             	mov    %rax,%rdi
  4079fd:	e8 ee cb ff ff       	callq  4045f0 <_ZStlsISt11char_traitsIcEERSt13basic_ostreamIcT_ES5_PKc@plt>
  407a02:	be 18 bf 40 00       	mov    $0x40bf18,%esi
  407a07:	48 89 c7             	mov    %rax,%rdi
  407a0a:	e8 e1 cb ff ff       	callq  4045f0 <_ZStlsISt11char_traitsIcEERSt13basic_ostreamIcT_ES5_PKc@plt>
  407a0f:	be 49 bf 40 00       	mov    $0x40bf49,%esi
  407a14:	48 89 c7             	mov    %rax,%rdi
  407a17:	e8 d4 cb ff ff       	callq  4045f0 <_ZStlsISt11char_traitsIcEERSt13basic_ostreamIcT_ES5_PKc@plt>
  407a1c:	48 8d 45 d0          	lea    -0x30(%rbp),%rax
  407a20:	48 89 c7             	mov    %rax,%rdi
  407a23:	e8 48 cd ff ff       	callq  404770 <_ZN6google15LogMessageFatalD1Ev@plt>
  407a28:	48 8d 45 d0          	lea    -0x30(%rbp),%rax
  407a2c:	48 89 c7             	mov    %rax,%rdi
  407a2f:	e8 3c cd ff ff       	callq  404770 <_ZN6google15LogMessageFatalD1Ev@plt>
  407a34:	48 8d 45 d0          	lea    -0x30(%rbp),%rax
  407a38:	48 89 c7             	mov    %rax,%rdi
  407a3b:	e8 30 cd ff ff       	callq  404770 <_ZN6google15LogMessageFatalD1Ev@plt>
  407a40:	48 8d 45 d0          	lea    -0x30(%rbp),%rax
  407a44:	48 89 c7             	mov    %rax,%rdi
  407a47:	e8 24 cd ff ff       	callq  404770 <_ZN6google15LogMessageFatalD1Ev@plt>
  407a4c:	48 8d 45 d0          	lea    -0x30(%rbp),%rax
  407a50:	48 89 c7             	mov    %rax,%rdi
  407a53:	e8 18 cd ff ff       	callq  404770 <_ZN6google15LogMessageFatalD1Ev@plt>
  407a58:	48 8d 45 d0          	lea    -0x30(%rbp),%rax
  407a5c:	48 89 c7             	mov    %rax,%rdi
  407a5f:	e8 0c cd ff ff       	callq  404770 <_ZN6google15LogMessageFatalD1Ev@plt>
  407a64:	48 8d 45 d0          	lea    -0x30(%rbp),%rax
  407a68:	48 89 c7             	mov    %rax,%rdi
  407a6b:	e8 00 cd ff ff       	callq  404770 <_ZN6google15LogMessageFatalD1Ev@plt>
  407a70:	48 8d 45 d0          	lea    -0x30(%rbp),%rax
  407a74:	48 89 c7             	mov    %rax,%rdi
  407a77:	e8 f4 cc ff ff       	callq  404770 <_ZN6google15LogMessageFatalD1Ev@plt>
  407a7c:	90                   	nop
  407a7d:	48 8b 45 e8          	mov    -0x18(%rbp),%rax
  407a81:	64 48 33 04 25 28 00 	xor    %fs:0x28,%rax
  407a88:	00 00 
  407a8a:	74 05                	je     407a91 <_ZN5caffe5LayerIfE15CheckBlobCountsERKSt6vectorIPNS_4BlobIfEESaIS5_EES9_+0x8af>
  407a8c:	e8 6f ca ff ff       	callq  404500 <__stack_chk_fail@plt>
  407a91:	48 83 ec 80          	sub    $0xffffffffffffff80,%rsp
  407a95:	5b                   	pop    %rbx
  407a96:	41 5c                	pop    %r12
  407a98:	5d                   	pop    %rbp
  407a99:	c3                   	retq   

0000000000407a9a <_ZN5caffe5LayerIfE10LayerSetUpERKSt6vectorIPNS_4BlobIfEESaIS5_EES9_>:
  407a9a:	55                   	push   %rbp
  407a9b:	48 89 e5             	mov    %rsp,%rbp
  407a9e:	48 89 7d f8          	mov    %rdi,-0x8(%rbp)
  407aa2:	48 89 75 f0          	mov    %rsi,-0x10(%rbp)
  407aa6:	48 89 55 e8          	mov    %rdx,-0x18(%rbp)
  407aaa:	90                   	nop
  407aab:	5d                   	pop    %rbp
  407aac:	c3                   	retq   
  407aad:	90                   	nop

0000000000407aae <_ZN5caffe5LayerIfE14SetLossWeightsERKSt6vectorIPNS_4BlobIfEESaIS5_EE>:
  407aae:	55                   	push   %rbp
  407aaf:	48 89 e5             	mov    %rsp,%rbp
  407ab2:	53                   	push   %rbx
  407ab3:	48 83 ec 78          	sub    $0x78,%rsp
  407ab7:	48 89 7d 98          	mov    %rdi,-0x68(%rbp)
  407abb:	48 89 75 90          	mov    %rsi,-0x70(%rbp)
  407abf:	64 48 8b 04 25 28 00 	mov    %fs:0x28,%rax
  407ac6:	00 00 
  407ac8:	48 89 45 e8          	mov    %rax,-0x18(%rbp)
  407acc:	31 c0                	xor    %eax,%eax
  407ace:	48 8b 45 98          	mov    -0x68(%rbp),%rax
  407ad2:	48 83 c0 08          	add    $0x8,%rax
  407ad6:	48 89 c7             	mov    %rax,%rdi
  407ad9:	e8 50 d6 ff ff       	callq  40512e <_ZNK5caffe14LayerParameter16loss_weight_sizeEv>
  407ade:	89 45 ac             	mov    %eax,-0x54(%rbp)
  407ae1:	83 7d ac 00          	cmpl   $0x0,-0x54(%rbp)
  407ae5:	0f 84 8f 01 00 00    	je     407c7a <_ZN5caffe5LayerIfE14SetLossWeightsERKSt6vectorIPNS_4BlobIfEESaIS5_EE+0x1cc>
  407aeb:	8b 45 ac             	mov    -0x54(%rbp),%eax
  407aee:	89 c7                	mov    %eax,%edi
  407af0:	e8 95 d2 ff ff       	callq  404d8a <_ZN6google21GetReferenceableValueEi>
  407af5:	89 45 b8             	mov    %eax,-0x48(%rbp)
  407af8:	48 8b 45 90          	mov    -0x70(%rbp),%rax
  407afc:	48 89 c7             	mov    %rax,%rdi
  407aff:	e8 3c 02 00 00       	callq  407d40 <_ZNKSt6vectorIPN5caffe4BlobIfEESaIS3_EE4sizeEv>
  407b04:	48 89 c7             	mov    %rax,%rdi
  407b07:	e8 8a d2 ff ff       	callq  404d96 <_ZN6google21GetReferenceableValueEm>
  407b0c:	48 89 45 d0          	mov    %rax,-0x30(%rbp)
  407b10:	48 8d 4d b8          	lea    -0x48(%rbp),%rcx
  407b14:	48 8d 45 d0          	lea    -0x30(%rbp),%rax
  407b18:	ba 60 bf 40 00       	mov    $0x40bf60,%edx
  407b1d:	48 89 ce             	mov    %rcx,%rsi
  407b20:	48 89 c7             	mov    %rax,%rdi
  407b23:	e8 99 0b 00 00       	callq  4086c1 <_ZN6google12Check_EQImplImiEEPNSt7__cxx1112basic_stringIcSt11char_traitsIcESaIcEEERKT_RKT0_PKc>
  407b28:	48 89 45 c0          	mov    %rax,-0x40(%rbp)
  407b2c:	48 83 7d c0 00       	cmpq   $0x0,-0x40(%rbp)
  407b31:	74 55                	je     407b88 <_ZN5caffe5LayerIfE14SetLossWeightsERKSt6vectorIPNS_4BlobIfEESaIS5_EE+0xda>
  407b33:	48 8b 55 c0          	mov    -0x40(%rbp),%rdx
  407b37:	48 8d 45 b8          	lea    -0x48(%rbp),%rax
  407b3b:	48 89 d6             	mov    %rdx,%rsi
  407b3e:	48 89 c7             	mov    %rax,%rdi
  407b41:	e8 2a d2 ff ff       	callq  404d70 <_ZN6google13CheckOpStringC1EPNSt7__cxx1112basic_stringIcSt11char_traitsIcESaIcEEE>
  407b46:	48 8d 55 b8          	lea    -0x48(%rbp),%rdx
  407b4a:	48 8d 45 d0          	lea    -0x30(%rbp),%rax
  407b4e:	48 89 d1             	mov    %rdx,%rcx
  407b51:	ba 88 01 00 00       	mov    $0x188,%edx
  407b56:	be a0 bb 40 00       	mov    $0x40bba0,%esi
  407b5b:	48 89 c7             	mov    %rax,%rdi
  407b5e:	e8 ed ca ff ff       	callq  404650 <_ZN6google15LogMessageFatalC1EPKciRKNS_13CheckOpStringE@plt>
  407b63:	48 8d 45 d0          	lea    -0x30(%rbp),%rax
  407b67:	48 89 c7             	mov    %rax,%rdi
  407b6a:	e8 a1 cc ff ff       	callq  404810 <_ZN6google10LogMessage6streamEv@plt>
  407b6f:	be 80 bf 40 00       	mov    $0x40bf80,%esi
  407b74:	48 89 c7             	mov    %rax,%rdi
  407b77:	e8 74 ca ff ff       	callq  4045f0 <_ZStlsISt11char_traitsIcEERSt13basic_ostreamIcT_ES5_PKc@plt>
  407b7c:	48 8d 45 d0          	lea    -0x30(%rbp),%rax
  407b80:	48 89 c7             	mov    %rax,%rdi
  407b83:	e8 e8 cb ff ff       	callq  404770 <_ZN6google15LogMessageFatalD1Ev@plt>
  407b88:	c7 45 a8 00 00 00 00 	movl   $0x0,-0x58(%rbp)
  407b8f:	8b 45 a8             	mov    -0x58(%rbp),%eax
  407b92:	48 63 d8             	movslq %eax,%rbx
  407b95:	48 8b 45 90          	mov    -0x70(%rbp),%rax
  407b99:	48 89 c7             	mov    %rax,%rdi
  407b9c:	e8 9f 01 00 00       	callq  407d40 <_ZNKSt6vectorIPN5caffe4BlobIfEESaIS3_EE4sizeEv>
  407ba1:	48 39 c3             	cmp    %rax,%rbx
  407ba4:	0f 92 c0             	setb   %al
  407ba7:	84 c0                	test   %al,%al
  407ba9:	0f 84 cb 00 00 00    	je     407c7a <_ZN5caffe5LayerIfE14SetLossWeightsERKSt6vectorIPNS_4BlobIfEESaIS5_EE+0x1cc>
  407baf:	48 8b 45 98          	mov    -0x68(%rbp),%rax
  407bb3:	48 8d 50 08          	lea    0x8(%rax),%rdx
  407bb7:	8b 45 a8             	mov    -0x58(%rbp),%eax
  407bba:	89 c6                	mov    %eax,%esi
  407bbc:	48 89 d7             	mov    %rdx,%rdi
  407bbf:	e8 88 d5 ff ff       	callq  40514c <_ZNK5caffe14LayerParameter11loss_weightEi>
  407bc4:	66 0f 7e c0          	movd   %xmm0,%eax
  407bc8:	89 45 b0             	mov    %eax,-0x50(%rbp)
  407bcb:	66 0f ef c0          	pxor   %xmm0,%xmm0
  407bcf:	0f 2e 45 b0          	ucomiss -0x50(%rbp),%xmm0
  407bd3:	7a 0e                	jp     407be3 <_ZN5caffe5LayerIfE14SetLossWeightsERKSt6vectorIPNS_4BlobIfEESaIS5_EE+0x135>
  407bd5:	66 0f ef c0          	pxor   %xmm0,%xmm0
  407bd9:	0f 2e 45 b0          	ucomiss -0x50(%rbp),%xmm0
  407bdd:	0f 84 81 00 00 00    	je     407c64 <_ZN5caffe5LayerIfE14SetLossWeightsERKSt6vectorIPNS_4BlobIfEESaIS5_EE+0x1b6>
  407be3:	8b 4d b0             	mov    -0x50(%rbp),%ecx
  407be6:	8b 55 a8             	mov    -0x58(%rbp),%edx
  407be9:	48 8b 45 98          	mov    -0x68(%rbp),%rax
  407bed:	89 4d 8c             	mov    %ecx,-0x74(%rbp)
  407bf0:	f3 0f 10 45 8c       	movss  -0x74(%rbp),%xmm0
  407bf5:	89 d6                	mov    %edx,%esi
  407bf7:	48 89 c7             	mov    %rax,%rdi
  407bfa:	e8 13 0b 00 00       	callq  408712 <_ZN5caffe5LayerIfE8set_lossEif>
  407bff:	8b 45 a8             	mov    -0x58(%rbp),%eax
  407c02:	48 63 d0             	movslq %eax,%rdx
  407c05:	48 8b 45 90          	mov    -0x70(%rbp),%rax
  407c09:	48 89 d6             	mov    %rdx,%rsi
  407c0c:	48 89 c7             	mov    %rax,%rdi
  407c0f:	e8 a8 01 00 00       	callq  407dbc <_ZNKSt6vectorIPN5caffe4BlobIfEESaIS3_EEixEm>
  407c14:	48 8b 00             	mov    (%rax),%rax
  407c17:	48 89 c7             	mov    %rax,%rdi
  407c1a:	e8 bd 01 00 00       	callq  407ddc <_ZNK5caffe4BlobIfE5countEv>
  407c1f:	89 45 b4             	mov    %eax,-0x4c(%rbp)
  407c22:	8b 45 a8             	mov    -0x58(%rbp),%eax
  407c25:	48 63 d0             	movslq %eax,%rdx
  407c28:	48 8b 45 90          	mov    -0x70(%rbp),%rax
  407c2c:	48 89 d6             	mov    %rdx,%rsi
  407c2f:	48 89 c7             	mov    %rax,%rdi
  407c32:	e8 85 01 00 00       	callq  407dbc <_ZNKSt6vectorIPN5caffe4BlobIfEESaIS3_EEixEm>
  407c37:	48 8b 00             	mov    (%rax),%rax
  407c3a:	48 89 c7             	mov    %rax,%rdi
  407c3d:	e8 ae c8 ff ff       	callq  4044f0 <_ZN5caffe4BlobIfE16mutable_cpu_diffEv@plt>
  407c42:	48 89 45 c8          	mov    %rax,-0x38(%rbp)
  407c46:	48 8b 4d c8          	mov    -0x38(%rbp),%rcx
  407c4a:	8b 55 b0             	mov    -0x50(%rbp),%edx
  407c4d:	8b 45 b4             	mov    -0x4c(%rbp),%eax
  407c50:	48 89 ce             	mov    %rcx,%rsi
  407c53:	89 55 8c             	mov    %edx,-0x74(%rbp)
  407c56:	f3 0f 10 45 8c       	movss  -0x74(%rbp),%xmm0
  407c5b:	89 c7                	mov    %eax,%edi
  407c5d:	e8 4e ca ff ff       	callq  4046b0 <_ZN5caffe9caffe_setIfEEviT_PS1_@plt>
  407c62:	eb 01                	jmp    407c65 <_ZN5caffe5LayerIfE14SetLossWeightsERKSt6vectorIPNS_4BlobIfEESaIS5_EE+0x1b7>
  407c64:	90                   	nop
  407c65:	83 45 a8 01          	addl   $0x1,-0x58(%rbp)
  407c69:	e9 21 ff ff ff       	jmpq   407b8f <_ZN5caffe5LayerIfE14SetLossWeightsERKSt6vectorIPNS_4BlobIfEESaIS5_EE+0xe1>
  407c6e:	48 8d 45 d0          	lea    -0x30(%rbp),%rax
  407c72:	48 89 c7             	mov    %rax,%rdi
  407c75:	e8 f6 ca ff ff       	callq  404770 <_ZN6google15LogMessageFatalD1Ev@plt>
  407c7a:	90                   	nop
  407c7b:	48 8b 45 e8          	mov    -0x18(%rbp),%rax
  407c7f:	64 48 33 04 25 28 00 	xor    %fs:0x28,%rax
  407c86:	00 00 
  407c88:	74 05                	je     407c8f <_ZN5caffe5LayerIfE14SetLossWeightsERKSt6vectorIPNS_4BlobIfEESaIS5_EE+0x1e1>
  407c8a:	e8 71 c8 ff ff       	callq  404500 <__stack_chk_fail@plt>
  407c8f:	48 83 c4 78          	add    $0x78,%rsp
  407c93:	5b                   	pop    %rbx
  407c94:	5d                   	pop    %rbp
  407c95:	c3                   	retq   

0000000000407c96 <_ZN2CK11do_measuredIRZNS_5Caffe7test_fcEvEUlvE_EEvOT_i>:
  407c96:	55                   	push   %rbp
  407c97:	48 89 e5             	mov    %rsp,%rbp
  407c9a:	48 83 ec 10          	sub    $0x10,%rsp
  407c9e:	48 89 7d f8          	mov    %rdi,-0x8(%rbp)
  407ca2:	89 75 f4             	mov    %esi,-0xc(%rbp)
  407ca5:	8b 45 f4             	mov    -0xc(%rbp),%eax
  407ca8:	89 c7                	mov    %eax,%edi
  407caa:	e8 51 c9 ff ff       	callq  404600 <xopenme_clock_start@plt>
  407caf:	48 8b 45 f8          	mov    -0x8(%rbp),%rax
  407cb3:	48 89 c7             	mov    %rax,%rdi
  407cb6:	e8 87 db ff ff       	callq  405842 <_ZZN2CK5Caffe7test_fcEvENKUlvE_clEv>
  407cbb:	8b 45 f4             	mov    -0xc(%rbp),%eax
  407cbe:	89 c7                	mov    %eax,%edi
  407cc0:	e8 0b c9 ff ff       	callq  4045d0 <xopenme_clock_end@plt>
  407cc5:	90                   	nop
  407cc6:	c9                   	leaveq 
  407cc7:	c3                   	retq   

0000000000407cc8 <_ZN2CK12log_raw_dataIfEEvPT_RKNS_5ShapeEPKcS7_>:
  407cc8:	55                   	push   %rbp
  407cc9:	48 89 e5             	mov    %rsp,%rbp
  407ccc:	48 83 ec 20          	sub    $0x20,%rsp
  407cd0:	48 89 7d f8          	mov    %rdi,-0x8(%rbp)
  407cd4:	48 89 75 f0          	mov    %rsi,-0x10(%rbp)
  407cd8:	48 89 55 e8          	mov    %rdx,-0x18(%rbp)
  407cdc:	48 89 4d e0          	mov    %rcx,-0x20(%rbp)
  407ce0:	48 83 7d e8 00       	cmpq   $0x0,-0x18(%rbp)
  407ce5:	74 1c                	je     407d03 <_ZN2CK12log_raw_dataIfEEvPT_RKNS_5ShapeEPKcS7_+0x3b>
  407ce7:	48 8b 45 e8          	mov    -0x18(%rbp),%rax
  407ceb:	be 00 00 00 00       	mov    $0x0,%esi
  407cf0:	48 89 c7             	mov    %rax,%rdi
  407cf3:	e8 75 d8 ff ff       	callq  40556d <_ZN2CK8getenv_iEPKci>
  407cf8:	85 c0                	test   %eax,%eax
  407cfa:	74 07                	je     407d03 <_ZN2CK12log_raw_dataIfEEvPT_RKNS_5ShapeEPKcS7_+0x3b>
  407cfc:	b8 01 00 00 00       	mov    $0x1,%eax
  407d01:	eb 05                	jmp    407d08 <_ZN2CK12log_raw_dataIfEEvPT_RKNS_5ShapeEPKcS7_+0x40>
  407d03:	b8 00 00 00 00       	mov    $0x0,%eax
  407d08:	84 c0                	test   %al,%al
  407d0a:	74 30                	je     407d3c <_ZN2CK12log_raw_dataIfEEvPT_RKNS_5ShapeEPKcS7_+0x74>
  407d0c:	48 83 7d e0 00       	cmpq   $0x0,-0x20(%rbp)
  407d11:	74 16                	je     407d29 <_ZN2CK12log_raw_dataIfEEvPT_RKNS_5ShapeEPKcS7_+0x61>
  407d13:	48 8b 45 e0          	mov    -0x20(%rbp),%rax
  407d17:	48 89 c6             	mov    %rax,%rsi
  407d1a:	bf c0 bf 40 00       	mov    $0x40bfc0,%edi
  407d1f:	b8 00 00 00 00       	mov    $0x0,%eax
  407d24:	e8 e7 c6 ff ff       	callq  404410 <printf@plt>
  407d29:	48 8b 55 f0          	mov    -0x10(%rbp),%rdx
  407d2d:	48 8b 45 f8          	mov    -0x8(%rbp),%rax
  407d31:	48 89 d6             	mov    %rdx,%rsi
  407d34:	48 89 c7             	mov    %rax,%rdi
  407d37:	e8 83 0a 00 00       	callq  4087bf <_ZN2CK14print_raw_dataIfEEvPT_RKNS_5ShapeE>
  407d3c:	90                   	nop
  407d3d:	c9                   	leaveq 
  407d3e:	c3                   	retq   
  407d3f:	90                   	nop

0000000000407d40 <_ZNKSt6vectorIPN5caffe4BlobIfEESaIS3_EE4sizeEv>:
  407d40:	55                   	push   %rbp
  407d41:	48 89 e5             	mov    %rsp,%rbp
  407d44:	48 89 7d f8          	mov    %rdi,-0x8(%rbp)
  407d48:	48 8b 45 f8          	mov    -0x8(%rbp),%rax
