
softmax:     file format elf64-x86-64


Disassembly of section .init:

0000000000402ac8 <_init>:
  402ac8:	48 83 ec 08          	sub    $0x8,%rsp
  402acc:	48 8b 05 25 a5 20 00 	mov    0x20a525(%rip),%rax        # 60cff8 <_DYNAMIC+0x210>
  402ad3:	48 85 c0             	test   %rax,%rax
  402ad6:	74 05                	je     402add <_init+0x15>
  402ad8:	e8 23 05 00 00       	callq  403000 <_ZNSaIcED1Ev@plt+0x10>
  402add:	48 83 c4 08          	add    $0x8,%rsp
  402ae1:	c3                   	retq   

Disassembly of section .plt:

0000000000402af0 <_ZNSt7__cxx1112basic_stringIcSt11char_traitsIcESaIcEEC1ERKS4_@plt-0x10>:
  402af0:	ff 35 12 a5 20 00    	pushq  0x20a512(%rip)        # 60d008 <_GLOBAL_OFFSET_TABLE_+0x8>
  402af6:	ff 25 14 a5 20 00    	jmpq   *0x20a514(%rip)        # 60d010 <_GLOBAL_OFFSET_TABLE_+0x10>
  402afc:	0f 1f 40 00          	nopl   0x0(%rax)

0000000000402b00 <_ZNSt7__cxx1112basic_stringIcSt11char_traitsIcESaIcEEC1ERKS4_@plt>:
  402b00:	ff 25 12 a5 20 00    	jmpq   *0x20a512(%rip)        # 60d018 <_GLOBAL_OFFSET_TABLE_+0x18>
  402b06:	68 00 00 00 00       	pushq  $0x0
  402b0b:	e9 e0 ff ff ff       	jmpq   402af0 <_init+0x28>

0000000000402b10 <_ZN10tensorflow10RunOptionsD1Ev@plt>:
  402b10:	ff 25 0a a5 20 00    	jmpq   *0x20a50a(%rip)        # 60d020 <_GLOBAL_OFFSET_TABLE_+0x20>
  402b16:	68 01 00 00 00       	pushq  $0x1
  402b1b:	e9 d0 ff ff ff       	jmpq   402af0 <_init+0x28>

0000000000402b20 <_ZN10tensorflow8internal15LogMessageFatalC1EPKci@plt>:
  402b20:	ff 25 02 a5 20 00    	jmpq   *0x20a502(%rip)        # 60d028 <_GLOBAL_OFFSET_TABLE_+0x28>
  402b26:	68 02 00 00 00       	pushq  $0x2
  402b2b:	e9 c0 ff ff ff       	jmpq   402af0 <_init+0x28>

0000000000402b30 <__assert_fail@plt>:
  402b30:	ff 25 fa a4 20 00    	jmpq   *0x20a4fa(%rip)        # 60d030 <_GLOBAL_OFFSET_TABLE_+0x30>
  402b36:	68 03 00 00 00       	pushq  $0x3
  402b3b:	e9 b0 ff ff ff       	jmpq   402af0 <_init+0x28>

0000000000402b40 <__stack_chk_fail@plt>:
  402b40:	ff 25 f2 a4 20 00    	jmpq   *0x20a4f2(%rip)        # 60d038 <_GLOBAL_OFFSET_TABLE_+0x38>
  402b46:	68 04 00 00 00       	pushq  $0x4
  402b4b:	e9 a0 ff ff ff       	jmpq   402af0 <_init+0x28>

0000000000402b50 <memset@plt>:
  402b50:	ff 25 ea a4 20 00    	jmpq   *0x20a4ea(%rip)        # 60d040 <_GLOBAL_OFFSET_TABLE_+0x40>
  402b56:	68 05 00 00 00       	pushq  $0x5
  402b5b:	e9 90 ff ff ff       	jmpq   402af0 <_init+0x28>

0000000000402b60 <clock_gettime@plt>:
  402b60:	ff 25 e2 a4 20 00    	jmpq   *0x20a4e2(%rip)        # 60d048 <_GLOBAL_OFFSET_TABLE_+0x48>
  402b66:	68 06 00 00 00       	pushq  $0x6
  402b6b:	e9 80 ff ff ff       	jmpq   402af0 <_init+0x28>

0000000000402b70 <_ZdlPv@plt>:
  402b70:	ff 25 da a4 20 00    	jmpq   *0x20a4da(%rip)        # 60d050 <_GLOBAL_OFFSET_TABLE_+0x50>
  402b76:	68 07 00 00 00       	pushq  $0x7
  402b7b:	e9 70 ff ff ff       	jmpq   402af0 <_init+0x28>

0000000000402b80 <xopenme_clock_start@plt>:
  402b80:	ff 25 d2 a4 20 00    	jmpq   *0x20a4d2(%rip)        # 60d058 <_GLOBAL_OFFSET_TABLE_+0x58>
  402b86:	68 08 00 00 00       	pushq  $0x8
  402b8b:	e9 60 ff ff ff       	jmpq   402af0 <_init+0x28>

0000000000402b90 <_ZN10tensorflow15TensorShapeBaseINS_11TensorShapeEEC2ESt16initializer_listIxE@plt>:
  402b90:	ff 25 ca a4 20 00    	jmpq   *0x20a4ca(%rip)        # 60d060 <_GLOBAL_OFFSET_TABLE_+0x60>
  402b96:	68 09 00 00 00       	pushq  $0x9
  402b9b:	e9 50 ff ff ff       	jmpq   402af0 <_init+0x28>

0000000000402ba0 <_ZN10tensorflow11RunMetadataD1Ev@plt>:
  402ba0:	ff 25 c2 a4 20 00    	jmpq   *0x20a4c2(%rip)        # 60d068 <_GLOBAL_OFFSET_TABLE_+0x68>
  402ba6:	68 0a 00 00 00       	pushq  $0xa
  402bab:	e9 40 ff ff ff       	jmpq   402af0 <_init+0x28>

0000000000402bb0 <_ZN10tensorflow6TensorD1Ev@plt>:
  402bb0:	ff 25 ba a4 20 00    	jmpq   *0x20a4ba(%rip)        # 60d070 <_GLOBAL_OFFSET_TABLE_+0x70>
  402bb6:	68 0b 00 00 00       	pushq  $0xb
  402bbb:	e9 30 ff ff ff       	jmpq   402af0 <_init+0x28>

0000000000402bc0 <__cxa_atexit@plt>:
  402bc0:	ff 25 b2 a4 20 00    	jmpq   *0x20a4b2(%rip)        # 60d078 <_GLOBAL_OFFSET_TABLE_+0x78>
  402bc6:	68 0c 00 00 00       	pushq  $0xc
  402bcb:	e9 20 ff ff ff       	jmpq   402af0 <_init+0x28>

0000000000402bd0 <_ZNSaIcEC1Ev@plt>:
  402bd0:	ff 25 aa a4 20 00    	jmpq   *0x20a4aa(%rip)        # 60d080 <_GLOBAL_OFFSET_TABLE_+0x80>
  402bd6:	68 0d 00 00 00       	pushq  $0xd
  402bdb:	e9 10 ff ff ff       	jmpq   402af0 <_init+0x28>

0000000000402be0 <sprintf@plt>:
  402be0:	ff 25 a2 a4 20 00    	jmpq   *0x20a4a2(%rip)        # 60d088 <_GLOBAL_OFFSET_TABLE_+0x88>
  402be6:	68 0e 00 00 00       	pushq  $0xe
  402beb:	e9 00 ff ff ff       	jmpq   402af0 <_init+0x28>

0000000000402bf0 <_ZN10tensorflow6TensorC1ENS_8DataTypeERKNS_11TensorShapeE@plt>:
  402bf0:	ff 25 9a a4 20 00    	jmpq   *0x20a49a(%rip)        # 60d090 <_GLOBAL_OFFSET_TABLE_+0x90>
  402bf6:	68 0f 00 00 00       	pushq  $0xf
  402bfb:	e9 f0 fe ff ff       	jmpq   402af0 <_init+0x28>

0000000000402c00 <putchar@plt>:
  402c00:	ff 25 92 a4 20 00    	jmpq   *0x20a492(%rip)        # 60d098 <_GLOBAL_OFFSET_TABLE_+0x98>
  402c06:	68 10 00 00 00       	pushq  $0x10
  402c0b:	e9 e0 fe ff ff       	jmpq   402af0 <_init+0x28>

0000000000402c10 <printf@plt>:
  402c10:	ff 25 8a a4 20 00    	jmpq   *0x20a48a(%rip)        # 60d0a0 <_GLOBAL_OFFSET_TABLE_+0xa0>
  402c16:	68 11 00 00 00       	pushq  $0x11
  402c1b:	e9 d0 fe ff ff       	jmpq   402af0 <_init+0x28>

0000000000402c20 <_ZN10tensorflow14TensorShapeRep19DestructorOutOfLineEv@plt>:
  402c20:	ff 25 82 a4 20 00    	jmpq   *0x20a482(%rip)        # 60d0a8 <_GLOBAL_OFFSET_TABLE_+0xa8>
  402c26:	68 12 00 00 00       	pushq  $0x12
  402c2b:	e9 c0 fe ff ff       	jmpq   402af0 <_init+0x28>

0000000000402c30 <_ZStlsIcSt11char_traitsIcESaIcEERSt13basic_ostreamIT_T0_ES7_RKNSt7__cxx1112basic_stringIS4_S5_T1_EE@plt>:
  402c30:	ff 25 7a a4 20 00    	jmpq   *0x20a47a(%rip)        # 60d0b0 <_GLOBAL_OFFSET_TABLE_+0xb0>
  402c36:	68 13 00 00 00       	pushq  $0x13
  402c3b:	e9 b0 fe ff ff       	jmpq   402af0 <_init+0x28>

0000000000402c40 <_ZNK10tensorflow6Tensor9CheckTypeENS_8DataTypeE@plt>:
  402c40:	ff 25 72 a4 20 00    	jmpq   *0x20a472(%rip)        # 60d0b8 <_GLOBAL_OFFSET_TABLE_+0xb8>
  402c46:	68 14 00 00 00       	pushq  $0x14
  402c4b:	e9 a0 fe ff ff       	jmpq   402af0 <_init+0x28>

0000000000402c50 <_ZNSolsEi@plt>:
  402c50:	ff 25 6a a4 20 00    	jmpq   *0x20a46a(%rip)        # 60d0c0 <_GLOBAL_OFFSET_TABLE_+0xc0>
  402c56:	68 15 00 00 00       	pushq  $0x15
  402c5b:	e9 90 fe ff ff       	jmpq   402af0 <_init+0x28>

0000000000402c60 <__gxx_personality_v0@plt>:
  402c60:	ff 25 62 a4 20 00    	jmpq   *0x20a462(%rip)        # 60d0c8 <_GLOBAL_OFFSET_TABLE_+0xc8>
  402c66:	68 16 00 00 00       	pushq  $0x16
  402c6b:	e9 80 fe ff ff       	jmpq   402af0 <_init+0x28>

0000000000402c70 <_ZN10tensorflow5ScopeD1Ev@plt>:
  402c70:	ff 25 5a a4 20 00    	jmpq   *0x20a45a(%rip)        # 60d0d0 <_GLOBAL_OFFSET_TABLE_+0xd0>
  402c76:	68 17 00 00 00       	pushq  $0x17
  402c7b:	e9 70 fe ff ff       	jmpq   402af0 <_init+0x28>

0000000000402c80 <_ZNSt7__cxx1112basic_stringIcSt11char_traitsIcESaIcEED1Ev@plt>:
  402c80:	ff 25 52 a4 20 00    	jmpq   *0x20a452(%rip)        # 60d0d8 <_GLOBAL_OFFSET_TABLE_+0xd8>
  402c86:	68 18 00 00 00       	pushq  $0x18
  402c8b:	e9 60 fe ff ff       	jmpq   402af0 <_init+0x28>

0000000000402c90 <getenv@plt>:
  402c90:	ff 25 4a a4 20 00    	jmpq   *0x20a44a(%rip)        # 60d0e0 <_GLOBAL_OFFSET_TABLE_+0xe0>
  402c96:	68 19 00 00 00       	pushq  $0x19
  402c9b:	e9 50 fe ff ff       	jmpq   402af0 <_init+0x28>

0000000000402ca0 <_ZN10tensorflow14StatSummarizerD1Ev@plt>:
  402ca0:	ff 25 42 a4 20 00    	jmpq   *0x20a442(%rip)        # 60d0e8 <_GLOBAL_OFFSET_TABLE_+0xe8>
  402ca6:	68 1a 00 00 00       	pushq  $0x1a
  402cab:	e9 40 fe ff ff       	jmpq   402af0 <_init+0x28>

0000000000402cb0 <_ZN10tensorflow8internal15LogMessageFatalD1Ev@plt>:
  402cb0:	ff 25 3a a4 20 00    	jmpq   *0x20a43a(%rip)        # 60d0f0 <_GLOBAL_OFFSET_TABLE_+0xf0>
  402cb6:	68 1b 00 00 00       	pushq  $0x1b
  402cbb:	e9 30 fe ff ff       	jmpq   402af0 <_init+0x28>

0000000000402cc0 <__libc_start_main@plt>:
  402cc0:	ff 25 32 a4 20 00    	jmpq   *0x20a432(%rip)        # 60d0f8 <_GLOBAL_OFFSET_TABLE_+0xf8>
  402cc6:	68 1c 00 00 00       	pushq  $0x1c
  402ccb:	e9 20 fe ff ff       	jmpq   402af0 <_init+0x28>

0000000000402cd0 <puts@plt>:
  402cd0:	ff 25 2a a4 20 00    	jmpq   *0x20a42a(%rip)        # 60d100 <_GLOBAL_OFFSET_TABLE_+0x100>
  402cd6:	68 1d 00 00 00       	pushq  $0x1d
  402cdb:	e9 10 fe ff ff       	jmpq   402af0 <_init+0x28>

0000000000402ce0 <_ZN10tensorflow5Scope12NewRootScopeEv@plt>:
  402ce0:	ff 25 22 a4 20 00    	jmpq   *0x20a422(%rip)        # 60d108 <_GLOBAL_OFFSET_TABLE_+0x108>
  402ce6:	68 1e 00 00 00       	pushq  $0x1e
  402ceb:	e9 00 fe ff ff       	jmpq   402af0 <_init+0x28>

0000000000402cf0 <srand@plt>:
  402cf0:	ff 25 1a a4 20 00    	jmpq   *0x20a41a(%rip)        # 60d110 <_GLOBAL_OFFSET_TABLE_+0x110>
  402cf6:	68 1f 00 00 00       	pushq  $0x1f
  402cfb:	e9 f0 fd ff ff       	jmpq   402af0 <_init+0x28>

0000000000402d00 <xopenme_finish@plt>:
  402d00:	ff 25 12 a4 20 00    	jmpq   *0x20a412(%rip)        # 60d118 <_GLOBAL_OFFSET_TABLE_+0x118>
  402d06:	68 20 00 00 00       	pushq  $0x20
  402d0b:	e9 e0 fd ff ff       	jmpq   402af0 <_init+0x28>

0000000000402d10 <xopenme_dump_memory@plt>:
  402d10:	ff 25 0a a4 20 00    	jmpq   *0x20a40a(%rip)        # 60d120 <_GLOBAL_OFFSET_TABLE_+0x120>
  402d16:	68 21 00 00 00       	pushq  $0x21
  402d1b:	e9 d0 fd ff ff       	jmpq   402af0 <_init+0x28>

0000000000402d20 <_ZNKSt7__cxx1112basic_stringIcSt11char_traitsIcESaIcEE4findEPKcm@plt>:
  402d20:	ff 25 02 a4 20 00    	jmpq   *0x20a402(%rip)        # 60d128 <_GLOBAL_OFFSET_TABLE_+0x128>
  402d26:	68 22 00 00 00       	pushq  $0x22
  402d2b:	e9 c0 fd ff ff       	jmpq   402af0 <_init+0x28>

0000000000402d30 <xopenme_init@plt>:
  402d30:	ff 25 fa a3 20 00    	jmpq   *0x20a3fa(%rip)        # 60d130 <_GLOBAL_OFFSET_TABLE_+0x130>
  402d36:	68 23 00 00 00       	pushq  $0x23
  402d3b:	e9 b0 fd ff ff       	jmpq   402af0 <_init+0x28>

0000000000402d40 <__cxa_begin_catch@plt>:
  402d40:	ff 25 f2 a3 20 00    	jmpq   *0x20a3f2(%rip)        # 60d138 <_GLOBAL_OFFSET_TABLE_+0x138>
  402d46:	68 24 00 00 00       	pushq  $0x24
  402d4b:	e9 a0 fd ff ff       	jmpq   402af0 <_init+0x28>

0000000000402d50 <atoi@plt>:
  402d50:	ff 25 ea a3 20 00    	jmpq   *0x20a3ea(%rip)        # 60d140 <_GLOBAL_OFFSET_TABLE_+0x140>
  402d56:	68 25 00 00 00       	pushq  $0x25
  402d5b:	e9 90 fd ff ff       	jmpq   402af0 <_init+0x28>

0000000000402d60 <_ZdaPv@plt>:
  402d60:	ff 25 e2 a3 20 00    	jmpq   *0x20a3e2(%rip)        # 60d148 <_GLOBAL_OFFSET_TABLE_+0x148>
  402d66:	68 26 00 00 00       	pushq  $0x26
  402d6b:	e9 80 fd ff ff       	jmpq   402af0 <_init+0x28>

0000000000402d70 <_ZNSolsEl@plt>:
  402d70:	ff 25 da a3 20 00    	jmpq   *0x20a3da(%rip)        # 60d150 <_GLOBAL_OFFSET_TABLE_+0x150>
  402d76:	68 27 00 00 00       	pushq  $0x27
  402d7b:	e9 70 fd ff ff       	jmpq   402af0 <_init+0x28>

0000000000402d80 <strlen@plt>:
  402d80:	ff 25 d2 a3 20 00    	jmpq   *0x20a3d2(%rip)        # 60d158 <_GLOBAL_OFFSET_TABLE_+0x158>
  402d86:	68 28 00 00 00       	pushq  $0x28
  402d8b:	e9 60 fd ff ff       	jmpq   402af0 <_init+0x28>

0000000000402d90 <xopenme_add_var_i@plt>:
  402d90:	ff 25 ca a3 20 00    	jmpq   *0x20a3ca(%rip)        # 60d160 <_GLOBAL_OFFSET_TABLE_+0x160>
  402d96:	68 29 00 00 00       	pushq  $0x29
  402d9b:	e9 50 fd ff ff       	jmpq   402af0 <_init+0x28>

0000000000402da0 <_ZN10tensorflow8internal21CheckOpMessageBuilderC1EPKc@plt>:
  402da0:	ff 25 c2 a3 20 00    	jmpq   *0x20a3c2(%rip)        # 60d168 <_GLOBAL_OFFSET_TABLE_+0x168>
  402da6:	68 2a 00 00 00       	pushq  $0x2a
  402dab:	e9 40 fd ff ff       	jmpq   402af0 <_init+0x28>

0000000000402db0 <_ZNSolsEx@plt>:
  402db0:	ff 25 ba a3 20 00    	jmpq   *0x20a3ba(%rip)        # 60d170 <_GLOBAL_OFFSET_TABLE_+0x170>
  402db6:	68 2b 00 00 00       	pushq  $0x2b
  402dbb:	e9 30 fd ff ff       	jmpq   402af0 <_init+0x28>

0000000000402dc0 <_ZN10tensorflow8internal21CheckOpMessageBuilderD1Ev@plt>:
  402dc0:	ff 25 b2 a3 20 00    	jmpq   *0x20a3b2(%rip)        # 60d178 <_GLOBAL_OFFSET_TABLE_+0x178>
  402dc6:	68 2c 00 00 00       	pushq  $0x2c
  402dcb:	e9 20 fd ff ff       	jmpq   402af0 <_init+0x28>

0000000000402dd0 <_Unwind_Resume@plt>:
  402dd0:	ff 25 aa a3 20 00    	jmpq   *0x20a3aa(%rip)        # 60d180 <_GLOBAL_OFFSET_TABLE_+0x180>
  402dd6:	68 2d 00 00 00       	pushq  $0x2d
  402ddb:	e9 10 fd ff ff       	jmpq   402af0 <_init+0x28>

0000000000402de0 <_ZN10tensorflow8internal21CheckOpMessageBuilder9NewStringB5cxx11Ev@plt>:
  402de0:	ff 25 a2 a3 20 00    	jmpq   *0x20a3a2(%rip)        # 60d188 <_GLOBAL_OFFSET_TABLE_+0x188>
  402de6:	68 2e 00 00 00       	pushq  $0x2e
  402deb:	e9 00 fd ff ff       	jmpq   402af0 <_init+0x28>

0000000000402df0 <_ZNSt7__cxx1112basic_stringIcSt11char_traitsIcESaIcEEC1EPKcRKS3_@plt>:
  402df0:	ff 25 9a a3 20 00    	jmpq   *0x20a39a(%rip)        # 60d190 <_GLOBAL_OFFSET_TABLE_+0x190>
  402df6:	68 2f 00 00 00       	pushq  $0x2f
  402dfb:	e9 f0 fc ff ff       	jmpq   402af0 <_init+0x28>

0000000000402e00 <_ZN10tensorflow11RunMetadataC1Ev@plt>:
  402e00:	ff 25 92 a3 20 00    	jmpq   *0x20a392(%rip)        # 60d198 <_GLOBAL_OFFSET_TABLE_+0x198>
  402e06:	68 30 00 00 00       	pushq  $0x30
  402e0b:	e9 e0 fc ff ff       	jmpq   402af0 <_init+0x28>

0000000000402e10 <_ZN10tensorflow14TensorShapeRep12SlowCopyFromERKS0_@plt>:
  402e10:	ff 25 8a a3 20 00    	jmpq   *0x20a38a(%rip)        # 60d1a0 <_GLOBAL_OFFSET_TABLE_+0x1a0>
  402e16:	68 31 00 00 00       	pushq  $0x31
  402e1b:	e9 d0 fc ff ff       	jmpq   402af0 <_init+0x28>

0000000000402e20 <_ZNSolsEm@plt>:
  402e20:	ff 25 82 a3 20 00    	jmpq   *0x20a382(%rip)        # 60d1a8 <_GLOBAL_OFFSET_TABLE_+0x1a8>
  402e26:	68 32 00 00 00       	pushq  $0x32
  402e2b:	e9 c0 fc ff ff       	jmpq   402af0 <_init+0x28>

0000000000402e30 <random@plt>:
  402e30:	ff 25 7a a3 20 00    	jmpq   *0x20a37a(%rip)        # 60d1b0 <_GLOBAL_OFFSET_TABLE_+0x1b0>
  402e36:	68 33 00 00 00       	pushq  $0x33
  402e3b:	e9 b0 fc ff ff       	jmpq   402af0 <_init+0x28>

0000000000402e40 <xopenme_dump_state@plt>:
  402e40:	ff 25 72 a3 20 00    	jmpq   *0x20a372(%rip)        # 60d1b8 <_GLOBAL_OFFSET_TABLE_+0x1b8>
  402e46:	68 34 00 00 00       	pushq  $0x34
  402e4b:	e9 a0 fc ff ff       	jmpq   402af0 <_init+0x28>

0000000000402e50 <_ZN10tensorflow9OperationC1EPNS_4NodeE@plt>:
  402e50:	ff 25 6a a3 20 00    	jmpq   *0x20a36a(%rip)        # 60d1c0 <_GLOBAL_OFFSET_TABLE_+0x1c0>
  402e56:	68 35 00 00 00       	pushq  $0x35
  402e5b:	e9 90 fc ff ff       	jmpq   402af0 <_init+0x28>

0000000000402e60 <xopenme_add_var_f@plt>:
  402e60:	ff 25 62 a3 20 00    	jmpq   *0x20a362(%rip)        # 60d1c8 <_GLOBAL_OFFSET_TABLE_+0x1c8>
  402e66:	68 36 00 00 00       	pushq  $0x36
  402e6b:	e9 80 fc ff ff       	jmpq   402af0 <_init+0x28>

0000000000402e70 <_ZSt17__throw_bad_allocv@plt>:
  402e70:	ff 25 5a a3 20 00    	jmpq   *0x20a35a(%rip)        # 60d1d0 <_GLOBAL_OFFSET_TABLE_+0x1d0>
  402e76:	68 37 00 00 00       	pushq  $0x37
  402e7b:	e9 70 fc ff ff       	jmpq   402af0 <_init+0x28>

0000000000402e80 <memcpy@plt>:
  402e80:	ff 25 52 a3 20 00    	jmpq   *0x20a352(%rip)        # 60d1d8 <_GLOBAL_OFFSET_TABLE_+0x1d8>
  402e86:	68 38 00 00 00       	pushq  $0x38
  402e8b:	e9 60 fc ff ff       	jmpq   402af0 <_init+0x28>

0000000000402e90 <_ZN10tensorflow8internal21CheckOpMessageBuilder7ForVar2Ev@plt>:
  402e90:	ff 25 4a a3 20 00    	jmpq   *0x20a34a(%rip)        # 60d1e0 <_GLOBAL_OFFSET_TABLE_+0x1e0>
  402e96:	68 39 00 00 00       	pushq  $0x39
  402e9b:	e9 50 fc ff ff       	jmpq   402af0 <_init+0x28>

0000000000402ea0 <_ZN10tensorflow13ClientSessionC1ERKNS_5ScopeE@plt>:
  402ea0:	ff 25 42 a3 20 00    	jmpq   *0x20a342(%rip)        # 60d1e8 <_GLOBAL_OFFSET_TABLE_+0x1e8>
  402ea6:	68 3a 00 00 00       	pushq  $0x3a
  402eab:	e9 40 fc ff ff       	jmpq   402af0 <_init+0x28>

0000000000402eb0 <_ZNK10tensorflow14StatSummarizer14PrintStepStatsEv@plt>:
  402eb0:	ff 25 3a a3 20 00    	jmpq   *0x20a33a(%rip)        # 60d1f0 <_GLOBAL_OFFSET_TABLE_+0x1f0>
  402eb6:	68 3b 00 00 00       	pushq  $0x3b
  402ebb:	e9 30 fc ff ff       	jmpq   402af0 <_init+0x28>

0000000000402ec0 <_Znwm@plt>:
  402ec0:	ff 25 32 a3 20 00    	jmpq   *0x20a332(%rip)        # 60d1f8 <_GLOBAL_OFFSET_TABLE_+0x1f8>
  402ec6:	68 3c 00 00 00       	pushq  $0x3c
  402ecb:	e9 20 fc ff ff       	jmpq   402af0 <_init+0x28>

0000000000402ed0 <_ZNK10tensorflow13ClientSession3RunERKNS_10RunOptionsERKSt13unordered_mapINS_6OutputENS_5Input11InitializerENS_10OutputHashESt8equal_toIS5_ESaISt4pairIKS5_S7_EEERKSt6vectorIS5_SaIS5_EERKSI_INS_9OperationESaISN_EEPSI_INS_6TensorESaISS_EEPNS_11RunMetadataE@plt>:
  402ed0:	ff 25 2a a3 20 00    	jmpq   *0x20a32a(%rip)        # 60d200 <_GLOBAL_OFFSET_TABLE_+0x200>
  402ed6:	68 3d 00 00 00       	pushq  $0x3d
  402edb:	e9 10 fc ff ff       	jmpq   402af0 <_init+0x28>

0000000000402ee0 <_ZN10tensorflow10RunOptionsC1Ev@plt>:
  402ee0:	ff 25 22 a3 20 00    	jmpq   *0x20a322(%rip)        # 60d208 <_GLOBAL_OFFSET_TABLE_+0x208>
  402ee6:	68 3e 00 00 00       	pushq  $0x3e
  402eeb:	e9 00 fc ff ff       	jmpq   402af0 <_init+0x28>

0000000000402ef0 <_ZN10tensorflow13ClientSessionD1Ev@plt>:
  402ef0:	ff 25 1a a3 20 00    	jmpq   *0x20a31a(%rip)        # 60d210 <_GLOBAL_OFFSET_TABLE_+0x210>
  402ef6:	68 3f 00 00 00       	pushq  $0x3f
  402efb:	e9 f0 fb ff ff       	jmpq   402af0 <_init+0x28>

0000000000402f00 <_Znam@plt>:
  402f00:	ff 25 12 a3 20 00    	jmpq   *0x20a312(%rip)        # 60d218 <_GLOBAL_OFFSET_TABLE_+0x218>
  402f06:	68 40 00 00 00       	pushq  $0x40
  402f0b:	e9 e0 fb ff ff       	jmpq   402af0 <_init+0x28>

0000000000402f10 <xopenme_get_timer@plt>:
  402f10:	ff 25 0a a3 20 00    	jmpq   *0x20a30a(%rip)        # 60d220 <_GLOBAL_OFFSET_TABLE_+0x220>
  402f16:	68 41 00 00 00       	pushq  $0x41
  402f1b:	e9 d0 fb ff ff       	jmpq   402af0 <_init+0x28>

0000000000402f20 <xopenme_clock_end@plt>:
  402f20:	ff 25 02 a3 20 00    	jmpq   *0x20a302(%rip)        # 60d228 <_GLOBAL_OFFSET_TABLE_+0x228>
  402f26:	68 42 00 00 00       	pushq  $0x42
  402f2b:	e9 c0 fb ff ff       	jmpq   402af0 <_init+0x28>

0000000000402f30 <_ZStlsISt11char_traitsIcEERSt13basic_ostreamIcT_ES5_PKc@plt>:
  402f30:	ff 25 fa a2 20 00    	jmpq   *0x20a2fa(%rip)        # 60d230 <_GLOBAL_OFFSET_TABLE_+0x230>
  402f36:	68 43 00 00 00       	pushq  $0x43
  402f3b:	e9 b0 fb ff ff       	jmpq   402af0 <_init+0x28>

0000000000402f40 <_ZN10tensorflow14StatSummarizer16ProcessStepStatsERKNS_9StepStatsE@plt>:
  402f40:	ff 25 f2 a2 20 00    	jmpq   *0x20a2f2(%rip)        # 60d238 <_GLOBAL_OFFSET_TABLE_+0x238>
  402f46:	68 44 00 00 00       	pushq  $0x44
  402f4b:	e9 a0 fb ff ff       	jmpq   402af0 <_init+0x28>

0000000000402f50 <_ZNSt8ios_base4InitD1Ev@plt>:
  402f50:	ff 25 ea a2 20 00    	jmpq   *0x20a2ea(%rip)        # 60d240 <_GLOBAL_OFFSET_TABLE_+0x240>
  402f56:	68 45 00 00 00       	pushq  $0x45
  402f5b:	e9 90 fb ff ff       	jmpq   402af0 <_init+0x28>

0000000000402f60 <__cxa_end_catch@plt>:
  402f60:	ff 25 e2 a2 20 00    	jmpq   *0x20a2e2(%rip)        # 60d248 <_GLOBAL_OFFSET_TABLE_+0x248>
  402f66:	68 46 00 00 00       	pushq  $0x46
  402f6b:	e9 80 fb ff ff       	jmpq   402af0 <_init+0x28>

0000000000402f70 <__cxa_throw_bad_array_new_length@plt>:
  402f70:	ff 25 da a2 20 00    	jmpq   *0x20a2da(%rip)        # 60d250 <_GLOBAL_OFFSET_TABLE_+0x250>
  402f76:	68 47 00 00 00       	pushq  $0x47
  402f7b:	e9 70 fb ff ff       	jmpq   402af0 <_init+0x28>

0000000000402f80 <__cxa_rethrow@plt>:
  402f80:	ff 25 d2 a2 20 00    	jmpq   *0x20a2d2(%rip)        # 60d258 <_GLOBAL_OFFSET_TABLE_+0x258>
  402f86:	68 48 00 00 00       	pushq  $0x48
  402f8b:	e9 60 fb ff ff       	jmpq   402af0 <_init+0x28>

0000000000402f90 <_ZN10tensorflow24TfCheckOpHelperOutOfLineB5cxx11ERKNS_6StatusEPKc@plt>:
  402f90:	ff 25 ca a2 20 00    	jmpq   *0x20a2ca(%rip)        # 60d260 <_GLOBAL_OFFSET_TABLE_+0x260>
  402f96:	68 49 00 00 00       	pushq  $0x49
  402f9b:	e9 50 fb ff ff       	jmpq   402af0 <_init+0x28>

0000000000402fa0 <_ZN10tensorflow3ops7SoftmaxC1ERKNS_5ScopeENS_5InputE@plt>:
  402fa0:	ff 25 c2 a2 20 00    	jmpq   *0x20a2c2(%rip)        # 60d268 <_GLOBAL_OFFSET_TABLE_+0x268>
  402fa6:	68 4a 00 00 00       	pushq  $0x4a
  402fab:	e9 40 fb ff ff       	jmpq   402af0 <_init+0x28>

0000000000402fb0 <_ZNK10tensorflow5Scope10WithOpNameERKNSt7__cxx1112basic_stringIcSt11char_traitsIcESaIcEEE@plt>:
  402fb0:	ff 25 ba a2 20 00    	jmpq   *0x20a2ba(%rip)        # 60d270 <_GLOBAL_OFFSET_TABLE_+0x270>
  402fb6:	68 4b 00 00 00       	pushq  $0x4b
  402fbb:	e9 30 fb ff ff       	jmpq   402af0 <_init+0x28>

0000000000402fc0 <rand@plt>:
  402fc0:	ff 25 b2 a2 20 00    	jmpq   *0x20a2b2(%rip)        # 60d278 <_GLOBAL_OFFSET_TABLE_+0x278>
  402fc6:	68 4c 00 00 00       	pushq  $0x4c
  402fcb:	e9 20 fb ff ff       	jmpq   402af0 <_init+0x28>

0000000000402fd0 <_ZNSt8ios_base4InitC1Ev@plt>:
  402fd0:	ff 25 aa a2 20 00    	jmpq   *0x20a2aa(%rip)        # 60d280 <_GLOBAL_OFFSET_TABLE_+0x280>
  402fd6:	68 4d 00 00 00       	pushq  $0x4d
  402fdb:	e9 10 fb ff ff       	jmpq   402af0 <_init+0x28>

0000000000402fe0 <_ZN10tensorflow14StatSummarizerC1ERKNS_21StatSummarizerOptionsE@plt>:
  402fe0:	ff 25 a2 a2 20 00    	jmpq   *0x20a2a2(%rip)        # 60d288 <_GLOBAL_OFFSET_TABLE_+0x288>
  402fe6:	68 4e 00 00 00       	pushq  $0x4e
  402feb:	e9 00 fb ff ff       	jmpq   402af0 <_init+0x28>

0000000000402ff0 <_ZNSaIcED1Ev@plt>:
  402ff0:	ff 25 9a a2 20 00    	jmpq   *0x20a29a(%rip)        # 60d290 <_GLOBAL_OFFSET_TABLE_+0x290>
  402ff6:	68 4f 00 00 00       	pushq  $0x4f
  402ffb:	e9 f0 fa ff ff       	jmpq   402af0 <_init+0x28>

Disassembly of section .plt.got:

0000000000403000 <.plt.got>:
  403000:	ff 25 f2 9f 20 00    	jmpq   *0x209ff2(%rip)        # 60cff8 <_DYNAMIC+0x210>
  403006:	66 90                	xchg   %ax,%ax

Disassembly of section .text:

0000000000403010 <_start>:
  403010:	31 ed                	xor    %ebp,%ebp
  403012:	49 89 d1             	mov    %rdx,%r9
  403015:	5e                   	pop    %rsi
  403016:	48 89 e2             	mov    %rsp,%rdx
  403019:	48 83 e4 f0          	and    $0xfffffffffffffff0,%rsp
  40301d:	50                   	push   %rax
  40301e:	54                   	push   %rsp
  40301f:	49 c7 c0 10 84 40 00 	mov    $0x408410,%r8
  403026:	48 c7 c1 a0 83 40 00 	mov    $0x4083a0,%rcx
  40302d:	48 c7 c7 e6 34 40 00 	mov    $0x4034e6,%rdi
  403034:	e8 87 fc ff ff       	callq  402cc0 <__libc_start_main@plt>
  403039:	f4                   	hlt    
  40303a:	66 0f 1f 44 00 00    	nopw   0x0(%rax,%rax,1)

0000000000403040 <deregister_tm_clones>:
  403040:	b8 af d2 60 00       	mov    $0x60d2af,%eax
  403045:	55                   	push   %rbp
  403046:	48 2d a8 d2 60 00    	sub    $0x60d2a8,%rax
  40304c:	48 83 f8 0e          	cmp    $0xe,%rax
  403050:	48 89 e5             	mov    %rsp,%rbp
  403053:	76 1b                	jbe    403070 <deregister_tm_clones+0x30>
  403055:	b8 00 00 00 00       	mov    $0x0,%eax
  40305a:	48 85 c0             	test   %rax,%rax
  40305d:	74 11                	je     403070 <deregister_tm_clones+0x30>
  40305f:	5d                   	pop    %rbp
  403060:	bf a8 d2 60 00       	mov    $0x60d2a8,%edi
  403065:	ff e0                	jmpq   *%rax
  403067:	66 0f 1f 84 00 00 00 	nopw   0x0(%rax,%rax,1)
  40306e:	00 00 
  403070:	5d                   	pop    %rbp
  403071:	c3                   	retq   
  403072:	0f 1f 40 00          	nopl   0x0(%rax)
  403076:	66 2e 0f 1f 84 00 00 	nopw   %cs:0x0(%rax,%rax,1)
  40307d:	00 00 00 

0000000000403080 <register_tm_clones>:
  403080:	be a8 d2 60 00       	mov    $0x60d2a8,%esi
  403085:	55                   	push   %rbp
  403086:	48 81 ee a8 d2 60 00 	sub    $0x60d2a8,%rsi
  40308d:	48 c1 fe 03          	sar    $0x3,%rsi
  403091:	48 89 e5             	mov    %rsp,%rbp
  403094:	48 89 f0             	mov    %rsi,%rax
  403097:	48 c1 e8 3f          	shr    $0x3f,%rax
  40309b:	48 01 c6             	add    %rax,%rsi
  40309e:	48 d1 fe             	sar    %rsi
  4030a1:	74 15                	je     4030b8 <register_tm_clones+0x38>
  4030a3:	b8 00 00 00 00       	mov    $0x0,%eax
  4030a8:	48 85 c0             	test   %rax,%rax
  4030ab:	74 0b                	je     4030b8 <register_tm_clones+0x38>
  4030ad:	5d                   	pop    %rbp
  4030ae:	bf a8 d2 60 00       	mov    $0x60d2a8,%edi
  4030b3:	ff e0                	jmpq   *%rax
  4030b5:	0f 1f 00             	nopl   (%rax)
  4030b8:	5d                   	pop    %rbp
  4030b9:	c3                   	retq   
  4030ba:	66 0f 1f 44 00 00    	nopw   0x0(%rax,%rax,1)

00000000004030c0 <__do_global_dtors_aux>:
  4030c0:	80 3d c1 a2 20 00 00 	cmpb   $0x0,0x20a2c1(%rip)        # 60d388 <completed.7583>
  4030c7:	75 11                	jne    4030da <__do_global_dtors_aux+0x1a>
  4030c9:	55                   	push   %rbp
  4030ca:	48 89 e5             	mov    %rsp,%rbp
  4030cd:	e8 6e ff ff ff       	callq  403040 <deregister_tm_clones>
  4030d2:	5d                   	pop    %rbp
  4030d3:	c6 05 ae a2 20 00 01 	movb   $0x1,0x20a2ae(%rip)        # 60d388 <completed.7583>
  4030da:	f3 c3                	repz retq 
  4030dc:	0f 1f 40 00          	nopl   0x0(%rax)

00000000004030e0 <frame_dummy>:
  4030e0:	bf e0 cd 60 00       	mov    $0x60cde0,%edi
  4030e5:	48 83 3f 00          	cmpq   $0x0,(%rdi)
  4030e9:	75 05                	jne    4030f0 <frame_dummy+0x10>
  4030eb:	eb 93                	jmp    403080 <register_tm_clones>
  4030ed:	0f 1f 00             	nopl   (%rax)
  4030f0:	b8 00 00 00 00       	mov    $0x0,%eax
  4030f5:	48 85 c0             	test   %rax,%rax
  4030f8:	74 f1                	je     4030eb <frame_dummy+0xb>
  4030fa:	55                   	push   %rbp
  4030fb:	48 89 e5             	mov    %rsp,%rbp
  4030fe:	ff d0                	callq  *%rax
  403100:	5d                   	pop    %rbp
  403101:	e9 7a ff ff ff       	jmpq   403080 <register_tm_clones>

0000000000403106 <_ZN5Eigen8internal12_GLOBAL__N_115get_random_seedEv>:
  403106:	55                   	push   %rbp
  403107:	48 89 e5             	mov    %rsp,%rbp
  40310a:	48 83 ec 30          	sub    $0x30,%rsp
  40310e:	64 48 8b 04 25 28 00 	mov    %fs:0x28,%rax
  403115:	00 00 
  403117:	48 89 45 f8          	mov    %rax,-0x8(%rbp)
  40311b:	31 c0                	xor    %eax,%eax
  40311d:	48 8d 45 e0          	lea    -0x20(%rbp),%rax
  403121:	48 89 c6             	mov    %rax,%rsi
  403124:	bf 00 00 00 00       	mov    $0x0,%edi
  403129:	e8 32 fa ff ff       	callq  402b60 <clock_gettime@plt>
  40312e:	e8 fd fc ff ff       	callq  402e30 <random@plt>
  403133:	48 89 c2             	mov    %rax,%rdx
  403136:	48 8b 45 e8          	mov    -0x18(%rbp),%rax
  40313a:	48 31 d0             	xor    %rdx,%rax
  40313d:	48 89 45 d8          	mov    %rax,-0x28(%rbp)
  403141:	48 8b 45 d8          	mov    -0x28(%rbp),%rax
  403145:	48 8b 4d f8          	mov    -0x8(%rbp),%rcx
  403149:	64 48 33 0c 25 28 00 	xor    %fs:0x28,%rcx
  403150:	00 00 
  403152:	74 05                	je     403159 <_ZN5Eigen8internal12_GLOBAL__N_115get_random_seedEv+0x53>
  403154:	e8 e7 f9 ff ff       	callq  402b40 <__stack_chk_fail@plt>
  403159:	c9                   	leaveq 
  40315a:	c3                   	retq   

000000000040315b <_ZN2CK16store_setup_timeEf>:
  40315b:	55                   	push   %rbp
  40315c:	48 89 e5             	mov    %rsp,%rbp
  40315f:	48 83 ec 10          	sub    $0x10,%rsp
  403163:	f3 0f 11 45 fc       	movss  %xmm0,-0x4(%rbp)
  403168:	8b 45 fc             	mov    -0x4(%rbp),%eax
  40316b:	89 45 f8             	mov    %eax,-0x8(%rbp)
  40316e:	f3 0f 10 45 f8       	movss  -0x8(%rbp),%xmm0
  403173:	be a8 87 40 00       	mov    $0x4087a8,%esi
  403178:	bf 0a 00 00 00       	mov    $0xa,%edi
  40317d:	e8 90 18 00 00       	callq  404a12 <_ZN2CK13store_value_fEiPKcf>
  403182:	90                   	nop
  403183:	c9                   	leaveq 
  403184:	c3                   	retq   

0000000000403185 <_ZN2CK15store_test_timeEf>:
  403185:	55                   	push   %rbp
  403186:	48 89 e5             	mov    %rsp,%rbp
  403189:	48 83 ec 10          	sub    $0x10,%rsp
  40318d:	f3 0f 11 45 fc       	movss  %xmm0,-0x4(%rbp)
  403192:	8b 45 fc             	mov    -0x4(%rbp),%eax
  403195:	89 45 f8             	mov    %eax,-0x8(%rbp)
  403198:	f3 0f 10 45 f8       	movss  -0x8(%rbp),%xmm0
  40319d:	be b3 87 40 00       	mov    $0x4087b3,%esi
  4031a2:	bf 0b 00 00 00       	mov    $0xb,%edi
  4031a7:	e8 66 18 00 00       	callq  404a12 <_ZN2CK13store_value_fEiPKcf>
  4031ac:	90                   	nop
  4031ad:	c9                   	leaveq 
  4031ae:	c3                   	retq   
  4031af:	90                   	nop

00000000004031b0 <_ZZ4mainENKUlvE_clEv>:
  4031b0:	55                   	push   %rbp
  4031b1:	48 89 e5             	mov    %rsp,%rbp
  4031b4:	41 56                	push   %r14
  4031b6:	41 55                	push   %r13
  4031b8:	41 54                	push   %r12
  4031ba:	53                   	push   %rbx
  4031bb:	48 81 ec 70 02 00 00 	sub    $0x270,%rsp
  4031c2:	48 89 bd 78 fd ff ff 	mov    %rdi,-0x288(%rbp)
  4031c9:	64 48 8b 04 25 28 00 	mov    %fs:0x28,%rax
  4031d0:	00 00 
  4031d2:	48 89 45 d8          	mov    %rax,-0x28(%rbp)
  4031d6:	31 c0                	xor    %eax,%eax
  4031d8:	48 8b 85 78 fd ff ff 	mov    -0x288(%rbp),%rax
  4031df:	48 8b 10             	mov    (%rax),%rdx
  4031e2:	48 8d 85 88 fd ff ff 	lea    -0x278(%rbp),%rax
  4031e9:	48 89 d6             	mov    %rdx,%rsi
  4031ec:	48 89 c7             	mov    %rax,%rdi
  4031ef:	e8 ac fc ff ff       	callq  402ea0 <_ZN10tensorflow13ClientSessionC1ERKNS_5ScopeE@plt>
  4031f4:	48 8b 85 78 fd ff ff 	mov    -0x288(%rbp),%rax
  4031fb:	4c 8b 70 20          	mov    0x20(%rax),%r14
  4031ff:	48 8b 85 78 fd ff ff 	mov    -0x288(%rbp),%rax
  403206:	48 8b 58 18          	mov    0x18(%rax),%rbx
  40320a:	48 8d 85 c0 fd ff ff 	lea    -0x240(%rbp),%rax
  403211:	48 89 c7             	mov    %rax,%rdi
  403214:	e8 69 2b 00 00       	callq  405d82 <_ZNSt6vectorIN10tensorflow9OperationESaIS1_EEC1Ev>
  403219:	48 8b 85 78 fd ff ff 	mov    -0x288(%rbp),%rax
  403220:	48 8b 50 10          	mov    0x10(%rax),%rdx
  403224:	48 8d 85 20 fe ff ff 	lea    -0x1e0(%rbp),%rax
  40322b:	48 89 d6             	mov    %rdx,%rsi
  40322e:	48 89 c7             	mov    %rax,%rdi
  403231:	e8 06 16 00 00       	callq  40483c <_ZNK10tensorflow3ops7SoftmaxcvNS_6OutputEEv>
  403236:	48 8d 85 20 fe ff ff 	lea    -0x1e0(%rbp),%rax
  40323d:	49 89 c4             	mov    %rax,%r12
  403240:	41 bd 01 00 00 00    	mov    $0x1,%r13d
  403246:	48 8d 85 87 fd ff ff 	lea    -0x279(%rbp),%rax
  40324d:	48 89 c7             	mov    %rax,%rdi
  403250:	e8 f7 29 00 00       	callq  405c4c <_ZNSaIN10tensorflow6OutputEEC1Ev>
  403255:	48 8d 95 87 fd ff ff 	lea    -0x279(%rbp),%rdx
  40325c:	4d 89 e0             	mov    %r12,%r8
  40325f:	4d 89 e9             	mov    %r13,%r9
  403262:	4c 89 e6             	mov    %r12,%rsi
  403265:	4c 89 ef             	mov    %r13,%rdi
  403268:	48 8d 85 a0 fd ff ff 	lea    -0x260(%rbp),%rax
  40326f:	48 89 d1             	mov    %rdx,%rcx
  403272:	4c 89 c6             	mov    %r8,%rsi
  403275:	48 89 fa             	mov    %rdi,%rdx
  403278:	48 89 c7             	mov    %rax,%rdi
  40327b:	e8 04 2a 00 00       	callq  405c84 <_ZNSt6vectorIN10tensorflow6OutputESaIS1_EEC1ESt16initializer_listIS1_ERKS2_>
  403280:	48 8d 95 e0 fd ff ff 	lea    -0x220(%rbp),%rdx
  403287:	b8 00 00 00 00       	mov    $0x0,%eax
  40328c:	b9 07 00 00 00       	mov    $0x7,%ecx
  403291:	48 89 d7             	mov    %rdx,%rdi
  403294:	f3 48 ab             	rep stos %rax,%es:(%rdi)
  403297:	48 8d 85 e0 fd ff ff 	lea    -0x220(%rbp),%rax
  40329e:	48 89 c7             	mov    %rax,%rdi
  4032a1:	e8 44 1f 00 00       	callq  4051ea <_ZNSt13unordered_mapIN10tensorflow6OutputENS0_5Input11InitializerENS0_10OutputHashESt8equal_toIS1_ESaISt4pairIKS1_S3_EEEC1Ev>
  4032a6:	48 8b 85 78 fd ff ff 	mov    -0x288(%rbp),%rax
  4032ad:	48 8b 50 08          	mov    0x8(%rax),%rdx
  4032b1:	48 8d 85 90 fd ff ff 	lea    -0x270(%rbp),%rax
  4032b8:	4c 8d 85 c0 fd ff ff 	lea    -0x240(%rbp),%r8
  4032bf:	48 8d bd a0 fd ff ff 	lea    -0x260(%rbp),%rdi
  4032c6:	48 8d 8d e0 fd ff ff 	lea    -0x220(%rbp),%rcx
  4032cd:	48 8d b5 88 fd ff ff 	lea    -0x278(%rbp),%rsi
  4032d4:	41 56                	push   %r14
  4032d6:	53                   	push   %rbx
  4032d7:	4d 89 c1             	mov    %r8,%r9
  4032da:	49 89 f8             	mov    %rdi,%r8
  4032dd:	48 89 c7             	mov    %rax,%rdi
  4032e0:	e8 eb fb ff ff       	callq  402ed0 <_ZNK10tensorflow13ClientSession3RunERKNS_10RunOptionsERKSt13unordered_mapINS_6OutputENS_5Input11InitializerENS_10OutputHashESt8equal_toIS5_ESaISt4pairIKS5_S7_EEERKSt6vectorIS5_SaIS5_EERKSI_INS_9OperationESaISN_EEPSI_INS_6TensorESaISS_EEPNS_11RunMetadataE@plt>
  4032e5:	48 83 c4 10          	add    $0x10,%rsp
  4032e9:	48 8d 85 e0 fd ff ff 	lea    -0x220(%rbp),%rax
  4032f0:	48 89 c7             	mov    %rax,%rdi
  4032f3:	e8 0e 1f 00 00       	callq  405206 <_ZNSt13unordered_mapIN10tensorflow6OutputENS0_5Input11InitializerENS0_10OutputHashESt8equal_toIS1_ESaISt4pairIKS1_S3_EEED1Ev>
  4032f8:	48 8d 85 a0 fd ff ff 	lea    -0x260(%rbp),%rax
  4032ff:	48 89 c7             	mov    %rax,%rdi
  403302:	e8 37 2a 00 00       	callq  405d3e <_ZNSt6vectorIN10tensorflow6OutputESaIS1_EED1Ev>
  403307:	48 8d 85 87 fd ff ff 	lea    -0x279(%rbp),%rax
  40330e:	48 89 c7             	mov    %rax,%rdi
  403311:	e8 52 29 00 00       	callq  405c68 <_ZNSaIN10tensorflow6OutputEED1Ev>
  403316:	48 8d 9d 20 fe ff ff 	lea    -0x1e0(%rbp),%rbx
  40331d:	48 83 c3 28          	add    $0x28,%rbx
  403321:	48 8d 85 20 fe ff ff 	lea    -0x1e0(%rbp),%rax
  403328:	48 39 c3             	cmp    %rax,%rbx
  40332b:	74 0e                	je     40333b <_ZZ4mainENKUlvE_clEv+0x18b>
  40332d:	48 83 eb 28          	sub    $0x28,%rbx
  403331:	48 89 df             	mov    %rbx,%rdi
  403334:	e8 b7 11 00 00       	callq  4044f0 <_ZN10tensorflow6OutputD1Ev>
  403339:	eb e6                	jmp    403321 <_ZZ4mainENKUlvE_clEv+0x171>
  40333b:	48 8d 85 c0 fd ff ff 	lea    -0x240(%rbp),%rax
  403342:	48 89 c7             	mov    %rax,%rdi
  403345:	e8 54 2a 00 00       	callq  405d9e <_ZNSt6vectorIN10tensorflow9OperationESaIS1_EED1Ev>
  40334a:	48 8d 95 90 fd ff ff 	lea    -0x270(%rbp),%rdx
  403351:	48 8d 85 e0 fd ff ff 	lea    -0x220(%rbp),%rax
  403358:	48 89 d6             	mov    %rdx,%rsi
  40335b:	48 89 c7             	mov    %rax,%rdi
  40335e:	e8 c7 0a 00 00       	callq  403e2a <_ZN10tensorflow6StatusC1ERKS0_>
  403363:	48 8d 85 e0 fd ff ff 	lea    -0x220(%rbp),%rax
  40336a:	be 7c 88 40 00       	mov    $0x40887c,%esi
  40336f:	48 89 c7             	mov    %rax,%rdi
  403372:	e8 3c 0b 00 00       	callq  403eb3 <_ZN10tensorflow15TfCheckOpHelperB5cxx11ENS_6StatusEPKc>
  403377:	48 89 85 98 fd ff ff 	mov    %rax,-0x268(%rbp)
  40337e:	48 8d 85 e0 fd ff ff 	lea    -0x220(%rbp),%rax
  403385:	48 89 c7             	mov    %rax,%rdi
  403388:	e8 09 0a 00 00       	callq  403d96 <_ZN10tensorflow6StatusD1Ev>
  40338d:	48 83 bd 98 fd ff ff 	cmpq   $0x0,-0x268(%rbp)
  403394:	00 
  403395:	74 41                	je     4033d8 <_ZZ4mainENKUlvE_clEv+0x228>
  403397:	48 8d 85 50 fe ff ff 	lea    -0x1b0(%rbp),%rax
  40339e:	ba 2d 00 00 00       	mov    $0x2d,%edx
  4033a3:	be 83 88 40 00       	mov    $0x408883,%esi
  4033a8:	48 89 c7             	mov    %rax,%rdi
  4033ab:	e8 70 f7 ff ff       	callq  402b20 <_ZN10tensorflow8internal15LogMessageFatalC1EPKci@plt>
  4033b0:	48 8b 95 98 fd ff ff 	mov    -0x268(%rbp),%rdx
  4033b7:	48 8d 85 50 fe ff ff 	lea    -0x1b0(%rbp),%rax
  4033be:	48 89 d6             	mov    %rdx,%rsi
  4033c1:	48 89 c7             	mov    %rax,%rdi
  4033c4:	e8 10 21 00 00       	callq  4054d9 <_ZStlsIcSt11char_traitsIcENSt7__cxx1112basic_stringIcS1_SaIcEEEERSt13basic_ostreamIT_T0_EOS9_RKT1_>
  4033c9:	48 8d 85 50 fe ff ff 	lea    -0x1b0(%rbp),%rax
  4033d0:	48 89 c7             	mov    %rax,%rdi
  4033d3:	e8 d8 f8 ff ff       	callq  402cb0 <_ZN10tensorflow8internal15LogMessageFatalD1Ev@plt>
  4033d8:	48 8d 85 90 fd ff ff 	lea    -0x270(%rbp),%rax
  4033df:	48 89 c7             	mov    %rax,%rdi
  4033e2:	e8 af 09 00 00       	callq  403d96 <_ZN10tensorflow6StatusD1Ev>
  4033e7:	48 8d 85 88 fd ff ff 	lea    -0x278(%rbp),%rax
  4033ee:	48 89 c7             	mov    %rax,%rdi
  4033f1:	e8 fa fa ff ff       	callq  402ef0 <_ZN10tensorflow13ClientSessionD1Ev@plt>
  4033f6:	90                   	nop
  4033f7:	48 8b 45 d8          	mov    -0x28(%rbp),%rax
  4033fb:	64 48 33 04 25 28 00 	xor    %fs:0x28,%rax
  403402:	00 00 
  403404:	0f 84 cf 00 00 00    	je     4034d9 <_ZZ4mainENKUlvE_clEv+0x329>
  40340a:	e9 c5 00 00 00       	jmpq   4034d4 <_ZZ4mainENKUlvE_clEv+0x324>
  40340f:	48 89 c3             	mov    %rax,%rbx
  403412:	48 8d 85 e0 fd ff ff 	lea    -0x220(%rbp),%rax
  403419:	48 89 c7             	mov    %rax,%rdi
  40341c:	e8 e5 1d 00 00       	callq  405206 <_ZNSt13unordered_mapIN10tensorflow6OutputENS0_5Input11InitializerENS0_10OutputHashESt8equal_toIS1_ESaISt4pairIKS1_S3_EEED1Ev>
  403421:	48 8d 85 a0 fd ff ff 	lea    -0x260(%rbp),%rax
  403428:	48 89 c7             	mov    %rax,%rdi
  40342b:	e8 0e 29 00 00       	callq  405d3e <_ZNSt6vectorIN10tensorflow6OutputESaIS1_EED1Ev>
  403430:	eb 03                	jmp    403435 <_ZZ4mainENKUlvE_clEv+0x285>
  403432:	48 89 c3             	mov    %rax,%rbx
  403435:	48 8d 85 87 fd ff ff 	lea    -0x279(%rbp),%rax
  40343c:	48 89 c7             	mov    %rax,%rdi
  40343f:	e8 24 28 00 00       	callq  405c68 <_ZNSaIN10tensorflow6OutputEED1Ev>
  403444:	49 89 dc             	mov    %rbx,%r12
  403447:	48 8d 9d 20 fe ff ff 	lea    -0x1e0(%rbp),%rbx
  40344e:	48 83 c3 28          	add    $0x28,%rbx
  403452:	48 8d 85 20 fe ff ff 	lea    -0x1e0(%rbp),%rax
  403459:	48 39 c3             	cmp    %rax,%rbx
  40345c:	74 0e                	je     40346c <_ZZ4mainENKUlvE_clEv+0x2bc>
  40345e:	48 83 eb 28          	sub    $0x28,%rbx
  403462:	48 89 df             	mov    %rbx,%rdi
  403465:	e8 86 10 00 00       	callq  4044f0 <_ZN10tensorflow6OutputD1Ev>
  40346a:	eb e6                	jmp    403452 <_ZZ4mainENKUlvE_clEv+0x2a2>
  40346c:	4c 89 e3             	mov    %r12,%rbx
  40346f:	eb 03                	jmp    403474 <_ZZ4mainENKUlvE_clEv+0x2c4>
  403471:	48 89 c3             	mov    %rax,%rbx
  403474:	48 8d 85 c0 fd ff ff 	lea    -0x240(%rbp),%rax
  40347b:	48 89 c7             	mov    %rax,%rdi
  40347e:	e8 1b 29 00 00       	callq  405d9e <_ZNSt6vectorIN10tensorflow9OperationESaIS1_EED1Ev>
  403483:	eb 35                	jmp    4034ba <_ZZ4mainENKUlvE_clEv+0x30a>
  403485:	48 89 c3             	mov    %rax,%rbx
  403488:	48 8d 85 e0 fd ff ff 	lea    -0x220(%rbp),%rax
  40348f:	48 89 c7             	mov    %rax,%rdi
  403492:	e8 ff 08 00 00       	callq  403d96 <_ZN10tensorflow6StatusD1Ev>
  403497:	eb 12                	jmp    4034ab <_ZZ4mainENKUlvE_clEv+0x2fb>
  403499:	48 8d 85 50 fe ff ff 	lea    -0x1b0(%rbp),%rax
  4034a0:	48 89 c7             	mov    %rax,%rdi
  4034a3:	e8 08 f8 ff ff       	callq  402cb0 <_ZN10tensorflow8internal15LogMessageFatalD1Ev@plt>
  4034a8:	48 89 c3             	mov    %rax,%rbx
  4034ab:	48 8d 85 90 fd ff ff 	lea    -0x270(%rbp),%rax
  4034b2:	48 89 c7             	mov    %rax,%rdi
  4034b5:	e8 dc 08 00 00       	callq  403d96 <_ZN10tensorflow6StatusD1Ev>
  4034ba:	48 8d 85 88 fd ff ff 	lea    -0x278(%rbp),%rax
  4034c1:	48 89 c7             	mov    %rax,%rdi
  4034c4:	e8 27 fa ff ff       	callq  402ef0 <_ZN10tensorflow13ClientSessionD1Ev@plt>
  4034c9:	48 89 d8             	mov    %rbx,%rax
  4034cc:	48 89 c7             	mov    %rax,%rdi
  4034cf:	e8 fc f8 ff ff       	callq  402dd0 <_Unwind_Resume@plt>
  4034d4:	e8 67 f6 ff ff       	callq  402b40 <__stack_chk_fail@plt>
  4034d9:	48 8d 65 e0          	lea    -0x20(%rbp),%rsp
  4034dd:	5b                   	pop    %rbx
  4034de:	41 5c                	pop    %r12
  4034e0:	41 5d                	pop    %r13
  4034e2:	41 5e                	pop    %r14
  4034e4:	5d                   	pop    %rbp
  4034e5:	c3                   	retq   

00000000004034e6 <main>:
  4034e6:	55                   	push   %rbp
  4034e7:	48 89 e5             	mov    %rsp,%rbp
  4034ea:	41 55                	push   %r13
  4034ec:	41 54                	push   %r12
  4034ee:	53                   	push   %rbx
  4034ef:	48 81 ec 28 02 00 00 	sub    $0x228,%rsp
  4034f6:	64 48 8b 04 25 28 00 	mov    %fs:0x28,%rax
  4034fd:	00 00 
  4034ff:	48 89 45 d8          	mov    %rax,-0x28(%rbp)
  403503:	31 c0                	xor    %eax,%eax
  403505:	e8 99 16 00 00       	callq  404ba3 <_ZN2CK9init_testEv>
  40350a:	48 8d 85 c0 fd ff ff 	lea    -0x240(%rbp),%rax
  403511:	48 89 c7             	mov    %rax,%rdi
  403514:	e8 c7 f7 ff ff       	callq  402ce0 <_ZN10tensorflow5Scope12NewRootScopeEv@plt>
  403519:	b9 01 00 00 00       	mov    $0x1,%ecx
  40351e:	ba 01 00 00 00       	mov    $0x1,%edx
  403523:	be 03 00 00 00       	mov    $0x3,%esi
  403528:	bf 01 00 00 00       	mov    $0x1,%edi
  40352d:	e8 5c 15 00 00       	callq  404a8e <_ZN2CK24get_input_shape_from_envEiiii>
  403532:	48 89 85 e0 fd ff ff 	mov    %rax,-0x220(%rbp)
  403539:	48 89 95 e8 fd ff ff 	mov    %rdx,-0x218(%rbp)
  403540:	8b 85 ec fd ff ff    	mov    -0x214(%rbp),%eax
  403546:	83 f8 01             	cmp    $0x1,%eax
  403549:	75 0b                	jne    403556 <main+0x70>
  40354b:	8b 85 e8 fd ff ff    	mov    -0x218(%rbp),%eax
  403551:	83 f8 01             	cmp    $0x1,%eax
  403554:	74 19                	je     40356f <main+0x89>
  403556:	b9 88 8a 40 00       	mov    $0x408a88,%ecx
  40355b:	ba 16 00 00 00       	mov    $0x16,%edx
  403560:	be 83 88 40 00       	mov    $0x408883,%esi
  403565:	bf 98 88 40 00       	mov    $0x408898,%edi
  40356a:	e8 c1 f5 ff ff       	callq  402b30 <__assert_fail@plt>
  40356f:	8b 85 e0 fd ff ff    	mov    -0x220(%rbp),%eax
  403575:	48 98                	cltq   
  403577:	48 89 85 60 ff ff ff 	mov    %rax,-0xa0(%rbp)
  40357e:	8b 85 e4 fd ff ff    	mov    -0x21c(%rbp),%eax
  403584:	48 98                	cltq   
  403586:	48 89 85 68 ff ff ff 	mov    %rax,-0x98(%rbp)
  40358d:	48 8d 85 60 ff ff ff 	lea    -0xa0(%rbp),%rax
  403594:	49 89 c4             	mov    %rax,%r12
  403597:	41 bd 02 00 00 00    	mov    $0x2,%r13d
  40359d:	4c 89 e1             	mov    %r12,%rcx
  4035a0:	4c 89 eb             	mov    %r13,%rbx
  4035a3:	4c 89 e0             	mov    %r12,%rax
  4035a6:	4c 89 ea             	mov    %r13,%rdx
  4035a9:	48 8d 85 00 ff ff ff 	lea    -0x100(%rbp),%rax
  4035b0:	48 89 ce             	mov    %rcx,%rsi
  4035b3:	48 89 c7             	mov    %rax,%rdi
  4035b6:	e8 a1 18 00 00       	callq  404e5c <_ZN10tensorflow11TensorShapeC1ESt16initializer_listIxE>
  4035bb:	48 8d 95 00 ff ff ff 	lea    -0x100(%rbp),%rdx
  4035c2:	48 8d 85 20 ff ff ff 	lea    -0xe0(%rbp),%rax
  4035c9:	be 01 00 00 00       	mov    $0x1,%esi
  4035ce:	48 89 c7             	mov    %rax,%rdi
  4035d1:	e8 1a f6 ff ff       	callq  402bf0 <_ZN10tensorflow6TensorC1ENS_8DataTypeERKNS_11TensorShapeE@plt>
  4035d6:	48 8d 85 00 ff ff ff 	lea    -0x100(%rbp),%rax
  4035dd:	48 89 c7             	mov    %rax,%rdi
  4035e0:	e8 e9 0d 00 00       	callq  4043ce <_ZN10tensorflow11TensorShapeD1Ev>
  4035e5:	48 8d 85 e0 fd ff ff 	lea    -0x220(%rbp),%rax
  4035ec:	48 89 c7             	mov    %rax,%rdi
  4035ef:	e8 d8 23 00 00       	callq  4059cc <_ZN2CK19get_random_raw_dataIfEEPT_RKNS_5ShapeE>
  4035f4:	48 89 85 c8 fd ff ff 	mov    %rax,-0x238(%rbp)
  4035fb:	48 8d 95 e0 fd ff ff 	lea    -0x220(%rbp),%rdx
  403602:	48 8b 85 c8 fd ff ff 	mov    -0x238(%rbp),%rax
  403609:	48 89 d6             	mov    %rdx,%rsi
  40360c:	48 89 c7             	mov    %rax,%rdi
  40360f:	e8 9f 24 00 00       	callq  405ab3 <_ZN2CK20print_input_raw_dataIfEEvPT_RKNS_5ShapeE>
  403614:	48 8d 85 e0 fd ff ff 	lea    -0x220(%rbp),%rax
  40361b:	48 89 c7             	mov    %rax,%rdi
  40361e:	e8 97 12 00 00       	callq  4048ba <_ZNK2CK5Shape10data_countEv>
  403623:	48 98                	cltq   
  403625:	48 8d 1c 85 00 00 00 	lea    0x0(,%rax,4),%rbx
  40362c:	00 
  40362d:	48 8d 85 20 ff ff ff 	lea    -0xe0(%rbp),%rax
  403634:	48 89 c7             	mov    %rax,%rdi
  403637:	e8 a4 24 00 00       	callq  405ae0 <_ZN10tensorflow6Tensor4flatIfEENS_6TTypesIT_Li1ElE4FlatEv>
  40363c:	48 89 85 e0 fe ff ff 	mov    %rax,-0x120(%rbp)
  403643:	48 89 95 e8 fe ff ff 	mov    %rdx,-0x118(%rbp)
  40364a:	48 8d 85 e0 fe ff ff 	lea    -0x120(%rbp),%rax
  403651:	48 89 c7             	mov    %rax,%rdi
  403654:	e8 15 25 00 00       	callq  405b6e <_ZN5Eigen9TensorMapINS_6TensorIfLi1ELi1ElEELi16ENS_11MakePointerEE4dataEv>
  403659:	48 89 c1             	mov    %rax,%rcx
  40365c:	48 8b 85 c8 fd ff ff 	mov    -0x238(%rbp),%rax
  403663:	48 89 da             	mov    %rbx,%rdx
  403666:	48 89 c6             	mov    %rax,%rsi
  403669:	48 89 cf             	mov    %rcx,%rdi
  40366c:	e8 0f f8 ff ff       	callq  402e80 <memcpy@plt>
  403671:	48 83 bd c8 fd ff ff 	cmpq   $0x0,-0x238(%rbp)
  403678:	00 
  403679:	74 0f                	je     40368a <main+0x1a4>
  40367b:	48 8b 85 c8 fd ff ff 	mov    -0x238(%rbp),%rax
  403682:	48 89 c7             	mov    %rax,%rdi
  403685:	e8 d6 f6 ff ff       	callq  402d60 <_ZdaPv@plt>
  40368a:	48 8d 85 f0 fd ff ff 	lea    -0x210(%rbp),%rax
  403691:	48 89 c7             	mov    %rax,%rdi
  403694:	e8 e7 24 00 00       	callq  405b80 <_ZNSt6vectorIN10tensorflow6TensorESaIS1_EEC1Ev>
  403699:	48 c7 85 d0 fd ff ff 	movq   $0x4088be,-0x230(%rbp)
  4036a0:	be 88 40 00 
  4036a4:	48 8d 95 20 ff ff ff 	lea    -0xe0(%rbp),%rdx
  4036ab:	48 8d 85 60 ff ff ff 	lea    -0xa0(%rbp),%rax
  4036b2:	48 89 d6             	mov    %rdx,%rsi
  4036b5:	48 89 c7             	mov    %rax,%rdi
  4036b8:	e8 83 0e 00 00       	callq  404540 <_ZN10tensorflow5InputC1ERKNS_6TensorE>
  4036bd:	48 8d 85 a0 fe ff ff 	lea    -0x160(%rbp),%rax
  4036c4:	48 89 c7             	mov    %rax,%rdi
  4036c7:	e8 04 f5 ff ff       	callq  402bd0 <_ZNSaIcEC1Ev@plt>
  4036cc:	48 8d 95 a0 fe ff ff 	lea    -0x160(%rbp),%rdx
  4036d3:	48 8b 8d d0 fd ff ff 	mov    -0x230(%rbp),%rcx
  4036da:	48 8d 85 40 ff ff ff 	lea    -0xc0(%rbp),%rax
  4036e1:	48 89 ce             	mov    %rcx,%rsi
  4036e4:	48 89 c7             	mov    %rax,%rdi
  4036e7:	e8 04 f7 ff ff       	callq  402df0 <_ZNSt7__cxx1112basic_stringIcSt11char_traitsIcESaIcEEC1EPKcRKS3_@plt>
  4036ec:	48 8d 85 40 fe ff ff 	lea    -0x1c0(%rbp),%rax
  4036f3:	48 8d 95 40 ff ff ff 	lea    -0xc0(%rbp),%rdx
  4036fa:	48 8d 8d c0 fd ff ff 	lea    -0x240(%rbp),%rcx
  403701:	48 89 ce             	mov    %rcx,%rsi
  403704:	48 89 c7             	mov    %rax,%rdi
  403707:	e8 a4 f8 ff ff       	callq  402fb0 <_ZNK10tensorflow5Scope10WithOpNameERKNSt7__cxx1112basic_stringIcSt11char_traitsIcESaIcEEE@plt>
  40370c:	48 8d 95 60 ff ff ff 	lea    -0xa0(%rbp),%rdx
  403713:	48 8d 8d 40 fe ff ff 	lea    -0x1c0(%rbp),%rcx
  40371a:	48 8d 85 10 fe ff ff 	lea    -0x1f0(%rbp),%rax
  403721:	48 89 ce             	mov    %rcx,%rsi
  403724:	48 89 c7             	mov    %rax,%rdi
  403727:	e8 74 f8 ff ff       	callq  402fa0 <_ZN10tensorflow3ops7SoftmaxC1ERKNS_5ScopeENS_5InputE@plt>
  40372c:	48 8d 85 40 fe ff ff 	lea    -0x1c0(%rbp),%rax
  403733:	48 89 c7             	mov    %rax,%rdi
  403736:	e8 35 f5 ff ff       	callq  402c70 <_ZN10tensorflow5ScopeD1Ev@plt>
  40373b:	48 8d 85 40 ff ff ff 	lea    -0xc0(%rbp),%rax
  403742:	48 89 c7             	mov    %rax,%rdi
  403745:	e8 36 f5 ff ff       	callq  402c80 <_ZNSt7__cxx1112basic_stringIcSt11char_traitsIcESaIcEED1Ev@plt>
  40374a:	48 8d 85 a0 fe ff ff 	lea    -0x160(%rbp),%rax
  403751:	48 89 c7             	mov    %rax,%rdi
  403754:	e8 97 f8 ff ff       	callq  402ff0 <_ZNSaIcED1Ev@plt>
  403759:	48 8d 85 60 ff ff ff 	lea    -0xa0(%rbp),%rax
  403760:	48 89 c7             	mov    %rax,%rdi
  403763:	e8 4a 0f 00 00       	callq  4046b2 <_ZN10tensorflow5InputD1Ev>
  403768:	48 8d 85 70 fe ff ff 	lea    -0x190(%rbp),%rax
  40376f:	48 89 c7             	mov    %rax,%rdi
  403772:	e8 69 f7 ff ff       	callq  402ee0 <_ZN10tensorflow10RunOptionsC1Ev@plt>
  403777:	48 8d 85 70 fe ff ff 	lea    -0x190(%rbp),%rax
  40377e:	be 03 00 00 00       	mov    $0x3,%esi
  403783:	48 89 c7             	mov    %rax,%rdi
  403786:	e8 3f 10 00 00       	callq  4047ca <_ZN10tensorflow10RunOptions15set_trace_levelENS_21RunOptions_TraceLevelE>
  40378b:	48 8d 85 a0 fe ff ff 	lea    -0x160(%rbp),%rax
  403792:	48 89 c7             	mov    %rax,%rdi
  403795:	e8 66 f6 ff ff       	callq  402e00 <_ZN10tensorflow11RunMetadataC1Ev@plt>
  40379a:	48 8d 85 c0 fd ff ff 	lea    -0x240(%rbp),%rax
  4037a1:	48 89 85 40 fe ff ff 	mov    %rax,-0x1c0(%rbp)
  4037a8:	48 8d 85 70 fe ff ff 	lea    -0x190(%rbp),%rax
  4037af:	48 89 85 48 fe ff ff 	mov    %rax,-0x1b8(%rbp)
  4037b6:	48 8d 85 10 fe ff ff 	lea    -0x1f0(%rbp),%rax
  4037bd:	48 89 85 50 fe ff ff 	mov    %rax,-0x1b0(%rbp)
  4037c4:	48 8d 85 f0 fd ff ff 	lea    -0x210(%rbp),%rax
  4037cb:	48 89 85 58 fe ff ff 	mov    %rax,-0x1a8(%rbp)
  4037d2:	48 8d 85 a0 fe ff ff 	lea    -0x160(%rbp),%rax
  4037d9:	48 89 85 60 fe ff ff 	mov    %rax,-0x1a0(%rbp)
  4037e0:	48 8d 85 40 fe ff ff 	lea    -0x1c0(%rbp),%rax
  4037e7:	48 89 c7             	mov    %rax,%rdi
  4037ea:	e8 7c 02 00 00       	callq  403a6b <_ZN2CK12measure_testIZ4mainEUlvE_EEvOT_>
  4037ef:	48 8d 85 e0 fd ff ff 	lea    -0x220(%rbp),%rax
  4037f6:	48 89 c7             	mov    %rax,%rdi
  4037f9:	e8 bc 10 00 00       	callq  4048ba <_ZNK2CK5Shape10data_countEv>
  4037fe:	48 98                	cltq   
  403800:	48 ba fe ff ff ff ff 	movabs $0x1ffffffffffffffe,%rdx
  403807:	ff ff 1f 
  40380a:	48 39 d0             	cmp    %rdx,%rax
  40380d:	77 0e                	ja     40381d <main+0x337>
  40380f:	48 c1 e0 02          	shl    $0x2,%rax
  403813:	48 89 c7             	mov    %rax,%rdi
  403816:	e8 e5 f6 ff ff       	callq  402f00 <_Znam@plt>
  40381b:	eb 05                	jmp    403822 <main+0x33c>
  40381d:	e8 4e f7 ff ff       	callq  402f70 <__cxa_throw_bad_array_new_length@plt>
  403822:	48 89 85 d8 fd ff ff 	mov    %rax,-0x228(%rbp)
  403829:	48 8d 85 e0 fd ff ff 	lea    -0x220(%rbp),%rax
  403830:	48 89 c7             	mov    %rax,%rdi
  403833:	e8 82 10 00 00       	callq  4048ba <_ZNK2CK5Shape10data_countEv>
  403838:	48 98                	cltq   
  40383a:	48 8d 1c 85 00 00 00 	lea    0x0(,%rax,4),%rbx
  403841:	00 
  403842:	48 8d 85 f0 fd ff ff 	lea    -0x210(%rbp),%rax
  403849:	be 00 00 00 00       	mov    $0x0,%esi
  40384e:	48 89 c7             	mov    %rax,%rdi
  403851:	e8 8c 25 00 00       	callq  405de2 <_ZNSt6vectorIN10tensorflow6TensorESaIS1_EEixEm>
  403856:	48 89 c7             	mov    %rax,%rdi
  403859:	e8 82 22 00 00       	callq  405ae0 <_ZN10tensorflow6Tensor4flatIfEENS_6TTypesIT_Li1ElE4FlatEv>
  40385e:	48 89 85 f0 fe ff ff 	mov    %rax,-0x110(%rbp)
  403865:	48 89 95 f8 fe ff ff 	mov    %rdx,-0x108(%rbp)
  40386c:	48 8d 85 f0 fe ff ff 	lea    -0x110(%rbp),%rax
  403873:	48 89 c7             	mov    %rax,%rdi
  403876:	e8 f3 22 00 00       	callq  405b6e <_ZN5Eigen9TensorMapINS_6TensorIfLi1ELi1ElEELi16ENS_11MakePointerEE4dataEv>
  40387b:	48 89 c1             	mov    %rax,%rcx
  40387e:	48 8b 85 d8 fd ff ff 	mov    -0x228(%rbp),%rax
  403885:	48 89 da             	mov    %rbx,%rdx
  403888:	48 89 ce             	mov    %rcx,%rsi
  40388b:	48 89 c7             	mov    %rax,%rdi
  40388e:	e8 ed f5 ff ff       	callq  402e80 <memcpy@plt>
  403893:	48 8d 95 e0 fd ff ff 	lea    -0x220(%rbp),%rdx
  40389a:	48 8b 85 d8 fd ff ff 	mov    -0x228(%rbp),%rax
  4038a1:	48 89 d6             	mov    %rdx,%rsi
  4038a4:	48 89 c7             	mov    %rax,%rdi
  4038a7:	e8 56 25 00 00       	callq  405e02 <_ZN2CK21print_output_raw_dataIfEEvPT_RKNS_5ShapeE>
  4038ac:	48 8d 95 e0 fd ff ff 	lea    -0x220(%rbp),%rdx
  4038b3:	48 8b 85 d8 fd ff ff 	mov    -0x228(%rbp),%rax
  4038ba:	48 89 d6             	mov    %rdx,%rsi
  4038bd:	48 89 c7             	mov    %rax,%rdi
  4038c0:	e8 6a 25 00 00       	callq  405e2f <_ZN2CK20dump_output_raw_dataIfEEvPT_RKNS_5ShapeE>
  4038c5:	48 83 bd d8 fd ff ff 	cmpq   $0x0,-0x228(%rbp)
  4038cc:	00 
  4038cd:	74 0f                	je     4038de <main+0x3f8>
  4038cf:	48 8b 85 d8 fd ff ff 	mov    -0x228(%rbp),%rax
  4038d6:	48 89 c7             	mov    %rax,%rdi
  4038d9:	e8 82 f4 ff ff       	callq  402d60 <_ZdaPv@plt>
  4038de:	48 8b 95 d0 fd ff ff 	mov    -0x230(%rbp),%rdx
  4038e5:	48 8d 85 a0 fe ff ff 	lea    -0x160(%rbp),%rax
  4038ec:	48 89 d6             	mov    %rdx,%rsi
  4038ef:	48 89 c7             	mov    %rax,%rdi
  4038f2:	e8 9c 15 00 00       	callq  404e93 <_ZN2CK2TF16process_metadataERKN10tensorflow11RunMetadataEPKc>
  4038f7:	e8 f1 12 00 00       	callq  404bed <_ZN2CK11finish_testEv>
  4038fc:	bb 00 00 00 00       	mov    $0x0,%ebx
  403901:	48 8d 85 a0 fe ff ff 	lea    -0x160(%rbp),%rax
  403908:	48 89 c7             	mov    %rax,%rdi
  40390b:	e8 90 f2 ff ff       	callq  402ba0 <_ZN10tensorflow11RunMetadataD1Ev@plt>
  403910:	48 8d 85 70 fe ff ff 	lea    -0x190(%rbp),%rax
  403917:	48 89 c7             	mov    %rax,%rdi
  40391a:	e8 f1 f1 ff ff       	callq  402b10 <_ZN10tensorflow10RunOptionsD1Ev@plt>
  40391f:	48 8d 85 10 fe ff ff 	lea    -0x1f0(%rbp),%rax
  403926:	48 89 c7             	mov    %rax,%rdi
  403929:	e8 1a 16 00 00       	callq  404f48 <_ZN10tensorflow3ops7SoftmaxD1Ev>
  40392e:	48 8d 85 f0 fd ff ff 	lea    -0x210(%rbp),%rax
  403935:	48 89 c7             	mov    %rax,%rdi
  403938:	e8 5f 22 00 00       	callq  405b9c <_ZNSt6vectorIN10tensorflow6TensorESaIS1_EED1Ev>
  40393d:	48 8d 85 20 ff ff ff 	lea    -0xe0(%rbp),%rax
  403944:	48 89 c7             	mov    %rax,%rdi
  403947:	e8 64 f2 ff ff       	callq  402bb0 <_ZN10tensorflow6TensorD1Ev@plt>
  40394c:	48 8d 85 c0 fd ff ff 	lea    -0x240(%rbp),%rax
  403953:	48 89 c7             	mov    %rax,%rdi
  403956:	e8 15 f3 ff ff       	callq  402c70 <_ZN10tensorflow5ScopeD1Ev@plt>
  40395b:	89 d8                	mov    %ebx,%eax
  40395d:	48 8b 4d d8          	mov    -0x28(%rbp),%rcx
  403961:	64 48 33 0c 25 28 00 	xor    %fs:0x28,%rcx
  403968:	00 00 
  40396a:	0f 84 ed 00 00 00    	je     403a5d <main+0x577>
  403970:	e9 e3 00 00 00       	jmpq   403a58 <main+0x572>
  403975:	48 89 c3             	mov    %rax,%rbx
  403978:	48 8d 85 00 ff ff ff 	lea    -0x100(%rbp),%rax
  40397f:	48 89 c7             	mov    %rax,%rdi
  403982:	e8 47 0a 00 00       	callq  4043ce <_ZN10tensorflow11TensorShapeD1Ev>
  403987:	e9 b2 00 00 00       	jmpq   403a3e <main+0x558>
  40398c:	48 89 c3             	mov    %rax,%rbx
  40398f:	48 8d 85 40 fe ff ff 	lea    -0x1c0(%rbp),%rax
  403996:	48 89 c7             	mov    %rax,%rdi
  403999:	e8 d2 f2 ff ff       	callq  402c70 <_ZN10tensorflow5ScopeD1Ev@plt>
  40399e:	eb 03                	jmp    4039a3 <main+0x4bd>
  4039a0:	48 89 c3             	mov    %rax,%rbx
  4039a3:	48 8d 85 40 ff ff ff 	lea    -0xc0(%rbp),%rax
  4039aa:	48 89 c7             	mov    %rax,%rdi
  4039ad:	e8 ce f2 ff ff       	callq  402c80 <_ZNSt7__cxx1112basic_stringIcSt11char_traitsIcESaIcEED1Ev@plt>
  4039b2:	eb 03                	jmp    4039b7 <main+0x4d1>
  4039b4:	48 89 c3             	mov    %rax,%rbx
  4039b7:	48 8d 85 a0 fe ff ff 	lea    -0x160(%rbp),%rax
  4039be:	48 89 c7             	mov    %rax,%rdi
  4039c1:	e8 2a f6 ff ff       	callq  402ff0 <_ZNSaIcED1Ev@plt>
  4039c6:	48 8d 85 60 ff ff ff 	lea    -0xa0(%rbp),%rax
  4039cd:	48 89 c7             	mov    %rax,%rdi
  4039d0:	e8 dd 0c 00 00       	callq  4046b2 <_ZN10tensorflow5InputD1Ev>
  4039d5:	eb 3f                	jmp    403a16 <main+0x530>
  4039d7:	48 89 c3             	mov    %rax,%rbx
  4039da:	48 8d 85 a0 fe ff ff 	lea    -0x160(%rbp),%rax
  4039e1:	48 89 c7             	mov    %rax,%rdi
  4039e4:	e8 b7 f1 ff ff       	callq  402ba0 <_ZN10tensorflow11RunMetadataD1Ev@plt>
  4039e9:	eb 03                	jmp    4039ee <main+0x508>
  4039eb:	48 89 c3             	mov    %rax,%rbx
  4039ee:	48 8d 85 70 fe ff ff 	lea    -0x190(%rbp),%rax
  4039f5:	48 89 c7             	mov    %rax,%rdi
  4039f8:	e8 13 f1 ff ff       	callq  402b10 <_ZN10tensorflow10RunOptionsD1Ev@plt>
  4039fd:	eb 03                	jmp    403a02 <main+0x51c>
  4039ff:	48 89 c3             	mov    %rax,%rbx
  403a02:	48 8d 85 10 fe ff ff 	lea    -0x1f0(%rbp),%rax
  403a09:	48 89 c7             	mov    %rax,%rdi
  403a0c:	e8 37 15 00 00       	callq  404f48 <_ZN10tensorflow3ops7SoftmaxD1Ev>
  403a11:	eb 03                	jmp    403a16 <main+0x530>
  403a13:	48 89 c3             	mov    %rax,%rbx
  403a16:	48 8d 85 f0 fd ff ff 	lea    -0x210(%rbp),%rax
  403a1d:	48 89 c7             	mov    %rax,%rdi
  403a20:	e8 77 21 00 00       	callq  405b9c <_ZNSt6vectorIN10tensorflow6TensorESaIS1_EED1Ev>
  403a25:	eb 03                	jmp    403a2a <main+0x544>
  403a27:	48 89 c3             	mov    %rax,%rbx
  403a2a:	48 8d 85 20 ff ff ff 	lea    -0xe0(%rbp),%rax
  403a31:	48 89 c7             	mov    %rax,%rdi
  403a34:	e8 77 f1 ff ff       	callq  402bb0 <_ZN10tensorflow6TensorD1Ev@plt>
  403a39:	eb 03                	jmp    403a3e <main+0x558>
  403a3b:	48 89 c3             	mov    %rax,%rbx
  403a3e:	48 8d 85 c0 fd ff ff 	lea    -0x240(%rbp),%rax
  403a45:	48 89 c7             	mov    %rax,%rdi
  403a48:	e8 23 f2 ff ff       	callq  402c70 <_ZN10tensorflow5ScopeD1Ev@plt>
  403a4d:	48 89 d8             	mov    %rbx,%rax
  403a50:	48 89 c7             	mov    %rax,%rdi
  403a53:	e8 78 f3 ff ff       	callq  402dd0 <_Unwind_Resume@plt>
  403a58:	e8 e3 f0 ff ff       	callq  402b40 <__stack_chk_fail@plt>
  403a5d:	48 81 c4 28 02 00 00 	add    $0x228,%rsp
  403a64:	5b                   	pop    %rbx
  403a65:	41 5c                	pop    %r12
  403a67:	41 5d                	pop    %r13
  403a69:	5d                   	pop    %rbp
  403a6a:	c3                   	retq   

0000000000403a6b <_ZN2CK12measure_testIZ4mainEUlvE_EEvOT_>:
  403a6b:	55                   	push   %rbp
  403a6c:	48 89 e5             	mov    %rsp,%rbp
  403a6f:	48 83 ec 10          	sub    $0x10,%rsp
  403a73:	48 89 7d f8          	mov    %rdi,-0x8(%rbp)
  403a77:	48 8b 45 f8          	mov    -0x8(%rbp),%rax
  403a7b:	be 01 00 00 00       	mov    $0x1,%esi
  403a80:	48 89 c7             	mov    %rax,%rdi
  403a83:	e8 16 00 00 00       	callq  403a9e <_ZN2CK11do_measuredIRZ4mainEUlvE_EEvOT_i>
  403a88:	bf 01 00 00 00       	mov    $0x1,%edi
  403a8d:	e8 7e f4 ff ff       	callq  402f10 <xopenme_get_timer@plt>
  403a92:	f2 0f 5a c0          	cvtsd2ss %xmm0,%xmm0
  403a96:	e8 ea f6 ff ff       	callq  403185 <_ZN2CK15store_test_timeEf>
  403a9b:	90                   	nop
  403a9c:	c9                   	leaveq 
  403a9d:	c3                   	retq   

0000000000403a9e <_ZN2CK11do_measuredIRZ4mainEUlvE_EEvOT_i>:
  403a9e:	55                   	push   %rbp
  403a9f:	48 89 e5             	mov    %rsp,%rbp
  403aa2:	48 83 ec 10          	sub    $0x10,%rsp
  403aa6:	48 89 7d f8          	mov    %rdi,-0x8(%rbp)
  403aaa:	89 75 f4             	mov    %esi,-0xc(%rbp)
  403aad:	8b 45 f4             	mov    -0xc(%rbp),%eax
  403ab0:	89 c7                	mov    %eax,%edi
  403ab2:	e8 c9 f0 ff ff       	callq  402b80 <xopenme_clock_start@plt>
  403ab7:	48 8b 45 f8          	mov    -0x8(%rbp),%rax
  403abb:	48 89 c7             	mov    %rax,%rdi
  403abe:	e8 ed f6 ff ff       	callq  4031b0 <_ZZ4mainENKUlvE_clEv>
  403ac3:	8b 45 f4             	mov    -0xc(%rbp),%eax
  403ac6:	89 c7                	mov    %eax,%edi
  403ac8:	e8 53 f4 ff ff       	callq  402f20 <xopenme_clock_end@plt>
  403acd:	90                   	nop
  403ace:	c9                   	leaveq 
  403acf:	c3                   	retq   

0000000000403ad0 <_Z41__static_initialization_and_destruction_0ii>:
  403ad0:	55                   	push   %rbp
  403ad1:	48 89 e5             	mov    %rsp,%rbp
  403ad4:	53                   	push   %rbx
  403ad5:	48 83 ec 28          	sub    $0x28,%rsp
  403ad9:	89 7d dc             	mov    %edi,-0x24(%rbp)
  403adc:	89 75 d8             	mov    %esi,-0x28(%rbp)
  403adf:	64 48 8b 04 25 28 00 	mov    %fs:0x28,%rax
  403ae6:	00 00 
  403ae8:	48 89 45 e8          	mov    %rax,-0x18(%rbp)
  403aec:	31 c0                	xor    %eax,%eax
  403aee:	83 7d dc 01          	cmpl   $0x1,-0x24(%rbp)
  403af2:	75 53                	jne    403b47 <_Z41__static_initialization_and_destruction_0ii+0x77>
  403af4:	81 7d d8 ff ff 00 00 	cmpl   $0xffff,-0x28(%rbp)
  403afb:	75 4a                	jne    403b47 <_Z41__static_initialization_and_destruction_0ii+0x77>
  403afd:	bf 89 d3 60 00       	mov    $0x60d389,%edi
  403b02:	e8 27 17 00 00       	callq  40522e <_ZN5Eigen8Symbolic10SymbolExprINS_12placeholders8internal17symbolic_last_tagEEC1Ev>
  403b07:	e8 3d 17 00 00       	callq  405249 <_ZN5Eigen3fixILi1EEENS_8internal8FixedIntIXT_EEEv>
  403b0c:	48 83 ec 08          	sub    $0x8,%rsp
  403b10:	53                   	push   %rbx
  403b11:	bf 89 d3 60 00       	mov    $0x60d389,%edi
  403b16:	e8 6f 17 00 00       	callq  40528a <_ZNK5Eigen8Symbolic8BaseExprINS0_10SymbolExprINS_12placeholders8internal17symbolic_last_tagEEEEplILi1EEENS0_7AddExprIS6_NS0_9ValueExprINS_8internal8FixedIntIXT_EEEEEEESD_>
  403b1b:	48 83 c4 10          	add    $0x10,%rsp
  403b1f:	bf 8c d3 60 00       	mov    $0x60d38c,%edi
  403b24:	e8 c3 00 00 00       	callq  403bec <_ZN5Eigen8internal5all_tC1Ev>
  403b29:	bf 8d d3 60 00       	mov    $0x60d38d,%edi
  403b2e:	e8 9d f4 ff ff       	callq  402fd0 <_ZNSt8ios_base4InitC1Ev@plt>
  403b33:	ba a0 d2 60 00       	mov    $0x60d2a0,%edx
  403b38:	be 8d d3 60 00       	mov    $0x60d38d,%esi
  403b3d:	bf 50 2f 40 00       	mov    $0x402f50,%edi
  403b42:	e8 79 f0 ff ff       	callq  402bc0 <__cxa_atexit@plt>
  403b47:	90                   	nop
  403b48:	48 8b 45 e8          	mov    -0x18(%rbp),%rax
  403b4c:	64 48 33 04 25 28 00 	xor    %fs:0x28,%rax
  403b53:	00 00 
  403b55:	74 05                	je     403b5c <_Z41__static_initialization_and_destruction_0ii+0x8c>
  403b57:	e8 e4 ef ff ff       	callq  402b40 <__stack_chk_fail@plt>
  403b5c:	48 8b 5d f8          	mov    -0x8(%rbp),%rbx
  403b60:	c9                   	leaveq 
  403b61:	c3                   	retq   

0000000000403b62 <_GLOBAL__sub_I__ZN2CK16store_setup_timeEf>:
  403b62:	55                   	push   %rbp
  403b63:	48 89 e5             	mov    %rsp,%rbp
  403b66:	be ff ff 00 00       	mov    $0xffff,%esi
  403b6b:	bf 01 00 00 00       	mov    $0x1,%edi
  403b70:	e8 5b ff ff ff       	callq  403ad0 <_Z41__static_initialization_and_destruction_0ii>
  403b75:	5d                   	pop    %rbp
  403b76:	c3                   	retq   

0000000000403b77 <_ZnwmPv>:
  403b77:	55                   	push   %rbp
  403b78:	48 89 e5             	mov    %rsp,%rbp
  403b7b:	48 89 7d f8          	mov    %rdi,-0x8(%rbp)
  403b7f:	48 89 75 f0          	mov    %rsi,-0x10(%rbp)
  403b83:	48 8b 45 f0          	mov    -0x10(%rbp),%rax
  403b87:	5d                   	pop    %rbp
  403b88:	c3                   	retq   

0000000000403b89 <_ZdlPvS_>:
  403b89:	55                   	push   %rbp
  403b8a:	48 89 e5             	mov    %rsp,%rbp
  403b8d:	48 89 7d f8          	mov    %rdi,-0x8(%rbp)
  403b91:	48 89 75 f0          	mov    %rsi,-0x10(%rbp)
  403b95:	90                   	nop
  403b96:	5d                   	pop    %rbp
  403b97:	c3                   	retq   

0000000000403b98 <_ZStanSt12memory_orderSt23__memory_order_modifier>:
  403b98:	55                   	push   %rbp
  403b99:	48 89 e5             	mov    %rsp,%rbp
  403b9c:	89 7d fc             	mov    %edi,-0x4(%rbp)
  403b9f:	89 75 f8             	mov    %esi,-0x8(%rbp)
  403ba2:	8b 55 fc             	mov    -0x4(%rbp),%edx
  403ba5:	8b 45 f8             	mov    -0x8(%rbp),%eax
  403ba8:	21 d0                	and    %edx,%eax
  403baa:	5d                   	pop    %rbp
  403bab:	c3                   	retq   

0000000000403bac <_ZNSt8__detail15_Hash_node_baseC1Ev>:
  403bac:	55                   	push   %rbp
  403bad:	48 89 e5             	mov    %rsp,%rbp
  403bb0:	48 89 7d f8          	mov    %rdi,-0x8(%rbp)
  403bb4:	48 8b 45 f8          	mov    -0x8(%rbp),%rax
  403bb8:	48 c7 00 00 00 00 00 	movq   $0x0,(%rax)
  403bbf:	90                   	nop
  403bc0:	5d                   	pop    %rbp
  403bc1:	c3                   	retq   

0000000000403bc2 <_ZNSt8__detail20_Prime_rehash_policyC1Ef>:
  403bc2:	55                   	push   %rbp
  403bc3:	48 89 e5             	mov    %rsp,%rbp
  403bc6:	48 89 7d f8          	mov    %rdi,-0x8(%rbp)
  403bca:	f3 0f 11 45 f4       	movss  %xmm0,-0xc(%rbp)
  403bcf:	48 8b 45 f8          	mov    -0x8(%rbp),%rax
  403bd3:	f3 0f 10 45 f4       	movss  -0xc(%rbp),%xmm0
  403bd8:	f3 0f 11 00          	movss  %xmm0,(%rax)
  403bdc:	48 8b 45 f8          	mov    -0x8(%rbp),%rax
  403be0:	48 c7 40 08 00 00 00 	movq   $0x0,0x8(%rax)
  403be7:	00 
  403be8:	90                   	nop
  403be9:	5d                   	pop    %rbp
  403bea:	c3                   	retq   
  403beb:	90                   	nop

0000000000403bec <_ZN5Eigen8internal5all_tC1Ev>:
  403bec:	55                   	push   %rbp
  403bed:	48 89 e5             	mov    %rsp,%rbp
  403bf0:	48 89 7d f8          	mov    %rdi,-0x8(%rbp)
  403bf4:	90                   	nop
  403bf5:	5d                   	pop    %rbp
  403bf6:	c3                   	retq   
  403bf7:	90                   	nop

0000000000403bf8 <_ZNK6google8protobuf8internal14ArenaStringPtr3GetB5cxx11Ev>:
  403bf8:	55                   	push   %rbp
  403bf9:	48 89 e5             	mov    %rsp,%rbp
  403bfc:	48 89 7d f8          	mov    %rdi,-0x8(%rbp)
  403c00:	48 8b 45 f8          	mov    -0x8(%rbp),%rax
  403c04:	48 8b 00             	mov    (%rax),%rax
  403c07:	5d                   	pop    %rbp
  403c08:	c3                   	retq   
  403c09:	90                   	nop

0000000000403c0a <_ZNK6google8protobuf8internal20RepeatedPtrFieldBase4sizeEv>:
  403c0a:	55                   	push   %rbp
  403c0b:	48 89 e5             	mov    %rsp,%rbp
  403c0e:	48 89 7d f8          	mov    %rdi,-0x8(%rbp)
  403c12:	48 8b 45 f8          	mov    -0x8(%rbp),%rax
  403c16:	8b 40 08             	mov    0x8(%rax),%eax
  403c19:	5d                   	pop    %rbp
  403c1a:	c3                   	retq   
  403c1b:	90                   	nop

0000000000403c1c <_ZNK6google8protobuf8internal20RepeatedPtrFieldBase8raw_dataEv>:
  403c1c:	55                   	push   %rbp
  403c1d:	48 89 e5             	mov    %rsp,%rbp
  403c20:	48 89 7d f8          	mov    %rdi,-0x8(%rbp)
  403c24:	48 8b 45 f8          	mov    -0x8(%rbp),%rax
  403c28:	48 8b 40 10          	mov    0x10(%rax),%rax
  403c2c:	48 85 c0             	test   %rax,%rax
  403c2f:	74 0e                	je     403c3f <_ZNK6google8protobuf8internal20RepeatedPtrFieldBase8raw_dataEv+0x23>
  403c31:	48 8b 45 f8          	mov    -0x8(%rbp),%rax
  403c35:	48 8b 40 10          	mov    0x10(%rax),%rax
  403c39:	48 83 c0 08          	add    $0x8,%rax
  403c3d:	eb 05                	jmp    403c44 <_ZNK6google8protobuf8internal20RepeatedPtrFieldBase8raw_dataEv+0x28>
  403c3f:	b8 00 00 00 00       	mov    $0x0,%eax
  403c44:	5d                   	pop    %rbp
  403c45:	c3                   	retq   

0000000000403c46 <_ZN10tensorflow8internal21GetReferenceableValueEi>:
  403c46:	55                   	push   %rbp
  403c47:	48 89 e5             	mov    %rsp,%rbp
  403c4a:	89 7d fc             	mov    %edi,-0x4(%rbp)
  403c4d:	8b 45 fc             	mov    -0x4(%rbp),%eax
  403c50:	5d                   	pop    %rbp
  403c51:	c3                   	retq   

0000000000403c52 <_ZN10tensorflow8internal21GetReferenceableValueEl>:
  403c52:	55                   	push   %rbp
  403c53:	48 89 e5             	mov    %rsp,%rbp
  403c56:	48 89 7d f8          	mov    %rdi,-0x8(%rbp)
  403c5a:	48 8b 45 f8          	mov    -0x8(%rbp),%rax
  403c5e:	5d                   	pop    %rbp
  403c5f:	c3                   	retq   

0000000000403c60 <_ZN10tensorflow8internal21GetReferenceableValueEm>:
  403c60:	55                   	push   %rbp
  403c61:	48 89 e5             	mov    %rsp,%rbp
  403c64:	48 89 7d f8          	mov    %rdi,-0x8(%rbp)
  403c68:	48 8b 45 f8          	mov    -0x8(%rbp),%rax
  403c6c:	5d                   	pop    %rbp
  403c6d:	c3                   	retq   

0000000000403c6e <_ZN10tensorflow8internal21GetReferenceableValueEx>:
  403c6e:	55                   	push   %rbp
  403c6f:	48 89 e5             	mov    %rsp,%rbp
  403c72:	48 89 7d f8          	mov    %rdi,-0x8(%rbp)
  403c76:	48 8b 45 f8          	mov    -0x8(%rbp),%rax
  403c7a:	5d                   	pop    %rbp
  403c7b:	c3                   	retq   

0000000000403c7c <_ZN10tensorflow8internal13CheckOpStringC1EPNSt7__cxx1112basic_stringIcSt11char_traitsIcESaIcEEE>:
  403c7c:	55                   	push   %rbp
  403c7d:	48 89 e5             	mov    %rsp,%rbp
  403c80:	48 89 7d f8          	mov    %rdi,-0x8(%rbp)
  403c84:	48 89 75 f0          	mov    %rsi,-0x10(%rbp)
  403c88:	48 8b 45 f8          	mov    -0x8(%rbp),%rax
  403c8c:	48 8b 55 f0          	mov    -0x10(%rbp),%rdx
  403c90:	48 89 10             	mov    %rdx,(%rax)
  403c93:	90                   	nop
  403c94:	5d                   	pop    %rbp
  403c95:	c3                   	retq   

0000000000403c96 <_ZNK10tensorflow8internal13CheckOpStringcvbEv>:
  403c96:	55                   	push   %rbp
  403c97:	48 89 e5             	mov    %rsp,%rbp
  403c9a:	48 89 7d f8          	mov    %rdi,-0x8(%rbp)
  403c9e:	48 8b 45 f8          	mov    -0x8(%rbp),%rax
  403ca2:	48 8b 00             	mov    (%rax),%rax
  403ca5:	48 85 c0             	test   %rax,%rax
  403ca8:	0f 95 c0             	setne  %al
  403cab:	5d                   	pop    %rbp
  403cac:	c3                   	retq   
  403cad:	90                   	nop

0000000000403cae <_ZN10tensorflow8internal21CheckOpMessageBuilder7ForVar1Ev>:
  403cae:	55                   	push   %rbp
  403caf:	48 89 e5             	mov    %rsp,%rbp
  403cb2:	48 89 7d f8          	mov    %rdi,-0x8(%rbp)
  403cb6:	48 8b 45 f8          	mov    -0x8(%rbp),%rax
  403cba:	48 8b 00             	mov    (%rax),%rax
  403cbd:	5d                   	pop    %rbp
  403cbe:	c3                   	retq   
  403cbf:	90                   	nop

0000000000403cc0 <_ZNSt14default_deleteIN10tensorflow6Status5StateEEC1Ev>:
  403cc0:	55                   	push   %rbp
  403cc1:	48 89 e5             	mov    %rsp,%rbp
  403cc4:	48 89 7d f8          	mov    %rdi,-0x8(%rbp)
  403cc8:	90                   	nop
  403cc9:	5d                   	pop    %rbp
  403cca:	c3                   	retq   
  403ccb:	90                   	nop

0000000000403ccc <_ZNSt10_Head_baseILm1ESt14default_deleteIN10tensorflow6Status5StateEELb1EEC2Ev>:
  403ccc:	55                   	push   %rbp
  403ccd:	48 89 e5             	mov    %rsp,%rbp
  403cd0:	48 83 ec 10          	sub    $0x10,%rsp
  403cd4:	48 89 7d f8          	mov    %rdi,-0x8(%rbp)
  403cd8:	48 8b 45 f8          	mov    -0x8(%rbp),%rax
  403cdc:	48 89 c7             	mov    %rax,%rdi
  403cdf:	e8 dc ff ff ff       	callq  403cc0 <_ZNSt14default_deleteIN10tensorflow6Status5StateEEC1Ev>
  403ce4:	90                   	nop
  403ce5:	c9                   	leaveq 
  403ce6:	c3                   	retq   
  403ce7:	90                   	nop

0000000000403ce8 <_ZNSt11_Tuple_implILm1EJSt14default_deleteIN10tensorflow6Status5StateEEEEC2Ev>:
  403ce8:	55                   	push   %rbp
  403ce9:	48 89 e5             	mov    %rsp,%rbp
  403cec:	48 83 ec 10          	sub    $0x10,%rsp
  403cf0:	48 89 7d f8          	mov    %rdi,-0x8(%rbp)
  403cf4:	48 8b 45 f8          	mov    -0x8(%rbp),%rax
  403cf8:	48 89 c7             	mov    %rax,%rdi
  403cfb:	e8 cc ff ff ff       	callq  403ccc <_ZNSt10_Head_baseILm1ESt14default_deleteIN10tensorflow6Status5StateEELb1EEC2Ev>
  403d00:	90                   	nop
  403d01:	c9                   	leaveq 
  403d02:	c3                   	retq   
  403d03:	90                   	nop

0000000000403d04 <_ZNSt10_Head_baseILm0EPN10tensorflow6Status5StateELb0EEC2Ev>:
  403d04:	55                   	push   %rbp
  403d05:	48 89 e5             	mov    %rsp,%rbp
  403d08:	48 89 7d f8          	mov    %rdi,-0x8(%rbp)
  403d0c:	48 8b 45 f8          	mov    -0x8(%rbp),%rax
  403d10:	48 c7 00 00 00 00 00 	movq   $0x0,(%rax)
  403d17:	90                   	nop
  403d18:	5d                   	pop    %rbp
  403d19:	c3                   	retq   

0000000000403d1a <_ZNSt11_Tuple_implILm0EJPN10tensorflow6Status5StateESt14default_deleteIS2_EEEC2Ev>:
  403d1a:	55                   	push   %rbp
  403d1b:	48 89 e5             	mov    %rsp,%rbp
  403d1e:	48 83 ec 10          	sub    $0x10,%rsp
  403d22:	48 89 7d f8          	mov    %rdi,-0x8(%rbp)
  403d26:	48 8b 45 f8          	mov    -0x8(%rbp),%rax
  403d2a:	48 89 c7             	mov    %rax,%rdi
  403d2d:	e8 b6 ff ff ff       	callq  403ce8 <_ZNSt11_Tuple_implILm1EJSt14default_deleteIN10tensorflow6Status5StateEEEEC2Ev>
  403d32:	48 8b 45 f8          	mov    -0x8(%rbp),%rax
  403d36:	48 89 c7             	mov    %rax,%rdi
  403d39:	e8 c6 ff ff ff       	callq  403d04 <_ZNSt10_Head_baseILm0EPN10tensorflow6Status5StateELb0EEC2Ev>
  403d3e:	90                   	nop
  403d3f:	c9                   	leaveq 
  403d40:	c3                   	retq   
  403d41:	90                   	nop

0000000000403d42 <_ZNSt5tupleIJPN10tensorflow6Status5StateESt14default_deleteIS2_EEEC1IS3_S5_Lb1EEEv>:
  403d42:	55                   	push   %rbp
  403d43:	48 89 e5             	mov    %rsp,%rbp
  403d46:	48 83 ec 10          	sub    $0x10,%rsp
  403d4a:	48 89 7d f8          	mov    %rdi,-0x8(%rbp)
  403d4e:	48 8b 45 f8          	mov    -0x8(%rbp),%rax
  403d52:	48 89 c7             	mov    %rax,%rdi
  403d55:	e8 c0 ff ff ff       	callq  403d1a <_ZNSt11_Tuple_implILm0EJPN10tensorflow6Status5StateESt14default_deleteIS2_EEEC2Ev>
  403d5a:	90                   	nop
  403d5b:	c9                   	leaveq 
  403d5c:	c3                   	retq   
  403d5d:	90                   	nop

0000000000403d5e <_ZNSt10unique_ptrIN10tensorflow6Status5StateESt14default_deleteIS2_EEC1Ev>:
  403d5e:	55                   	push   %rbp
  403d5f:	48 89 e5             	mov    %rsp,%rbp
  403d62:	48 83 ec 10          	sub    $0x10,%rsp
  403d66:	48 89 7d f8          	mov    %rdi,-0x8(%rbp)
  403d6a:	48 8b 45 f8          	mov    -0x8(%rbp),%rax
  403d6e:	48 89 c7             	mov    %rax,%rdi
  403d71:	e8 cc ff ff ff       	callq  403d42 <_ZNSt5tupleIJPN10tensorflow6Status5StateESt14default_deleteIS2_EEEC1IS3_S5_Lb1EEEv>
  403d76:	90                   	nop
  403d77:	c9                   	leaveq 
  403d78:	c3                   	retq   
  403d79:	90                   	nop

0000000000403d7a <_ZN10tensorflow6StatusC1Ev>:
  403d7a:	55                   	push   %rbp
  403d7b:	48 89 e5             	mov    %rsp,%rbp
  403d7e:	48 83 ec 10          	sub    $0x10,%rsp
  403d82:	48 89 7d f8          	mov    %rdi,-0x8(%rbp)
  403d86:	48 8b 45 f8          	mov    -0x8(%rbp),%rax
  403d8a:	48 89 c7             	mov    %rax,%rdi
  403d8d:	e8 cc ff ff ff       	callq  403d5e <_ZNSt10unique_ptrIN10tensorflow6Status5StateESt14default_deleteIS2_EEC1Ev>
  403d92:	90                   	nop
  403d93:	c9                   	leaveq 
  403d94:	c3                   	retq   
  403d95:	90                   	nop

0000000000403d96 <_ZN10tensorflow6StatusD1Ev>:
  403d96:	55                   	push   %rbp
  403d97:	48 89 e5             	mov    %rsp,%rbp
  403d9a:	48 83 ec 10          	sub    $0x10,%rsp
  403d9e:	48 89 7d f8          	mov    %rdi,-0x8(%rbp)
  403da2:	48 8b 45 f8          	mov    -0x8(%rbp),%rax
  403da6:	48 89 c7             	mov    %rax,%rdi
  403da9:	e8 e6 15 00 00       	callq  405394 <_ZNSt10unique_ptrIN10tensorflow6Status5StateESt14default_deleteIS2_EED1Ev>
  403dae:	90                   	nop
  403daf:	c9                   	leaveq 
  403db0:	c3                   	retq   

0000000000403db1 <_ZN10tensorflow6Status2OKEv>:
  403db1:	55                   	push   %rbp
  403db2:	48 89 e5             	mov    %rsp,%rbp
  403db5:	48 83 ec 10          	sub    $0x10,%rsp
  403db9:	48 89 7d f8          	mov    %rdi,-0x8(%rbp)
  403dbd:	48 8b 45 f8          	mov    -0x8(%rbp),%rax
  403dc1:	48 89 c7             	mov    %rax,%rdi
  403dc4:	e8 b1 ff ff ff       	callq  403d7a <_ZN10tensorflow6StatusC1Ev>
  403dc9:	48 8b 45 f8          	mov    -0x8(%rbp),%rax
  403dcd:	c9                   	leaveq 
  403dce:	c3                   	retq   
  403dcf:	90                   	nop

0000000000403dd0 <_ZNK10tensorflow6Status2okEv>:
  403dd0:	55                   	push   %rbp
  403dd1:	48 89 e5             	mov    %rsp,%rbp
  403dd4:	48 83 ec 10          	sub    $0x10,%rsp
  403dd8:	48 89 7d f8          	mov    %rdi,-0x8(%rbp)
  403ddc:	48 8b 45 f8          	mov    -0x8(%rbp),%rax
  403de0:	be 00 00 00 00       	mov    $0x0,%esi
  403de5:	48 89 c7             	mov    %rax,%rdi
  403de8:	e8 01 16 00 00       	callq  4053ee <_ZSteqIN10tensorflow6Status5StateESt14default_deleteIS2_EEbRKSt10unique_ptrIT_T0_EDn>
  403ded:	c9                   	leaveq 
  403dee:	c3                   	retq   
  403def:	90                   	nop

0000000000403df0 <_ZN10tensorflow6Status5StateC1ERKS1_>:
  403df0:	55                   	push   %rbp
  403df1:	48 89 e5             	mov    %rsp,%rbp
  403df4:	48 83 ec 10          	sub    $0x10,%rsp
  403df8:	48 89 7d f8          	mov    %rdi,-0x8(%rbp)
  403dfc:	48 89 75 f0          	mov    %rsi,-0x10(%rbp)
  403e00:	48 8b 45 f0          	mov    -0x10(%rbp),%rax
  403e04:	8b 10                	mov    (%rax),%edx
  403e06:	48 8b 45 f8          	mov    -0x8(%rbp),%rax
  403e0a:	89 10                	mov    %edx,(%rax)
  403e0c:	48 8b 45 f0          	mov    -0x10(%rbp),%rax
  403e10:	48 8d 50 08          	lea    0x8(%rax),%rdx
  403e14:	48 8b 45 f8          	mov    -0x8(%rbp),%rax
  403e18:	48 83 c0 08          	add    $0x8,%rax
  403e1c:	48 89 d6             	mov    %rdx,%rsi
  403e1f:	48 89 c7             	mov    %rax,%rdi
  403e22:	e8 d9 ec ff ff       	callq  402b00 <_ZNSt7__cxx1112basic_stringIcSt11char_traitsIcESaIcEEC1ERKS4_@plt>
  403e27:	90                   	nop
  403e28:	c9                   	leaveq 
  403e29:	c3                   	retq   

0000000000403e2a <_ZN10tensorflow6StatusC1ERKS0_>:
  403e2a:	55                   	push   %rbp
  403e2b:	48 89 e5             	mov    %rsp,%rbp
  403e2e:	41 54                	push   %r12
  403e30:	53                   	push   %rbx
  403e31:	48 83 ec 10          	sub    $0x10,%rsp
  403e35:	48 89 7d e8          	mov    %rdi,-0x18(%rbp)
  403e39:	48 89 75 e0          	mov    %rsi,-0x20(%rbp)
  403e3d:	48 8b 45 e0          	mov    -0x20(%rbp),%rax
  403e41:	be 00 00 00 00       	mov    $0x0,%esi
  403e46:	48 89 c7             	mov    %rax,%rdi
  403e49:	e8 a0 15 00 00       	callq  4053ee <_ZSteqIN10tensorflow6Status5StateESt14default_deleteIS2_EEbRKSt10unique_ptrIT_T0_EDn>
  403e4e:	84 c0                	test   %al,%al
  403e50:	74 07                	je     403e59 <_ZN10tensorflow6StatusC1ERKS0_+0x2f>
  403e52:	ba 00 00 00 00       	mov    $0x0,%edx
  403e57:	eb 2a                	jmp    403e83 <_ZN10tensorflow6StatusC1ERKS0_+0x59>
  403e59:	48 8b 45 e0          	mov    -0x20(%rbp),%rax
  403e5d:	48 89 c7             	mov    %rax,%rdi
  403e60:	e8 ab 15 00 00       	callq  405410 <_ZNKSt10unique_ptrIN10tensorflow6Status5StateESt14default_deleteIS2_EEdeEv>
  403e65:	49 89 c4             	mov    %rax,%r12
  403e68:	bf 28 00 00 00       	mov    $0x28,%edi
  403e6d:	e8 4e f0 ff ff       	callq  402ec0 <_Znwm@plt>
  403e72:	48 89 c3             	mov    %rax,%rbx
  403e75:	4c 89 e6             	mov    %r12,%rsi
  403e78:	48 89 df             	mov    %rbx,%rdi
  403e7b:	e8 70 ff ff ff       	callq  403df0 <_ZN10tensorflow6Status5StateC1ERKS1_>
  403e80:	48 89 da             	mov    %rbx,%rdx
  403e83:	48 8b 45 e8          	mov    -0x18(%rbp),%rax
  403e87:	48 89 d6             	mov    %rdx,%rsi
  403e8a:	48 89 c7             	mov    %rax,%rdi
  403e8d:	e8 98 15 00 00       	callq  40542a <_ZNSt10unique_ptrIN10tensorflow6Status5StateESt14default_deleteIS2_EEC1EPS2_>
  403e92:	eb 16                	jmp    403eaa <_ZN10tensorflow6StatusC1ERKS0_+0x80>
  403e94:	49 89 c4             	mov    %rax,%r12
  403e97:	48 89 df             	mov    %rbx,%rdi
  403e9a:	e8 d1 ec ff ff       	callq  402b70 <_ZdlPv@plt>
  403e9f:	4c 89 e0             	mov    %r12,%rax
  403ea2:	48 89 c7             	mov    %rax,%rdi
  403ea5:	e8 26 ef ff ff       	callq  402dd0 <_Unwind_Resume@plt>
  403eaa:	48 83 c4 10          	add    $0x10,%rsp
  403eae:	5b                   	pop    %rbx
  403eaf:	41 5c                	pop    %r12
  403eb1:	5d                   	pop    %rbp
  403eb2:	c3                   	retq   

0000000000403eb3 <_ZN10tensorflow15TfCheckOpHelperB5cxx11ENS_6StatusEPKc>:
  403eb3:	55                   	push   %rbp
  403eb4:	48 89 e5             	mov    %rsp,%rbp
  403eb7:	48 83 ec 10          	sub    $0x10,%rsp
  403ebb:	48 89 7d f8          	mov    %rdi,-0x8(%rbp)
  403ebf:	48 89 75 f0          	mov    %rsi,-0x10(%rbp)
  403ec3:	48 8b 45 f8          	mov    -0x8(%rbp),%rax
  403ec7:	48 89 c7             	mov    %rax,%rdi
  403eca:	e8 01 ff ff ff       	callq  403dd0 <_ZNK10tensorflow6Status2okEv>
  403ecf:	84 c0                	test   %al,%al
  403ed1:	74 07                	je     403eda <_ZN10tensorflow15TfCheckOpHelperB5cxx11ENS_6StatusEPKc+0x27>
  403ed3:	b8 00 00 00 00       	mov    $0x0,%eax
  403ed8:	eb 13                	jmp    403eed <_ZN10tensorflow15TfCheckOpHelperB5cxx11ENS_6StatusEPKc+0x3a>
  403eda:	48 8b 55 f0          	mov    -0x10(%rbp),%rdx
  403ede:	48 8b 45 f8          	mov    -0x8(%rbp),%rax
  403ee2:	48 89 d6             	mov    %rdx,%rsi
  403ee5:	48 89 c7             	mov    %rax,%rdi
  403ee8:	e8 a3 f0 ff ff       	callq  402f90 <_ZN10tensorflow24TfCheckOpHelperOutOfLineB5cxx11ERKNS_6StatusEPKc@plt>
  403eed:	c9                   	leaveq 
  403eee:	c3                   	retq   
  403eef:	90                   	nop

0000000000403ef0 <_ZNK10tensorflow14TensorShapeRep12num_elementsEv>:
  403ef0:	55                   	push   %rbp
  403ef1:	48 89 e5             	mov    %rsp,%rbp
  403ef4:	48 89 7d f8          	mov    %rdi,-0x8(%rbp)
  403ef8:	48 8b 45 f8          	mov    -0x8(%rbp),%rax
  403efc:	48 8b 40 10          	mov    0x10(%rax),%rax
  403f00:	5d                   	pop    %rbp
  403f01:	c3                   	retq   

0000000000403f02 <_ZNK10tensorflow14TensorShapeRep3tagEv>:
  403f02:	55                   	push   %rbp
  403f03:	48 89 e5             	mov    %rsp,%rbp
  403f06:	48 83 ec 10          	sub    $0x10,%rsp
  403f0a:	48 89 7d f8          	mov    %rdi,-0x8(%rbp)
  403f0e:	48 8b 45 f8          	mov    -0x8(%rbp),%rax
  403f12:	48 89 c7             	mov    %rax,%rdi
  403f15:	e8 42 00 00 00       	callq  403f5c <_ZNK10tensorflow14TensorShapeRep3bufEv>
  403f1a:	48 83 c0 0f          	add    $0xf,%rax
  403f1e:	0f b6 00             	movzbl (%rax),%eax
  403f21:	0f b6 c0             	movzbl %al,%eax
  403f24:	c9                   	leaveq 
  403f25:	c3                   	retq   

0000000000403f26 <_ZN10tensorflow14TensorShapeRep7set_tagENS0_6RepTagE>:
  403f26:	55                   	push   %rbp
  403f27:	48 89 e5             	mov    %rsp,%rbp
  403f2a:	48 83 ec 10          	sub    $0x10,%rsp
  403f2e:	48 89 7d f8          	mov    %rdi,-0x8(%rbp)
  403f32:	89 75 f4             	mov    %esi,-0xc(%rbp)
  403f35:	48 8b 45 f8          	mov    -0x8(%rbp),%rax
  403f39:	48 89 c7             	mov    %rax,%rdi
  403f3c:	e8 0d 00 00 00       	callq  403f4e <_ZN10tensorflow14TensorShapeRep3bufEv>
  403f41:	48 83 c0 0f          	add    $0xf,%rax
  403f45:	8b 55 f4             	mov    -0xc(%rbp),%edx
  403f48:	88 10                	mov    %dl,(%rax)
  403f4a:	90                   	nop
  403f4b:	c9                   	leaveq 
  403f4c:	c3                   	retq   
  403f4d:	90                   	nop

0000000000403f4e <_ZN10tensorflow14TensorShapeRep3bufEv>:
  403f4e:	55                   	push   %rbp
  403f4f:	48 89 e5             	mov    %rsp,%rbp
  403f52:	48 89 7d f8          	mov    %rdi,-0x8(%rbp)
  403f56:	48 8b 45 f8          	mov    -0x8(%rbp),%rax
  403f5a:	5d                   	pop    %rbp
  403f5b:	c3                   	retq   

0000000000403f5c <_ZNK10tensorflow14TensorShapeRep3bufEv>:
  403f5c:	55                   	push   %rbp
  403f5d:	48 89 e5             	mov    %rsp,%rbp
  403f60:	48 89 7d f8          	mov    %rdi,-0x8(%rbp)
  403f64:	48 8b 45 f8          	mov    -0x8(%rbp),%rax
  403f68:	5d                   	pop    %rbp
  403f69:	c3                   	retq   

0000000000403f6a <_ZN10tensorflow14TensorShapeRepC1ERKS0_>:
  403f6a:	55                   	push   %rbp
  403f6b:	48 89 e5             	mov    %rsp,%rbp
  403f6e:	53                   	push   %rbx
  403f6f:	48 83 ec 18          	sub    $0x18,%rsp
  403f73:	48 89 7d e8          	mov    %rdi,-0x18(%rbp)
  403f77:	48 89 75 e0          	mov    %rsi,-0x20(%rbp)
  403f7b:	48 8b 45 e0          	mov    -0x20(%rbp),%rax
  403f7f:	48 8b 50 10          	mov    0x10(%rax),%rdx
  403f83:	48 8b 45 e8          	mov    -0x18(%rbp),%rax
  403f87:	48 89 50 10          	mov    %rdx,0x10(%rax)
  403f8b:	48 8b 45 e0          	mov    -0x20(%rbp),%rax
  403f8f:	48 89 c7             	mov    %rax,%rdi
  403f92:	e8 6b ff ff ff       	callq  403f02 <_ZNK10tensorflow14TensorShapeRep3tagEv>
  403f97:	83 f8 02             	cmp    $0x2,%eax
  403f9a:	0f 95 c0             	setne  %al
  403f9d:	84 c0                	test   %al,%al
  403f9f:	74 2e                	je     403fcf <_ZN10tensorflow14TensorShapeRepC1ERKS0_+0x65>
  403fa1:	48 8b 45 e0          	mov    -0x20(%rbp),%rax
  403fa5:	48 89 c7             	mov    %rax,%rdi
  403fa8:	e8 af ff ff ff       	callq  403f5c <_ZNK10tensorflow14TensorShapeRep3bufEv>
  403fad:	48 89 c3             	mov    %rax,%rbx
  403fb0:	48 8b 45 e8          	mov    -0x18(%rbp),%rax
  403fb4:	48 89 c7             	mov    %rax,%rdi
  403fb7:	e8 92 ff ff ff       	callq  403f4e <_ZN10tensorflow14TensorShapeRep3bufEv>
  403fbc:	48 89 c1             	mov    %rax,%rcx
  403fbf:	48 8b 03             	mov    (%rbx),%rax
  403fc2:	48 8b 53 08          	mov    0x8(%rbx),%rdx
  403fc6:	48 89 01             	mov    %rax,(%rcx)
  403fc9:	48 89 51 08          	mov    %rdx,0x8(%rcx)
  403fcd:	eb 24                	jmp    403ff3 <_ZN10tensorflow14TensorShapeRepC1ERKS0_+0x89>
  403fcf:	48 8b 45 e8          	mov    -0x18(%rbp),%rax
  403fd3:	be 00 00 00 00       	mov    $0x0,%esi
  403fd8:	48 89 c7             	mov    %rax,%rdi
  403fdb:	e8 46 ff ff ff       	callq  403f26 <_ZN10tensorflow14TensorShapeRep7set_tagENS0_6RepTagE>
  403fe0:	48 8b 55 e0          	mov    -0x20(%rbp),%rdx
  403fe4:	48 8b 45 e8          	mov    -0x18(%rbp),%rax
  403fe8:	48 89 d6             	mov    %rdx,%rsi
  403feb:	48 89 c7             	mov    %rax,%rdi
  403fee:	e8 1d ee ff ff       	callq  402e10 <_ZN10tensorflow14TensorShapeRep12SlowCopyFromERKS0_@plt>
  403ff3:	90                   	nop
  403ff4:	48 83 c4 18          	add    $0x18,%rsp
  403ff8:	5b                   	pop    %rbx
  403ff9:	5d                   	pop    %rbp
  403ffa:	c3                   	retq   
  403ffb:	90                   	nop

0000000000403ffc <_ZN10tensorflow14TensorShapeRepD1Ev>:
  403ffc:	55                   	push   %rbp
  403ffd:	48 89 e5             	mov    %rsp,%rbp
  404000:	48 83 ec 10          	sub    $0x10,%rsp
  404004:	48 89 7d f8          	mov    %rdi,-0x8(%rbp)
  404008:	48 8b 45 f8          	mov    -0x8(%rbp),%rax
  40400c:	48 89 c7             	mov    %rax,%rdi
  40400f:	e8 ee fe ff ff       	callq  403f02 <_ZNK10tensorflow14TensorShapeRep3tagEv>
  404014:	83 f8 02             	cmp    $0x2,%eax
  404017:	0f 94 c0             	sete   %al
  40401a:	84 c0                	test   %al,%al
  40401c:	74 0c                	je     40402a <_ZN10tensorflow14TensorShapeRepD1Ev+0x2e>
  40401e:	48 8b 45 f8          	mov    -0x8(%rbp),%rax
  404022:	48 89 c7             	mov    %rax,%rdi
  404025:	e8 f6 eb ff ff       	callq  402c20 <_ZN10tensorflow14TensorShapeRep19DestructorOutOfLineEv@plt>
  40402a:	90                   	nop
  40402b:	c9                   	leaveq 
  40402c:	c3                   	retq   

000000000040402d <_ZN10tensorflow14DataTypeToEnumIfE1vEv>:
  40402d:	55                   	push   %rbp
  40402e:	48 89 e5             	mov    %rsp,%rbp
  404031:	b8 01 00 00 00       	mov    $0x1,%eax
  404036:	5d                   	pop    %rbp
  404037:	c3                   	retq   

0000000000404038 <_ZN10tensorflow4core10RefCountedD1Ev>:
  404038:	55                   	push   %rbp
  404039:	48 89 e5             	mov    %rsp,%rbp
  40403c:	53                   	push   %rbx
  40403d:	48 81 ec d8 01 00 00 	sub    $0x1d8,%rsp
  404044:	48 89 bd 28 fe ff ff 	mov    %rdi,-0x1d8(%rbp)
  40404b:	64 48 8b 04 25 28 00 	mov    %fs:0x28,%rax
  404052:	00 00 
  404054:	48 89 45 e8          	mov    %rax,-0x18(%rbp)
  404058:	31 c0                	xor    %eax,%eax
  40405a:	ba 08 8b 40 00       	mov    $0x408b08,%edx
  40405f:	48 8b 85 28 fe ff ff 	mov    -0x1d8(%rbp),%rax
  404066:	48 89 10             	mov    %rdx,(%rax)
  404069:	bf 00 00 00 00       	mov    $0x0,%edi
  40406e:	e8 d3 fb ff ff       	callq  403c46 <_ZN10tensorflow8internal21GetReferenceableValueEi>
  404073:	89 85 3c fe ff ff    	mov    %eax,-0x1c4(%rbp)
  404079:	48 8b 85 28 fe ff ff 	mov    -0x1d8(%rbp),%rax
  404080:	48 83 c0 08          	add    $0x8,%rax
  404084:	48 89 85 58 fe ff ff 	mov    %rax,-0x1a8(%rbp)
  40408b:	c7 85 40 fe ff ff 05 	movl   $0x5,-0x1c0(%rbp)
  404092:	00 00 00 
  404095:	8b 85 40 fe ff ff    	mov    -0x1c0(%rbp),%eax
  40409b:	be ff ff 00 00       	mov    $0xffff,%esi
  4040a0:	89 c7                	mov    %eax,%edi
  4040a2:	e8 f1 fa ff ff       	callq  403b98 <_ZStanSt12memory_orderSt23__memory_order_modifier>
  4040a7:	89 85 44 fe ff ff    	mov    %eax,-0x1bc(%rbp)
  4040ad:	48 8b 85 58 fe ff ff 	mov    -0x1a8(%rbp),%rax
  4040b4:	48 8b 00             	mov    (%rax),%rax
  4040b7:	48 89 c7             	mov    %rax,%rdi
  4040ba:	e8 93 fb ff ff       	callq  403c52 <_ZN10tensorflow8internal21GetReferenceableValueEl>
  4040bf:	48 89 85 50 fe ff ff 	mov    %rax,-0x1b0(%rbp)
  4040c6:	48 8d 8d 3c fe ff ff 	lea    -0x1c4(%rbp),%rcx
  4040cd:	48 8d 85 50 fe ff ff 	lea    -0x1b0(%rbp),%rax
  4040d4:	ba 7c 85 40 00       	mov    $0x40857c,%edx
  4040d9:	48 89 ce             	mov    %rcx,%rsi
  4040dc:	48 89 c7             	mov    %rax,%rdi
  4040df:	e8 1e 14 00 00       	callq  405502 <_ZN10tensorflow8internal12Check_EQImplIliEEPNSt7__cxx1112basic_stringIcSt11char_traitsIcESaIcEEERKT_RKT0_PKc>
  4040e4:	48 89 c2             	mov    %rax,%rdx
  4040e7:	48 8d 85 48 fe ff ff 	lea    -0x1b8(%rbp),%rax
  4040ee:	48 89 d6             	mov    %rdx,%rsi
  4040f1:	48 89 c7             	mov    %rax,%rdi
  4040f4:	e8 83 fb ff ff       	callq  403c7c <_ZN10tensorflow8internal13CheckOpStringC1EPNSt7__cxx1112basic_stringIcSt11char_traitsIcESaIcEEE>
  4040f9:	48 8d 85 48 fe ff ff 	lea    -0x1b8(%rbp),%rax
  404100:	48 89 c7             	mov    %rax,%rdi
  404103:	e8 8e fb ff ff       	callq  403c96 <_ZNK10tensorflow8internal13CheckOpStringcvbEv>
  404108:	83 f0 01             	xor    $0x1,%eax
  40410b:	84 c0                	test   %al,%al
  40410d:	75 41                	jne    404150 <_ZN10tensorflow4core10RefCountedD1Ev+0x118>
  40410f:	48 8b 9d 48 fe ff ff 	mov    -0x1b8(%rbp),%rbx
  404116:	48 8d 85 60 fe ff ff 	lea    -0x1a0(%rbp),%rax
  40411d:	ba 4f 00 00 00       	mov    $0x4f,%edx
  404122:	be 90 85 40 00       	mov    $0x408590,%esi
  404127:	48 89 c7             	mov    %rax,%rdi
  40412a:	e8 f1 e9 ff ff       	callq  402b20 <_ZN10tensorflow8internal15LogMessageFatalC1EPKci@plt>
  40412f:	48 8d 85 60 fe ff ff 	lea    -0x1a0(%rbp),%rax
  404136:	48 89 de             	mov    %rbx,%rsi
  404139:	48 89 c7             	mov    %rax,%rdi
  40413c:	e8 98 13 00 00       	callq  4054d9 <_ZStlsIcSt11char_traitsIcENSt7__cxx1112basic_stringIcS1_SaIcEEEERSt13basic_ostreamIT_T0_EOS9_RKT1_>
  404141:	48 8d 85 60 fe ff ff 	lea    -0x1a0(%rbp),%rax
  404148:	48 89 c7             	mov    %rax,%rdi
  40414b:	e8 60 eb ff ff       	callq  402cb0 <_ZN10tensorflow8internal15LogMessageFatalD1Ev@plt>
  404150:	90                   	nop
  404151:	48 8b 45 e8          	mov    -0x18(%rbp),%rax
  404155:	64 48 33 04 25 28 00 	xor    %fs:0x28,%rax
  40415c:	00 00 
  40415e:	74 05                	je     404165 <_ZN10tensorflow4core10RefCountedD1Ev+0x12d>
  404160:	e8 db e9 ff ff       	callq  402b40 <__stack_chk_fail@plt>
  404165:	48 81 c4 d8 01 00 00 	add    $0x1d8,%rsp
  40416c:	5b                   	pop    %rbx
  40416d:	5d                   	pop    %rbp
  40416e:	c3                   	retq   
  40416f:	90                   	nop

0000000000404170 <_ZN10tensorflow4core10RefCountedD0Ev>:
  404170:	55                   	push   %rbp
  404171:	48 89 e5             	mov    %rsp,%rbp
  404174:	48 83 ec 10          	sub    $0x10,%rsp
  404178:	48 89 7d f8          	mov    %rdi,-0x8(%rbp)
  40417c:	48 8b 45 f8          	mov    -0x8(%rbp),%rax
  404180:	48 89 c7             	mov    %rax,%rdi
  404183:	e8 b0 fe ff ff       	callq  404038 <_ZN10tensorflow4core10RefCountedD1Ev>
  404188:	48 8b 45 f8          	mov    -0x8(%rbp),%rax
  40418c:	48 89 c7             	mov    %rax,%rdi
  40418f:	e8 dc e9 ff ff       	callq  402b70 <_ZdlPv@plt>
  404194:	c9                   	leaveq 
  404195:	c3                   	retq   

0000000000404196 <_ZNK10tensorflow4core10RefCounted3RefEv>:
  404196:	55                   	push   %rbp
  404197:	48 89 e5             	mov    %rsp,%rbp
  40419a:	53                   	push   %rbx
  40419b:	48 81 ec e8 01 00 00 	sub    $0x1e8,%rsp
  4041a2:	48 89 bd 18 fe ff ff 	mov    %rdi,-0x1e8(%rbp)
  4041a9:	64 48 8b 04 25 28 00 	mov    %fs:0x28,%rax
  4041b0:	00 00 
  4041b2:	48 89 45 e8          	mov    %rax,-0x18(%rbp)
  4041b6:	31 c0                	xor    %eax,%eax
  4041b8:	bf 01 00 00 00       	mov    $0x1,%edi
  4041bd:	e8 84 fa ff ff       	callq  403c46 <_ZN10tensorflow8internal21GetReferenceableValueEi>
  4041c2:	89 85 28 fe ff ff    	mov    %eax,-0x1d8(%rbp)
  4041c8:	48 8b 85 18 fe ff ff 	mov    -0x1e8(%rbp),%rax
  4041cf:	48 83 c0 08          	add    $0x8,%rax
  4041d3:	48 89 85 48 fe ff ff 	mov    %rax,-0x1b8(%rbp)
  4041da:	c7 85 2c fe ff ff 05 	movl   $0x5,-0x1d4(%rbp)
  4041e1:	00 00 00 
  4041e4:	8b 85 2c fe ff ff    	mov    -0x1d4(%rbp),%eax
  4041ea:	be ff ff 00 00       	mov    $0xffff,%esi
  4041ef:	89 c7                	mov    %eax,%edi
  4041f1:	e8 a2 f9 ff ff       	callq  403b98 <_ZStanSt12memory_orderSt23__memory_order_modifier>
  4041f6:	89 85 30 fe ff ff    	mov    %eax,-0x1d0(%rbp)
  4041fc:	48 8b 85 48 fe ff ff 	mov    -0x1b8(%rbp),%rax
  404203:	48 8b 00             	mov    (%rax),%rax
  404206:	48 89 c7             	mov    %rax,%rdi
  404209:	e8 44 fa ff ff       	callq  403c52 <_ZN10tensorflow8internal21GetReferenceableValueEl>
  40420e:	48 89 85 40 fe ff ff 	mov    %rax,-0x1c0(%rbp)
  404215:	48 8d 8d 28 fe ff ff 	lea    -0x1d8(%rbp),%rcx
  40421c:	48 8d 85 40 fe ff ff 	lea    -0x1c0(%rbp),%rax
  404223:	ba 16 86 40 00       	mov    $0x408616,%edx
  404228:	48 89 ce             	mov    %rcx,%rsi
  40422b:	48 89 c7             	mov    %rax,%rdi
  40422e:	e8 17 13 00 00       	callq  40554a <_ZN10tensorflow8internal12Check_GEImplIliEEPNSt7__cxx1112basic_stringIcSt11char_traitsIcESaIcEEERKT_RKT0_PKc>
  404233:	48 89 c2             	mov    %rax,%rdx
  404236:	48 8d 85 38 fe ff ff 	lea    -0x1c8(%rbp),%rax
  40423d:	48 89 d6             	mov    %rdx,%rsi
  404240:	48 89 c7             	mov    %rax,%rdi
  404243:	e8 34 fa ff ff       	callq  403c7c <_ZN10tensorflow8internal13CheckOpStringC1EPNSt7__cxx1112basic_stringIcSt11char_traitsIcESaIcEEE>
  404248:	48 8d 85 38 fe ff ff 	lea    -0x1c8(%rbp),%rax
  40424f:	48 89 c7             	mov    %rax,%rdi
  404252:	e8 3f fa ff ff       	callq  403c96 <_ZNK10tensorflow8internal13CheckOpStringcvbEv>
  404257:	83 f0 01             	xor    $0x1,%eax
  40425a:	84 c0                	test   %al,%al
  40425c:	75 41                	jne    40429f <_ZNK10tensorflow4core10RefCounted3RefEv+0x109>
  40425e:	48 8b 9d 38 fe ff ff 	mov    -0x1c8(%rbp),%rbx
  404265:	48 8d 85 60 fe ff ff 	lea    -0x1a0(%rbp),%rax
  40426c:	ba 52 00 00 00       	mov    $0x52,%edx
  404271:	be 90 85 40 00       	mov    $0x408590,%esi
  404276:	48 89 c7             	mov    %rax,%rdi
  404279:	e8 a2 e8 ff ff       	callq  402b20 <_ZN10tensorflow8internal15LogMessageFatalC1EPKci@plt>
  40427e:	48 8d 85 60 fe ff ff 	lea    -0x1a0(%rbp),%rax
  404285:	48 89 de             	mov    %rbx,%rsi
  404288:	48 89 c7             	mov    %rax,%rdi
  40428b:	e8 49 12 00 00       	callq  4054d9 <_ZStlsIcSt11char_traitsIcENSt7__cxx1112basic_stringIcS1_SaIcEEEERSt13basic_ostreamIT_T0_EOS9_RKT1_>
  404290:	48 8d 85 60 fe ff ff 	lea    -0x1a0(%rbp),%rax
  404297:	48 89 c7             	mov    %rax,%rdi
  40429a:	e8 11 ea ff ff       	callq  402cb0 <_ZN10tensorflow8internal15LogMessageFatalD1Ev@plt>
  40429f:	48 8b 85 18 fe ff ff 	mov    -0x1e8(%rbp),%rax
  4042a6:	48 83 c0 08          	add    $0x8,%rax
  4042aa:	48 89 85 50 fe ff ff 	mov    %rax,-0x1b0(%rbp)
  4042b1:	48 c7 85 58 fe ff ff 	movq   $0x1,-0x1a8(%rbp)
  4042b8:	01 00 00 00 
  4042bc:	c7 85 34 fe ff ff 00 	movl   $0x0,-0x1cc(%rbp)
  4042c3:	00 00 00 
  4042c6:	48 8b 95 58 fe ff ff 	mov    -0x1a8(%rbp),%rdx
  4042cd:	48 8b 85 50 fe ff ff 	mov    -0x1b0(%rbp),%rax
  4042d4:	f0 48 0f c1 10       	lock xadd %rdx,(%rax)
  4042d9:	90                   	nop
  4042da:	48 8b 45 e8          	mov    -0x18(%rbp),%rax
  4042de:	64 48 33 04 25 28 00 	xor    %fs:0x28,%rax
  4042e5:	00 00 
  4042e7:	74 16                	je     4042ff <_ZNK10tensorflow4core10RefCounted3RefEv+0x169>
  4042e9:	eb 0f                	jmp    4042fa <_ZNK10tensorflow4core10RefCounted3RefEv+0x164>
  4042eb:	48 8d 85 60 fe ff ff 	lea    -0x1a0(%rbp),%rax
  4042f2:	48 89 c7             	mov    %rax,%rdi
  4042f5:	e8 b6 e9 ff ff       	callq  402cb0 <_ZN10tensorflow8internal15LogMessageFatalD1Ev@plt>
  4042fa:	e8 41 e8 ff ff       	callq  402b40 <__stack_chk_fail@plt>
  4042ff:	48 81 c4 e8 01 00 00 	add    $0x1e8,%rsp
  404306:	5b                   	pop    %rbx
  404307:	5d                   	pop    %rbp
  404308:	c3                   	retq   
  404309:	90                   	nop

000000000040430a <_ZNK10tensorflow6Tensor5shapeEv>:
  40430a:	55                   	push   %rbp
  40430b:	48 89 e5             	mov    %rsp,%rbp
  40430e:	48 89 7d f8          	mov    %rdi,-0x8(%rbp)
  404312:	48 8b 45 f8          	mov    -0x8(%rbp),%rax
  404316:	5d                   	pop    %rbp
  404317:	c3                   	retq   

0000000000404318 <_ZNK10tensorflow6Tensor11NumElementsEv>:
  404318:	55                   	push   %rbp
  404319:	48 89 e5             	mov    %rsp,%rbp
  40431c:	48 83 ec 10          	sub    $0x10,%rsp
  404320:	48 89 7d f8          	mov    %rdi,-0x8(%rbp)
  404324:	48 8b 45 f8          	mov    -0x8(%rbp),%rax
  404328:	48 89 c7             	mov    %rax,%rdi
  40432b:	e8 da ff ff ff       	callq  40430a <_ZNK10tensorflow6Tensor5shapeEv>
  404330:	48 89 c7             	mov    %rax,%rdi
  404333:	e8 b8 fb ff ff       	callq  403ef0 <_ZNK10tensorflow14TensorShapeRep12num_elementsEv>
  404338:	c9                   	leaveq 
  404339:	c3                   	retq   

000000000040433a <_ZNK10tensorflow6Tensor9IsAlignedEv>:
  40433a:	55                   	push   %rbp
  40433b:	48 89 e5             	mov    %rsp,%rbp
  40433e:	48 83 ec 20          	sub    $0x20,%rsp
  404342:	48 89 7d e8          	mov    %rdi,-0x18(%rbp)
  404346:	48 8b 45 e8          	mov    -0x18(%rbp),%rax
  40434a:	48 89 c7             	mov    %rax,%rdi
  40434d:	e8 40 12 00 00       	callq  405592 <_ZNK10tensorflow6Tensor4baseIvEEPT_v>
  404352:	48 89 45 f8          	mov    %rax,-0x8(%rbp)
  404356:	48 8b 45 f8          	mov    -0x8(%rbp),%rax
  40435a:	83 e0 0f             	and    $0xf,%eax
  40435d:	48 85 c0             	test   %rax,%rax
  404360:	0f 94 c0             	sete   %al
  404363:	c9                   	leaveq 
  404364:	c3                   	retq   
  404365:	90                   	nop

0000000000404366 <_ZN10tensorflow15TensorShapeBaseINS_11TensorShapeEEC1ERKS2_>:
  404366:	55                   	push   %rbp
  404367:	48 89 e5             	mov    %rsp,%rbp
  40436a:	48 83 ec 10          	sub    $0x10,%rsp
  40436e:	48 89 7d f8          	mov    %rdi,-0x8(%rbp)
  404372:	48 89 75 f0          	mov    %rsi,-0x10(%rbp)
  404376:	48 8b 55 f0          	mov    -0x10(%rbp),%rdx
  40437a:	48 8b 45 f8          	mov    -0x8(%rbp),%rax
  40437e:	48 89 d6             	mov    %rdx,%rsi
  404381:	48 89 c7             	mov    %rax,%rdi
  404384:	e8 e1 fb ff ff       	callq  403f6a <_ZN10tensorflow14TensorShapeRepC1ERKS0_>
  404389:	90                   	nop
  40438a:	c9                   	leaveq 
  40438b:	c3                   	retq   

000000000040438c <_ZN10tensorflow15TensorShapeBaseINS_11TensorShapeEED1Ev>:
  40438c:	55                   	push   %rbp
  40438d:	48 89 e5             	mov    %rsp,%rbp
  404390:	48 83 ec 10          	sub    $0x10,%rsp
  404394:	48 89 7d f8          	mov    %rdi,-0x8(%rbp)
  404398:	48 8b 45 f8          	mov    -0x8(%rbp),%rax
  40439c:	48 89 c7             	mov    %rax,%rdi
  40439f:	e8 58 fc ff ff       	callq  403ffc <_ZN10tensorflow14TensorShapeRepD1Ev>
  4043a4:	90                   	nop
  4043a5:	c9                   	leaveq 
  4043a6:	c3                   	retq   
  4043a7:	90                   	nop

00000000004043a8 <_ZN10tensorflow11TensorShapeC1ERKS0_>:
  4043a8:	55                   	push   %rbp
  4043a9:	48 89 e5             	mov    %rsp,%rbp
  4043ac:	48 83 ec 10          	sub    $0x10,%rsp
  4043b0:	48 89 7d f8          	mov    %rdi,-0x8(%rbp)
  4043b4:	48 89 75 f0          	mov    %rsi,-0x10(%rbp)
  4043b8:	48 8b 55 f0          	mov    -0x10(%rbp),%rdx
  4043bc:	48 8b 45 f8          	mov    -0x8(%rbp),%rax
  4043c0:	48 89 d6             	mov    %rdx,%rsi
  4043c3:	48 89 c7             	mov    %rax,%rdi
  4043c6:	e8 9b ff ff ff       	callq  404366 <_ZN10tensorflow15TensorShapeBaseINS_11TensorShapeEEC1ERKS2_>
  4043cb:	90                   	nop
  4043cc:	c9                   	leaveq 
  4043cd:	c3                   	retq   

00000000004043ce <_ZN10tensorflow11TensorShapeD1Ev>:
  4043ce:	55                   	push   %rbp
  4043cf:	48 89 e5             	mov    %rsp,%rbp
  4043d2:	48 83 ec 10          	sub    $0x10,%rsp
  4043d6:	48 89 7d f8          	mov    %rdi,-0x8(%rbp)
  4043da:	48 8b 45 f8          	mov    -0x8(%rbp),%rax
  4043de:	48 89 c7             	mov    %rax,%rdi
  4043e1:	e8 a6 ff ff ff       	callq  40438c <_ZN10tensorflow15TensorShapeBaseINS_11TensorShapeEED1Ev>
  4043e6:	90                   	nop
  4043e7:	c9                   	leaveq 
  4043e8:	c3                   	retq   
  4043e9:	90                   	nop

00000000004043ea <_ZN10tensorflow6TensorC1ERKS0_>:
  4043ea:	55                   	push   %rbp
  4043eb:	48 89 e5             	mov    %rsp,%rbp
  4043ee:	53                   	push   %rbx
  4043ef:	48 83 ec 18          	sub    $0x18,%rsp
  4043f3:	48 89 7d e8          	mov    %rdi,-0x18(%rbp)
  4043f7:	48 89 75 e0          	mov    %rsi,-0x20(%rbp)
  4043fb:	48 8b 45 e0          	mov    -0x20(%rbp),%rax
  4043ff:	48 89 c7             	mov    %rax,%rdi
  404402:	e8 03 ff ff ff       	callq  40430a <_ZNK10tensorflow6Tensor5shapeEv>
  404407:	48 89 c2             	mov    %rax,%rdx
  40440a:	48 8b 45 e8          	mov    -0x18(%rbp),%rax
  40440e:	48 89 d6             	mov    %rdx,%rsi
  404411:	48 89 c7             	mov    %rax,%rdi
  404414:	e8 8f ff ff ff       	callq  4043a8 <_ZN10tensorflow11TensorShapeC1ERKS0_>
  404419:	48 8b 45 e0          	mov    -0x20(%rbp),%rax
  40441d:	48 8b 50 18          	mov    0x18(%rax),%rdx
  404421:	48 8b 45 e8          	mov    -0x18(%rbp),%rax
  404425:	48 89 50 18          	mov    %rdx,0x18(%rax)
  404429:	48 8b 45 e8          	mov    -0x18(%rbp),%rax
  40442d:	48 8b 40 18          	mov    0x18(%rax),%rax
  404431:	48 85 c0             	test   %rax,%rax
  404434:	74 2c                	je     404462 <_ZN10tensorflow6TensorC1ERKS0_+0x78>
  404436:	48 8b 45 e8          	mov    -0x18(%rbp),%rax
  40443a:	48 8b 40 18          	mov    0x18(%rax),%rax
  40443e:	48 89 c7             	mov    %rax,%rdi
  404441:	e8 50 fd ff ff       	callq  404196 <_ZNK10tensorflow4core10RefCounted3RefEv>
  404446:	eb 1a                	jmp    404462 <_ZN10tensorflow6TensorC1ERKS0_+0x78>
  404448:	48 89 c3             	mov    %rax,%rbx
  40444b:	48 8b 45 e8          	mov    -0x18(%rbp),%rax
  40444f:	48 89 c7             	mov    %rax,%rdi
  404452:	e8 77 ff ff ff       	callq  4043ce <_ZN10tensorflow11TensorShapeD1Ev>
  404457:	48 89 d8             	mov    %rbx,%rax
  40445a:	48 89 c7             	mov    %rax,%rdi
  40445d:	e8 6e e9 ff ff       	callq  402dd0 <_Unwind_Resume@plt>
  404462:	90                   	nop
  404463:	48 83 c4 18          	add    $0x18,%rsp
  404467:	5b                   	pop    %rbx
  404468:	5d                   	pop    %rbp
  404469:	c3                   	retq   

000000000040446a <_ZN10tensorflow9OperationD1Ev>:
  40446a:	55                   	push   %rbp
  40446b:	48 89 e5             	mov    %rsp,%rbp
  40446e:	48 83 ec 10          	sub    $0x10,%rsp
  404472:	48 89 7d f8          	mov    %rdi,-0x8(%rbp)
  404476:	48 8b 45 f8          	mov    -0x8(%rbp),%rax
  40447a:	48 89 c7             	mov    %rax,%rdi
  40447d:	e8 42 11 00 00       	callq  4055c4 <_ZNSt6vectorISt4pairIPN10tensorflow4NodeEiESaIS4_EED1Ev>
  404482:	90                   	nop
  404483:	c9                   	leaveq 
  404484:	c3                   	retq   
  404485:	90                   	nop

0000000000404486 <_ZN10tensorflow9OperationC1ERKS0_>:
  404486:	55                   	push   %rbp
  404487:	48 89 e5             	mov    %rsp,%rbp
  40448a:	48 83 ec 10          	sub    $0x10,%rsp
  40448e:	48 89 7d f8          	mov    %rdi,-0x8(%rbp)
  404492:	48 89 75 f0          	mov    %rsi,-0x10(%rbp)
  404496:	48 8b 55 f0          	mov    -0x10(%rbp),%rdx
  40449a:	48 8b 45 f8          	mov    -0x8(%rbp),%rax
  40449e:	48 89 d6             	mov    %rdx,%rsi
  4044a1:	48 89 c7             	mov    %rax,%rdi
  4044a4:	e8 5f 11 00 00       	callq  405608 <_ZNSt6vectorISt4pairIPN10tensorflow4NodeEiESaIS4_EEC1ERKS6_>
  4044a9:	48 8b 45 f0          	mov    -0x10(%rbp),%rax
  4044ad:	48 8b 50 18          	mov    0x18(%rax),%rdx
  4044b1:	48 8b 45 f8          	mov    -0x8(%rbp),%rax
  4044b5:	48 89 50 18          	mov    %rdx,0x18(%rax)
  4044b9:	90                   	nop
  4044ba:	c9                   	leaveq 
  4044bb:	c3                   	retq   

00000000004044bc <_ZN10tensorflow6OutputC1ERKNS_9OperationEi>:
  4044bc:	55                   	push   %rbp
  4044bd:	48 89 e5             	mov    %rsp,%rbp
  4044c0:	48 83 ec 20          	sub    $0x20,%rsp
  4044c4:	48 89 7d f8          	mov    %rdi,-0x8(%rbp)
  4044c8:	48 89 75 f0          	mov    %rsi,-0x10(%rbp)
  4044cc:	89 55 ec             	mov    %edx,-0x14(%rbp)
  4044cf:	48 8b 45 f8          	mov    -0x8(%rbp),%rax
  4044d3:	48 8b 55 f0          	mov    -0x10(%rbp),%rdx
  4044d7:	48 89 d6             	mov    %rdx,%rsi
  4044da:	48 89 c7             	mov    %rax,%rdi
  4044dd:	e8 a4 ff ff ff       	callq  404486 <_ZN10tensorflow9OperationC1ERKS0_>
  4044e2:	48 8b 45 f8          	mov    -0x8(%rbp),%rax
  4044e6:	8b 55 ec             	mov    -0x14(%rbp),%edx
  4044e9:	89 50 20             	mov    %edx,0x20(%rax)
  4044ec:	90                   	nop
  4044ed:	c9                   	leaveq 
  4044ee:	c3                   	retq   
  4044ef:	90                   	nop

00000000004044f0 <_ZN10tensorflow6OutputD1Ev>:
  4044f0:	55                   	push   %rbp
  4044f1:	48 89 e5             	mov    %rsp,%rbp
  4044f4:	48 83 ec 10          	sub    $0x10,%rsp
  4044f8:	48 89 7d f8          	mov    %rdi,-0x8(%rbp)
  4044fc:	48 8b 45 f8          	mov    -0x8(%rbp),%rax
  404500:	48 89 c7             	mov    %rax,%rdi
  404503:	e8 62 ff ff ff       	callq  40446a <_ZN10tensorflow9OperationD1Ev>
  404508:	90                   	nop
  404509:	c9                   	leaveq 
  40450a:	c3                   	retq   
  40450b:	90                   	nop

000000000040450c <_ZN10tensorflow6OutputC1ERKS0_>:
  40450c:	55                   	push   %rbp
  40450d:	48 89 e5             	mov    %rsp,%rbp
  404510:	48 83 ec 10          	sub    $0x10,%rsp
  404514:	48 89 7d f8          	mov    %rdi,-0x8(%rbp)
  404518:	48 89 75 f0          	mov    %rsi,-0x10(%rbp)
  40451c:	48 8b 55 f0          	mov    -0x10(%rbp),%rdx
  404520:	48 8b 45 f8          	mov    -0x8(%rbp),%rax
  404524:	48 89 d6             	mov    %rdx,%rsi
  404527:	48 89 c7             	mov    %rax,%rdi
  40452a:	e8 57 ff ff ff       	callq  404486 <_ZN10tensorflow9OperationC1ERKS0_>
  40452f:	48 8b 45 f0          	mov    -0x10(%rbp),%rax
  404533:	8b 50 20             	mov    0x20(%rax),%edx
  404536:	48 8b 45 f8          	mov    -0x8(%rbp),%rax
  40453a:	89 50 20             	mov    %edx,0x20(%rax)
  40453d:	90                   	nop
  40453e:	c9                   	leaveq 
  40453f:	c3                   	retq   

0000000000404540 <_ZN10tensorflow5InputC1ERKNS_6TensorE>:
  404540:	55                   	push   %rbp
  404541:	48 89 e5             	mov    %rsp,%rbp
  404544:	53                   	push   %rbx
  404545:	48 83 ec 48          	sub    $0x48,%rsp
  404549:	48 89 7d b8          	mov    %rdi,-0x48(%rbp)
  40454d:	48 89 75 b0          	mov    %rsi,-0x50(%rbp)
  404551:	64 48 8b 04 25 28 00 	mov    %fs:0x28,%rax
  404558:	00 00 
  40455a:	48 89 45 e8          	mov    %rax,-0x18(%rbp)
  40455e:	31 c0                	xor    %eax,%eax
  404560:	48 8b 45 b8          	mov    -0x48(%rbp),%rax
  404564:	48 89 c7             	mov    %rax,%rdi
  404567:	e8 45 f8 ff ff       	callq  403db1 <_ZN10tensorflow6Status2OKEv>
  40456c:	48 8d 45 c0          	lea    -0x40(%rbp),%rax
  404570:	be 00 00 00 00       	mov    $0x0,%esi
  404575:	48 89 c7             	mov    %rax,%rdi
  404578:	e8 d3 e8 ff ff       	callq  402e50 <_ZN10tensorflow9OperationC1EPNS_4NodeE@plt>
  40457d:	48 8b 45 b8          	mov    -0x48(%rbp),%rax
  404581:	48 8d 48 08          	lea    0x8(%rax),%rcx
  404585:	48 8d 45 c0          	lea    -0x40(%rbp),%rax
  404589:	ba 00 00 00 00       	mov    $0x0,%edx
  40458e:	48 89 c6             	mov    %rax,%rsi
  404591:	48 89 cf             	mov    %rcx,%rdi
  404594:	e8 23 ff ff ff       	callq  4044bc <_ZN10tensorflow6OutputC1ERKNS_9OperationEi>
  404599:	48 8d 45 c0          	lea    -0x40(%rbp),%rax
  40459d:	48 89 c7             	mov    %rax,%rdi
  4045a0:	e8 c5 fe ff ff       	callq  40446a <_ZN10tensorflow9OperationD1Ev>
  4045a5:	48 8b 45 b8          	mov    -0x48(%rbp),%rax
  4045a9:	48 8d 50 30          	lea    0x30(%rax),%rdx
  4045ad:	48 8b 45 b0          	mov    -0x50(%rbp),%rax
  4045b1:	48 89 c6             	mov    %rax,%rsi
  4045b4:	48 89 d7             	mov    %rdx,%rdi
  4045b7:	e8 2e fe ff ff       	callq  4043ea <_ZN10tensorflow6TensorC1ERKS0_>
  4045bc:	48 8d 45 c0          	lea    -0x40(%rbp),%rax
  4045c0:	48 89 c7             	mov    %rax,%rdi
  4045c3:	e8 08 e6 ff ff       	callq  402bd0 <_ZNSaIcEC1Ev@plt>
  4045c8:	48 8b 45 b8          	mov    -0x48(%rbp),%rax
  4045cc:	48 8d 48 50          	lea    0x50(%rax),%rcx
  4045d0:	48 8d 45 c0          	lea    -0x40(%rbp),%rax
  4045d4:	48 89 c2             	mov    %rax,%rdx
  4045d7:	be 80 86 40 00       	mov    $0x408680,%esi
  4045dc:	48 89 cf             	mov    %rcx,%rdi
  4045df:	e8 0c e8 ff ff       	callq  402df0 <_ZNSt7__cxx1112basic_stringIcSt11char_traitsIcESaIcEEC1EPKcRKS3_@plt>
  4045e4:	48 8d 45 c0          	lea    -0x40(%rbp),%rax
  4045e8:	48 89 c7             	mov    %rax,%rdi
  4045eb:	e8 00 ea ff ff       	callq  402ff0 <_ZNSaIcED1Ev@plt>
  4045f0:	48 8b 45 b8          	mov    -0x48(%rbp),%rax
  4045f4:	c7 40 70 00 00 00 00 	movl   $0x0,0x70(%rax)
  4045fb:	48 8b 45 b8          	mov    -0x48(%rbp),%rax
  4045ff:	c7 40 74 00 00 00 00 	movl   $0x0,0x74(%rax)
  404606:	90                   	nop
  404607:	48 8b 45 e8          	mov    -0x18(%rbp),%rax
  40460b:	64 48 33 04 25 28 00 	xor    %fs:0x28,%rax
  404612:	00 00 
  404614:	74 68                	je     40467e <_ZN10tensorflow5InputC1ERKNS_6TensorE+0x13e>
  404616:	eb 61                	jmp    404679 <_ZN10tensorflow5InputC1ERKNS_6TensorE+0x139>
  404618:	48 89 c3             	mov    %rax,%rbx
  40461b:	48 8d 45 c0          	lea    -0x40(%rbp),%rax
  40461f:	48 89 c7             	mov    %rax,%rdi
  404622:	e8 43 fe ff ff       	callq  40446a <_ZN10tensorflow9OperationD1Ev>
  404627:	eb 39                	jmp    404662 <_ZN10tensorflow5InputC1ERKNS_6TensorE+0x122>
  404629:	48 89 c3             	mov    %rax,%rbx
  40462c:	48 8d 45 c0          	lea    -0x40(%rbp),%rax
  404630:	48 89 c7             	mov    %rax,%rdi
  404633:	e8 b8 e9 ff ff       	callq  402ff0 <_ZNSaIcED1Ev@plt>
  404638:	48 8b 45 b8          	mov    -0x48(%rbp),%rax
  40463c:	48 83 c0 30          	add    $0x30,%rax
  404640:	48 89 c7             	mov    %rax,%rdi
  404643:	e8 68 e5 ff ff       	callq  402bb0 <_ZN10tensorflow6TensorD1Ev@plt>
  404648:	eb 03                	jmp    40464d <_ZN10tensorflow5InputC1ERKNS_6TensorE+0x10d>
  40464a:	48 89 c3             	mov    %rax,%rbx
  40464d:	48 8b 45 b8          	mov    -0x48(%rbp),%rax
  404651:	48 83 c0 08          	add    $0x8,%rax
  404655:	48 89 c7             	mov    %rax,%rdi
  404658:	e8 93 fe ff ff       	callq  4044f0 <_ZN10tensorflow6OutputD1Ev>
  40465d:	eb 03                	jmp    404662 <_ZN10tensorflow5InputC1ERKNS_6TensorE+0x122>
  40465f:	48 89 c3             	mov    %rax,%rbx
  404662:	48 8b 45 b8          	mov    -0x48(%rbp),%rax
  404666:	48 89 c7             	mov    %rax,%rdi
  404669:	e8 28 f7 ff ff       	callq  403d96 <_ZN10tensorflow6StatusD1Ev>
  40466e:	48 89 d8             	mov    %rbx,%rax
  404671:	48 89 c7             	mov    %rax,%rdi
  404674:	e8 57 e7 ff ff       	callq  402dd0 <_Unwind_Resume@plt>
  404679:	e8 c2 e4 ff ff       	callq  402b40 <__stack_chk_fail@plt>
  40467e:	48 83 c4 48          	add    $0x48,%rsp
  404682:	5b                   	pop    %rbx
  404683:	5d                   	pop    %rbp
  404684:	c3                   	retq   
  404685:	90                   	nop

0000000000404686 <_ZN10tensorflow5Input11InitializerD1Ev>:
  404686:	55                   	push   %rbp
  404687:	48 89 e5             	mov    %rsp,%rbp
  40468a:	48 83 ec 10          	sub    $0x10,%rsp
  40468e:	48 89 7d f8          	mov    %rdi,-0x8(%rbp)
  404692:	48 8b 45 f8          	mov    -0x8(%rbp),%rax
  404696:	48 83 c0 08          	add    $0x8,%rax
  40469a:	48 89 c7             	mov    %rax,%rdi
  40469d:	e8 0e e5 ff ff       	callq  402bb0 <_ZN10tensorflow6TensorD1Ev@plt>
  4046a2:	48 8b 45 f8          	mov    -0x8(%rbp),%rax
  4046a6:	48 89 c7             	mov    %rax,%rdi
  4046a9:	e8 e8 f6 ff ff       	callq  403d96 <_ZN10tensorflow6StatusD1Ev>
  4046ae:	90                   	nop
  4046af:	c9                   	leaveq 
  4046b0:	c3                   	retq   
  4046b1:	90                   	nop

00000000004046b2 <_ZN10tensorflow5InputD1Ev>:
  4046b2:	55                   	push   %rbp
  4046b3:	48 89 e5             	mov    %rsp,%rbp
  4046b6:	48 83 ec 10          	sub    $0x10,%rsp
  4046ba:	48 89 7d f8          	mov    %rdi,-0x8(%rbp)
  4046be:	48 8b 45 f8          	mov    -0x8(%rbp),%rax
  4046c2:	48 83 c0 50          	add    $0x50,%rax
  4046c6:	48 89 c7             	mov    %rax,%rdi
  4046c9:	e8 b2 e5 ff ff       	callq  402c80 <_ZNSt7__cxx1112basic_stringIcSt11char_traitsIcESaIcEED1Ev@plt>
  4046ce:	48 8b 45 f8          	mov    -0x8(%rbp),%rax
  4046d2:	48 83 c0 30          	add    $0x30,%rax
  4046d6:	48 89 c7             	mov    %rax,%rdi
  4046d9:	e8 d2 e4 ff ff       	callq  402bb0 <_ZN10tensorflow6TensorD1Ev@plt>
  4046de:	48 8b 45 f8          	mov    -0x8(%rbp),%rax
  4046e2:	48 83 c0 08          	add    $0x8,%rax
  4046e6:	48 89 c7             	mov    %rax,%rdi
  4046e9:	e8 02 fe ff ff       	callq  4044f0 <_ZN10tensorflow6OutputD1Ev>
  4046ee:	48 8b 45 f8          	mov    -0x8(%rbp),%rax
  4046f2:	48 89 c7             	mov    %rax,%rdi
  4046f5:	e8 9c f6 ff ff       	callq  403d96 <_ZN10tensorflow6StatusD1Ev>
  4046fa:	90                   	nop
  4046fb:	c9                   	leaveq 
  4046fc:	c3                   	retq   
  4046fd:	90                   	nop

00000000004046fe <_ZNKSt16initializer_listIN10tensorflow6OutputEE5beginEv>:
  4046fe:	55                   	push   %rbp
  4046ff:	48 89 e5             	mov    %rsp,%rbp
  404702:	48 89 7d f8          	mov    %rdi,-0x8(%rbp)
  404706:	48 8b 45 f8          	mov    -0x8(%rbp),%rax
  40470a:	48 8b 00             	mov    (%rax),%rax
  40470d:	5d                   	pop    %rbp
  40470e:	c3                   	retq   
  40470f:	90                   	nop

0000000000404710 <_ZNKSt16initializer_listIN10tensorflow6OutputEE4sizeEv>:
  404710:	55                   	push   %rbp
  404711:	48 89 e5             	mov    %rsp,%rbp
  404714:	48 89 7d f8          	mov    %rdi,-0x8(%rbp)
  404718:	48 8b 45 f8          	mov    -0x8(%rbp),%rax
  40471c:	48 8b 40 08          	mov    0x8(%rax),%rax
  404720:	5d                   	pop    %rbp
  404721:	c3                   	retq   

0000000000404722 <_ZNKSt16initializer_listIN10tensorflow6OutputEE3endEv>:
  404722:	55                   	push   %rbp
  404723:	48 89 e5             	mov    %rsp,%rbp
  404726:	53                   	push   %rbx
  404727:	48 83 ec 18          	sub    $0x18,%rsp
  40472b:	48 89 7d e8          	mov    %rdi,-0x18(%rbp)
  40472f:	48 8b 45 e8          	mov    -0x18(%rbp),%rax
  404733:	48 89 c7             	mov    %rax,%rdi
  404736:	e8 c3 ff ff ff       	callq  4046fe <_ZNKSt16initializer_listIN10tensorflow6OutputEE5beginEv>
  40473b:	48 89 c3             	mov    %rax,%rbx
  40473e:	48 8b 45 e8          	mov    -0x18(%rbp),%rax
  404742:	48 89 c7             	mov    %rax,%rdi
  404745:	e8 c6 ff ff ff       	callq  404710 <_ZNKSt16initializer_listIN10tensorflow6OutputEE4sizeEv>
  40474a:	48 89 c2             	mov    %rax,%rdx
  40474d:	48 89 d0             	mov    %rdx,%rax
  404750:	48 c1 e0 02          	shl    $0x2,%rax
  404754:	48 01 d0             	add    %rdx,%rax
  404757:	48 c1 e0 03          	shl    $0x3,%rax
  40475b:	48 01 d8             	add    %rbx,%rax
  40475e:	48 83 c4 18          	add    $0x18,%rsp
  404762:	5b                   	pop    %rbx
  404763:	5d                   	pop    %rbp
  404764:	c3                   	retq   
  404765:	90                   	nop

0000000000404766 <_ZNK10tensorflow13NodeExecStats9node_nameB5cxx11Ev>:
  404766:	55                   	push   %rbp
  404767:	48 89 e5             	mov    %rsp,%rbp
  40476a:	48 83 ec 10          	sub    $0x10,%rsp
  40476e:	48 89 7d f8          	mov    %rdi,-0x8(%rbp)
  404772:	48 8b 45 f8          	mov    -0x8(%rbp),%rax
  404776:	48 83 c0 58          	add    $0x58,%rax
  40477a:	48 89 c7             	mov    %rax,%rdi
  40477d:	e8 76 f4 ff ff       	callq  403bf8 <_ZNK6google8protobuf8internal14ArenaStringPtr3GetB5cxx11Ev>
  404782:	c9                   	leaveq 
  404783:	c3                   	retq   

0000000000404784 <_ZNK10tensorflow13NodeExecStats18all_end_rel_microsEv>:
  404784:	55                   	push   %rbp
  404785:	48 89 e5             	mov    %rsp,%rbp
  404788:	48 89 7d f8          	mov    %rdi,-0x8(%rbp)
  40478c:	48 8b 45 f8          	mov    -0x8(%rbp),%rax
  404790:	48 8b 80 88 00 00 00 	mov    0x88(%rax),%rax
  404797:	5d                   	pop    %rbp
  404798:	c3                   	retq   
  404799:	90                   	nop

000000000040479a <_ZNK10tensorflow15DeviceStepStats10node_statsEv>:
  40479a:	55                   	push   %rbp
  40479b:	48 89 e5             	mov    %rsp,%rbp
  40479e:	48 89 7d f8          	mov    %rdi,-0x8(%rbp)
  4047a2:	48 8b 45 f8          	mov    -0x8(%rbp),%rax
  4047a6:	48 83 c0 10          	add    $0x10,%rax
  4047aa:	5d                   	pop    %rbp
  4047ab:	c3                   	retq   

00000000004047ac <_ZNK10tensorflow9StepStats9dev_statsEv>:
  4047ac:	55                   	push   %rbp
  4047ad:	48 89 e5             	mov    %rsp,%rbp
  4047b0:	48 89 7d f8          	mov    %rdi,-0x8(%rbp)
  4047b4:	48 8b 45 f8          	mov    -0x8(%rbp),%rax
  4047b8:	48 83 c0 10          	add    $0x10,%rax
  4047bc:	5d                   	pop    %rbp
  4047bd:	c3                   	retq   

00000000004047be <_ZN10tensorflow11RunMetadata25internal_default_instanceEv>:
  4047be:	55                   	push   %rbp
  4047bf:	48 89 e5             	mov    %rsp,%rbp
  4047c2:	b8 c0 d2 60 00       	mov    $0x60d2c0,%eax
  4047c7:	5d                   	pop    %rbp
  4047c8:	c3                   	retq   
  4047c9:	90                   	nop

00000000004047ca <_ZN10tensorflow10RunOptions15set_trace_levelENS_21RunOptions_TraceLevelE>:
  4047ca:	55                   	push   %rbp
  4047cb:	48 89 e5             	mov    %rsp,%rbp
  4047ce:	48 89 7d f8          	mov    %rdi,-0x8(%rbp)
  4047d2:	89 75 f4             	mov    %esi,-0xc(%rbp)
  4047d5:	48 8b 45 f8          	mov    -0x8(%rbp),%rax
  4047d9:	8b 55 f4             	mov    -0xc(%rbp),%edx
  4047dc:	89 50 20             	mov    %edx,0x20(%rax)
  4047df:	90                   	nop
  4047e0:	5d                   	pop    %rbp
  4047e1:	c3                   	retq   

00000000004047e2 <_ZNK10tensorflow11RunMetadata14has_step_statsEv>:
  4047e2:	55                   	push   %rbp
  4047e3:	48 89 e5             	mov    %rsp,%rbp
  4047e6:	48 83 ec 10          	sub    $0x10,%rsp
  4047ea:	48 89 7d f8          	mov    %rdi,-0x8(%rbp)
  4047ee:	e8 cb ff ff ff       	callq  4047be <_ZN10tensorflow11RunMetadata25internal_default_instanceEv>
  4047f3:	48 3b 45 f8          	cmp    -0x8(%rbp),%rax
  4047f7:	74 14                	je     40480d <_ZNK10tensorflow11RunMetadata14has_step_statsEv+0x2b>
  4047f9:	48 8b 45 f8          	mov    -0x8(%rbp),%rax
  4047fd:	48 8b 40 28          	mov    0x28(%rax),%rax
  404801:	48 85 c0             	test   %rax,%rax
  404804:	74 07                	je     40480d <_ZNK10tensorflow11RunMetadata14has_step_statsEv+0x2b>
  404806:	b8 01 00 00 00       	mov    $0x1,%eax
  40480b:	eb 05                	jmp    404812 <_ZNK10tensorflow11RunMetadata14has_step_statsEv+0x30>
  40480d:	b8 00 00 00 00       	mov    $0x0,%eax
  404812:	c9                   	leaveq 
  404813:	c3                   	retq   

0000000000404814 <_ZNK10tensorflow11RunMetadata10step_statsEv>:
  404814:	55                   	push   %rbp
  404815:	48 89 e5             	mov    %rsp,%rbp
  404818:	48 89 7d e8          	mov    %rdi,-0x18(%rbp)
  40481c:	48 8b 45 e8          	mov    -0x18(%rbp),%rax
  404820:	48 8b 40 28          	mov    0x28(%rax),%rax
  404824:	48 89 45 f8          	mov    %rax,-0x8(%rbp)
  404828:	48 83 7d f8 00       	cmpq   $0x0,-0x8(%rbp)
  40482d:	74 06                	je     404835 <_ZNK10tensorflow11RunMetadata10step_statsEv+0x21>
  40482f:	48 8b 45 f8          	mov    -0x8(%rbp),%rax
  404833:	eb 05                	jmp    40483a <_ZNK10tensorflow11RunMetadata10step_statsEv+0x26>
  404835:	b8 00 d3 60 00       	mov    $0x60d300,%eax
  40483a:	5d                   	pop    %rbp
  40483b:	c3                   	retq   

000000000040483c <_ZNK10tensorflow3ops7SoftmaxcvNS_6OutputEEv>:
  40483c:	55                   	push   %rbp
  40483d:	48 89 e5             	mov    %rsp,%rbp
  404840:	48 83 ec 10          	sub    $0x10,%rsp
  404844:	48 89 7d f8          	mov    %rdi,-0x8(%rbp)
  404848:	48 89 75 f0          	mov    %rsi,-0x10(%rbp)
  40484c:	48 8b 55 f0          	mov    -0x10(%rbp),%rdx
  404850:	48 8b 45 f8          	mov    -0x8(%rbp),%rax
  404854:	48 89 d6             	mov    %rdx,%rsi
  404857:	48 89 c7             	mov    %rax,%rdi
  40485a:	e8 ad fc ff ff       	callq  40450c <_ZN10tensorflow6OutputC1ERKS0_>
  40485f:	48 8b 45 f8          	mov    -0x8(%rbp),%rax
  404863:	c9                   	leaveq 
  404864:	c3                   	retq   
  404865:	90                   	nop

0000000000404866 <_ZN10tensorflow21StatSummarizerOptionsC1Ev>:
  404866:	55                   	push   %rbp
  404867:	48 89 e5             	mov    %rsp,%rbp
  40486a:	48 89 7d f8          	mov    %rdi,-0x8(%rbp)
  40486e:	48 8b 45 f8          	mov    -0x8(%rbp),%rax
  404872:	c6 00 01             	movb   $0x1,(%rax)
  404875:	48 8b 45 f8          	mov    -0x8(%rbp),%rax
  404879:	c7 40 04 00 00 00 00 	movl   $0x0,0x4(%rax)
  404880:	48 8b 45 f8          	mov    -0x8(%rbp),%rax
  404884:	c6 40 08 01          	movb   $0x1,0x8(%rax)
  404888:	48 8b 45 f8          	mov    -0x8(%rbp),%rax
  40488c:	c7 40 0c 0a 00 00 00 	movl   $0xa,0xc(%rax)
  404893:	48 8b 45 f8          	mov    -0x8(%rbp),%rax
  404897:	c6 40 10 01          	movb   $0x1,0x10(%rax)
  40489b:	48 8b 45 f8          	mov    -0x8(%rbp),%rax
  40489f:	c7 40 14 0a 00 00 00 	movl   $0xa,0x14(%rax)
  4048a6:	48 8b 45 f8          	mov    -0x8(%rbp),%rax
  4048aa:	c6 40 18 01          	movb   $0x1,0x18(%rax)
  4048ae:	48 8b 45 f8          	mov    -0x8(%rbp),%rax
  4048b2:	c6 40 19 01          	movb   $0x1,0x19(%rax)
  4048b6:	90                   	nop
  4048b7:	5d                   	pop    %rbp
  4048b8:	c3                   	retq   
  4048b9:	90                   	nop

00000000004048ba <_ZNK2CK5Shape10data_countEv>:
  4048ba:	55                   	push   %rbp
  4048bb:	48 89 e5             	mov    %rsp,%rbp
  4048be:	48 89 7d f8          	mov    %rdi,-0x8(%rbp)
  4048c2:	48 8b 45 f8          	mov    -0x8(%rbp),%rax
  4048c6:	8b 10                	mov    (%rax),%edx
  4048c8:	48 8b 45 f8          	mov    -0x8(%rbp),%rax
  4048cc:	8b 40 04             	mov    0x4(%rax),%eax
  4048cf:	0f af d0             	imul   %eax,%edx
  4048d2:	48 8b 45 f8          	mov    -0x8(%rbp),%rax
  4048d6:	8b 40 08             	mov    0x8(%rax),%eax
  4048d9:	0f af d0             	imul   %eax,%edx
  4048dc:	48 8b 45 f8          	mov    -0x8(%rbp),%rax
  4048e0:	8b 40 0c             	mov    0xc(%rax),%eax
  4048e3:	0f af c2             	imul   %edx,%eax
  4048e6:	5d                   	pop    %rbp
  4048e7:	c3                   	retq   

00000000004048e8 <_ZNK2CK5Shape14get_flat_indexEiiii>:
  4048e8:	55                   	push   %rbp
  4048e9:	48 89 e5             	mov    %rsp,%rbp
  4048ec:	48 83 ec 20          	sub    $0x20,%rsp
  4048f0:	48 89 7d f8          	mov    %rdi,-0x8(%rbp)
  4048f4:	89 75 f4             	mov    %esi,-0xc(%rbp)
  4048f7:	89 55 f0             	mov    %edx,-0x10(%rbp)
  4048fa:	89 4d ec             	mov    %ecx,-0x14(%rbp)
  4048fd:	44 89 45 e8          	mov    %r8d,-0x18(%rbp)
  404901:	8b 7d e8             	mov    -0x18(%rbp),%edi
  404904:	8b 4d ec             	mov    -0x14(%rbp),%ecx
  404907:	8b 55 f0             	mov    -0x10(%rbp),%edx
  40490a:	8b 75 f4             	mov    -0xc(%rbp),%esi
  40490d:	48 8b 45 f8          	mov    -0x8(%rbp),%rax
  404911:	41 89 f8             	mov    %edi,%r8d
  404914:	48 89 c7             	mov    %rax,%rdi
  404917:	e8 02 00 00 00       	callq  40491e <_ZNK2CK5Shape19get_flat_index_nchwEiiii>
  40491c:	c9                   	leaveq 
  40491d:	c3                   	retq   

000000000040491e <_ZNK2CK5Shape19get_flat_index_nchwEiiii>:
  40491e:	55                   	push   %rbp
  40491f:	48 89 e5             	mov    %rsp,%rbp
  404922:	48 89 7d f8          	mov    %rdi,-0x8(%rbp)
  404926:	89 75 f4             	mov    %esi,-0xc(%rbp)
  404929:	89 55 f0             	mov    %edx,-0x10(%rbp)
  40492c:	89 4d ec             	mov    %ecx,-0x14(%rbp)
  40492f:	44 89 45 e8          	mov    %r8d,-0x18(%rbp)
  404933:	48 8b 45 f8          	mov    -0x8(%rbp),%rax
  404937:	8b 40 04             	mov    0x4(%rax),%eax
  40493a:	0f af 45 f4          	imul   -0xc(%rbp),%eax
  40493e:	89 c2                	mov    %eax,%edx
  404940:	8b 45 f0             	mov    -0x10(%rbp),%eax
  404943:	01 c2                	add    %eax,%edx
  404945:	48 8b 45 f8          	mov    -0x8(%rbp),%rax
  404949:	8b 40 08             	mov    0x8(%rax),%eax
  40494c:	0f af d0             	imul   %eax,%edx
  40494f:	8b 45 ec             	mov    -0x14(%rbp),%eax
  404952:	01 c2                	add    %eax,%edx
  404954:	48 8b 45 f8          	mov    -0x8(%rbp),%rax
  404958:	8b 40 0c             	mov    0xc(%rax),%eax
  40495b:	0f af d0             	imul   %eax,%edx
  40495e:	8b 45 e8             	mov    -0x18(%rbp),%eax
  404961:	01 d0                	add    %edx,%eax
  404963:	5d                   	pop    %rbp
  404964:	c3                   	retq   

0000000000404965 <_ZN2CK8getenv_iEPKci>:
  404965:	55                   	push   %rbp
  404966:	48 89 e5             	mov    %rsp,%rbp
  404969:	48 83 ec 10          	sub    $0x10,%rsp
  40496d:	48 89 7d f8          	mov    %rdi,-0x8(%rbp)
  404971:	89 75 f4             	mov    %esi,-0xc(%rbp)
  404974:	48 8b 45 f8          	mov    -0x8(%rbp),%rax
  404978:	48 89 c7             	mov    %rax,%rdi
  40497b:	e8 10 e3 ff ff       	callq  402c90 <getenv@plt>
  404980:	48 85 c0             	test   %rax,%rax
  404983:	74 16                	je     40499b <_ZN2CK8getenv_iEPKci+0x36>
  404985:	48 8b 45 f8          	mov    -0x8(%rbp),%rax
  404989:	48 89 c7             	mov    %rax,%rdi
  40498c:	e8 ff e2 ff ff       	callq  402c90 <getenv@plt>
  404991:	48 89 c7             	mov    %rax,%rdi
  404994:	e8 b7 e3 ff ff       	callq  402d50 <atoi@plt>
  404999:	eb 03                	jmp    40499e <_ZN2CK8getenv_iEPKci+0x39>
  40499b:	8b 45 f4             	mov    -0xc(%rbp),%eax
  40499e:	c9                   	leaveq 
  40499f:	c3                   	retq   

00000000004049a0 <_ZN2CK13store_value_iEiPKci>:
  4049a0:	55                   	push   %rbp
  4049a1:	48 89 e5             	mov    %rsp,%rbp
  4049a4:	48 83 ec 20          	sub    $0x20,%rsp
  4049a8:	89 7d ec             	mov    %edi,-0x14(%rbp)
  4049ab:	48 89 75 e0          	mov    %rsi,-0x20(%rbp)
  4049af:	89 55 e8             	mov    %edx,-0x18(%rbp)
  4049b2:	48 8b 45 e0          	mov    -0x20(%rbp),%rax
  4049b6:	48 89 c7             	mov    %rax,%rdi
  4049b9:	e8 c2 e3 ff ff       	callq  402d80 <strlen@plt>
  4049be:	48 83 c0 06          	add    $0x6,%rax
  4049c2:	48 89 c7             	mov    %rax,%rdi
  4049c5:	e8 36 e5 ff ff       	callq  402f00 <_Znam@plt>
  4049ca:	48 89 45 f8          	mov    %rax,-0x8(%rbp)
  4049ce:	48 8b 55 e0          	mov    -0x20(%rbp),%rdx
  4049d2:	48 8b 45 f8          	mov    -0x8(%rbp),%rax
  4049d6:	be c0 86 40 00       	mov    $0x4086c0,%esi
  4049db:	48 89 c7             	mov    %rax,%rdi
  4049de:	b8 00 00 00 00       	mov    $0x0,%eax
  4049e3:	e8 f8 e1 ff ff       	callq  402be0 <sprintf@plt>
  4049e8:	8b 55 e8             	mov    -0x18(%rbp),%edx
  4049eb:	48 8b 4d f8          	mov    -0x8(%rbp),%rcx
  4049ef:	8b 45 ec             	mov    -0x14(%rbp),%eax
  4049f2:	48 89 ce             	mov    %rcx,%rsi
  4049f5:	89 c7                	mov    %eax,%edi
  4049f7:	e8 94 e3 ff ff       	callq  402d90 <xopenme_add_var_i@plt>
  4049fc:	48 83 7d f8 00       	cmpq   $0x0,-0x8(%rbp)
  404a01:	74 0c                	je     404a0f <_ZN2CK13store_value_iEiPKci+0x6f>
  404a03:	48 8b 45 f8          	mov    -0x8(%rbp),%rax
  404a07:	48 89 c7             	mov    %rax,%rdi
  404a0a:	e8 51 e3 ff ff       	callq  402d60 <_ZdaPv@plt>
  404a0f:	90                   	nop
  404a10:	c9                   	leaveq 
  404a11:	c3                   	retq   

0000000000404a12 <_ZN2CK13store_value_fEiPKcf>:
  404a12:	55                   	push   %rbp
  404a13:	48 89 e5             	mov    %rsp,%rbp
  404a16:	48 83 ec 30          	sub    $0x30,%rsp
  404a1a:	89 7d ec             	mov    %edi,-0x14(%rbp)
  404a1d:	48 89 75 e0          	mov    %rsi,-0x20(%rbp)
  404a21:	f3 0f 11 45 e8       	movss  %xmm0,-0x18(%rbp)
  404a26:	48 8b 45 e0          	mov    -0x20(%rbp),%rax
  404a2a:	48 89 c7             	mov    %rax,%rdi
  404a2d:	e8 4e e3 ff ff       	callq  402d80 <strlen@plt>
  404a32:	48 83 c0 06          	add    $0x6,%rax
  404a36:	48 89 c7             	mov    %rax,%rdi
  404a39:	e8 c2 e4 ff ff       	callq  402f00 <_Znam@plt>
  404a3e:	48 89 45 f8          	mov    %rax,-0x8(%rbp)
  404a42:	48 8b 55 e0          	mov    -0x20(%rbp),%rdx
  404a46:	48 8b 45 f8          	mov    -0x8(%rbp),%rax
  404a4a:	be c9 86 40 00       	mov    $0x4086c9,%esi
  404a4f:	48 89 c7             	mov    %rax,%rdi
  404a52:	b8 00 00 00 00       	mov    $0x0,%eax
  404a57:	e8 84 e1 ff ff       	callq  402be0 <sprintf@plt>
  404a5c:	8b 4d e8             	mov    -0x18(%rbp),%ecx
  404a5f:	48 8b 55 f8          	mov    -0x8(%rbp),%rdx
  404a63:	8b 45 ec             	mov    -0x14(%rbp),%eax
  404a66:	89 4d dc             	mov    %ecx,-0x24(%rbp)
  404a69:	f3 0f 10 45 dc       	movss  -0x24(%rbp),%xmm0
  404a6e:	48 89 d6             	mov    %rdx,%rsi
  404a71:	89 c7                	mov    %eax,%edi
  404a73:	e8 e8 e3 ff ff       	callq  402e60 <xopenme_add_var_f@plt>
  404a78:	48 83 7d f8 00       	cmpq   $0x0,-0x8(%rbp)
  404a7d:	74 0c                	je     404a8b <_ZN2CK13store_value_fEiPKcf+0x79>
  404a7f:	48 8b 45 f8          	mov    -0x8(%rbp),%rax
  404a83:	48 89 c7             	mov    %rax,%rdi
  404a86:	e8 d5 e2 ff ff       	callq  402d60 <_ZdaPv@plt>
  404a8b:	90                   	nop
  404a8c:	c9                   	leaveq 
  404a8d:	c3                   	retq   

0000000000404a8e <_ZN2CK24get_input_shape_from_envEiiii>:
  404a8e:	55                   	push   %rbp
  404a8f:	48 89 e5             	mov    %rsp,%rbp
  404a92:	48 83 ec 30          	sub    $0x30,%rsp
  404a96:	89 7d dc             	mov    %edi,-0x24(%rbp)
  404a99:	89 75 d8             	mov    %esi,-0x28(%rbp)
  404a9c:	89 55 d4             	mov    %edx,-0x2c(%rbp)
  404a9f:	89 4d d0             	mov    %ecx,-0x30(%rbp)
  404aa2:	64 48 8b 04 25 28 00 	mov    %fs:0x28,%rax
  404aa9:	00 00 
  404aab:	48 89 45 f8          	mov    %rax,-0x8(%rbp)
  404aaf:	31 c0                	xor    %eax,%eax
  404ab1:	c7 45 e0 01 00 00 00 	movl   $0x1,-0x20(%rbp)
  404ab8:	c7 45 e4 01 00 00 00 	movl   $0x1,-0x1c(%rbp)
  404abf:	c7 45 e8 01 00 00 00 	movl   $0x1,-0x18(%rbp)
  404ac6:	c7 45 ec 01 00 00 00 	movl   $0x1,-0x14(%rbp)
  404acd:	8b 45 dc             	mov    -0x24(%rbp),%eax
  404ad0:	89 c6                	mov    %eax,%esi
  404ad2:	bf d2 86 40 00       	mov    $0x4086d2,%edi
  404ad7:	e8 89 fe ff ff       	callq  404965 <_ZN2CK8getenv_iEPKci>
  404adc:	89 45 e0             	mov    %eax,-0x20(%rbp)
  404adf:	8b 45 d8             	mov    -0x28(%rbp),%eax
  404ae2:	89 c6                	mov    %eax,%esi
  404ae4:	bf e0 86 40 00       	mov    $0x4086e0,%edi
  404ae9:	e8 77 fe ff ff       	callq  404965 <_ZN2CK8getenv_iEPKci>
  404aee:	89 45 e4             	mov    %eax,-0x1c(%rbp)
  404af1:	8b 45 d4             	mov    -0x2c(%rbp),%eax
  404af4:	89 c6                	mov    %eax,%esi
  404af6:	bf ee 86 40 00       	mov    $0x4086ee,%edi
  404afb:	e8 65 fe ff ff       	callq  404965 <_ZN2CK8getenv_iEPKci>
  404b00:	89 45 e8             	mov    %eax,-0x18(%rbp)
  404b03:	8b 45 d0             	mov    -0x30(%rbp),%eax
  404b06:	89 c6                	mov    %eax,%esi
  404b08:	bf fc 86 40 00       	mov    $0x4086fc,%edi
  404b0d:	e8 53 fe ff ff       	callq  404965 <_ZN2CK8getenv_iEPKci>
  404b12:	89 45 ec             	mov    %eax,-0x14(%rbp)
  404b15:	8b 45 e0             	mov    -0x20(%rbp),%eax
  404b18:	89 c2                	mov    %eax,%edx
  404b1a:	be 0a 87 40 00       	mov    $0x40870a,%esi
  404b1f:	bf 04 00 00 00       	mov    $0x4,%edi
  404b24:	e8 77 fe ff ff       	callq  4049a0 <_ZN2CK13store_value_iEiPKci>
  404b29:	8b 45 e4             	mov    -0x1c(%rbp),%eax
  404b2c:	89 c2                	mov    %eax,%edx
  404b2e:	be 15 87 40 00       	mov    $0x408715,%esi
  404b33:	bf 05 00 00 00       	mov    $0x5,%edi
  404b38:	e8 63 fe ff ff       	callq  4049a0 <_ZN2CK13store_value_iEiPKci>
  404b3d:	8b 45 e8             	mov    -0x18(%rbp),%eax
  404b40:	89 c2                	mov    %eax,%edx
  404b42:	be 20 87 40 00       	mov    $0x408720,%esi
  404b47:	bf 06 00 00 00       	mov    $0x6,%edi
  404b4c:	e8 4f fe ff ff       	callq  4049a0 <_ZN2CK13store_value_iEiPKci>
  404b51:	8b 45 ec             	mov    -0x14(%rbp),%eax
  404b54:	89 c2                	mov    %eax,%edx
  404b56:	be 2b 87 40 00       	mov    $0x40872b,%esi
  404b5b:	bf 07 00 00 00       	mov    $0x7,%edi
  404b60:	e8 3b fe ff ff       	callq  4049a0 <_ZN2CK13store_value_iEiPKci>
  404b65:	8b 75 ec             	mov    -0x14(%rbp),%esi
  404b68:	8b 4d e8             	mov    -0x18(%rbp),%ecx
  404b6b:	8b 55 e4             	mov    -0x1c(%rbp),%edx
  404b6e:	8b 45 e0             	mov    -0x20(%rbp),%eax
  404b71:	41 89 f0             	mov    %esi,%r8d
  404b74:	89 c6                	mov    %eax,%esi
  404b76:	bf 38 87 40 00       	mov    $0x408738,%edi
  404b7b:	b8 00 00 00 00       	mov    $0x0,%eax
  404b80:	e8 8b e0 ff ff       	callq  402c10 <printf@plt>
  404b85:	48 8b 45 e0          	mov    -0x20(%rbp),%rax
  404b89:	48 8b 55 e8          	mov    -0x18(%rbp),%rdx
  404b8d:	48 8b 4d f8          	mov    -0x8(%rbp),%rcx
  404b91:	64 48 33 0c 25 28 00 	xor    %fs:0x28,%rcx
  404b98:	00 00 
  404b9a:	74 05                	je     404ba1 <_ZN2CK24get_input_shape_from_envEiiii+0x113>
  404b9c:	e8 9f df ff ff       	callq  402b40 <__stack_chk_fail@plt>
  404ba1:	c9                   	leaveq 
  404ba2:	c3                   	retq   

0000000000404ba3 <_ZN2CK9init_testEv>:
  404ba3:	55                   	push   %rbp
  404ba4:	48 89 e5             	mov    %rsp,%rbp
  404ba7:	48 83 ec 10          	sub    $0x10,%rsp
  404bab:	be 0c 00 00 00       	mov    $0xc,%esi
  404bb0:	bf 02 00 00 00       	mov    $0x2,%edi
  404bb5:	e8 76 e1 ff ff       	callq  402d30 <xopenme_init@plt>
  404bba:	be 2a 00 00 00       	mov    $0x2a,%esi
  404bbf:	bf 6f 87 40 00       	mov    $0x40876f,%edi
  404bc4:	e8 9c fd ff ff       	callq  404965 <_ZN2CK8getenv_iEPKci>
  404bc9:	89 45 fc             	mov    %eax,-0x4(%rbp)
  404bcc:	8b 45 fc             	mov    -0x4(%rbp),%eax
  404bcf:	89 c2                	mov    %eax,%edx
  404bd1:	be 77 87 40 00       	mov    $0x408777,%esi
  404bd6:	bf 08 00 00 00       	mov    $0x8,%edi
  404bdb:	e8 c0 fd ff ff       	callq  4049a0 <_ZN2CK13store_value_iEiPKci>
  404be0:	8b 45 fc             	mov    -0x4(%rbp),%eax
  404be3:	89 c7                	mov    %eax,%edi
  404be5:	e8 06 e1 ff ff       	callq  402cf0 <srand@plt>
  404bea:	90                   	nop
  404beb:	c9                   	leaveq 
  404bec:	c3                   	retq   

0000000000404bed <_ZN2CK11finish_testEv>:
  404bed:	55                   	push   %rbp
  404bee:	48 89 e5             	mov    %rsp,%rbp
  404bf1:	bf 00 00 00 00       	mov    $0x0,%edi
  404bf6:	e8 15 e3 ff ff       	callq  402f10 <xopenme_get_timer@plt>
  404bfb:	be 00 00 00 00       	mov    $0x0,%esi
  404c00:	bf 80 87 40 00       	mov    $0x408780,%edi
  404c05:	b8 01 00 00 00       	mov    $0x1,%eax
  404c0a:	e8 01 e0 ff ff       	callq  402c10 <printf@plt>
  404c0f:	bf 01 00 00 00       	mov    $0x1,%edi
  404c14:	e8 f7 e2 ff ff       	callq  402f10 <xopenme_get_timer@plt>
  404c19:	be 01 00 00 00       	mov    $0x1,%esi
  404c1e:	bf 94 87 40 00       	mov    $0x408794,%edi
  404c23:	b8 01 00 00 00       	mov    $0x1,%eax
  404c28:	e8 e3 df ff ff       	callq  402c10 <printf@plt>
  404c2d:	e8 0e e2 ff ff       	callq  402e40 <xopenme_dump_state@plt>
  404c32:	e8 c9 e0 ff ff       	callq  402d00 <xopenme_finish@plt>
  404c37:	90                   	nop
  404c38:	5d                   	pop    %rbp
  404c39:	c3                   	retq   

0000000000404c3a <_ZN2CK2TF16get_node_time_msERKN10tensorflow9StepStatsEPKc>:
  404c3a:	55                   	push   %rbp
  404c3b:	48 89 e5             	mov    %rsp,%rbp
  404c3e:	48 83 ec 60          	sub    $0x60,%rsp
  404c42:	48 89 7d a8          	mov    %rdi,-0x58(%rbp)
  404c46:	48 89 75 a0          	mov    %rsi,-0x60(%rbp)
  404c4a:	64 48 8b 04 25 28 00 	mov    %fs:0x28,%rax
  404c51:	00 00 
  404c53:	48 89 45 f8          	mov    %rax,-0x8(%rbp)
  404c57:	31 c0                	xor    %eax,%eax
  404c59:	48 c7 45 d0 00 00 00 	movq   $0x0,-0x30(%rbp)
  404c60:	00 
  404c61:	48 8b 45 a8          	mov    -0x58(%rbp),%rax
  404c65:	48 89 c7             	mov    %rax,%rdi
  404c68:	e8 3f fb ff ff       	callq  4047ac <_ZNK10tensorflow9StepStats9dev_statsEv>
  404c6d:	48 89 45 d8          	mov    %rax,-0x28(%rbp)
  404c71:	48 8b 45 d8          	mov    -0x28(%rbp),%rax
  404c75:	48 89 c7             	mov    %rax,%rdi
  404c78:	e8 d3 0a 00 00       	callq  405750 <_ZNK6google8protobuf16RepeatedPtrFieldIN10tensorflow15DeviceStepStatsEE5beginEv>
  404c7d:	48 89 45 b0          	mov    %rax,-0x50(%rbp)
  404c81:	48 8b 45 d8          	mov    -0x28(%rbp),%rax
  404c85:	48 89 c7             	mov    %rax,%rdi
  404c88:	e8 29 0b 00 00       	callq  4057b6 <_ZNK6google8protobuf16RepeatedPtrFieldIN10tensorflow15DeviceStepStatsEE3endEv>
  404c8d:	48 89 45 b8          	mov    %rax,-0x48(%rbp)
  404c91:	48 8d 55 b8          	lea    -0x48(%rbp),%rdx
  404c95:	48 8d 45 b0          	lea    -0x50(%rbp),%rax
  404c99:	48 89 d6             	mov    %rdx,%rsi
  404c9c:	48 89 c7             	mov    %rax,%rdi
  404c9f:	e8 94 0b 00 00       	callq  405838 <_ZNK6google8protobuf8internal19RepeatedPtrIteratorIKN10tensorflow15DeviceStepStatsEEneERKS6_>
  404ca4:	84 c0                	test   %al,%al
  404ca6:	0f 84 c4 00 00 00    	je     404d70 <_ZN2CK2TF16get_node_time_msERKN10tensorflow9StepStatsEPKc+0x136>
  404cac:	48 8d 45 b0          	lea    -0x50(%rbp),%rax
  404cb0:	48 89 c7             	mov    %rax,%rdi
  404cb3:	e8 c2 0b 00 00       	callq  40587a <_ZNK6google8protobuf8internal19RepeatedPtrIteratorIKN10tensorflow15DeviceStepStatsEEdeEv>
  404cb8:	48 89 45 e0          	mov    %rax,-0x20(%rbp)
  404cbc:	48 8b 45 e0          	mov    -0x20(%rbp),%rax
  404cc0:	48 89 c7             	mov    %rax,%rdi
  404cc3:	e8 d2 fa ff ff       	callq  40479a <_ZNK10tensorflow15DeviceStepStats10node_statsEv>
  404cc8:	48 89 45 e8          	mov    %rax,-0x18(%rbp)
  404ccc:	48 8b 45 e8          	mov    -0x18(%rbp),%rax
  404cd0:	48 89 c7             	mov    %rax,%rdi
  404cd3:	e8 b6 0b 00 00       	callq  40588e <_ZNK6google8protobuf16RepeatedPtrFieldIN10tensorflow13NodeExecStatsEE5beginEv>
  404cd8:	48 89 45 c0          	mov    %rax,-0x40(%rbp)
  404cdc:	48 8b 45 e8          	mov    -0x18(%rbp),%rax
  404ce0:	48 89 c7             	mov    %rax,%rdi
  404ce3:	e8 0c 0c 00 00       	callq  4058f4 <_ZNK6google8protobuf16RepeatedPtrFieldIN10tensorflow13NodeExecStatsEE3endEv>
  404ce8:	48 89 45 c8          	mov    %rax,-0x38(%rbp)
  404cec:	48 8d 55 c8          	lea    -0x38(%rbp),%rdx
  404cf0:	48 8d 45 c0          	lea    -0x40(%rbp),%rax
  404cf4:	48 89 d6             	mov    %rdx,%rsi
  404cf7:	48 89 c7             	mov    %rax,%rdi
  404cfa:	e8 77 0c 00 00       	callq  405976 <_ZNK6google8protobuf8internal19RepeatedPtrIteratorIKN10tensorflow13NodeExecStatsEEneERKS6_>
  404cff:	84 c0                	test   %al,%al
  404d01:	74 5c                	je     404d5f <_ZN2CK2TF16get_node_time_msERKN10tensorflow9StepStatsEPKc+0x125>
  404d03:	48 8d 45 c0          	lea    -0x40(%rbp),%rax
  404d07:	48 89 c7             	mov    %rax,%rdi
  404d0a:	e8 a9 0c 00 00       	callq  4059b8 <_ZNK6google8protobuf8internal19RepeatedPtrIteratorIKN10tensorflow13NodeExecStatsEEdeEv>
  404d0f:	48 89 45 f0          	mov    %rax,-0x10(%rbp)
  404d13:	48 8b 45 f0          	mov    -0x10(%rbp),%rax
  404d17:	48 89 c7             	mov    %rax,%rdi
  404d1a:	e8 47 fa ff ff       	callq  404766 <_ZNK10tensorflow13NodeExecStats9node_nameB5cxx11Ev>
  404d1f:	48 89 c1             	mov    %rax,%rcx
  404d22:	48 8b 45 a0          	mov    -0x60(%rbp),%rax
  404d26:	ba 00 00 00 00       	mov    $0x0,%edx
  404d2b:	48 89 c6             	mov    %rax,%rsi
  404d2e:	48 89 cf             	mov    %rcx,%rdi
  404d31:	e8 ea df ff ff       	callq  402d20 <_ZNKSt7__cxx1112basic_stringIcSt11char_traitsIcESaIcEE4findEPKcm@plt>
  404d36:	48 83 f8 ff          	cmp    $0xffffffffffffffff,%rax
  404d3a:	0f 95 c0             	setne  %al
  404d3d:	84 c0                	test   %al,%al
  404d3f:	74 10                	je     404d51 <_ZN2CK2TF16get_node_time_msERKN10tensorflow9StepStatsEPKc+0x117>
  404d41:	48 8b 45 f0          	mov    -0x10(%rbp),%rax
  404d45:	48 89 c7             	mov    %rax,%rdi
  404d48:	e8 37 fa ff ff       	callq  404784 <_ZNK10tensorflow13NodeExecStats18all_end_rel_microsEv>
  404d4d:	48 01 45 d0          	add    %rax,-0x30(%rbp)
  404d51:	48 8d 45 c0          	lea    -0x40(%rbp),%rax
  404d55:	48 89 c7             	mov    %rax,%rdi
  404d58:	e8 3b 0c 00 00       	callq  405998 <_ZN6google8protobuf8internal19RepeatedPtrIteratorIKN10tensorflow13NodeExecStatsEEppEv>
  404d5d:	eb 8d                	jmp    404cec <_ZN2CK2TF16get_node_time_msERKN10tensorflow9StepStatsEPKc+0xb2>
  404d5f:	48 8d 45 b0          	lea    -0x50(%rbp),%rax
  404d63:	48 89 c7             	mov    %rax,%rdi
  404d66:	e8 ef 0a 00 00       	callq  40585a <_ZN6google8protobuf8internal19RepeatedPtrIteratorIKN10tensorflow15DeviceStepStatsEEppEv>
  404d6b:	e9 21 ff ff ff       	jmpq   404c91 <_ZN2CK2TF16get_node_time_msERKN10tensorflow9StepStatsEPKc+0x57>
  404d70:	66 0f ef c0          	pxor   %xmm0,%xmm0
  404d74:	f3 48 0f 2a 45 d0    	cvtsi2ssq -0x30(%rbp),%xmm0
  404d7a:	f3 0f 10 0d 6a 3d 00 	movss  0x3d6a(%rip),%xmm1        # 408aec <_ZZN2CK2TF16process_metadataERKN10tensorflow11RunMetadataEPKcE19__PRETTY_FUNCTION__+0x4c>
  404d81:	00 
  404d82:	f3 0f 5e c1          	divss  %xmm1,%xmm0
  404d86:	48 8b 45 f8          	mov    -0x8(%rbp),%rax
  404d8a:	64 48 33 04 25 28 00 	xor    %fs:0x28,%rax
  404d91:	00 00 
  404d93:	74 05                	je     404d9a <_ZN2CK2TF16get_node_time_msERKN10tensorflow9StepStatsEPKc+0x160>
  404d95:	e8 a6 dd ff ff       	callq  402b40 <__stack_chk_fail@plt>
  404d9a:	c9                   	leaveq 
  404d9b:	c3                   	retq   

0000000000404d9c <_ZN2CK2TF14print_all_statERKN10tensorflow9StepStatsE>:
  404d9c:	55                   	push   %rbp
  404d9d:	48 89 e5             	mov    %rsp,%rbp
  404da0:	53                   	push   %rbx
  404da1:	48 81 ec 08 01 00 00 	sub    $0x108,%rsp
  404da8:	48 89 bd f8 fe ff ff 	mov    %rdi,-0x108(%rbp)
  404daf:	64 48 8b 04 25 28 00 	mov    %fs:0x28,%rax
  404db6:	00 00 
  404db8:	48 89 45 e8          	mov    %rax,-0x18(%rbp)
  404dbc:	31 c0                	xor    %eax,%eax
  404dbe:	48 8d 85 00 ff ff ff 	lea    -0x100(%rbp),%rax
  404dc5:	48 89 c7             	mov    %rax,%rdi
  404dc8:	e8 99 fa ff ff       	callq  404866 <_ZN10tensorflow21StatSummarizerOptionsC1Ev>
  404dcd:	48 8d 95 00 ff ff ff 	lea    -0x100(%rbp),%rdx
  404dd4:	48 8d 85 20 ff ff ff 	lea    -0xe0(%rbp),%rax
  404ddb:	48 89 d6             	mov    %rdx,%rsi
  404dde:	48 89 c7             	mov    %rax,%rdi
  404de1:	e8 fa e1 ff ff       	callq  402fe0 <_ZN10tensorflow14StatSummarizerC1ERKNS_21StatSummarizerOptionsE@plt>
  404de6:	48 8b 95 f8 fe ff ff 	mov    -0x108(%rbp),%rdx
  404ded:	48 8d 85 20 ff ff ff 	lea    -0xe0(%rbp),%rax
  404df4:	48 89 d6             	mov    %rdx,%rsi
  404df7:	48 89 c7             	mov    %rax,%rdi
  404dfa:	e8 41 e1 ff ff       	callq  402f40 <_ZN10tensorflow14StatSummarizer16ProcessStepStatsERKNS_9StepStatsE@plt>
  404dff:	48 8d 85 20 ff ff ff 	lea    -0xe0(%rbp),%rax
  404e06:	48 89 c7             	mov    %rax,%rdi
  404e09:	e8 a2 e0 ff ff       	callq  402eb0 <_ZNK10tensorflow14StatSummarizer14PrintStepStatsEv@plt>
  404e0e:	48 8d 85 20 ff ff ff 	lea    -0xe0(%rbp),%rax
  404e15:	48 89 c7             	mov    %rax,%rdi
  404e18:	e8 83 de ff ff       	callq  402ca0 <_ZN10tensorflow14StatSummarizerD1Ev@plt>
  404e1d:	90                   	nop
  404e1e:	48 8b 45 e8          	mov    -0x18(%rbp),%rax
  404e22:	64 48 33 04 25 28 00 	xor    %fs:0x28,%rax
  404e29:	00 00 
  404e2b:	74 24                	je     404e51 <_ZN2CK2TF14print_all_statERKN10tensorflow9StepStatsE+0xb5>
  404e2d:	eb 1d                	jmp    404e4c <_ZN2CK2TF14print_all_statERKN10tensorflow9StepStatsE+0xb0>
  404e2f:	48 89 c3             	mov    %rax,%rbx
  404e32:	48 8d 85 20 ff ff ff 	lea    -0xe0(%rbp),%rax
  404e39:	48 89 c7             	mov    %rax,%rdi
  404e3c:	e8 5f de ff ff       	callq  402ca0 <_ZN10tensorflow14StatSummarizerD1Ev@plt>
  404e41:	48 89 d8             	mov    %rbx,%rax
  404e44:	48 89 c7             	mov    %rax,%rdi
  404e47:	e8 84 df ff ff       	callq  402dd0 <_Unwind_Resume@plt>
  404e4c:	e8 ef dc ff ff       	callq  402b40 <__stack_chk_fail@plt>
  404e51:	48 81 c4 08 01 00 00 	add    $0x108,%rsp
  404e58:	5b                   	pop    %rbx
  404e59:	5d                   	pop    %rbp
  404e5a:	c3                   	retq   
  404e5b:	90                   	nop

0000000000404e5c <_ZN10tensorflow11TensorShapeC1ESt16initializer_listIxE>:
  404e5c:	55                   	push   %rbp
  404e5d:	48 89 e5             	mov    %rsp,%rbp
  404e60:	48 83 ec 20          	sub    $0x20,%rsp
  404e64:	48 89 7d f8          	mov    %rdi,-0x8(%rbp)
  404e68:	48 89 f0             	mov    %rsi,%rax
  404e6b:	48 89 d1             	mov    %rdx,%rcx
  404e6e:	48 89 ca             	mov    %rcx,%rdx
  404e71:	48 89 45 e0          	mov    %rax,-0x20(%rbp)
  404e75:	48 89 55 e8          	mov    %rdx,-0x18(%rbp)
  404e79:	48 8b 45 f8          	mov    -0x8(%rbp),%rax
  404e7d:	48 8b 4d e0          	mov    -0x20(%rbp),%rcx
  404e81:	48 8b 55 e8          	mov    -0x18(%rbp),%rdx
  404e85:	48 89 ce             	mov    %rcx,%rsi
  404e88:	48 89 c7             	mov    %rax,%rdi
  404e8b:	e8 00 dd ff ff       	callq  402b90 <_ZN10tensorflow15TensorShapeBaseINS_11TensorShapeEEC2ESt16initializer_listIxE@plt>
  404e90:	90                   	nop
  404e91:	c9                   	leaveq 
  404e92:	c3                   	retq   

0000000000404e93 <_ZN2CK2TF16process_metadataERKN10tensorflow11RunMetadataEPKc>:
  404e93:	55                   	push   %rbp
  404e94:	48 89 e5             	mov    %rsp,%rbp
  404e97:	48 83 ec 30          	sub    $0x30,%rsp
  404e9b:	48 89 7d e8          	mov    %rdi,-0x18(%rbp)
  404e9f:	48 89 75 e0          	mov    %rsi,-0x20(%rbp)
  404ea3:	48 8b 45 e8          	mov    -0x18(%rbp),%rax
  404ea7:	48 89 c7             	mov    %rax,%rdi
  404eaa:	e8 33 f9 ff ff       	callq  4047e2 <_ZNK10tensorflow11RunMetadata14has_step_statsEv>
  404eaf:	84 c0                	test   %al,%al
  404eb1:	75 19                	jne    404ecc <_ZN2CK2TF16process_metadataERKN10tensorflow11RunMetadataEPKc+0x39>
  404eb3:	b9 a0 8a 40 00       	mov    $0x408aa0,%ecx
  404eb8:	ba 53 00 00 00       	mov    $0x53,%edx
  404ebd:	be c0 87 40 00       	mov    $0x4087c0,%esi
  404ec2:	bf 20 88 40 00       	mov    $0x408820,%edi
  404ec7:	e8 64 dc ff ff       	callq  402b30 <__assert_fail@plt>
  404ecc:	48 8b 45 e8          	mov    -0x18(%rbp),%rax
  404ed0:	48 89 c7             	mov    %rax,%rdi
  404ed3:	e8 3c f9 ff ff       	callq  404814 <_ZNK10tensorflow11RunMetadata10step_statsEv>
  404ed8:	48 89 45 f8          	mov    %rax,-0x8(%rbp)
  404edc:	be 00 00 00 00       	mov    $0x0,%esi
  404ee1:	bf 3e 88 40 00       	mov    $0x40883e,%edi
  404ee6:	e8 7a fa ff ff       	callq  404965 <_ZN2CK8getenv_iEPKci>
  404eeb:	85 c0                	test   %eax,%eax
  404eed:	0f 95 c0             	setne  %al
  404ef0:	84 c0                	test   %al,%al
  404ef2:	74 0c                	je     404f00 <_ZN2CK2TF16process_metadataERKN10tensorflow11RunMetadataEPKc+0x6d>
  404ef4:	48 8b 45 f8          	mov    -0x8(%rbp),%rax
  404ef8:	48 89 c7             	mov    %rax,%rdi
  404efb:	e8 9c fe ff ff       	callq  404d9c <_ZN2CK2TF14print_all_statERKN10tensorflow9StepStatsE>
  404f00:	48 8b 55 e0          	mov    -0x20(%rbp),%rdx
  404f04:	48 8b 45 f8          	mov    -0x8(%rbp),%rax
  404f08:	48 89 d6             	mov    %rdx,%rsi
  404f0b:	48 89 c7             	mov    %rax,%rdi
  404f0e:	e8 27 fd ff ff       	callq  404c3a <_ZN2CK2TF16get_node_time_msERKN10tensorflow9StepStatsEPKc>
  404f13:	66 0f 7e c0          	movd   %xmm0,%eax
  404f17:	89 45 f4             	mov    %eax,-0xc(%rbp)
  404f1a:	f3 0f 5a 45 f4       	cvtss2sd -0xc(%rbp),%xmm0
  404f1f:	48 8b 45 e0          	mov    -0x20(%rbp),%rax
  404f23:	48 89 c6             	mov    %rax,%rsi
  404f26:	bf 50 88 40 00       	mov    $0x408850,%edi
  404f2b:	b8 01 00 00 00       	mov    $0x1,%eax
  404f30:	e8 db dc ff ff       	callq  402c10 <printf@plt>
  404f35:	8b 45 f4             	mov    -0xc(%rbp),%eax
  404f38:	89 45 dc             	mov    %eax,-0x24(%rbp)
  404f3b:	f3 0f 10 45 dc       	movss  -0x24(%rbp),%xmm0
  404f40:	e8 40 e2 ff ff       	callq  403185 <_ZN2CK15store_test_timeEf>
  404f45:	90                   	nop
  404f46:	c9                   	leaveq 
  404f47:	c3                   	retq   

0000000000404f48 <_ZN10tensorflow3ops7SoftmaxD1Ev>:
  404f48:	55                   	push   %rbp
  404f49:	48 89 e5             	mov    %rsp,%rbp
  404f4c:	48 83 ec 10          	sub    $0x10,%rsp
  404f50:	48 89 7d f8          	mov    %rdi,-0x8(%rbp)
  404f54:	48 8b 45 f8          	mov    -0x8(%rbp),%rax
  404f58:	48 89 c7             	mov    %rax,%rdi
  404f5b:	e8 90 f5 ff ff       	callq  4044f0 <_ZN10tensorflow6OutputD1Ev>
  404f60:	90                   	nop
  404f61:	c9                   	leaveq 
  404f62:	c3                   	retq   
  404f63:	90                   	nop

0000000000404f64 <_ZNSt8__detail10_Select1stC1Ev>:
  404f64:	55                   	push   %rbp
  404f65:	48 89 e5             	mov    %rsp,%rbp
  404f68:	48 89 7d f8          	mov    %rdi,-0x8(%rbp)
  404f6c:	90                   	nop
  404f6d:	5d                   	pop    %rbp
  404f6e:	c3                   	retq   
  404f6f:	90                   	nop

0000000000404f70 <_ZNSt8__detail21_Hashtable_ebo_helperILi0ENS_10_Select1stELb1EEC1Ev>:
  404f70:	55                   	push   %rbp
  404f71:	48 89 e5             	mov    %rsp,%rbp
  404f74:	48 83 ec 10          	sub    $0x10,%rsp
  404f78:	48 89 7d f8          	mov    %rdi,-0x8(%rbp)
  404f7c:	48 8b 45 f8          	mov    -0x8(%rbp),%rax
  404f80:	48 89 c7             	mov    %rax,%rdi
  404f83:	e8 dc ff ff ff       	callq  404f64 <_ZNSt8__detail10_Select1stC1Ev>
  404f88:	90                   	nop
  404f89:	c9                   	leaveq 
  404f8a:	c3                   	retq   
  404f8b:	90                   	nop

0000000000404f8c <_ZN10tensorflow10OutputHashC1Ev>:
  404f8c:	55                   	push   %rbp
  404f8d:	48 89 e5             	mov    %rsp,%rbp
  404f90:	48 89 7d f8          	mov    %rdi,-0x8(%rbp)
  404f94:	90                   	nop
  404f95:	5d                   	pop    %rbp
  404f96:	c3                   	retq   
  404f97:	90                   	nop

0000000000404f98 <_ZNSt8__detail21_Hashtable_ebo_helperILi1EN10tensorflow10OutputHashELb1EEC1Ev>:
  404f98:	55                   	push   %rbp
  404f99:	48 89 e5             	mov    %rsp,%rbp
  404f9c:	48 83 ec 10          	sub    $0x10,%rsp
  404fa0:	48 89 7d f8          	mov    %rdi,-0x8(%rbp)
  404fa4:	48 8b 45 f8          	mov    -0x8(%rbp),%rax
  404fa8:	48 89 c7             	mov    %rax,%rdi
  404fab:	e8 dc ff ff ff       	callq  404f8c <_ZN10tensorflow10OutputHashC1Ev>
  404fb0:	90                   	nop
  404fb1:	c9                   	leaveq 
  404fb2:	c3                   	retq   
  404fb3:	90                   	nop

0000000000404fb4 <_ZNSt8__detail18_Mod_range_hashingC1Ev>:
  404fb4:	55                   	push   %rbp
  404fb5:	48 89 e5             	mov    %rsp,%rbp
  404fb8:	48 89 7d f8          	mov    %rdi,-0x8(%rbp)
  404fbc:	90                   	nop
  404fbd:	5d                   	pop    %rbp
  404fbe:	c3                   	retq   
  404fbf:	90                   	nop

0000000000404fc0 <_ZNSt8__detail21_Hashtable_ebo_helperILi2ENS_18_Mod_range_hashingELb1EEC1Ev>:
  404fc0:	55                   	push   %rbp
  404fc1:	48 89 e5             	mov    %rsp,%rbp
  404fc4:	48 83 ec 10          	sub    $0x10,%rsp
  404fc8:	48 89 7d f8          	mov    %rdi,-0x8(%rbp)
  404fcc:	48 8b 45 f8          	mov    -0x8(%rbp),%rax
  404fd0:	48 89 c7             	mov    %rax,%rdi
  404fd3:	e8 dc ff ff ff       	callq  404fb4 <_ZNSt8__detail18_Mod_range_hashingC1Ev>
  404fd8:	90                   	nop
  404fd9:	c9                   	leaveq 
  404fda:	c3                   	retq   
  404fdb:	90                   	nop

0000000000404fdc <_ZNSt8__detail15_Hash_code_baseIN10tensorflow6OutputESt4pairIKS2_NS1_5Input11InitializerEENS_10_Select1stENS1_10OutputHashENS_18_Mod_range_hashingENS_20_Default_ranged_hashELb1EEC1Ev>:
  404fdc:	55                   	push   %rbp
  404fdd:	48 89 e5             	mov    %rsp,%rbp
  404fe0:	48 83 ec 10          	sub    $0x10,%rsp
  404fe4:	48 89 7d f8          	mov    %rdi,-0x8(%rbp)
  404fe8:	48 8b 45 f8          	mov    -0x8(%rbp),%rax
  404fec:	48 89 c7             	mov    %rax,%rdi
  404fef:	e8 7c ff ff ff       	callq  404f70 <_ZNSt8__detail21_Hashtable_ebo_helperILi0ENS_10_Select1stELb1EEC1Ev>
  404ff4:	48 8b 45 f8          	mov    -0x8(%rbp),%rax
  404ff8:	48 89 c7             	mov    %rax,%rdi
  404ffb:	e8 98 ff ff ff       	callq  404f98 <_ZNSt8__detail21_Hashtable_ebo_helperILi1EN10tensorflow10OutputHashELb1EEC1Ev>
  405000:	48 8b 45 f8          	mov    -0x8(%rbp),%rax
  405004:	48 89 c7             	mov    %rax,%rdi
  405007:	e8 b4 ff ff ff       	callq  404fc0 <_ZNSt8__detail21_Hashtable_ebo_helperILi2ENS_18_Mod_range_hashingELb1EEC1Ev>
  40500c:	90                   	nop
  40500d:	c9                   	leaveq 
  40500e:	c3                   	retq   
  40500f:	90                   	nop

0000000000405010 <_ZNSt15binary_functionIN10tensorflow6OutputES1_bEC1Ev>:
  405010:	55                   	push   %rbp
  405011:	48 89 e5             	mov    %rsp,%rbp
  405014:	48 89 7d f8          	mov    %rdi,-0x8(%rbp)
  405018:	90                   	nop
  405019:	5d                   	pop    %rbp
  40501a:	c3                   	retq   
  40501b:	90                   	nop

000000000040501c <_ZNSt8equal_toIN10tensorflow6OutputEEC1Ev>:
  40501c:	55                   	push   %rbp
  40501d:	48 89 e5             	mov    %rsp,%rbp
  405020:	48 83 ec 10          	sub    $0x10,%rsp
  405024:	48 89 7d f8          	mov    %rdi,-0x8(%rbp)
  405028:	48 8b 45 f8          	mov    -0x8(%rbp),%rax
  40502c:	48 89 c7             	mov    %rax,%rdi
  40502f:	e8 dc ff ff ff       	callq  405010 <_ZNSt15binary_functionIN10tensorflow6OutputES1_bEC1Ev>
  405034:	90                   	nop
  405035:	c9                   	leaveq 
  405036:	c3                   	retq   
  405037:	90                   	nop

0000000000405038 <_ZNSt8__detail21_Hashtable_ebo_helperILi0ESt8equal_toIN10tensorflow6OutputEELb1EEC1Ev>:
  405038:	55                   	push   %rbp
  405039:	48 89 e5             	mov    %rsp,%rbp
  40503c:	48 83 ec 10          	sub    $0x10,%rsp
  405040:	48 89 7d f8          	mov    %rdi,-0x8(%rbp)
  405044:	48 8b 45 f8          	mov    -0x8(%rbp),%rax
  405048:	48 89 c7             	mov    %rax,%rdi
  40504b:	e8 cc ff ff ff       	callq  40501c <_ZNSt8equal_toIN10tensorflow6OutputEEC1Ev>
  405050:	90                   	nop
  405051:	c9                   	leaveq 
  405052:	c3                   	retq   
  405053:	90                   	nop

0000000000405054 <_ZNSt8__detail15_Hashtable_baseIN10tensorflow6OutputESt4pairIKS2_NS1_5Input11InitializerEENS_10_Select1stESt8equal_toIS2_ENS1_10OutputHashENS_18_Mod_range_hashingENS_20_Default_ranged_hashENS_17_Hashtable_traitsILb1ELb0ELb1EEEEC1Ev>:
  405054:	55                   	push   %rbp
  405055:	48 89 e5             	mov    %rsp,%rbp
  405058:	48 83 ec 10          	sub    $0x10,%rsp
  40505c:	48 89 7d f8          	mov    %rdi,-0x8(%rbp)
  405060:	48 8b 45 f8          	mov    -0x8(%rbp),%rax
  405064:	48 89 c7             	mov    %rax,%rdi
  405067:	e8 70 ff ff ff       	callq  404fdc <_ZNSt8__detail15_Hash_code_baseIN10tensorflow6OutputESt4pairIKS2_NS1_5Input11InitializerEENS_10_Select1stENS1_10OutputHashENS_18_Mod_range_hashingENS_20_Default_ranged_hashELb1EEC1Ev>
  40506c:	48 8b 45 f8          	mov    -0x8(%rbp),%rax
  405070:	48 89 c7             	mov    %rax,%rdi
  405073:	e8 c0 ff ff ff       	callq  405038 <_ZNSt8__detail21_Hashtable_ebo_helperILi0ESt8equal_toIN10tensorflow6OutputEELb1EEC1Ev>
  405078:	90                   	nop
  405079:	c9                   	leaveq 
  40507a:	c3                   	retq   
  40507b:	90                   	nop

000000000040507c <_ZNSt8__detail9_Map_baseIN10tensorflow6OutputESt4pairIKS2_NS1_5Input11InitializerEESaIS7_ENS_10_Select1stESt8equal_toIS2_ENS1_10OutputHashENS_18_Mod_range_hashingENS_20_Default_ranged_hashENS_20_Prime_rehash_policyENS_17_Hashtable_traitsILb1ELb0ELb1EEELb1EEC1Ev>:
  40507c:	55                   	push   %rbp
  40507d:	48 89 e5             	mov    %rsp,%rbp
  405080:	48 89 7d f8          	mov    %rdi,-0x8(%rbp)
  405084:	90                   	nop
  405085:	5d                   	pop    %rbp
  405086:	c3                   	retq   
  405087:	90                   	nop

0000000000405088 <_ZNSt8__detail12_Insert_baseIN10tensorflow6OutputESt4pairIKS2_NS1_5Input11InitializerEESaIS7_ENS_10_Select1stESt8equal_toIS2_ENS1_10OutputHashENS_18_Mod_range_hashingENS_20_Default_ranged_hashENS_20_Prime_rehash_policyENS_17_Hashtable_traitsILb1ELb0ELb1EEEEC1Ev>:
  405088:	55                   	push   %rbp
  405089:	48 89 e5             	mov    %rsp,%rbp
  40508c:	48 89 7d f8          	mov    %rdi,-0x8(%rbp)
  405090:	90                   	nop
  405091:	5d                   	pop    %rbp
  405092:	c3                   	retq   
  405093:	90                   	nop

0000000000405094 <_ZNSt8__detail7_InsertIN10tensorflow6OutputESt4pairIKS2_NS1_5Input11InitializerEESaIS7_ENS_10_Select1stESt8equal_toIS2_ENS1_10OutputHashENS_18_Mod_range_hashingENS_20_Default_ranged_hashENS_20_Prime_rehash_policyENS_17_Hashtable_traitsILb1ELb0ELb1EEELb0ELb1EEC1Ev>:
  405094:	55                   	push   %rbp
  405095:	48 89 e5             	mov    %rsp,%rbp
  405098:	48 83 ec 10          	sub    $0x10,%rsp
  40509c:	48 89 7d f8          	mov    %rdi,-0x8(%rbp)
  4050a0:	48 8b 45 f8          	mov    -0x8(%rbp),%rax
  4050a4:	48 89 c7             	mov    %rax,%rdi
  4050a7:	e8 dc ff ff ff       	callq  405088 <_ZNSt8__detail12_Insert_baseIN10tensorflow6OutputESt4pairIKS2_NS1_5Input11InitializerEESaIS7_ENS_10_Select1stESt8equal_toIS2_ENS1_10OutputHashENS_18_Mod_range_hashingENS_20_Default_ranged_hashENS_20_Prime_rehash_policyENS_17_Hashtable_traitsILb1ELb0ELb1EEEEC1Ev>
  4050ac:	90                   	nop
  4050ad:	c9                   	leaveq 
  4050ae:	c3                   	retq   
  4050af:	90                   	nop

00000000004050b0 <_ZNSt8__detail12_Rehash_baseIN10tensorflow6OutputESt4pairIKS2_NS1_5Input11InitializerEESaIS7_ENS_10_Select1stESt8equal_toIS2_ENS1_10OutputHashENS_18_Mod_range_hashingENS_20_Default_ranged_hashENS_20_Prime_rehash_policyENS_17_Hashtable_traitsILb1ELb0ELb1EEEEC1Ev>:
  4050b0:	55                   	push   %rbp
  4050b1:	48 89 e5             	mov    %rsp,%rbp
  4050b4:	48 89 7d f8          	mov    %rdi,-0x8(%rbp)
  4050b8:	90                   	nop
  4050b9:	5d                   	pop    %rbp
  4050ba:	c3                   	retq   
  4050bb:	90                   	nop

00000000004050bc <_ZNSt8__detail9_EqualityIN10tensorflow6OutputESt4pairIKS2_NS1_5Input11InitializerEESaIS7_ENS_10_Select1stESt8equal_toIS2_ENS1_10OutputHashENS_18_Mod_range_hashingENS_20_Default_ranged_hashENS_20_Prime_rehash_policyENS_17_Hashtable_traitsILb1ELb0ELb1EEELb1EEC1Ev>:
  4050bc:	55                   	push   %rbp
  4050bd:	48 89 e5             	mov    %rsp,%rbp
  4050c0:	48 89 7d f8          	mov    %rdi,-0x8(%rbp)
  4050c4:	90                   	nop
  4050c5:	5d                   	pop    %rbp
  4050c6:	c3                   	retq   
  4050c7:	90                   	nop

00000000004050c8 <_ZNSt8__detail21_Hashtable_ebo_helperILi0ESaINS_10_Hash_nodeISt4pairIKN10tensorflow6OutputENS3_5Input11InitializerEELb1EEEELb1EEC1Ev>:
  4050c8:	55                   	push   %rbp
  4050c9:	48 89 e5             	mov    %rsp,%rbp
  4050cc:	48 83 ec 10          	sub    $0x10,%rsp
  4050d0:	48 89 7d f8          	mov    %rdi,-0x8(%rbp)
  4050d4:	48 8b 45 f8          	mov    -0x8(%rbp),%rax
  4050d8:	48 89 c7             	mov    %rax,%rdi
  4050db:	e8 00 0b 00 00       	callq  405be0 <_ZNSaINSt8__detail10_Hash_nodeISt4pairIKN10tensorflow6OutputENS2_5Input11InitializerEELb1EEEEC1Ev>
  4050e0:	90                   	nop
  4050e1:	c9                   	leaveq 
  4050e2:	c3                   	retq   
  4050e3:	90                   	nop

00000000004050e4 <_ZNSt8__detail21_Hashtable_ebo_helperILi0ESaINS_10_Hash_nodeISt4pairIKN10tensorflow6OutputENS3_5Input11InitializerEELb1EEEELb1EED1Ev>:
  4050e4:	55                   	push   %rbp
  4050e5:	48 89 e5             	mov    %rsp,%rbp
  4050e8:	48 83 ec 10          	sub    $0x10,%rsp
  4050ec:	48 89 7d f8          	mov    %rdi,-0x8(%rbp)
  4050f0:	48 8b 45 f8          	mov    -0x8(%rbp),%rax
  4050f4:	48 89 c7             	mov    %rax,%rdi
  4050f7:	e8 00 0b 00 00       	callq  405bfc <_ZNSaINSt8__detail10_Hash_nodeISt4pairIKN10tensorflow6OutputENS2_5Input11InitializerEELb1EEEED1Ev>
  4050fc:	90                   	nop
  4050fd:	c9                   	leaveq 
  4050fe:	c3                   	retq   
  4050ff:	90                   	nop

0000000000405100 <_ZNSt8__detail16_Hashtable_allocISaINS_10_Hash_nodeISt4pairIKN10tensorflow6OutputENS3_5Input11InitializerEELb1EEEEEC1Ev>:
  405100:	55                   	push   %rbp
  405101:	48 89 e5             	mov    %rsp,%rbp
  405104:	48 83 ec 10          	sub    $0x10,%rsp
  405108:	48 89 7d f8          	mov    %rdi,-0x8(%rbp)
  40510c:	48 8b 45 f8          	mov    -0x8(%rbp),%rax
  405110:	48 89 c7             	mov    %rax,%rdi
  405113:	e8 b0 ff ff ff       	callq  4050c8 <_ZNSt8__detail21_Hashtable_ebo_helperILi0ESaINS_10_Hash_nodeISt4pairIKN10tensorflow6OutputENS3_5Input11InitializerEELb1EEEELb1EEC1Ev>
  405118:	90                   	nop
  405119:	c9                   	leaveq 
  40511a:	c3                   	retq   
  40511b:	90                   	nop

000000000040511c <_ZNSt8__detail16_Hashtable_allocISaINS_10_Hash_nodeISt4pairIKN10tensorflow6OutputENS3_5Input11InitializerEELb1EEEEED1Ev>:
  40511c:	55                   	push   %rbp
  40511d:	48 89 e5             	mov    %rsp,%rbp
  405120:	48 83 ec 10          	sub    $0x10,%rsp
  405124:	48 89 7d f8          	mov    %rdi,-0x8(%rbp)
  405128:	48 8b 45 f8          	mov    -0x8(%rbp),%rax
  40512c:	48 89 c7             	mov    %rax,%rdi
  40512f:	e8 b0 ff ff ff       	callq  4050e4 <_ZNSt8__detail21_Hashtable_ebo_helperILi0ESaINS_10_Hash_nodeISt4pairIKN10tensorflow6OutputENS3_5Input11InitializerEELb1EEEELb1EED1Ev>
  405134:	90                   	nop
  405135:	c9                   	leaveq 
  405136:	c3                   	retq   
  405137:	90                   	nop

0000000000405138 <_ZNSt10_HashtableIN10tensorflow6OutputESt4pairIKS1_NS0_5Input11InitializerEESaIS6_ENSt8__detail10_Select1stESt8equal_toIS1_ENS0_10OutputHashENS8_18_Mod_range_hashingENS8_20_Default_ranged_hashENS8_20_Prime_rehash_policyENS8_17_Hashtable_traitsILb1ELb0ELb1EEEEC1Ev>:
  405138:	55                   	push   %rbp
  405139:	48 89 e5             	mov    %rsp,%rbp
  40513c:	48 83 ec 10          	sub    $0x10,%rsp
  405140:	48 89 7d f8          	mov    %rdi,-0x8(%rbp)
  405144:	48 8b 45 f8          	mov    -0x8(%rbp),%rax
  405148:	48 89 c7             	mov    %rax,%rdi
  40514b:	e8 04 ff ff ff       	callq  405054 <_ZNSt8__detail15_Hashtable_baseIN10tensorflow6OutputESt4pairIKS2_NS1_5Input11InitializerEENS_10_Select1stESt8equal_toIS2_ENS1_10OutputHashENS_18_Mod_range_hashingENS_20_Default_ranged_hashENS_17_Hashtable_traitsILb1ELb0ELb1EEEEC1Ev>
  405150:	48 8b 45 f8          	mov    -0x8(%rbp),%rax
  405154:	48 89 c7             	mov    %rax,%rdi
  405157:	e8 20 ff ff ff       	callq  40507c <_ZNSt8__detail9_Map_baseIN10tensorflow6OutputESt4pairIKS2_NS1_5Input11InitializerEESaIS7_ENS_10_Select1stESt8equal_toIS2_ENS1_10OutputHashENS_18_Mod_range_hashingENS_20_Default_ranged_hashENS_20_Prime_rehash_policyENS_17_Hashtable_traitsILb1ELb0ELb1EEELb1EEC1Ev>
  40515c:	48 8b 45 f8          	mov    -0x8(%rbp),%rax
  405160:	48 89 c7             	mov    %rax,%rdi
  405163:	e8 2c ff ff ff       	callq  405094 <_ZNSt8__detail7_InsertIN10tensorflow6OutputESt4pairIKS2_NS1_5Input11InitializerEESaIS7_ENS_10_Select1stESt8equal_toIS2_ENS1_10OutputHashENS_18_Mod_range_hashingENS_20_Default_ranged_hashENS_20_Prime_rehash_policyENS_17_Hashtable_traitsILb1ELb0ELb1EEELb0ELb1EEC1Ev>
  405168:	48 8b 45 f8          	mov    -0x8(%rbp),%rax
  40516c:	48 89 c7             	mov    %rax,%rdi
  40516f:	e8 3c ff ff ff       	callq  4050b0 <_ZNSt8__detail12_Rehash_baseIN10tensorflow6OutputESt4pairIKS2_NS1_5Input11InitializerEESaIS7_ENS_10_Select1stESt8equal_toIS2_ENS1_10OutputHashENS_18_Mod_range_hashingENS_20_Default_ranged_hashENS_20_Prime_rehash_policyENS_17_Hashtable_traitsILb1ELb0ELb1EEEEC1Ev>
  405174:	48 8b 45 f8          	mov    -0x8(%rbp),%rax
  405178:	48 89 c7             	mov    %rax,%rdi
  40517b:	e8 3c ff ff ff       	callq  4050bc <_ZNSt8__detail9_EqualityIN10tensorflow6OutputESt4pairIKS2_NS1_5Input11InitializerEESaIS7_ENS_10_Select1stESt8equal_toIS2_ENS1_10OutputHashENS_18_Mod_range_hashingENS_20_Default_ranged_hashENS_20_Prime_rehash_policyENS_17_Hashtable_traitsILb1ELb0ELb1EEELb1EEC1Ev>
  405180:	48 8b 45 f8          	mov    -0x8(%rbp),%rax
  405184:	48 89 c7             	mov    %rax,%rdi
  405187:	e8 74 ff ff ff       	callq  405100 <_ZNSt8__detail16_Hashtable_allocISaINS_10_Hash_nodeISt4pairIKN10tensorflow6OutputENS3_5Input11InitializerEELb1EEEEEC1Ev>
  40518c:	48 8b 45 f8          	mov    -0x8(%rbp),%rax
  405190:	48 8d 50 30          	lea    0x30(%rax),%rdx
  405194:	48 8b 45 f8          	mov    -0x8(%rbp),%rax
  405198:	48 89 10             	mov    %rdx,(%rax)
  40519b:	48 8b 45 f8          	mov    -0x8(%rbp),%rax
  40519f:	48 c7 40 08 01 00 00 	movq   $0x1,0x8(%rax)
  4051a6:	00 
  4051a7:	48 8b 45 f8          	mov    -0x8(%rbp),%rax
  4051ab:	48 83 c0 10          	add    $0x10,%rax
  4051af:	48 89 c7             	mov    %rax,%rdi
  4051b2:	e8 f5 e9 ff ff       	callq  403bac <_ZNSt8__detail15_Hash_node_baseC1Ev>
  4051b7:	48 8b 45 f8          	mov    -0x8(%rbp),%rax
  4051bb:	48 c7 40 18 00 00 00 	movq   $0x0,0x18(%rax)
  4051c2:	00 
  4051c3:	48 8b 45 f8          	mov    -0x8(%rbp),%rax
  4051c7:	48 83 c0 20          	add    $0x20,%rax
  4051cb:	f3 0f 10 05 1d 39 00 	movss  0x391d(%rip),%xmm0        # 408af0 <_ZZN2CK2TF16process_metadataERKN10tensorflow11RunMetadataEPKcE19__PRETTY_FUNCTION__+0x50>
  4051d2:	00 
  4051d3:	48 89 c7             	mov    %rax,%rdi
  4051d6:	e8 e7 e9 ff ff       	callq  403bc2 <_ZNSt8__detail20_Prime_rehash_policyC1Ef>
  4051db:	48 8b 45 f8          	mov    -0x8(%rbp),%rax
  4051df:	48 c7 40 30 00 00 00 	movq   $0x0,0x30(%rax)
  4051e6:	00 
  4051e7:	90                   	nop
  4051e8:	c9                   	leaveq 
  4051e9:	c3                   	retq   

00000000004051ea <_ZNSt13unordered_mapIN10tensorflow6OutputENS0_5Input11InitializerENS0_10OutputHashESt8equal_toIS1_ESaISt4pairIKS1_S3_EEEC1Ev>:
  4051ea:	55                   	push   %rbp
  4051eb:	48 89 e5             	mov    %rsp,%rbp
  4051ee:	48 83 ec 10          	sub    $0x10,%rsp
  4051f2:	48 89 7d f8          	mov    %rdi,-0x8(%rbp)
  4051f6:	48 8b 45 f8          	mov    -0x8(%rbp),%rax
  4051fa:	48 89 c7             	mov    %rax,%rdi
  4051fd:	e8 36 ff ff ff       	callq  405138 <_ZNSt10_HashtableIN10tensorflow6OutputESt4pairIKS1_NS0_5Input11InitializerEESaIS6_ENSt8__detail10_Select1stESt8equal_toIS1_ENS0_10OutputHashENS8_18_Mod_range_hashingENS8_20_Default_ranged_hashENS8_20_Prime_rehash_policyENS8_17_Hashtable_traitsILb1ELb0ELb1EEEEC1Ev>
  405202:	90                   	nop
  405203:	c9                   	leaveq 
  405204:	c3                   	retq   
  405205:	90                   	nop

0000000000405206 <_ZNSt13unordered_mapIN10tensorflow6OutputENS0_5Input11InitializerENS0_10OutputHashESt8equal_toIS1_ESaISt4pairIKS1_S3_EEED1Ev>:
  405206:	55                   	push   %rbp
  405207:	48 89 e5             	mov    %rsp,%rbp
  40520a:	48 83 ec 10          	sub    $0x10,%rsp
  40520e:	48 89 7d f8          	mov    %rdi,-0x8(%rbp)
  405212:	48 8b 45 f8          	mov    -0x8(%rbp),%rax
  405216:	48 89 c7             	mov    %rax,%rdi
  405219:	e8 fa 09 00 00       	callq  405c18 <_ZNSt10_HashtableIN10tensorflow6OutputESt4pairIKS1_NS0_5Input11InitializerEESaIS6_ENSt8__detail10_Select1stESt8equal_toIS1_ENS0_10OutputHashENS8_18_Mod_range_hashingENS8_20_Default_ranged_hashENS8_20_Prime_rehash_policyENS8_17_Hashtable_traitsILb1ELb0ELb1EEEED1Ev>
  40521e:	90                   	nop
  40521f:	c9                   	leaveq 
  405220:	c3                   	retq   
  405221:	90                   	nop

0000000000405222 <_ZN5Eigen8Symbolic8BaseExprINS0_10SymbolExprINS_12placeholders8internal17symbolic_last_tagEEEEC1Ev>:
  405222:	55                   	push   %rbp
  405223:	48 89 e5             	mov    %rsp,%rbp
  405226:	48 89 7d f8          	mov    %rdi,-0x8(%rbp)
  40522a:	90                   	nop
  40522b:	5d                   	pop    %rbp
  40522c:	c3                   	retq   
  40522d:	90                   	nop

000000000040522e <_ZN5Eigen8Symbolic10SymbolExprINS_12placeholders8internal17symbolic_last_tagEEC1Ev>:
  40522e:	55                   	push   %rbp
  40522f:	48 89 e5             	mov    %rsp,%rbp
  405232:	48 83 ec 10          	sub    $0x10,%rsp
  405236:	48 89 7d f8          	mov    %rdi,-0x8(%rbp)
  40523a:	48 8b 45 f8          	mov    -0x8(%rbp),%rax
  40523e:	48 89 c7             	mov    %rax,%rdi
  405241:	e8 dc ff ff ff       	callq  405222 <_ZN5Eigen8Symbolic8BaseExprINS0_10SymbolExprINS_12placeholders8internal17symbolic_last_tagEEEEC1Ev>
  405246:	90                   	nop
  405247:	c9                   	leaveq 
  405248:	c3                   	retq   

0000000000405249 <_ZN5Eigen3fixILi1EEENS_8internal8FixedIntIXT_EEEv>:
  405249:	55                   	push   %rbp
  40524a:	48 89 e5             	mov    %rsp,%rbp
  40524d:	53                   	push   %rbx
  40524e:	48 83 ec 18          	sub    $0x18,%rsp
  405252:	64 48 8b 04 25 28 00 	mov    %fs:0x28,%rax
  405259:	00 00 
  40525b:	48 89 45 e8          	mov    %rax,-0x18(%rbp)
  40525f:	31 c0                	xor    %eax,%eax
  405261:	48 8d 45 e7          	lea    -0x19(%rbp),%rax
  405265:	48 89 c7             	mov    %rax,%rdi
  405268:	e8 77 0c 00 00       	callq  405ee4 <_ZN5Eigen8internal8FixedIntILi1EEC1Ev>
  40526d:	89 d8                	mov    %ebx,%eax
  40526f:	48 8b 55 e8          	mov    -0x18(%rbp),%rdx
  405273:	64 48 33 14 25 28 00 	xor    %fs:0x28,%rdx
  40527a:	00 00 
  40527c:	74 05                	je     405283 <_ZN5Eigen3fixILi1EEENS_8internal8FixedIntIXT_EEEv+0x3a>
  40527e:	e8 bd d8 ff ff       	callq  402b40 <__stack_chk_fail@plt>
  405283:	48 83 c4 18          	add    $0x18,%rsp
  405287:	5b                   	pop    %rbx
  405288:	5d                   	pop    %rbp
  405289:	c3                   	retq   

000000000040528a <_ZNK5Eigen8Symbolic8BaseExprINS0_10SymbolExprINS_12placeholders8internal17symbolic_last_tagEEEEplILi1EEENS0_7AddExprIS6_NS0_9ValueExprINS_8internal8FixedIntIXT_EEEEEEESD_>:
  40528a:	55                   	push   %rbp
  40528b:	48 89 e5             	mov    %rsp,%rbp
  40528e:	53                   	push   %rbx
  40528f:	48 83 ec 28          	sub    $0x28,%rsp
  405293:	48 89 7d d8          	mov    %rdi,-0x28(%rbp)
  405297:	64 48 8b 04 25 28 00 	mov    %fs:0x28,%rax
  40529e:	00 00 
  4052a0:	48 89 45 e8          	mov    %rax,-0x18(%rbp)
  4052a4:	31 c0                	xor    %eax,%eax
  4052a6:	48 8d 45 e5          	lea    -0x1b(%rbp),%rax
  4052aa:	48 89 c7             	mov    %rax,%rdi
  4052ad:	e8 4c 0c 00 00       	callq  405efe <_ZN5Eigen8Symbolic9ValueExprINS_8internal8FixedIntILi1EEEEC1Ev>
  4052b2:	48 8b 45 d8          	mov    -0x28(%rbp),%rax
  4052b6:	48 89 c7             	mov    %rax,%rdi
  4052b9:	e8 32 0c 00 00       	callq  405ef0 <_ZNK5Eigen8Symbolic8BaseExprINS0_10SymbolExprINS_12placeholders8internal17symbolic_last_tagEEEE7derivedEv>
  4052be:	48 89 c1             	mov    %rax,%rcx
  4052c1:	48 8d 55 e5          	lea    -0x1b(%rbp),%rdx
  4052c5:	48 8d 45 e6          	lea    -0x1a(%rbp),%rax
  4052c9:	48 89 ce             	mov    %rcx,%rsi
  4052cc:	48 89 c7             	mov    %rax,%rdi
  4052cf:	e8 42 0c 00 00       	callq  405f16 <_ZN5Eigen8Symbolic7AddExprINS0_10SymbolExprINS_12placeholders8internal17symbolic_last_tagEEENS0_9ValueExprINS_8internal8FixedIntILi1EEEEEEC1ERKS6_RKSB_>
  4052d4:	89 d8                	mov    %ebx,%eax
  4052d6:	48 8b 75 e8          	mov    -0x18(%rbp),%rsi
  4052da:	64 48 33 34 25 28 00 	xor    %fs:0x28,%rsi
  4052e1:	00 00 
  4052e3:	74 05                	je     4052ea <_ZNK5Eigen8Symbolic8BaseExprINS0_10SymbolExprINS_12placeholders8internal17symbolic_last_tagEEEEplILi1EEENS0_7AddExprIS6_NS0_9ValueExprINS_8internal8FixedIntIXT_EEEEEEESD_+0x60>
  4052e5:	e8 56 d8 ff ff       	callq  402b40 <__stack_chk_fail@plt>
  4052ea:	48 83 c4 28          	add    $0x28,%rsp
  4052ee:	5b                   	pop    %rbx
  4052ef:	5d                   	pop    %rbp
  4052f0:	c3                   	retq   

00000000004052f1 <_ZN10tensorflow8internal12Check_EQImplImmEEPNSt7__cxx1112basic_stringIcSt11char_traitsIcESaIcEEERKT_RKT0_PKc>:
  4052f1:	55                   	push   %rbp
  4052f2:	48 89 e5             	mov    %rsp,%rbp
  4052f5:	48 83 ec 20          	sub    $0x20,%rsp
  4052f9:	48 89 7d f8          	mov    %rdi,-0x8(%rbp)
  4052fd:	48 89 75 f0          	mov    %rsi,-0x10(%rbp)
  405301:	48 89 55 e8          	mov    %rdx,-0x18(%rbp)
  405305:	48 8b 45 f8          	mov    -0x8(%rbp),%rax
  405309:	48 8b 10             	mov    (%rax),%rdx
  40530c:	48 8b 45 f0          	mov    -0x10(%rbp),%rax
  405310:	48 8b 00             	mov    (%rax),%rax
  405313:	48 39 c2             	cmp    %rax,%rdx
  405316:	75 07                	jne    40531f <_ZN10tensorflow8internal12Check_EQImplImmEEPNSt7__cxx1112basic_stringIcSt11char_traitsIcESaIcEEERKT_RKT0_PKc+0x2e>
  405318:	b8 00 00 00 00       	mov    $0x0,%eax
  40531d:	eb 17                	jmp    405336 <_ZN10tensorflow8internal12Check_EQImplImmEEPNSt7__cxx1112basic_stringIcSt11char_traitsIcESaIcEEERKT_RKT0_PKc+0x45>
  40531f:	48 8b 55 e8          	mov    -0x18(%rbp),%rdx
  405323:	48 8b 4d f0          	mov    -0x10(%rbp),%rcx
  405327:	48 8b 45 f8          	mov    -0x8(%rbp),%rax
  40532b:	48 89 ce             	mov    %rcx,%rsi
  40532e:	48 89 c7             	mov    %rax,%rdi
  405331:	e8 53 0c 00 00       	callq  405f89 <_ZN10tensorflow8internal17MakeCheckOpStringImmEEPNSt7__cxx1112basic_stringIcSt11char_traitsIcESaIcEEERKT_RKT0_PKc>
  405336:	c9                   	leaveq 
  405337:	c3                   	retq   

0000000000405338 <_ZNSt10_Head_baseILm0EPN10tensorflow6Status5StateELb0EE7_M_headERS4_>:
  405338:	55                   	push   %rbp
  405339:	48 89 e5             	mov    %rsp,%rbp
  40533c:	48 89 7d f8          	mov    %rdi,-0x8(%rbp)
  405340:	48 8b 45 f8          	mov    -0x8(%rbp),%rax
  405344:	5d                   	pop    %rbp
  405345:	c3                   	retq   

0000000000405346 <_ZNSt11_Tuple_implILm0EJPN10tensorflow6Status5StateESt14default_deleteIS2_EEE7_M_headERS6_>:
  405346:	55                   	push   %rbp
  405347:	48 89 e5             	mov    %rsp,%rbp
  40534a:	48 83 ec 10          	sub    $0x10,%rsp
  40534e:	48 89 7d f8          	mov    %rdi,-0x8(%rbp)
  405352:	48 8b 45 f8          	mov    -0x8(%rbp),%rax
  405356:	48 89 c7             	mov    %rax,%rdi
  405359:	e8 da ff ff ff       	callq  405338 <_ZNSt10_Head_baseILm0EPN10tensorflow6Status5StateELb0EE7_M_headERS4_>
  40535e:	c9                   	leaveq 
  40535f:	c3                   	retq   

0000000000405360 <_ZSt12__get_helperILm0EPN10tensorflow6Status5StateEJSt14default_deleteIS2_EEERT0_RSt11_Tuple_implIXT_EJS6_DpT1_EE>:
  405360:	55                   	push   %rbp
  405361:	48 89 e5             	mov    %rsp,%rbp
  405364:	48 83 ec 10          	sub    $0x10,%rsp
  405368:	48 89 7d f8          	mov    %rdi,-0x8(%rbp)
  40536c:	48 8b 45 f8          	mov    -0x8(%rbp),%rax
  405370:	48 89 c7             	mov    %rax,%rdi
  405373:	e8 ce ff ff ff       	callq  405346 <_ZNSt11_Tuple_implILm0EJPN10tensorflow6Status5StateESt14default_deleteIS2_EEE7_M_headERS6_>
  405378:	c9                   	leaveq 
  405379:	c3                   	retq   

000000000040537a <_ZSt3getILm0EJPN10tensorflow6Status5StateESt14default_deleteIS2_EEERNSt13tuple_elementIXT_ESt5tupleIJDpT0_EEE4typeERSA_>:
  40537a:	55                   	push   %rbp
  40537b:	48 89 e5             	mov    %rsp,%rbp
  40537e:	48 83 ec 10          	sub    $0x10,%rsp
  405382:	48 89 7d f8          	mov    %rdi,-0x8(%rbp)
  405386:	48 8b 45 f8          	mov    -0x8(%rbp),%rax
  40538a:	48 89 c7             	mov    %rax,%rdi
  40538d:	e8 ce ff ff ff       	callq  405360 <_ZSt12__get_helperILm0EPN10tensorflow6Status5StateEJSt14default_deleteIS2_EEERT0_RSt11_Tuple_implIXT_EJS6_DpT1_EE>
  405392:	c9                   	leaveq 
  405393:	c3                   	retq   

0000000000405394 <_ZNSt10unique_ptrIN10tensorflow6Status5StateESt14default_deleteIS2_EED1Ev>:
  405394:	55                   	push   %rbp
  405395:	48 89 e5             	mov    %rsp,%rbp
  405398:	53                   	push   %rbx
  405399:	48 83 ec 28          	sub    $0x28,%rsp
  40539d:	48 89 7d d8          	mov    %rdi,-0x28(%rbp)
  4053a1:	48 8b 45 d8          	mov    -0x28(%rbp),%rax
  4053a5:	48 89 c7             	mov    %rax,%rdi
  4053a8:	e8 cd ff ff ff       	callq  40537a <_ZSt3getILm0EJPN10tensorflow6Status5StateESt14default_deleteIS2_EEERNSt13tuple_elementIXT_ESt5tupleIJDpT0_EEE4typeERSA_>
  4053ad:	48 89 45 e8          	mov    %rax,-0x18(%rbp)
  4053b1:	48 8b 45 e8          	mov    -0x18(%rbp),%rax
  4053b5:	48 8b 00             	mov    (%rax),%rax
  4053b8:	48 85 c0             	test   %rax,%rax
  4053bb:	74 1e                	je     4053db <_ZNSt10unique_ptrIN10tensorflow6Status5StateESt14default_deleteIS2_EED1Ev+0x47>
  4053bd:	48 8b 45 e8          	mov    -0x18(%rbp),%rax
  4053c1:	48 8b 18             	mov    (%rax),%rbx
  4053c4:	48 8b 45 d8          	mov    -0x28(%rbp),%rax
  4053c8:	48 89 c7             	mov    %rax,%rdi
  4053cb:	e8 de 0c 00 00       	callq  4060ae <_ZNSt10unique_ptrIN10tensorflow6Status5StateESt14default_deleteIS2_EE11get_deleterEv>
  4053d0:	48 89 de             	mov    %rbx,%rsi
  4053d3:	48 89 c7             	mov    %rax,%rdi
  4053d6:	e8 0d 0d 00 00       	callq  4060e8 <_ZNKSt14default_deleteIN10tensorflow6Status5StateEEclEPS2_>
  4053db:	48 8b 45 e8          	mov    -0x18(%rbp),%rax
  4053df:	48 c7 00 00 00 00 00 	movq   $0x0,(%rax)
  4053e6:	90                   	nop
  4053e7:	48 83 c4 28          	add    $0x28,%rsp
  4053eb:	5b                   	pop    %rbx
  4053ec:	5d                   	pop    %rbp
  4053ed:	c3                   	retq   

00000000004053ee <_ZSteqIN10tensorflow6Status5StateESt14default_deleteIS2_EEbRKSt10unique_ptrIT_T0_EDn>:
  4053ee:	55                   	push   %rbp
  4053ef:	48 89 e5             	mov    %rsp,%rbp
  4053f2:	48 83 ec 10          	sub    $0x10,%rsp
  4053f6:	48 89 7d f8          	mov    %rdi,-0x8(%rbp)
  4053fa:	48 89 75 f0          	mov    %rsi,-0x10(%rbp)
  4053fe:	48 8b 45 f8          	mov    -0x8(%rbp),%rax
  405402:	48 89 c7             	mov    %rax,%rdi
  405405:	e8 10 0d 00 00       	callq  40611a <_ZNKSt10unique_ptrIN10tensorflow6Status5StateESt14default_deleteIS2_EEcvbEv>
  40540a:	83 f0 01             	xor    $0x1,%eax
  40540d:	c9                   	leaveq 
  40540e:	c3                   	retq   
  40540f:	90                   	nop

0000000000405410 <_ZNKSt10unique_ptrIN10tensorflow6Status5StateESt14default_deleteIS2_EEdeEv>:
  405410:	55                   	push   %rbp
  405411:	48 89 e5             	mov    %rsp,%rbp
  405414:	48 83 ec 10          	sub    $0x10,%rsp
  405418:	48 89 7d f8          	mov    %rdi,-0x8(%rbp)
  40541c:	48 8b 45 f8          	mov    -0x8(%rbp),%rax
  405420:	48 89 c7             	mov    %rax,%rdi
  405423:	e8 94 00 00 00       	callq  4054bc <_ZNKSt10unique_ptrIN10tensorflow6Status5StateESt14default_deleteIS2_EE3getEv>
  405428:	c9                   	leaveq 
  405429:	c3                   	retq   

000000000040542a <_ZNSt10unique_ptrIN10tensorflow6Status5StateESt14default_deleteIS2_EEC1EPS2_>:
  40542a:	55                   	push   %rbp
  40542b:	48 89 e5             	mov    %rsp,%rbp
  40542e:	48 83 ec 10          	sub    $0x10,%rsp
  405432:	48 89 7d f8          	mov    %rdi,-0x8(%rbp)
  405436:	48 89 75 f0          	mov    %rsi,-0x10(%rbp)
  40543a:	48 8b 45 f8          	mov    -0x8(%rbp),%rax
  40543e:	48 89 c7             	mov    %rax,%rdi
  405441:	e8 fc e8 ff ff       	callq  403d42 <_ZNSt5tupleIJPN10tensorflow6Status5StateESt14default_deleteIS2_EEEC1IS3_S5_Lb1EEEv>
  405446:	48 8b 45 f8          	mov    -0x8(%rbp),%rax
  40544a:	48 89 c7             	mov    %rax,%rdi
  40544d:	e8 28 ff ff ff       	callq  40537a <_ZSt3getILm0EJPN10tensorflow6Status5StateESt14default_deleteIS2_EEERNSt13tuple_elementIXT_ESt5tupleIJDpT0_EEE4typeERSA_>
  405452:	48 89 c2             	mov    %rax,%rdx
  405455:	48 8b 45 f0          	mov    -0x10(%rbp),%rax
  405459:	48 89 02             	mov    %rax,(%rdx)
  40545c:	90                   	nop
  40545d:	c9                   	leaveq 
  40545e:	c3                   	retq   

000000000040545f <_ZNSt10_Head_baseILm0EPN10tensorflow6Status5StateELb0EE7_M_headERKS4_>:
  40545f:	55                   	push   %rbp
  405460:	48 89 e5             	mov    %rsp,%rbp
  405463:	48 89 7d f8          	mov    %rdi,-0x8(%rbp)
  405467:	48 8b 45 f8          	mov    -0x8(%rbp),%rax
  40546b:	5d                   	pop    %rbp
  40546c:	c3                   	retq   

000000000040546d <_ZNSt11_Tuple_implILm0EJPN10tensorflow6Status5StateESt14default_deleteIS2_EEE7_M_headERKS6_>:
  40546d:	55                   	push   %rbp
  40546e:	48 89 e5             	mov    %rsp,%rbp
  405471:	48 83 ec 10          	sub    $0x10,%rsp
  405475:	48 89 7d f8          	mov    %rdi,-0x8(%rbp)
  405479:	48 8b 45 f8          	mov    -0x8(%rbp),%rax
  40547d:	48 89 c7             	mov    %rax,%rdi
  405480:	e8 da ff ff ff       	callq  40545f <_ZNSt10_Head_baseILm0EPN10tensorflow6Status5StateELb0EE7_M_headERKS4_>
  405485:	c9                   	leaveq 
  405486:	c3                   	retq   

0000000000405487 <_ZSt12__get_helperILm0EPN10tensorflow6Status5StateEJSt14default_deleteIS2_EEERKT0_RKSt11_Tuple_implIXT_EJS6_DpT1_EE>:
  405487:	55                   	push   %rbp
  405488:	48 89 e5             	mov    %rsp,%rbp
  40548b:	48 83 ec 10          	sub    $0x10,%rsp
  40548f:	48 89 7d f8          	mov    %rdi,-0x8(%rbp)
  405493:	48 8b 45 f8          	mov    -0x8(%rbp),%rax
  405497:	48 89 c7             	mov    %rax,%rdi
  40549a:	e8 ce ff ff ff       	callq  40546d <_ZNSt11_Tuple_implILm0EJPN10tensorflow6Status5StateESt14default_deleteIS2_EEE7_M_headERKS6_>
  40549f:	c9                   	leaveq 
  4054a0:	c3                   	retq   

00000000004054a1 <_ZSt3getILm0EJPN10tensorflow6Status5StateESt14default_deleteIS2_EEERKNSt13tuple_elementIXT_ESt5tupleIJDpT0_EEE4typeERKSA_>:
  4054a1:	55                   	push   %rbp
  4054a2:	48 89 e5             	mov    %rsp,%rbp
  4054a5:	48 83 ec 10          	sub    $0x10,%rsp
  4054a9:	48 89 7d f8          	mov    %rdi,-0x8(%rbp)
  4054ad:	48 8b 45 f8          	mov    -0x8(%rbp),%rax
  4054b1:	48 89 c7             	mov    %rax,%rdi
  4054b4:	e8 ce ff ff ff       	callq  405487 <_ZSt12__get_helperILm0EPN10tensorflow6Status5StateEJSt14default_deleteIS2_EEERKT0_RKSt11_Tuple_implIXT_EJS6_DpT1_EE>
  4054b9:	c9                   	leaveq 
  4054ba:	c3                   	retq   
  4054bb:	90                   	nop

00000000004054bc <_ZNKSt10unique_ptrIN10tensorflow6Status5StateESt14default_deleteIS2_EE3getEv>:
  4054bc:	55                   	push   %rbp
  4054bd:	48 89 e5             	mov    %rsp,%rbp
  4054c0:	48 83 ec 10          	sub    $0x10,%rsp
  4054c4:	48 89 7d f8          	mov    %rdi,-0x8(%rbp)
  4054c8:	48 8b 45 f8          	mov    -0x8(%rbp),%rax
  4054cc:	48 89 c7             	mov    %rax,%rdi
  4054cf:	e8 cd ff ff ff       	callq  4054a1 <_ZSt3getILm0EJPN10tensorflow6Status5StateESt14default_deleteIS2_EEERKNSt13tuple_elementIXT_ESt5tupleIJDpT0_EEE4typeERKSA_>
  4054d4:	48 8b 00             	mov    (%rax),%rax
  4054d7:	c9                   	leaveq 
  4054d8:	c3                   	retq   

00000000004054d9 <_ZStlsIcSt11char_traitsIcENSt7__cxx1112basic_stringIcS1_SaIcEEEERSt13basic_ostreamIT_T0_EOS9_RKT1_>:
  4054d9:	55                   	push   %rbp
  4054da:	48 89 e5             	mov    %rsp,%rbp
  4054dd:	48 83 ec 10          	sub    $0x10,%rsp
  4054e1:	48 89 7d f8          	mov    %rdi,-0x8(%rbp)
  4054e5:	48 89 75 f0          	mov    %rsi,-0x10(%rbp)
  4054e9:	48 8b 55 f0          	mov    -0x10(%rbp),%rdx
  4054ed:	48 8b 45 f8          	mov    -0x8(%rbp),%rax
  4054f1:	48 89 d6             	mov    %rdx,%rsi
  4054f4:	48 89 c7             	mov    %rax,%rdi
  4054f7:	e8 34 d7 ff ff       	callq  402c30 <_ZStlsIcSt11char_traitsIcESaIcEERSt13basic_ostreamIT_T0_ES7_RKNSt7__cxx1112basic_stringIS4_S5_T1_EE@plt>
  4054fc:	48 8b 45 f8          	mov    -0x8(%rbp),%rax
  405500:	c9                   	leaveq 
  405501:	c3                   	retq   

0000000000405502 <_ZN10tensorflow8internal12Check_EQImplIliEEPNSt7__cxx1112basic_stringIcSt11char_traitsIcESaIcEEERKT_RKT0_PKc>:
  405502:	55                   	push   %rbp
  405503:	48 89 e5             	mov    %rsp,%rbp
  405506:	48 83 ec 20          	sub    $0x20,%rsp
  40550a:	48 89 7d f8          	mov    %rdi,-0x8(%rbp)
  40550e:	48 89 75 f0          	mov    %rsi,-0x10(%rbp)
  405512:	48 89 55 e8          	mov    %rdx,-0x18(%rbp)
  405516:	48 8b 45 f8          	mov    -0x8(%rbp),%rax
  40551a:	48 8b 10             	mov    (%rax),%rdx
  40551d:	48 8b 45 f0          	mov    -0x10(%rbp),%rax
  405521:	8b 00                	mov    (%rax),%eax
  405523:	48 98                	cltq   
  405525:	48 39 c2             	cmp    %rax,%rdx
  405528:	75 07                	jne    405531 <_ZN10tensorflow8internal12Check_EQImplIliEEPNSt7__cxx1112basic_stringIcSt11char_traitsIcESaIcEEERKT_RKT0_PKc+0x2f>
  40552a:	b8 00 00 00 00       	mov    $0x0,%eax
  40552f:	eb 17                	jmp    405548 <_ZN10tensorflow8internal12Check_EQImplIliEEPNSt7__cxx1112basic_stringIcSt11char_traitsIcESaIcEEERKT_RKT0_PKc+0x46>
  405531:	48 8b 55 e8          	mov    -0x18(%rbp),%rdx
  405535:	48 8b 4d f0          	mov    -0x10(%rbp),%rcx
  405539:	48 8b 45 f8          	mov    -0x8(%rbp),%rax
  40553d:	48 89 ce             	mov    %rcx,%rsi
  405540:	48 89 c7             	mov    %rax,%rdi
  405543:	e8 f2 0b 00 00       	callq  40613a <_ZN10tensorflow8internal17MakeCheckOpStringIliEEPNSt7__cxx1112basic_stringIcSt11char_traitsIcESaIcEEERKT_RKT0_PKc>
  405548:	c9                   	leaveq 
  405549:	c3                   	retq   

000000000040554a <_ZN10tensorflow8internal12Check_GEImplIliEEPNSt7__cxx1112basic_stringIcSt11char_traitsIcESaIcEEERKT_RKT0_PKc>:
  40554a:	55                   	push   %rbp
  40554b:	48 89 e5             	mov    %rsp,%rbp
  40554e:	48 83 ec 20          	sub    $0x20,%rsp
  405552:	48 89 7d f8          	mov    %rdi,-0x8(%rbp)
  405556:	48 89 75 f0          	mov    %rsi,-0x10(%rbp)
  40555a:	48 89 55 e8          	mov    %rdx,-0x18(%rbp)
  40555e:	48 8b 45 f8          	mov    -0x8(%rbp),%rax
  405562:	48 8b 10             	mov    (%rax),%rdx
  405565:	48 8b 45 f0          	mov    -0x10(%rbp),%rax
  405569:	8b 00                	mov    (%rax),%eax
  40556b:	48 98                	cltq   
  40556d:	48 39 c2             	cmp    %rax,%rdx
  405570:	7c 07                	jl     405579 <_ZN10tensorflow8internal12Check_GEImplIliEEPNSt7__cxx1112basic_stringIcSt11char_traitsIcESaIcEEERKT_RKT0_PKc+0x2f>
  405572:	b8 00 00 00 00       	mov    $0x0,%eax
  405577:	eb 17                	jmp    405590 <_ZN10tensorflow8internal12Check_GEImplIliEEPNSt7__cxx1112basic_stringIcSt11char_traitsIcESaIcEEERKT_RKT0_PKc+0x46>
  405579:	48 8b 55 e8          	mov    -0x18(%rbp),%rdx
  40557d:	48 8b 4d f0          	mov    -0x10(%rbp),%rcx
  405581:	48 8b 45 f8          	mov    -0x8(%rbp),%rax
  405585:	48 89 ce             	mov    %rcx,%rsi
  405588:	48 89 c7             	mov    %rax,%rdi
  40558b:	e8 aa 0b 00 00       	callq  40613a <_ZN10tensorflow8internal17MakeCheckOpStringIliEEPNSt7__cxx1112basic_stringIcSt11char_traitsIcESaIcEEERKT_RKT0_PKc>
  405590:	c9                   	leaveq 
  405591:	c3                   	retq   

0000000000405592 <_ZNK10tensorflow6Tensor4baseIvEEPT_v>:
  405592:	55                   	push   %rbp
  405593:	48 89 e5             	mov    %rsp,%rbp
  405596:	48 83 ec 10          	sub    $0x10,%rsp
  40559a:	48 89 7d f8          	mov    %rdi,-0x8(%rbp)
  40559e:	48 8b 45 f8          	mov    -0x8(%rbp),%rax
  4055a2:	48 8b 40 18          	mov    0x18(%rax),%rax
  4055a6:	48 85 c0             	test   %rax,%rax
  4055a9:	74 12                	je     4055bd <_ZNK10tensorflow6Tensor4baseIvEEPT_v+0x2b>
  4055ab:	48 8b 45 f8          	mov    -0x8(%rbp),%rax
  4055af:	48 8b 40 18          	mov    0x18(%rax),%rax
  4055b3:	48 89 c7             	mov    %rax,%rdi
  4055b6:	e8 47 0c 00 00       	callq  406202 <_ZNK10tensorflow12TensorBuffer4baseIvEEPT_v>
  4055bb:	eb 05                	jmp    4055c2 <_ZNK10tensorflow6Tensor4baseIvEEPT_v+0x30>
  4055bd:	b8 00 00 00 00       	mov    $0x0,%eax
  4055c2:	c9                   	leaveq 
  4055c3:	c3                   	retq   

00000000004055c4 <_ZNSt6vectorISt4pairIPN10tensorflow4NodeEiESaIS4_EED1Ev>:
  4055c4:	55                   	push   %rbp
  4055c5:	48 89 e5             	mov    %rsp,%rbp
  4055c8:	48 83 ec 10          	sub    $0x10,%rsp
  4055cc:	48 89 7d f8          	mov    %rdi,-0x8(%rbp)
  4055d0:	48 8b 45 f8          	mov    -0x8(%rbp),%rax
  4055d4:	48 89 c7             	mov    %rax,%rdi
  4055d7:	e8 b8 0c 00 00       	callq  406294 <_ZNSt12_Vector_baseISt4pairIPN10tensorflow4NodeEiESaIS4_EE19_M_get_Tp_allocatorEv>
  4055dc:	48 89 c2             	mov    %rax,%rdx
  4055df:	48 8b 45 f8          	mov    -0x8(%rbp),%rax
  4055e3:	48 8b 48 08          	mov    0x8(%rax),%rcx
  4055e7:	48 8b 45 f8          	mov    -0x8(%rbp),%rax
  4055eb:	48 8b 00             	mov    (%rax),%rax
  4055ee:	48 89 ce             	mov    %rcx,%rsi
  4055f1:	48 89 c7             	mov    %rax,%rdi
  4055f4:	e8 a9 0c 00 00       	callq  4062a2 <_ZSt8_DestroyIPSt4pairIPN10tensorflow4NodeEiES4_EvT_S6_RSaIT0_E>
  4055f9:	48 8b 45 f8          	mov    -0x8(%rbp),%rax
  4055fd:	48 89 c7             	mov    %rax,%rdi
  405600:	e8 3f 0c 00 00       	callq  406244 <_ZNSt12_Vector_baseISt4pairIPN10tensorflow4NodeEiESaIS4_EED1Ev>
  405605:	90                   	nop
  405606:	c9                   	leaveq 
  405607:	c3                   	retq   

0000000000405608 <_ZNSt6vectorISt4pairIPN10tensorflow4NodeEiESaIS4_EEC1ERKS6_>:
  405608:	55                   	push   %rbp
  405609:	48 89 e5             	mov    %rsp,%rbp
  40560c:	41 55                	push   %r13
  40560e:	41 54                	push   %r12
  405610:	53                   	push   %rbx
  405611:	48 83 ec 28          	sub    $0x28,%rsp
  405615:	48 89 7d c8          	mov    %rdi,-0x38(%rbp)
  405619:	48 89 75 c0          	mov    %rsi,-0x40(%rbp)
  40561d:	64 48 8b 04 25 28 00 	mov    %fs:0x28,%rax
  405624:	00 00 
  405626:	48 89 45 d8          	mov    %rax,-0x28(%rbp)
  40562a:	31 c0                	xor    %eax,%eax
  40562c:	48 8b 45 c0          	mov    -0x40(%rbp),%rax
  405630:	48 89 c7             	mov    %rax,%rdi
  405633:	e8 06 0d 00 00       	callq  40633e <_ZNKSt12_Vector_baseISt4pairIPN10tensorflow4NodeEiESaIS4_EE19_M_get_Tp_allocatorEv>
  405638:	48 89 c2             	mov    %rax,%rdx
  40563b:	48 8d 45 d7          	lea    -0x29(%rbp),%rax
  40563f:	48 89 d6             	mov    %rdx,%rsi
  405642:	48 89 c7             	mov    %rax,%rdi
  405645:	e8 a8 0c 00 00       	callq  4062f2 <_ZN9__gnu_cxx14__alloc_traitsISaISt4pairIPN10tensorflow4NodeEiEEE17_S_select_on_copyERKS6_>
  40564a:	48 8b 45 c0          	mov    -0x40(%rbp),%rax
  40564e:	48 89 c7             	mov    %rax,%rdi
  405651:	e8 76 0c 00 00       	callq  4062cc <_ZNKSt6vectorISt4pairIPN10tensorflow4NodeEiESaIS4_EE4sizeEv>
  405656:	48 89 c1             	mov    %rax,%rcx
  405659:	48 8b 45 c8          	mov    -0x38(%rbp),%rax
  40565d:	48 8d 55 d7          	lea    -0x29(%rbp),%rdx
  405661:	48 89 ce             	mov    %rcx,%rsi
  405664:	48 89 c7             	mov    %rax,%rdi
  405667:	e8 fc 0c 00 00       	callq  406368 <_ZNSt12_Vector_baseISt4pairIPN10tensorflow4NodeEiESaIS4_EEC1EmRKS5_>
  40566c:	48 8d 45 d7          	lea    -0x29(%rbp),%rax
  405670:	48 89 c7             	mov    %rax,%rdi
  405673:	e8 d4 0c 00 00       	callq  40634c <_ZNSaISt4pairIPN10tensorflow4NodeEiEED1Ev>
  405678:	48 8b 45 c8          	mov    -0x38(%rbp),%rax
  40567c:	48 89 c7             	mov    %rax,%rdi
  40567f:	e8 10 0c 00 00       	callq  406294 <_ZNSt12_Vector_baseISt4pairIPN10tensorflow4NodeEiESaIS4_EE19_M_get_Tp_allocatorEv>
  405684:	49 89 c5             	mov    %rax,%r13
  405687:	48 8b 45 c8          	mov    -0x38(%rbp),%rax
  40568b:	48 8b 18             	mov    (%rax),%rbx
  40568e:	48 8b 45 c0          	mov    -0x40(%rbp),%rax
  405692:	48 89 c7             	mov    %rax,%rdi
  405695:	e8 80 0d 00 00       	callq  40641a <_ZNKSt6vectorISt4pairIPN10tensorflow4NodeEiESaIS4_EE3endEv>
  40569a:	49 89 c4             	mov    %rax,%r12
  40569d:	48 8b 45 c0          	mov    -0x40(%rbp),%rax
  4056a1:	48 89 c7             	mov    %rax,%rdi
  4056a4:	e8 1d 0d 00 00       	callq  4063c6 <_ZNKSt6vectorISt4pairIPN10tensorflow4NodeEiESaIS4_EE5beginEv>
  4056a9:	4c 89 e9             	mov    %r13,%rcx
  4056ac:	48 89 da             	mov    %rbx,%rdx
  4056af:	4c 89 e6             	mov    %r12,%rsi
  4056b2:	48 89 c7             	mov    %rax,%rdi
  4056b5:	e8 b4 0d 00 00       	callq  40646e <_ZSt22__uninitialized_copy_aIN9__gnu_cxx17__normal_iteratorIPKSt4pairIPN10tensorflow4NodeEiESt6vectorIS6_SaIS6_EEEEPS6_S6_ET0_T_SF_SE_RSaIT1_E>
  4056ba:	48 89 c2             	mov    %rax,%rdx
  4056bd:	48 8b 45 c8          	mov    -0x38(%rbp),%rax
  4056c1:	48 89 50 08          	mov    %rdx,0x8(%rax)
  4056c5:	90                   	nop
  4056c6:	48 8b 45 d8          	mov    -0x28(%rbp),%rax
  4056ca:	64 48 33 04 25 28 00 	xor    %fs:0x28,%rax
  4056d1:	00 00 
  4056d3:	74 3b                	je     405710 <_ZNSt6vectorISt4pairIPN10tensorflow4NodeEiESaIS4_EEC1ERKS6_+0x108>
  4056d5:	eb 34                	jmp    40570b <_ZNSt6vectorISt4pairIPN10tensorflow4NodeEiESaIS4_EEC1ERKS6_+0x103>
  4056d7:	48 89 c3             	mov    %rax,%rbx
  4056da:	48 8d 45 d7          	lea    -0x29(%rbp),%rax
  4056de:	48 89 c7             	mov    %rax,%rdi
  4056e1:	e8 66 0c 00 00       	callq  40634c <_ZNSaISt4pairIPN10tensorflow4NodeEiEED1Ev>
  4056e6:	48 89 d8             	mov    %rbx,%rax
  4056e9:	48 89 c7             	mov    %rax,%rdi
  4056ec:	e8 df d6 ff ff       	callq  402dd0 <_Unwind_Resume@plt>
  4056f1:	48 89 c3             	mov    %rax,%rbx
  4056f4:	48 8b 45 c8          	mov    -0x38(%rbp),%rax
  4056f8:	48 89 c7             	mov    %rax,%rdi
  4056fb:	e8 44 0b 00 00       	callq  406244 <_ZNSt12_Vector_baseISt4pairIPN10tensorflow4NodeEiESaIS4_EED1Ev>
  405700:	48 89 d8             	mov    %rbx,%rax
  405703:	48 89 c7             	mov    %rax,%rdi
  405706:	e8 c5 d6 ff ff       	callq  402dd0 <_Unwind_Resume@plt>
  40570b:	e8 30 d4 ff ff       	callq  402b40 <__stack_chk_fail@plt>
  405710:	48 83 c4 28          	add    $0x28,%rsp
  405714:	5b                   	pop    %rbx
  405715:	41 5c                	pop    %r12
  405717:	41 5d                	pop    %r13
  405719:	5d                   	pop    %rbp
  40571a:	c3                   	retq   
  40571b:	90                   	nop

000000000040571c <_ZNK6google8protobuf16RepeatedPtrFieldIN10tensorflow13NodeExecStatsEE4sizeEv>:
  40571c:	55                   	push   %rbp
  40571d:	48 89 e5             	mov    %rsp,%rbp
  405720:	48 83 ec 10          	sub    $0x10,%rsp
  405724:	48 89 7d f8          	mov    %rdi,-0x8(%rbp)
  405728:	48 8b 45 f8          	mov    -0x8(%rbp),%rax
  40572c:	48 89 c7             	mov    %rax,%rdi
  40572f:	e8 d6 e4 ff ff       	callq  403c0a <_ZNK6google8protobuf8internal20RepeatedPtrFieldBase4sizeEv>
  405734:	c9                   	leaveq 
  405735:	c3                   	retq   

0000000000405736 <_ZNK6google8protobuf16RepeatedPtrFieldIN10tensorflow15DeviceStepStatsEE4sizeEv>:
  405736:	55                   	push   %rbp
  405737:	48 89 e5             	mov    %rsp,%rbp
  40573a:	48 83 ec 10          	sub    $0x10,%rsp
  40573e:	48 89 7d f8          	mov    %rdi,-0x8(%rbp)
  405742:	48 8b 45 f8          	mov    -0x8(%rbp),%rax
  405746:	48 89 c7             	mov    %rax,%rdi
  405749:	e8 bc e4 ff ff       	callq  403c0a <_ZNK6google8protobuf8internal20RepeatedPtrFieldBase4sizeEv>
  40574e:	c9                   	leaveq 
  40574f:	c3                   	retq   

0000000000405750 <_ZNK6google8protobuf16RepeatedPtrFieldIN10tensorflow15DeviceStepStatsEE5beginEv>:
  405750:	55                   	push   %rbp
  405751:	48 89 e5             	mov    %rsp,%rbp
  405754:	48 83 ec 30          	sub    $0x30,%rsp
  405758:	48 89 7d d8          	mov    %rdi,-0x28(%rbp)
  40575c:	64 48 8b 04 25 28 00 	mov    %fs:0x28,%rax
  405763:	00 00 
  405765:	48 89 45 f8          	mov    %rax,-0x8(%rbp)
  405769:	31 c0                	xor    %eax,%eax
  40576b:	48 8b 45 d8          	mov    -0x28(%rbp),%rax
  40576f:	48 89 c7             	mov    %rax,%rdi
  405772:	e8 a5 e4 ff ff       	callq  403c1c <_ZNK6google8protobuf8internal20RepeatedPtrFieldBase8raw_dataEv>
  405777:	48 89 c2             	mov    %rax,%rdx
  40577a:	48 8d 45 e8          	lea    -0x18(%rbp),%rax
  40577e:	48 89 d6             	mov    %rdx,%rsi
  405781:	48 89 c7             	mov    %rax,%rdi
  405784:	e8 23 0d 00 00       	callq  4064ac <_ZN6google8protobuf8internal19RepeatedPtrIteratorIN10tensorflow15DeviceStepStatsEEC1EPKPv>
  405789:	48 8d 55 e8          	lea    -0x18(%rbp),%rdx
  40578d:	48 8d 45 f0          	lea    -0x10(%rbp),%rax
  405791:	48 89 d6             	mov    %rdx,%rsi
  405794:	48 89 c7             	mov    %rax,%rdi
  405797:	e8 46 0d 00 00       	callq  4064e2 <_ZN6google8protobuf8internal19RepeatedPtrIteratorIKN10tensorflow15DeviceStepStatsEEC1IS4_EERKNS2_IT_EE>
  40579c:	48 8b 45 f0          	mov    -0x10(%rbp),%rax
  4057a0:	48 8b 4d f8          	mov    -0x8(%rbp),%rcx
  4057a4:	64 48 33 0c 25 28 00 	xor    %fs:0x28,%rcx
  4057ab:	00 00 
  4057ad:	74 05                	je     4057b4 <_ZNK6google8protobuf16RepeatedPtrFieldIN10tensorflow15DeviceStepStatsEE5beginEv+0x64>
  4057af:	e8 8c d3 ff ff       	callq  402b40 <__stack_chk_fail@plt>
  4057b4:	c9                   	leaveq 
  4057b5:	c3                   	retq   

00000000004057b6 <_ZNK6google8protobuf16RepeatedPtrFieldIN10tensorflow15DeviceStepStatsEE3endEv>:
  4057b6:	55                   	push   %rbp
  4057b7:	48 89 e5             	mov    %rsp,%rbp
  4057ba:	53                   	push   %rbx
  4057bb:	48 83 ec 38          	sub    $0x38,%rsp
  4057bf:	48 89 7d c8          	mov    %rdi,-0x38(%rbp)
  4057c3:	64 48 8b 04 25 28 00 	mov    %fs:0x28,%rax
  4057ca:	00 00 
  4057cc:	48 89 45 e8          	mov    %rax,-0x18(%rbp)
  4057d0:	31 c0                	xor    %eax,%eax
  4057d2:	48 8b 45 c8          	mov    -0x38(%rbp),%rax
  4057d6:	48 89 c7             	mov    %rax,%rdi
  4057d9:	e8 3e e4 ff ff       	callq  403c1c <_ZNK6google8protobuf8internal20RepeatedPtrFieldBase8raw_dataEv>
  4057de:	48 89 c3             	mov    %rax,%rbx
  4057e1:	48 8b 45 c8          	mov    -0x38(%rbp),%rax
  4057e5:	48 89 c7             	mov    %rax,%rdi
  4057e8:	e8 49 ff ff ff       	callq  405736 <_ZNK6google8protobuf16RepeatedPtrFieldIN10tensorflow15DeviceStepStatsEE4sizeEv>
  4057ed:	48 98                	cltq   
  4057ef:	48 c1 e0 03          	shl    $0x3,%rax
  4057f3:	48 8d 14 03          	lea    (%rbx,%rax,1),%rdx
  4057f7:	48 8d 45 d8          	lea    -0x28(%rbp),%rax
  4057fb:	48 89 d6             	mov    %rdx,%rsi
  4057fe:	48 89 c7             	mov    %rax,%rdi
  405801:	e8 a6 0c 00 00       	callq  4064ac <_ZN6google8protobuf8internal19RepeatedPtrIteratorIN10tensorflow15DeviceStepStatsEEC1EPKPv>
  405806:	48 8d 55 d8          	lea    -0x28(%rbp),%rdx
  40580a:	48 8d 45 e0          	lea    -0x20(%rbp),%rax
  40580e:	48 89 d6             	mov    %rdx,%rsi
  405811:	48 89 c7             	mov    %rax,%rdi
  405814:	e8 c9 0c 00 00       	callq  4064e2 <_ZN6google8protobuf8internal19RepeatedPtrIteratorIKN10tensorflow15DeviceStepStatsEEC1IS4_EERKNS2_IT_EE>
  405819:	48 8b 45 e0          	mov    -0x20(%rbp),%rax
  40581d:	48 8b 4d e8          	mov    -0x18(%rbp),%rcx
  405821:	64 48 33 0c 25 28 00 	xor    %fs:0x28,%rcx
  405828:	00 00 
  40582a:	74 05                	je     405831 <_ZNK6google8protobuf16RepeatedPtrFieldIN10tensorflow15DeviceStepStatsEE3endEv+0x7b>
  40582c:	e8 0f d3 ff ff       	callq  402b40 <__stack_chk_fail@plt>
  405831:	48 83 c4 38          	add    $0x38,%rsp
  405835:	5b                   	pop    %rbx
  405836:	5d                   	pop    %rbp
  405837:	c3                   	retq   

0000000000405838 <_ZNK6google8protobuf8internal19RepeatedPtrIteratorIKN10tensorflow15DeviceStepStatsEEneERKS6_>:
  405838:	55                   	push   %rbp
  405839:	48 89 e5             	mov    %rsp,%rbp
  40583c:	48 89 7d f8          	mov    %rdi,-0x8(%rbp)
  405840:	48 89 75 f0          	mov    %rsi,-0x10(%rbp)
  405844:	48 8b 45 f8          	mov    -0x8(%rbp),%rax
  405848:	48 8b 10             	mov    (%rax),%rdx
  40584b:	48 8b 45 f0          	mov    -0x10(%rbp),%rax
  40584f:	48 8b 00             	mov    (%rax),%rax
  405852:	48 39 c2             	cmp    %rax,%rdx
  405855:	0f 95 c0             	setne  %al
  405858:	5d                   	pop    %rbp
  405859:	c3                   	retq   

000000000040585a <_ZN6google8protobuf8internal19RepeatedPtrIteratorIKN10tensorflow15DeviceStepStatsEEppEv>:
  40585a:	55                   	push   %rbp
  40585b:	48 89 e5             	mov    %rsp,%rbp
  40585e:	48 89 7d f8          	mov    %rdi,-0x8(%rbp)
  405862:	48 8b 45 f8          	mov    -0x8(%rbp),%rax
  405866:	48 8b 00             	mov    (%rax),%rax
  405869:	48 8d 50 08          	lea    0x8(%rax),%rdx
  40586d:	48 8b 45 f8          	mov    -0x8(%rbp),%rax
  405871:	48 89 10             	mov    %rdx,(%rax)
  405874:	48 8b 45 f8          	mov    -0x8(%rbp),%rax
  405878:	5d                   	pop    %rbp
  405879:	c3                   	retq   

000000000040587a <_ZNK6google8protobuf8internal19RepeatedPtrIteratorIKN10tensorflow15DeviceStepStatsEEdeEv>:
  40587a:	55                   	push   %rbp
  40587b:	48 89 e5             	mov    %rsp,%rbp
  40587e:	48 89 7d f8          	mov    %rdi,-0x8(%rbp)
  405882:	48 8b 45 f8          	mov    -0x8(%rbp),%rax
  405886:	48 8b 00             	mov    (%rax),%rax
  405889:	48 8b 00             	mov    (%rax),%rax
  40588c:	5d                   	pop    %rbp
  40588d:	c3                   	retq   

000000000040588e <_ZNK6google8protobuf16RepeatedPtrFieldIN10tensorflow13NodeExecStatsEE5beginEv>:
  40588e:	55                   	push   %rbp
  40588f:	48 89 e5             	mov    %rsp,%rbp
  405892:	48 83 ec 30          	sub    $0x30,%rsp
  405896:	48 89 7d d8          	mov    %rdi,-0x28(%rbp)
  40589a:	64 48 8b 04 25 28 00 	mov    %fs:0x28,%rax
  4058a1:	00 00 
  4058a3:	48 89 45 f8          	mov    %rax,-0x8(%rbp)
  4058a7:	31 c0                	xor    %eax,%eax
  4058a9:	48 8b 45 d8          	mov    -0x28(%rbp),%rax
  4058ad:	48 89 c7             	mov    %rax,%rdi
  4058b0:	e8 67 e3 ff ff       	callq  403c1c <_ZNK6google8protobuf8internal20RepeatedPtrFieldBase8raw_dataEv>
  4058b5:	48 89 c2             	mov    %rax,%rdx
  4058b8:	48 8d 45 e8          	lea    -0x18(%rbp),%rax
  4058bc:	48 89 d6             	mov    %rdx,%rsi
  4058bf:	48 89 c7             	mov    %rax,%rdi
  4058c2:	e8 77 0c 00 00       	callq  40653e <_ZN6google8protobuf8internal19RepeatedPtrIteratorIN10tensorflow13NodeExecStatsEEC1EPKPv>
  4058c7:	48 8d 55 e8          	lea    -0x18(%rbp),%rdx
  4058cb:	48 8d 45 f0          	lea    -0x10(%rbp),%rax
  4058cf:	48 89 d6             	mov    %rdx,%rsi
  4058d2:	48 89 c7             	mov    %rax,%rdi
  4058d5:	e8 9a 0c 00 00       	callq  406574 <_ZN6google8protobuf8internal19RepeatedPtrIteratorIKN10tensorflow13NodeExecStatsEEC1IS4_EERKNS2_IT_EE>
  4058da:	48 8b 45 f0          	mov    -0x10(%rbp),%rax
  4058de:	48 8b 4d f8          	mov    -0x8(%rbp),%rcx
  4058e2:	64 48 33 0c 25 28 00 	xor    %fs:0x28,%rcx
  4058e9:	00 00 
  4058eb:	74 05                	je     4058f2 <_ZNK6google8protobuf16RepeatedPtrFieldIN10tensorflow13NodeExecStatsEE5beginEv+0x64>
  4058ed:	e8 4e d2 ff ff       	callq  402b40 <__stack_chk_fail@plt>
  4058f2:	c9                   	leaveq 
  4058f3:	c3                   	retq   

00000000004058f4 <_ZNK6google8protobuf16RepeatedPtrFieldIN10tensorflow13NodeExecStatsEE3endEv>:
  4058f4:	55                   	push   %rbp
  4058f5:	48 89 e5             	mov    %rsp,%rbp
  4058f8:	53                   	push   %rbx
  4058f9:	48 83 ec 38          	sub    $0x38,%rsp
  4058fd:	48 89 7d c8          	mov    %rdi,-0x38(%rbp)
  405901:	64 48 8b 04 25 28 00 	mov    %fs:0x28,%rax
  405908:	00 00 
  40590a:	48 89 45 e8          	mov    %rax,-0x18(%rbp)
  40590e:	31 c0                	xor    %eax,%eax
  405910:	48 8b 45 c8          	mov    -0x38(%rbp),%rax
  405914:	48 89 c7             	mov    %rax,%rdi
  405917:	e8 00 e3 ff ff       	callq  403c1c <_ZNK6google8protobuf8internal20RepeatedPtrFieldBase8raw_dataEv>
  40591c:	48 89 c3             	mov    %rax,%rbx
  40591f:	48 8b 45 c8          	mov    -0x38(%rbp),%rax
  405923:	48 89 c7             	mov    %rax,%rdi
  405926:	e8 f1 fd ff ff       	callq  40571c <_ZNK6google8protobuf16RepeatedPtrFieldIN10tensorflow13NodeExecStatsEE4sizeEv>
  40592b:	48 98                	cltq   
  40592d:	48 c1 e0 03          	shl    $0x3,%rax
  405931:	48 8d 14 03          	lea    (%rbx,%rax,1),%rdx
  405935:	48 8d 45 d8          	lea    -0x28(%rbp),%rax
  405939:	48 89 d6             	mov    %rdx,%rsi
  40593c:	48 89 c7             	mov    %rax,%rdi
  40593f:	e8 fa 0b 00 00       	callq  40653e <_ZN6google8protobuf8internal19RepeatedPtrIteratorIN10tensorflow13NodeExecStatsEEC1EPKPv>
  405944:	48 8d 55 d8          	lea    -0x28(%rbp),%rdx
  405948:	48 8d 45 e0          	lea    -0x20(%rbp),%rax
  40594c:	48 89 d6             	mov    %rdx,%rsi
  40594f:	48 89 c7             	mov    %rax,%rdi
  405952:	e8 1d 0c 00 00       	callq  406574 <_ZN6google8protobuf8internal19RepeatedPtrIteratorIKN10tensorflow13NodeExecStatsEEC1IS4_EERKNS2_IT_EE>
  405957:	48 8b 45 e0          	mov    -0x20(%rbp),%rax
  40595b:	48 8b 4d e8          	mov    -0x18(%rbp),%rcx
  40595f:	64 48 33 0c 25 28 00 	xor    %fs:0x28,%rcx
  405966:	00 00 
  405968:	74 05                	je     40596f <_ZNK6google8protobuf16RepeatedPtrFieldIN10tensorflow13NodeExecStatsEE3endEv+0x7b>
  40596a:	e8 d1 d1 ff ff       	callq  402b40 <__stack_chk_fail@plt>
  40596f:	48 83 c4 38          	add    $0x38,%rsp
  405973:	5b                   	pop    %rbx
  405974:	5d                   	pop    %rbp
  405975:	c3                   	retq   

0000000000405976 <_ZNK6google8protobuf8internal19RepeatedPtrIteratorIKN10tensorflow13NodeExecStatsEEneERKS6_>:
  405976:	55                   	push   %rbp
  405977:	48 89 e5             	mov    %rsp,%rbp
  40597a:	48 89 7d f8          	mov    %rdi,-0x8(%rbp)
  40597e:	48 89 75 f0          	mov    %rsi,-0x10(%rbp)
  405982:	48 8b 45 f8          	mov    -0x8(%rbp),%rax
  405986:	48 8b 10             	mov    (%rax),%rdx
  405989:	48 8b 45 f0          	mov    -0x10(%rbp),%rax
  40598d:	48 8b 00             	mov    (%rax),%rax
  405990:	48 39 c2             	cmp    %rax,%rdx
  405993:	0f 95 c0             	setne  %al
  405996:	5d                   	pop    %rbp
  405997:	c3                   	retq   

0000000000405998 <_ZN6google8protobuf8internal19RepeatedPtrIteratorIKN10tensorflow13NodeExecStatsEEppEv>:
  405998:	55                   	push   %rbp
  405999:	48 89 e5             	mov    %rsp,%rbp
  40599c:	48 89 7d f8          	mov    %rdi,-0x8(%rbp)
  4059a0:	48 8b 45 f8          	mov    -0x8(%rbp),%rax
  4059a4:	48 8b 00             	mov    (%rax),%rax
  4059a7:	48 8d 50 08          	lea    0x8(%rax),%rdx
  4059ab:	48 8b 45 f8          	mov    -0x8(%rbp),%rax
  4059af:	48 89 10             	mov    %rdx,(%rax)
  4059b2:	48 8b 45 f8          	mov    -0x8(%rbp),%rax
  4059b6:	5d                   	pop    %rbp
  4059b7:	c3                   	retq   

00000000004059b8 <_ZNK6google8protobuf8internal19RepeatedPtrIteratorIKN10tensorflow13NodeExecStatsEEdeEv>:
  4059b8:	55                   	push   %rbp
  4059b9:	48 89 e5             	mov    %rsp,%rbp
  4059bc:	48 89 7d f8          	mov    %rdi,-0x8(%rbp)
  4059c0:	48 8b 45 f8          	mov    -0x8(%rbp),%rax
  4059c4:	48 8b 00             	mov    (%rax),%rax
  4059c7:	48 8b 00             	mov    (%rax),%rax
  4059ca:	5d                   	pop    %rbp
  4059cb:	c3                   	retq   

00000000004059cc <_ZN2CK19get_random_raw_dataIfEEPT_RKNS_5ShapeE>:
  4059cc:	55                   	push   %rbp
  4059cd:	48 89 e5             	mov    %rsp,%rbp
  4059d0:	53                   	push   %rbx
  4059d1:	48 83 ec 38          	sub    $0x38,%rsp
  4059d5:	48 89 7d c8          	mov    %rdi,-0x38(%rbp)
  4059d9:	ba 20 00 00 00       	mov    $0x20,%edx
  4059de:	be c9 88 40 00       	mov    $0x4088c9,%esi
  4059e3:	bf 09 00 00 00       	mov    $0x9,%edi
  4059e8:	e8 b3 ef ff ff       	callq  4049a0 <_ZN2CK13store_value_iEiPKci>
  4059ed:	c7 45 dc 40 42 0f 00 	movl   $0xf4240,-0x24(%rbp)
  4059f4:	c7 45 e0 81 84 1e 00 	movl   $0x1e8481,-0x20(%rbp)
  4059fb:	48 8b 45 c8          	mov    -0x38(%rbp),%rax
  4059ff:	48 89 c7             	mov    %rax,%rdi
  405a02:	e8 b3 ee ff ff       	callq  4048ba <_ZNK2CK5Shape10data_countEv>
  405a07:	89 45 e4             	mov    %eax,-0x1c(%rbp)
  405a0a:	8b 45 e4             	mov    -0x1c(%rbp),%eax
  405a0d:	48 63 d0             	movslq %eax,%rdx
  405a10:	48 b8 fe ff ff ff ff 	movabs $0x1ffffffffffffffe,%rax
  405a17:	ff ff 1f 
  405a1a:	48 39 c2             	cmp    %rax,%rdx
  405a1d:	77 1e                	ja     405a3d <_ZN2CK19get_random_raw_dataIfEEPT_RKNS_5ShapeE+0x71>
  405a1f:	8b 45 e4             	mov    -0x1c(%rbp),%eax
  405a22:	48 98                	cltq   
  405a24:	48 c1 e0 02          	shl    $0x2,%rax
  405a28:	48 89 c7             	mov    %rax,%rdi
  405a2b:	e8 d0 d4 ff ff       	callq  402f00 <_Znam@plt>
  405a30:	48 89 45 e8          	mov    %rax,-0x18(%rbp)
  405a34:	c7 45 d8 00 00 00 00 	movl   $0x0,-0x28(%rbp)
  405a3b:	eb 05                	jmp    405a42 <_ZN2CK19get_random_raw_dataIfEEPT_RKNS_5ShapeE+0x76>
  405a3d:	e8 2e d5 ff ff       	callq  402f70 <__cxa_throw_bad_array_new_length@plt>
  405a42:	8b 45 d8             	mov    -0x28(%rbp),%eax
  405a45:	3b 45 e4             	cmp    -0x1c(%rbp),%eax
  405a48:	7d 5e                	jge    405aa8 <_ZN2CK19get_random_raw_dataIfEEPT_RKNS_5ShapeE+0xdc>
  405a4a:	8b 45 d8             	mov    -0x28(%rbp),%eax
  405a4d:	48 98                	cltq   
  405a4f:	48 8d 14 85 00 00 00 	lea    0x0(,%rax,4),%rdx
  405a56:	00 
  405a57:	48 8b 45 e8          	mov    -0x18(%rbp),%rax
  405a5b:	48 8d 1c 02          	lea    (%rdx,%rax,1),%rbx
  405a5f:	e8 5c d5 ff ff       	callq  402fc0 <rand@plt>
  405a64:	89 c1                	mov    %eax,%ecx
  405a66:	ba c5 bd 31 04       	mov    $0x431bdc5,%edx
  405a6b:	89 c8                	mov    %ecx,%eax
  405a6d:	f7 ea                	imul   %edx
  405a6f:	c1 fa 0f             	sar    $0xf,%edx
  405a72:	89 c8                	mov    %ecx,%eax
  405a74:	c1 f8 1f             	sar    $0x1f,%eax
  405a77:	29 c2                	sub    %eax,%edx
  405a79:	89 d0                	mov    %edx,%eax
  405a7b:	69 c0 81 84 1e 00    	imul   $0x1e8481,%eax,%eax
  405a81:	29 c1                	sub    %eax,%ecx
  405a83:	89 c8                	mov    %ecx,%eax
  405a85:	2d 40 42 0f 00       	sub    $0xf4240,%eax
  405a8a:	66 0f ef c0          	pxor   %xmm0,%xmm0
  405a8e:	f3 0f 2a c0          	cvtsi2ss %eax,%xmm0
  405a92:	f3 0f 10 0d 5a 30 00 	movss  0x305a(%rip),%xmm1        # 408af4 <_ZZN2CK2TF16process_metadataERKN10tensorflow11RunMetadataEPKcE19__PRETTY_FUNCTION__+0x54>
  405a99:	00 
  405a9a:	f3 0f 5e c1          	divss  %xmm1,%xmm0
  405a9e:	f3 0f 11 03          	movss  %xmm0,(%rbx)
  405aa2:	83 45 d8 01          	addl   $0x1,-0x28(%rbp)
  405aa6:	eb 9a                	jmp    405a42 <_ZN2CK19get_random_raw_dataIfEEPT_RKNS_5ShapeE+0x76>
  405aa8:	48 8b 45 e8          	mov    -0x18(%rbp),%rax
  405aac:	48 83 c4 38          	add    $0x38,%rsp
  405ab0:	5b                   	pop    %rbx
  405ab1:	5d                   	pop    %rbp
  405ab2:	c3                   	retq   

0000000000405ab3 <_ZN2CK20print_input_raw_dataIfEEvPT_RKNS_5ShapeE>:
  405ab3:	55                   	push   %rbp
  405ab4:	48 89 e5             	mov    %rsp,%rbp
  405ab7:	48 83 ec 10          	sub    $0x10,%rsp
  405abb:	48 89 7d f8          	mov    %rdi,-0x8(%rbp)
  405abf:	48 89 75 f0          	mov    %rsi,-0x10(%rbp)
  405ac3:	48 8b 75 f0          	mov    -0x10(%rbp),%rsi
  405ac7:	48 8b 45 f8          	mov    -0x8(%rbp),%rax
  405acb:	b9 d3 88 40 00       	mov    $0x4088d3,%ecx
  405ad0:	ba d9 88 40 00       	mov    $0x4088d9,%edx
  405ad5:	48 89 c7             	mov    %rax,%rdi
  405ad8:	e8 8f 0b 00 00       	callq  40666c <_ZN2CK12log_raw_dataIfEEvPT_RKNS_5ShapeEPKcS7_>
  405add:	90                   	nop
  405ade:	c9                   	leaveq 
  405adf:	c3                   	retq   

0000000000405ae0 <_ZN10tensorflow6Tensor4flatIfEENS_6TTypesIT_Li1ElE4FlatEv>:
  405ae0:	55                   	push   %rbp
  405ae1:	48 89 e5             	mov    %rsp,%rbp
  405ae4:	41 55                	push   %r13
  405ae6:	41 54                	push   %r12
  405ae8:	53                   	push   %rbx
  405ae9:	48 83 ec 38          	sub    $0x38,%rsp
  405aed:	48 89 7d b8          	mov    %rdi,-0x48(%rbp)
  405af1:	64 48 8b 04 25 28 00 	mov    %fs:0x28,%rax
  405af8:	00 00 
  405afa:	48 89 45 d8          	mov    %rax,-0x28(%rbp)
  405afe:	31 c0                	xor    %eax,%eax
  405b00:	48 8b 45 b8          	mov    -0x48(%rbp),%rax
  405b04:	48 89 c7             	mov    %rax,%rdi
  405b07:	e8 0c e8 ff ff       	callq  404318 <_ZNK10tensorflow6Tensor11NumElementsEv>
  405b0c:	48 89 45 d0          	mov    %rax,-0x30(%rbp)
  405b10:	48 8d 45 d0          	lea    -0x30(%rbp),%rax
  405b14:	49 89 c4             	mov    %rax,%r12
  405b17:	41 bd 01 00 00 00    	mov    $0x1,%r13d
  405b1d:	4c 89 e1             	mov    %r12,%rcx
  405b20:	4c 89 eb             	mov    %r13,%rbx
  405b23:	4c 89 e0             	mov    %r12,%rax
  405b26:	4c 89 ea             	mov    %r13,%rdx
  405b29:	48 8d 45 c0          	lea    -0x40(%rbp),%rax
  405b2d:	48 89 ce             	mov    %rcx,%rsi
  405b30:	48 89 c7             	mov    %rax,%rdi
  405b33:	e8 de 0a 00 00       	callq  406616 <_ZN10tensorflow3gtl10ArraySliceIxEC1ESt16initializer_listIxE>
  405b38:	48 8b 4d c0          	mov    -0x40(%rbp),%rcx
  405b3c:	48 8b 55 c8          	mov    -0x38(%rbp),%rdx
  405b40:	48 8b 45 b8          	mov    -0x48(%rbp),%rax
  405b44:	48 89 ce             	mov    %rcx,%rsi
  405b47:	48 89 c7             	mov    %rax,%rdi
  405b4a:	e8 95 0b 00 00       	callq  4066e4 <_ZN10tensorflow6Tensor6shapedIfLm1EEENS_6TTypesIT_XT0_ElE6TensorENS_3gtl10ArraySliceIxEE>
  405b4f:	48 8b 5d d8          	mov    -0x28(%rbp),%rbx
  405b53:	64 48 33 1c 25 28 00 	xor    %fs:0x28,%rbx
  405b5a:	00 00 
  405b5c:	74 05                	je     405b63 <_ZN10tensorflow6Tensor4flatIfEENS_6TTypesIT_Li1ElE4FlatEv+0x83>
  405b5e:	e8 dd cf ff ff       	callq  402b40 <__stack_chk_fail@plt>
  405b63:	48 83 c4 38          	add    $0x38,%rsp
  405b67:	5b                   	pop    %rbx
  405b68:	41 5c                	pop    %r12
  405b6a:	41 5d                	pop    %r13
  405b6c:	5d                   	pop    %rbp
  405b6d:	c3                   	retq   

0000000000405b6e <_ZN5Eigen9TensorMapINS_6TensorIfLi1ELi1ElEELi16ENS_11MakePointerEE4dataEv>:
  405b6e:	55                   	push   %rbp
  405b6f:	48 89 e5             	mov    %rsp,%rbp
  405b72:	48 89 7d f8          	mov    %rdi,-0x8(%rbp)
  405b76:	48 8b 45 f8          	mov    -0x8(%rbp),%rax
  405b7a:	48 8b 00             	mov    (%rax),%rax
  405b7d:	5d                   	pop    %rbp
  405b7e:	c3                   	retq   
  405b7f:	90                   	nop

0000000000405b80 <_ZNSt6vectorIN10tensorflow6TensorESaIS1_EEC1Ev>:
  405b80:	55                   	push   %rbp
  405b81:	48 89 e5             	mov    %rsp,%rbp
  405b84:	48 83 ec 10          	sub    $0x10,%rsp
  405b88:	48 89 7d f8          	mov    %rdi,-0x8(%rbp)
  405b8c:	48 8b 45 f8          	mov    -0x8(%rbp),%rax
  405b90:	48 89 c7             	mov    %rax,%rdi
  405b93:	e8 8e 0c 00 00       	callq  406826 <_ZNSt12_Vector_baseIN10tensorflow6TensorESaIS1_EEC1Ev>
  405b98:	90                   	nop
  405b99:	c9                   	leaveq 
  405b9a:	c3                   	retq   
  405b9b:	90                   	nop

0000000000405b9c <_ZNSt6vectorIN10tensorflow6TensorESaIS1_EED1Ev>:
  405b9c:	55                   	push   %rbp
  405b9d:	48 89 e5             	mov    %rsp,%rbp
  405ba0:	48 83 ec 10          	sub    $0x10,%rsp
  405ba4:	48 89 7d f8          	mov    %rdi,-0x8(%rbp)
  405ba8:	48 8b 45 f8          	mov    -0x8(%rbp),%rax
  405bac:	48 89 c7             	mov    %rax,%rdi
  405baf:	e8 de 0c 00 00       	callq  406892 <_ZNSt12_Vector_baseIN10tensorflow6TensorESaIS1_EE19_M_get_Tp_allocatorEv>
  405bb4:	48 89 c2             	mov    %rax,%rdx
  405bb7:	48 8b 45 f8          	mov    -0x8(%rbp),%rax
  405bbb:	48 8b 48 08          	mov    0x8(%rax),%rcx
  405bbf:	48 8b 45 f8          	mov    -0x8(%rbp),%rax
  405bc3:	48 8b 00             	mov    (%rax),%rax
  405bc6:	48 89 ce             	mov    %rcx,%rsi
  405bc9:	48 89 c7             	mov    %rax,%rdi
  405bcc:	e8 cf 0c 00 00       	callq  4068a0 <_ZSt8_DestroyIPN10tensorflow6TensorES1_EvT_S3_RSaIT0_E>
  405bd1:	48 8b 45 f8          	mov    -0x8(%rbp),%rax
  405bd5:	48 89 c7             	mov    %rax,%rdi
  405bd8:	e8 65 0c 00 00       	callq  406842 <_ZNSt12_Vector_baseIN10tensorflow6TensorESaIS1_EED1Ev>
  405bdd:	90                   	nop
  405bde:	c9                   	leaveq 
  405bdf:	c3                   	retq   

0000000000405be0 <_ZNSaINSt8__detail10_Hash_nodeISt4pairIKN10tensorflow6OutputENS2_5Input11InitializerEELb1EEEEC1Ev>:
  405be0:	55                   	push   %rbp
  405be1:	48 89 e5             	mov    %rsp,%rbp
  405be4:	48 83 ec 10          	sub    $0x10,%rsp
  405be8:	48 89 7d f8          	mov    %rdi,-0x8(%rbp)
  405bec:	48 8b 45 f8          	mov    -0x8(%rbp),%rax
  405bf0:	48 89 c7             	mov    %rax,%rdi
  405bf3:	e8 d2 0c 00 00       	callq  4068ca <_ZN9__gnu_cxx13new_allocatorINSt8__detail10_Hash_nodeISt4pairIKN10tensorflow6OutputENS4_5Input11InitializerEELb1EEEEC1Ev>
  405bf8:	90                   	nop
  405bf9:	c9                   	leaveq 
  405bfa:	c3                   	retq   
  405bfb:	90                   	nop

0000000000405bfc <_ZNSaINSt8__detail10_Hash_nodeISt4pairIKN10tensorflow6OutputENS2_5Input11InitializerEELb1EEEED1Ev>:
  405bfc:	55                   	push   %rbp
  405bfd:	48 89 e5             	mov    %rsp,%rbp
  405c00:	48 83 ec 10          	sub    $0x10,%rsp
  405c04:	48 89 7d f8          	mov    %rdi,-0x8(%rbp)
  405c08:	48 8b 45 f8          	mov    -0x8(%rbp),%rax
  405c0c:	48 89 c7             	mov    %rax,%rdi
  405c0f:	e8 c2 0c 00 00       	callq  4068d6 <_ZN9__gnu_cxx13new_allocatorINSt8__detail10_Hash_nodeISt4pairIKN10tensorflow6OutputENS4_5Input11InitializerEELb1EEEED1Ev>
  405c14:	90                   	nop
  405c15:	c9                   	leaveq 
  405c16:	c3                   	retq   
  405c17:	90                   	nop

0000000000405c18 <_ZNSt10_HashtableIN10tensorflow6OutputESt4pairIKS1_NS0_5Input11InitializerEESaIS6_ENSt8__detail10_Select1stESt8equal_toIS1_ENS0_10OutputHashENS8_18_Mod_range_hashingENS8_20_Default_ranged_hashENS8_20_Prime_rehash_policyENS8_17_Hashtable_traitsILb1ELb0ELb1EEEED1Ev>:
  405c18:	55                   	push   %rbp
  405c19:	48 89 e5             	mov    %rsp,%rbp
  405c1c:	48 83 ec 10          	sub    $0x10,%rsp
  405c20:	48 89 7d f8          	mov    %rdi,-0x8(%rbp)
  405c24:	48 8b 45 f8          	mov    -0x8(%rbp),%rax
  405c28:	48 89 c7             	mov    %rax,%rdi
  405c2b:	e8 b2 0c 00 00       	callq  4068e2 <_ZNSt10_HashtableIN10tensorflow6OutputESt4pairIKS1_NS0_5Input11InitializerEESaIS6_ENSt8__detail10_Select1stESt8equal_toIS1_ENS0_10OutputHashENS8_18_Mod_range_hashingENS8_20_Default_ranged_hashENS8_20_Prime_rehash_policyENS8_17_Hashtable_traitsILb1ELb0ELb1EEEE5clearEv>
  405c30:	48 8b 45 f8          	mov    -0x8(%rbp),%rax
  405c34:	48 89 c7             	mov    %rax,%rdi
  405c37:	e8 10 0d 00 00       	callq  40694c <_ZNSt10_HashtableIN10tensorflow6OutputESt4pairIKS1_NS0_5Input11InitializerEESaIS6_ENSt8__detail10_Select1stESt8equal_toIS1_ENS0_10OutputHashENS8_18_Mod_range_hashingENS8_20_Default_ranged_hashENS8_20_Prime_rehash_policyENS8_17_Hashtable_traitsILb1ELb0ELb1EEEE21_M_deallocate_bucketsEv>
  405c3c:	48 8b 45 f8          	mov    -0x8(%rbp),%rax
  405c40:	48 89 c7             	mov    %rax,%rdi
  405c43:	e8 d4 f4 ff ff       	callq  40511c <_ZNSt8__detail16_Hashtable_allocISaINS_10_Hash_nodeISt4pairIKN10tensorflow6OutputENS3_5Input11InitializerEELb1EEEEED1Ev>
  405c48:	90                   	nop
  405c49:	c9                   	leaveq 
  405c4a:	c3                   	retq   
  405c4b:	90                   	nop

0000000000405c4c <_ZNSaIN10tensorflow6OutputEEC1Ev>:
  405c4c:	55                   	push   %rbp
  405c4d:	48 89 e5             	mov    %rsp,%rbp
  405c50:	48 83 ec 10          	sub    $0x10,%rsp
  405c54:	48 89 7d f8          	mov    %rdi,-0x8(%rbp)
  405c58:	48 8b 45 f8          	mov    -0x8(%rbp),%rax
  405c5c:	48 89 c7             	mov    %rax,%rdi
  405c5f:	e8 16 0d 00 00       	callq  40697a <_ZN9__gnu_cxx13new_allocatorIN10tensorflow6OutputEEC1Ev>
  405c64:	90                   	nop
  405c65:	c9                   	leaveq 
  405c66:	c3                   	retq   
  405c67:	90                   	nop

0000000000405c68 <_ZNSaIN10tensorflow6OutputEED1Ev>:
  405c68:	55                   	push   %rbp
  405c69:	48 89 e5             	mov    %rsp,%rbp
  405c6c:	48 83 ec 10          	sub    $0x10,%rsp
  405c70:	48 89 7d f8          	mov    %rdi,-0x8(%rbp)
  405c74:	48 8b 45 f8          	mov    -0x8(%rbp),%rax
  405c78:	48 89 c7             	mov    %rax,%rdi
  405c7b:	e8 06 0d 00 00       	callq  406986 <_ZN9__gnu_cxx13new_allocatorIN10tensorflow6OutputEED1Ev>
  405c80:	90                   	nop
  405c81:	c9                   	leaveq 
  405c82:	c3                   	retq   
  405c83:	90                   	nop

0000000000405c84 <_ZNSt6vectorIN10tensorflow6OutputESaIS1_EEC1ESt16initializer_listIS1_ERKS2_>:
  405c84:	55                   	push   %rbp
  405c85:	48 89 e5             	mov    %rsp,%rbp
  405c88:	41 54                	push   %r12
  405c8a:	53                   	push   %rbx
  405c8b:	48 83 ec 30          	sub    $0x30,%rsp
  405c8f:	48 89 7d d8          	mov    %rdi,-0x28(%rbp)
  405c93:	48 89 f0             	mov    %rsi,%rax
  405c96:	48 89 d6             	mov    %rdx,%rsi
  405c99:	48 89 f2             	mov    %rsi,%rdx
  405c9c:	48 89 45 c0          	mov    %rax,-0x40(%rbp)
  405ca0:	48 89 55 c8          	mov    %rdx,-0x38(%rbp)
  405ca4:	48 89 4d d0          	mov    %rcx,-0x30(%rbp)
  405ca8:	64 48 8b 04 25 28 00 	mov    %fs:0x28,%rax
  405caf:	00 00 
  405cb1:	48 89 45 e8          	mov    %rax,-0x18(%rbp)
  405cb5:	31 c0                	xor    %eax,%eax
  405cb7:	48 8b 45 d8          	mov    -0x28(%rbp),%rax
  405cbb:	48 8b 55 d0          	mov    -0x30(%rbp),%rdx
  405cbf:	48 89 d6             	mov    %rdx,%rsi
  405cc2:	48 89 c7             	mov    %rax,%rdi
  405cc5:	e8 e4 0c 00 00       	callq  4069ae <_ZNSt12_Vector_baseIN10tensorflow6OutputESaIS1_EEC1ERKS2_>
  405cca:	48 8d 45 c0          	lea    -0x40(%rbp),%rax
  405cce:	48 89 c7             	mov    %rax,%rdi
  405cd1:	e8 4c ea ff ff       	callq  404722 <_ZNKSt16initializer_listIN10tensorflow6OutputEE3endEv>
  405cd6:	48 89 c3             	mov    %rax,%rbx
  405cd9:	48 8d 45 c0          	lea    -0x40(%rbp),%rax
  405cdd:	48 89 c7             	mov    %rax,%rdi
  405ce0:	e8 19 ea ff ff       	callq  4046fe <_ZNKSt16initializer_listIN10tensorflow6OutputEE5beginEv>
  405ce5:	48 89 c1             	mov    %rax,%rcx
  405ce8:	48 8b 45 d8          	mov    -0x28(%rbp),%rax
  405cec:	48 83 ec 08          	sub    $0x8,%rsp
  405cf0:	41 54                	push   %r12
  405cf2:	48 89 da             	mov    %rbx,%rdx
  405cf5:	48 89 ce             	mov    %rcx,%rsi
  405cf8:	48 89 c7             	mov    %rax,%rdi
  405cfb:	e8 36 0d 00 00       	callq  406a36 <_ZNSt6vectorIN10tensorflow6OutputESaIS1_EE19_M_range_initializeIPKS1_EEvT_S7_St20forward_iterator_tag>
  405d00:	48 83 c4 10          	add    $0x10,%rsp
  405d04:	90                   	nop
  405d05:	48 8b 45 e8          	mov    -0x18(%rbp),%rax
  405d09:	64 48 33 04 25 28 00 	xor    %fs:0x28,%rax
  405d10:	00 00 
  405d12:	74 21                	je     405d35 <_ZNSt6vectorIN10tensorflow6OutputESaIS1_EEC1ESt16initializer_listIS1_ERKS2_+0xb1>
  405d14:	eb 1a                	jmp    405d30 <_ZNSt6vectorIN10tensorflow6OutputESaIS1_EEC1ESt16initializer_listIS1_ERKS2_+0xac>
  405d16:	48 89 c3             	mov    %rax,%rbx
  405d19:	48 8b 45 d8          	mov    -0x28(%rbp),%rax
  405d1d:	48 89 c7             	mov    %rax,%rdi
  405d20:	e8 af 0c 00 00       	callq  4069d4 <_ZNSt12_Vector_baseIN10tensorflow6OutputESaIS1_EED1Ev>
  405d25:	48 89 d8             	mov    %rbx,%rax
  405d28:	48 89 c7             	mov    %rax,%rdi
  405d2b:	e8 a0 d0 ff ff       	callq  402dd0 <_Unwind_Resume@plt>
  405d30:	e8 0b ce ff ff       	callq  402b40 <__stack_chk_fail@plt>
  405d35:	48 8d 65 f0          	lea    -0x10(%rbp),%rsp
  405d39:	5b                   	pop    %rbx
  405d3a:	41 5c                	pop    %r12
  405d3c:	5d                   	pop    %rbp
  405d3d:	c3                   	retq   

0000000000405d3e <_ZNSt6vectorIN10tensorflow6OutputESaIS1_EED1Ev>:
  405d3e:	55                   	push   %rbp
  405d3f:	48 89 e5             	mov    %rsp,%rbp
  405d42:	48 83 ec 10          	sub    $0x10,%rsp
  405d46:	48 89 7d f8          	mov    %rdi,-0x8(%rbp)
  405d4a:	48 8b 45 f8          	mov    -0x8(%rbp),%rax
  405d4e:	48 89 c7             	mov    %rax,%rdi
  405d51:	e8 82 0d 00 00       	callq  406ad8 <_ZNSt12_Vector_baseIN10tensorflow6OutputESaIS1_EE19_M_get_Tp_allocatorEv>
  405d56:	48 89 c2             	mov    %rax,%rdx
  405d59:	48 8b 45 f8          	mov    -0x8(%rbp),%rax
  405d5d:	48 8b 48 08          	mov    0x8(%rax),%rcx
  405d61:	48 8b 45 f8          	mov    -0x8(%rbp),%rax
  405d65:	48 8b 00             	mov    (%rax),%rax
  405d68:	48 89 ce             	mov    %rcx,%rsi
  405d6b:	48 89 c7             	mov    %rax,%rdi
  405d6e:	e8 73 0d 00 00       	callq  406ae6 <_ZSt8_DestroyIPN10tensorflow6OutputES1_EvT_S3_RSaIT0_E>
  405d73:	48 8b 45 f8          	mov    -0x8(%rbp),%rax
  405d77:	48 89 c7             	mov    %rax,%rdi
  405d7a:	e8 55 0c 00 00       	callq  4069d4 <_ZNSt12_Vector_baseIN10tensorflow6OutputESaIS1_EED1Ev>
  405d7f:	90                   	nop
  405d80:	c9                   	leaveq 
  405d81:	c3                   	retq   

0000000000405d82 <_ZNSt6vectorIN10tensorflow9OperationESaIS1_EEC1Ev>:
  405d82:	55                   	push   %rbp
  405d83:	48 89 e5             	mov    %rsp,%rbp
  405d86:	48 83 ec 10          	sub    $0x10,%rsp
  405d8a:	48 89 7d f8          	mov    %rdi,-0x8(%rbp)
  405d8e:	48 8b 45 f8          	mov    -0x8(%rbp),%rax
  405d92:	48 89 c7             	mov    %rax,%rdi
  405d95:	e8 92 0d 00 00       	callq  406b2c <_ZNSt12_Vector_baseIN10tensorflow9OperationESaIS1_EEC1Ev>
  405d9a:	90                   	nop
  405d9b:	c9                   	leaveq 
  405d9c:	c3                   	retq   
  405d9d:	90                   	nop

0000000000405d9e <_ZNSt6vectorIN10tensorflow9OperationESaIS1_EED1Ev>:
  405d9e:	55                   	push   %rbp
  405d9f:	48 89 e5             	mov    %rsp,%rbp
  405da2:	48 83 ec 10          	sub    $0x10,%rsp
  405da6:	48 89 7d f8          	mov    %rdi,-0x8(%rbp)
  405daa:	48 8b 45 f8          	mov    -0x8(%rbp),%rax
  405dae:	48 89 c7             	mov    %rax,%rdi
  405db1:	e8 e2 0d 00 00       	callq  406b98 <_ZNSt12_Vector_baseIN10tensorflow9OperationESaIS1_EE19_M_get_Tp_allocatorEv>
  405db6:	48 89 c2             	mov    %rax,%rdx
  405db9:	48 8b 45 f8          	mov    -0x8(%rbp),%rax
  405dbd:	48 8b 48 08          	mov    0x8(%rax),%rcx
  405dc1:	48 8b 45 f8          	mov    -0x8(%rbp),%rax
  405dc5:	48 8b 00             	mov    (%rax),%rax
  405dc8:	48 89 ce             	mov    %rcx,%rsi
  405dcb:	48 89 c7             	mov    %rax,%rdi
  405dce:	e8 d3 0d 00 00       	callq  406ba6 <_ZSt8_DestroyIPN10tensorflow9OperationES1_EvT_S3_RSaIT0_E>
  405dd3:	48 8b 45 f8          	mov    -0x8(%rbp),%rax
  405dd7:	48 89 c7             	mov    %rax,%rdi
  405dda:	e8 69 0d 00 00       	callq  406b48 <_ZNSt12_Vector_baseIN10tensorflow9OperationESaIS1_EED1Ev>
  405ddf:	90                   	nop
  405de0:	c9                   	leaveq 
  405de1:	c3                   	retq   

0000000000405de2 <_ZNSt6vectorIN10tensorflow6TensorESaIS1_EEixEm>:
  405de2:	55                   	push   %rbp
  405de3:	48 89 e5             	mov    %rsp,%rbp
  405de6:	48 89 7d f8          	mov    %rdi,-0x8(%rbp)
  405dea:	48 89 75 f0          	mov    %rsi,-0x10(%rbp)
  405dee:	48 8b 45 f8          	mov    -0x8(%rbp),%rax
  405df2:	48 8b 00             	mov    (%rax),%rax
  405df5:	48 8b 55 f0          	mov    -0x10(%rbp),%rdx
  405df9:	48 c1 e2 05          	shl    $0x5,%rdx
  405dfd:	48 01 d0             	add    %rdx,%rax
  405e00:	5d                   	pop    %rbp
  405e01:	c3                   	retq   

0000000000405e02 <_ZN2CK21print_output_raw_dataIfEEvPT_RKNS_5ShapeE>:
  405e02:	55                   	push   %rbp
  405e03:	48 89 e5             	mov    %rsp,%rbp
  405e06:	48 83 ec 10          	sub    $0x10,%rsp
  405e0a:	48 89 7d f8          	mov    %rdi,-0x8(%rbp)
  405e0e:	48 89 75 f0          	mov    %rsi,-0x10(%rbp)
  405e12:	48 8b 75 f0          	mov    -0x10(%rbp),%rsi
  405e16:	48 8b 45 f8          	mov    -0x8(%rbp),%rax
  405e1a:	b9 ec 88 40 00       	mov    $0x4088ec,%ecx
  405e1f:	ba f3 88 40 00       	mov    $0x4088f3,%edx
  405e24:	48 89 c7             	mov    %rax,%rdi
  405e27:	e8 40 08 00 00       	callq  40666c <_ZN2CK12log_raw_dataIfEEvPT_RKNS_5ShapeEPKcS7_>
  405e2c:	90                   	nop
  405e2d:	c9                   	leaveq 
  405e2e:	c3                   	retq   

0000000000405e2f <_ZN2CK20dump_output_raw_dataIfEEvPT_RKNS_5ShapeE>:
  405e2f:	55                   	push   %rbp
  405e30:	48 89 e5             	mov    %rsp,%rbp
  405e33:	48 83 ec 20          	sub    $0x20,%rsp
  405e37:	48 89 7d e8          	mov    %rdi,-0x18(%rbp)
  405e3b:	48 89 75 e0          	mov    %rsi,-0x20(%rbp)
  405e3f:	bf 07 89 40 00       	mov    $0x408907,%edi
  405e44:	e8 47 ce ff ff       	callq  402c90 <getenv@plt>
  405e49:	48 89 45 f8          	mov    %rax,-0x8(%rbp)
  405e4d:	48 83 7d f8 00       	cmpq   $0x0,-0x8(%rbp)
  405e52:	0f 84 89 00 00 00    	je     405ee1 <_ZN2CK20dump_output_raw_dataIfEEvPT_RKNS_5ShapeE+0xb2>
  405e58:	48 8b 45 e0          	mov    -0x20(%rbp),%rax
  405e5c:	48 89 c7             	mov    %rax,%rdi
  405e5f:	e8 56 ea ff ff       	callq  4048ba <_ZNK2CK5Shape10data_countEv>
  405e64:	48 98                	cltq   
  405e66:	48 c1 e0 02          	shl    $0x2,%rax
  405e6a:	48 89 c2             	mov    %rax,%rdx
  405e6d:	48 8b 4d e8          	mov    -0x18(%rbp),%rcx
  405e71:	48 8b 45 f8          	mov    -0x8(%rbp),%rax
  405e75:	48 89 ce             	mov    %rcx,%rsi
  405e78:	48 89 c7             	mov    %rax,%rdi
  405e7b:	e8 90 ce ff ff       	callq  402d10 <xopenme_dump_memory@plt>
  405e80:	48 8b 45 e0          	mov    -0x20(%rbp),%rax
  405e84:	8b 00                	mov    (%rax),%eax
  405e86:	89 c2                	mov    %eax,%edx
  405e88:	be 17 89 40 00       	mov    $0x408917,%esi
  405e8d:	bf 00 00 00 00       	mov    $0x0,%edi
  405e92:	e8 09 eb ff ff       	callq  4049a0 <_ZN2CK13store_value_iEiPKci>
  405e97:	48 8b 45 e0          	mov    -0x20(%rbp),%rax
  405e9b:	8b 40 04             	mov    0x4(%rax),%eax
  405e9e:	89 c2                	mov    %eax,%edx
  405ea0:	be 23 89 40 00       	mov    $0x408923,%esi
  405ea5:	bf 01 00 00 00       	mov    $0x1,%edi
  405eaa:	e8 f1 ea ff ff       	callq  4049a0 <_ZN2CK13store_value_iEiPKci>
  405eaf:	48 8b 45 e0          	mov    -0x20(%rbp),%rax
  405eb3:	8b 40 08             	mov    0x8(%rax),%eax
  405eb6:	89 c2                	mov    %eax,%edx
  405eb8:	be 2f 89 40 00       	mov    $0x40892f,%esi
  405ebd:	bf 02 00 00 00       	mov    $0x2,%edi
  405ec2:	e8 d9 ea ff ff       	callq  4049a0 <_ZN2CK13store_value_iEiPKci>
  405ec7:	48 8b 45 e0          	mov    -0x20(%rbp),%rax
  405ecb:	8b 40 0c             	mov    0xc(%rax),%eax
  405ece:	89 c2                	mov    %eax,%edx
  405ed0:	be 3b 89 40 00       	mov    $0x40893b,%esi
  405ed5:	bf 03 00 00 00       	mov    $0x3,%edi
  405eda:	e8 c1 ea ff ff       	callq  4049a0 <_ZN2CK13store_value_iEiPKci>
  405edf:	eb 01                	jmp    405ee2 <_ZN2CK20dump_output_raw_dataIfEEvPT_RKNS_5ShapeE+0xb3>
  405ee1:	90                   	nop
  405ee2:	c9                   	leaveq 
  405ee3:	c3                   	retq   

0000000000405ee4 <_ZN5Eigen8internal8FixedIntILi1EEC1Ev>:
  405ee4:	55                   	push   %rbp
  405ee5:	48 89 e5             	mov    %rsp,%rbp
  405ee8:	48 89 7d f8          	mov    %rdi,-0x8(%rbp)
  405eec:	90                   	nop
  405eed:	5d                   	pop    %rbp
  405eee:	c3                   	retq   
  405eef:	90                   	nop

0000000000405ef0 <_ZNK5Eigen8Symbolic8BaseExprINS0_10SymbolExprINS_12placeholders8internal17symbolic_last_tagEEEE7derivedEv>:
  405ef0:	55                   	push   %rbp
  405ef1:	48 89 e5             	mov    %rsp,%rbp
  405ef4:	48 89 7d f8          	mov    %rdi,-0x8(%rbp)
  405ef8:	48 8b 45 f8          	mov    -0x8(%rbp),%rax
  405efc:	5d                   	pop    %rbp
  405efd:	c3                   	retq   

0000000000405efe <_ZN5Eigen8Symbolic9ValueExprINS_8internal8FixedIntILi1EEEEC1Ev>:
  405efe:	55                   	push   %rbp
  405eff:	48 89 e5             	mov    %rsp,%rbp
  405f02:	48 89 7d f8          	mov    %rdi,-0x8(%rbp)
  405f06:	90                   	nop
  405f07:	5d                   	pop    %rbp
  405f08:	c3                   	retq   
  405f09:	90                   	nop

0000000000405f0a <_ZN5Eigen8Symbolic8BaseExprINS0_7AddExprINS0_10SymbolExprINS_12placeholders8internal17symbolic_last_tagEEENS0_9ValueExprINS_8internal8FixedIntILi1EEEEEEEEC1Ev>:
  405f0a:	55                   	push   %rbp
  405f0b:	48 89 e5             	mov    %rsp,%rbp
  405f0e:	48 89 7d f8          	mov    %rdi,-0x8(%rbp)
  405f12:	90                   	nop
  405f13:	5d                   	pop    %rbp
  405f14:	c3                   	retq   
  405f15:	90                   	nop

0000000000405f16 <_ZN5Eigen8Symbolic7AddExprINS0_10SymbolExprINS_12placeholders8internal17symbolic_last_tagEEENS0_9ValueExprINS_8internal8FixedIntILi1EEEEEEC1ERKS6_RKSB_>:
  405f16:	55                   	push   %rbp
  405f17:	48 89 e5             	mov    %rsp,%rbp
  405f1a:	48 83 ec 20          	sub    $0x20,%rsp
  405f1e:	48 89 7d f8          	mov    %rdi,-0x8(%rbp)
  405f22:	48 89 75 f0          	mov    %rsi,-0x10(%rbp)
  405f26:	48 89 55 e8          	mov    %rdx,-0x18(%rbp)
  405f2a:	48 8b 45 f8          	mov    -0x8(%rbp),%rax
  405f2e:	48 89 c7             	mov    %rax,%rdi
  405f31:	e8 d4 ff ff ff       	callq  405f0a <_ZN5Eigen8Symbolic8BaseExprINS0_7AddExprINS0_10SymbolExprINS_12placeholders8internal17symbolic_last_tagEEENS0_9ValueExprINS_8internal8FixedIntILi1EEEEEEEEC1Ev>
  405f36:	90                   	nop
  405f37:	c9                   	leaveq 
  405f38:	c3                   	retq   

0000000000405f39 <_ZN10tensorflow8internal22MakeCheckOpValueStringImEEvPSoRKT_>:
  405f39:	55                   	push   %rbp
  405f3a:	48 89 e5             	mov    %rsp,%rbp
  405f3d:	48 83 ec 10          	sub    $0x10,%rsp
  405f41:	48 89 7d f8          	mov    %rdi,-0x8(%rbp)
  405f45:	48 89 75 f0          	mov    %rsi,-0x10(%rbp)
  405f49:	48 8b 45 f0          	mov    -0x10(%rbp),%rax
  405f4d:	48 8b 10             	mov    (%rax),%rdx
  405f50:	48 8b 45 f8          	mov    -0x8(%rbp),%rax
  405f54:	48 89 d6             	mov    %rdx,%rsi
  405f57:	48 89 c7             	mov    %rax,%rdi
  405f5a:	e8 c1 ce ff ff       	callq  402e20 <_ZNSolsEm@plt>
  405f5f:	90                   	nop
  405f60:	c9                   	leaveq 
  405f61:	c3                   	retq   

0000000000405f62 <_ZN10tensorflow8internal22MakeCheckOpValueStringIiEEvPSoRKT_>:
  405f62:	55                   	push   %rbp
  405f63:	48 89 e5             	mov    %rsp,%rbp
  405f66:	48 83 ec 10          	sub    $0x10,%rsp
  405f6a:	48 89 7d f8          	mov    %rdi,-0x8(%rbp)
  405f6e:	48 89 75 f0          	mov    %rsi,-0x10(%rbp)
  405f72:	48 8b 45 f0          	mov    -0x10(%rbp),%rax
  405f76:	8b 10                	mov    (%rax),%edx
  405f78:	48 8b 45 f8          	mov    -0x8(%rbp),%rax
  405f7c:	89 d6                	mov    %edx,%esi
  405f7e:	48 89 c7             	mov    %rax,%rdi
  405f81:	e8 ca cc ff ff       	callq  402c50 <_ZNSolsEi@plt>
  405f86:	90                   	nop
  405f87:	c9                   	leaveq 
  405f88:	c3                   	retq   

0000000000405f89 <_ZN10tensorflow8internal17MakeCheckOpStringImmEEPNSt7__cxx1112basic_stringIcSt11char_traitsIcESaIcEEERKT_RKT0_PKc>:
  405f89:	55                   	push   %rbp
  405f8a:	48 89 e5             	mov    %rsp,%rbp
  405f8d:	53                   	push   %rbx
  405f8e:	48 83 ec 38          	sub    $0x38,%rsp
  405f92:	48 89 7d d8          	mov    %rdi,-0x28(%rbp)
  405f96:	48 89 75 d0          	mov    %rsi,-0x30(%rbp)
  405f9a:	48 89 55 c8          	mov    %rdx,-0x38(%rbp)
  405f9e:	64 48 8b 04 25 28 00 	mov    %fs:0x28,%rax
  405fa5:	00 00 
  405fa7:	48 89 45 e8          	mov    %rax,-0x18(%rbp)
  405fab:	31 c0                	xor    %eax,%eax
  405fad:	48 8b 55 c8          	mov    -0x38(%rbp),%rdx
  405fb1:	48 8d 45 e0          	lea    -0x20(%rbp),%rax
  405fb5:	48 89 d6             	mov    %rdx,%rsi
  405fb8:	48 89 c7             	mov    %rax,%rdi
  405fbb:	e8 e0 cd ff ff       	callq  402da0 <_ZN10tensorflow8internal21CheckOpMessageBuilderC1EPKc@plt>
  405fc0:	48 8d 45 e0          	lea    -0x20(%rbp),%rax
  405fc4:	48 89 c7             	mov    %rax,%rdi
  405fc7:	e8 e2 dc ff ff       	callq  403cae <_ZN10tensorflow8internal21CheckOpMessageBuilder7ForVar1Ev>
  405fcc:	48 89 c2             	mov    %rax,%rdx
  405fcf:	48 8b 45 d8          	mov    -0x28(%rbp),%rax
  405fd3:	48 89 c6             	mov    %rax,%rsi
  405fd6:	48 89 d7             	mov    %rdx,%rdi
  405fd9:	e8 5b ff ff ff       	callq  405f39 <_ZN10tensorflow8internal22MakeCheckOpValueStringImEEvPSoRKT_>
  405fde:	48 8d 45 e0          	lea    -0x20(%rbp),%rax
  405fe2:	48 89 c7             	mov    %rax,%rdi
  405fe5:	e8 a6 ce ff ff       	callq  402e90 <_ZN10tensorflow8internal21CheckOpMessageBuilder7ForVar2Ev@plt>
  405fea:	48 89 c2             	mov    %rax,%rdx
  405fed:	48 8b 45 d0          	mov    -0x30(%rbp),%rax
  405ff1:	48 89 c6             	mov    %rax,%rsi
  405ff4:	48 89 d7             	mov    %rdx,%rdi
  405ff7:	e8 3d ff ff ff       	callq  405f39 <_ZN10tensorflow8internal22MakeCheckOpValueStringImEEvPSoRKT_>
  405ffc:	48 8d 45 e0          	lea    -0x20(%rbp),%rax
  406000:	48 89 c7             	mov    %rax,%rdi
  406003:	e8 d8 cd ff ff       	callq  402de0 <_ZN10tensorflow8internal21CheckOpMessageBuilder9NewStringB5cxx11Ev@plt>
  406008:	48 89 c3             	mov    %rax,%rbx
  40600b:	48 8d 45 e0          	lea    -0x20(%rbp),%rax
  40600f:	48 89 c7             	mov    %rax,%rdi
  406012:	e8 a9 cd ff ff       	callq  402dc0 <_ZN10tensorflow8internal21CheckOpMessageBuilderD1Ev@plt>
  406017:	48 89 d8             	mov    %rbx,%rax
  40601a:	48 8b 4d e8          	mov    -0x18(%rbp),%rcx
  40601e:	64 48 33 0c 25 28 00 	xor    %fs:0x28,%rcx
  406025:	00 00 
  406027:	74 21                	je     40604a <_ZN10tensorflow8internal17MakeCheckOpStringImmEEPNSt7__cxx1112basic_stringIcSt11char_traitsIcESaIcEEERKT_RKT0_PKc+0xc1>
  406029:	eb 1a                	jmp    406045 <_ZN10tensorflow8internal17MakeCheckOpStringImmEEPNSt7__cxx1112basic_stringIcSt11char_traitsIcESaIcEEERKT_RKT0_PKc+0xbc>
  40602b:	48 89 c3             	mov    %rax,%rbx
  40602e:	48 8d 45 e0          	lea    -0x20(%rbp),%rax
  406032:	48 89 c7             	mov    %rax,%rdi
  406035:	e8 86 cd ff ff       	callq  402dc0 <_ZN10tensorflow8internal21CheckOpMessageBuilderD1Ev@plt>
  40603a:	48 89 d8             	mov    %rbx,%rax
  40603d:	48 89 c7             	mov    %rax,%rdi
  406040:	e8 8b cd ff ff       	callq  402dd0 <_Unwind_Resume@plt>
  406045:	e8 f6 ca ff ff       	callq  402b40 <__stack_chk_fail@plt>
  40604a:	48 83 c4 38          	add    $0x38,%rsp
  40604e:	5b                   	pop    %rbx
  40604f:	5d                   	pop    %rbp
  406050:	c3                   	retq   

0000000000406051 <_ZNSt10_Head_baseILm1ESt14default_deleteIN10tensorflow6Status5StateEELb1EE7_M_headERS5_>:
  406051:	55                   	push   %rbp
  406052:	48 89 e5             	mov    %rsp,%rbp
  406055:	48 89 7d f8          	mov    %rdi,-0x8(%rbp)
  406059:	48 8b 45 f8          	mov    -0x8(%rbp),%rax
  40605d:	5d                   	pop    %rbp
  40605e:	c3                   	retq   

000000000040605f <_ZNSt11_Tuple_implILm1EJSt14default_deleteIN10tensorflow6Status5StateEEEE7_M_headERS5_>:
  40605f:	55                   	push   %rbp
  406060:	48 89 e5             	mov    %rsp,%rbp
  406063:	48 83 ec 10          	sub    $0x10,%rsp
  406067:	48 89 7d f8          	mov    %rdi,-0x8(%rbp)
  40606b:	48 8b 45 f8          	mov    -0x8(%rbp),%rax
  40606f:	48 89 c7             	mov    %rax,%rdi
  406072:	e8 da ff ff ff       	callq  406051 <_ZNSt10_Head_baseILm1ESt14default_deleteIN10tensorflow6Status5StateEELb1EE7_M_headERS5_>
  406077:	c9                   	leaveq 
  406078:	c3                   	retq   

0000000000406079 <_ZSt12__get_helperILm1ESt14default_deleteIN10tensorflow6Status5StateEEJEERT0_RSt11_Tuple_implIXT_EJS5_DpT1_EE>:
  406079:	55                   	push   %rbp
  40607a:	48 89 e5             	mov    %rsp,%rbp
  40607d:	48 83 ec 10          	sub    $0x10,%rsp
  406081:	48 89 7d f8          	mov    %rdi,-0x8(%rbp)
  406085:	48 8b 45 f8          	mov    -0x8(%rbp),%rax
  406089:	48 89 c7             	mov    %rax,%rdi
  40608c:	e8 ce ff ff ff       	callq  40605f <_ZNSt11_Tuple_implILm1EJSt14default_deleteIN10tensorflow6Status5StateEEEE7_M_headERS5_>
  406091:	c9                   	leaveq 
  406092:	c3                   	retq   

0000000000406093 <_ZSt3getILm1EJPN10tensorflow6Status5StateESt14default_deleteIS2_EEERNSt13tuple_elementIXT_ESt5tupleIJDpT0_EEE4typeERSA_>:
  406093:	55                   	push   %rbp
  406094:	48 89 e5             	mov    %rsp,%rbp
  406097:	48 83 ec 10          	sub    $0x10,%rsp
  40609b:	48 89 7d f8          	mov    %rdi,-0x8(%rbp)
  40609f:	48 8b 45 f8          	mov    -0x8(%rbp),%rax
  4060a3:	48 89 c7             	mov    %rax,%rdi
  4060a6:	e8 ce ff ff ff       	callq  406079 <_ZSt12__get_helperILm1ESt14default_deleteIN10tensorflow6Status5StateEEJEERT0_RSt11_Tuple_implIXT_EJS5_DpT1_EE>
  4060ab:	c9                   	leaveq 
  4060ac:	c3                   	retq   
  4060ad:	90                   	nop

00000000004060ae <_ZNSt10unique_ptrIN10tensorflow6Status5StateESt14default_deleteIS2_EE11get_deleterEv>:
  4060ae:	55                   	push   %rbp
  4060af:	48 89 e5             	mov    %rsp,%rbp
  4060b2:	48 83 ec 10          	sub    $0x10,%rsp
  4060b6:	48 89 7d f8          	mov    %rdi,-0x8(%rbp)
  4060ba:	48 8b 45 f8          	mov    -0x8(%rbp),%rax
  4060be:	48 89 c7             	mov    %rax,%rdi
  4060c1:	e8 cd ff ff ff       	callq  406093 <_ZSt3getILm1EJPN10tensorflow6Status5StateESt14default_deleteIS2_EEERNSt13tuple_elementIXT_ESt5tupleIJDpT0_EEE4typeERSA_>
  4060c6:	c9                   	leaveq 
  4060c7:	c3                   	retq   

00000000004060c8 <_ZN10tensorflow6Status5StateD1Ev>:
  4060c8:	55                   	push   %rbp
  4060c9:	48 89 e5             	mov    %rsp,%rbp
  4060cc:	48 83 ec 10          	sub    $0x10,%rsp
  4060d0:	48 89 7d f8          	mov    %rdi,-0x8(%rbp)
  4060d4:	48 8b 45 f8          	mov    -0x8(%rbp),%rax
  4060d8:	48 83 c0 08          	add    $0x8,%rax
  4060dc:	48 89 c7             	mov    %rax,%rdi
  4060df:	e8 9c cb ff ff       	callq  402c80 <_ZNSt7__cxx1112basic_stringIcSt11char_traitsIcESaIcEED1Ev@plt>
  4060e4:	90                   	nop
  4060e5:	c9                   	leaveq 
  4060e6:	c3                   	retq   
  4060e7:	90                   	nop

00000000004060e8 <_ZNKSt14default_deleteIN10tensorflow6Status5StateEEclEPS2_>:
  4060e8:	55                   	push   %rbp
  4060e9:	48 89 e5             	mov    %rsp,%rbp
  4060ec:	53                   	push   %rbx
