
conv:     file format elf64-x86-64


Disassembly of section .init:

0000000000402da8 <_init>:
  402da8:	48 83 ec 08          	sub    $0x8,%rsp
  402dac:	48 8b 05 45 c2 20 00 	mov    0x20c245(%rip),%rax        # 60eff8 <_DYNAMIC+0x210>
  402db3:	48 85 c0             	test   %rax,%rax
  402db6:	74 05                	je     402dbd <_init+0x15>
  402db8:	e8 83 05 00 00       	callq  403340 <_ZNSaIcED1Ev@plt+0x10>
  402dbd:	48 83 c4 08          	add    $0x8,%rsp
  402dc1:	c3                   	retq   

Disassembly of section .plt:

0000000000402dd0 <_ZNSt7__cxx1112basic_stringIcSt11char_traitsIcESaIcEEC1ERKS4_@plt-0x10>:
  402dd0:	ff 35 32 c2 20 00    	pushq  0x20c232(%rip)        # 60f008 <_GLOBAL_OFFSET_TABLE_+0x8>
  402dd6:	ff 25 34 c2 20 00    	jmpq   *0x20c234(%rip)        # 60f010 <_GLOBAL_OFFSET_TABLE_+0x10>
  402ddc:	0f 1f 40 00          	nopl   0x0(%rax)

0000000000402de0 <_ZNSt7__cxx1112basic_stringIcSt11char_traitsIcESaIcEEC1ERKS4_@plt>:
  402de0:	ff 25 32 c2 20 00    	jmpq   *0x20c232(%rip)        # 60f018 <_GLOBAL_OFFSET_TABLE_+0x18>
  402de6:	68 00 00 00 00       	pushq  $0x0
  402deb:	e9 e0 ff ff ff       	jmpq   402dd0 <_init+0x28>

0000000000402df0 <_ZN10tensorflow10RunOptionsD1Ev@plt>:
  402df0:	ff 25 2a c2 20 00    	jmpq   *0x20c22a(%rip)        # 60f020 <_GLOBAL_OFFSET_TABLE_+0x20>
  402df6:	68 01 00 00 00       	pushq  $0x1
  402dfb:	e9 d0 ff ff ff       	jmpq   402dd0 <_init+0x28>

0000000000402e00 <_ZN10tensorflow8internal15LogMessageFatalC1EPKci@plt>:
  402e00:	ff 25 22 c2 20 00    	jmpq   *0x20c222(%rip)        # 60f028 <_GLOBAL_OFFSET_TABLE_+0x28>
  402e06:	68 02 00 00 00       	pushq  $0x2
  402e0b:	e9 c0 ff ff ff       	jmpq   402dd0 <_init+0x28>

0000000000402e10 <__assert_fail@plt>:
  402e10:	ff 25 1a c2 20 00    	jmpq   *0x20c21a(%rip)        # 60f030 <_GLOBAL_OFFSET_TABLE_+0x30>
  402e16:	68 03 00 00 00       	pushq  $0x3
  402e1b:	e9 b0 ff ff ff       	jmpq   402dd0 <_init+0x28>

0000000000402e20 <__stack_chk_fail@plt>:
  402e20:	ff 25 12 c2 20 00    	jmpq   *0x20c212(%rip)        # 60f038 <_GLOBAL_OFFSET_TABLE_+0x38>
  402e26:	68 04 00 00 00       	pushq  $0x4
  402e2b:	e9 a0 ff ff ff       	jmpq   402dd0 <_init+0x28>

0000000000402e30 <memset@plt>:
  402e30:	ff 25 0a c2 20 00    	jmpq   *0x20c20a(%rip)        # 60f040 <_GLOBAL_OFFSET_TABLE_+0x40>
  402e36:	68 05 00 00 00       	pushq  $0x5
  402e3b:	e9 90 ff ff ff       	jmpq   402dd0 <_init+0x28>

0000000000402e40 <clock_gettime@plt>:
  402e40:	ff 25 02 c2 20 00    	jmpq   *0x20c202(%rip)        # 60f048 <_GLOBAL_OFFSET_TABLE_+0x48>
  402e46:	68 06 00 00 00       	pushq  $0x6
  402e4b:	e9 80 ff ff ff       	jmpq   402dd0 <_init+0x28>

0000000000402e50 <_ZdlPv@plt>:
  402e50:	ff 25 fa c1 20 00    	jmpq   *0x20c1fa(%rip)        # 60f050 <_GLOBAL_OFFSET_TABLE_+0x50>
  402e56:	68 07 00 00 00       	pushq  $0x7
  402e5b:	e9 70 ff ff ff       	jmpq   402dd0 <_init+0x28>

0000000000402e60 <xopenme_clock_start@plt>:
  402e60:	ff 25 f2 c1 20 00    	jmpq   *0x20c1f2(%rip)        # 60f058 <_GLOBAL_OFFSET_TABLE_+0x58>
  402e66:	68 08 00 00 00       	pushq  $0x8
  402e6b:	e9 60 ff ff ff       	jmpq   402dd0 <_init+0x28>

0000000000402e70 <_ZN10tensorflow15TensorShapeBaseINS_11TensorShapeEEC2ESt16initializer_listIxE@plt>:
  402e70:	ff 25 ea c1 20 00    	jmpq   *0x20c1ea(%rip)        # 60f060 <_GLOBAL_OFFSET_TABLE_+0x60>
  402e76:	68 09 00 00 00       	pushq  $0x9
  402e7b:	e9 50 ff ff ff       	jmpq   402dd0 <_init+0x28>

0000000000402e80 <_ZN10tensorflow11RunMetadataD1Ev@plt>:
  402e80:	ff 25 e2 c1 20 00    	jmpq   *0x20c1e2(%rip)        # 60f068 <_GLOBAL_OFFSET_TABLE_+0x68>
  402e86:	68 0a 00 00 00       	pushq  $0xa
  402e8b:	e9 40 ff ff ff       	jmpq   402dd0 <_init+0x28>

0000000000402e90 <_ZN10tensorflow6TensorD1Ev@plt>:
  402e90:	ff 25 da c1 20 00    	jmpq   *0x20c1da(%rip)        # 60f070 <_GLOBAL_OFFSET_TABLE_+0x70>
  402e96:	68 0b 00 00 00       	pushq  $0xb
  402e9b:	e9 30 ff ff ff       	jmpq   402dd0 <_init+0x28>

0000000000402ea0 <__cxa_atexit@plt>:
  402ea0:	ff 25 d2 c1 20 00    	jmpq   *0x20c1d2(%rip)        # 60f078 <_GLOBAL_OFFSET_TABLE_+0x78>
  402ea6:	68 0c 00 00 00       	pushq  $0xc
  402eab:	e9 20 ff ff ff       	jmpq   402dd0 <_init+0x28>

0000000000402eb0 <_ZSt4endlIcSt11char_traitsIcEERSt13basic_ostreamIT_T0_ES6_@plt>:
  402eb0:	ff 25 ca c1 20 00    	jmpq   *0x20c1ca(%rip)        # 60f080 <_GLOBAL_OFFSET_TABLE_+0x80>
  402eb6:	68 0d 00 00 00       	pushq  $0xd
  402ebb:	e9 10 ff ff ff       	jmpq   402dd0 <_init+0x28>

0000000000402ec0 <_ZNSaIcEC1Ev@plt>:
  402ec0:	ff 25 c2 c1 20 00    	jmpq   *0x20c1c2(%rip)        # 60f088 <_GLOBAL_OFFSET_TABLE_+0x88>
  402ec6:	68 0e 00 00 00       	pushq  $0xe
  402ecb:	e9 00 ff ff ff       	jmpq   402dd0 <_init+0x28>

0000000000402ed0 <sprintf@plt>:
  402ed0:	ff 25 ba c1 20 00    	jmpq   *0x20c1ba(%rip)        # 60f090 <_GLOBAL_OFFSET_TABLE_+0x90>
  402ed6:	68 0f 00 00 00       	pushq  $0xf
  402edb:	e9 f0 fe ff ff       	jmpq   402dd0 <_init+0x28>

0000000000402ee0 <_ZN10tensorflow6TensorC1ENS_8DataTypeERKNS_11TensorShapeE@plt>:
  402ee0:	ff 25 b2 c1 20 00    	jmpq   *0x20c1b2(%rip)        # 60f098 <_GLOBAL_OFFSET_TABLE_+0x98>
  402ee6:	68 10 00 00 00       	pushq  $0x10
  402eeb:	e9 e0 fe ff ff       	jmpq   402dd0 <_init+0x28>

0000000000402ef0 <putchar@plt>:
  402ef0:	ff 25 aa c1 20 00    	jmpq   *0x20c1aa(%rip)        # 60f0a0 <_GLOBAL_OFFSET_TABLE_+0xa0>
  402ef6:	68 11 00 00 00       	pushq  $0x11
  402efb:	e9 d0 fe ff ff       	jmpq   402dd0 <_init+0x28>

0000000000402f00 <_ZN10tensorflow6TensorC1Ev@plt>:
  402f00:	ff 25 a2 c1 20 00    	jmpq   *0x20c1a2(%rip)        # 60f0a8 <_GLOBAL_OFFSET_TABLE_+0xa8>
  402f06:	68 12 00 00 00       	pushq  $0x12
  402f0b:	e9 c0 fe ff ff       	jmpq   402dd0 <_init+0x28>

0000000000402f10 <printf@plt>:
  402f10:	ff 25 9a c1 20 00    	jmpq   *0x20c19a(%rip)        # 60f0b0 <_GLOBAL_OFFSET_TABLE_+0xb0>
  402f16:	68 13 00 00 00       	pushq  $0x13
  402f1b:	e9 b0 fe ff ff       	jmpq   402dd0 <_init+0x28>

0000000000402f20 <_ZN10tensorflow14TensorShapeRep19DestructorOutOfLineEv@plt>:
  402f20:	ff 25 92 c1 20 00    	jmpq   *0x20c192(%rip)        # 60f0b8 <_GLOBAL_OFFSET_TABLE_+0xb8>
  402f26:	68 14 00 00 00       	pushq  $0x14
  402f2b:	e9 a0 fe ff ff       	jmpq   402dd0 <_init+0x28>

0000000000402f30 <_ZStlsIcSt11char_traitsIcESaIcEERSt13basic_ostreamIT_T0_ES7_RKNSt7__cxx1112basic_stringIS4_S5_T1_EE@plt>:
  402f30:	ff 25 8a c1 20 00    	jmpq   *0x20c18a(%rip)        # 60f0c0 <_GLOBAL_OFFSET_TABLE_+0xc0>
  402f36:	68 15 00 00 00       	pushq  $0x15
  402f3b:	e9 90 fe ff ff       	jmpq   402dd0 <_init+0x28>

0000000000402f40 <_ZNSolsEi@plt>:
  402f40:	ff 25 82 c1 20 00    	jmpq   *0x20c182(%rip)        # 60f0c8 <_GLOBAL_OFFSET_TABLE_+0xc8>
  402f46:	68 16 00 00 00       	pushq  $0x16
  402f4b:	e9 80 fe ff ff       	jmpq   402dd0 <_init+0x28>

0000000000402f50 <__gxx_personality_v0@plt>:
  402f50:	ff 25 7a c1 20 00    	jmpq   *0x20c17a(%rip)        # 60f0d0 <_GLOBAL_OFFSET_TABLE_+0xd0>
  402f56:	68 17 00 00 00       	pushq  $0x17
  402f5b:	e9 70 fe ff ff       	jmpq   402dd0 <_init+0x28>

0000000000402f60 <_ZN10tensorflow5ScopeD1Ev@plt>:
  402f60:	ff 25 72 c1 20 00    	jmpq   *0x20c172(%rip)        # 60f0d8 <_GLOBAL_OFFSET_TABLE_+0xd8>
  402f66:	68 18 00 00 00       	pushq  $0x18
  402f6b:	e9 60 fe ff ff       	jmpq   402dd0 <_init+0x28>

0000000000402f70 <_ZNSt7__cxx1112basic_stringIcSt11char_traitsIcESaIcEED1Ev@plt>:
  402f70:	ff 25 6a c1 20 00    	jmpq   *0x20c16a(%rip)        # 60f0e0 <_GLOBAL_OFFSET_TABLE_+0xe0>
  402f76:	68 19 00 00 00       	pushq  $0x19
  402f7b:	e9 50 fe ff ff       	jmpq   402dd0 <_init+0x28>

0000000000402f80 <getenv@plt>:
  402f80:	ff 25 62 c1 20 00    	jmpq   *0x20c162(%rip)        # 60f0e8 <_GLOBAL_OFFSET_TABLE_+0xe8>
  402f86:	68 1a 00 00 00       	pushq  $0x1a
  402f8b:	e9 40 fe ff ff       	jmpq   402dd0 <_init+0x28>

0000000000402f90 <_ZN10tensorflow3ops6Conv2DC1ERKNS_5ScopeENS_5InputES5_RKNS_3gtl10ArraySliceIiEENS_11StringPieceE@plt>:
  402f90:	ff 25 5a c1 20 00    	jmpq   *0x20c15a(%rip)        # 60f0f0 <_GLOBAL_OFFSET_TABLE_+0xf0>
  402f96:	68 1b 00 00 00       	pushq  $0x1b
  402f9b:	e9 30 fe ff ff       	jmpq   402dd0 <_init+0x28>

0000000000402fa0 <_ZN10tensorflow14StatSummarizerD1Ev@plt>:
  402fa0:	ff 25 52 c1 20 00    	jmpq   *0x20c152(%rip)        # 60f0f8 <_GLOBAL_OFFSET_TABLE_+0xf8>
  402fa6:	68 1c 00 00 00       	pushq  $0x1c
  402fab:	e9 20 fe ff ff       	jmpq   402dd0 <_init+0x28>

0000000000402fb0 <_ZN10tensorflow8internal15LogMessageFatalD1Ev@plt>:
  402fb0:	ff 25 4a c1 20 00    	jmpq   *0x20c14a(%rip)        # 60f100 <_GLOBAL_OFFSET_TABLE_+0x100>
  402fb6:	68 1d 00 00 00       	pushq  $0x1d
  402fbb:	e9 10 fe ff ff       	jmpq   402dd0 <_init+0x28>

0000000000402fc0 <__libc_start_main@plt>:
  402fc0:	ff 25 42 c1 20 00    	jmpq   *0x20c142(%rip)        # 60f108 <_GLOBAL_OFFSET_TABLE_+0x108>
  402fc6:	68 1e 00 00 00       	pushq  $0x1e
  402fcb:	e9 00 fe ff ff       	jmpq   402dd0 <_init+0x28>

0000000000402fd0 <puts@plt>:
  402fd0:	ff 25 3a c1 20 00    	jmpq   *0x20c13a(%rip)        # 60f110 <_GLOBAL_OFFSET_TABLE_+0x110>
  402fd6:	68 1f 00 00 00       	pushq  $0x1f
  402fdb:	e9 f0 fd ff ff       	jmpq   402dd0 <_init+0x28>

0000000000402fe0 <_ZNSolsEPFRSoS_E@plt>:
  402fe0:	ff 25 32 c1 20 00    	jmpq   *0x20c132(%rip)        # 60f118 <_GLOBAL_OFFSET_TABLE_+0x118>
  402fe6:	68 20 00 00 00       	pushq  $0x20
  402feb:	e9 e0 fd ff ff       	jmpq   402dd0 <_init+0x28>

0000000000402ff0 <_ZN10tensorflow5Scope12NewRootScopeEv@plt>:
  402ff0:	ff 25 2a c1 20 00    	jmpq   *0x20c12a(%rip)        # 60f120 <_GLOBAL_OFFSET_TABLE_+0x120>
  402ff6:	68 21 00 00 00       	pushq  $0x21
  402ffb:	e9 d0 fd ff ff       	jmpq   402dd0 <_init+0x28>

0000000000403000 <srand@plt>:
  403000:	ff 25 22 c1 20 00    	jmpq   *0x20c122(%rip)        # 60f128 <_GLOBAL_OFFSET_TABLE_+0x128>
  403006:	68 22 00 00 00       	pushq  $0x22
  40300b:	e9 c0 fd ff ff       	jmpq   402dd0 <_init+0x28>

0000000000403010 <xopenme_finish@plt>:
  403010:	ff 25 1a c1 20 00    	jmpq   *0x20c11a(%rip)        # 60f130 <_GLOBAL_OFFSET_TABLE_+0x130>
  403016:	68 23 00 00 00       	pushq  $0x23
  40301b:	e9 b0 fd ff ff       	jmpq   402dd0 <_init+0x28>

0000000000403020 <xopenme_dump_memory@plt>:
  403020:	ff 25 12 c1 20 00    	jmpq   *0x20c112(%rip)        # 60f138 <_GLOBAL_OFFSET_TABLE_+0x138>
  403026:	68 24 00 00 00       	pushq  $0x24
  40302b:	e9 a0 fd ff ff       	jmpq   402dd0 <_init+0x28>

0000000000403030 <_ZNKSt7__cxx1112basic_stringIcSt11char_traitsIcESaIcEE4findEPKcm@plt>:
  403030:	ff 25 0a c1 20 00    	jmpq   *0x20c10a(%rip)        # 60f140 <_GLOBAL_OFFSET_TABLE_+0x140>
  403036:	68 25 00 00 00       	pushq  $0x25
  40303b:	e9 90 fd ff ff       	jmpq   402dd0 <_init+0x28>

0000000000403040 <xopenme_init@plt>:
  403040:	ff 25 02 c1 20 00    	jmpq   *0x20c102(%rip)        # 60f148 <_GLOBAL_OFFSET_TABLE_+0x148>
  403046:	68 26 00 00 00       	pushq  $0x26
  40304b:	e9 80 fd ff ff       	jmpq   402dd0 <_init+0x28>

0000000000403050 <__cxa_begin_catch@plt>:
  403050:	ff 25 fa c0 20 00    	jmpq   *0x20c0fa(%rip)        # 60f150 <_GLOBAL_OFFSET_TABLE_+0x150>
  403056:	68 27 00 00 00       	pushq  $0x27
  40305b:	e9 70 fd ff ff       	jmpq   402dd0 <_init+0x28>

0000000000403060 <memmove@plt>:
  403060:	ff 25 f2 c0 20 00    	jmpq   *0x20c0f2(%rip)        # 60f158 <_GLOBAL_OFFSET_TABLE_+0x158>
  403066:	68 28 00 00 00       	pushq  $0x28
  40306b:	e9 60 fd ff ff       	jmpq   402dd0 <_init+0x28>

0000000000403070 <atoi@plt>:
  403070:	ff 25 ea c0 20 00    	jmpq   *0x20c0ea(%rip)        # 60f160 <_GLOBAL_OFFSET_TABLE_+0x160>
  403076:	68 29 00 00 00       	pushq  $0x29
  40307b:	e9 50 fd ff ff       	jmpq   402dd0 <_init+0x28>

0000000000403080 <_ZdaPv@plt>:
  403080:	ff 25 e2 c0 20 00    	jmpq   *0x20c0e2(%rip)        # 60f168 <_GLOBAL_OFFSET_TABLE_+0x168>
  403086:	68 2a 00 00 00       	pushq  $0x2a
  40308b:	e9 40 fd ff ff       	jmpq   402dd0 <_init+0x28>

0000000000403090 <_ZNSolsEl@plt>:
  403090:	ff 25 da c0 20 00    	jmpq   *0x20c0da(%rip)        # 60f170 <_GLOBAL_OFFSET_TABLE_+0x170>
  403096:	68 2b 00 00 00       	pushq  $0x2b
  40309b:	e9 30 fd ff ff       	jmpq   402dd0 <_init+0x28>

00000000004030a0 <strlen@plt>:
  4030a0:	ff 25 d2 c0 20 00    	jmpq   *0x20c0d2(%rip)        # 60f178 <_GLOBAL_OFFSET_TABLE_+0x178>
  4030a6:	68 2c 00 00 00       	pushq  $0x2c
  4030ab:	e9 20 fd ff ff       	jmpq   402dd0 <_init+0x28>

00000000004030b0 <xopenme_add_var_i@plt>:
  4030b0:	ff 25 ca c0 20 00    	jmpq   *0x20c0ca(%rip)        # 60f180 <_GLOBAL_OFFSET_TABLE_+0x180>
  4030b6:	68 2d 00 00 00       	pushq  $0x2d
  4030bb:	e9 10 fd ff ff       	jmpq   402dd0 <_init+0x28>

00000000004030c0 <_ZN10tensorflow8internal21CheckOpMessageBuilderC1EPKc@plt>:
  4030c0:	ff 25 c2 c0 20 00    	jmpq   *0x20c0c2(%rip)        # 60f188 <_GLOBAL_OFFSET_TABLE_+0x188>
  4030c6:	68 2e 00 00 00       	pushq  $0x2e
  4030cb:	e9 00 fd ff ff       	jmpq   402dd0 <_init+0x28>

00000000004030d0 <_ZNSolsEx@plt>:
  4030d0:	ff 25 ba c0 20 00    	jmpq   *0x20c0ba(%rip)        # 60f190 <_GLOBAL_OFFSET_TABLE_+0x190>
  4030d6:	68 2f 00 00 00       	pushq  $0x2f
  4030db:	e9 f0 fc ff ff       	jmpq   402dd0 <_init+0x28>

00000000004030e0 <_ZN10tensorflow8internal21CheckOpMessageBuilderD1Ev@plt>:
  4030e0:	ff 25 b2 c0 20 00    	jmpq   *0x20c0b2(%rip)        # 60f198 <_GLOBAL_OFFSET_TABLE_+0x198>
  4030e6:	68 30 00 00 00       	pushq  $0x30
  4030eb:	e9 e0 fc ff ff       	jmpq   402dd0 <_init+0x28>

00000000004030f0 <_ZN10tensorflow3ops7BiasAddC1ERKNS_5ScopeENS_5InputES5_@plt>:
  4030f0:	ff 25 aa c0 20 00    	jmpq   *0x20c0aa(%rip)        # 60f1a0 <_GLOBAL_OFFSET_TABLE_+0x1a0>
  4030f6:	68 31 00 00 00       	pushq  $0x31
  4030fb:	e9 d0 fc ff ff       	jmpq   402dd0 <_init+0x28>

0000000000403100 <_Unwind_Resume@plt>:
  403100:	ff 25 a2 c0 20 00    	jmpq   *0x20c0a2(%rip)        # 60f1a8 <_GLOBAL_OFFSET_TABLE_+0x1a8>
  403106:	68 32 00 00 00       	pushq  $0x32
  40310b:	e9 c0 fc ff ff       	jmpq   402dd0 <_init+0x28>

0000000000403110 <_ZN10tensorflow8internal21CheckOpMessageBuilder9NewStringB5cxx11Ev@plt>:
  403110:	ff 25 9a c0 20 00    	jmpq   *0x20c09a(%rip)        # 60f1b0 <_GLOBAL_OFFSET_TABLE_+0x1b0>
  403116:	68 33 00 00 00       	pushq  $0x33
  40311b:	e9 b0 fc ff ff       	jmpq   402dd0 <_init+0x28>

0000000000403120 <_ZNK10tensorflow6Tensor21CheckTypeAndIsAlignedENS_8DataTypeE@plt>:
  403120:	ff 25 92 c0 20 00    	jmpq   *0x20c092(%rip)        # 60f1b8 <_GLOBAL_OFFSET_TABLE_+0x1b8>
  403126:	68 34 00 00 00       	pushq  $0x34
  40312b:	e9 a0 fc ff ff       	jmpq   402dd0 <_init+0x28>

0000000000403130 <_ZNSt7__cxx1112basic_stringIcSt11char_traitsIcESaIcEEC1EPKcRKS3_@plt>:
  403130:	ff 25 8a c0 20 00    	jmpq   *0x20c08a(%rip)        # 60f1c0 <_GLOBAL_OFFSET_TABLE_+0x1c0>
  403136:	68 35 00 00 00       	pushq  $0x35
  40313b:	e9 90 fc ff ff       	jmpq   402dd0 <_init+0x28>

0000000000403140 <_ZN10tensorflow11RunMetadataC1Ev@plt>:
  403140:	ff 25 82 c0 20 00    	jmpq   *0x20c082(%rip)        # 60f1c8 <_GLOBAL_OFFSET_TABLE_+0x1c8>
  403146:	68 36 00 00 00       	pushq  $0x36
  40314b:	e9 80 fc ff ff       	jmpq   402dd0 <_init+0x28>

0000000000403150 <_ZN10tensorflow14TensorShapeRep12SlowCopyFromERKS0_@plt>:
  403150:	ff 25 7a c0 20 00    	jmpq   *0x20c07a(%rip)        # 60f1d0 <_GLOBAL_OFFSET_TABLE_+0x1d0>
  403156:	68 37 00 00 00       	pushq  $0x37
  40315b:	e9 70 fc ff ff       	jmpq   402dd0 <_init+0x28>

0000000000403160 <_ZNSolsEm@plt>:
  403160:	ff 25 72 c0 20 00    	jmpq   *0x20c072(%rip)        # 60f1d8 <_GLOBAL_OFFSET_TABLE_+0x1d8>
  403166:	68 38 00 00 00       	pushq  $0x38
  40316b:	e9 60 fc ff ff       	jmpq   402dd0 <_init+0x28>

0000000000403170 <random@plt>:
  403170:	ff 25 6a c0 20 00    	jmpq   *0x20c06a(%rip)        # 60f1e0 <_GLOBAL_OFFSET_TABLE_+0x1e0>
  403176:	68 39 00 00 00       	pushq  $0x39
  40317b:	e9 50 fc ff ff       	jmpq   402dd0 <_init+0x28>

0000000000403180 <xopenme_dump_state@plt>:
  403180:	ff 25 62 c0 20 00    	jmpq   *0x20c062(%rip)        # 60f1e8 <_GLOBAL_OFFSET_TABLE_+0x1e8>
  403186:	68 3a 00 00 00       	pushq  $0x3a
  40318b:	e9 40 fc ff ff       	jmpq   402dd0 <_init+0x28>

0000000000403190 <_ZN10tensorflow9OperationC1EPNS_4NodeE@plt>:
  403190:	ff 25 5a c0 20 00    	jmpq   *0x20c05a(%rip)        # 60f1f0 <_GLOBAL_OFFSET_TABLE_+0x1f0>
  403196:	68 3b 00 00 00       	pushq  $0x3b
  40319b:	e9 30 fc ff ff       	jmpq   402dd0 <_init+0x28>

00000000004031a0 <xopenme_add_var_f@plt>:
  4031a0:	ff 25 52 c0 20 00    	jmpq   *0x20c052(%rip)        # 60f1f8 <_GLOBAL_OFFSET_TABLE_+0x1f8>
  4031a6:	68 3c 00 00 00       	pushq  $0x3c
  4031ab:	e9 20 fc ff ff       	jmpq   402dd0 <_init+0x28>

00000000004031b0 <_ZSt17__throw_bad_allocv@plt>:
  4031b0:	ff 25 4a c0 20 00    	jmpq   *0x20c04a(%rip)        # 60f200 <_GLOBAL_OFFSET_TABLE_+0x200>
  4031b6:	68 3d 00 00 00       	pushq  $0x3d
  4031bb:	e9 10 fc ff ff       	jmpq   402dd0 <_init+0x28>

00000000004031c0 <memcpy@plt>:
  4031c0:	ff 25 42 c0 20 00    	jmpq   *0x20c042(%rip)        # 60f208 <_GLOBAL_OFFSET_TABLE_+0x208>
  4031c6:	68 3e 00 00 00       	pushq  $0x3e
  4031cb:	e9 00 fc ff ff       	jmpq   402dd0 <_init+0x28>

00000000004031d0 <_ZN10tensorflow8internal21CheckOpMessageBuilder7ForVar2Ev@plt>:
  4031d0:	ff 25 3a c0 20 00    	jmpq   *0x20c03a(%rip)        # 60f210 <_GLOBAL_OFFSET_TABLE_+0x210>
  4031d6:	68 3f 00 00 00       	pushq  $0x3f
  4031db:	e9 f0 fb ff ff       	jmpq   402dd0 <_init+0x28>

00000000004031e0 <_ZN10tensorflow13ClientSessionC1ERKNS_5ScopeE@plt>:
  4031e0:	ff 25 32 c0 20 00    	jmpq   *0x20c032(%rip)        # 60f218 <_GLOBAL_OFFSET_TABLE_+0x218>
  4031e6:	68 40 00 00 00       	pushq  $0x40
  4031eb:	e9 e0 fb ff ff       	jmpq   402dd0 <_init+0x28>

00000000004031f0 <_ZNK10tensorflow14StatSummarizer14PrintStepStatsEv@plt>:
  4031f0:	ff 25 2a c0 20 00    	jmpq   *0x20c02a(%rip)        # 60f220 <_GLOBAL_OFFSET_TABLE_+0x220>
  4031f6:	68 41 00 00 00       	pushq  $0x41
  4031fb:	e9 d0 fb ff ff       	jmpq   402dd0 <_init+0x28>

0000000000403200 <_Znwm@plt>:
  403200:	ff 25 22 c0 20 00    	jmpq   *0x20c022(%rip)        # 60f228 <_GLOBAL_OFFSET_TABLE_+0x228>
  403206:	68 42 00 00 00       	pushq  $0x42
  40320b:	e9 c0 fb ff ff       	jmpq   402dd0 <_init+0x28>

0000000000403210 <_ZNK10tensorflow13ClientSession3RunERKNS_10RunOptionsERKSt13unordered_mapINS_6OutputENS_5Input11InitializerENS_10OutputHashESt8equal_toIS5_ESaISt4pairIKS5_S7_EEERKSt6vectorIS5_SaIS5_EERKSI_INS_9OperationESaISN_EEPSI_INS_6TensorESaISS_EEPNS_11RunMetadataE@plt>:
  403210:	ff 25 1a c0 20 00    	jmpq   *0x20c01a(%rip)        # 60f230 <_GLOBAL_OFFSET_TABLE_+0x230>
  403216:	68 43 00 00 00       	pushq  $0x43
  40321b:	e9 b0 fb ff ff       	jmpq   402dd0 <_init+0x28>

0000000000403220 <_ZN10tensorflow10RunOptionsC1Ev@plt>:
  403220:	ff 25 12 c0 20 00    	jmpq   *0x20c012(%rip)        # 60f238 <_GLOBAL_OFFSET_TABLE_+0x238>
  403226:	68 44 00 00 00       	pushq  $0x44
  40322b:	e9 a0 fb ff ff       	jmpq   402dd0 <_init+0x28>

0000000000403230 <_ZN10tensorflow13ClientSessionD1Ev@plt>:
  403230:	ff 25 0a c0 20 00    	jmpq   *0x20c00a(%rip)        # 60f240 <_GLOBAL_OFFSET_TABLE_+0x240>
  403236:	68 45 00 00 00       	pushq  $0x45
  40323b:	e9 90 fb ff ff       	jmpq   402dd0 <_init+0x28>

0000000000403240 <_Znam@plt>:
  403240:	ff 25 02 c0 20 00    	jmpq   *0x20c002(%rip)        # 60f248 <_GLOBAL_OFFSET_TABLE_+0x248>
  403246:	68 46 00 00 00       	pushq  $0x46
  40324b:	e9 80 fb ff ff       	jmpq   402dd0 <_init+0x28>

0000000000403250 <xopenme_get_timer@plt>:
  403250:	ff 25 fa bf 20 00    	jmpq   *0x20bffa(%rip)        # 60f250 <_GLOBAL_OFFSET_TABLE_+0x250>
  403256:	68 47 00 00 00       	pushq  $0x47
  40325b:	e9 70 fb ff ff       	jmpq   402dd0 <_init+0x28>

0000000000403260 <xopenme_clock_end@plt>:
  403260:	ff 25 f2 bf 20 00    	jmpq   *0x20bff2(%rip)        # 60f258 <_GLOBAL_OFFSET_TABLE_+0x258>
  403266:	68 48 00 00 00       	pushq  $0x48
  40326b:	e9 60 fb ff ff       	jmpq   402dd0 <_init+0x28>

0000000000403270 <_ZStlsISt11char_traitsIcEERSt13basic_ostreamIcT_ES5_PKc@plt>:
  403270:	ff 25 ea bf 20 00    	jmpq   *0x20bfea(%rip)        # 60f260 <_GLOBAL_OFFSET_TABLE_+0x260>
  403276:	68 49 00 00 00       	pushq  $0x49
  40327b:	e9 50 fb ff ff       	jmpq   402dd0 <_init+0x28>

0000000000403280 <_ZN10tensorflow14StatSummarizer16ProcessStepStatsERKNS_9StepStatsE@plt>:
  403280:	ff 25 e2 bf 20 00    	jmpq   *0x20bfe2(%rip)        # 60f268 <_GLOBAL_OFFSET_TABLE_+0x268>
  403286:	68 4a 00 00 00       	pushq  $0x4a
  40328b:	e9 40 fb ff ff       	jmpq   402dd0 <_init+0x28>

0000000000403290 <_ZNSt8ios_base4InitD1Ev@plt>:
  403290:	ff 25 da bf 20 00    	jmpq   *0x20bfda(%rip)        # 60f270 <_GLOBAL_OFFSET_TABLE_+0x270>
  403296:	68 4b 00 00 00       	pushq  $0x4b
  40329b:	e9 30 fb ff ff       	jmpq   402dd0 <_init+0x28>

00000000004032a0 <__cxa_end_catch@plt>:
  4032a0:	ff 25 d2 bf 20 00    	jmpq   *0x20bfd2(%rip)        # 60f278 <_GLOBAL_OFFSET_TABLE_+0x278>
  4032a6:	68 4c 00 00 00       	pushq  $0x4c
  4032ab:	e9 20 fb ff ff       	jmpq   402dd0 <_init+0x28>

00000000004032b0 <__cxa_throw_bad_array_new_length@plt>:
  4032b0:	ff 25 ca bf 20 00    	jmpq   *0x20bfca(%rip)        # 60f280 <_GLOBAL_OFFSET_TABLE_+0x280>
  4032b6:	68 4d 00 00 00       	pushq  $0x4d
  4032bb:	e9 10 fb ff ff       	jmpq   402dd0 <_init+0x28>

00000000004032c0 <__cxa_rethrow@plt>:
  4032c0:	ff 25 c2 bf 20 00    	jmpq   *0x20bfc2(%rip)        # 60f288 <_GLOBAL_OFFSET_TABLE_+0x288>
  4032c6:	68 4e 00 00 00       	pushq  $0x4e
  4032cb:	e9 00 fb ff ff       	jmpq   402dd0 <_init+0x28>

00000000004032d0 <atof@plt>:
  4032d0:	ff 25 ba bf 20 00    	jmpq   *0x20bfba(%rip)        # 60f290 <_GLOBAL_OFFSET_TABLE_+0x290>
  4032d6:	68 4f 00 00 00       	pushq  $0x4f
  4032db:	e9 f0 fa ff ff       	jmpq   402dd0 <_init+0x28>

00000000004032e0 <_ZN10tensorflow24TfCheckOpHelperOutOfLineB5cxx11ERKNS_6StatusEPKc@plt>:
  4032e0:	ff 25 b2 bf 20 00    	jmpq   *0x20bfb2(%rip)        # 60f298 <_GLOBAL_OFFSET_TABLE_+0x298>
  4032e6:	68 50 00 00 00       	pushq  $0x50
  4032eb:	e9 e0 fa ff ff       	jmpq   402dd0 <_init+0x28>

00000000004032f0 <_ZNK10tensorflow5Scope10WithOpNameERKNSt7__cxx1112basic_stringIcSt11char_traitsIcESaIcEEE@plt>:
  4032f0:	ff 25 aa bf 20 00    	jmpq   *0x20bfaa(%rip)        # 60f2a0 <_GLOBAL_OFFSET_TABLE_+0x2a0>
  4032f6:	68 51 00 00 00       	pushq  $0x51
  4032fb:	e9 d0 fa ff ff       	jmpq   402dd0 <_init+0x28>

0000000000403300 <rand@plt>:
  403300:	ff 25 a2 bf 20 00    	jmpq   *0x20bfa2(%rip)        # 60f2a8 <_GLOBAL_OFFSET_TABLE_+0x2a8>
  403306:	68 52 00 00 00       	pushq  $0x52
  40330b:	e9 c0 fa ff ff       	jmpq   402dd0 <_init+0x28>

0000000000403310 <_ZNSt8ios_base4InitC1Ev@plt>:
  403310:	ff 25 9a bf 20 00    	jmpq   *0x20bf9a(%rip)        # 60f2b0 <_GLOBAL_OFFSET_TABLE_+0x2b0>
  403316:	68 53 00 00 00       	pushq  $0x53
  40331b:	e9 b0 fa ff ff       	jmpq   402dd0 <_init+0x28>

0000000000403320 <_ZN10tensorflow14StatSummarizerC1ERKNS_21StatSummarizerOptionsE@plt>:
  403320:	ff 25 92 bf 20 00    	jmpq   *0x20bf92(%rip)        # 60f2b8 <_GLOBAL_OFFSET_TABLE_+0x2b8>
  403326:	68 54 00 00 00       	pushq  $0x54
  40332b:	e9 a0 fa ff ff       	jmpq   402dd0 <_init+0x28>

0000000000403330 <_ZNSaIcED1Ev@plt>:
  403330:	ff 25 8a bf 20 00    	jmpq   *0x20bf8a(%rip)        # 60f2c0 <_GLOBAL_OFFSET_TABLE_+0x2c0>
  403336:	68 55 00 00 00       	pushq  $0x55
  40333b:	e9 90 fa ff ff       	jmpq   402dd0 <_init+0x28>

Disassembly of section .plt.got:

0000000000403340 <.plt.got>:
  403340:	ff 25 b2 bc 20 00    	jmpq   *0x20bcb2(%rip)        # 60eff8 <_DYNAMIC+0x210>
  403346:	66 90                	xchg   %ax,%ax

Disassembly of section .text:

0000000000403350 <_start>:
  403350:	31 ed                	xor    %ebp,%ebp
  403352:	49 89 d1             	mov    %rdx,%r9
  403355:	5e                   	pop    %rsi
  403356:	48 89 e2             	mov    %rsp,%rdx
  403359:	48 83 e4 f0          	and    $0xfffffffffffffff0,%rsp
  40335d:	50                   	push   %rax
  40335e:	54                   	push   %rsp
  40335f:	49 c7 c0 40 9d 40 00 	mov    $0x409d40,%r8
  403366:	48 c7 c1 d0 9c 40 00 	mov    $0x409cd0,%rcx
  40336d:	48 c7 c7 26 38 40 00 	mov    $0x403826,%rdi
  403374:	e8 47 fc ff ff       	callq  402fc0 <__libc_start_main@plt>
  403379:	f4                   	hlt    
  40337a:	66 0f 1f 44 00 00    	nopw   0x0(%rax,%rax,1)

0000000000403380 <deregister_tm_clones>:
  403380:	b8 df f2 60 00       	mov    $0x60f2df,%eax
  403385:	55                   	push   %rbp
  403386:	48 2d d8 f2 60 00    	sub    $0x60f2d8,%rax
  40338c:	48 83 f8 0e          	cmp    $0xe,%rax
  403390:	48 89 e5             	mov    %rsp,%rbp
  403393:	76 1b                	jbe    4033b0 <deregister_tm_clones+0x30>
  403395:	b8 00 00 00 00       	mov    $0x0,%eax
  40339a:	48 85 c0             	test   %rax,%rax
  40339d:	74 11                	je     4033b0 <deregister_tm_clones+0x30>
  40339f:	5d                   	pop    %rbp
  4033a0:	bf d8 f2 60 00       	mov    $0x60f2d8,%edi
  4033a5:	ff e0                	jmpq   *%rax
  4033a7:	66 0f 1f 84 00 00 00 	nopw   0x0(%rax,%rax,1)
  4033ae:	00 00 
  4033b0:	5d                   	pop    %rbp
  4033b1:	c3                   	retq   
  4033b2:	0f 1f 40 00          	nopl   0x0(%rax)
  4033b6:	66 2e 0f 1f 84 00 00 	nopw   %cs:0x0(%rax,%rax,1)
  4033bd:	00 00 00 

00000000004033c0 <register_tm_clones>:
  4033c0:	be d8 f2 60 00       	mov    $0x60f2d8,%esi
  4033c5:	55                   	push   %rbp
  4033c6:	48 81 ee d8 f2 60 00 	sub    $0x60f2d8,%rsi
  4033cd:	48 c1 fe 03          	sar    $0x3,%rsi
  4033d1:	48 89 e5             	mov    %rsp,%rbp
  4033d4:	48 89 f0             	mov    %rsi,%rax
  4033d7:	48 c1 e8 3f          	shr    $0x3f,%rax
  4033db:	48 01 c6             	add    %rax,%rsi
  4033de:	48 d1 fe             	sar    %rsi
  4033e1:	74 15                	je     4033f8 <register_tm_clones+0x38>
  4033e3:	b8 00 00 00 00       	mov    $0x0,%eax
  4033e8:	48 85 c0             	test   %rax,%rax
  4033eb:	74 0b                	je     4033f8 <register_tm_clones+0x38>
  4033ed:	5d                   	pop    %rbp
  4033ee:	bf d8 f2 60 00       	mov    $0x60f2d8,%edi
  4033f3:	ff e0                	jmpq   *%rax
  4033f5:	0f 1f 00             	nopl   (%rax)
  4033f8:	5d                   	pop    %rbp
  4033f9:	c3                   	retq   
  4033fa:	66 0f 1f 44 00 00    	nopw   0x0(%rax,%rax,1)

0000000000403400 <__do_global_dtors_aux>:
  403400:	80 3d c9 c0 20 00 00 	cmpb   $0x0,0x20c0c9(%rip)        # 60f4d0 <completed.7593>
  403407:	75 11                	jne    40341a <__do_global_dtors_aux+0x1a>
  403409:	55                   	push   %rbp
  40340a:	48 89 e5             	mov    %rsp,%rbp
  40340d:	e8 6e ff ff ff       	callq  403380 <deregister_tm_clones>
  403412:	5d                   	pop    %rbp
  403413:	c6 05 b6 c0 20 00 01 	movb   $0x1,0x20c0b6(%rip)        # 60f4d0 <completed.7593>
  40341a:	f3 c3                	repz retq 
  40341c:	0f 1f 40 00          	nopl   0x0(%rax)

0000000000403420 <frame_dummy>:
  403420:	bf e0 ed 60 00       	mov    $0x60ede0,%edi
  403425:	48 83 3f 00          	cmpq   $0x0,(%rdi)
  403429:	75 05                	jne    403430 <frame_dummy+0x10>
  40342b:	eb 93                	jmp    4033c0 <register_tm_clones>
  40342d:	0f 1f 00             	nopl   (%rax)
  403430:	b8 00 00 00 00       	mov    $0x0,%eax
  403435:	48 85 c0             	test   %rax,%rax
  403438:	74 f1                	je     40342b <frame_dummy+0xb>
  40343a:	55                   	push   %rbp
  40343b:	48 89 e5             	mov    %rsp,%rbp
  40343e:	ff d0                	callq  *%rax
  403440:	5d                   	pop    %rbp
  403441:	e9 7a ff ff ff       	jmpq   4033c0 <register_tm_clones>

0000000000403446 <_ZN5Eigen8internal12_GLOBAL__N_115get_random_seedEv>:
  403446:	55                   	push   %rbp
  403447:	48 89 e5             	mov    %rsp,%rbp
  40344a:	48 83 ec 30          	sub    $0x30,%rsp
  40344e:	64 48 8b 04 25 28 00 	mov    %fs:0x28,%rax
  403455:	00 00 
  403457:	48 89 45 f8          	mov    %rax,-0x8(%rbp)
  40345b:	31 c0                	xor    %eax,%eax
  40345d:	48 8d 45 e0          	lea    -0x20(%rbp),%rax
  403461:	48 89 c6             	mov    %rax,%rsi
  403464:	bf 00 00 00 00       	mov    $0x0,%edi
  403469:	e8 d2 f9 ff ff       	callq  402e40 <clock_gettime@plt>
  40346e:	e8 fd fc ff ff       	callq  403170 <random@plt>
  403473:	48 89 c2             	mov    %rax,%rdx
  403476:	48 8b 45 e8          	mov    -0x18(%rbp),%rax
  40347a:	48 31 d0             	xor    %rdx,%rax
  40347d:	48 89 45 d8          	mov    %rax,-0x28(%rbp)
  403481:	48 8b 45 d8          	mov    -0x28(%rbp),%rax
  403485:	48 8b 4d f8          	mov    -0x8(%rbp),%rcx
  403489:	64 48 33 0c 25 28 00 	xor    %fs:0x28,%rcx
  403490:	00 00 
  403492:	74 05                	je     403499 <_ZN5Eigen8internal12_GLOBAL__N_115get_random_seedEv+0x53>
  403494:	e8 87 f9 ff ff       	callq  402e20 <__stack_chk_fail@plt>
  403499:	c9                   	leaveq 
  40349a:	c3                   	retq   

000000000040349b <_ZN2CK16store_setup_timeEf>:
  40349b:	55                   	push   %rbp
  40349c:	48 89 e5             	mov    %rsp,%rbp
  40349f:	48 83 ec 10          	sub    $0x10,%rsp
  4034a3:	f3 0f 11 45 fc       	movss  %xmm0,-0x4(%rbp)
  4034a8:	8b 45 fc             	mov    -0x4(%rbp),%eax
  4034ab:	89 45 f8             	mov    %eax,-0x8(%rbp)
  4034ae:	f3 0f 10 45 f8       	movss  -0x8(%rbp),%xmm0
  4034b3:	be 4b a1 40 00       	mov    $0x40a14b,%esi
  4034b8:	bf 0a 00 00 00       	mov    $0xa,%edi
  4034bd:	e8 02 23 00 00       	callq  4057c4 <_ZN2CK13store_value_fEiPKcf>
  4034c2:	90                   	nop
  4034c3:	c9                   	leaveq 
  4034c4:	c3                   	retq   

00000000004034c5 <_ZN2CK15store_test_timeEf>:
  4034c5:	55                   	push   %rbp
  4034c6:	48 89 e5             	mov    %rsp,%rbp
  4034c9:	48 83 ec 10          	sub    $0x10,%rsp
  4034cd:	f3 0f 11 45 fc       	movss  %xmm0,-0x4(%rbp)
  4034d2:	8b 45 fc             	mov    -0x4(%rbp),%eax
  4034d5:	89 45 f8             	mov    %eax,-0x8(%rbp)
  4034d8:	f3 0f 10 45 f8       	movss  -0x8(%rbp),%xmm0
  4034dd:	be 56 a1 40 00       	mov    $0x40a156,%esi
  4034e2:	bf 0b 00 00 00       	mov    $0xb,%edi
  4034e7:	e8 d8 22 00 00       	callq  4057c4 <_ZN2CK13store_value_fEiPKcf>
  4034ec:	90                   	nop
  4034ed:	c9                   	leaveq 
  4034ee:	c3                   	retq   
  4034ef:	90                   	nop

00000000004034f0 <_ZZ4mainENKUlvE_clEv>:
  4034f0:	55                   	push   %rbp
  4034f1:	48 89 e5             	mov    %rsp,%rbp
  4034f4:	41 56                	push   %r14
  4034f6:	41 55                	push   %r13
  4034f8:	41 54                	push   %r12
  4034fa:	53                   	push   %rbx
  4034fb:	48 81 ec 70 02 00 00 	sub    $0x270,%rsp
  403502:	48 89 bd 78 fd ff ff 	mov    %rdi,-0x288(%rbp)
  403509:	64 48 8b 04 25 28 00 	mov    %fs:0x28,%rax
  403510:	00 00 
  403512:	48 89 45 d8          	mov    %rax,-0x28(%rbp)
  403516:	31 c0                	xor    %eax,%eax
  403518:	48 8b 85 78 fd ff ff 	mov    -0x288(%rbp),%rax
  40351f:	48 8b 10             	mov    (%rax),%rdx
  403522:	48 8d 85 88 fd ff ff 	lea    -0x278(%rbp),%rax
  403529:	48 89 d6             	mov    %rdx,%rsi
  40352c:	48 89 c7             	mov    %rax,%rdi
  40352f:	e8 ac fc ff ff       	callq  4031e0 <_ZN10tensorflow13ClientSessionC1ERKNS_5ScopeE@plt>
  403534:	48 8b 85 78 fd ff ff 	mov    -0x288(%rbp),%rax
  40353b:	4c 8b 70 20          	mov    0x20(%rax),%r14
  40353f:	48 8b 85 78 fd ff ff 	mov    -0x288(%rbp),%rax
  403546:	48 8b 58 18          	mov    0x18(%rax),%rbx
  40354a:	48 8d 85 c0 fd ff ff 	lea    -0x240(%rbp),%rax
  403551:	48 89 c7             	mov    %rax,%rdi
  403554:	e8 5b 3a 00 00       	callq  406fb4 <_ZNSt6vectorIN10tensorflow9OperationESaIS1_EEC1Ev>
  403559:	48 8b 85 78 fd ff ff 	mov    -0x288(%rbp),%rax
  403560:	48 8b 50 10          	mov    0x10(%rax),%rdx
  403564:	48 8d 85 20 fe ff ff 	lea    -0x1e0(%rbp),%rax
  40356b:	48 89 d6             	mov    %rdx,%rsi
  40356e:	48 89 c7             	mov    %rax,%rdi
  403571:	e8 ba 1f 00 00       	callq  405530 <_ZNK10tensorflow3ops7BiasAddcvNS_6OutputEEv>
  403576:	48 8d 85 20 fe ff ff 	lea    -0x1e0(%rbp),%rax
  40357d:	49 89 c4             	mov    %rax,%r12
  403580:	41 bd 01 00 00 00    	mov    $0x1,%r13d
  403586:	48 8d 85 87 fd ff ff 	lea    -0x279(%rbp),%rax
  40358d:	48 89 c7             	mov    %rax,%rdi
  403590:	e8 e9 38 00 00       	callq  406e7e <_ZNSaIN10tensorflow6OutputEEC1Ev>
  403595:	48 8d 95 87 fd ff ff 	lea    -0x279(%rbp),%rdx
  40359c:	4d 89 e0             	mov    %r12,%r8
  40359f:	4d 89 e9             	mov    %r13,%r9
  4035a2:	4c 89 e6             	mov    %r12,%rsi
  4035a5:	4c 89 ef             	mov    %r13,%rdi
  4035a8:	48 8d 85 a0 fd ff ff 	lea    -0x260(%rbp),%rax
  4035af:	48 89 d1             	mov    %rdx,%rcx
  4035b2:	4c 89 c6             	mov    %r8,%rsi
  4035b5:	48 89 fa             	mov    %rdi,%rdx
  4035b8:	48 89 c7             	mov    %rax,%rdi
  4035bb:	e8 f6 38 00 00       	callq  406eb6 <_ZNSt6vectorIN10tensorflow6OutputESaIS1_EEC1ESt16initializer_listIS1_ERKS2_>
  4035c0:	48 8d 95 e0 fd ff ff 	lea    -0x220(%rbp),%rdx
  4035c7:	b8 00 00 00 00       	mov    $0x0,%eax
  4035cc:	b9 07 00 00 00       	mov    $0x7,%ecx
  4035d1:	48 89 d7             	mov    %rdx,%rdi
  4035d4:	f3 48 ab             	rep stos %rax,%es:(%rdi)
  4035d7:	48 8d 85 e0 fd ff ff 	lea    -0x220(%rbp),%rax
  4035de:	48 89 c7             	mov    %rax,%rdi
  4035e1:	e8 84 2a 00 00       	callq  40606a <_ZNSt13unordered_mapIN10tensorflow6OutputENS0_5Input11InitializerENS0_10OutputHashESt8equal_toIS1_ESaISt4pairIKS1_S3_EEEC1Ev>
  4035e6:	48 8b 85 78 fd ff ff 	mov    -0x288(%rbp),%rax
  4035ed:	48 8b 50 08          	mov    0x8(%rax),%rdx
  4035f1:	48 8d 85 90 fd ff ff 	lea    -0x270(%rbp),%rax
  4035f8:	4c 8d 85 c0 fd ff ff 	lea    -0x240(%rbp),%r8
  4035ff:	48 8d bd a0 fd ff ff 	lea    -0x260(%rbp),%rdi
  403606:	48 8d 8d e0 fd ff ff 	lea    -0x220(%rbp),%rcx
  40360d:	48 8d b5 88 fd ff ff 	lea    -0x278(%rbp),%rsi
  403614:	41 56                	push   %r14
  403616:	53                   	push   %rbx
  403617:	4d 89 c1             	mov    %r8,%r9
  40361a:	49 89 f8             	mov    %rdi,%r8
  40361d:	48 89 c7             	mov    %rax,%rdi
  403620:	e8 eb fb ff ff       	callq  403210 <_ZNK10tensorflow13ClientSession3RunERKNS_10RunOptionsERKSt13unordered_mapINS_6OutputENS_5Input11InitializerENS_10OutputHashESt8equal_toIS5_ESaISt4pairIKS5_S7_EEERKSt6vectorIS5_SaIS5_EERKSI_INS_9OperationESaISN_EEPSI_INS_6TensorESaISS_EEPNS_11RunMetadataE@plt>
  403625:	48 83 c4 10          	add    $0x10,%rsp
  403629:	48 8d 85 e0 fd ff ff 	lea    -0x220(%rbp),%rax
  403630:	48 89 c7             	mov    %rax,%rdi
  403633:	e8 4e 2a 00 00       	callq  406086 <_ZNSt13unordered_mapIN10tensorflow6OutputENS0_5Input11InitializerENS0_10OutputHashESt8equal_toIS1_ESaISt4pairIKS1_S3_EEED1Ev>
  403638:	48 8d 85 a0 fd ff ff 	lea    -0x260(%rbp),%rax
  40363f:	48 89 c7             	mov    %rax,%rdi
  403642:	e8 29 39 00 00       	callq  406f70 <_ZNSt6vectorIN10tensorflow6OutputESaIS1_EED1Ev>
  403647:	48 8d 85 87 fd ff ff 	lea    -0x279(%rbp),%rax
  40364e:	48 89 c7             	mov    %rax,%rdi
  403651:	e8 44 38 00 00       	callq  406e9a <_ZNSaIN10tensorflow6OutputEED1Ev>
  403656:	48 8d 9d 20 fe ff ff 	lea    -0x1e0(%rbp),%rbx
  40365d:	48 83 c3 28          	add    $0x28,%rbx
  403661:	48 8d 85 20 fe ff ff 	lea    -0x1e0(%rbp),%rax
  403668:	48 39 c3             	cmp    %rax,%rbx
  40366b:	74 0e                	je     40367b <_ZZ4mainENKUlvE_clEv+0x18b>
  40366d:	48 83 eb 28          	sub    $0x28,%rbx
  403671:	48 89 df             	mov    %rbx,%rdi
  403674:	e8 5f 1a 00 00       	callq  4050d8 <_ZN10tensorflow6OutputD1Ev>
  403679:	eb e6                	jmp    403661 <_ZZ4mainENKUlvE_clEv+0x171>
  40367b:	48 8d 85 c0 fd ff ff 	lea    -0x240(%rbp),%rax
  403682:	48 89 c7             	mov    %rax,%rdi
  403685:	e8 46 39 00 00       	callq  406fd0 <_ZNSt6vectorIN10tensorflow9OperationESaIS1_EED1Ev>
  40368a:	48 8d 95 90 fd ff ff 	lea    -0x270(%rbp),%rdx
  403691:	48 8d 85 e0 fd ff ff 	lea    -0x220(%rbp),%rax
  403698:	48 89 d6             	mov    %rdx,%rsi
  40369b:	48 89 c7             	mov    %rax,%rdi
  40369e:	e8 9b 13 00 00       	callq  404a3e <_ZN10tensorflow6StatusC1ERKS0_>
  4036a3:	48 8d 85 e0 fd ff ff 	lea    -0x220(%rbp),%rax
  4036aa:	be 1c a2 40 00       	mov    $0x40a21c,%esi
  4036af:	48 89 c7             	mov    %rax,%rdi
  4036b2:	e8 10 14 00 00       	callq  404ac7 <_ZN10tensorflow15TfCheckOpHelperB5cxx11ENS_6StatusEPKc>
  4036b7:	48 89 85 98 fd ff ff 	mov    %rax,-0x268(%rbp)
  4036be:	48 8d 85 e0 fd ff ff 	lea    -0x220(%rbp),%rax
  4036c5:	48 89 c7             	mov    %rax,%rdi
  4036c8:	e8 dd 12 00 00       	callq  4049aa <_ZN10tensorflow6StatusD1Ev>
  4036cd:	48 83 bd 98 fd ff ff 	cmpq   $0x0,-0x268(%rbp)
  4036d4:	00 
  4036d5:	74 41                	je     403718 <_ZZ4mainENKUlvE_clEv+0x228>
  4036d7:	48 8d 85 50 fe ff ff 	lea    -0x1b0(%rbp),%rax
  4036de:	ba 64 00 00 00       	mov    $0x64,%edx
  4036e3:	be 23 a2 40 00       	mov    $0x40a223,%esi
  4036e8:	48 89 c7             	mov    %rax,%rdi
  4036eb:	e8 10 f7 ff ff       	callq  402e00 <_ZN10tensorflow8internal15LogMessageFatalC1EPKci@plt>
  4036f0:	48 8b 95 98 fd ff ff 	mov    -0x268(%rbp),%rdx
  4036f7:	48 8d 85 50 fe ff ff 	lea    -0x1b0(%rbp),%rax
  4036fe:	48 89 d6             	mov    %rdx,%rsi
  403701:	48 89 c7             	mov    %rax,%rdi
  403704:	e8 50 2c 00 00       	callq  406359 <_ZStlsIcSt11char_traitsIcENSt7__cxx1112basic_stringIcS1_SaIcEEEERSt13basic_ostreamIT_T0_EOS9_RKT1_>
  403709:	48 8d 85 50 fe ff ff 	lea    -0x1b0(%rbp),%rax
  403710:	48 89 c7             	mov    %rax,%rdi
  403713:	e8 98 f8 ff ff       	callq  402fb0 <_ZN10tensorflow8internal15LogMessageFatalD1Ev@plt>
  403718:	48 8d 85 90 fd ff ff 	lea    -0x270(%rbp),%rax
  40371f:	48 89 c7             	mov    %rax,%rdi
  403722:	e8 83 12 00 00       	callq  4049aa <_ZN10tensorflow6StatusD1Ev>
  403727:	48 8d 85 88 fd ff ff 	lea    -0x278(%rbp),%rax
  40372e:	48 89 c7             	mov    %rax,%rdi
  403731:	e8 fa fa ff ff       	callq  403230 <_ZN10tensorflow13ClientSessionD1Ev@plt>
  403736:	90                   	nop
  403737:	48 8b 45 d8          	mov    -0x28(%rbp),%rax
  40373b:	64 48 33 04 25 28 00 	xor    %fs:0x28,%rax
  403742:	00 00 
  403744:	0f 84 cf 00 00 00    	je     403819 <_ZZ4mainENKUlvE_clEv+0x329>
  40374a:	e9 c5 00 00 00       	jmpq   403814 <_ZZ4mainENKUlvE_clEv+0x324>
  40374f:	48 89 c3             	mov    %rax,%rbx
  403752:	48 8d 85 e0 fd ff ff 	lea    -0x220(%rbp),%rax
  403759:	48 89 c7             	mov    %rax,%rdi
  40375c:	e8 25 29 00 00       	callq  406086 <_ZNSt13unordered_mapIN10tensorflow6OutputENS0_5Input11InitializerENS0_10OutputHashESt8equal_toIS1_ESaISt4pairIKS1_S3_EEED1Ev>
  403761:	48 8d 85 a0 fd ff ff 	lea    -0x260(%rbp),%rax
  403768:	48 89 c7             	mov    %rax,%rdi
  40376b:	e8 00 38 00 00       	callq  406f70 <_ZNSt6vectorIN10tensorflow6OutputESaIS1_EED1Ev>
  403770:	eb 03                	jmp    403775 <_ZZ4mainENKUlvE_clEv+0x285>
  403772:	48 89 c3             	mov    %rax,%rbx
  403775:	48 8d 85 87 fd ff ff 	lea    -0x279(%rbp),%rax
  40377c:	48 89 c7             	mov    %rax,%rdi
  40377f:	e8 16 37 00 00       	callq  406e9a <_ZNSaIN10tensorflow6OutputEED1Ev>
  403784:	49 89 dc             	mov    %rbx,%r12
  403787:	48 8d 9d 20 fe ff ff 	lea    -0x1e0(%rbp),%rbx
  40378e:	48 83 c3 28          	add    $0x28,%rbx
  403792:	48 8d 85 20 fe ff ff 	lea    -0x1e0(%rbp),%rax
  403799:	48 39 c3             	cmp    %rax,%rbx
  40379c:	74 0e                	je     4037ac <_ZZ4mainENKUlvE_clEv+0x2bc>
  40379e:	48 83 eb 28          	sub    $0x28,%rbx
  4037a2:	48 89 df             	mov    %rbx,%rdi
  4037a5:	e8 2e 19 00 00       	callq  4050d8 <_ZN10tensorflow6OutputD1Ev>
  4037aa:	eb e6                	jmp    403792 <_ZZ4mainENKUlvE_clEv+0x2a2>
  4037ac:	4c 89 e3             	mov    %r12,%rbx
  4037af:	eb 03                	jmp    4037b4 <_ZZ4mainENKUlvE_clEv+0x2c4>
  4037b1:	48 89 c3             	mov    %rax,%rbx
  4037b4:	48 8d 85 c0 fd ff ff 	lea    -0x240(%rbp),%rax
  4037bb:	48 89 c7             	mov    %rax,%rdi
  4037be:	e8 0d 38 00 00       	callq  406fd0 <_ZNSt6vectorIN10tensorflow9OperationESaIS1_EED1Ev>
  4037c3:	eb 35                	jmp    4037fa <_ZZ4mainENKUlvE_clEv+0x30a>
  4037c5:	48 89 c3             	mov    %rax,%rbx
  4037c8:	48 8d 85 e0 fd ff ff 	lea    -0x220(%rbp),%rax
  4037cf:	48 89 c7             	mov    %rax,%rdi
  4037d2:	e8 d3 11 00 00       	callq  4049aa <_ZN10tensorflow6StatusD1Ev>
  4037d7:	eb 12                	jmp    4037eb <_ZZ4mainENKUlvE_clEv+0x2fb>
  4037d9:	48 8d 85 50 fe ff ff 	lea    -0x1b0(%rbp),%rax
  4037e0:	48 89 c7             	mov    %rax,%rdi
  4037e3:	e8 c8 f7 ff ff       	callq  402fb0 <_ZN10tensorflow8internal15LogMessageFatalD1Ev@plt>
  4037e8:	48 89 c3             	mov    %rax,%rbx
  4037eb:	48 8d 85 90 fd ff ff 	lea    -0x270(%rbp),%rax
  4037f2:	48 89 c7             	mov    %rax,%rdi
  4037f5:	e8 b0 11 00 00       	callq  4049aa <_ZN10tensorflow6StatusD1Ev>
  4037fa:	48 8d 85 88 fd ff ff 	lea    -0x278(%rbp),%rax
  403801:	48 89 c7             	mov    %rax,%rdi
  403804:	e8 27 fa ff ff       	callq  403230 <_ZN10tensorflow13ClientSessionD1Ev@plt>
  403809:	48 89 d8             	mov    %rbx,%rax
  40380c:	48 89 c7             	mov    %rax,%rdi
  40380f:	e8 ec f8 ff ff       	callq  403100 <_Unwind_Resume@plt>
  403814:	e8 07 f6 ff ff       	callq  402e20 <__stack_chk_fail@plt>
  403819:	48 8d 65 e0          	lea    -0x20(%rbp),%rsp
  40381d:	5b                   	pop    %rbx
  40381e:	41 5c                	pop    %r12
  403820:	41 5d                	pop    %r13
  403822:	41 5e                	pop    %r14
  403824:	5d                   	pop    %rbp
  403825:	c3                   	retq   

0000000000403826 <main>:
  403826:	55                   	push   %rbp
  403827:	48 89 e5             	mov    %rsp,%rbp
  40382a:	41 57                	push   %r15
  40382c:	41 56                	push   %r14
  40382e:	41 55                	push   %r13
  403830:	41 54                	push   %r12
  403832:	53                   	push   %rbx
  403833:	48 81 ec 78 05 00 00 	sub    $0x578,%rsp
  40383a:	64 48 8b 04 25 28 00 	mov    %fs:0x28,%rax
  403841:	00 00 
  403843:	48 89 45 c8          	mov    %rax,-0x38(%rbp)
  403847:	31 c0                	xor    %eax,%eax
  403849:	e8 b9 21 00 00       	callq  405a07 <_ZN2CK9init_testEv>
  40384e:	48 8d 85 a8 fa ff ff 	lea    -0x558(%rbp),%rax
  403855:	48 89 c7             	mov    %rax,%rdi
  403858:	e8 93 f7 ff ff       	callq  402ff0 <_ZN10tensorflow5Scope12NewRootScopeEv@plt>
  40385d:	b9 07 00 00 00       	mov    $0x7,%ecx
  403862:	ba 07 00 00 00       	mov    $0x7,%edx
  403867:	be 01 00 00 00       	mov    $0x1,%esi
  40386c:	bf 01 00 00 00       	mov    $0x1,%edi
  403871:	e8 ca 1f 00 00       	callq  405840 <_ZN2CK24get_input_shape_from_envEiiii>
  403876:	48 89 85 f0 fa ff ff 	mov    %rax,-0x510(%rbp)
  40387d:	48 89 95 f8 fa ff ff 	mov    %rdx,-0x508(%rbp)
  403884:	8b 85 f0 fa ff ff    	mov    -0x510(%rbp),%eax
  40388a:	48 98                	cltq   
  40388c:	48 89 85 50 ff ff ff 	mov    %rax,-0xb0(%rbp)
  403893:	8b 85 f8 fa ff ff    	mov    -0x508(%rbp),%eax
  403899:	48 98                	cltq   
  40389b:	48 89 85 58 ff ff ff 	mov    %rax,-0xa8(%rbp)
  4038a2:	8b 85 fc fa ff ff    	mov    -0x504(%rbp),%eax
  4038a8:	48 98                	cltq   
  4038aa:	48 89 85 60 ff ff ff 	mov    %rax,-0xa0(%rbp)
  4038b1:	8b 85 f4 fa ff ff    	mov    -0x50c(%rbp),%eax
  4038b7:	48 98                	cltq   
  4038b9:	48 89 85 68 ff ff ff 	mov    %rax,-0x98(%rbp)
  4038c0:	48 8d 85 50 ff ff ff 	lea    -0xb0(%rbp),%rax
  4038c7:	48 89 85 60 fa ff ff 	mov    %rax,-0x5a0(%rbp)
  4038ce:	48 c7 85 68 fa ff ff 	movq   $0x4,-0x598(%rbp)
  4038d5:	04 00 00 00 
  4038d9:	48 8b 85 60 fa ff ff 	mov    -0x5a0(%rbp),%rax
  4038e0:	48 8b 95 68 fa ff ff 	mov    -0x598(%rbp),%rdx
  4038e7:	48 89 c1             	mov    %rax,%rcx
  4038ea:	48 89 d3             	mov    %rdx,%rbx
  4038ed:	48 8d 85 90 fc ff ff 	lea    -0x370(%rbp),%rax
  4038f4:	48 89 ce             	mov    %rcx,%rsi
  4038f7:	48 89 c7             	mov    %rax,%rdi
  4038fa:	e8 c1 23 00 00       	callq  405cc0 <_ZN10tensorflow11TensorShapeC1ESt16initializer_listIxE>
  4038ff:	48 8d 95 90 fc ff ff 	lea    -0x370(%rbp),%rdx
  403906:	48 8d 85 10 fd ff ff 	lea    -0x2f0(%rbp),%rax
  40390d:	be 01 00 00 00       	mov    $0x1,%esi
  403912:	48 89 c7             	mov    %rax,%rdi
  403915:	e8 c6 f5 ff ff       	callq  402ee0 <_ZN10tensorflow6TensorC1ENS_8DataTypeERKNS_11TensorShapeE@plt>
  40391a:	48 8d 85 90 fc ff ff 	lea    -0x370(%rbp),%rax
  403921:	48 89 c7             	mov    %rax,%rdi
  403924:	e8 8d 16 00 00       	callq  404fb6 <_ZN10tensorflow11TensorShapeD1Ev>
  403929:	48 8d 85 f0 fa ff ff 	lea    -0x510(%rbp),%rax
  403930:	48 89 c7             	mov    %rax,%rdi
  403933:	e8 34 2f 00 00       	callq  40686c <_ZN2CK19get_random_raw_dataIfEEPT_RKNS_5ShapeE>
  403938:	48 89 85 b8 fa ff ff 	mov    %rax,-0x548(%rbp)
  40393f:	48 8d 95 f0 fa ff ff 	lea    -0x510(%rbp),%rdx
  403946:	48 8b 85 b8 fa ff ff 	mov    -0x548(%rbp),%rax
  40394d:	48 89 d6             	mov    %rdx,%rsi
  403950:	48 89 c7             	mov    %rax,%rdi
  403953:	e8 fb 2f 00 00       	callq  406953 <_ZN2CK20print_input_raw_dataIfEEvPT_RKNS_5ShapeE>
  403958:	48 8d 95 f0 fa ff ff 	lea    -0x510(%rbp),%rdx
  40395f:	48 8b 85 b8 fa ff ff 	mov    -0x548(%rbp),%rax
  403966:	48 89 d6             	mov    %rdx,%rsi
  403969:	48 89 c7             	mov    %rax,%rdi
  40396c:	e8 0f 30 00 00       	callq  406980 <_ZN2CK32convert_data_layout_NCHW_to_NHWCIfEEvPT_RKNS_5ShapeE>
  403971:	48 8d 85 f0 fa ff ff 	lea    -0x510(%rbp),%rax
  403978:	48 89 c7             	mov    %rax,%rdi
  40397b:	e8 58 1c 00 00       	callq  4055d8 <_ZNK2CK5Shape10data_countEv>
  403980:	48 98                	cltq   
  403982:	48 8d 1c 85 00 00 00 	lea    0x0(,%rax,4),%rbx
  403989:	00 
  40398a:	48 8d 85 10 fd ff ff 	lea    -0x2f0(%rbp),%rax
  403991:	48 89 c7             	mov    %rax,%rdi
  403994:	e8 4f 31 00 00       	callq  406ae8 <_ZN10tensorflow6Tensor4flatIfEENS_6TTypesIT_Li1ElE4FlatEv>
  403999:	48 89 85 50 fc ff ff 	mov    %rax,-0x3b0(%rbp)
  4039a0:	48 89 95 58 fc ff ff 	mov    %rdx,-0x3a8(%rbp)
  4039a7:	48 8d 85 50 fc ff ff 	lea    -0x3b0(%rbp),%rax
  4039ae:	48 89 c7             	mov    %rax,%rdi
  4039b1:	e8 c0 31 00 00       	callq  406b76 <_ZN5Eigen9TensorMapINS_6TensorIfLi1ELi1ElEELi16ENS_11MakePointerEE4dataEv>
  4039b6:	48 89 c1             	mov    %rax,%rcx
  4039b9:	48 8b 85 b8 fa ff ff 	mov    -0x548(%rbp),%rax
  4039c0:	48 89 da             	mov    %rbx,%rdx
  4039c3:	48 89 c6             	mov    %rax,%rsi
  4039c6:	48 89 cf             	mov    %rcx,%rdi
  4039c9:	e8 f2 f7 ff ff       	callq  4031c0 <memcpy@plt>
  4039ce:	48 83 bd b8 fa ff ff 	cmpq   $0x0,-0x548(%rbp)
  4039d5:	00 
  4039d6:	74 0f                	je     4039e7 <main+0x1c1>
  4039d8:	48 8b 85 b8 fa ff ff 	mov    -0x548(%rbp),%rax
  4039df:	48 89 c7             	mov    %rax,%rdi
  4039e2:	e8 99 f6 ff ff       	callq  403080 <_ZdaPv@plt>
  4039e7:	8b 85 f4 fa ff ff    	mov    -0x50c(%rbp),%eax
  4039ed:	89 85 98 fa ff ff    	mov    %eax,-0x568(%rbp)
  4039f3:	be 01 00 00 00       	mov    $0x1,%esi
  4039f8:	bf 2f a2 40 00       	mov    $0x40a22f,%edi
  4039fd:	e8 c9 1c 00 00       	callq  4056cb <_ZN2CK8getenv_iEPKci>
  403a02:	89 85 9c fa ff ff    	mov    %eax,-0x564(%rbp)
  403a08:	be 3e a2 40 00       	mov    $0x40a23e,%esi
  403a0d:	bf c0 f3 60 00       	mov    $0x60f3c0,%edi
  403a12:	e8 59 f8 ff ff       	callq  403270 <_ZStlsISt11char_traitsIcEERSt13basic_ostreamIcT_ES5_PKc@plt>
  403a17:	48 89 c2             	mov    %rax,%rdx
  403a1a:	8b 85 98 fa ff ff    	mov    -0x568(%rbp),%eax
  403a20:	89 c6                	mov    %eax,%esi
  403a22:	48 89 d7             	mov    %rdx,%rdi
  403a25:	e8 16 f5 ff ff       	callq  402f40 <_ZNSolsEi@plt>
  403a2a:	be 4f a2 40 00       	mov    $0x40a24f,%esi
  403a2f:	48 89 c7             	mov    %rax,%rdi
  403a32:	e8 39 f8 ff ff       	callq  403270 <_ZStlsISt11char_traitsIcEERSt13basic_ostreamIcT_ES5_PKc@plt>
  403a37:	48 89 c2             	mov    %rax,%rdx
  403a3a:	8b 85 9c fa ff ff    	mov    -0x564(%rbp),%eax
  403a40:	89 c6                	mov    %eax,%esi
  403a42:	48 89 d7             	mov    %rdx,%rdi
  403a45:	e8 f6 f4 ff ff       	callq  402f40 <_ZNSolsEi@plt>
  403a4a:	be b0 2e 40 00       	mov    $0x402eb0,%esi
  403a4f:	48 89 c7             	mov    %rax,%rdi
  403a52:	e8 89 f5 ff ff       	callq  402fe0 <_ZNSolsEPFRSoS_E@plt>
  403a57:	ba 00 00 00 00       	mov    $0x0,%edx
  403a5c:	be 01 00 00 00       	mov    $0x1,%esi
  403a61:	bf 07 00 00 00       	mov    $0x7,%edi
  403a66:	e8 ea 1e 00 00       	callq  405955 <_ZN2CK24get_conv_params_from_envEiii>
  403a6b:	48 89 c1             	mov    %rax,%rcx
  403a6e:	89 d0                	mov    %edx,%eax
  403a70:	48 89 8d e4 fa ff ff 	mov    %rcx,-0x51c(%rbp)
  403a77:	89 85 ec fa ff ff    	mov    %eax,-0x514(%rbp)
  403a7d:	c7 85 00 fb ff ff 01 	movl   $0x1,-0x500(%rbp)
  403a84:	00 00 00 
  403a87:	c7 85 04 fb ff ff 01 	movl   $0x1,-0x4fc(%rbp)
  403a8e:	00 00 00 
  403a91:	c7 85 08 fb ff ff 01 	movl   $0x1,-0x4f8(%rbp)
  403a98:	00 00 00 
  403a9b:	c7 85 0c fb ff ff 01 	movl   $0x1,-0x4f4(%rbp)
  403aa2:	00 00 00 
  403aa5:	8b 85 f0 fa ff ff    	mov    -0x510(%rbp),%eax
  403aab:	89 85 00 fb ff ff    	mov    %eax,-0x500(%rbp)
  403ab1:	8b 85 9c fa ff ff    	mov    -0x564(%rbp),%eax
  403ab7:	89 85 04 fb ff ff    	mov    %eax,-0x4fc(%rbp)
  403abd:	8b 85 f8 fa ff ff    	mov    -0x508(%rbp),%eax
  403ac3:	89 c2                	mov    %eax,%edx
  403ac5:	8b 85 ec fa ff ff    	mov    -0x514(%rbp),%eax
  403acb:	01 c0                	add    %eax,%eax
  403acd:	01 c2                	add    %eax,%edx
  403acf:	8b 85 e4 fa ff ff    	mov    -0x51c(%rbp),%eax
  403ad5:	29 c2                	sub    %eax,%edx
  403ad7:	89 d0                	mov    %edx,%eax
  403ad9:	8b 8d e8 fa ff ff    	mov    -0x518(%rbp),%ecx
  403adf:	ba 00 00 00 00       	mov    $0x0,%edx
  403ae4:	f7 f1                	div    %ecx
  403ae6:	83 c0 01             	add    $0x1,%eax
  403ae9:	89 85 08 fb ff ff    	mov    %eax,-0x4f8(%rbp)
  403aef:	8b 85 fc fa ff ff    	mov    -0x504(%rbp),%eax
  403af5:	89 c2                	mov    %eax,%edx
  403af7:	8b 85 ec fa ff ff    	mov    -0x514(%rbp),%eax
  403afd:	01 c0                	add    %eax,%eax
  403aff:	01 c2                	add    %eax,%edx
  403b01:	8b 85 e4 fa ff ff    	mov    -0x51c(%rbp),%eax
  403b07:	29 c2                	sub    %eax,%edx
  403b09:	89 d0                	mov    %edx,%eax
  403b0b:	8b 8d e8 fa ff ff    	mov    -0x518(%rbp),%ecx
  403b11:	ba 00 00 00 00       	mov    $0x0,%edx
  403b16:	f7 f1                	div    %ecx
  403b18:	83 c0 01             	add    $0x1,%eax
  403b1b:	89 85 0c fb ff ff    	mov    %eax,-0x4f4(%rbp)
  403b21:	8b 95 e4 fa ff ff    	mov    -0x51c(%rbp),%edx
  403b27:	8b 85 ec fa ff ff    	mov    -0x514(%rbp),%eax
  403b2d:	89 c6                	mov    %eax,%esi
  403b2f:	bf 68 a2 40 00       	mov    $0x40a268,%edi
  403b34:	b8 00 00 00 00       	mov    $0x0,%eax
  403b39:	e8 d2 f3 ff ff       	callq  402f10 <printf@plt>
  403b3e:	8b 95 08 fb ff ff    	mov    -0x4f8(%rbp),%edx
  403b44:	8b 85 0c fb ff ff    	mov    -0x4f4(%rbp),%eax
  403b4a:	89 c6                	mov    %eax,%esi
  403b4c:	bf a8 a2 40 00       	mov    $0x40a2a8,%edi
  403b51:	b8 00 00 00 00       	mov    $0x0,%eax
  403b56:	e8 b5 f3 ff ff       	callq  402f10 <printf@plt>
  403b5b:	8b 85 0c fb ff ff    	mov    -0x4f4(%rbp),%eax
  403b61:	85 c0                	test   %eax,%eax
  403b63:	7e 0a                	jle    403b6f <main+0x349>
  403b65:	8b 85 08 fb ff ff    	mov    -0x4f8(%rbp),%eax
  403b6b:	85 c0                	test   %eax,%eax
  403b6d:	7f 19                	jg     403b88 <main+0x362>
  403b6f:	b9 f8 a4 40 00       	mov    $0x40a4f8,%ecx
  403b74:	ba 37 00 00 00       	mov    $0x37,%edx
  403b79:	be 23 a2 40 00       	mov    $0x40a223,%esi
  403b7e:	bf d8 a2 40 00       	mov    $0x40a2d8,%edi
  403b83:	e8 88 f2 ff ff       	callq  402e10 <__assert_fail@plt>
  403b88:	8b 85 00 fb ff ff    	mov    -0x500(%rbp),%eax
  403b8e:	48 98                	cltq   
  403b90:	48 89 85 50 ff ff ff 	mov    %rax,-0xb0(%rbp)
  403b97:	8b 85 08 fb ff ff    	mov    -0x4f8(%rbp),%eax
  403b9d:	48 98                	cltq   
  403b9f:	48 89 85 58 ff ff ff 	mov    %rax,-0xa8(%rbp)
  403ba6:	8b 85 0c fb ff ff    	mov    -0x4f4(%rbp),%eax
  403bac:	48 98                	cltq   
  403bae:	48 89 85 60 ff ff ff 	mov    %rax,-0xa0(%rbp)
  403bb5:	8b 85 04 fb ff ff    	mov    -0x4fc(%rbp),%eax
  403bbb:	48 98                	cltq   
  403bbd:	48 89 85 68 ff ff ff 	mov    %rax,-0x98(%rbp)
  403bc4:	48 8d 85 50 ff ff ff 	lea    -0xb0(%rbp),%rax
  403bcb:	48 89 85 70 fa ff ff 	mov    %rax,-0x590(%rbp)
  403bd2:	48 c7 85 78 fa ff ff 	movq   $0x4,-0x588(%rbp)
  403bd9:	04 00 00 00 
  403bdd:	48 8b 85 70 fa ff ff 	mov    -0x590(%rbp),%rax
  403be4:	48 8b 95 78 fa ff ff 	mov    -0x588(%rbp),%rdx
  403beb:	48 89 c1             	mov    %rax,%rcx
  403bee:	48 89 d3             	mov    %rdx,%rbx
  403bf1:	48 8d 85 b0 fc ff ff 	lea    -0x350(%rbp),%rax
  403bf8:	48 89 ce             	mov    %rcx,%rsi
  403bfb:	48 89 c7             	mov    %rax,%rdi
  403bfe:	e8 bd 20 00 00       	callq  405cc0 <_ZN10tensorflow11TensorShapeC1ESt16initializer_listIxE>
  403c03:	48 8d 95 b0 fc ff ff 	lea    -0x350(%rbp),%rdx
  403c0a:	48 8d 85 30 fd ff ff 	lea    -0x2d0(%rbp),%rax
  403c11:	be 01 00 00 00       	mov    $0x1,%esi
  403c16:	48 89 c7             	mov    %rax,%rdi
  403c19:	e8 c2 f2 ff ff       	callq  402ee0 <_ZN10tensorflow6TensorC1ENS_8DataTypeERKNS_11TensorShapeE@plt>
  403c1e:	48 8d 85 b0 fc ff ff 	lea    -0x350(%rbp),%rax
  403c25:	48 89 c7             	mov    %rax,%rdi
  403c28:	e8 89 13 00 00       	callq  404fb6 <_ZN10tensorflow11TensorShapeD1Ev>
  403c2d:	8b 85 e4 fa ff ff    	mov    -0x51c(%rbp),%eax
  403c33:	48 98                	cltq   
  403c35:	48 89 85 50 ff ff ff 	mov    %rax,-0xb0(%rbp)
  403c3c:	8b 85 e4 fa ff ff    	mov    -0x51c(%rbp),%eax
  403c42:	48 98                	cltq   
  403c44:	48 89 85 58 ff ff ff 	mov    %rax,-0xa8(%rbp)
  403c4b:	8b 85 98 fa ff ff    	mov    -0x568(%rbp),%eax
  403c51:	48 98                	cltq   
  403c53:	48 89 85 60 ff ff ff 	mov    %rax,-0xa0(%rbp)
  403c5a:	8b 85 9c fa ff ff    	mov    -0x564(%rbp),%eax
  403c60:	48 98                	cltq   
  403c62:	48 89 85 68 ff ff ff 	mov    %rax,-0x98(%rbp)
  403c69:	48 8d 85 50 ff ff ff 	lea    -0xb0(%rbp),%rax
  403c70:	48 89 85 80 fa ff ff 	mov    %rax,-0x580(%rbp)
  403c77:	48 c7 85 88 fa ff ff 	movq   $0x4,-0x578(%rbp)
  403c7e:	04 00 00 00 
  403c82:	48 8b 85 80 fa ff ff 	mov    -0x580(%rbp),%rax
  403c89:	48 8b 95 88 fa ff ff 	mov    -0x578(%rbp),%rdx
  403c90:	48 89 c1             	mov    %rax,%rcx
  403c93:	48 89 d3             	mov    %rdx,%rbx
  403c96:	48 8d 85 d0 fc ff ff 	lea    -0x330(%rbp),%rax
  403c9d:	48 89 ce             	mov    %rcx,%rsi
  403ca0:	48 89 c7             	mov    %rax,%rdi
  403ca3:	e8 18 20 00 00       	callq  405cc0 <_ZN10tensorflow11TensorShapeC1ESt16initializer_listIxE>
  403ca8:	48 8d 95 d0 fc ff ff 	lea    -0x330(%rbp),%rdx
  403caf:	48 8d 85 50 fd ff ff 	lea    -0x2b0(%rbp),%rax
  403cb6:	be 01 00 00 00       	mov    $0x1,%esi
  403cbb:	48 89 c7             	mov    %rax,%rdi
  403cbe:	e8 1d f2 ff ff       	callq  402ee0 <_ZN10tensorflow6TensorC1ENS_8DataTypeERKNS_11TensorShapeE@plt>
  403cc3:	48 8d 85 d0 fc ff ff 	lea    -0x330(%rbp),%rax
  403cca:	48 89 c7             	mov    %rax,%rdi
  403ccd:	e8 e4 12 00 00       	callq  404fb6 <_ZN10tensorflow11TensorShapeD1Ev>
  403cd2:	8b 95 e4 fa ff ff    	mov    -0x51c(%rbp),%edx
  403cd8:	8b 85 e4 fa ff ff    	mov    -0x51c(%rbp),%eax
  403cde:	0f af c2             	imul   %edx,%eax
  403ce1:	8b 95 f4 fa ff ff    	mov    -0x50c(%rbp),%edx
  403ce7:	0f af c2             	imul   %edx,%eax
  403cea:	8b 95 04 fb ff ff    	mov    -0x4fc(%rbp),%edx
  403cf0:	0f af c2             	imul   %edx,%eax
  403cf3:	89 85 a0 fa ff ff    	mov    %eax,-0x560(%rbp)
  403cf9:	48 8b 05 78 68 00 00 	mov    0x6878(%rip),%rax        # 40a578 <_ZZN2CK2TF16process_metadataERKN10tensorflow11RunMetadataEPKcE19__PRETTY_FUNCTION__+0x58>
  403d00:	48 89 85 80 fa ff ff 	mov    %rax,-0x580(%rbp)
  403d07:	f2 0f 10 85 80 fa ff 	movsd  -0x580(%rbp),%xmm0
  403d0e:	ff 
  403d0f:	bf 04 a3 40 00       	mov    $0x40a304,%edi
  403d14:	e8 ed 19 00 00       	callq  405706 <_ZN2CK8getenv_fEPKcd>
  403d19:	f2 0f 5a c0          	cvtsd2ss %xmm0,%xmm0
  403d1d:	f3 0f 11 85 90 fa ff 	movss  %xmm0,-0x570(%rbp)
  403d24:	ff 
  403d25:	48 8d 95 90 fa ff ff 	lea    -0x570(%rbp),%rdx
  403d2c:	8b 85 a0 fa ff ff    	mov    -0x560(%rbp),%eax
  403d32:	48 89 d6             	mov    %rdx,%rsi
  403d35:	89 c7                	mov    %eax,%edi
  403d37:	e8 4b 2e 00 00       	callq  406b87 <_ZN2CK18get_const_raw_dataIfEEPT_iRKS1_>
  403d3c:	48 89 85 c0 fa ff ff 	mov    %rax,-0x540(%rbp)
  403d43:	8b 85 a0 fa ff ff    	mov    -0x560(%rbp),%eax
  403d49:	48 98                	cltq   
  403d4b:	48 8d 1c 85 00 00 00 	lea    0x0(,%rax,4),%rbx
  403d52:	00 
  403d53:	48 8d 85 50 fd ff ff 	lea    -0x2b0(%rbp),%rax
  403d5a:	48 89 c7             	mov    %rax,%rdi
  403d5d:	e8 86 2d 00 00       	callq  406ae8 <_ZN10tensorflow6Tensor4flatIfEENS_6TTypesIT_Li1ElE4FlatEv>
  403d62:	48 89 85 60 fc ff ff 	mov    %rax,-0x3a0(%rbp)
  403d69:	48 89 95 68 fc ff ff 	mov    %rdx,-0x398(%rbp)
  403d70:	48 8d 85 60 fc ff ff 	lea    -0x3a0(%rbp),%rax
  403d77:	48 89 c7             	mov    %rax,%rdi
  403d7a:	e8 f7 2d 00 00       	callq  406b76 <_ZN5Eigen9TensorMapINS_6TensorIfLi1ELi1ElEELi16ENS_11MakePointerEE4dataEv>
  403d7f:	48 89 c1             	mov    %rax,%rcx
  403d82:	48 8b 85 c0 fa ff ff 	mov    -0x540(%rbp),%rax
  403d89:	48 89 da             	mov    %rbx,%rdx
  403d8c:	48 89 c6             	mov    %rax,%rsi
  403d8f:	48 89 cf             	mov    %rcx,%rdi
  403d92:	e8 29 f4 ff ff       	callq  4031c0 <memcpy@plt>
  403d97:	48 83 bd c0 fa ff ff 	cmpq   $0x0,-0x540(%rbp)
  403d9e:	00 
  403d9f:	74 0f                	je     403db0 <main+0x58a>
  403da1:	48 8b 85 c0 fa ff ff 	mov    -0x540(%rbp),%rax
  403da8:	48 89 c7             	mov    %rax,%rdi
  403dab:	e8 d0 f2 ff ff       	callq  403080 <_ZdaPv@plt>
  403db0:	8b 85 04 fb ff ff    	mov    -0x4fc(%rbp),%eax
  403db6:	89 85 a4 fa ff ff    	mov    %eax,-0x55c(%rbp)
  403dbc:	48 8b 05 b5 67 00 00 	mov    0x67b5(%rip),%rax        # 40a578 <_ZZN2CK2TF16process_metadataERKN10tensorflow11RunMetadataEPKcE19__PRETTY_FUNCTION__+0x58>
  403dc3:	48 89 85 80 fa ff ff 	mov    %rax,-0x580(%rbp)
  403dca:	f2 0f 10 85 80 fa ff 	movsd  -0x580(%rbp),%xmm0
  403dd1:	ff 
  403dd2:	bf 1e a3 40 00       	mov    $0x40a31e,%edi
  403dd7:	e8 2a 19 00 00       	callq  405706 <_ZN2CK8getenv_fEPKcd>
  403ddc:	f2 0f 5a c0          	cvtsd2ss %xmm0,%xmm0
  403de0:	f3 0f 11 85 94 fa ff 	movss  %xmm0,-0x56c(%rbp)
  403de7:	ff 
  403de8:	48 8d 95 94 fa ff ff 	lea    -0x56c(%rbp),%rdx
  403def:	8b 85 a4 fa ff ff    	mov    -0x55c(%rbp),%eax
  403df5:	48 89 d6             	mov    %rdx,%rsi
  403df8:	89 c7                	mov    %eax,%edi
  403dfa:	e8 88 2d 00 00       	callq  406b87 <_ZN2CK18get_const_raw_dataIfEEPT_iRKS1_>
  403dff:	48 89 85 c8 fa ff ff 	mov    %rax,-0x538(%rbp)
  403e06:	8b 85 a4 fa ff ff    	mov    -0x55c(%rbp),%eax
  403e0c:	48 98                	cltq   
  403e0e:	48 89 85 50 ff ff ff 	mov    %rax,-0xb0(%rbp)
  403e15:	48 8d 85 50 ff ff ff 	lea    -0xb0(%rbp),%rax
  403e1c:	49 89 c6             	mov    %rax,%r14
  403e1f:	41 bf 01 00 00 00    	mov    $0x1,%r15d
  403e25:	4c 89 f1             	mov    %r14,%rcx
  403e28:	4c 89 fb             	mov    %r15,%rbx
  403e2b:	4c 89 f0             	mov    %r14,%rax
  403e2e:	4c 89 fa             	mov    %r15,%rdx
  403e31:	48 8d 85 f0 fc ff ff 	lea    -0x310(%rbp),%rax
  403e38:	48 89 ce             	mov    %rcx,%rsi
  403e3b:	48 89 c7             	mov    %rax,%rdi
  403e3e:	e8 7d 1e 00 00       	callq  405cc0 <_ZN10tensorflow11TensorShapeC1ESt16initializer_listIxE>
  403e43:	48 8d 95 f0 fc ff ff 	lea    -0x310(%rbp),%rdx
  403e4a:	48 8d 85 70 fd ff ff 	lea    -0x290(%rbp),%rax
  403e51:	be 01 00 00 00       	mov    $0x1,%esi
  403e56:	48 89 c7             	mov    %rax,%rdi
  403e59:	e8 82 f0 ff ff       	callq  402ee0 <_ZN10tensorflow6TensorC1ENS_8DataTypeERKNS_11TensorShapeE@plt>
  403e5e:	48 8d 85 f0 fc ff ff 	lea    -0x310(%rbp),%rax
  403e65:	48 89 c7             	mov    %rax,%rdi
  403e68:	e8 49 11 00 00       	callq  404fb6 <_ZN10tensorflow11TensorShapeD1Ev>
  403e6d:	8b 85 a4 fa ff ff    	mov    -0x55c(%rbp),%eax
  403e73:	48 98                	cltq   
  403e75:	48 8d 1c 85 00 00 00 	lea    0x0(,%rax,4),%rbx
  403e7c:	00 
  403e7d:	48 8d 85 70 fd ff ff 	lea    -0x290(%rbp),%rax
  403e84:	48 89 c7             	mov    %rax,%rdi
  403e87:	e8 5c 2c 00 00       	callq  406ae8 <_ZN10tensorflow6Tensor4flatIfEENS_6TTypesIT_Li1ElE4FlatEv>
  403e8c:	48 89 85 70 fc ff ff 	mov    %rax,-0x390(%rbp)
  403e93:	48 89 95 78 fc ff ff 	mov    %rdx,-0x388(%rbp)
  403e9a:	48 8d 85 70 fc ff ff 	lea    -0x390(%rbp),%rax
  403ea1:	48 89 c7             	mov    %rax,%rdi
  403ea4:	e8 cd 2c 00 00       	callq  406b76 <_ZN5Eigen9TensorMapINS_6TensorIfLi1ELi1ElEELi16ENS_11MakePointerEE4dataEv>
  403ea9:	48 89 c1             	mov    %rax,%rcx
  403eac:	48 8b 85 c8 fa ff ff 	mov    -0x538(%rbp),%rax
  403eb3:	48 89 da             	mov    %rbx,%rdx
  403eb6:	48 89 c6             	mov    %rax,%rsi
  403eb9:	48 89 cf             	mov    %rcx,%rdi
  403ebc:	e8 ff f2 ff ff       	callq  4031c0 <memcpy@plt>
  403ec1:	48 83 bd c8 fa ff ff 	cmpq   $0x0,-0x538(%rbp)
  403ec8:	00 
  403ec9:	74 0f                	je     403eda <main+0x6b4>
  403ecb:	48 8b 85 c8 fa ff ff 	mov    -0x538(%rbp),%rax
  403ed2:	48 89 c7             	mov    %rax,%rdi
  403ed5:	e8 a6 f1 ff ff       	callq  403080 <_ZdaPv@plt>
  403eda:	48 8d 85 10 fb ff ff 	lea    -0x4f0(%rbp),%rax
  403ee1:	48 89 c7             	mov    %rax,%rdi
  403ee4:	e8 13 2d 00 00       	callq  406bfc <_ZNSt6vectorIN10tensorflow6TensorESaIS1_EEC1Ev>
  403ee9:	48 c7 85 d0 fa ff ff 	movq   $0x40a335,-0x530(%rbp)
  403ef0:	35 a3 40 00 
  403ef4:	c7 85 50 ff ff ff 01 	movl   $0x1,-0xb0(%rbp)
  403efb:	00 00 00 
  403efe:	8b 85 e8 fa ff ff    	mov    -0x518(%rbp),%eax
  403f04:	89 85 54 ff ff ff    	mov    %eax,-0xac(%rbp)
  403f0a:	8b 85 e8 fa ff ff    	mov    -0x518(%rbp),%eax
  403f10:	89 85 58 ff ff ff    	mov    %eax,-0xa8(%rbp)
  403f16:	c7 85 5c ff ff ff 01 	movl   $0x1,-0xa4(%rbp)
  403f1d:	00 00 00 
  403f20:	48 8d 85 50 ff ff ff 	lea    -0xb0(%rbp),%rax
  403f27:	49 89 c4             	mov    %rax,%r12
  403f2a:	41 bd 04 00 00 00    	mov    $0x4,%r13d
  403f30:	48 8d 85 10 fc ff ff 	lea    -0x3f0(%rbp),%rax
  403f37:	48 89 c7             	mov    %rax,%rdi
  403f3a:	e8 1d 2d 00 00       	callq  406c5c <_ZNSaIiEC1Ev>
  403f3f:	48 8d 95 10 fc ff ff 	lea    -0x3f0(%rbp),%rdx
  403f46:	4c 89 e6             	mov    %r12,%rsi
  403f49:	4c 89 ef             	mov    %r13,%rdi
  403f4c:	4c 89 e1             	mov    %r12,%rcx
  403f4f:	4c 89 eb             	mov    %r13,%rbx
  403f52:	48 89 df             	mov    %rbx,%rdi
  403f55:	48 8d 85 30 fb ff ff 	lea    -0x4d0(%rbp),%rax
  403f5c:	48 89 d1             	mov    %rdx,%rcx
  403f5f:	48 89 fa             	mov    %rdi,%rdx
  403f62:	48 89 c7             	mov    %rax,%rdi
  403f65:	e8 60 2d 00 00       	callq  406cca <_ZNSt6vectorIiSaIiEEC1ESt16initializer_listIiERKS0_>
  403f6a:	48 8d 85 10 fc ff ff 	lea    -0x3f0(%rbp),%rax
  403f71:	48 89 c7             	mov    %rax,%rdi
  403f74:	e8 ff 2c 00 00       	callq  406c78 <_ZNSaIiED1Ev>
  403f79:	8b 85 ec fa ff ff    	mov    -0x514(%rbp),%eax
  403f7f:	85 c0                	test   %eax,%eax
  403f81:	75 07                	jne    403f8a <main+0x764>
  403f83:	ba 3f a3 40 00       	mov    $0x40a33f,%edx
  403f88:	eb 05                	jmp    403f8f <main+0x769>
  403f8a:	ba 45 a3 40 00       	mov    $0x40a345,%edx
  403f8f:	48 8d 85 10 fc ff ff 	lea    -0x3f0(%rbp),%rax
  403f96:	48 89 d6             	mov    %rdx,%rsi
  403f99:	48 89 c7             	mov    %rax,%rdi
  403f9c:	e8 83 08 00 00       	callq  404824 <_ZN10tensorflow11StringPieceC1EPKc>
  403fa1:	48 8d 95 30 fb ff ff 	lea    -0x4d0(%rbp),%rdx
  403fa8:	48 8d 85 e0 fb ff ff 	lea    -0x420(%rbp),%rax
  403faf:	48 89 d6             	mov    %rdx,%rsi
  403fb2:	48 89 c7             	mov    %rax,%rdi
  403fb5:	e8 0e 2e 00 00       	callq  406dc8 <_ZN10tensorflow3gtl10ArraySliceIiEC1ERKSt6vectorIiSaIiEE>
  403fba:	48 8d 95 50 fd ff ff 	lea    -0x2b0(%rbp),%rdx
  403fc1:	48 8d 85 50 fe ff ff 	lea    -0x1b0(%rbp),%rax
  403fc8:	48 89 d6             	mov    %rdx,%rsi
  403fcb:	48 89 c7             	mov    %rax,%rdi
  403fce:	e8 61 12 00 00       	callq  405234 <_ZN10tensorflow5InputC1ERKNS_6TensorE>
  403fd3:	48 8d 95 10 fd ff ff 	lea    -0x2f0(%rbp),%rdx
  403fda:	48 8d 85 d0 fd ff ff 	lea    -0x230(%rbp),%rax
  403fe1:	48 89 d6             	mov    %rdx,%rsi
  403fe4:	48 89 c7             	mov    %rax,%rdi
  403fe7:	e8 48 12 00 00       	callq  405234 <_ZN10tensorflow5InputC1ERKNS_6TensorE>
  403fec:	48 8d 85 b0 fb ff ff 	lea    -0x450(%rbp),%rax
  403ff3:	48 89 c7             	mov    %rax,%rdi
  403ff6:	e8 c5 ee ff ff       	callq  402ec0 <_ZNSaIcEC1Ev@plt>
  403ffb:	48 8d 95 b0 fb ff ff 	lea    -0x450(%rbp),%rdx
  404002:	48 8b 8d d0 fa ff ff 	mov    -0x530(%rbp),%rcx
  404009:	48 8d 85 90 fd ff ff 	lea    -0x270(%rbp),%rax
  404010:	48 89 ce             	mov    %rcx,%rsi
  404013:	48 89 c7             	mov    %rax,%rdi
  404016:	e8 15 f1 ff ff       	callq  403130 <_ZNSt7__cxx1112basic_stringIcSt11char_traitsIcESaIcEEC1EPKcRKS3_@plt>
  40401b:	48 8d 85 b0 fa ff ff 	lea    -0x550(%rbp),%rax
  404022:	48 8d 95 90 fd ff ff 	lea    -0x270(%rbp),%rdx
  404029:	48 8d 8d a8 fa ff ff 	lea    -0x558(%rbp),%rcx
  404030:	48 89 ce             	mov    %rcx,%rsi
  404033:	48 89 c7             	mov    %rax,%rdi
  404036:	e8 b5 f2 ff ff       	callq  4032f0 <_ZNK10tensorflow5Scope10WithOpNameERKNSt7__cxx1112basic_stringIcSt11char_traitsIcESaIcEEE@plt>
  40403b:	48 8d bd e0 fb ff ff 	lea    -0x420(%rbp),%rdi
  404042:	48 8d 8d 50 fe ff ff 	lea    -0x1b0(%rbp),%rcx
  404049:	48 8d 95 d0 fd ff ff 	lea    -0x230(%rbp),%rdx
  404050:	48 8d b5 b0 fa ff ff 	lea    -0x550(%rbp),%rsi
  404057:	48 8d 85 50 fb ff ff 	lea    -0x4b0(%rbp),%rax
  40405e:	ff b5 18 fc ff ff    	pushq  -0x3e8(%rbp)
  404064:	ff b5 10 fc ff ff    	pushq  -0x3f0(%rbp)
  40406a:	49 89 f8             	mov    %rdi,%r8
  40406d:	48 89 c7             	mov    %rax,%rdi
  404070:	e8 1b ef ff ff       	callq  402f90 <_ZN10tensorflow3ops6Conv2DC1ERKNS_5ScopeENS_5InputES5_RKNS_3gtl10ArraySliceIiEENS_11StringPieceE@plt>
  404075:	48 83 c4 10          	add    $0x10,%rsp
  404079:	48 8d 85 b0 fa ff ff 	lea    -0x550(%rbp),%rax
  404080:	48 89 c7             	mov    %rax,%rdi
  404083:	e8 d8 ee ff ff       	callq  402f60 <_ZN10tensorflow5ScopeD1Ev@plt>
  404088:	48 8d 85 90 fd ff ff 	lea    -0x270(%rbp),%rax
  40408f:	48 89 c7             	mov    %rax,%rdi
  404092:	e8 d9 ee ff ff       	callq  402f70 <_ZNSt7__cxx1112basic_stringIcSt11char_traitsIcESaIcEED1Ev@plt>
  404097:	48 8d 85 b0 fb ff ff 	lea    -0x450(%rbp),%rax
  40409e:	48 89 c7             	mov    %rax,%rdi
  4040a1:	e8 8a f2 ff ff       	callq  403330 <_ZNSaIcED1Ev@plt>
  4040a6:	48 8d 85 d0 fd ff ff 	lea    -0x230(%rbp),%rax
  4040ad:	48 89 c7             	mov    %rax,%rdi
  4040b0:	e8 f1 12 00 00       	callq  4053a6 <_ZN10tensorflow5InputD1Ev>
  4040b5:	48 8d 85 50 fe ff ff 	lea    -0x1b0(%rbp),%rax
  4040bc:	48 89 c7             	mov    %rax,%rdi
  4040bf:	e8 e2 12 00 00       	callq  4053a6 <_ZN10tensorflow5InputD1Ev>
  4040c4:	48 8d 95 70 fd ff ff 	lea    -0x290(%rbp),%rdx
  4040cb:	48 8d 85 50 ff ff ff 	lea    -0xb0(%rbp),%rax
  4040d2:	48 89 d6             	mov    %rdx,%rsi
  4040d5:	48 89 c7             	mov    %rax,%rdi
  4040d8:	e8 57 11 00 00       	callq  405234 <_ZN10tensorflow5InputC1ERKNS_6TensorE>
  4040dd:	48 8d 85 d0 fe ff ff 	lea    -0x130(%rbp),%rax
  4040e4:	48 8d 95 50 fb ff ff 	lea    -0x4b0(%rbp),%rdx
  4040eb:	48 89 d6             	mov    %rdx,%rsi
  4040ee:	48 89 c7             	mov    %rax,%rdi
  4040f1:	e8 64 14 00 00       	callq  40555a <_ZNK10tensorflow3ops6Conv2DcvNS_5InputEEv>
  4040f6:	48 8d 85 10 fc ff ff 	lea    -0x3f0(%rbp),%rax
  4040fd:	48 89 c7             	mov    %rax,%rdi
  404100:	e8 bb ed ff ff       	callq  402ec0 <_ZNSaIcEC1Ev@plt>
  404105:	48 8d 95 10 fc ff ff 	lea    -0x3f0(%rbp),%rdx
  40410c:	48 8d 85 b0 fd ff ff 	lea    -0x250(%rbp),%rax
  404113:	be 4a a3 40 00       	mov    $0x40a34a,%esi
  404118:	48 89 c7             	mov    %rax,%rdi
  40411b:	e8 10 f0 ff ff       	callq  403130 <_ZNSt7__cxx1112basic_stringIcSt11char_traitsIcESaIcEEC1EPKcRKS3_@plt>
  404120:	48 8d 85 b0 fb ff ff 	lea    -0x450(%rbp),%rax
  404127:	48 8d 95 b0 fd ff ff 	lea    -0x250(%rbp),%rdx
  40412e:	48 8d 8d a8 fa ff ff 	lea    -0x558(%rbp),%rcx
  404135:	48 89 ce             	mov    %rcx,%rsi
  404138:	48 89 c7             	mov    %rax,%rdi
  40413b:	e8 b0 f1 ff ff       	callq  4032f0 <_ZNK10tensorflow5Scope10WithOpNameERKNSt7__cxx1112basic_stringIcSt11char_traitsIcESaIcEEE@plt>
  404140:	48 8d 8d 50 ff ff ff 	lea    -0xb0(%rbp),%rcx
  404147:	48 8d 95 d0 fe ff ff 	lea    -0x130(%rbp),%rdx
  40414e:	48 8d b5 b0 fb ff ff 	lea    -0x450(%rbp),%rsi
  404155:	48 8d 85 80 fb ff ff 	lea    -0x480(%rbp),%rax
  40415c:	48 89 c7             	mov    %rax,%rdi
  40415f:	e8 8c ef ff ff       	callq  4030f0 <_ZN10tensorflow3ops7BiasAddC1ERKNS_5ScopeENS_5InputES5_@plt>
  404164:	48 8d 85 b0 fb ff ff 	lea    -0x450(%rbp),%rax
  40416b:	48 89 c7             	mov    %rax,%rdi
  40416e:	e8 ed ed ff ff       	callq  402f60 <_ZN10tensorflow5ScopeD1Ev@plt>
  404173:	48 8d 85 b0 fd ff ff 	lea    -0x250(%rbp),%rax
  40417a:	48 89 c7             	mov    %rax,%rdi
  40417d:	e8 ee ed ff ff       	callq  402f70 <_ZNSt7__cxx1112basic_stringIcSt11char_traitsIcESaIcEED1Ev@plt>
  404182:	48 8d 85 10 fc ff ff 	lea    -0x3f0(%rbp),%rax
  404189:	48 89 c7             	mov    %rax,%rdi
  40418c:	e8 9f f1 ff ff       	callq  403330 <_ZNSaIcED1Ev@plt>
  404191:	48 8d 85 d0 fe ff ff 	lea    -0x130(%rbp),%rax
  404198:	48 89 c7             	mov    %rax,%rdi
  40419b:	e8 06 12 00 00       	callq  4053a6 <_ZN10tensorflow5InputD1Ev>
  4041a0:	48 8d 85 50 ff ff ff 	lea    -0xb0(%rbp),%rax
  4041a7:	48 89 c7             	mov    %rax,%rdi
  4041aa:	e8 f7 11 00 00       	callq  4053a6 <_ZN10tensorflow5InputD1Ev>
  4041af:	48 8d 85 e0 fb ff ff 	lea    -0x420(%rbp),%rax
  4041b6:	48 89 c7             	mov    %rax,%rdi
  4041b9:	e8 62 f0 ff ff       	callq  403220 <_ZN10tensorflow10RunOptionsC1Ev@plt>
  4041be:	48 8d 85 e0 fb ff ff 	lea    -0x420(%rbp),%rax
  4041c5:	be 03 00 00 00       	mov    $0x3,%esi
  4041ca:	48 89 c7             	mov    %rax,%rdi
  4041cd:	e8 ec 12 00 00       	callq  4054be <_ZN10tensorflow10RunOptions15set_trace_levelENS_21RunOptions_TraceLevelE>
  4041d2:	48 8d 85 10 fc ff ff 	lea    -0x3f0(%rbp),%rax
  4041d9:	48 89 c7             	mov    %rax,%rdi
  4041dc:	e8 5f ef ff ff       	callq  403140 <_ZN10tensorflow11RunMetadataC1Ev@plt>
  4041e1:	48 8d 85 a8 fa ff ff 	lea    -0x558(%rbp),%rax
  4041e8:	48 89 85 b0 fb ff ff 	mov    %rax,-0x450(%rbp)
  4041ef:	48 8d 85 e0 fb ff ff 	lea    -0x420(%rbp),%rax
  4041f6:	48 89 85 b8 fb ff ff 	mov    %rax,-0x448(%rbp)
  4041fd:	48 8d 85 80 fb ff ff 	lea    -0x480(%rbp),%rax
  404204:	48 89 85 c0 fb ff ff 	mov    %rax,-0x440(%rbp)
  40420b:	48 8d 85 10 fb ff ff 	lea    -0x4f0(%rbp),%rax
  404212:	48 89 85 c8 fb ff ff 	mov    %rax,-0x438(%rbp)
  404219:	48 8d 85 10 fc ff ff 	lea    -0x3f0(%rbp),%rax
  404220:	48 89 85 d0 fb ff ff 	mov    %rax,-0x430(%rbp)
  404227:	48 8d 85 b0 fb ff ff 	lea    -0x450(%rbp),%rax
  40422e:	48 89 c7             	mov    %rax,%rdi
  404231:	e8 12 04 00 00       	callq  404648 <_ZN2CK12measure_testIZ4mainEUlvE_EEvOT_>
  404236:	48 8d 85 00 fb ff ff 	lea    -0x500(%rbp),%rax
  40423d:	48 89 c7             	mov    %rax,%rdi
  404240:	e8 93 13 00 00       	callq  4055d8 <_ZNK2CK5Shape10data_countEv>
  404245:	48 98                	cltq   
  404247:	48 ba fe ff ff ff ff 	movabs $0x1ffffffffffffffe,%rdx
  40424e:	ff ff 1f 
  404251:	48 39 d0             	cmp    %rdx,%rax
  404254:	77 0e                	ja     404264 <main+0xa3e>
  404256:	48 c1 e0 02          	shl    $0x2,%rax
  40425a:	48 89 c7             	mov    %rax,%rdi
  40425d:	e8 de ef ff ff       	callq  403240 <_Znam@plt>
  404262:	eb 05                	jmp    404269 <main+0xa43>
  404264:	e8 47 f0 ff ff       	callq  4032b0 <__cxa_throw_bad_array_new_length@plt>
  404269:	48 89 85 d8 fa ff ff 	mov    %rax,-0x528(%rbp)
  404270:	48 8d 85 00 fb ff ff 	lea    -0x500(%rbp),%rax
  404277:	48 89 c7             	mov    %rax,%rdi
  40427a:	e8 59 13 00 00       	callq  4055d8 <_ZNK2CK5Shape10data_countEv>
  40427f:	48 98                	cltq   
  404281:	48 8d 1c 85 00 00 00 	lea    0x0(,%rax,4),%rbx
  404288:	00 
  404289:	48 8d 85 10 fb ff ff 	lea    -0x4f0(%rbp),%rax
  404290:	be 00 00 00 00       	mov    $0x0,%esi
  404295:	48 89 c7             	mov    %rax,%rdi
  404298:	e8 77 2d 00 00       	callq  407014 <_ZNSt6vectorIN10tensorflow6TensorESaIS1_EEixEm>
  40429d:	48 89 c7             	mov    %rax,%rdi
  4042a0:	e8 43 28 00 00       	callq  406ae8 <_ZN10tensorflow6Tensor4flatIfEENS_6TTypesIT_Li1ElE4FlatEv>
  4042a5:	48 89 85 80 fc ff ff 	mov    %rax,-0x380(%rbp)
  4042ac:	48 89 95 88 fc ff ff 	mov    %rdx,-0x378(%rbp)
  4042b3:	48 8d 85 80 fc ff ff 	lea    -0x380(%rbp),%rax
  4042ba:	48 89 c7             	mov    %rax,%rdi
  4042bd:	e8 b4 28 00 00       	callq  406b76 <_ZN5Eigen9TensorMapINS_6TensorIfLi1ELi1ElEELi16ENS_11MakePointerEE4dataEv>
  4042c2:	48 89 c1             	mov    %rax,%rcx
  4042c5:	48 8b 85 d8 fa ff ff 	mov    -0x528(%rbp),%rax
  4042cc:	48 89 da             	mov    %rbx,%rdx
  4042cf:	48 89 ce             	mov    %rcx,%rsi
  4042d2:	48 89 c7             	mov    %rax,%rdi
  4042d5:	e8 e6 ee ff ff       	callq  4031c0 <memcpy@plt>
  4042da:	48 8d 95 00 fb ff ff 	lea    -0x500(%rbp),%rdx
  4042e1:	48 8b 85 d8 fa ff ff 	mov    -0x528(%rbp),%rax
  4042e8:	48 89 d6             	mov    %rdx,%rsi
  4042eb:	48 89 c7             	mov    %rax,%rdi
  4042ee:	e8 41 2d 00 00       	callq  407034 <_ZN2CK32convert_data_layout_NHWC_to_NCHWIfEEvPT_RKNS_5ShapeE>
  4042f3:	48 8d 95 00 fb ff ff 	lea    -0x500(%rbp),%rdx
  4042fa:	48 8b 85 d8 fa ff ff 	mov    -0x528(%rbp),%rax
  404301:	48 89 d6             	mov    %rdx,%rsi
  404304:	48 89 c7             	mov    %rax,%rdi
  404307:	e8 90 2e 00 00       	callq  40719c <_ZN2CK21print_output_raw_dataIfEEvPT_RKNS_5ShapeE>
  40430c:	48 8d 95 00 fb ff ff 	lea    -0x500(%rbp),%rdx
  404313:	48 8b 85 d8 fa ff ff 	mov    -0x528(%rbp),%rax
  40431a:	48 89 d6             	mov    %rdx,%rsi
  40431d:	48 89 c7             	mov    %rax,%rdi
  404320:	e8 a4 2e 00 00       	callq  4071c9 <_ZN2CK20dump_output_raw_dataIfEEvPT_RKNS_5ShapeE>
  404325:	48 83 bd d8 fa ff ff 	cmpq   $0x0,-0x528(%rbp)
  40432c:	00 
  40432d:	74 0f                	je     40433e <main+0xb18>
  40432f:	48 8b 85 d8 fa ff ff 	mov    -0x528(%rbp),%rax
  404336:	48 89 c7             	mov    %rax,%rdi
  404339:	e8 42 ed ff ff       	callq  403080 <_ZdaPv@plt>
  40433e:	48 8b 95 d0 fa ff ff 	mov    -0x530(%rbp),%rdx
  404345:	48 8d 85 10 fc ff ff 	lea    -0x3f0(%rbp),%rax
  40434c:	48 89 d6             	mov    %rdx,%rsi
  40434f:	48 89 c7             	mov    %rax,%rdi
  404352:	e8 a0 19 00 00       	callq  405cf7 <_ZN2CK2TF16process_metadataERKN10tensorflow11RunMetadataEPKc>
  404357:	e8 f5 16 00 00       	callq  405a51 <_ZN2CK11finish_testEv>
  40435c:	bb 00 00 00 00       	mov    $0x0,%ebx
  404361:	48 8d 85 10 fc ff ff 	lea    -0x3f0(%rbp),%rax
  404368:	48 89 c7             	mov    %rax,%rdi
  40436b:	e8 10 eb ff ff       	callq  402e80 <_ZN10tensorflow11RunMetadataD1Ev@plt>
  404370:	48 8d 85 e0 fb ff ff 	lea    -0x420(%rbp),%rax
  404377:	48 89 c7             	mov    %rax,%rdi
  40437a:	e8 71 ea ff ff       	callq  402df0 <_ZN10tensorflow10RunOptionsD1Ev@plt>
  40437f:	48 8d 85 80 fb ff ff 	lea    -0x480(%rbp),%rax
  404386:	48 89 c7             	mov    %rax,%rdi
  404389:	e8 3a 1a 00 00       	callq  405dc8 <_ZN10tensorflow3ops7BiasAddD1Ev>
  40438e:	48 8d 85 50 fb ff ff 	lea    -0x4b0(%rbp),%rax
  404395:	48 89 c7             	mov    %rax,%rdi
  404398:	e8 0f 1a 00 00       	callq  405dac <_ZN10tensorflow3ops6Conv2DD1Ev>
  40439d:	48 8d 85 30 fb ff ff 	lea    -0x4d0(%rbp),%rax
  4043a4:	48 89 c7             	mov    %rax,%rdi
  4043a7:	e8 d8 29 00 00       	callq  406d84 <_ZNSt6vectorIiSaIiEED1Ev>
  4043ac:	48 8d 85 10 fb ff ff 	lea    -0x4f0(%rbp),%rax
  4043b3:	48 89 c7             	mov    %rax,%rdi
  4043b6:	e8 5d 28 00 00       	callq  406c18 <_ZNSt6vectorIN10tensorflow6TensorESaIS1_EED1Ev>
  4043bb:	48 8d 85 70 fd ff ff 	lea    -0x290(%rbp),%rax
  4043c2:	48 89 c7             	mov    %rax,%rdi
  4043c5:	e8 c6 ea ff ff       	callq  402e90 <_ZN10tensorflow6TensorD1Ev@plt>
  4043ca:	48 8d 85 50 fd ff ff 	lea    -0x2b0(%rbp),%rax
  4043d1:	48 89 c7             	mov    %rax,%rdi
  4043d4:	e8 b7 ea ff ff       	callq  402e90 <_ZN10tensorflow6TensorD1Ev@plt>
  4043d9:	48 8d 85 30 fd ff ff 	lea    -0x2d0(%rbp),%rax
  4043e0:	48 89 c7             	mov    %rax,%rdi
  4043e3:	e8 a8 ea ff ff       	callq  402e90 <_ZN10tensorflow6TensorD1Ev@plt>
  4043e8:	48 8d 85 10 fd ff ff 	lea    -0x2f0(%rbp),%rax
  4043ef:	48 89 c7             	mov    %rax,%rdi
  4043f2:	e8 99 ea ff ff       	callq  402e90 <_ZN10tensorflow6TensorD1Ev@plt>
  4043f7:	48 8d 85 a8 fa ff ff 	lea    -0x558(%rbp),%rax
  4043fe:	48 89 c7             	mov    %rax,%rdi
  404401:	e8 5a eb ff ff       	callq  402f60 <_ZN10tensorflow5ScopeD1Ev@plt>
  404406:	89 d8                	mov    %ebx,%eax
  404408:	48 8b 4d c8          	mov    -0x38(%rbp),%rcx
  40440c:	64 48 33 0c 25 28 00 	xor    %fs:0x28,%rcx
  404413:	00 00 
  404415:	0f 84 1e 02 00 00    	je     404639 <main+0xe13>
  40441b:	e9 14 02 00 00       	jmpq   404634 <main+0xe0e>
  404420:	48 89 c3             	mov    %rax,%rbx
  404423:	48 8d 85 90 fc ff ff 	lea    -0x370(%rbp),%rax
  40442a:	48 89 c7             	mov    %rax,%rdi
  40442d:	e8 84 0b 00 00       	callq  404fb6 <_ZN10tensorflow11TensorShapeD1Ev>
  404432:	e9 e3 01 00 00       	jmpq   40461a <main+0xdf4>
  404437:	48 89 c3             	mov    %rax,%rbx
  40443a:	48 8d 85 b0 fc ff ff 	lea    -0x350(%rbp),%rax
  404441:	48 89 c7             	mov    %rax,%rdi
  404444:	e8 6d 0b 00 00       	callq  404fb6 <_ZN10tensorflow11TensorShapeD1Ev>
  404449:	e9 b8 01 00 00       	jmpq   404606 <main+0xde0>
  40444e:	48 89 c3             	mov    %rax,%rbx
  404451:	48 8d 85 d0 fc ff ff 	lea    -0x330(%rbp),%rax
  404458:	48 89 c7             	mov    %rax,%rdi
  40445b:	e8 56 0b 00 00       	callq  404fb6 <_ZN10tensorflow11TensorShapeD1Ev>
  404460:	e9 8d 01 00 00       	jmpq   4045f2 <main+0xdcc>
  404465:	48 89 c3             	mov    %rax,%rbx
  404468:	48 8d 85 f0 fc ff ff 	lea    -0x310(%rbp),%rax
  40446f:	48 89 c7             	mov    %rax,%rdi
  404472:	e8 3f 0b 00 00       	callq  404fb6 <_ZN10tensorflow11TensorShapeD1Ev>
  404477:	e9 62 01 00 00       	jmpq   4045de <main+0xdb8>
  40447c:	48 89 c3             	mov    %rax,%rbx
  40447f:	48 8d 85 10 fc ff ff 	lea    -0x3f0(%rbp),%rax
  404486:	48 89 c7             	mov    %rax,%rdi
  404489:	e8 ea 27 00 00       	callq  406c78 <_ZNSaIiED1Ev>
  40448e:	e9 23 01 00 00       	jmpq   4045b6 <main+0xd90>
  404493:	48 89 c3             	mov    %rax,%rbx
  404496:	48 8d 85 b0 fa ff ff 	lea    -0x550(%rbp),%rax
  40449d:	48 89 c7             	mov    %rax,%rdi
  4044a0:	e8 bb ea ff ff       	callq  402f60 <_ZN10tensorflow5ScopeD1Ev@plt>
  4044a5:	eb 03                	jmp    4044aa <main+0xc84>
  4044a7:	48 89 c3             	mov    %rax,%rbx
  4044aa:	48 8d 85 90 fd ff ff 	lea    -0x270(%rbp),%rax
  4044b1:	48 89 c7             	mov    %rax,%rdi
  4044b4:	e8 b7 ea ff ff       	callq  402f70 <_ZNSt7__cxx1112basic_stringIcSt11char_traitsIcESaIcEED1Ev@plt>
  4044b9:	eb 03                	jmp    4044be <main+0xc98>
  4044bb:	48 89 c3             	mov    %rax,%rbx
  4044be:	48 8d 85 b0 fb ff ff 	lea    -0x450(%rbp),%rax
  4044c5:	48 89 c7             	mov    %rax,%rdi
  4044c8:	e8 63 ee ff ff       	callq  403330 <_ZNSaIcED1Ev@plt>
  4044cd:	48 8d 85 d0 fd ff ff 	lea    -0x230(%rbp),%rax
  4044d4:	48 89 c7             	mov    %rax,%rdi
  4044d7:	e8 ca 0e 00 00       	callq  4053a6 <_ZN10tensorflow5InputD1Ev>
  4044dc:	eb 03                	jmp    4044e1 <main+0xcbb>
  4044de:	48 89 c3             	mov    %rax,%rbx
  4044e1:	48 8d 85 50 fe ff ff 	lea    -0x1b0(%rbp),%rax
  4044e8:	48 89 c7             	mov    %rax,%rdi
  4044eb:	e8 b6 0e 00 00       	callq  4053a6 <_ZN10tensorflow5InputD1Ev>
  4044f0:	e9 b2 00 00 00       	jmpq   4045a7 <main+0xd81>
  4044f5:	48 89 c3             	mov    %rax,%rbx
  4044f8:	48 8d 85 b0 fb ff ff 	lea    -0x450(%rbp),%rax
  4044ff:	48 89 c7             	mov    %rax,%rdi
  404502:	e8 59 ea ff ff       	callq  402f60 <_ZN10tensorflow5ScopeD1Ev@plt>
  404507:	eb 03                	jmp    40450c <main+0xce6>
  404509:	48 89 c3             	mov    %rax,%rbx
  40450c:	48 8d 85 b0 fd ff ff 	lea    -0x250(%rbp),%rax
  404513:	48 89 c7             	mov    %rax,%rdi
  404516:	e8 55 ea ff ff       	callq  402f70 <_ZNSt7__cxx1112basic_stringIcSt11char_traitsIcESaIcEED1Ev@plt>
  40451b:	eb 03                	jmp    404520 <main+0xcfa>
  40451d:	48 89 c3             	mov    %rax,%rbx
  404520:	48 8d 85 10 fc ff ff 	lea    -0x3f0(%rbp),%rax
  404527:	48 89 c7             	mov    %rax,%rdi
  40452a:	e8 01 ee ff ff       	callq  403330 <_ZNSaIcED1Ev@plt>
  40452f:	48 8d 85 d0 fe ff ff 	lea    -0x130(%rbp),%rax
  404536:	48 89 c7             	mov    %rax,%rdi
  404539:	e8 68 0e 00 00       	callq  4053a6 <_ZN10tensorflow5InputD1Ev>
  40453e:	eb 03                	jmp    404543 <main+0xd1d>
  404540:	48 89 c3             	mov    %rax,%rbx
  404543:	48 8d 85 50 ff ff ff 	lea    -0xb0(%rbp),%rax
  40454a:	48 89 c7             	mov    %rax,%rdi
  40454d:	e8 54 0e 00 00       	callq  4053a6 <_ZN10tensorflow5InputD1Ev>
  404552:	eb 3f                	jmp    404593 <main+0xd6d>
  404554:	48 89 c3             	mov    %rax,%rbx
  404557:	48 8d 85 10 fc ff ff 	lea    -0x3f0(%rbp),%rax
  40455e:	48 89 c7             	mov    %rax,%rdi
  404561:	e8 1a e9 ff ff       	callq  402e80 <_ZN10tensorflow11RunMetadataD1Ev@plt>
  404566:	eb 03                	jmp    40456b <main+0xd45>
  404568:	48 89 c3             	mov    %rax,%rbx
  40456b:	48 8d 85 e0 fb ff ff 	lea    -0x420(%rbp),%rax
  404572:	48 89 c7             	mov    %rax,%rdi
  404575:	e8 76 e8 ff ff       	callq  402df0 <_ZN10tensorflow10RunOptionsD1Ev@plt>
  40457a:	eb 03                	jmp    40457f <main+0xd59>
  40457c:	48 89 c3             	mov    %rax,%rbx
  40457f:	48 8d 85 80 fb ff ff 	lea    -0x480(%rbp),%rax
  404586:	48 89 c7             	mov    %rax,%rdi
  404589:	e8 3a 18 00 00       	callq  405dc8 <_ZN10tensorflow3ops7BiasAddD1Ev>
  40458e:	eb 03                	jmp    404593 <main+0xd6d>
  404590:	48 89 c3             	mov    %rax,%rbx
  404593:	48 8d 85 50 fb ff ff 	lea    -0x4b0(%rbp),%rax
  40459a:	48 89 c7             	mov    %rax,%rdi
  40459d:	e8 0a 18 00 00       	callq  405dac <_ZN10tensorflow3ops6Conv2DD1Ev>
  4045a2:	eb 03                	jmp    4045a7 <main+0xd81>
  4045a4:	48 89 c3             	mov    %rax,%rbx
  4045a7:	48 8d 85 30 fb ff ff 	lea    -0x4d0(%rbp),%rax
  4045ae:	48 89 c7             	mov    %rax,%rdi
  4045b1:	e8 ce 27 00 00       	callq  406d84 <_ZNSt6vectorIiSaIiEED1Ev>
  4045b6:	48 8d 85 10 fb ff ff 	lea    -0x4f0(%rbp),%rax
  4045bd:	48 89 c7             	mov    %rax,%rdi
  4045c0:	e8 53 26 00 00       	callq  406c18 <_ZNSt6vectorIN10tensorflow6TensorESaIS1_EED1Ev>
  4045c5:	eb 03                	jmp    4045ca <main+0xda4>
  4045c7:	48 89 c3             	mov    %rax,%rbx
  4045ca:	48 8d 85 70 fd ff ff 	lea    -0x290(%rbp),%rax
  4045d1:	48 89 c7             	mov    %rax,%rdi
  4045d4:	e8 b7 e8 ff ff       	callq  402e90 <_ZN10tensorflow6TensorD1Ev@plt>
  4045d9:	eb 03                	jmp    4045de <main+0xdb8>
  4045db:	48 89 c3             	mov    %rax,%rbx
  4045de:	48 8d 85 50 fd ff ff 	lea    -0x2b0(%rbp),%rax
  4045e5:	48 89 c7             	mov    %rax,%rdi
  4045e8:	e8 a3 e8 ff ff       	callq  402e90 <_ZN10tensorflow6TensorD1Ev@plt>
  4045ed:	eb 03                	jmp    4045f2 <main+0xdcc>
  4045ef:	48 89 c3             	mov    %rax,%rbx
  4045f2:	48 8d 85 30 fd ff ff 	lea    -0x2d0(%rbp),%rax
  4045f9:	48 89 c7             	mov    %rax,%rdi
  4045fc:	e8 8f e8 ff ff       	callq  402e90 <_ZN10tensorflow6TensorD1Ev@plt>
  404601:	eb 03                	jmp    404606 <main+0xde0>
  404603:	48 89 c3             	mov    %rax,%rbx
  404606:	48 8d 85 10 fd ff ff 	lea    -0x2f0(%rbp),%rax
  40460d:	48 89 c7             	mov    %rax,%rdi
  404610:	e8 7b e8 ff ff       	callq  402e90 <_ZN10tensorflow6TensorD1Ev@plt>
  404615:	eb 03                	jmp    40461a <main+0xdf4>
  404617:	48 89 c3             	mov    %rax,%rbx
  40461a:	48 8d 85 a8 fa ff ff 	lea    -0x558(%rbp),%rax
  404621:	48 89 c7             	mov    %rax,%rdi
  404624:	e8 37 e9 ff ff       	callq  402f60 <_ZN10tensorflow5ScopeD1Ev@plt>
  404629:	48 89 d8             	mov    %rbx,%rax
  40462c:	48 89 c7             	mov    %rax,%rdi
  40462f:	e8 cc ea ff ff       	callq  403100 <_Unwind_Resume@plt>
  404634:	e8 e7 e7 ff ff       	callq  402e20 <__stack_chk_fail@plt>
  404639:	48 8d 65 d8          	lea    -0x28(%rbp),%rsp
  40463d:	5b                   	pop    %rbx
  40463e:	41 5c                	pop    %r12
  404640:	41 5d                	pop    %r13
  404642:	41 5e                	pop    %r14
  404644:	41 5f                	pop    %r15
  404646:	5d                   	pop    %rbp
  404647:	c3                   	retq   

0000000000404648 <_ZN2CK12measure_testIZ4mainEUlvE_EEvOT_>:
  404648:	55                   	push   %rbp
  404649:	48 89 e5             	mov    %rsp,%rbp
  40464c:	48 83 ec 10          	sub    $0x10,%rsp
  404650:	48 89 7d f8          	mov    %rdi,-0x8(%rbp)
  404654:	48 8b 45 f8          	mov    -0x8(%rbp),%rax
  404658:	be 01 00 00 00       	mov    $0x1,%esi
  40465d:	48 89 c7             	mov    %rax,%rdi
  404660:	e8 16 00 00 00       	callq  40467b <_ZN2CK11do_measuredIRZ4mainEUlvE_EEvOT_i>
  404665:	bf 01 00 00 00       	mov    $0x1,%edi
  40466a:	e8 e1 eb ff ff       	callq  403250 <xopenme_get_timer@plt>
  40466f:	f2 0f 5a c0          	cvtsd2ss %xmm0,%xmm0
  404673:	e8 4d ee ff ff       	callq  4034c5 <_ZN2CK15store_test_timeEf>
  404678:	90                   	nop
  404679:	c9                   	leaveq 
  40467a:	c3                   	retq   

000000000040467b <_ZN2CK11do_measuredIRZ4mainEUlvE_EEvOT_i>:
  40467b:	55                   	push   %rbp
  40467c:	48 89 e5             	mov    %rsp,%rbp
  40467f:	48 83 ec 10          	sub    $0x10,%rsp
  404683:	48 89 7d f8          	mov    %rdi,-0x8(%rbp)
  404687:	89 75 f4             	mov    %esi,-0xc(%rbp)
  40468a:	8b 45 f4             	mov    -0xc(%rbp),%eax
  40468d:	89 c7                	mov    %eax,%edi
  40468f:	e8 cc e7 ff ff       	callq  402e60 <xopenme_clock_start@plt>
  404694:	48 8b 45 f8          	mov    -0x8(%rbp),%rax
  404698:	48 89 c7             	mov    %rax,%rdi
  40469b:	e8 50 ee ff ff       	callq  4034f0 <_ZZ4mainENKUlvE_clEv>
  4046a0:	8b 45 f4             	mov    -0xc(%rbp),%eax
  4046a3:	89 c7                	mov    %eax,%edi
  4046a5:	e8 b6 eb ff ff       	callq  403260 <xopenme_clock_end@plt>
  4046aa:	90                   	nop
  4046ab:	c9                   	leaveq 
  4046ac:	c3                   	retq   

00000000004046ad <_Z41__static_initialization_and_destruction_0ii>:
  4046ad:	55                   	push   %rbp
  4046ae:	48 89 e5             	mov    %rsp,%rbp
  4046b1:	53                   	push   %rbx
  4046b2:	48 83 ec 28          	sub    $0x28,%rsp
  4046b6:	89 7d dc             	mov    %edi,-0x24(%rbp)
  4046b9:	89 75 d8             	mov    %esi,-0x28(%rbp)
  4046bc:	64 48 8b 04 25 28 00 	mov    %fs:0x28,%rax
  4046c3:	00 00 
  4046c5:	48 89 45 e8          	mov    %rax,-0x18(%rbp)
  4046c9:	31 c0                	xor    %eax,%eax
  4046cb:	83 7d dc 01          	cmpl   $0x1,-0x24(%rbp)
  4046cf:	75 53                	jne    404724 <_Z41__static_initialization_and_destruction_0ii+0x77>
  4046d1:	81 7d d8 ff ff 00 00 	cmpl   $0xffff,-0x28(%rbp)
  4046d8:	75 4a                	jne    404724 <_Z41__static_initialization_and_destruction_0ii+0x77>
  4046da:	bf d1 f4 60 00       	mov    $0x60f4d1,%edi
  4046df:	e8 ca 19 00 00       	callq  4060ae <_ZN5Eigen8Symbolic10SymbolExprINS_12placeholders8internal17symbolic_last_tagEEC1Ev>
  4046e4:	e8 e0 19 00 00       	callq  4060c9 <_ZN5Eigen3fixILi1EEENS_8internal8FixedIntIXT_EEEv>
  4046e9:	48 83 ec 08          	sub    $0x8,%rsp
  4046ed:	53                   	push   %rbx
  4046ee:	bf d1 f4 60 00       	mov    $0x60f4d1,%edi
  4046f3:	e8 12 1a 00 00       	callq  40610a <_ZNK5Eigen8Symbolic8BaseExprINS0_10SymbolExprINS_12placeholders8internal17symbolic_last_tagEEEEplILi1EEENS0_7AddExprIS6_NS0_9ValueExprINS_8internal8FixedIntIXT_EEEEEEESD_>
  4046f8:	48 83 c4 10          	add    $0x10,%rsp
  4046fc:	bf d4 f4 60 00       	mov    $0x60f4d4,%edi
  404701:	e8 c4 00 00 00       	callq  4047ca <_ZN5Eigen8internal5all_tC1Ev>
  404706:	bf d5 f4 60 00       	mov    $0x60f4d5,%edi
  40470b:	e8 00 ec ff ff       	callq  403310 <_ZNSt8ios_base4InitC1Ev@plt>
  404710:	ba d0 f2 60 00       	mov    $0x60f2d0,%edx
  404715:	be d5 f4 60 00       	mov    $0x60f4d5,%esi
  40471a:	bf 90 32 40 00       	mov    $0x403290,%edi
  40471f:	e8 7c e7 ff ff       	callq  402ea0 <__cxa_atexit@plt>
  404724:	90                   	nop
  404725:	48 8b 45 e8          	mov    -0x18(%rbp),%rax
  404729:	64 48 33 04 25 28 00 	xor    %fs:0x28,%rax
  404730:	00 00 
  404732:	74 05                	je     404739 <_Z41__static_initialization_and_destruction_0ii+0x8c>
  404734:	e8 e7 e6 ff ff       	callq  402e20 <__stack_chk_fail@plt>
  404739:	48 8b 5d f8          	mov    -0x8(%rbp),%rbx
  40473d:	c9                   	leaveq 
  40473e:	c3                   	retq   

000000000040473f <_GLOBAL__sub_I__ZN2CK16store_setup_timeEf>:
  40473f:	55                   	push   %rbp
  404740:	48 89 e5             	mov    %rsp,%rbp
  404743:	be ff ff 00 00       	mov    $0xffff,%esi
  404748:	bf 01 00 00 00       	mov    $0x1,%edi
  40474d:	e8 5b ff ff ff       	callq  4046ad <_Z41__static_initialization_and_destruction_0ii>
  404752:	5d                   	pop    %rbp
  404753:	c3                   	retq   

0000000000404754 <_ZnwmPv>:
  404754:	55                   	push   %rbp
  404755:	48 89 e5             	mov    %rsp,%rbp
  404758:	48 89 7d f8          	mov    %rdi,-0x8(%rbp)
  40475c:	48 89 75 f0          	mov    %rsi,-0x10(%rbp)
  404760:	48 8b 45 f0          	mov    -0x10(%rbp),%rax
  404764:	5d                   	pop    %rbp
  404765:	c3                   	retq   

0000000000404766 <_ZdlPvS_>:
  404766:	55                   	push   %rbp
  404767:	48 89 e5             	mov    %rsp,%rbp
  40476a:	48 89 7d f8          	mov    %rdi,-0x8(%rbp)
  40476e:	48 89 75 f0          	mov    %rsi,-0x10(%rbp)
  404772:	90                   	nop
  404773:	5d                   	pop    %rbp
  404774:	c3                   	retq   

0000000000404775 <_ZStanSt12memory_orderSt23__memory_order_modifier>:
  404775:	55                   	push   %rbp
  404776:	48 89 e5             	mov    %rsp,%rbp
  404779:	89 7d fc             	mov    %edi,-0x4(%rbp)
  40477c:	89 75 f8             	mov    %esi,-0x8(%rbp)
  40477f:	8b 55 fc             	mov    -0x4(%rbp),%edx
  404782:	8b 45 f8             	mov    -0x8(%rbp),%eax
  404785:	21 d0                	and    %edx,%eax
  404787:	5d                   	pop    %rbp
  404788:	c3                   	retq   
  404789:	90                   	nop

000000000040478a <_ZNSt8__detail15_Hash_node_baseC1Ev>:
  40478a:	55                   	push   %rbp
  40478b:	48 89 e5             	mov    %rsp,%rbp
  40478e:	48 89 7d f8          	mov    %rdi,-0x8(%rbp)
  404792:	48 8b 45 f8          	mov    -0x8(%rbp),%rax
  404796:	48 c7 00 00 00 00 00 	movq   $0x0,(%rax)
  40479d:	90                   	nop
  40479e:	5d                   	pop    %rbp
  40479f:	c3                   	retq   

00000000004047a0 <_ZNSt8__detail20_Prime_rehash_policyC1Ef>:
  4047a0:	55                   	push   %rbp
  4047a1:	48 89 e5             	mov    %rsp,%rbp
  4047a4:	48 89 7d f8          	mov    %rdi,-0x8(%rbp)
  4047a8:	f3 0f 11 45 f4       	movss  %xmm0,-0xc(%rbp)
  4047ad:	48 8b 45 f8          	mov    -0x8(%rbp),%rax
  4047b1:	f3 0f 10 45 f4       	movss  -0xc(%rbp),%xmm0
  4047b6:	f3 0f 11 00          	movss  %xmm0,(%rax)
  4047ba:	48 8b 45 f8          	mov    -0x8(%rbp),%rax
  4047be:	48 c7 40 08 00 00 00 	movq   $0x0,0x8(%rax)
  4047c5:	00 
  4047c6:	90                   	nop
  4047c7:	5d                   	pop    %rbp
  4047c8:	c3                   	retq   
  4047c9:	90                   	nop

00000000004047ca <_ZN5Eigen8internal5all_tC1Ev>:
  4047ca:	55                   	push   %rbp
  4047cb:	48 89 e5             	mov    %rsp,%rbp
  4047ce:	48 89 7d f8          	mov    %rdi,-0x8(%rbp)
  4047d2:	90                   	nop
  4047d3:	5d                   	pop    %rbp
  4047d4:	c3                   	retq   
  4047d5:	90                   	nop

00000000004047d6 <_ZNK6google8protobuf8internal14ArenaStringPtr3GetB5cxx11Ev>:
  4047d6:	55                   	push   %rbp
  4047d7:	48 89 e5             	mov    %rsp,%rbp
  4047da:	48 89 7d f8          	mov    %rdi,-0x8(%rbp)
  4047de:	48 8b 45 f8          	mov    -0x8(%rbp),%rax
  4047e2:	48 8b 00             	mov    (%rax),%rax
  4047e5:	5d                   	pop    %rbp
  4047e6:	c3                   	retq   
  4047e7:	90                   	nop

00000000004047e8 <_ZNK6google8protobuf8internal20RepeatedPtrFieldBase4sizeEv>:
  4047e8:	55                   	push   %rbp
  4047e9:	48 89 e5             	mov    %rsp,%rbp
  4047ec:	48 89 7d f8          	mov    %rdi,-0x8(%rbp)
  4047f0:	48 8b 45 f8          	mov    -0x8(%rbp),%rax
  4047f4:	8b 40 08             	mov    0x8(%rax),%eax
  4047f7:	5d                   	pop    %rbp
  4047f8:	c3                   	retq   
  4047f9:	90                   	nop

00000000004047fa <_ZNK6google8protobuf8internal20RepeatedPtrFieldBase8raw_dataEv>:
  4047fa:	55                   	push   %rbp
  4047fb:	48 89 e5             	mov    %rsp,%rbp
  4047fe:	48 89 7d f8          	mov    %rdi,-0x8(%rbp)
  404802:	48 8b 45 f8          	mov    -0x8(%rbp),%rax
  404806:	48 8b 40 10          	mov    0x10(%rax),%rax
  40480a:	48 85 c0             	test   %rax,%rax
  40480d:	74 0e                	je     40481d <_ZNK6google8protobuf8internal20RepeatedPtrFieldBase8raw_dataEv+0x23>
  40480f:	48 8b 45 f8          	mov    -0x8(%rbp),%rax
  404813:	48 8b 40 10          	mov    0x10(%rax),%rax
  404817:	48 83 c0 08          	add    $0x8,%rax
  40481b:	eb 05                	jmp    404822 <_ZNK6google8protobuf8internal20RepeatedPtrFieldBase8raw_dataEv+0x28>
  40481d:	b8 00 00 00 00       	mov    $0x0,%eax
  404822:	5d                   	pop    %rbp
  404823:	c3                   	retq   

0000000000404824 <_ZN10tensorflow11StringPieceC1EPKc>:
  404824:	55                   	push   %rbp
  404825:	48 89 e5             	mov    %rsp,%rbp
  404828:	48 83 ec 10          	sub    $0x10,%rsp
  40482c:	48 89 7d f8          	mov    %rdi,-0x8(%rbp)
  404830:	48 89 75 f0          	mov    %rsi,-0x10(%rbp)
  404834:	48 8b 45 f8          	mov    -0x8(%rbp),%rax
  404838:	48 8b 55 f0          	mov    -0x10(%rbp),%rdx
  40483c:	48 89 10             	mov    %rdx,(%rax)
  40483f:	48 8b 45 f0          	mov    -0x10(%rbp),%rax
  404843:	48 89 c7             	mov    %rax,%rdi
  404846:	e8 55 e8 ff ff       	callq  4030a0 <strlen@plt>
  40484b:	48 89 c2             	mov    %rax,%rdx
  40484e:	48 8b 45 f8          	mov    -0x8(%rbp),%rax
  404852:	48 89 50 08          	mov    %rdx,0x8(%rax)
  404856:	90                   	nop
  404857:	c9                   	leaveq 
  404858:	c3                   	retq   

0000000000404859 <_ZN10tensorflow8internal21GetReferenceableValueEi>:
  404859:	55                   	push   %rbp
  40485a:	48 89 e5             	mov    %rsp,%rbp
  40485d:	89 7d fc             	mov    %edi,-0x4(%rbp)
  404860:	8b 45 fc             	mov    -0x4(%rbp),%eax
  404863:	5d                   	pop    %rbp
  404864:	c3                   	retq   

0000000000404865 <_ZN10tensorflow8internal21GetReferenceableValueEl>:
  404865:	55                   	push   %rbp
  404866:	48 89 e5             	mov    %rsp,%rbp
  404869:	48 89 7d f8          	mov    %rdi,-0x8(%rbp)
  40486d:	48 8b 45 f8          	mov    -0x8(%rbp),%rax
  404871:	5d                   	pop    %rbp
  404872:	c3                   	retq   

0000000000404873 <_ZN10tensorflow8internal21GetReferenceableValueEm>:
  404873:	55                   	push   %rbp
  404874:	48 89 e5             	mov    %rsp,%rbp
  404877:	48 89 7d f8          	mov    %rdi,-0x8(%rbp)
  40487b:	48 8b 45 f8          	mov    -0x8(%rbp),%rax
  40487f:	5d                   	pop    %rbp
  404880:	c3                   	retq   

0000000000404881 <_ZN10tensorflow8internal21GetReferenceableValueEx>:
  404881:	55                   	push   %rbp
  404882:	48 89 e5             	mov    %rsp,%rbp
  404885:	48 89 7d f8          	mov    %rdi,-0x8(%rbp)
  404889:	48 8b 45 f8          	mov    -0x8(%rbp),%rax
  40488d:	5d                   	pop    %rbp
  40488e:	c3                   	retq   
  40488f:	90                   	nop

0000000000404890 <_ZN10tensorflow8internal13CheckOpStringC1EPNSt7__cxx1112basic_stringIcSt11char_traitsIcESaIcEEE>:
  404890:	55                   	push   %rbp
  404891:	48 89 e5             	mov    %rsp,%rbp
  404894:	48 89 7d f8          	mov    %rdi,-0x8(%rbp)
  404898:	48 89 75 f0          	mov    %rsi,-0x10(%rbp)
  40489c:	48 8b 45 f8          	mov    -0x8(%rbp),%rax
  4048a0:	48 8b 55 f0          	mov    -0x10(%rbp),%rdx
  4048a4:	48 89 10             	mov    %rdx,(%rax)
  4048a7:	90                   	nop
  4048a8:	5d                   	pop    %rbp
  4048a9:	c3                   	retq   

00000000004048aa <_ZNK10tensorflow8internal13CheckOpStringcvbEv>:
  4048aa:	55                   	push   %rbp
  4048ab:	48 89 e5             	mov    %rsp,%rbp
  4048ae:	48 89 7d f8          	mov    %rdi,-0x8(%rbp)
  4048b2:	48 8b 45 f8          	mov    -0x8(%rbp),%rax
  4048b6:	48 8b 00             	mov    (%rax),%rax
  4048b9:	48 85 c0             	test   %rax,%rax
  4048bc:	0f 95 c0             	setne  %al
  4048bf:	5d                   	pop    %rbp
  4048c0:	c3                   	retq   
  4048c1:	90                   	nop

00000000004048c2 <_ZN10tensorflow8internal21CheckOpMessageBuilder7ForVar1Ev>:
  4048c2:	55                   	push   %rbp
  4048c3:	48 89 e5             	mov    %rsp,%rbp
  4048c6:	48 89 7d f8          	mov    %rdi,-0x8(%rbp)
  4048ca:	48 8b 45 f8          	mov    -0x8(%rbp),%rax
  4048ce:	48 8b 00             	mov    (%rax),%rax
  4048d1:	5d                   	pop    %rbp
  4048d2:	c3                   	retq   
  4048d3:	90                   	nop

00000000004048d4 <_ZNSt14default_deleteIN10tensorflow6Status5StateEEC1Ev>:
  4048d4:	55                   	push   %rbp
  4048d5:	48 89 e5             	mov    %rsp,%rbp
  4048d8:	48 89 7d f8          	mov    %rdi,-0x8(%rbp)
  4048dc:	90                   	nop
  4048dd:	5d                   	pop    %rbp
  4048de:	c3                   	retq   
  4048df:	90                   	nop

00000000004048e0 <_ZNSt10_Head_baseILm1ESt14default_deleteIN10tensorflow6Status5StateEELb1EEC2Ev>:
  4048e0:	55                   	push   %rbp
  4048e1:	48 89 e5             	mov    %rsp,%rbp
  4048e4:	48 83 ec 10          	sub    $0x10,%rsp
  4048e8:	48 89 7d f8          	mov    %rdi,-0x8(%rbp)
  4048ec:	48 8b 45 f8          	mov    -0x8(%rbp),%rax
  4048f0:	48 89 c7             	mov    %rax,%rdi
  4048f3:	e8 dc ff ff ff       	callq  4048d4 <_ZNSt14default_deleteIN10tensorflow6Status5StateEEC1Ev>
  4048f8:	90                   	nop
  4048f9:	c9                   	leaveq 
  4048fa:	c3                   	retq   
  4048fb:	90                   	nop

00000000004048fc <_ZNSt11_Tuple_implILm1EJSt14default_deleteIN10tensorflow6Status5StateEEEEC2Ev>:
  4048fc:	55                   	push   %rbp
  4048fd:	48 89 e5             	mov    %rsp,%rbp
  404900:	48 83 ec 10          	sub    $0x10,%rsp
  404904:	48 89 7d f8          	mov    %rdi,-0x8(%rbp)
  404908:	48 8b 45 f8          	mov    -0x8(%rbp),%rax
  40490c:	48 89 c7             	mov    %rax,%rdi
  40490f:	e8 cc ff ff ff       	callq  4048e0 <_ZNSt10_Head_baseILm1ESt14default_deleteIN10tensorflow6Status5StateEELb1EEC2Ev>
  404914:	90                   	nop
  404915:	c9                   	leaveq 
  404916:	c3                   	retq   
  404917:	90                   	nop

0000000000404918 <_ZNSt10_Head_baseILm0EPN10tensorflow6Status5StateELb0EEC2Ev>:
  404918:	55                   	push   %rbp
  404919:	48 89 e5             	mov    %rsp,%rbp
  40491c:	48 89 7d f8          	mov    %rdi,-0x8(%rbp)
  404920:	48 8b 45 f8          	mov    -0x8(%rbp),%rax
  404924:	48 c7 00 00 00 00 00 	movq   $0x0,(%rax)
  40492b:	90                   	nop
  40492c:	5d                   	pop    %rbp
  40492d:	c3                   	retq   

000000000040492e <_ZNSt11_Tuple_implILm0EJPN10tensorflow6Status5StateESt14default_deleteIS2_EEEC2Ev>:
  40492e:	55                   	push   %rbp
  40492f:	48 89 e5             	mov    %rsp,%rbp
  404932:	48 83 ec 10          	sub    $0x10,%rsp
  404936:	48 89 7d f8          	mov    %rdi,-0x8(%rbp)
  40493a:	48 8b 45 f8          	mov    -0x8(%rbp),%rax
  40493e:	48 89 c7             	mov    %rax,%rdi
  404941:	e8 b6 ff ff ff       	callq  4048fc <_ZNSt11_Tuple_implILm1EJSt14default_deleteIN10tensorflow6Status5StateEEEEC2Ev>
  404946:	48 8b 45 f8          	mov    -0x8(%rbp),%rax
  40494a:	48 89 c7             	mov    %rax,%rdi
  40494d:	e8 c6 ff ff ff       	callq  404918 <_ZNSt10_Head_baseILm0EPN10tensorflow6Status5StateELb0EEC2Ev>
  404952:	90                   	nop
  404953:	c9                   	leaveq 
  404954:	c3                   	retq   
  404955:	90                   	nop

0000000000404956 <_ZNSt5tupleIJPN10tensorflow6Status5StateESt14default_deleteIS2_EEEC1IS3_S5_Lb1EEEv>:
  404956:	55                   	push   %rbp
  404957:	48 89 e5             	mov    %rsp,%rbp
  40495a:	48 83 ec 10          	sub    $0x10,%rsp
  40495e:	48 89 7d f8          	mov    %rdi,-0x8(%rbp)
  404962:	48 8b 45 f8          	mov    -0x8(%rbp),%rax
  404966:	48 89 c7             	mov    %rax,%rdi
  404969:	e8 c0 ff ff ff       	callq  40492e <_ZNSt11_Tuple_implILm0EJPN10tensorflow6Status5StateESt14default_deleteIS2_EEEC2Ev>
  40496e:	90                   	nop
  40496f:	c9                   	leaveq 
  404970:	c3                   	retq   
  404971:	90                   	nop

0000000000404972 <_ZNSt10unique_ptrIN10tensorflow6Status5StateESt14default_deleteIS2_EEC1Ev>:
  404972:	55                   	push   %rbp
  404973:	48 89 e5             	mov    %rsp,%rbp
  404976:	48 83 ec 10          	sub    $0x10,%rsp
  40497a:	48 89 7d f8          	mov    %rdi,-0x8(%rbp)
  40497e:	48 8b 45 f8          	mov    -0x8(%rbp),%rax
  404982:	48 89 c7             	mov    %rax,%rdi
  404985:	e8 cc ff ff ff       	callq  404956 <_ZNSt5tupleIJPN10tensorflow6Status5StateESt14default_deleteIS2_EEEC1IS3_S5_Lb1EEEv>
  40498a:	90                   	nop
  40498b:	c9                   	leaveq 
  40498c:	c3                   	retq   
  40498d:	90                   	nop

000000000040498e <_ZN10tensorflow6StatusC1Ev>:
  40498e:	55                   	push   %rbp
  40498f:	48 89 e5             	mov    %rsp,%rbp
  404992:	48 83 ec 10          	sub    $0x10,%rsp
  404996:	48 89 7d f8          	mov    %rdi,-0x8(%rbp)
  40499a:	48 8b 45 f8          	mov    -0x8(%rbp),%rax
  40499e:	48 89 c7             	mov    %rax,%rdi
  4049a1:	e8 cc ff ff ff       	callq  404972 <_ZNSt10unique_ptrIN10tensorflow6Status5StateESt14default_deleteIS2_EEC1Ev>
  4049a6:	90                   	nop
  4049a7:	c9                   	leaveq 
  4049a8:	c3                   	retq   
  4049a9:	90                   	nop

00000000004049aa <_ZN10tensorflow6StatusD1Ev>:
  4049aa:	55                   	push   %rbp
  4049ab:	48 89 e5             	mov    %rsp,%rbp
  4049ae:	48 83 ec 10          	sub    $0x10,%rsp
  4049b2:	48 89 7d f8          	mov    %rdi,-0x8(%rbp)
  4049b6:	48 8b 45 f8          	mov    -0x8(%rbp),%rax
  4049ba:	48 89 c7             	mov    %rax,%rdi
  4049bd:	e8 52 18 00 00       	callq  406214 <_ZNSt10unique_ptrIN10tensorflow6Status5StateESt14default_deleteIS2_EED1Ev>
  4049c2:	90                   	nop
  4049c3:	c9                   	leaveq 
  4049c4:	c3                   	retq   

00000000004049c5 <_ZN10tensorflow6Status2OKEv>:
  4049c5:	55                   	push   %rbp
  4049c6:	48 89 e5             	mov    %rsp,%rbp
  4049c9:	48 83 ec 10          	sub    $0x10,%rsp
  4049cd:	48 89 7d f8          	mov    %rdi,-0x8(%rbp)
  4049d1:	48 8b 45 f8          	mov    -0x8(%rbp),%rax
  4049d5:	48 89 c7             	mov    %rax,%rdi
  4049d8:	e8 b1 ff ff ff       	callq  40498e <_ZN10tensorflow6StatusC1Ev>
  4049dd:	48 8b 45 f8          	mov    -0x8(%rbp),%rax
  4049e1:	c9                   	leaveq 
  4049e2:	c3                   	retq   
  4049e3:	90                   	nop

00000000004049e4 <_ZNK10tensorflow6Status2okEv>:
  4049e4:	55                   	push   %rbp
  4049e5:	48 89 e5             	mov    %rsp,%rbp
  4049e8:	48 83 ec 10          	sub    $0x10,%rsp
  4049ec:	48 89 7d f8          	mov    %rdi,-0x8(%rbp)
  4049f0:	48 8b 45 f8          	mov    -0x8(%rbp),%rax
  4049f4:	be 00 00 00 00       	mov    $0x0,%esi
  4049f9:	48 89 c7             	mov    %rax,%rdi
  4049fc:	e8 6d 18 00 00       	callq  40626e <_ZSteqIN10tensorflow6Status5StateESt14default_deleteIS2_EEbRKSt10unique_ptrIT_T0_EDn>
  404a01:	c9                   	leaveq 
  404a02:	c3                   	retq   
  404a03:	90                   	nop

0000000000404a04 <_ZN10tensorflow6Status5StateC1ERKS1_>:
  404a04:	55                   	push   %rbp
  404a05:	48 89 e5             	mov    %rsp,%rbp
  404a08:	48 83 ec 10          	sub    $0x10,%rsp
  404a0c:	48 89 7d f8          	mov    %rdi,-0x8(%rbp)
  404a10:	48 89 75 f0          	mov    %rsi,-0x10(%rbp)
  404a14:	48 8b 45 f0          	mov    -0x10(%rbp),%rax
  404a18:	8b 10                	mov    (%rax),%edx
  404a1a:	48 8b 45 f8          	mov    -0x8(%rbp),%rax
  404a1e:	89 10                	mov    %edx,(%rax)
  404a20:	48 8b 45 f0          	mov    -0x10(%rbp),%rax
  404a24:	48 8d 50 08          	lea    0x8(%rax),%rdx
  404a28:	48 8b 45 f8          	mov    -0x8(%rbp),%rax
  404a2c:	48 83 c0 08          	add    $0x8,%rax
  404a30:	48 89 d6             	mov    %rdx,%rsi
  404a33:	48 89 c7             	mov    %rax,%rdi
  404a36:	e8 a5 e3 ff ff       	callq  402de0 <_ZNSt7__cxx1112basic_stringIcSt11char_traitsIcESaIcEEC1ERKS4_@plt>
  404a3b:	90                   	nop
  404a3c:	c9                   	leaveq 
  404a3d:	c3                   	retq   

0000000000404a3e <_ZN10tensorflow6StatusC1ERKS0_>:
  404a3e:	55                   	push   %rbp
  404a3f:	48 89 e5             	mov    %rsp,%rbp
  404a42:	41 54                	push   %r12
  404a44:	53                   	push   %rbx
  404a45:	48 83 ec 10          	sub    $0x10,%rsp
  404a49:	48 89 7d e8          	mov    %rdi,-0x18(%rbp)
  404a4d:	48 89 75 e0          	mov    %rsi,-0x20(%rbp)
  404a51:	48 8b 45 e0          	mov    -0x20(%rbp),%rax
  404a55:	be 00 00 00 00       	mov    $0x0,%esi
  404a5a:	48 89 c7             	mov    %rax,%rdi
  404a5d:	e8 0c 18 00 00       	callq  40626e <_ZSteqIN10tensorflow6Status5StateESt14default_deleteIS2_EEbRKSt10unique_ptrIT_T0_EDn>
  404a62:	84 c0                	test   %al,%al
  404a64:	74 07                	je     404a6d <_ZN10tensorflow6StatusC1ERKS0_+0x2f>
  404a66:	ba 00 00 00 00       	mov    $0x0,%edx
  404a6b:	eb 2a                	jmp    404a97 <_ZN10tensorflow6StatusC1ERKS0_+0x59>
  404a6d:	48 8b 45 e0          	mov    -0x20(%rbp),%rax
  404a71:	48 89 c7             	mov    %rax,%rdi
  404a74:	e8 17 18 00 00       	callq  406290 <_ZNKSt10unique_ptrIN10tensorflow6Status5StateESt14default_deleteIS2_EEdeEv>
  404a79:	49 89 c4             	mov    %rax,%r12
  404a7c:	bf 28 00 00 00       	mov    $0x28,%edi
  404a81:	e8 7a e7 ff ff       	callq  403200 <_Znwm@plt>
  404a86:	48 89 c3             	mov    %rax,%rbx
  404a89:	4c 89 e6             	mov    %r12,%rsi
  404a8c:	48 89 df             	mov    %rbx,%rdi
  404a8f:	e8 70 ff ff ff       	callq  404a04 <_ZN10tensorflow6Status5StateC1ERKS1_>
  404a94:	48 89 da             	mov    %rbx,%rdx
  404a97:	48 8b 45 e8          	mov    -0x18(%rbp),%rax
  404a9b:	48 89 d6             	mov    %rdx,%rsi
  404a9e:	48 89 c7             	mov    %rax,%rdi
  404aa1:	e8 04 18 00 00       	callq  4062aa <_ZNSt10unique_ptrIN10tensorflow6Status5StateESt14default_deleteIS2_EEC1EPS2_>
  404aa6:	eb 16                	jmp    404abe <_ZN10tensorflow6StatusC1ERKS0_+0x80>
  404aa8:	49 89 c4             	mov    %rax,%r12
  404aab:	48 89 df             	mov    %rbx,%rdi
  404aae:	e8 9d e3 ff ff       	callq  402e50 <_ZdlPv@plt>
  404ab3:	4c 89 e0             	mov    %r12,%rax
  404ab6:	48 89 c7             	mov    %rax,%rdi
  404ab9:	e8 42 e6 ff ff       	callq  403100 <_Unwind_Resume@plt>
  404abe:	48 83 c4 10          	add    $0x10,%rsp
  404ac2:	5b                   	pop    %rbx
  404ac3:	41 5c                	pop    %r12
  404ac5:	5d                   	pop    %rbp
  404ac6:	c3                   	retq   

0000000000404ac7 <_ZN10tensorflow15TfCheckOpHelperB5cxx11ENS_6StatusEPKc>:
  404ac7:	55                   	push   %rbp
  404ac8:	48 89 e5             	mov    %rsp,%rbp
  404acb:	48 83 ec 10          	sub    $0x10,%rsp
  404acf:	48 89 7d f8          	mov    %rdi,-0x8(%rbp)
  404ad3:	48 89 75 f0          	mov    %rsi,-0x10(%rbp)
  404ad7:	48 8b 45 f8          	mov    -0x8(%rbp),%rax
  404adb:	48 89 c7             	mov    %rax,%rdi
  404ade:	e8 01 ff ff ff       	callq  4049e4 <_ZNK10tensorflow6Status2okEv>
  404ae3:	84 c0                	test   %al,%al
  404ae5:	74 07                	je     404aee <_ZN10tensorflow15TfCheckOpHelperB5cxx11ENS_6StatusEPKc+0x27>
  404ae7:	b8 00 00 00 00       	mov    $0x0,%eax
  404aec:	eb 13                	jmp    404b01 <_ZN10tensorflow15TfCheckOpHelperB5cxx11ENS_6StatusEPKc+0x3a>
  404aee:	48 8b 55 f0          	mov    -0x10(%rbp),%rdx
  404af2:	48 8b 45 f8          	mov    -0x8(%rbp),%rax
  404af6:	48 89 d6             	mov    %rdx,%rsi
  404af9:	48 89 c7             	mov    %rax,%rdi
  404afc:	e8 df e7 ff ff       	callq  4032e0 <_ZN10tensorflow24TfCheckOpHelperOutOfLineB5cxx11ERKNS_6StatusEPKc@plt>
  404b01:	c9                   	leaveq 
  404b02:	c3                   	retq   
  404b03:	90                   	nop

0000000000404b04 <_ZNK10tensorflow14TensorShapeRep12num_elementsEv>:
  404b04:	55                   	push   %rbp
  404b05:	48 89 e5             	mov    %rsp,%rbp
  404b08:	48 89 7d f8          	mov    %rdi,-0x8(%rbp)
  404b0c:	48 8b 45 f8          	mov    -0x8(%rbp),%rax
  404b10:	48 8b 40 10          	mov    0x10(%rax),%rax
  404b14:	5d                   	pop    %rbp
  404b15:	c3                   	retq   

0000000000404b16 <_ZNK10tensorflow14TensorShapeRep3tagEv>:
  404b16:	55                   	push   %rbp
  404b17:	48 89 e5             	mov    %rsp,%rbp
  404b1a:	48 83 ec 10          	sub    $0x10,%rsp
  404b1e:	48 89 7d f8          	mov    %rdi,-0x8(%rbp)
  404b22:	48 8b 45 f8          	mov    -0x8(%rbp),%rax
  404b26:	48 89 c7             	mov    %rax,%rdi
  404b29:	e8 42 00 00 00       	callq  404b70 <_ZNK10tensorflow14TensorShapeRep3bufEv>
  404b2e:	48 83 c0 0f          	add    $0xf,%rax
  404b32:	0f b6 00             	movzbl (%rax),%eax
  404b35:	0f b6 c0             	movzbl %al,%eax
  404b38:	c9                   	leaveq 
  404b39:	c3                   	retq   

0000000000404b3a <_ZN10tensorflow14TensorShapeRep7set_tagENS0_6RepTagE>:
  404b3a:	55                   	push   %rbp
  404b3b:	48 89 e5             	mov    %rsp,%rbp
  404b3e:	48 83 ec 10          	sub    $0x10,%rsp
  404b42:	48 89 7d f8          	mov    %rdi,-0x8(%rbp)
  404b46:	89 75 f4             	mov    %esi,-0xc(%rbp)
  404b49:	48 8b 45 f8          	mov    -0x8(%rbp),%rax
  404b4d:	48 89 c7             	mov    %rax,%rdi
  404b50:	e8 0d 00 00 00       	callq  404b62 <_ZN10tensorflow14TensorShapeRep3bufEv>
  404b55:	48 83 c0 0f          	add    $0xf,%rax
  404b59:	8b 55 f4             	mov    -0xc(%rbp),%edx
  404b5c:	88 10                	mov    %dl,(%rax)
  404b5e:	90                   	nop
  404b5f:	c9                   	leaveq 
  404b60:	c3                   	retq   
  404b61:	90                   	nop

0000000000404b62 <_ZN10tensorflow14TensorShapeRep3bufEv>:
  404b62:	55                   	push   %rbp
  404b63:	48 89 e5             	mov    %rsp,%rbp
  404b66:	48 89 7d f8          	mov    %rdi,-0x8(%rbp)
  404b6a:	48 8b 45 f8          	mov    -0x8(%rbp),%rax
  404b6e:	5d                   	pop    %rbp
  404b6f:	c3                   	retq   

0000000000404b70 <_ZNK10tensorflow14TensorShapeRep3bufEv>:
  404b70:	55                   	push   %rbp
  404b71:	48 89 e5             	mov    %rsp,%rbp
  404b74:	48 89 7d f8          	mov    %rdi,-0x8(%rbp)
  404b78:	48 8b 45 f8          	mov    -0x8(%rbp),%rax
  404b7c:	5d                   	pop    %rbp
  404b7d:	c3                   	retq   

0000000000404b7e <_ZN10tensorflow14TensorShapeRepC1ERKS0_>:
  404b7e:	55                   	push   %rbp
  404b7f:	48 89 e5             	mov    %rsp,%rbp
  404b82:	53                   	push   %rbx
  404b83:	48 83 ec 18          	sub    $0x18,%rsp
  404b87:	48 89 7d e8          	mov    %rdi,-0x18(%rbp)
  404b8b:	48 89 75 e0          	mov    %rsi,-0x20(%rbp)
  404b8f:	48 8b 45 e0          	mov    -0x20(%rbp),%rax
  404b93:	48 8b 50 10          	mov    0x10(%rax),%rdx
  404b97:	48 8b 45 e8          	mov    -0x18(%rbp),%rax
  404b9b:	48 89 50 10          	mov    %rdx,0x10(%rax)
  404b9f:	48 8b 45 e0          	mov    -0x20(%rbp),%rax
  404ba3:	48 89 c7             	mov    %rax,%rdi
  404ba6:	e8 6b ff ff ff       	callq  404b16 <_ZNK10tensorflow14TensorShapeRep3tagEv>
  404bab:	83 f8 02             	cmp    $0x2,%eax
  404bae:	0f 95 c0             	setne  %al
  404bb1:	84 c0                	test   %al,%al
  404bb3:	74 2e                	je     404be3 <_ZN10tensorflow14TensorShapeRepC1ERKS0_+0x65>
  404bb5:	48 8b 45 e0          	mov    -0x20(%rbp),%rax
  404bb9:	48 89 c7             	mov    %rax,%rdi
  404bbc:	e8 af ff ff ff       	callq  404b70 <_ZNK10tensorflow14TensorShapeRep3bufEv>
  404bc1:	48 89 c3             	mov    %rax,%rbx
  404bc4:	48 8b 45 e8          	mov    -0x18(%rbp),%rax
  404bc8:	48 89 c7             	mov    %rax,%rdi
  404bcb:	e8 92 ff ff ff       	callq  404b62 <_ZN10tensorflow14TensorShapeRep3bufEv>
  404bd0:	48 89 c1             	mov    %rax,%rcx
  404bd3:	48 8b 03             	mov    (%rbx),%rax
  404bd6:	48 8b 53 08          	mov    0x8(%rbx),%rdx
  404bda:	48 89 01             	mov    %rax,(%rcx)
  404bdd:	48 89 51 08          	mov    %rdx,0x8(%rcx)
  404be1:	eb 24                	jmp    404c07 <_ZN10tensorflow14TensorShapeRepC1ERKS0_+0x89>
  404be3:	48 8b 45 e8          	mov    -0x18(%rbp),%rax
  404be7:	be 00 00 00 00       	mov    $0x0,%esi
  404bec:	48 89 c7             	mov    %rax,%rdi
  404bef:	e8 46 ff ff ff       	callq  404b3a <_ZN10tensorflow14TensorShapeRep7set_tagENS0_6RepTagE>
  404bf4:	48 8b 55 e0          	mov    -0x20(%rbp),%rdx
  404bf8:	48 8b 45 e8          	mov    -0x18(%rbp),%rax
  404bfc:	48 89 d6             	mov    %rdx,%rsi
  404bff:	48 89 c7             	mov    %rax,%rdi
  404c02:	e8 49 e5 ff ff       	callq  403150 <_ZN10tensorflow14TensorShapeRep12SlowCopyFromERKS0_@plt>
  404c07:	90                   	nop
  404c08:	48 83 c4 18          	add    $0x18,%rsp
  404c0c:	5b                   	pop    %rbx
  404c0d:	5d                   	pop    %rbp
  404c0e:	c3                   	retq   
  404c0f:	90                   	nop

0000000000404c10 <_ZN10tensorflow14TensorShapeRepD1Ev>:
  404c10:	55                   	push   %rbp
  404c11:	48 89 e5             	mov    %rsp,%rbp
  404c14:	48 83 ec 10          	sub    $0x10,%rsp
  404c18:	48 89 7d f8          	mov    %rdi,-0x8(%rbp)
  404c1c:	48 8b 45 f8          	mov    -0x8(%rbp),%rax
  404c20:	48 89 c7             	mov    %rax,%rdi
  404c23:	e8 ee fe ff ff       	callq  404b16 <_ZNK10tensorflow14TensorShapeRep3tagEv>
  404c28:	83 f8 02             	cmp    $0x2,%eax
  404c2b:	0f 94 c0             	sete   %al
  404c2e:	84 c0                	test   %al,%al
  404c30:	74 0c                	je     404c3e <_ZN10tensorflow14TensorShapeRepD1Ev+0x2e>
  404c32:	48 8b 45 f8          	mov    -0x8(%rbp),%rax
  404c36:	48 89 c7             	mov    %rax,%rdi
  404c39:	e8 e2 e2 ff ff       	callq  402f20 <_ZN10tensorflow14TensorShapeRep19DestructorOutOfLineEv@plt>
  404c3e:	90                   	nop
  404c3f:	c9                   	leaveq 
  404c40:	c3                   	retq   

0000000000404c41 <_ZN10tensorflow14DataTypeToEnumIfE1vEv>:
  404c41:	55                   	push   %rbp
  404c42:	48 89 e5             	mov    %rsp,%rbp
  404c45:	b8 01 00 00 00       	mov    $0x1,%eax
  404c4a:	5d                   	pop    %rbp
  404c4b:	c3                   	retq   

0000000000404c4c <_ZN10tensorflow4core10RefCountedD1Ev>:
  404c4c:	55                   	push   %rbp
  404c4d:	48 89 e5             	mov    %rsp,%rbp
  404c50:	53                   	push   %rbx
  404c51:	48 81 ec d8 01 00 00 	sub    $0x1d8,%rsp
  404c58:	48 89 bd 28 fe ff ff 	mov    %rdi,-0x1d8(%rbp)
  404c5f:	64 48 8b 04 25 28 00 	mov    %fs:0x28,%rax
  404c66:	00 00 
  404c68:	48 89 45 e8          	mov    %rax,-0x18(%rbp)
  404c6c:	31 c0                	xor    %eax,%eax
  404c6e:	ba 98 a5 40 00       	mov    $0x40a598,%edx
  404c73:	48 8b 85 28 fe ff ff 	mov    -0x1d8(%rbp),%rax
  404c7a:	48 89 10             	mov    %rdx,(%rax)
  404c7d:	bf 00 00 00 00       	mov    $0x0,%edi
  404c82:	e8 d2 fb ff ff       	callq  404859 <_ZN10tensorflow8internal21GetReferenceableValueEi>
  404c87:	89 85 3c fe ff ff    	mov    %eax,-0x1c4(%rbp)
  404c8d:	48 8b 85 28 fe ff ff 	mov    -0x1d8(%rbp),%rax
  404c94:	48 83 c0 08          	add    $0x8,%rax
  404c98:	48 89 85 58 fe ff ff 	mov    %rax,-0x1a8(%rbp)
  404c9f:	c7 85 40 fe ff ff 05 	movl   $0x5,-0x1c0(%rbp)
  404ca6:	00 00 00 
  404ca9:	8b 85 40 fe ff ff    	mov    -0x1c0(%rbp),%eax
  404caf:	be ff ff 00 00       	mov    $0xffff,%esi
  404cb4:	89 c7                	mov    %eax,%edi
  404cb6:	e8 ba fa ff ff       	callq  404775 <_ZStanSt12memory_orderSt23__memory_order_modifier>
  404cbb:	89 85 44 fe ff ff    	mov    %eax,-0x1bc(%rbp)
  404cc1:	48 8b 85 58 fe ff ff 	mov    -0x1a8(%rbp),%rax
  404cc8:	48 8b 00             	mov    (%rax),%rax
  404ccb:	48 89 c7             	mov    %rax,%rdi
  404cce:	e8 92 fb ff ff       	callq  404865 <_ZN10tensorflow8internal21GetReferenceableValueEl>
  404cd3:	48 89 85 50 fe ff ff 	mov    %rax,-0x1b0(%rbp)
  404cda:	48 8d 8d 3c fe ff ff 	lea    -0x1c4(%rbp),%rcx
  404ce1:	48 8d 85 50 fe ff ff 	lea    -0x1b0(%rbp),%rax
  404ce8:	ba bc 9e 40 00       	mov    $0x409ebc,%edx
  404ced:	48 89 ce             	mov    %rcx,%rsi
  404cf0:	48 89 c7             	mov    %rax,%rdi
  404cf3:	e8 8a 16 00 00       	callq  406382 <_ZN10tensorflow8internal12Check_EQImplIliEEPNSt7__cxx1112basic_stringIcSt11char_traitsIcESaIcEEERKT_RKT0_PKc>
  404cf8:	48 89 c2             	mov    %rax,%rdx
  404cfb:	48 8d 85 48 fe ff ff 	lea    -0x1b8(%rbp),%rax
  404d02:	48 89 d6             	mov    %rdx,%rsi
  404d05:	48 89 c7             	mov    %rax,%rdi
  404d08:	e8 83 fb ff ff       	callq  404890 <_ZN10tensorflow8internal13CheckOpStringC1EPNSt7__cxx1112basic_stringIcSt11char_traitsIcESaIcEEE>
  404d0d:	48 8d 85 48 fe ff ff 	lea    -0x1b8(%rbp),%rax
  404d14:	48 89 c7             	mov    %rax,%rdi
  404d17:	e8 8e fb ff ff       	callq  4048aa <_ZNK10tensorflow8internal13CheckOpStringcvbEv>
  404d1c:	83 f0 01             	xor    $0x1,%eax
  404d1f:	84 c0                	test   %al,%al
  404d21:	75 41                	jne    404d64 <_ZN10tensorflow4core10RefCountedD1Ev+0x118>
  404d23:	48 8b 9d 48 fe ff ff 	mov    -0x1b8(%rbp),%rbx
  404d2a:	48 8d 85 60 fe ff ff 	lea    -0x1a0(%rbp),%rax
  404d31:	ba 4f 00 00 00       	mov    $0x4f,%edx
  404d36:	be d0 9e 40 00       	mov    $0x409ed0,%esi
  404d3b:	48 89 c7             	mov    %rax,%rdi
  404d3e:	e8 bd e0 ff ff       	callq  402e00 <_ZN10tensorflow8internal15LogMessageFatalC1EPKci@plt>
  404d43:	48 8d 85 60 fe ff ff 	lea    -0x1a0(%rbp),%rax
  404d4a:	48 89 de             	mov    %rbx,%rsi
  404d4d:	48 89 c7             	mov    %rax,%rdi
  404d50:	e8 04 16 00 00       	callq  406359 <_ZStlsIcSt11char_traitsIcENSt7__cxx1112basic_stringIcS1_SaIcEEEERSt13basic_ostreamIT_T0_EOS9_RKT1_>
  404d55:	48 8d 85 60 fe ff ff 	lea    -0x1a0(%rbp),%rax
  404d5c:	48 89 c7             	mov    %rax,%rdi
  404d5f:	e8 4c e2 ff ff       	callq  402fb0 <_ZN10tensorflow8internal15LogMessageFatalD1Ev@plt>
  404d64:	90                   	nop
  404d65:	48 8b 45 e8          	mov    -0x18(%rbp),%rax
  404d69:	64 48 33 04 25 28 00 	xor    %fs:0x28,%rax
  404d70:	00 00 
  404d72:	74 05                	je     404d79 <_ZN10tensorflow4core10RefCountedD1Ev+0x12d>
  404d74:	e8 a7 e0 ff ff       	callq  402e20 <__stack_chk_fail@plt>
  404d79:	48 81 c4 d8 01 00 00 	add    $0x1d8,%rsp
  404d80:	5b                   	pop    %rbx
  404d81:	5d                   	pop    %rbp
  404d82:	c3                   	retq   
  404d83:	90                   	nop

0000000000404d84 <_ZN10tensorflow4core10RefCountedD0Ev>:
  404d84:	55                   	push   %rbp
  404d85:	48 89 e5             	mov    %rsp,%rbp
  404d88:	48 83 ec 10          	sub    $0x10,%rsp
  404d8c:	48 89 7d f8          	mov    %rdi,-0x8(%rbp)
  404d90:	48 8b 45 f8          	mov    -0x8(%rbp),%rax
  404d94:	48 89 c7             	mov    %rax,%rdi
  404d97:	e8 b0 fe ff ff       	callq  404c4c <_ZN10tensorflow4core10RefCountedD1Ev>
  404d9c:	48 8b 45 f8          	mov    -0x8(%rbp),%rax
  404da0:	48 89 c7             	mov    %rax,%rdi
  404da3:	e8 a8 e0 ff ff       	callq  402e50 <_ZdlPv@plt>
  404da8:	c9                   	leaveq 
  404da9:	c3                   	retq   

0000000000404daa <_ZNK10tensorflow4core10RefCounted3RefEv>:
  404daa:	55                   	push   %rbp
  404dab:	48 89 e5             	mov    %rsp,%rbp
  404dae:	53                   	push   %rbx
  404daf:	48 81 ec e8 01 00 00 	sub    $0x1e8,%rsp
  404db6:	48 89 bd 18 fe ff ff 	mov    %rdi,-0x1e8(%rbp)
  404dbd:	64 48 8b 04 25 28 00 	mov    %fs:0x28,%rax
  404dc4:	00 00 
  404dc6:	48 89 45 e8          	mov    %rax,-0x18(%rbp)
  404dca:	31 c0                	xor    %eax,%eax
  404dcc:	bf 01 00 00 00       	mov    $0x1,%edi
  404dd1:	e8 83 fa ff ff       	callq  404859 <_ZN10tensorflow8internal21GetReferenceableValueEi>
  404dd6:	89 85 28 fe ff ff    	mov    %eax,-0x1d8(%rbp)
  404ddc:	48 8b 85 18 fe ff ff 	mov    -0x1e8(%rbp),%rax
  404de3:	48 83 c0 08          	add    $0x8,%rax
  404de7:	48 89 85 48 fe ff ff 	mov    %rax,-0x1b8(%rbp)
  404dee:	c7 85 2c fe ff ff 05 	movl   $0x5,-0x1d4(%rbp)
  404df5:	00 00 00 
  404df8:	8b 85 2c fe ff ff    	mov    -0x1d4(%rbp),%eax
  404dfe:	be ff ff 00 00       	mov    $0xffff,%esi
  404e03:	89 c7                	mov    %eax,%edi
  404e05:	e8 6b f9 ff ff       	callq  404775 <_ZStanSt12memory_orderSt23__memory_order_modifier>
  404e0a:	89 85 30 fe ff ff    	mov    %eax,-0x1d0(%rbp)
  404e10:	48 8b 85 48 fe ff ff 	mov    -0x1b8(%rbp),%rax
  404e17:	48 8b 00             	mov    (%rax),%rax
  404e1a:	48 89 c7             	mov    %rax,%rdi
  404e1d:	e8 43 fa ff ff       	callq  404865 <_ZN10tensorflow8internal21GetReferenceableValueEl>
  404e22:	48 89 85 40 fe ff ff 	mov    %rax,-0x1c0(%rbp)
  404e29:	48 8d 8d 28 fe ff ff 	lea    -0x1d8(%rbp),%rcx
  404e30:	48 8d 85 40 fe ff ff 	lea    -0x1c0(%rbp),%rax
  404e37:	ba 56 9f 40 00       	mov    $0x409f56,%edx
  404e3c:	48 89 ce             	mov    %rcx,%rsi
  404e3f:	48 89 c7             	mov    %rax,%rdi
  404e42:	e8 83 15 00 00       	callq  4063ca <_ZN10tensorflow8internal12Check_GEImplIliEEPNSt7__cxx1112basic_stringIcSt11char_traitsIcESaIcEEERKT_RKT0_PKc>
  404e47:	48 89 c2             	mov    %rax,%rdx
  404e4a:	48 8d 85 38 fe ff ff 	lea    -0x1c8(%rbp),%rax
  404e51:	48 89 d6             	mov    %rdx,%rsi
  404e54:	48 89 c7             	mov    %rax,%rdi
  404e57:	e8 34 fa ff ff       	callq  404890 <_ZN10tensorflow8internal13CheckOpStringC1EPNSt7__cxx1112basic_stringIcSt11char_traitsIcESaIcEEE>
  404e5c:	48 8d 85 38 fe ff ff 	lea    -0x1c8(%rbp),%rax
  404e63:	48 89 c7             	mov    %rax,%rdi
  404e66:	e8 3f fa ff ff       	callq  4048aa <_ZNK10tensorflow8internal13CheckOpStringcvbEv>
  404e6b:	83 f0 01             	xor    $0x1,%eax
  404e6e:	84 c0                	test   %al,%al
  404e70:	75 41                	jne    404eb3 <_ZNK10tensorflow4core10RefCounted3RefEv+0x109>
  404e72:	48 8b 9d 38 fe ff ff 	mov    -0x1c8(%rbp),%rbx
  404e79:	48 8d 85 60 fe ff ff 	lea    -0x1a0(%rbp),%rax
  404e80:	ba 52 00 00 00       	mov    $0x52,%edx
  404e85:	be d0 9e 40 00       	mov    $0x409ed0,%esi
  404e8a:	48 89 c7             	mov    %rax,%rdi
  404e8d:	e8 6e df ff ff       	callq  402e00 <_ZN10tensorflow8internal15LogMessageFatalC1EPKci@plt>
  404e92:	48 8d 85 60 fe ff ff 	lea    -0x1a0(%rbp),%rax
  404e99:	48 89 de             	mov    %rbx,%rsi
  404e9c:	48 89 c7             	mov    %rax,%rdi
  404e9f:	e8 b5 14 00 00       	callq  406359 <_ZStlsIcSt11char_traitsIcENSt7__cxx1112basic_stringIcS1_SaIcEEEERSt13basic_ostreamIT_T0_EOS9_RKT1_>
  404ea4:	48 8d 85 60 fe ff ff 	lea    -0x1a0(%rbp),%rax
  404eab:	48 89 c7             	mov    %rax,%rdi
  404eae:	e8 fd e0 ff ff       	callq  402fb0 <_ZN10tensorflow8internal15LogMessageFatalD1Ev@plt>
  404eb3:	48 8b 85 18 fe ff ff 	mov    -0x1e8(%rbp),%rax
  404eba:	48 83 c0 08          	add    $0x8,%rax
  404ebe:	48 89 85 50 fe ff ff 	mov    %rax,-0x1b0(%rbp)
  404ec5:	48 c7 85 58 fe ff ff 	movq   $0x1,-0x1a8(%rbp)
  404ecc:	01 00 00 00 
  404ed0:	c7 85 34 fe ff ff 00 	movl   $0x0,-0x1cc(%rbp)
  404ed7:	00 00 00 
  404eda:	48 8b 95 58 fe ff ff 	mov    -0x1a8(%rbp),%rdx
  404ee1:	48 8b 85 50 fe ff ff 	mov    -0x1b0(%rbp),%rax
  404ee8:	f0 48 0f c1 10       	lock xadd %rdx,(%rax)
  404eed:	90                   	nop
  404eee:	48 8b 45 e8          	mov    -0x18(%rbp),%rax
  404ef2:	64 48 33 04 25 28 00 	xor    %fs:0x28,%rax
  404ef9:	00 00 
  404efb:	74 16                	je     404f13 <_ZNK10tensorflow4core10RefCounted3RefEv+0x169>
  404efd:	eb 0f                	jmp    404f0e <_ZNK10tensorflow4core10RefCounted3RefEv+0x164>
  404eff:	48 8d 85 60 fe ff ff 	lea    -0x1a0(%rbp),%rax
  404f06:	48 89 c7             	mov    %rax,%rdi
  404f09:	e8 a2 e0 ff ff       	callq  402fb0 <_ZN10tensorflow8internal15LogMessageFatalD1Ev@plt>
  404f0e:	e8 0d df ff ff       	callq  402e20 <__stack_chk_fail@plt>
  404f13:	48 81 c4 e8 01 00 00 	add    $0x1e8,%rsp
  404f1a:	5b                   	pop    %rbx
  404f1b:	5d                   	pop    %rbp
  404f1c:	c3                   	retq   
  404f1d:	90                   	nop

0000000000404f1e <_ZNK10tensorflow6Tensor5shapeEv>:
  404f1e:	55                   	push   %rbp
  404f1f:	48 89 e5             	mov    %rsp,%rbp
  404f22:	48 89 7d f8          	mov    %rdi,-0x8(%rbp)
  404f26:	48 8b 45 f8          	mov    -0x8(%rbp),%rax
  404f2a:	5d                   	pop    %rbp
  404f2b:	c3                   	retq   

0000000000404f2c <_ZNK10tensorflow6Tensor11NumElementsEv>:
  404f2c:	55                   	push   %rbp
  404f2d:	48 89 e5             	mov    %rsp,%rbp
  404f30:	48 83 ec 10          	sub    $0x10,%rsp
  404f34:	48 89 7d f8          	mov    %rdi,-0x8(%rbp)
  404f38:	48 8b 45 f8          	mov    -0x8(%rbp),%rax
  404f3c:	48 89 c7             	mov    %rax,%rdi
  404f3f:	e8 da ff ff ff       	callq  404f1e <_ZNK10tensorflow6Tensor5shapeEv>
  404f44:	48 89 c7             	mov    %rax,%rdi
  404f47:	e8 b8 fb ff ff       	callq  404b04 <_ZNK10tensorflow14TensorShapeRep12num_elementsEv>
  404f4c:	c9                   	leaveq 
  404f4d:	c3                   	retq   

0000000000404f4e <_ZN10tensorflow15TensorShapeBaseINS_11TensorShapeEEC1ERKS2_>:
  404f4e:	55                   	push   %rbp
  404f4f:	48 89 e5             	mov    %rsp,%rbp
  404f52:	48 83 ec 10          	sub    $0x10,%rsp
  404f56:	48 89 7d f8          	mov    %rdi,-0x8(%rbp)
  404f5a:	48 89 75 f0          	mov    %rsi,-0x10(%rbp)
  404f5e:	48 8b 55 f0          	mov    -0x10(%rbp),%rdx
  404f62:	48 8b 45 f8          	mov    -0x8(%rbp),%rax
  404f66:	48 89 d6             	mov    %rdx,%rsi
  404f69:	48 89 c7             	mov    %rax,%rdi
  404f6c:	e8 0d fc ff ff       	callq  404b7e <_ZN10tensorflow14TensorShapeRepC1ERKS0_>
  404f71:	90                   	nop
  404f72:	c9                   	leaveq 
  404f73:	c3                   	retq   

0000000000404f74 <_ZN10tensorflow15TensorShapeBaseINS_11TensorShapeEED1Ev>:
  404f74:	55                   	push   %rbp
  404f75:	48 89 e5             	mov    %rsp,%rbp
  404f78:	48 83 ec 10          	sub    $0x10,%rsp
  404f7c:	48 89 7d f8          	mov    %rdi,-0x8(%rbp)
  404f80:	48 8b 45 f8          	mov    -0x8(%rbp),%rax
  404f84:	48 89 c7             	mov    %rax,%rdi
  404f87:	e8 84 fc ff ff       	callq  404c10 <_ZN10tensorflow14TensorShapeRepD1Ev>
  404f8c:	90                   	nop
  404f8d:	c9                   	leaveq 
  404f8e:	c3                   	retq   
  404f8f:	90                   	nop

0000000000404f90 <_ZN10tensorflow11TensorShapeC1ERKS0_>:
  404f90:	55                   	push   %rbp
  404f91:	48 89 e5             	mov    %rsp,%rbp
  404f94:	48 83 ec 10          	sub    $0x10,%rsp
  404f98:	48 89 7d f8          	mov    %rdi,-0x8(%rbp)
  404f9c:	48 89 75 f0          	mov    %rsi,-0x10(%rbp)
  404fa0:	48 8b 55 f0          	mov    -0x10(%rbp),%rdx
  404fa4:	48 8b 45 f8          	mov    -0x8(%rbp),%rax
  404fa8:	48 89 d6             	mov    %rdx,%rsi
  404fab:	48 89 c7             	mov    %rax,%rdi
  404fae:	e8 9b ff ff ff       	callq  404f4e <_ZN10tensorflow15TensorShapeBaseINS_11TensorShapeEEC1ERKS2_>
  404fb3:	90                   	nop
  404fb4:	c9                   	leaveq 
  404fb5:	c3                   	retq   

0000000000404fb6 <_ZN10tensorflow11TensorShapeD1Ev>:
  404fb6:	55                   	push   %rbp
  404fb7:	48 89 e5             	mov    %rsp,%rbp
  404fba:	48 83 ec 10          	sub    $0x10,%rsp
  404fbe:	48 89 7d f8          	mov    %rdi,-0x8(%rbp)
  404fc2:	48 8b 45 f8          	mov    -0x8(%rbp),%rax
  404fc6:	48 89 c7             	mov    %rax,%rdi
  404fc9:	e8 a6 ff ff ff       	callq  404f74 <_ZN10tensorflow15TensorShapeBaseINS_11TensorShapeEED1Ev>
  404fce:	90                   	nop
  404fcf:	c9                   	leaveq 
  404fd0:	c3                   	retq   
  404fd1:	90                   	nop

0000000000404fd2 <_ZN10tensorflow6TensorC1ERKS0_>:
  404fd2:	55                   	push   %rbp
  404fd3:	48 89 e5             	mov    %rsp,%rbp
  404fd6:	53                   	push   %rbx
  404fd7:	48 83 ec 18          	sub    $0x18,%rsp
  404fdb:	48 89 7d e8          	mov    %rdi,-0x18(%rbp)
  404fdf:	48 89 75 e0          	mov    %rsi,-0x20(%rbp)
  404fe3:	48 8b 45 e0          	mov    -0x20(%rbp),%rax
  404fe7:	48 89 c7             	mov    %rax,%rdi
  404fea:	e8 2f ff ff ff       	callq  404f1e <_ZNK10tensorflow6Tensor5shapeEv>
  404fef:	48 89 c2             	mov    %rax,%rdx
  404ff2:	48 8b 45 e8          	mov    -0x18(%rbp),%rax
  404ff6:	48 89 d6             	mov    %rdx,%rsi
  404ff9:	48 89 c7             	mov    %rax,%rdi
  404ffc:	e8 8f ff ff ff       	callq  404f90 <_ZN10tensorflow11TensorShapeC1ERKS0_>
  405001:	48 8b 45 e0          	mov    -0x20(%rbp),%rax
  405005:	48 8b 50 18          	mov    0x18(%rax),%rdx
  405009:	48 8b 45 e8          	mov    -0x18(%rbp),%rax
  40500d:	48 89 50 18          	mov    %rdx,0x18(%rax)
  405011:	48 8b 45 e8          	mov    -0x18(%rbp),%rax
  405015:	48 8b 40 18          	mov    0x18(%rax),%rax
  405019:	48 85 c0             	test   %rax,%rax
  40501c:	74 2c                	je     40504a <_ZN10tensorflow6TensorC1ERKS0_+0x78>
  40501e:	48 8b 45 e8          	mov    -0x18(%rbp),%rax
  405022:	48 8b 40 18          	mov    0x18(%rax),%rax
  405026:	48 89 c7             	mov    %rax,%rdi
  405029:	e8 7c fd ff ff       	callq  404daa <_ZNK10tensorflow4core10RefCounted3RefEv>
  40502e:	eb 1a                	jmp    40504a <_ZN10tensorflow6TensorC1ERKS0_+0x78>
  405030:	48 89 c3             	mov    %rax,%rbx
  405033:	48 8b 45 e8          	mov    -0x18(%rbp),%rax
  405037:	48 89 c7             	mov    %rax,%rdi
  40503a:	e8 77 ff ff ff       	callq  404fb6 <_ZN10tensorflow11TensorShapeD1Ev>
  40503f:	48 89 d8             	mov    %rbx,%rax
  405042:	48 89 c7             	mov    %rax,%rdi
  405045:	e8 b6 e0 ff ff       	callq  403100 <_Unwind_Resume@plt>
  40504a:	90                   	nop
  40504b:	48 83 c4 18          	add    $0x18,%rsp
  40504f:	5b                   	pop    %rbx
  405050:	5d                   	pop    %rbp
  405051:	c3                   	retq   

0000000000405052 <_ZN10tensorflow9OperationD1Ev>:
  405052:	55                   	push   %rbp
  405053:	48 89 e5             	mov    %rsp,%rbp
  405056:	48 83 ec 10          	sub    $0x10,%rsp
  40505a:	48 89 7d f8          	mov    %rdi,-0x8(%rbp)
  40505e:	48 8b 45 f8          	mov    -0x8(%rbp),%rax
  405062:	48 89 c7             	mov    %rax,%rdi
  405065:	e8 a8 13 00 00       	callq  406412 <_ZNSt6vectorISt4pairIPN10tensorflow4NodeEiESaIS4_EED1Ev>
  40506a:	90                   	nop
  40506b:	c9                   	leaveq 
  40506c:	c3                   	retq   
  40506d:	90                   	nop

000000000040506e <_ZN10tensorflow9OperationC1ERKS0_>:
  40506e:	55                   	push   %rbp
  40506f:	48 89 e5             	mov    %rsp,%rbp
  405072:	48 83 ec 10          	sub    $0x10,%rsp
  405076:	48 89 7d f8          	mov    %rdi,-0x8(%rbp)
  40507a:	48 89 75 f0          	mov    %rsi,-0x10(%rbp)
  40507e:	48 8b 55 f0          	mov    -0x10(%rbp),%rdx
  405082:	48 8b 45 f8          	mov    -0x8(%rbp),%rax
  405086:	48 89 d6             	mov    %rdx,%rsi
  405089:	48 89 c7             	mov    %rax,%rdi
  40508c:	e8 c5 13 00 00       	callq  406456 <_ZNSt6vectorISt4pairIPN10tensorflow4NodeEiESaIS4_EEC1ERKS6_>
  405091:	48 8b 45 f0          	mov    -0x10(%rbp),%rax
  405095:	48 8b 50 18          	mov    0x18(%rax),%rdx
  405099:	48 8b 45 f8          	mov    -0x8(%rbp),%rax
  40509d:	48 89 50 18          	mov    %rdx,0x18(%rax)
  4050a1:	90                   	nop
  4050a2:	c9                   	leaveq 
  4050a3:	c3                   	retq   

00000000004050a4 <_ZN10tensorflow6OutputC1ERKNS_9OperationEi>:
  4050a4:	55                   	push   %rbp
  4050a5:	48 89 e5             	mov    %rsp,%rbp
  4050a8:	48 83 ec 20          	sub    $0x20,%rsp
  4050ac:	48 89 7d f8          	mov    %rdi,-0x8(%rbp)
  4050b0:	48 89 75 f0          	mov    %rsi,-0x10(%rbp)
  4050b4:	89 55 ec             	mov    %edx,-0x14(%rbp)
  4050b7:	48 8b 45 f8          	mov    -0x8(%rbp),%rax
  4050bb:	48 8b 55 f0          	mov    -0x10(%rbp),%rdx
  4050bf:	48 89 d6             	mov    %rdx,%rsi
  4050c2:	48 89 c7             	mov    %rax,%rdi
  4050c5:	e8 a4 ff ff ff       	callq  40506e <_ZN10tensorflow9OperationC1ERKS0_>
  4050ca:	48 8b 45 f8          	mov    -0x8(%rbp),%rax
  4050ce:	8b 55 ec             	mov    -0x14(%rbp),%edx
  4050d1:	89 50 20             	mov    %edx,0x20(%rax)
  4050d4:	90                   	nop
  4050d5:	c9                   	leaveq 
  4050d6:	c3                   	retq   
  4050d7:	90                   	nop

00000000004050d8 <_ZN10tensorflow6OutputD1Ev>:
  4050d8:	55                   	push   %rbp
  4050d9:	48 89 e5             	mov    %rsp,%rbp
  4050dc:	48 83 ec 10          	sub    $0x10,%rsp
  4050e0:	48 89 7d f8          	mov    %rdi,-0x8(%rbp)
  4050e4:	48 8b 45 f8          	mov    -0x8(%rbp),%rax
  4050e8:	48 89 c7             	mov    %rax,%rdi
  4050eb:	e8 62 ff ff ff       	callq  405052 <_ZN10tensorflow9OperationD1Ev>
  4050f0:	90                   	nop
  4050f1:	c9                   	leaveq 
  4050f2:	c3                   	retq   
  4050f3:	90                   	nop

00000000004050f4 <_ZN10tensorflow6OutputC1ERKS0_>:
  4050f4:	55                   	push   %rbp
  4050f5:	48 89 e5             	mov    %rsp,%rbp
  4050f8:	48 83 ec 10          	sub    $0x10,%rsp
  4050fc:	48 89 7d f8          	mov    %rdi,-0x8(%rbp)
  405100:	48 89 75 f0          	mov    %rsi,-0x10(%rbp)
  405104:	48 8b 55 f0          	mov    -0x10(%rbp),%rdx
  405108:	48 8b 45 f8          	mov    -0x8(%rbp),%rax
  40510c:	48 89 d6             	mov    %rdx,%rsi
  40510f:	48 89 c7             	mov    %rax,%rdi
  405112:	e8 57 ff ff ff       	callq  40506e <_ZN10tensorflow9OperationC1ERKS0_>
  405117:	48 8b 45 f0          	mov    -0x10(%rbp),%rax
  40511b:	8b 50 20             	mov    0x20(%rax),%edx
  40511e:	48 8b 45 f8          	mov    -0x8(%rbp),%rax
  405122:	89 50 20             	mov    %edx,0x20(%rax)
  405125:	90                   	nop
  405126:	c9                   	leaveq 
  405127:	c3                   	retq   

0000000000405128 <_ZN10tensorflow5InputC1ERKNS_6OutputE>:
  405128:	55                   	push   %rbp
  405129:	48 89 e5             	mov    %rsp,%rbp
  40512c:	53                   	push   %rbx
  40512d:	48 83 ec 28          	sub    $0x28,%rsp
  405131:	48 89 7d d8          	mov    %rdi,-0x28(%rbp)
  405135:	48 89 75 d0          	mov    %rsi,-0x30(%rbp)
  405139:	64 48 8b 04 25 28 00 	mov    %fs:0x28,%rax
  405140:	00 00 
  405142:	48 89 45 e8          	mov    %rax,-0x18(%rbp)
  405146:	31 c0                	xor    %eax,%eax
  405148:	48 8b 45 d8          	mov    -0x28(%rbp),%rax
  40514c:	48 89 c7             	mov    %rax,%rdi
  40514f:	e8 3a f8 ff ff       	callq  40498e <_ZN10tensorflow6StatusC1Ev>
  405154:	48 8b 45 d8          	mov    -0x28(%rbp),%rax
  405158:	48 8d 50 08          	lea    0x8(%rax),%rdx
  40515c:	48 8b 45 d0          	mov    -0x30(%rbp),%rax
  405160:	48 89 c6             	mov    %rax,%rsi
  405163:	48 89 d7             	mov    %rdx,%rdi
  405166:	e8 89 ff ff ff       	callq  4050f4 <_ZN10tensorflow6OutputC1ERKS0_>
  40516b:	48 8b 45 d8          	mov    -0x28(%rbp),%rax
  40516f:	48 83 c0 30          	add    $0x30,%rax
  405173:	48 89 c7             	mov    %rax,%rdi
  405176:	e8 85 dd ff ff       	callq  402f00 <_ZN10tensorflow6TensorC1Ev@plt>
  40517b:	48 8d 45 e7          	lea    -0x19(%rbp),%rax
  40517f:	48 89 c7             	mov    %rax,%rdi
  405182:	e8 39 dd ff ff       	callq  402ec0 <_ZNSaIcEC1Ev@plt>
  405187:	48 8b 45 d8          	mov    -0x28(%rbp),%rax
  40518b:	48 8d 48 50          	lea    0x50(%rax),%rcx
  40518f:	48 8d 45 e7          	lea    -0x19(%rbp),%rax
  405193:	48 89 c2             	mov    %rax,%rdx
  405196:	be c0 9f 40 00       	mov    $0x409fc0,%esi
  40519b:	48 89 cf             	mov    %rcx,%rdi
  40519e:	e8 8d df ff ff       	callq  403130 <_ZNSt7__cxx1112basic_stringIcSt11char_traitsIcESaIcEEC1EPKcRKS3_@plt>
  4051a3:	48 8d 45 e7          	lea    -0x19(%rbp),%rax
  4051a7:	48 89 c7             	mov    %rax,%rdi
  4051aa:	e8 81 e1 ff ff       	callq  403330 <_ZNSaIcED1Ev@plt>
  4051af:	48 8b 45 d8          	mov    -0x28(%rbp),%rax
  4051b3:	c7 40 70 00 00 00 00 	movl   $0x0,0x70(%rax)
  4051ba:	48 8b 45 d8          	mov    -0x28(%rbp),%rax
  4051be:	c7 40 74 00 00 00 00 	movl   $0x0,0x74(%rax)
  4051c5:	90                   	nop
  4051c6:	48 8b 45 e8          	mov    -0x18(%rbp),%rax
  4051ca:	64 48 33 04 25 28 00 	xor    %fs:0x28,%rax
  4051d1:	00 00 
  4051d3:	74 57                	je     40522c <_ZN10tensorflow5InputC1ERKNS_6OutputE+0x104>
  4051d5:	eb 50                	jmp    405227 <_ZN10tensorflow5InputC1ERKNS_6OutputE+0xff>
  4051d7:	48 89 c3             	mov    %rax,%rbx
  4051da:	48 8d 45 e7          	lea    -0x19(%rbp),%rax
  4051de:	48 89 c7             	mov    %rax,%rdi
  4051e1:	e8 4a e1 ff ff       	callq  403330 <_ZNSaIcED1Ev@plt>
  4051e6:	48 8b 45 d8          	mov    -0x28(%rbp),%rax
  4051ea:	48 83 c0 30          	add    $0x30,%rax
  4051ee:	48 89 c7             	mov    %rax,%rdi
  4051f1:	e8 9a dc ff ff       	callq  402e90 <_ZN10tensorflow6TensorD1Ev@plt>
  4051f6:	eb 03                	jmp    4051fb <_ZN10tensorflow5InputC1ERKNS_6OutputE+0xd3>
  4051f8:	48 89 c3             	mov    %rax,%rbx
  4051fb:	48 8b 45 d8          	mov    -0x28(%rbp),%rax
  4051ff:	48 83 c0 08          	add    $0x8,%rax
  405203:	48 89 c7             	mov    %rax,%rdi
  405206:	e8 cd fe ff ff       	callq  4050d8 <_ZN10tensorflow6OutputD1Ev>
  40520b:	eb 03                	jmp    405210 <_ZN10tensorflow5InputC1ERKNS_6OutputE+0xe8>
  40520d:	48 89 c3             	mov    %rax,%rbx
  405210:	48 8b 45 d8          	mov    -0x28(%rbp),%rax
  405214:	48 89 c7             	mov    %rax,%rdi
  405217:	e8 8e f7 ff ff       	callq  4049aa <_ZN10tensorflow6StatusD1Ev>
  40521c:	48 89 d8             	mov    %rbx,%rax
  40521f:	48 89 c7             	mov    %rax,%rdi
  405222:	e8 d9 de ff ff       	callq  403100 <_Unwind_Resume@plt>
  405227:	e8 f4 db ff ff       	callq  402e20 <__stack_chk_fail@plt>
  40522c:	48 83 c4 28          	add    $0x28,%rsp
  405230:	5b                   	pop    %rbx
  405231:	5d                   	pop    %rbp
  405232:	c3                   	retq   
  405233:	90                   	nop

0000000000405234 <_ZN10tensorflow5InputC1ERKNS_6TensorE>:
  405234:	55                   	push   %rbp
  405235:	48 89 e5             	mov    %rsp,%rbp
  405238:	53                   	push   %rbx
  405239:	48 83 ec 48          	sub    $0x48,%rsp
  40523d:	48 89 7d b8          	mov    %rdi,-0x48(%rbp)
  405241:	48 89 75 b0          	mov    %rsi,-0x50(%rbp)
  405245:	64 48 8b 04 25 28 00 	mov    %fs:0x28,%rax
  40524c:	00 00 
  40524e:	48 89 45 e8          	mov    %rax,-0x18(%rbp)
  405252:	31 c0                	xor    %eax,%eax
  405254:	48 8b 45 b8          	mov    -0x48(%rbp),%rax
  405258:	48 89 c7             	mov    %rax,%rdi
  40525b:	e8 65 f7 ff ff       	callq  4049c5 <_ZN10tensorflow6Status2OKEv>
  405260:	48 8d 45 c0          	lea    -0x40(%rbp),%rax
  405264:	be 00 00 00 00       	mov    $0x0,%esi
  405269:	48 89 c7             	mov    %rax,%rdi
  40526c:	e8 1f df ff ff       	callq  403190 <_ZN10tensorflow9OperationC1EPNS_4NodeE@plt>
  405271:	48 8b 45 b8          	mov    -0x48(%rbp),%rax
  405275:	48 8d 48 08          	lea    0x8(%rax),%rcx
  405279:	48 8d 45 c0          	lea    -0x40(%rbp),%rax
  40527d:	ba 00 00 00 00       	mov    $0x0,%edx
  405282:	48 89 c6             	mov    %rax,%rsi
  405285:	48 89 cf             	mov    %rcx,%rdi
  405288:	e8 17 fe ff ff       	callq  4050a4 <_ZN10tensorflow6OutputC1ERKNS_9OperationEi>
  40528d:	48 8d 45 c0          	lea    -0x40(%rbp),%rax
  405291:	48 89 c7             	mov    %rax,%rdi
  405294:	e8 b9 fd ff ff       	callq  405052 <_ZN10tensorflow9OperationD1Ev>
  405299:	48 8b 45 b8          	mov    -0x48(%rbp),%rax
  40529d:	48 8d 50 30          	lea    0x30(%rax),%rdx
  4052a1:	48 8b 45 b0          	mov    -0x50(%rbp),%rax
  4052a5:	48 89 c6             	mov    %rax,%rsi
  4052a8:	48 89 d7             	mov    %rdx,%rdi
  4052ab:	e8 22 fd ff ff       	callq  404fd2 <_ZN10tensorflow6TensorC1ERKS0_>
  4052b0:	48 8d 45 c0          	lea    -0x40(%rbp),%rax
  4052b4:	48 89 c7             	mov    %rax,%rdi
  4052b7:	e8 04 dc ff ff       	callq  402ec0 <_ZNSaIcEC1Ev@plt>
  4052bc:	48 8b 45 b8          	mov    -0x48(%rbp),%rax
  4052c0:	48 8d 48 50          	lea    0x50(%rax),%rcx
  4052c4:	48 8d 45 c0          	lea    -0x40(%rbp),%rax
  4052c8:	48 89 c2             	mov    %rax,%rdx
  4052cb:	be c0 9f 40 00       	mov    $0x409fc0,%esi
  4052d0:	48 89 cf             	mov    %rcx,%rdi
  4052d3:	e8 58 de ff ff       	callq  403130 <_ZNSt7__cxx1112basic_stringIcSt11char_traitsIcESaIcEEC1EPKcRKS3_@plt>
  4052d8:	48 8d 45 c0          	lea    -0x40(%rbp),%rax
  4052dc:	48 89 c7             	mov    %rax,%rdi
  4052df:	e8 4c e0 ff ff       	callq  403330 <_ZNSaIcED1Ev@plt>
  4052e4:	48 8b 45 b8          	mov    -0x48(%rbp),%rax
  4052e8:	c7 40 70 00 00 00 00 	movl   $0x0,0x70(%rax)
  4052ef:	48 8b 45 b8          	mov    -0x48(%rbp),%rax
  4052f3:	c7 40 74 00 00 00 00 	movl   $0x0,0x74(%rax)
  4052fa:	90                   	nop
  4052fb:	48 8b 45 e8          	mov    -0x18(%rbp),%rax
  4052ff:	64 48 33 04 25 28 00 	xor    %fs:0x28,%rax
  405306:	00 00 
  405308:	74 68                	je     405372 <_ZN10tensorflow5InputC1ERKNS_6TensorE+0x13e>
  40530a:	eb 61                	jmp    40536d <_ZN10tensorflow5InputC1ERKNS_6TensorE+0x139>
  40530c:	48 89 c3             	mov    %rax,%rbx
  40530f:	48 8d 45 c0          	lea    -0x40(%rbp),%rax
  405313:	48 89 c7             	mov    %rax,%rdi
  405316:	e8 37 fd ff ff       	callq  405052 <_ZN10tensorflow9OperationD1Ev>
  40531b:	eb 39                	jmp    405356 <_ZN10tensorflow5InputC1ERKNS_6TensorE+0x122>
  40531d:	48 89 c3             	mov    %rax,%rbx
  405320:	48 8d 45 c0          	lea    -0x40(%rbp),%rax
  405324:	48 89 c7             	mov    %rax,%rdi
  405327:	e8 04 e0 ff ff       	callq  403330 <_ZNSaIcED1Ev@plt>
  40532c:	48 8b 45 b8          	mov    -0x48(%rbp),%rax
  405330:	48 83 c0 30          	add    $0x30,%rax
  405334:	48 89 c7             	mov    %rax,%rdi
  405337:	e8 54 db ff ff       	callq  402e90 <_ZN10tensorflow6TensorD1Ev@plt>
  40533c:	eb 03                	jmp    405341 <_ZN10tensorflow5InputC1ERKNS_6TensorE+0x10d>
  40533e:	48 89 c3             	mov    %rax,%rbx
  405341:	48 8b 45 b8          	mov    -0x48(%rbp),%rax
  405345:	48 83 c0 08          	add    $0x8,%rax
  405349:	48 89 c7             	mov    %rax,%rdi
  40534c:	e8 87 fd ff ff       	callq  4050d8 <_ZN10tensorflow6OutputD1Ev>
  405351:	eb 03                	jmp    405356 <_ZN10tensorflow5InputC1ERKNS_6TensorE+0x122>
  405353:	48 89 c3             	mov    %rax,%rbx
  405356:	48 8b 45 b8          	mov    -0x48(%rbp),%rax
  40535a:	48 89 c7             	mov    %rax,%rdi
  40535d:	e8 48 f6 ff ff       	callq  4049aa <_ZN10tensorflow6StatusD1Ev>
  405362:	48 89 d8             	mov    %rbx,%rax
  405365:	48 89 c7             	mov    %rax,%rdi
  405368:	e8 93 dd ff ff       	callq  403100 <_Unwind_Resume@plt>
  40536d:	e8 ae da ff ff       	callq  402e20 <__stack_chk_fail@plt>
  405372:	48 83 c4 48          	add    $0x48,%rsp
  405376:	5b                   	pop    %rbx
  405377:	5d                   	pop    %rbp
  405378:	c3                   	retq   
  405379:	90                   	nop

000000000040537a <_ZN10tensorflow5Input11InitializerD1Ev>:
  40537a:	55                   	push   %rbp
  40537b:	48 89 e5             	mov    %rsp,%rbp
  40537e:	48 83 ec 10          	sub    $0x10,%rsp
  405382:	48 89 7d f8          	mov    %rdi,-0x8(%rbp)
  405386:	48 8b 45 f8          	mov    -0x8(%rbp),%rax
  40538a:	48 83 c0 08          	add    $0x8,%rax
  40538e:	48 89 c7             	mov    %rax,%rdi
  405391:	e8 fa da ff ff       	callq  402e90 <_ZN10tensorflow6TensorD1Ev@plt>
  405396:	48 8b 45 f8          	mov    -0x8(%rbp),%rax
  40539a:	48 89 c7             	mov    %rax,%rdi
  40539d:	e8 08 f6 ff ff       	callq  4049aa <_ZN10tensorflow6StatusD1Ev>
  4053a2:	90                   	nop
  4053a3:	c9                   	leaveq 
  4053a4:	c3                   	retq   
  4053a5:	90                   	nop

00000000004053a6 <_ZN10tensorflow5InputD1Ev>:
  4053a6:	55                   	push   %rbp
  4053a7:	48 89 e5             	mov    %rsp,%rbp
  4053aa:	48 83 ec 10          	sub    $0x10,%rsp
  4053ae:	48 89 7d f8          	mov    %rdi,-0x8(%rbp)
  4053b2:	48 8b 45 f8          	mov    -0x8(%rbp),%rax
  4053b6:	48 83 c0 50          	add    $0x50,%rax
  4053ba:	48 89 c7             	mov    %rax,%rdi
  4053bd:	e8 ae db ff ff       	callq  402f70 <_ZNSt7__cxx1112basic_stringIcSt11char_traitsIcESaIcEED1Ev@plt>
  4053c2:	48 8b 45 f8          	mov    -0x8(%rbp),%rax
  4053c6:	48 83 c0 30          	add    $0x30,%rax
  4053ca:	48 89 c7             	mov    %rax,%rdi
  4053cd:	e8 be da ff ff       	callq  402e90 <_ZN10tensorflow6TensorD1Ev@plt>
  4053d2:	48 8b 45 f8          	mov    -0x8(%rbp),%rax
  4053d6:	48 83 c0 08          	add    $0x8,%rax
  4053da:	48 89 c7             	mov    %rax,%rdi
  4053dd:	e8 f6 fc ff ff       	callq  4050d8 <_ZN10tensorflow6OutputD1Ev>
  4053e2:	48 8b 45 f8          	mov    -0x8(%rbp),%rax
  4053e6:	48 89 c7             	mov    %rax,%rdi
  4053e9:	e8 bc f5 ff ff       	callq  4049aa <_ZN10tensorflow6StatusD1Ev>
  4053ee:	90                   	nop
  4053ef:	c9                   	leaveq 
  4053f0:	c3                   	retq   
  4053f1:	90                   	nop

00000000004053f2 <_ZNKSt16initializer_listIN10tensorflow6OutputEE5beginEv>:
  4053f2:	55                   	push   %rbp
  4053f3:	48 89 e5             	mov    %rsp,%rbp
  4053f6:	48 89 7d f8          	mov    %rdi,-0x8(%rbp)
  4053fa:	48 8b 45 f8          	mov    -0x8(%rbp),%rax
  4053fe:	48 8b 00             	mov    (%rax),%rax
  405401:	5d                   	pop    %rbp
  405402:	c3                   	retq   
  405403:	90                   	nop

0000000000405404 <_ZNKSt16initializer_listIN10tensorflow6OutputEE4sizeEv>:
  405404:	55                   	push   %rbp
  405405:	48 89 e5             	mov    %rsp,%rbp
  405408:	48 89 7d f8          	mov    %rdi,-0x8(%rbp)
  40540c:	48 8b 45 f8          	mov    -0x8(%rbp),%rax
  405410:	48 8b 40 08          	mov    0x8(%rax),%rax
  405414:	5d                   	pop    %rbp
  405415:	c3                   	retq   

0000000000405416 <_ZNKSt16initializer_listIN10tensorflow6OutputEE3endEv>:
  405416:	55                   	push   %rbp
  405417:	48 89 e5             	mov    %rsp,%rbp
  40541a:	53                   	push   %rbx
  40541b:	48 83 ec 18          	sub    $0x18,%rsp
  40541f:	48 89 7d e8          	mov    %rdi,-0x18(%rbp)
  405423:	48 8b 45 e8          	mov    -0x18(%rbp),%rax
  405427:	48 89 c7             	mov    %rax,%rdi
  40542a:	e8 c3 ff ff ff       	callq  4053f2 <_ZNKSt16initializer_listIN10tensorflow6OutputEE5beginEv>
  40542f:	48 89 c3             	mov    %rax,%rbx
  405432:	48 8b 45 e8          	mov    -0x18(%rbp),%rax
  405436:	48 89 c7             	mov    %rax,%rdi
  405439:	e8 c6 ff ff ff       	callq  405404 <_ZNKSt16initializer_listIN10tensorflow6OutputEE4sizeEv>
  40543e:	48 89 c2             	mov    %rax,%rdx
  405441:	48 89 d0             	mov    %rdx,%rax
  405444:	48 c1 e0 02          	shl    $0x2,%rax
  405448:	48 01 d0             	add    %rdx,%rax
  40544b:	48 c1 e0 03          	shl    $0x3,%rax
  40544f:	48 01 d8             	add    %rbx,%rax
  405452:	48 83 c4 18          	add    $0x18,%rsp
  405456:	5b                   	pop    %rbx
  405457:	5d                   	pop    %rbp
  405458:	c3                   	retq   
  405459:	90                   	nop

000000000040545a <_ZNK10tensorflow13NodeExecStats9node_nameB5cxx11Ev>:
  40545a:	55                   	push   %rbp
  40545b:	48 89 e5             	mov    %rsp,%rbp
  40545e:	48 83 ec 10          	sub    $0x10,%rsp
  405462:	48 89 7d f8          	mov    %rdi,-0x8(%rbp)
  405466:	48 8b 45 f8          	mov    -0x8(%rbp),%rax
  40546a:	48 83 c0 58          	add    $0x58,%rax
  40546e:	48 89 c7             	mov    %rax,%rdi
  405471:	e8 60 f3 ff ff       	callq  4047d6 <_ZNK6google8protobuf8internal14ArenaStringPtr3GetB5cxx11Ev>
  405476:	c9                   	leaveq 
  405477:	c3                   	retq   

0000000000405478 <_ZNK10tensorflow13NodeExecStats18all_end_rel_microsEv>:
  405478:	55                   	push   %rbp
  405479:	48 89 e5             	mov    %rsp,%rbp
  40547c:	48 89 7d f8          	mov    %rdi,-0x8(%rbp)
  405480:	48 8b 45 f8          	mov    -0x8(%rbp),%rax
  405484:	48 8b 80 88 00 00 00 	mov    0x88(%rax),%rax
  40548b:	5d                   	pop    %rbp
  40548c:	c3                   	retq   
  40548d:	90                   	nop

000000000040548e <_ZNK10tensorflow15DeviceStepStats10node_statsEv>:
  40548e:	55                   	push   %rbp
  40548f:	48 89 e5             	mov    %rsp,%rbp
  405492:	48 89 7d f8          	mov    %rdi,-0x8(%rbp)
  405496:	48 8b 45 f8          	mov    -0x8(%rbp),%rax
  40549a:	48 83 c0 10          	add    $0x10,%rax
  40549e:	5d                   	pop    %rbp
  40549f:	c3                   	retq   

00000000004054a0 <_ZNK10tensorflow9StepStats9dev_statsEv>:
  4054a0:	55                   	push   %rbp
  4054a1:	48 89 e5             	mov    %rsp,%rbp
  4054a4:	48 89 7d f8          	mov    %rdi,-0x8(%rbp)
  4054a8:	48 8b 45 f8          	mov    -0x8(%rbp),%rax
  4054ac:	48 83 c0 10          	add    $0x10,%rax
  4054b0:	5d                   	pop    %rbp
  4054b1:	c3                   	retq   

00000000004054b2 <_ZN10tensorflow11RunMetadata25internal_default_instanceEv>:
  4054b2:	55                   	push   %rbp
  4054b3:	48 89 e5             	mov    %rsp,%rbp
  4054b6:	b8 e0 f2 60 00       	mov    $0x60f2e0,%eax
  4054bb:	5d                   	pop    %rbp
  4054bc:	c3                   	retq   
  4054bd:	90                   	nop

00000000004054be <_ZN10tensorflow10RunOptions15set_trace_levelENS_21RunOptions_TraceLevelE>:
  4054be:	55                   	push   %rbp
  4054bf:	48 89 e5             	mov    %rsp,%rbp
  4054c2:	48 89 7d f8          	mov    %rdi,-0x8(%rbp)
  4054c6:	89 75 f4             	mov    %esi,-0xc(%rbp)
  4054c9:	48 8b 45 f8          	mov    -0x8(%rbp),%rax
  4054cd:	8b 55 f4             	mov    -0xc(%rbp),%edx
  4054d0:	89 50 20             	mov    %edx,0x20(%rax)
  4054d3:	90                   	nop
  4054d4:	5d                   	pop    %rbp
  4054d5:	c3                   	retq   

00000000004054d6 <_ZNK10tensorflow11RunMetadata14has_step_statsEv>:
  4054d6:	55                   	push   %rbp
  4054d7:	48 89 e5             	mov    %rsp,%rbp
  4054da:	48 83 ec 10          	sub    $0x10,%rsp
  4054de:	48 89 7d f8          	mov    %rdi,-0x8(%rbp)
  4054e2:	e8 cb ff ff ff       	callq  4054b2 <_ZN10tensorflow11RunMetadata25internal_default_instanceEv>
  4054e7:	48 3b 45 f8          	cmp    -0x8(%rbp),%rax
  4054eb:	74 14                	je     405501 <_ZNK10tensorflow11RunMetadata14has_step_statsEv+0x2b>
  4054ed:	48 8b 45 f8          	mov    -0x8(%rbp),%rax
  4054f1:	48 8b 40 28          	mov    0x28(%rax),%rax
  4054f5:	48 85 c0             	test   %rax,%rax
  4054f8:	74 07                	je     405501 <_ZNK10tensorflow11RunMetadata14has_step_statsEv+0x2b>
  4054fa:	b8 01 00 00 00       	mov    $0x1,%eax
  4054ff:	eb 05                	jmp    405506 <_ZNK10tensorflow11RunMetadata14has_step_statsEv+0x30>
  405501:	b8 00 00 00 00       	mov    $0x0,%eax
  405506:	c9                   	leaveq 
  405507:	c3                   	retq   

0000000000405508 <_ZNK10tensorflow11RunMetadata10step_statsEv>:
  405508:	55                   	push   %rbp
  405509:	48 89 e5             	mov    %rsp,%rbp
  40550c:	48 89 7d e8          	mov    %rdi,-0x18(%rbp)
  405510:	48 8b 45 e8          	mov    -0x18(%rbp),%rax
  405514:	48 8b 40 28          	mov    0x28(%rax),%rax
  405518:	48 89 45 f8          	mov    %rax,-0x8(%rbp)
  40551c:	48 83 7d f8 00       	cmpq   $0x0,-0x8(%rbp)
  405521:	74 06                	je     405529 <_ZNK10tensorflow11RunMetadata10step_statsEv+0x21>
  405523:	48 8b 45 f8          	mov    -0x8(%rbp),%rax
  405527:	eb 05                	jmp    40552e <_ZNK10tensorflow11RunMetadata10step_statsEv+0x26>
  405529:	b8 20 f3 60 00       	mov    $0x60f320,%eax
  40552e:	5d                   	pop    %rbp
  40552f:	c3                   	retq   

0000000000405530 <_ZNK10tensorflow3ops7BiasAddcvNS_6OutputEEv>:
  405530:	55                   	push   %rbp
  405531:	48 89 e5             	mov    %rsp,%rbp
  405534:	48 83 ec 10          	sub    $0x10,%rsp
  405538:	48 89 7d f8          	mov    %rdi,-0x8(%rbp)
  40553c:	48 89 75 f0          	mov    %rsi,-0x10(%rbp)
  405540:	48 8b 55 f0          	mov    -0x10(%rbp),%rdx
  405544:	48 8b 45 f8          	mov    -0x8(%rbp),%rax
  405548:	48 89 d6             	mov    %rdx,%rsi
  40554b:	48 89 c7             	mov    %rax,%rdi
  40554e:	e8 a1 fb ff ff       	callq  4050f4 <_ZN10tensorflow6OutputC1ERKS0_>
  405553:	48 8b 45 f8          	mov    -0x8(%rbp),%rax
  405557:	c9                   	leaveq 
  405558:	c3                   	retq   
  405559:	90                   	nop

000000000040555a <_ZNK10tensorflow3ops6Conv2DcvNS_5InputEEv>:
  40555a:	55                   	push   %rbp
  40555b:	48 89 e5             	mov    %rsp,%rbp
  40555e:	48 83 ec 10          	sub    $0x10,%rsp
  405562:	48 89 7d f8          	mov    %rdi,-0x8(%rbp)
  405566:	48 89 75 f0          	mov    %rsi,-0x10(%rbp)
  40556a:	48 8b 55 f0          	mov    -0x10(%rbp),%rdx
  40556e:	48 8b 45 f8          	mov    -0x8(%rbp),%rax
  405572:	48 89 d6             	mov    %rdx,%rsi
  405575:	48 89 c7             	mov    %rax,%rdi
  405578:	e8 ab fb ff ff       	callq  405128 <_ZN10tensorflow5InputC1ERKNS_6OutputE>
  40557d:	48 8b 45 f8          	mov    -0x8(%rbp),%rax
  405581:	c9                   	leaveq 
  405582:	c3                   	retq   
  405583:	90                   	nop

0000000000405584 <_ZN10tensorflow21StatSummarizerOptionsC1Ev>:
  405584:	55                   	push   %rbp
  405585:	48 89 e5             	mov    %rsp,%rbp
  405588:	48 89 7d f8          	mov    %rdi,-0x8(%rbp)
  40558c:	48 8b 45 f8          	mov    -0x8(%rbp),%rax
  405590:	c6 00 01             	movb   $0x1,(%rax)
  405593:	48 8b 45 f8          	mov    -0x8(%rbp),%rax
  405597:	c7 40 04 00 00 00 00 	movl   $0x0,0x4(%rax)
  40559e:	48 8b 45 f8          	mov    -0x8(%rbp),%rax
  4055a2:	c6 40 08 01          	movb   $0x1,0x8(%rax)
  4055a6:	48 8b 45 f8          	mov    -0x8(%rbp),%rax
  4055aa:	c7 40 0c 0a 00 00 00 	movl   $0xa,0xc(%rax)
  4055b1:	48 8b 45 f8          	mov    -0x8(%rbp),%rax
  4055b5:	c6 40 10 01          	movb   $0x1,0x10(%rax)
  4055b9:	48 8b 45 f8          	mov    -0x8(%rbp),%rax
  4055bd:	c7 40 14 0a 00 00 00 	movl   $0xa,0x14(%rax)
  4055c4:	48 8b 45 f8          	mov    -0x8(%rbp),%rax
  4055c8:	c6 40 18 01          	movb   $0x1,0x18(%rax)
  4055cc:	48 8b 45 f8          	mov    -0x8(%rbp),%rax
  4055d0:	c6 40 19 01          	movb   $0x1,0x19(%rax)
  4055d4:	90                   	nop
  4055d5:	5d                   	pop    %rbp
  4055d6:	c3                   	retq   
  4055d7:	90                   	nop

00000000004055d8 <_ZNK2CK5Shape10data_countEv>:
  4055d8:	55                   	push   %rbp
  4055d9:	48 89 e5             	mov    %rsp,%rbp
  4055dc:	48 89 7d f8          	mov    %rdi,-0x8(%rbp)
  4055e0:	48 8b 45 f8          	mov    -0x8(%rbp),%rax
  4055e4:	8b 10                	mov    (%rax),%edx
  4055e6:	48 8b 45 f8          	mov    -0x8(%rbp),%rax
  4055ea:	8b 40 04             	mov    0x4(%rax),%eax
  4055ed:	0f af d0             	imul   %eax,%edx
  4055f0:	48 8b 45 f8          	mov    -0x8(%rbp),%rax
  4055f4:	8b 40 08             	mov    0x8(%rax),%eax
  4055f7:	0f af d0             	imul   %eax,%edx
  4055fa:	48 8b 45 f8          	mov    -0x8(%rbp),%rax
  4055fe:	8b 40 0c             	mov    0xc(%rax),%eax
  405601:	0f af c2             	imul   %edx,%eax
  405604:	5d                   	pop    %rbp
  405605:	c3                   	retq   

0000000000405606 <_ZNK2CK5Shape14get_flat_indexEiiii>:
  405606:	55                   	push   %rbp
  405607:	48 89 e5             	mov    %rsp,%rbp
  40560a:	48 83 ec 20          	sub    $0x20,%rsp
  40560e:	48 89 7d f8          	mov    %rdi,-0x8(%rbp)
  405612:	89 75 f4             	mov    %esi,-0xc(%rbp)
  405615:	89 55 f0             	mov    %edx,-0x10(%rbp)
  405618:	89 4d ec             	mov    %ecx,-0x14(%rbp)
  40561b:	44 89 45 e8          	mov    %r8d,-0x18(%rbp)
  40561f:	8b 7d e8             	mov    -0x18(%rbp),%edi
  405622:	8b 4d ec             	mov    -0x14(%rbp),%ecx
  405625:	8b 55 f0             	mov    -0x10(%rbp),%edx
  405628:	8b 75 f4             	mov    -0xc(%rbp),%esi
  40562b:	48 8b 45 f8          	mov    -0x8(%rbp),%rax
  40562f:	41 89 f8             	mov    %edi,%r8d
  405632:	48 89 c7             	mov    %rax,%rdi
  405635:	e8 02 00 00 00       	callq  40563c <_ZNK2CK5Shape19get_flat_index_nchwEiiii>
  40563a:	c9                   	leaveq 
  40563b:	c3                   	retq   

000000000040563c <_ZNK2CK5Shape19get_flat_index_nchwEiiii>:
  40563c:	55                   	push   %rbp
  40563d:	48 89 e5             	mov    %rsp,%rbp
  405640:	48 89 7d f8          	mov    %rdi,-0x8(%rbp)
  405644:	89 75 f4             	mov    %esi,-0xc(%rbp)
  405647:	89 55 f0             	mov    %edx,-0x10(%rbp)
  40564a:	89 4d ec             	mov    %ecx,-0x14(%rbp)
  40564d:	44 89 45 e8          	mov    %r8d,-0x18(%rbp)
  405651:	48 8b 45 f8          	mov    -0x8(%rbp),%rax
  405655:	8b 40 04             	mov    0x4(%rax),%eax
  405658:	0f af 45 f4          	imul   -0xc(%rbp),%eax
  40565c:	89 c2                	mov    %eax,%edx
  40565e:	8b 45 f0             	mov    -0x10(%rbp),%eax
  405661:	01 c2                	add    %eax,%edx
  405663:	48 8b 45 f8          	mov    -0x8(%rbp),%rax
  405667:	8b 40 08             	mov    0x8(%rax),%eax
  40566a:	0f af d0             	imul   %eax,%edx
  40566d:	8b 45 ec             	mov    -0x14(%rbp),%eax
  405670:	01 c2                	add    %eax,%edx
  405672:	48 8b 45 f8          	mov    -0x8(%rbp),%rax
  405676:	8b 40 0c             	mov    0xc(%rax),%eax
  405679:	0f af d0             	imul   %eax,%edx
  40567c:	8b 45 e8             	mov    -0x18(%rbp),%eax
  40567f:	01 d0                	add    %edx,%eax
  405681:	5d                   	pop    %rbp
  405682:	c3                   	retq   
  405683:	90                   	nop

0000000000405684 <_ZNK2CK5Shape19get_flat_index_nhwcEiiii>:
  405684:	55                   	push   %rbp
  405685:	48 89 e5             	mov    %rsp,%rbp
  405688:	48 89 7d f8          	mov    %rdi,-0x8(%rbp)
  40568c:	89 75 f4             	mov    %esi,-0xc(%rbp)
  40568f:	89 55 f0             	mov    %edx,-0x10(%rbp)
  405692:	89 4d ec             	mov    %ecx,-0x14(%rbp)
  405695:	44 89 45 e8          	mov    %r8d,-0x18(%rbp)
  405699:	48 8b 45 f8          	mov    -0x8(%rbp),%rax
  40569d:	8b 40 08             	mov    0x8(%rax),%eax
  4056a0:	0f af 45 f4          	imul   -0xc(%rbp),%eax
  4056a4:	89 c2                	mov    %eax,%edx
  4056a6:	8b 45 f0             	mov    -0x10(%rbp),%eax
  4056a9:	01 c2                	add    %eax,%edx
  4056ab:	48 8b 45 f8          	mov    -0x8(%rbp),%rax
  4056af:	8b 40 0c             	mov    0xc(%rax),%eax
  4056b2:	0f af d0             	imul   %eax,%edx
  4056b5:	8b 45 ec             	mov    -0x14(%rbp),%eax
  4056b8:	01 c2                	add    %eax,%edx
  4056ba:	48 8b 45 f8          	mov    -0x8(%rbp),%rax
  4056be:	8b 40 04             	mov    0x4(%rax),%eax
  4056c1:	0f af d0             	imul   %eax,%edx
  4056c4:	8b 45 e8             	mov    -0x18(%rbp),%eax
  4056c7:	01 d0                	add    %edx,%eax
  4056c9:	5d                   	pop    %rbp
  4056ca:	c3                   	retq   

00000000004056cb <_ZN2CK8getenv_iEPKci>:
  4056cb:	55                   	push   %rbp
  4056cc:	48 89 e5             	mov    %rsp,%rbp
  4056cf:	48 83 ec 10          	sub    $0x10,%rsp
  4056d3:	48 89 7d f8          	mov    %rdi,-0x8(%rbp)
  4056d7:	89 75 f4             	mov    %esi,-0xc(%rbp)
  4056da:	48 8b 45 f8          	mov    -0x8(%rbp),%rax
  4056de:	48 89 c7             	mov    %rax,%rdi
  4056e1:	e8 9a d8 ff ff       	callq  402f80 <getenv@plt>
  4056e6:	48 85 c0             	test   %rax,%rax
  4056e9:	74 16                	je     405701 <_ZN2CK8getenv_iEPKci+0x36>
  4056eb:	48 8b 45 f8          	mov    -0x8(%rbp),%rax
  4056ef:	48 89 c7             	mov    %rax,%rdi
  4056f2:	e8 89 d8 ff ff       	callq  402f80 <getenv@plt>
  4056f7:	48 89 c7             	mov    %rax,%rdi
  4056fa:	e8 71 d9 ff ff       	callq  403070 <atoi@plt>
  4056ff:	eb 03                	jmp    405704 <_ZN2CK8getenv_iEPKci+0x39>
  405701:	8b 45 f4             	mov    -0xc(%rbp),%eax
  405704:	c9                   	leaveq 
  405705:	c3                   	retq   

0000000000405706 <_ZN2CK8getenv_fEPKcd>:
  405706:	55                   	push   %rbp
  405707:	48 89 e5             	mov    %rsp,%rbp
  40570a:	48 83 ec 20          	sub    $0x20,%rsp
  40570e:	48 89 7d f8          	mov    %rdi,-0x8(%rbp)
  405712:	f2 0f 11 45 f0       	movsd  %xmm0,-0x10(%rbp)
  405717:	48 8b 45 f8          	mov    -0x8(%rbp),%rax
  40571b:	48 89 c7             	mov    %rax,%rdi
  40571e:	e8 5d d8 ff ff       	callq  402f80 <getenv@plt>
  405723:	48 85 c0             	test   %rax,%rax
  405726:	74 1b                	je     405743 <_ZN2CK8getenv_fEPKcd+0x3d>
  405728:	48 8b 45 f8          	mov    -0x8(%rbp),%rax
  40572c:	48 89 c7             	mov    %rax,%rdi
  40572f:	e8 4c d8 ff ff       	callq  402f80 <getenv@plt>
  405734:	48 89 c7             	mov    %rax,%rdi
  405737:	e8 94 db ff ff       	callq  4032d0 <atof@plt>
  40573c:	66 48 0f 7e c0       	movq   %xmm0,%rax
  405741:	eb 04                	jmp    405747 <_ZN2CK8getenv_fEPKcd+0x41>
  405743:	48 8b 45 f0          	mov    -0x10(%rbp),%rax
  405747:	48 89 45 e8          	mov    %rax,-0x18(%rbp)
  40574b:	f2 0f 10 45 e8       	movsd  -0x18(%rbp),%xmm0
  405750:	c9                   	leaveq 
  405751:	c3                   	retq   

0000000000405752 <_ZN2CK13store_value_iEiPKci>:
  405752:	55                   	push   %rbp
  405753:	48 89 e5             	mov    %rsp,%rbp
  405756:	48 83 ec 20          	sub    $0x20,%rsp
  40575a:	89 7d ec             	mov    %edi,-0x14(%rbp)
  40575d:	48 89 75 e0          	mov    %rsi,-0x20(%rbp)
  405761:	89 55 e8             	mov    %edx,-0x18(%rbp)
  405764:	48 8b 45 e0          	mov    -0x20(%rbp),%rax
  405768:	48 89 c7             	mov    %rax,%rdi
  40576b:	e8 30 d9 ff ff       	callq  4030a0 <strlen@plt>
  405770:	48 83 c0 06          	add    $0x6,%rax
  405774:	48 89 c7             	mov    %rax,%rdi
  405777:	e8 c4 da ff ff       	callq  403240 <_Znam@plt>
  40577c:	48 89 45 f8          	mov    %rax,-0x8(%rbp)
  405780:	48 8b 55 e0          	mov    -0x20(%rbp),%rdx
  405784:	48 8b 45 f8          	mov    -0x8(%rbp),%rax
  405788:	be 00 a0 40 00       	mov    $0x40a000,%esi
  40578d:	48 89 c7             	mov    %rax,%rdi
  405790:	b8 00 00 00 00       	mov    $0x0,%eax
  405795:	e8 36 d7 ff ff       	callq  402ed0 <sprintf@plt>
  40579a:	8b 55 e8             	mov    -0x18(%rbp),%edx
  40579d:	48 8b 4d f8          	mov    -0x8(%rbp),%rcx
  4057a1:	8b 45 ec             	mov    -0x14(%rbp),%eax
  4057a4:	48 89 ce             	mov    %rcx,%rsi
  4057a7:	89 c7                	mov    %eax,%edi
  4057a9:	e8 02 d9 ff ff       	callq  4030b0 <xopenme_add_var_i@plt>
  4057ae:	48 83 7d f8 00       	cmpq   $0x0,-0x8(%rbp)
  4057b3:	74 0c                	je     4057c1 <_ZN2CK13store_value_iEiPKci+0x6f>
  4057b5:	48 8b 45 f8          	mov    -0x8(%rbp),%rax
  4057b9:	48 89 c7             	mov    %rax,%rdi
  4057bc:	e8 bf d8 ff ff       	callq  403080 <_ZdaPv@plt>
  4057c1:	90                   	nop
  4057c2:	c9                   	leaveq 
  4057c3:	c3                   	retq   

00000000004057c4 <_ZN2CK13store_value_fEiPKcf>:
  4057c4:	55                   	push   %rbp
  4057c5:	48 89 e5             	mov    %rsp,%rbp
  4057c8:	48 83 ec 30          	sub    $0x30,%rsp
  4057cc:	89 7d ec             	mov    %edi,-0x14(%rbp)
  4057cf:	48 89 75 e0          	mov    %rsi,-0x20(%rbp)
  4057d3:	f3 0f 11 45 e8       	movss  %xmm0,-0x18(%rbp)
  4057d8:	48 8b 45 e0          	mov    -0x20(%rbp),%rax
  4057dc:	48 89 c7             	mov    %rax,%rdi
  4057df:	e8 bc d8 ff ff       	callq  4030a0 <strlen@plt>
  4057e4:	48 83 c0 06          	add    $0x6,%rax
  4057e8:	48 89 c7             	mov    %rax,%rdi
  4057eb:	e8 50 da ff ff       	callq  403240 <_Znam@plt>
  4057f0:	48 89 45 f8          	mov    %rax,-0x8(%rbp)
  4057f4:	48 8b 55 e0          	mov    -0x20(%rbp),%rdx
  4057f8:	48 8b 45 f8          	mov    -0x8(%rbp),%rax
  4057fc:	be 09 a0 40 00       	mov    $0x40a009,%esi
  405801:	48 89 c7             	mov    %rax,%rdi
  405804:	b8 00 00 00 00       	mov    $0x0,%eax
  405809:	e8 c2 d6 ff ff       	callq  402ed0 <sprintf@plt>
  40580e:	8b 4d e8             	mov    -0x18(%rbp),%ecx
  405811:	48 8b 55 f8          	mov    -0x8(%rbp),%rdx
  405815:	8b 45 ec             	mov    -0x14(%rbp),%eax
  405818:	89 4d dc             	mov    %ecx,-0x24(%rbp)
  40581b:	f3 0f 10 45 dc       	movss  -0x24(%rbp),%xmm0
  405820:	48 89 d6             	mov    %rdx,%rsi
  405823:	89 c7                	mov    %eax,%edi
  405825:	e8 76 d9 ff ff       	callq  4031a0 <xopenme_add_var_f@plt>
  40582a:	48 83 7d f8 00       	cmpq   $0x0,-0x8(%rbp)
  40582f:	74 0c                	je     40583d <_ZN2CK13store_value_fEiPKcf+0x79>
  405831:	48 8b 45 f8          	mov    -0x8(%rbp),%rax
  405835:	48 89 c7             	mov    %rax,%rdi
  405838:	e8 43 d8 ff ff       	callq  403080 <_ZdaPv@plt>
  40583d:	90                   	nop
  40583e:	c9                   	leaveq 
  40583f:	c3                   	retq   

0000000000405840 <_ZN2CK24get_input_shape_from_envEiiii>:
  405840:	55                   	push   %rbp
  405841:	48 89 e5             	mov    %rsp,%rbp
  405844:	48 83 ec 30          	sub    $0x30,%rsp
  405848:	89 7d dc             	mov    %edi,-0x24(%rbp)
  40584b:	89 75 d8             	mov    %esi,-0x28(%rbp)
  40584e:	89 55 d4             	mov    %edx,-0x2c(%rbp)
  405851:	89 4d d0             	mov    %ecx,-0x30(%rbp)
  405854:	64 48 8b 04 25 28 00 	mov    %fs:0x28,%rax
  40585b:	00 00 
  40585d:	48 89 45 f8          	mov    %rax,-0x8(%rbp)
  405861:	31 c0                	xor    %eax,%eax
  405863:	c7 45 e0 01 00 00 00 	movl   $0x1,-0x20(%rbp)
  40586a:	c7 45 e4 01 00 00 00 	movl   $0x1,-0x1c(%rbp)
  405871:	c7 45 e8 01 00 00 00 	movl   $0x1,-0x18(%rbp)
  405878:	c7 45 ec 01 00 00 00 	movl   $0x1,-0x14(%rbp)
  40587f:	8b 45 dc             	mov    -0x24(%rbp),%eax
  405882:	89 c6                	mov    %eax,%esi
  405884:	bf 12 a0 40 00       	mov    $0x40a012,%edi
  405889:	e8 3d fe ff ff       	callq  4056cb <_ZN2CK8getenv_iEPKci>
  40588e:	89 45 e0             	mov    %eax,-0x20(%rbp)
  405891:	8b 45 d8             	mov    -0x28(%rbp),%eax
  405894:	89 c6                	mov    %eax,%esi
  405896:	bf 20 a0 40 00       	mov    $0x40a020,%edi
  40589b:	e8 2b fe ff ff       	callq  4056cb <_ZN2CK8getenv_iEPKci>
  4058a0:	89 45 e4             	mov    %eax,-0x1c(%rbp)
  4058a3:	8b 45 d4             	mov    -0x2c(%rbp),%eax
  4058a6:	89 c6                	mov    %eax,%esi
  4058a8:	bf 2e a0 40 00       	mov    $0x40a02e,%edi
  4058ad:	e8 19 fe ff ff       	callq  4056cb <_ZN2CK8getenv_iEPKci>
  4058b2:	89 45 e8             	mov    %eax,-0x18(%rbp)
  4058b5:	8b 45 d0             	mov    -0x30(%rbp),%eax
  4058b8:	89 c6                	mov    %eax,%esi
  4058ba:	bf 3c a0 40 00       	mov    $0x40a03c,%edi
  4058bf:	e8 07 fe ff ff       	callq  4056cb <_ZN2CK8getenv_iEPKci>
  4058c4:	89 45 ec             	mov    %eax,-0x14(%rbp)
  4058c7:	8b 45 e0             	mov    -0x20(%rbp),%eax
  4058ca:	89 c2                	mov    %eax,%edx
  4058cc:	be 4a a0 40 00       	mov    $0x40a04a,%esi
  4058d1:	bf 04 00 00 00       	mov    $0x4,%edi
  4058d6:	e8 77 fe ff ff       	callq  405752 <_ZN2CK13store_value_iEiPKci>
  4058db:	8b 45 e4             	mov    -0x1c(%rbp),%eax
  4058de:	89 c2                	mov    %eax,%edx
  4058e0:	be 55 a0 40 00       	mov    $0x40a055,%esi
  4058e5:	bf 05 00 00 00       	mov    $0x5,%edi
  4058ea:	e8 63 fe ff ff       	callq  405752 <_ZN2CK13store_value_iEiPKci>
  4058ef:	8b 45 e8             	mov    -0x18(%rbp),%eax
  4058f2:	89 c2                	mov    %eax,%edx
  4058f4:	be 60 a0 40 00       	mov    $0x40a060,%esi
  4058f9:	bf 06 00 00 00       	mov    $0x6,%edi
  4058fe:	e8 4f fe ff ff       	callq  405752 <_ZN2CK13store_value_iEiPKci>
  405903:	8b 45 ec             	mov    -0x14(%rbp),%eax
  405906:	89 c2                	mov    %eax,%edx
  405908:	be 6b a0 40 00       	mov    $0x40a06b,%esi
  40590d:	bf 07 00 00 00       	mov    $0x7,%edi
  405912:	e8 3b fe ff ff       	callq  405752 <_ZN2CK13store_value_iEiPKci>
  405917:	8b 75 ec             	mov    -0x14(%rbp),%esi
  40591a:	8b 4d e8             	mov    -0x18(%rbp),%ecx
  40591d:	8b 55 e4             	mov    -0x1c(%rbp),%edx
  405920:	8b 45 e0             	mov    -0x20(%rbp),%eax
  405923:	41 89 f0             	mov    %esi,%r8d
  405926:	89 c6                	mov    %eax,%esi
  405928:	bf 78 a0 40 00       	mov    $0x40a078,%edi
  40592d:	b8 00 00 00 00       	mov    $0x0,%eax
  405932:	e8 d9 d5 ff ff       	callq  402f10 <printf@plt>
  405937:	48 8b 45 e0          	mov    -0x20(%rbp),%rax
  40593b:	48 8b 55 e8          	mov    -0x18(%rbp),%rdx
  40593f:	48 8b 4d f8          	mov    -0x8(%rbp),%rcx
  405943:	64 48 33 0c 25 28 00 	xor    %fs:0x28,%rcx
  40594a:	00 00 
  40594c:	74 05                	je     405953 <_ZN2CK24get_input_shape_from_envEiiii+0x113>
  40594e:	e8 cd d4 ff ff       	callq  402e20 <__stack_chk_fail@plt>
  405953:	c9                   	leaveq 
  405954:	c3                   	retq   

0000000000405955 <_ZN2CK24get_conv_params_from_envEiii>:
  405955:	55                   	push   %rbp
  405956:	48 89 e5             	mov    %rsp,%rbp
  405959:	48 83 ec 40          	sub    $0x40,%rsp
  40595d:	89 7d dc             	mov    %edi,-0x24(%rbp)
  405960:	89 75 d8             	mov    %esi,-0x28(%rbp)
  405963:	89 55 d4             	mov    %edx,-0x2c(%rbp)
  405966:	64 48 8b 04 25 28 00 	mov    %fs:0x28,%rax
  40596d:	00 00 
  40596f:	48 89 45 f8          	mov    %rax,-0x8(%rbp)
  405973:	31 c0                	xor    %eax,%eax
  405975:	48 c7 45 e0 00 00 00 	movq   $0x0,-0x20(%rbp)
  40597c:	00 
  40597d:	c7 45 e8 00 00 00 00 	movl   $0x0,-0x18(%rbp)
  405984:	8b 45 dc             	mov    -0x24(%rbp),%eax
  405987:	89 c6                	mov    %eax,%esi
  405989:	bf af a0 40 00       	mov    $0x40a0af,%edi
  40598e:	e8 38 fd ff ff       	callq  4056cb <_ZN2CK8getenv_iEPKci>
  405993:	89 45 e0             	mov    %eax,-0x20(%rbp)
  405996:	8b 45 d8             	mov    -0x28(%rbp),%eax
  405999:	89 c6                	mov    %eax,%esi
  40599b:	bf be a0 40 00       	mov    $0x40a0be,%edi
  4059a0:	e8 26 fd ff ff       	callq  4056cb <_ZN2CK8getenv_iEPKci>
  4059a5:	89 45 e4             	mov    %eax,-0x1c(%rbp)
  4059a8:	8b 45 d4             	mov    -0x2c(%rbp),%eax
  4059ab:	89 c6                	mov    %eax,%esi
  4059ad:	bf cd a0 40 00       	mov    $0x40a0cd,%edi
  4059b2:	e8 14 fd ff ff       	callq  4056cb <_ZN2CK8getenv_iEPKci>
  4059b7:	89 45 e8             	mov    %eax,-0x18(%rbp)
  4059ba:	8b 4d e8             	mov    -0x18(%rbp),%ecx
  4059bd:	8b 55 e4             	mov    -0x1c(%rbp),%edx
  4059c0:	8b 45 e0             	mov    -0x20(%rbp),%eax
  4059c3:	89 c6                	mov    %eax,%esi
  4059c5:	bf e0 a0 40 00       	mov    $0x40a0e0,%edi
  4059ca:	b8 00 00 00 00       	mov    $0x0,%eax
  4059cf:	e8 3c d5 ff ff       	callq  402f10 <printf@plt>
  4059d4:	48 8b 45 e0          	mov    -0x20(%rbp),%rax
  4059d8:	48 89 45 ec          	mov    %rax,-0x14(%rbp)
  4059dc:	8b 45 e8             	mov    -0x18(%rbp),%eax
  4059df:	89 45 f4             	mov    %eax,-0xc(%rbp)
  4059e2:	48 8b 55 ec          	mov    -0x14(%rbp),%rdx
  4059e6:	8b 45 f4             	mov    -0xc(%rbp),%eax
  4059e9:	48 89 d1             	mov    %rdx,%rcx
  4059ec:	89 c2                	mov    %eax,%edx
  4059ee:	48 89 c8             	mov    %rcx,%rax
  4059f1:	48 8b 4d f8          	mov    -0x8(%rbp),%rcx
  4059f5:	64 48 33 0c 25 28 00 	xor    %fs:0x28,%rcx
  4059fc:	00 00 
  4059fe:	74 05                	je     405a05 <_ZN2CK24get_conv_params_from_envEiii+0xb0>
  405a00:	e8 1b d4 ff ff       	callq  402e20 <__stack_chk_fail@plt>
  405a05:	c9                   	leaveq 
  405a06:	c3                   	retq   

0000000000405a07 <_ZN2CK9init_testEv>:
  405a07:	55                   	push   %rbp
  405a08:	48 89 e5             	mov    %rsp,%rbp
  405a0b:	48 83 ec 10          	sub    $0x10,%rsp
  405a0f:	be 0c 00 00 00       	mov    $0xc,%esi
  405a14:	bf 02 00 00 00       	mov    $0x2,%edi
  405a19:	e8 22 d6 ff ff       	callq  403040 <xopenme_init@plt>
  405a1e:	be 2a 00 00 00       	mov    $0x2a,%esi
  405a23:	bf 12 a1 40 00       	mov    $0x40a112,%edi
  405a28:	e8 9e fc ff ff       	callq  4056cb <_ZN2CK8getenv_iEPKci>
  405a2d:	89 45 fc             	mov    %eax,-0x4(%rbp)
  405a30:	8b 45 fc             	mov    -0x4(%rbp),%eax
  405a33:	89 c2                	mov    %eax,%edx
  405a35:	be 1a a1 40 00       	mov    $0x40a11a,%esi
  405a3a:	bf 08 00 00 00       	mov    $0x8,%edi
  405a3f:	e8 0e fd ff ff       	callq  405752 <_ZN2CK13store_value_iEiPKci>
  405a44:	8b 45 fc             	mov    -0x4(%rbp),%eax
  405a47:	89 c7                	mov    %eax,%edi
  405a49:	e8 b2 d5 ff ff       	callq  403000 <srand@plt>
  405a4e:	90                   	nop
  405a4f:	c9                   	leaveq 
  405a50:	c3                   	retq   

0000000000405a51 <_ZN2CK11finish_testEv>:
  405a51:	55                   	push   %rbp
  405a52:	48 89 e5             	mov    %rsp,%rbp
  405a55:	bf 00 00 00 00       	mov    $0x0,%edi
  405a5a:	e8 f1 d7 ff ff       	callq  403250 <xopenme_get_timer@plt>
  405a5f:	be 00 00 00 00       	mov    $0x0,%esi
  405a64:	bf 23 a1 40 00       	mov    $0x40a123,%edi
  405a69:	b8 01 00 00 00       	mov    $0x1,%eax
  405a6e:	e8 9d d4 ff ff       	callq  402f10 <printf@plt>
  405a73:	bf 01 00 00 00       	mov    $0x1,%edi
  405a78:	e8 d3 d7 ff ff       	callq  403250 <xopenme_get_timer@plt>
  405a7d:	be 01 00 00 00       	mov    $0x1,%esi
  405a82:	bf 37 a1 40 00       	mov    $0x40a137,%edi
  405a87:	b8 01 00 00 00       	mov    $0x1,%eax
  405a8c:	e8 7f d4 ff ff       	callq  402f10 <printf@plt>
  405a91:	e8 ea d6 ff ff       	callq  403180 <xopenme_dump_state@plt>
  405a96:	e8 75 d5 ff ff       	callq  403010 <xopenme_finish@plt>
  405a9b:	90                   	nop
  405a9c:	5d                   	pop    %rbp
  405a9d:	c3                   	retq   

0000000000405a9e <_ZN2CK2TF16get_node_time_msERKN10tensorflow9StepStatsEPKc>:
  405a9e:	55                   	push   %rbp
  405a9f:	48 89 e5             	mov    %rsp,%rbp
  405aa2:	48 83 ec 60          	sub    $0x60,%rsp
  405aa6:	48 89 7d a8          	mov    %rdi,-0x58(%rbp)
  405aaa:	48 89 75 a0          	mov    %rsi,-0x60(%rbp)
  405aae:	64 48 8b 04 25 28 00 	mov    %fs:0x28,%rax
  405ab5:	00 00 
  405ab7:	48 89 45 f8          	mov    %rax,-0x8(%rbp)
  405abb:	31 c0                	xor    %eax,%eax
  405abd:	48 c7 45 d0 00 00 00 	movq   $0x0,-0x30(%rbp)
  405ac4:	00 
  405ac5:	48 8b 45 a8          	mov    -0x58(%rbp),%rax
  405ac9:	48 89 c7             	mov    %rax,%rdi
  405acc:	e8 cf f9 ff ff       	callq  4054a0 <_ZNK10tensorflow9StepStats9dev_statsEv>
  405ad1:	48 89 45 d8          	mov    %rax,-0x28(%rbp)
  405ad5:	48 8b 45 d8          	mov    -0x28(%rbp),%rax
  405ad9:	48 89 c7             	mov    %rax,%rdi
  405adc:	e8 0f 0b 00 00       	callq  4065f0 <_ZNK6google8protobuf16RepeatedPtrFieldIN10tensorflow15DeviceStepStatsEE5beginEv>
  405ae1:	48 89 45 b0          	mov    %rax,-0x50(%rbp)
  405ae5:	48 8b 45 d8          	mov    -0x28(%rbp),%rax
  405ae9:	48 89 c7             	mov    %rax,%rdi
  405aec:	e8 65 0b 00 00       	callq  406656 <_ZNK6google8protobuf16RepeatedPtrFieldIN10tensorflow15DeviceStepStatsEE3endEv>
  405af1:	48 89 45 b8          	mov    %rax,-0x48(%rbp)
  405af5:	48 8d 55 b8          	lea    -0x48(%rbp),%rdx
  405af9:	48 8d 45 b0          	lea    -0x50(%rbp),%rax
  405afd:	48 89 d6             	mov    %rdx,%rsi
  405b00:	48 89 c7             	mov    %rax,%rdi
  405b03:	e8 d0 0b 00 00       	callq  4066d8 <_ZNK6google8protobuf8internal19RepeatedPtrIteratorIKN10tensorflow15DeviceStepStatsEEneERKS6_>
  405b08:	84 c0                	test   %al,%al
  405b0a:	0f 84 c4 00 00 00    	je     405bd4 <_ZN2CK2TF16get_node_time_msERKN10tensorflow9StepStatsEPKc+0x136>
  405b10:	48 8d 45 b0          	lea    -0x50(%rbp),%rax
  405b14:	48 89 c7             	mov    %rax,%rdi
  405b17:	e8 fe 0b 00 00       	callq  40671a <_ZNK6google8protobuf8internal19RepeatedPtrIteratorIKN10tensorflow15DeviceStepStatsEEdeEv>
  405b1c:	48 89 45 e0          	mov    %rax,-0x20(%rbp)
  405b20:	48 8b 45 e0          	mov    -0x20(%rbp),%rax
  405b24:	48 89 c7             	mov    %rax,%rdi
  405b27:	e8 62 f9 ff ff       	callq  40548e <_ZNK10tensorflow15DeviceStepStats10node_statsEv>
  405b2c:	48 89 45 e8          	mov    %rax,-0x18(%rbp)
  405b30:	48 8b 45 e8          	mov    -0x18(%rbp),%rax
  405b34:	48 89 c7             	mov    %rax,%rdi
  405b37:	e8 f2 0b 00 00       	callq  40672e <_ZNK6google8protobuf16RepeatedPtrFieldIN10tensorflow13NodeExecStatsEE5beginEv>
  405b3c:	48 89 45 c0          	mov    %rax,-0x40(%rbp)
  405b40:	48 8b 45 e8          	mov    -0x18(%rbp),%rax
  405b44:	48 89 c7             	mov    %rax,%rdi
  405b47:	e8 48 0c 00 00       	callq  406794 <_ZNK6google8protobuf16RepeatedPtrFieldIN10tensorflow13NodeExecStatsEE3endEv>
  405b4c:	48 89 45 c8          	mov    %rax,-0x38(%rbp)
  405b50:	48 8d 55 c8          	lea    -0x38(%rbp),%rdx
  405b54:	48 8d 45 c0          	lea    -0x40(%rbp),%rax
  405b58:	48 89 d6             	mov    %rdx,%rsi
  405b5b:	48 89 c7             	mov    %rax,%rdi
  405b5e:	e8 b3 0c 00 00       	callq  406816 <_ZNK6google8protobuf8internal19RepeatedPtrIteratorIKN10tensorflow13NodeExecStatsEEneERKS6_>
  405b63:	84 c0                	test   %al,%al
  405b65:	74 5c                	je     405bc3 <_ZN2CK2TF16get_node_time_msERKN10tensorflow9StepStatsEPKc+0x125>
  405b67:	48 8d 45 c0          	lea    -0x40(%rbp),%rax
  405b6b:	48 89 c7             	mov    %rax,%rdi
  405b6e:	e8 e5 0c 00 00       	callq  406858 <_ZNK6google8protobuf8internal19RepeatedPtrIteratorIKN10tensorflow13NodeExecStatsEEdeEv>
  405b73:	48 89 45 f0          	mov    %rax,-0x10(%rbp)
  405b77:	48 8b 45 f0          	mov    -0x10(%rbp),%rax
  405b7b:	48 89 c7             	mov    %rax,%rdi
  405b7e:	e8 d7 f8 ff ff       	callq  40545a <_ZNK10tensorflow13NodeExecStats9node_nameB5cxx11Ev>
  405b83:	48 89 c1             	mov    %rax,%rcx
  405b86:	48 8b 45 a0          	mov    -0x60(%rbp),%rax
  405b8a:	ba 00 00 00 00       	mov    $0x0,%edx
  405b8f:	48 89 c6             	mov    %rax,%rsi
  405b92:	48 89 cf             	mov    %rcx,%rdi
  405b95:	e8 96 d4 ff ff       	callq  403030 <_ZNKSt7__cxx1112basic_stringIcSt11char_traitsIcESaIcEE4findEPKcm@plt>
  405b9a:	48 83 f8 ff          	cmp    $0xffffffffffffffff,%rax
  405b9e:	0f 95 c0             	setne  %al
  405ba1:	84 c0                	test   %al,%al
  405ba3:	74 10                	je     405bb5 <_ZN2CK2TF16get_node_time_msERKN10tensorflow9StepStatsEPKc+0x117>
  405ba5:	48 8b 45 f0          	mov    -0x10(%rbp),%rax
  405ba9:	48 89 c7             	mov    %rax,%rdi
  405bac:	e8 c7 f8 ff ff       	callq  405478 <_ZNK10tensorflow13NodeExecStats18all_end_rel_microsEv>
  405bb1:	48 01 45 d0          	add    %rax,-0x30(%rbp)
  405bb5:	48 8d 45 c0          	lea    -0x40(%rbp),%rax
  405bb9:	48 89 c7             	mov    %rax,%rdi
  405bbc:	e8 77 0c 00 00       	callq  406838 <_ZN6google8protobuf8internal19RepeatedPtrIteratorIKN10tensorflow13NodeExecStatsEEppEv>
  405bc1:	eb 8d                	jmp    405b50 <_ZN2CK2TF16get_node_time_msERKN10tensorflow9StepStatsEPKc+0xb2>
  405bc3:	48 8d 45 b0          	lea    -0x50(%rbp),%rax
  405bc7:	48 89 c7             	mov    %rax,%rdi
  405bca:	e8 2b 0b 00 00       	callq  4066fa <_ZN6google8protobuf8internal19RepeatedPtrIteratorIKN10tensorflow15DeviceStepStatsEEppEv>
  405bcf:	e9 21 ff ff ff       	jmpq   405af5 <_ZN2CK2TF16get_node_time_msERKN10tensorflow9StepStatsEPKc+0x57>
  405bd4:	66 0f ef c0          	pxor   %xmm0,%xmm0
  405bd8:	f3 48 0f 2a 45 d0    	cvtsi2ssq -0x30(%rbp),%xmm0
  405bde:	f3 0f 10 0d 86 49 00 	movss  0x4986(%rip),%xmm1        # 40a56c <_ZZN2CK2TF16process_metadataERKN10tensorflow11RunMetadataEPKcE19__PRETTY_FUNCTION__+0x4c>
  405be5:	00 
  405be6:	f3 0f 5e c1          	divss  %xmm1,%xmm0
  405bea:	48 8b 45 f8          	mov    -0x8(%rbp),%rax
  405bee:	64 48 33 04 25 28 00 	xor    %fs:0x28,%rax
  405bf5:	00 00 
  405bf7:	74 05                	je     405bfe <_ZN2CK2TF16get_node_time_msERKN10tensorflow9StepStatsEPKc+0x160>
  405bf9:	e8 22 d2 ff ff       	callq  402e20 <__stack_chk_fail@plt>
  405bfe:	c9                   	leaveq 
  405bff:	c3                   	retq   

0000000000405c00 <_ZN2CK2TF14print_all_statERKN10tensorflow9StepStatsE>:
  405c00:	55                   	push   %rbp
  405c01:	48 89 e5             	mov    %rsp,%rbp
  405c04:	53                   	push   %rbx
  405c05:	48 81 ec 08 01 00 00 	sub    $0x108,%rsp
  405c0c:	48 89 bd f8 fe ff ff 	mov    %rdi,-0x108(%rbp)
  405c13:	64 48 8b 04 25 28 00 	mov    %fs:0x28,%rax
  405c1a:	00 00 
  405c1c:	48 89 45 e8          	mov    %rax,-0x18(%rbp)
  405c20:	31 c0                	xor    %eax,%eax
  405c22:	48 8d 85 00 ff ff ff 	lea    -0x100(%rbp),%rax
  405c29:	48 89 c7             	mov    %rax,%rdi
  405c2c:	e8 53 f9 ff ff       	callq  405584 <_ZN10tensorflow21StatSummarizerOptionsC1Ev>
  405c31:	48 8d 95 00 ff ff ff 	lea    -0x100(%rbp),%rdx
  405c38:	48 8d 85 20 ff ff ff 	lea    -0xe0(%rbp),%rax
  405c3f:	48 89 d6             	mov    %rdx,%rsi
  405c42:	48 89 c7             	mov    %rax,%rdi
  405c45:	e8 d6 d6 ff ff       	callq  403320 <_ZN10tensorflow14StatSummarizerC1ERKNS_21StatSummarizerOptionsE@plt>
  405c4a:	48 8b 95 f8 fe ff ff 	mov    -0x108(%rbp),%rdx
  405c51:	48 8d 85 20 ff ff ff 	lea    -0xe0(%rbp),%rax
  405c58:	48 89 d6             	mov    %rdx,%rsi
  405c5b:	48 89 c7             	mov    %rax,%rdi
  405c5e:	e8 1d d6 ff ff       	callq  403280 <_ZN10tensorflow14StatSummarizer16ProcessStepStatsERKNS_9StepStatsE@plt>
  405c63:	48 8d 85 20 ff ff ff 	lea    -0xe0(%rbp),%rax
  405c6a:	48 89 c7             	mov    %rax,%rdi
  405c6d:	e8 7e d5 ff ff       	callq  4031f0 <_ZNK10tensorflow14StatSummarizer14PrintStepStatsEv@plt>
  405c72:	48 8d 85 20 ff ff ff 	lea    -0xe0(%rbp),%rax
  405c79:	48 89 c7             	mov    %rax,%rdi
  405c7c:	e8 1f d3 ff ff       	callq  402fa0 <_ZN10tensorflow14StatSummarizerD1Ev@plt>
  405c81:	90                   	nop
  405c82:	48 8b 45 e8          	mov    -0x18(%rbp),%rax
  405c86:	64 48 33 04 25 28 00 	xor    %fs:0x28,%rax
  405c8d:	00 00 
  405c8f:	74 24                	je     405cb5 <_ZN2CK2TF14print_all_statERKN10tensorflow9StepStatsE+0xb5>
  405c91:	eb 1d                	jmp    405cb0 <_ZN2CK2TF14print_all_statERKN10tensorflow9StepStatsE+0xb0>
  405c93:	48 89 c3             	mov    %rax,%rbx
  405c96:	48 8d 85 20 ff ff ff 	lea    -0xe0(%rbp),%rax
  405c9d:	48 89 c7             	mov    %rax,%rdi
  405ca0:	e8 fb d2 ff ff       	callq  402fa0 <_ZN10tensorflow14StatSummarizerD1Ev@plt>
  405ca5:	48 89 d8             	mov    %rbx,%rax
  405ca8:	48 89 c7             	mov    %rax,%rdi
  405cab:	e8 50 d4 ff ff       	callq  403100 <_Unwind_Resume@plt>
  405cb0:	e8 6b d1 ff ff       	callq  402e20 <__stack_chk_fail@plt>
  405cb5:	48 81 c4 08 01 00 00 	add    $0x108,%rsp
  405cbc:	5b                   	pop    %rbx
  405cbd:	5d                   	pop    %rbp
  405cbe:	c3                   	retq   
  405cbf:	90                   	nop

0000000000405cc0 <_ZN10tensorflow11TensorShapeC1ESt16initializer_listIxE>:
  405cc0:	55                   	push   %rbp
  405cc1:	48 89 e5             	mov    %rsp,%rbp
  405cc4:	48 83 ec 20          	sub    $0x20,%rsp
  405cc8:	48 89 7d f8          	mov    %rdi,-0x8(%rbp)
  405ccc:	48 89 f0             	mov    %rsi,%rax
  405ccf:	48 89 d1             	mov    %rdx,%rcx
  405cd2:	48 89 ca             	mov    %rcx,%rdx
  405cd5:	48 89 45 e0          	mov    %rax,-0x20(%rbp)
  405cd9:	48 89 55 e8          	mov    %rdx,-0x18(%rbp)
  405cdd:	48 8b 45 f8          	mov    -0x8(%rbp),%rax
  405ce1:	48 8b 4d e0          	mov    -0x20(%rbp),%rcx
  405ce5:	48 8b 55 e8          	mov    -0x18(%rbp),%rdx
  405ce9:	48 89 ce             	mov    %rcx,%rsi
  405cec:	48 89 c7             	mov    %rax,%rdi
  405cef:	e8 7c d1 ff ff       	callq  402e70 <_ZN10tensorflow15TensorShapeBaseINS_11TensorShapeEEC2ESt16initializer_listIxE@plt>
  405cf4:	90                   	nop
  405cf5:	c9                   	leaveq 
  405cf6:	c3                   	retq   

0000000000405cf7 <_ZN2CK2TF16process_metadataERKN10tensorflow11RunMetadataEPKc>:
  405cf7:	55                   	push   %rbp
  405cf8:	48 89 e5             	mov    %rsp,%rbp
  405cfb:	48 83 ec 30          	sub    $0x30,%rsp
  405cff:	48 89 7d e8          	mov    %rdi,-0x18(%rbp)
  405d03:	48 89 75 e0          	mov    %rsi,-0x20(%rbp)
  405d07:	48 8b 45 e8          	mov    -0x18(%rbp),%rax
  405d0b:	48 89 c7             	mov    %rax,%rdi
  405d0e:	e8 c3 f7 ff ff       	callq  4054d6 <_ZNK10tensorflow11RunMetadata14has_step_statsEv>
  405d13:	84 c0                	test   %al,%al
  405d15:	75 19                	jne    405d30 <_ZN2CK2TF16process_metadataERKN10tensorflow11RunMetadataEPKc+0x39>
  405d17:	b9 20 a5 40 00       	mov    $0x40a520,%ecx
  405d1c:	ba 53 00 00 00       	mov    $0x53,%edx
  405d21:	be 60 a1 40 00       	mov    $0x40a160,%esi
  405d26:	bf c0 a1 40 00       	mov    $0x40a1c0,%edi
  405d2b:	e8 e0 d0 ff ff       	callq  402e10 <__assert_fail@plt>
  405d30:	48 8b 45 e8          	mov    -0x18(%rbp),%rax
  405d34:	48 89 c7             	mov    %rax,%rdi
  405d37:	e8 cc f7 ff ff       	callq  405508 <_ZNK10tensorflow11RunMetadata10step_statsEv>
  405d3c:	48 89 45 f8          	mov    %rax,-0x8(%rbp)
  405d40:	be 00 00 00 00       	mov    $0x0,%esi
  405d45:	bf de a1 40 00       	mov    $0x40a1de,%edi
  405d4a:	e8 7c f9 ff ff       	callq  4056cb <_ZN2CK8getenv_iEPKci>
  405d4f:	85 c0                	test   %eax,%eax
  405d51:	0f 95 c0             	setne  %al
  405d54:	84 c0                	test   %al,%al
  405d56:	74 0c                	je     405d64 <_ZN2CK2TF16process_metadataERKN10tensorflow11RunMetadataEPKc+0x6d>
  405d58:	48 8b 45 f8          	mov    -0x8(%rbp),%rax
  405d5c:	48 89 c7             	mov    %rax,%rdi
  405d5f:	e8 9c fe ff ff       	callq  405c00 <_ZN2CK2TF14print_all_statERKN10tensorflow9StepStatsE>
  405d64:	48 8b 55 e0          	mov    -0x20(%rbp),%rdx
  405d68:	48 8b 45 f8          	mov    -0x8(%rbp),%rax
  405d6c:	48 89 d6             	mov    %rdx,%rsi
  405d6f:	48 89 c7             	mov    %rax,%rdi
  405d72:	e8 27 fd ff ff       	callq  405a9e <_ZN2CK2TF16get_node_time_msERKN10tensorflow9StepStatsEPKc>
  405d77:	66 0f 7e c0          	movd   %xmm0,%eax
  405d7b:	89 45 f4             	mov    %eax,-0xc(%rbp)
  405d7e:	f3 0f 5a 45 f4       	cvtss2sd -0xc(%rbp),%xmm0
  405d83:	48 8b 45 e0          	mov    -0x20(%rbp),%rax
  405d87:	48 89 c6             	mov    %rax,%rsi
  405d8a:	bf f0 a1 40 00       	mov    $0x40a1f0,%edi
  405d8f:	b8 01 00 00 00       	mov    $0x1,%eax
  405d94:	e8 77 d1 ff ff       	callq  402f10 <printf@plt>
  405d99:	8b 45 f4             	mov    -0xc(%rbp),%eax
  405d9c:	89 45 dc             	mov    %eax,-0x24(%rbp)
  405d9f:	f3 0f 10 45 dc       	movss  -0x24(%rbp),%xmm0
  405da4:	e8 1c d7 ff ff       	callq  4034c5 <_ZN2CK15store_test_timeEf>
  405da9:	90                   	nop
  405daa:	c9                   	leaveq 
  405dab:	c3                   	retq   

0000000000405dac <_ZN10tensorflow3ops6Conv2DD1Ev>:
  405dac:	55                   	push   %rbp
  405dad:	48 89 e5             	mov    %rsp,%rbp
  405db0:	48 83 ec 10          	sub    $0x10,%rsp
  405db4:	48 89 7d f8          	mov    %rdi,-0x8(%rbp)
  405db8:	48 8b 45 f8          	mov    -0x8(%rbp),%rax
  405dbc:	48 89 c7             	mov    %rax,%rdi
  405dbf:	e8 14 f3 ff ff       	callq  4050d8 <_ZN10tensorflow6OutputD1Ev>
  405dc4:	90                   	nop
  405dc5:	c9                   	leaveq 
  405dc6:	c3                   	retq   
  405dc7:	90                   	nop

0000000000405dc8 <_ZN10tensorflow3ops7BiasAddD1Ev>:
  405dc8:	55                   	push   %rbp
  405dc9:	48 89 e5             	mov    %rsp,%rbp
  405dcc:	48 83 ec 10          	sub    $0x10,%rsp
  405dd0:	48 89 7d f8          	mov    %rdi,-0x8(%rbp)
  405dd4:	48 8b 45 f8          	mov    -0x8(%rbp),%rax
  405dd8:	48 89 c7             	mov    %rax,%rdi
  405ddb:	e8 f8 f2 ff ff       	callq  4050d8 <_ZN10tensorflow6OutputD1Ev>
  405de0:	90                   	nop
  405de1:	c9                   	leaveq 
  405de2:	c3                   	retq   
  405de3:	90                   	nop

0000000000405de4 <_ZNSt8__detail10_Select1stC1Ev>:
  405de4:	55                   	push   %rbp
  405de5:	48 89 e5             	mov    %rsp,%rbp
  405de8:	48 89 7d f8          	mov    %rdi,-0x8(%rbp)
  405dec:	90                   	nop
  405ded:	5d                   	pop    %rbp
  405dee:	c3                   	retq   
  405def:	90                   	nop

0000000000405df0 <_ZNSt8__detail21_Hashtable_ebo_helperILi0ENS_10_Select1stELb1EEC1Ev>:
  405df0:	55                   	push   %rbp
  405df1:	48 89 e5             	mov    %rsp,%rbp
  405df4:	48 83 ec 10          	sub    $0x10,%rsp
  405df8:	48 89 7d f8          	mov    %rdi,-0x8(%rbp)
  405dfc:	48 8b 45 f8          	mov    -0x8(%rbp),%rax
  405e00:	48 89 c7             	mov    %rax,%rdi
  405e03:	e8 dc ff ff ff       	callq  405de4 <_ZNSt8__detail10_Select1stC1Ev>
  405e08:	90                   	nop
  405e09:	c9                   	leaveq 
  405e0a:	c3                   	retq   
  405e0b:	90                   	nop

0000000000405e0c <_ZN10tensorflow10OutputHashC1Ev>:
  405e0c:	55                   	push   %rbp
  405e0d:	48 89 e5             	mov    %rsp,%rbp
  405e10:	48 89 7d f8          	mov    %rdi,-0x8(%rbp)
  405e14:	90                   	nop
  405e15:	5d                   	pop    %rbp
  405e16:	c3                   	retq   
  405e17:	90                   	nop

0000000000405e18 <_ZNSt8__detail21_Hashtable_ebo_helperILi1EN10tensorflow10OutputHashELb1EEC1Ev>:
  405e18:	55                   	push   %rbp
  405e19:	48 89 e5             	mov    %rsp,%rbp
  405e1c:	48 83 ec 10          	sub    $0x10,%rsp
  405e20:	48 89 7d f8          	mov    %rdi,-0x8(%rbp)
  405e24:	48 8b 45 f8          	mov    -0x8(%rbp),%rax
  405e28:	48 89 c7             	mov    %rax,%rdi
  405e2b:	e8 dc ff ff ff       	callq  405e0c <_ZN10tensorflow10OutputHashC1Ev>
  405e30:	90                   	nop
  405e31:	c9                   	leaveq 
  405e32:	c3                   	retq   
  405e33:	90                   	nop

0000000000405e34 <_ZNSt8__detail18_Mod_range_hashingC1Ev>:
  405e34:	55                   	push   %rbp
  405e35:	48 89 e5             	mov    %rsp,%rbp
  405e38:	48 89 7d f8          	mov    %rdi,-0x8(%rbp)
  405e3c:	90                   	nop
  405e3d:	5d                   	pop    %rbp
  405e3e:	c3                   	retq   
  405e3f:	90                   	nop

0000000000405e40 <_ZNSt8__detail21_Hashtable_ebo_helperILi2ENS_18_Mod_range_hashingELb1EEC1Ev>:
  405e40:	55                   	push   %rbp
  405e41:	48 89 e5             	mov    %rsp,%rbp
  405e44:	48 83 ec 10          	sub    $0x10,%rsp
  405e48:	48 89 7d f8          	mov    %rdi,-0x8(%rbp)
  405e4c:	48 8b 45 f8          	mov    -0x8(%rbp),%rax
  405e50:	48 89 c7             	mov    %rax,%rdi
  405e53:	e8 dc ff ff ff       	callq  405e34 <_ZNSt8__detail18_Mod_range_hashingC1Ev>
  405e58:	90                   	nop
  405e59:	c9                   	leaveq 
  405e5a:	c3                   	retq   
  405e5b:	90                   	nop

0000000000405e5c <_ZNSt8__detail15_Hash_code_baseIN10tensorflow6OutputESt4pairIKS2_NS1_5Input11InitializerEENS_10_Select1stENS1_10OutputHashENS_18_Mod_range_hashingENS_20_Default_ranged_hashELb1EEC1Ev>:
  405e5c:	55                   	push   %rbp
  405e5d:	48 89 e5             	mov    %rsp,%rbp
  405e60:	48 83 ec 10          	sub    $0x10,%rsp
  405e64:	48 89 7d f8          	mov    %rdi,-0x8(%rbp)
  405e68:	48 8b 45 f8          	mov    -0x8(%rbp),%rax
  405e6c:	48 89 c7             	mov    %rax,%rdi
  405e6f:	e8 7c ff ff ff       	callq  405df0 <_ZNSt8__detail21_Hashtable_ebo_helperILi0ENS_10_Select1stELb1EEC1Ev>
  405e74:	48 8b 45 f8          	mov    -0x8(%rbp),%rax
  405e78:	48 89 c7             	mov    %rax,%rdi
  405e7b:	e8 98 ff ff ff       	callq  405e18 <_ZNSt8__detail21_Hashtable_ebo_helperILi1EN10tensorflow10OutputHashELb1EEC1Ev>
  405e80:	48 8b 45 f8          	mov    -0x8(%rbp),%rax
  405e84:	48 89 c7             	mov    %rax,%rdi
  405e87:	e8 b4 ff ff ff       	callq  405e40 <_ZNSt8__detail21_Hashtable_ebo_helperILi2ENS_18_Mod_range_hashingELb1EEC1Ev>
  405e8c:	90                   	nop
  405e8d:	c9                   	leaveq 
  405e8e:	c3                   	retq   
  405e8f:	90                   	nop

0000000000405e90 <_ZNSt15binary_functionIN10tensorflow6OutputES1_bEC1Ev>:
  405e90:	55                   	push   %rbp
  405e91:	48 89 e5             	mov    %rsp,%rbp
  405e94:	48 89 7d f8          	mov    %rdi,-0x8(%rbp)
  405e98:	90                   	nop
  405e99:	5d                   	pop    %rbp
  405e9a:	c3                   	retq   
  405e9b:	90                   	nop

0000000000405e9c <_ZNSt8equal_toIN10tensorflow6OutputEEC1Ev>:
  405e9c:	55                   	push   %rbp
  405e9d:	48 89 e5             	mov    %rsp,%rbp
  405ea0:	48 83 ec 10          	sub    $0x10,%rsp
  405ea4:	48 89 7d f8          	mov    %rdi,-0x8(%rbp)
  405ea8:	48 8b 45 f8          	mov    -0x8(%rbp),%rax
  405eac:	48 89 c7             	mov    %rax,%rdi
  405eaf:	e8 dc ff ff ff       	callq  405e90 <_ZNSt15binary_functionIN10tensorflow6OutputES1_bEC1Ev>
  405eb4:	90                   	nop
  405eb5:	c9                   	leaveq 
  405eb6:	c3                   	retq   
  405eb7:	90                   	nop

0000000000405eb8 <_ZNSt8__detail21_Hashtable_ebo_helperILi0ESt8equal_toIN10tensorflow6OutputEELb1EEC1Ev>:
  405eb8:	55                   	push   %rbp
  405eb9:	48 89 e5             	mov    %rsp,%rbp
  405ebc:	48 83 ec 10          	sub    $0x10,%rsp
  405ec0:	48 89 7d f8          	mov    %rdi,-0x8(%rbp)
  405ec4:	48 8b 45 f8          	mov    -0x8(%rbp),%rax
  405ec8:	48 89 c7             	mov    %rax,%rdi
  405ecb:	e8 cc ff ff ff       	callq  405e9c <_ZNSt8equal_toIN10tensorflow6OutputEEC1Ev>
  405ed0:	90                   	nop
  405ed1:	c9                   	leaveq 
  405ed2:	c3                   	retq   
  405ed3:	90                   	nop

0000000000405ed4 <_ZNSt8__detail15_Hashtable_baseIN10tensorflow6OutputESt4pairIKS2_NS1_5Input11InitializerEENS_10_Select1stESt8equal_toIS2_ENS1_10OutputHashENS_18_Mod_range_hashingENS_20_Default_ranged_hashENS_17_Hashtable_traitsILb1ELb0ELb1EEEEC1Ev>:
  405ed4:	55                   	push   %rbp
  405ed5:	48 89 e5             	mov    %rsp,%rbp
  405ed8:	48 83 ec 10          	sub    $0x10,%rsp
  405edc:	48 89 7d f8          	mov    %rdi,-0x8(%rbp)
  405ee0:	48 8b 45 f8          	mov    -0x8(%rbp),%rax
  405ee4:	48 89 c7             	mov    %rax,%rdi
  405ee7:	e8 70 ff ff ff       	callq  405e5c <_ZNSt8__detail15_Hash_code_baseIN10tensorflow6OutputESt4pairIKS2_NS1_5Input11InitializerEENS_10_Select1stENS1_10OutputHashENS_18_Mod_range_hashingENS_20_Default_ranged_hashELb1EEC1Ev>
  405eec:	48 8b 45 f8          	mov    -0x8(%rbp),%rax
  405ef0:	48 89 c7             	mov    %rax,%rdi
  405ef3:	e8 c0 ff ff ff       	callq  405eb8 <_ZNSt8__detail21_Hashtable_ebo_helperILi0ESt8equal_toIN10tensorflow6OutputEELb1EEC1Ev>
  405ef8:	90                   	nop
  405ef9:	c9                   	leaveq 
  405efa:	c3                   	retq   
  405efb:	90                   	nop

0000000000405efc <_ZNSt8__detail9_Map_baseIN10tensorflow6OutputESt4pairIKS2_NS1_5Input11InitializerEESaIS7_ENS_10_Select1stESt8equal_toIS2_ENS1_10OutputHashENS_18_Mod_range_hashingENS_20_Default_ranged_hashENS_20_Prime_rehash_policyENS_17_Hashtable_traitsILb1ELb0ELb1EEELb1EEC1Ev>:
  405efc:	55                   	push   %rbp
  405efd:	48 89 e5             	mov    %rsp,%rbp
  405f00:	48 89 7d f8          	mov    %rdi,-0x8(%rbp)
  405f04:	90                   	nop
  405f05:	5d                   	pop    %rbp
  405f06:	c3                   	retq   
  405f07:	90                   	nop

0000000000405f08 <_ZNSt8__detail12_Insert_baseIN10tensorflow6OutputESt4pairIKS2_NS1_5Input11InitializerEESaIS7_ENS_10_Select1stESt8equal_toIS2_ENS1_10OutputHashENS_18_Mod_range_hashingENS_20_Default_ranged_hashENS_20_Prime_rehash_policyENS_17_Hashtable_traitsILb1ELb0ELb1EEEEC1Ev>:
  405f08:	55                   	push   %rbp
  405f09:	48 89 e5             	mov    %rsp,%rbp
  405f0c:	48 89 7d f8          	mov    %rdi,-0x8(%rbp)
  405f10:	90                   	nop
  405f11:	5d                   	pop    %rbp
  405f12:	c3                   	retq   
  405f13:	90                   	nop

0000000000405f14 <_ZNSt8__detail7_InsertIN10tensorflow6OutputESt4pairIKS2_NS1_5Input11InitializerEESaIS7_ENS_10_Select1stESt8equal_toIS2_ENS1_10OutputHashENS_18_Mod_range_hashingENS_20_Default_ranged_hashENS_20_Prime_rehash_policyENS_17_Hashtable_traitsILb1ELb0ELb1EEELb0ELb1EEC1Ev>:
  405f14:	55                   	push   %rbp
  405f15:	48 89 e5             	mov    %rsp,%rbp
  405f18:	48 83 ec 10          	sub    $0x10,%rsp
  405f1c:	48 89 7d f8          	mov    %rdi,-0x8(%rbp)
  405f20:	48 8b 45 f8          	mov    -0x8(%rbp),%rax
  405f24:	48 89 c7             	mov    %rax,%rdi
  405f27:	e8 dc ff ff ff       	callq  405f08 <_ZNSt8__detail12_Insert_baseIN10tensorflow6OutputESt4pairIKS2_NS1_5Input11InitializerEESaIS7_ENS_10_Select1stESt8equal_toIS2_ENS1_10OutputHashENS_18_Mod_range_hashingENS_20_Default_ranged_hashENS_20_Prime_rehash_policyENS_17_Hashtable_traitsILb1ELb0ELb1EEEEC1Ev>
  405f2c:	90                   	nop
  405f2d:	c9                   	leaveq 
  405f2e:	c3                   	retq   
  405f2f:	90                   	nop

0000000000405f30 <_ZNSt8__detail12_Rehash_baseIN10tensorflow6OutputESt4pairIKS2_NS1_5Input11InitializerEESaIS7_ENS_10_Select1stESt8equal_toIS2_ENS1_10OutputHashENS_18_Mod_range_hashingENS_20_Default_ranged_hashENS_20_Prime_rehash_policyENS_17_Hashtable_traitsILb1ELb0ELb1EEEEC1Ev>:
  405f30:	55                   	push   %rbp
  405f31:	48 89 e5             	mov    %rsp,%rbp
  405f34:	48 89 7d f8          	mov    %rdi,-0x8(%rbp)
  405f38:	90                   	nop
  405f39:	5d                   	pop    %rbp
  405f3a:	c3                   	retq   
  405f3b:	90                   	nop

0000000000405f3c <_ZNSt8__detail9_EqualityIN10tensorflow6OutputESt4pairIKS2_NS1_5Input11InitializerEESaIS7_ENS_10_Select1stESt8equal_toIS2_ENS1_10OutputHashENS_18_Mod_range_hashingENS_20_Default_ranged_hashENS_20_Prime_rehash_policyENS_17_Hashtable_traitsILb1ELb0ELb1EEELb1EEC1Ev>:
  405f3c:	55                   	push   %rbp
  405f3d:	48 89 e5             	mov    %rsp,%rbp
  405f40:	48 89 7d f8          	mov    %rdi,-0x8(%rbp)
  405f44:	90                   	nop
  405f45:	5d                   	pop    %rbp
  405f46:	c3                   	retq   
  405f47:	90                   	nop

0000000000405f48 <_ZNSt8__detail21_Hashtable_ebo_helperILi0ESaINS_10_Hash_nodeISt4pairIKN10tensorflow6OutputENS3_5Input11InitializerEELb1EEEELb1EEC1Ev>:
  405f48:	55                   	push   %rbp
  405f49:	48 89 e5             	mov    %rsp,%rbp
  405f4c:	48 83 ec 10          	sub    $0x10,%rsp
  405f50:	48 89 7d f8          	mov    %rdi,-0x8(%rbp)
  405f54:	48 8b 45 f8          	mov    -0x8(%rbp),%rax
  405f58:	48 89 c7             	mov    %rax,%rdi
  405f5b:	e8 b2 0e 00 00       	callq  406e12 <_ZNSaINSt8__detail10_Hash_nodeISt4pairIKN10tensorflow6OutputENS2_5Input11InitializerEELb1EEEEC1Ev>
  405f60:	90                   	nop
  405f61:	c9                   	leaveq 
  405f62:	c3                   	retq   
  405f63:	90                   	nop

0000000000405f64 <_ZNSt8__detail21_Hashtable_ebo_helperILi0ESaINS_10_Hash_nodeISt4pairIKN10tensorflow6OutputENS3_5Input11InitializerEELb1EEEELb1EED1Ev>:
  405f64:	55                   	push   %rbp
  405f65:	48 89 e5             	mov    %rsp,%rbp
  405f68:	48 83 ec 10          	sub    $0x10,%rsp
  405f6c:	48 89 7d f8          	mov    %rdi,-0x8(%rbp)
  405f70:	48 8b 45 f8          	mov    -0x8(%rbp),%rax
  405f74:	48 89 c7             	mov    %rax,%rdi
  405f77:	e8 b2 0e 00 00       	callq  406e2e <_ZNSaINSt8__detail10_Hash_nodeISt4pairIKN10tensorflow6OutputENS2_5Input11InitializerEELb1EEEED1Ev>
  405f7c:	90                   	nop
  405f7d:	c9                   	leaveq 
  405f7e:	c3                   	retq   
  405f7f:	90                   	nop

0000000000405f80 <_ZNSt8__detail16_Hashtable_allocISaINS_10_Hash_nodeISt4pairIKN10tensorflow6OutputENS3_5Input11InitializerEELb1EEEEEC1Ev>:
  405f80:	55                   	push   %rbp
  405f81:	48 89 e5             	mov    %rsp,%rbp
  405f84:	48 83 ec 10          	sub    $0x10,%rsp
  405f88:	48 89 7d f8          	mov    %rdi,-0x8(%rbp)
  405f8c:	48 8b 45 f8          	mov    -0x8(%rbp),%rax
  405f90:	48 89 c7             	mov    %rax,%rdi
  405f93:	e8 b0 ff ff ff       	callq  405f48 <_ZNSt8__detail21_Hashtable_ebo_helperILi0ESaINS_10_Hash_nodeISt4pairIKN10tensorflow6OutputENS3_5Input11InitializerEELb1EEEELb1EEC1Ev>
  405f98:	90                   	nop
  405f99:	c9                   	leaveq 
  405f9a:	c3                   	retq   
  405f9b:	90                   	nop

0000000000405f9c <_ZNSt8__detail16_Hashtable_allocISaINS_10_Hash_nodeISt4pairIKN10tensorflow6OutputENS3_5Input11InitializerEELb1EEEEED1Ev>:
  405f9c:	55                   	push   %rbp
  405f9d:	48 89 e5             	mov    %rsp,%rbp
  405fa0:	48 83 ec 10          	sub    $0x10,%rsp
  405fa4:	48 89 7d f8          	mov    %rdi,-0x8(%rbp)
  405fa8:	48 8b 45 f8          	mov    -0x8(%rbp),%rax
  405fac:	48 89 c7             	mov    %rax,%rdi
  405faf:	e8 b0 ff ff ff       	callq  405f64 <_ZNSt8__detail21_Hashtable_ebo_helperILi0ESaINS_10_Hash_nodeISt4pairIKN10tensorflow6OutputENS3_5Input11InitializerEELb1EEEELb1EED1Ev>
  405fb4:	90                   	nop
  405fb5:	c9                   	leaveq 
  405fb6:	c3                   	retq   
  405fb7:	90                   	nop

0000000000405fb8 <_ZNSt10_HashtableIN10tensorflow6OutputESt4pairIKS1_NS0_5Input11InitializerEESaIS6_ENSt8__detail10_Select1stESt8equal_toIS1_ENS0_10OutputHashENS8_18_Mod_range_hashingENS8_20_Default_ranged_hashENS8_20_Prime_rehash_policyENS8_17_Hashtable_traitsILb1ELb0ELb1EEEEC1Ev>:
  405fb8:	55                   	push   %rbp
  405fb9:	48 89 e5             	mov    %rsp,%rbp
  405fbc:	48 83 ec 10          	sub    $0x10,%rsp
  405fc0:	48 89 7d f8          	mov    %rdi,-0x8(%rbp)
  405fc4:	48 8b 45 f8          	mov    -0x8(%rbp),%rax
  405fc8:	48 89 c7             	mov    %rax,%rdi
  405fcb:	e8 04 ff ff ff       	callq  405ed4 <_ZNSt8__detail15_Hashtable_baseIN10tensorflow6OutputESt4pairIKS2_NS1_5Input11InitializerEENS_10_Select1stESt8equal_toIS2_ENS1_10OutputHashENS_18_Mod_range_hashingENS_20_Default_ranged_hashENS_17_Hashtable_traitsILb1ELb0ELb1EEEEC1Ev>
  405fd0:	48 8b 45 f8          	mov    -0x8(%rbp),%rax
  405fd4:	48 89 c7             	mov    %rax,%rdi
  405fd7:	e8 20 ff ff ff       	callq  405efc <_ZNSt8__detail9_Map_baseIN10tensorflow6OutputESt4pairIKS2_NS1_5Input11InitializerEESaIS7_ENS_10_Select1stESt8equal_toIS2_ENS1_10OutputHashENS_18_Mod_range_hashingENS_20_Default_ranged_hashENS_20_Prime_rehash_policyENS_17_Hashtable_traitsILb1ELb0ELb1EEELb1EEC1Ev>
  405fdc:	48 8b 45 f8          	mov    -0x8(%rbp),%rax
  405fe0:	48 89 c7             	mov    %rax,%rdi
  405fe3:	e8 2c ff ff ff       	callq  405f14 <_ZNSt8__detail7_InsertIN10tensorflow6OutputESt4pairIKS2_NS1_5Input11InitializerEESaIS7_ENS_10_Select1stESt8equal_toIS2_ENS1_10OutputHashENS_18_Mod_range_hashingENS_20_Default_ranged_hashENS_20_Prime_rehash_policyENS_17_Hashtable_traitsILb1ELb0ELb1EEELb0ELb1EEC1Ev>
  405fe8:	48 8b 45 f8          	mov    -0x8(%rbp),%rax
  405fec:	48 89 c7             	mov    %rax,%rdi
  405fef:	e8 3c ff ff ff       	callq  405f30 <_ZNSt8__detail12_Rehash_baseIN10tensorflow6OutputESt4pairIKS2_NS1_5Input11InitializerEESaIS7_ENS_10_Select1stESt8equal_toIS2_ENS1_10OutputHashENS_18_Mod_range_hashingENS_20_Default_ranged_hashENS_20_Prime_rehash_policyENS_17_Hashtable_traitsILb1ELb0ELb1EEEEC1Ev>
  405ff4:	48 8b 45 f8          	mov    -0x8(%rbp),%rax
  405ff8:	48 89 c7             	mov    %rax,%rdi
  405ffb:	e8 3c ff ff ff       	callq  405f3c <_ZNSt8__detail9_EqualityIN10tensorflow6OutputESt4pairIKS2_NS1_5Input11InitializerEESaIS7_ENS_10_Select1stESt8equal_toIS2_ENS1_10OutputHashENS_18_Mod_range_hashingENS_20_Default_ranged_hashENS_20_Prime_rehash_policyENS_17_Hashtable_traitsILb1ELb0ELb1EEELb1EEC1Ev>
  406000:	48 8b 45 f8          	mov    -0x8(%rbp),%rax
  406004:	48 89 c7             	mov    %rax,%rdi
  406007:	e8 74 ff ff ff       	callq  405f80 <_ZNSt8__detail16_Hashtable_allocISaINS_10_Hash_nodeISt4pairIKN10tensorflow6OutputENS3_5Input11InitializerEELb1EEEEEC1Ev>
  40600c:	48 8b 45 f8          	mov    -0x8(%rbp),%rax
  406010:	48 8d 50 30          	lea    0x30(%rax),%rdx
  406014:	48 8b 45 f8          	mov    -0x8(%rbp),%rax
  406018:	48 89 10             	mov    %rdx,(%rax)
  40601b:	48 8b 45 f8          	mov    -0x8(%rbp),%rax
  40601f:	48 c7 40 08 01 00 00 	movq   $0x1,0x8(%rax)
  406026:	00 
  406027:	48 8b 45 f8          	mov    -0x8(%rbp),%rax
  40602b:	48 83 c0 10          	add    $0x10,%rax
  40602f:	48 89 c7             	mov    %rax,%rdi
  406032:	e8 53 e7 ff ff       	callq  40478a <_ZNSt8__detail15_Hash_node_baseC1Ev>
  406037:	48 8b 45 f8          	mov    -0x8(%rbp),%rax
  40603b:	48 c7 40 18 00 00 00 	movq   $0x0,0x18(%rax)
  406042:	00 
  406043:	48 8b 45 f8          	mov    -0x8(%rbp),%rax
  406047:	48 83 c0 20          	add    $0x20,%rax
  40604b:	f3 0f 10 05 1d 45 00 	movss  0x451d(%rip),%xmm0        # 40a570 <_ZZN2CK2TF16process_metadataERKN10tensorflow11RunMetadataEPKcE19__PRETTY_FUNCTION__+0x50>
  406052:	00 
  406053:	48 89 c7             	mov    %rax,%rdi
  406056:	e8 45 e7 ff ff       	callq  4047a0 <_ZNSt8__detail20_Prime_rehash_policyC1Ef>
  40605b:	48 8b 45 f8          	mov    -0x8(%rbp),%rax
  40605f:	48 c7 40 30 00 00 00 	movq   $0x0,0x30(%rax)
  406066:	00 
  406067:	90                   	nop
  406068:	c9                   	leaveq 
  406069:	c3                   	retq   

000000000040606a <_ZNSt13unordered_mapIN10tensorflow6OutputENS0_5Input11InitializerENS0_10OutputHashESt8equal_toIS1_ESaISt4pairIKS1_S3_EEEC1Ev>:
  40606a:	55                   	push   %rbp
  40606b:	48 89 e5             	mov    %rsp,%rbp
  40606e:	48 83 ec 10          	sub    $0x10,%rsp
  406072:	48 89 7d f8          	mov    %rdi,-0x8(%rbp)
  406076:	48 8b 45 f8          	mov    -0x8(%rbp),%rax
  40607a:	48 89 c7             	mov    %rax,%rdi
  40607d:	e8 36 ff ff ff       	callq  405fb8 <_ZNSt10_HashtableIN10tensorflow6OutputESt4pairIKS1_NS0_5Input11InitializerEESaIS6_ENSt8__detail10_Select1stESt8equal_toIS1_ENS0_10OutputHashENS8_18_Mod_range_hashingENS8_20_Default_ranged_hashENS8_20_Prime_rehash_policyENS8_17_Hashtable_traitsILb1ELb0ELb1EEEEC1Ev>
  406082:	90                   	nop
  406083:	c9                   	leaveq 
  406084:	c3                   	retq   
  406085:	90                   	nop

0000000000406086 <_ZNSt13unordered_mapIN10tensorflow6OutputENS0_5Input11InitializerENS0_10OutputHashESt8equal_toIS1_ESaISt4pairIKS1_S3_EEED1Ev>:
  406086:	55                   	push   %rbp
  406087:	48 89 e5             	mov    %rsp,%rbp
  40608a:	48 83 ec 10          	sub    $0x10,%rsp
  40608e:	48 89 7d f8          	mov    %rdi,-0x8(%rbp)
  406092:	48 8b 45 f8          	mov    -0x8(%rbp),%rax
  406096:	48 89 c7             	mov    %rax,%rdi
  406099:	e8 ac 0d 00 00       	callq  406e4a <_ZNSt10_HashtableIN10tensorflow6OutputESt4pairIKS1_NS0_5Input11InitializerEESaIS6_ENSt8__detail10_Select1stESt8equal_toIS1_ENS0_10OutputHashENS8_18_Mod_range_hashingENS8_20_Default_ranged_hashENS8_20_Prime_rehash_policyENS8_17_Hashtable_traitsILb1ELb0ELb1EEEED1Ev>
  40609e:	90                   	nop
  40609f:	c9                   	leaveq 
  4060a0:	c3                   	retq   
  4060a1:	90                   	nop

00000000004060a2 <_ZN5Eigen8Symbolic8BaseExprINS0_10SymbolExprINS_12placeholders8internal17symbolic_last_tagEEEEC1Ev>:
  4060a2:	55                   	push   %rbp
  4060a3:	48 89 e5             	mov    %rsp,%rbp
  4060a6:	48 89 7d f8          	mov    %rdi,-0x8(%rbp)
  4060aa:	90                   	nop
  4060ab:	5d                   	pop    %rbp
  4060ac:	c3                   	retq   
  4060ad:	90                   	nop

00000000004060ae <_ZN5Eigen8Symbolic10SymbolExprINS_12placeholders8internal17symbolic_last_tagEEC1Ev>:
  4060ae:	55                   	push   %rbp
  4060af:	48 89 e5             	mov    %rsp,%rbp
  4060b2:	48 83 ec 10          	sub    $0x10,%rsp
  4060b6:	48 89 7d f8          	mov    %rdi,-0x8(%rbp)
  4060ba:	48 8b 45 f8          	mov    -0x8(%rbp),%rax
  4060be:	48 89 c7             	mov    %rax,%rdi
  4060c1:	e8 dc ff ff ff       	callq  4060a2 <_ZN5Eigen8Symbolic8BaseExprINS0_10SymbolExprINS_12placeholders8internal17symbolic_last_tagEEEEC1Ev>
  4060c6:	90                   	nop
  4060c7:	c9                   	leaveq 
  4060c8:	c3                   	retq   

00000000004060c9 <_ZN5Eigen3fixILi1EEENS_8internal8FixedIntIXT_EEEv>:
  4060c9:	55                   	push   %rbp
  4060ca:	48 89 e5             	mov    %rsp,%rbp
  4060cd:	53                   	push   %rbx
  4060ce:	48 83 ec 18          	sub    $0x18,%rsp
  4060d2:	64 48 8b 04 25 28 00 	mov    %fs:0x28,%rax
  4060d9:	00 00 
  4060db:	48 89 45 e8          	mov    %rax,-0x18(%rbp)
  4060df:	31 c0                	xor    %eax,%eax
  4060e1:	48 8d 45 e7          	lea    -0x19(%rbp),%rax
  4060e5:	48 89 c7             	mov    %rax,%rdi
  4060e8:	e8 91 11 00 00       	callq  40727e <_ZN5Eigen8internal8FixedIntILi1EEC1Ev>
  4060ed:	89 d8                	mov    %ebx,%eax
  4060ef:	48 8b 55 e8          	mov    -0x18(%rbp),%rdx
  4060f3:	64 48 33 14 25 28 00 	xor    %fs:0x28,%rdx
  4060fa:	00 00 
  4060fc:	74 05                	je     406103 <_ZN5Eigen3fixILi1EEENS_8internal8FixedIntIXT_EEEv+0x3a>
  4060fe:	e8 1d cd ff ff       	callq  402e20 <__stack_chk_fail@plt>
  406103:	48 83 c4 18          	add    $0x18,%rsp
  406107:	5b                   	pop    %rbx
  406108:	5d                   	pop    %rbp
  406109:	c3                   	retq   

000000000040610a <_ZNK5Eigen8Symbolic8BaseExprINS0_10SymbolExprINS_12placeholders8internal17symbolic_last_tagEEEEplILi1EEENS0_7AddExprIS6_NS0_9ValueExprINS_8internal8FixedIntIXT_EEEEEEESD_>:
  40610a:	55                   	push   %rbp
  40610b:	48 89 e5             	mov    %rsp,%rbp
  40610e:	53                   	push   %rbx
  40610f:	48 83 ec 28          	sub    $0x28,%rsp
  406113:	48 89 7d d8          	mov    %rdi,-0x28(%rbp)
  406117:	64 48 8b 04 25 28 00 	mov    %fs:0x28,%rax
  40611e:	00 00 
  406120:	48 89 45 e8          	mov    %rax,-0x18(%rbp)
  406124:	31 c0                	xor    %eax,%eax
  406126:	48 8d 45 e5          	lea    -0x1b(%rbp),%rax
  40612a:	48 89 c7             	mov    %rax,%rdi
  40612d:	e8 66 11 00 00       	callq  407298 <_ZN5Eigen8Symbolic9ValueExprINS_8internal8FixedIntILi1EEEEC1Ev>
  406132:	48 8b 45 d8          	mov    -0x28(%rbp),%rax
  406136:	48 89 c7             	mov    %rax,%rdi
  406139:	e8 4c 11 00 00       	callq  40728a <_ZNK5Eigen8Symbolic8BaseExprINS0_10SymbolExprINS_12placeholders8internal17symbolic_last_tagEEEE7derivedEv>
  40613e:	48 89 c1             	mov    %rax,%rcx
  406141:	48 8d 55 e5          	lea    -0x1b(%rbp),%rdx
  406145:	48 8d 45 e6          	lea    -0x1a(%rbp),%rax
  406149:	48 89 ce             	mov    %rcx,%rsi
  40614c:	48 89 c7             	mov    %rax,%rdi
  40614f:	e8 5c 11 00 00       	callq  4072b0 <_ZN5Eigen8Symbolic7AddExprINS0_10SymbolExprINS_12placeholders8internal17symbolic_last_tagEEENS0_9ValueExprINS_8internal8FixedIntILi1EEEEEEC1ERKS6_RKSB_>
  406154:	89 d8                	mov    %ebx,%eax
  406156:	48 8b 75 e8          	mov    -0x18(%rbp),%rsi
  40615a:	64 48 33 34 25 28 00 	xor    %fs:0x28,%rsi
  406161:	00 00 
  406163:	74 05                	je     40616a <_ZNK5Eigen8Symbolic8BaseExprINS0_10SymbolExprINS_12placeholders8internal17symbolic_last_tagEEEEplILi1EEENS0_7AddExprIS6_NS0_9ValueExprINS_8internal8FixedIntIXT_EEEEEEESD_+0x60>
  406165:	e8 b6 cc ff ff       	callq  402e20 <__stack_chk_fail@plt>
  40616a:	48 83 c4 28          	add    $0x28,%rsp
  40616e:	5b                   	pop    %rbx
  40616f:	5d                   	pop    %rbp
  406170:	c3                   	retq   

0000000000406171 <_ZN10tensorflow8internal12Check_EQImplImmEEPNSt7__cxx1112basic_stringIcSt11char_traitsIcESaIcEEERKT_RKT0_PKc>:
  406171:	55                   	push   %rbp
  406172:	48 89 e5             	mov    %rsp,%rbp
  406175:	48 83 ec 20          	sub    $0x20,%rsp
  406179:	48 89 7d f8          	mov    %rdi,-0x8(%rbp)
  40617d:	48 89 75 f0          	mov    %rsi,-0x10(%rbp)
  406181:	48 89 55 e8          	mov    %rdx,-0x18(%rbp)
  406185:	48 8b 45 f8          	mov    -0x8(%rbp),%rax
  406189:	48 8b 10             	mov    (%rax),%rdx
  40618c:	48 8b 45 f0          	mov    -0x10(%rbp),%rax
  406190:	48 8b 00             	mov    (%rax),%rax
  406193:	48 39 c2             	cmp    %rax,%rdx
  406196:	75 07                	jne    40619f <_ZN10tensorflow8internal12Check_EQImplImmEEPNSt7__cxx1112basic_stringIcSt11char_traitsIcESaIcEEERKT_RKT0_PKc+0x2e>
  406198:	b8 00 00 00 00       	mov    $0x0,%eax
  40619d:	eb 17                	jmp    4061b6 <_ZN10tensorflow8internal12Check_EQImplImmEEPNSt7__cxx1112basic_stringIcSt11char_traitsIcESaIcEEERKT_RKT0_PKc+0x45>
  40619f:	48 8b 55 e8          	mov    -0x18(%rbp),%rdx
  4061a3:	48 8b 4d f0          	mov    -0x10(%rbp),%rcx
  4061a7:	48 8b 45 f8          	mov    -0x8(%rbp),%rax
  4061ab:	48 89 ce             	mov    %rcx,%rsi
  4061ae:	48 89 c7             	mov    %rax,%rdi
  4061b1:	e8 6d 11 00 00       	callq  407323 <_ZN10tensorflow8internal17MakeCheckOpStringImmEEPNSt7__cxx1112basic_stringIcSt11char_traitsIcESaIcEEERKT_RKT0_PKc>
  4061b6:	c9                   	leaveq 
  4061b7:	c3                   	retq   

00000000004061b8 <_ZNSt10_Head_baseILm0EPN10tensorflow6Status5StateELb0EE7_M_headERS4_>:
  4061b8:	55                   	push   %rbp
  4061b9:	48 89 e5             	mov    %rsp,%rbp
  4061bc:	48 89 7d f8          	mov    %rdi,-0x8(%rbp)
  4061c0:	48 8b 45 f8          	mov    -0x8(%rbp),%rax
  4061c4:	5d                   	pop    %rbp
  4061c5:	c3                   	retq   

00000000004061c6 <_ZNSt11_Tuple_implILm0EJPN10tensorflow6Status5StateESt14default_deleteIS2_EEE7_M_headERS6_>:
  4061c6:	55                   	push   %rbp
  4061c7:	48 89 e5             	mov    %rsp,%rbp
  4061ca:	48 83 ec 10          	sub    $0x10,%rsp
  4061ce:	48 89 7d f8          	mov    %rdi,-0x8(%rbp)
  4061d2:	48 8b 45 f8          	mov    -0x8(%rbp),%rax
  4061d6:	48 89 c7             	mov    %rax,%rdi
  4061d9:	e8 da ff ff ff       	callq  4061b8 <_ZNSt10_Head_baseILm0EPN10tensorflow6Status5StateELb0EE7_M_headERS4_>
  4061de:	c9                   	leaveq 
  4061df:	c3                   	retq   

00000000004061e0 <_ZSt12__get_helperILm0EPN10tensorflow6Status5StateEJSt14default_deleteIS2_EEERT0_RSt11_Tuple_implIXT_EJS6_DpT1_EE>:
  4061e0:	55                   	push   %rbp
  4061e1:	48 89 e5             	mov    %rsp,%rbp
  4061e4:	48 83 ec 10          	sub    $0x10,%rsp
  4061e8:	48 89 7d f8          	mov    %rdi,-0x8(%rbp)
  4061ec:	48 8b 45 f8          	mov    -0x8(%rbp),%rax
  4061f0:	48 89 c7             	mov    %rax,%rdi
  4061f3:	e8 ce ff ff ff       	callq  4061c6 <_ZNSt11_Tuple_implILm0EJPN10tensorflow6Status5StateESt14default_deleteIS2_EEE7_M_headERS6_>
  4061f8:	c9                   	leaveq 
  4061f9:	c3                   	retq   

00000000004061fa <_ZSt3getILm0EJPN10tensorflow6Status5StateESt14default_deleteIS2_EEERNSt13tuple_elementIXT_ESt5tupleIJDpT0_EEE4typeERSA_>:
  4061fa:	55                   	push   %rbp
  4061fb:	48 89 e5             	mov    %rsp,%rbp
  4061fe:	48 83 ec 10          	sub    $0x10,%rsp
  406202:	48 89 7d f8          	mov    %rdi,-0x8(%rbp)
  406206:	48 8b 45 f8          	mov    -0x8(%rbp),%rax
  40620a:	48 89 c7             	mov    %rax,%rdi
  40620d:	e8 ce ff ff ff       	callq  4061e0 <_ZSt12__get_helperILm0EPN10tensorflow6Status5StateEJSt14default_deleteIS2_EEERT0_RSt11_Tuple_implIXT_EJS6_DpT1_EE>
  406212:	c9                   	leaveq 
  406213:	c3                   	retq   

0000000000406214 <_ZNSt10unique_ptrIN10tensorflow6Status5StateESt14default_deleteIS2_EED1Ev>:
  406214:	55                   	push   %rbp
  406215:	48 89 e5             	mov    %rsp,%rbp
  406218:	53                   	push   %rbx
  406219:	48 83 ec 28          	sub    $0x28,%rsp
  40621d:	48 89 7d d8          	mov    %rdi,-0x28(%rbp)
  406221:	48 8b 45 d8          	mov    -0x28(%rbp),%rax
  406225:	48 89 c7             	mov    %rax,%rdi
  406228:	e8 cd ff ff ff       	callq  4061fa <_ZSt3getILm0EJPN10tensorflow6Status5StateESt14default_deleteIS2_EEERNSt13tuple_elementIXT_ESt5tupleIJDpT0_EEE4typeERSA_>
  40622d:	48 89 45 e8          	mov    %rax,-0x18(%rbp)
  406231:	48 8b 45 e8          	mov    -0x18(%rbp),%rax
  406235:	48 8b 00             	mov    (%rax),%rax
  406238:	48 85 c0             	test   %rax,%rax
  40623b:	74 1e                	je     40625b <_ZNSt10unique_ptrIN10tensorflow6Status5StateESt14default_deleteIS2_EED1Ev+0x47>
  40623d:	48 8b 45 e8          	mov    -0x18(%rbp),%rax
  406241:	48 8b 18             	mov    (%rax),%rbx
  406244:	48 8b 45 d8          	mov    -0x28(%rbp),%rax
  406248:	48 89 c7             	mov    %rax,%rdi
  40624b:	e8 f8 11 00 00       	callq  407448 <_ZNSt10unique_ptrIN10tensorflow6Status5StateESt14default_deleteIS2_EE11get_deleterEv>
  406250:	48 89 de             	mov    %rbx,%rsi
  406253:	48 89 c7             	mov    %rax,%rdi
  406256:	e8 27 12 00 00       	callq  407482 <_ZNKSt14default_deleteIN10tensorflow6Status5StateEEclEPS2_>
  40625b:	48 8b 45 e8          	mov    -0x18(%rbp),%rax
  40625f:	48 c7 00 00 00 00 00 	movq   $0x0,(%rax)
  406266:	90                   	nop
  406267:	48 83 c4 28          	add    $0x28,%rsp
  40626b:	5b                   	pop    %rbx
  40626c:	5d                   	pop    %rbp
  40626d:	c3                   	retq   

000000000040626e <_ZSteqIN10tensorflow6Status5StateESt14default_deleteIS2_EEbRKSt10unique_ptrIT_T0_EDn>:
  40626e:	55                   	push   %rbp
  40626f:	48 89 e5             	mov    %rsp,%rbp
  406272:	48 83 ec 10          	sub    $0x10,%rsp
  406276:	48 89 7d f8          	mov    %rdi,-0x8(%rbp)
  40627a:	48 89 75 f0          	mov    %rsi,-0x10(%rbp)
  40627e:	48 8b 45 f8          	mov    -0x8(%rbp),%rax
  406282:	48 89 c7             	mov    %rax,%rdi
  406285:	e8 2a 12 00 00       	callq  4074b4 <_ZNKSt10unique_ptrIN10tensorflow6Status5StateESt14default_deleteIS2_EEcvbEv>
  40628a:	83 f0 01             	xor    $0x1,%eax
  40628d:	c9                   	leaveq 
  40628e:	c3                   	retq   
  40628f:	90                   	nop

0000000000406290 <_ZNKSt10unique_ptrIN10tensorflow6Status5StateESt14default_deleteIS2_EEdeEv>:
  406290:	55                   	push   %rbp
  406291:	48 89 e5             	mov    %rsp,%rbp
  406294:	48 83 ec 10          	sub    $0x10,%rsp
  406298:	48 89 7d f8          	mov    %rdi,-0x8(%rbp)
  40629c:	48 8b 45 f8          	mov    -0x8(%rbp),%rax
  4062a0:	48 89 c7             	mov    %rax,%rdi
  4062a3:	e8 94 00 00 00       	callq  40633c <_ZNKSt10unique_ptrIN10tensorflow6Status5StateESt14default_deleteIS2_EE3getEv>
  4062a8:	c9                   	leaveq 
  4062a9:	c3                   	retq   

00000000004062aa <_ZNSt10unique_ptrIN10tensorflow6Status5StateESt14default_deleteIS2_EEC1EPS2_>:
  4062aa:	55                   	push   %rbp
  4062ab:	48 89 e5             	mov    %rsp,%rbp
  4062ae:	48 83 ec 10          	sub    $0x10,%rsp
  4062b2:	48 89 7d f8          	mov    %rdi,-0x8(%rbp)
  4062b6:	48 89 75 f0          	mov    %rsi,-0x10(%rbp)
  4062ba:	48 8b 45 f8          	mov    -0x8(%rbp),%rax
  4062be:	48 89 c7             	mov    %rax,%rdi
  4062c1:	e8 90 e6 ff ff       	callq  404956 <_ZNSt5tupleIJPN10tensorflow6Status5StateESt14default_deleteIS2_EEEC1IS3_S5_Lb1EEEv>
  4062c6:	48 8b 45 f8          	mov    -0x8(%rbp),%rax
  4062ca:	48 89 c7             	mov    %rax,%rdi
  4062cd:	e8 28 ff ff ff       	callq  4061fa <_ZSt3getILm0EJPN10tensorflow6Status5StateESt14default_deleteIS2_EEERNSt13tuple_elementIXT_ESt5tupleIJDpT0_EEE4typeERSA_>
  4062d2:	48 89 c2             	mov    %rax,%rdx
  4062d5:	48 8b 45 f0          	mov    -0x10(%rbp),%rax
  4062d9:	48 89 02             	mov    %rax,(%rdx)
  4062dc:	90                   	nop
  4062dd:	c9                   	leaveq 
  4062de:	c3                   	retq   

00000000004062df <_ZNSt10_Head_baseILm0EPN10tensorflow6Status5StateELb0EE7_M_headERKS4_>:
  4062df:	55                   	push   %rbp
  4062e0:	48 89 e5             	mov    %rsp,%rbp
  4062e3:	48 89 7d f8          	mov    %rdi,-0x8(%rbp)
  4062e7:	48 8b 45 f8          	mov    -0x8(%rbp),%rax
  4062eb:	5d                   	pop    %rbp
  4062ec:	c3                   	retq   

00000000004062ed <_ZNSt11_Tuple_implILm0EJPN10tensorflow6Status5StateESt14default_deleteIS2_EEE7_M_headERKS6_>:
  4062ed:	55                   	push   %rbp
  4062ee:	48 89 e5             	mov    %rsp,%rbp
  4062f1:	48 83 ec 10          	sub    $0x10,%rsp
  4062f5:	48 89 7d f8          	mov    %rdi,-0x8(%rbp)
  4062f9:	48 8b 45 f8          	mov    -0x8(%rbp),%rax
  4062fd:	48 89 c7             	mov    %rax,%rdi
  406300:	e8 da ff ff ff       	callq  4062df <_ZNSt10_Head_baseILm0EPN10tensorflow6Status5StateELb0EE7_M_headERKS4_>
  406305:	c9                   	leaveq 
  406306:	c3                   	retq   

0000000000406307 <_ZSt12__get_helperILm0EPN10tensorflow6Status5StateEJSt14default_deleteIS2_EEERKT0_RKSt11_Tuple_implIXT_EJS6_DpT1_EE>:
  406307:	55                   	push   %rbp
  406308:	48 89 e5             	mov    %rsp,%rbp
  40630b:	48 83 ec 10          	sub    $0x10,%rsp
  40630f:	48 89 7d f8          	mov    %rdi,-0x8(%rbp)
  406313:	48 8b 45 f8          	mov    -0x8(%rbp),%rax
  406317:	48 89 c7             	mov    %rax,%rdi
  40631a:	e8 ce ff ff ff       	callq  4062ed <_ZNSt11_Tuple_implILm0EJPN10tensorflow6Status5StateESt14default_deleteIS2_EEE7_M_headERKS6_>
  40631f:	c9                   	leaveq 
  406320:	c3                   	retq   

0000000000406321 <_ZSt3getILm0EJPN10tensorflow6Status5StateESt14default_deleteIS2_EEERKNSt13tuple_elementIXT_ESt5tupleIJDpT0_EEE4typeERKSA_>:
  406321:	55                   	push   %rbp
  406322:	48 89 e5             	mov    %rsp,%rbp
  406325:	48 83 ec 10          	sub    $0x10,%rsp
  406329:	48 89 7d f8          	mov    %rdi,-0x8(%rbp)
  40632d:	48 8b 45 f8          	mov    -0x8(%rbp),%rax
  406331:	48 89 c7             	mov    %rax,%rdi
  406334:	e8 ce ff ff ff       	callq  406307 <_ZSt12__get_helperILm0EPN10tensorflow6Status5StateEJSt14default_deleteIS2_EEERKT0_RKSt11_Tuple_implIXT_EJS6_DpT1_EE>
  406339:	c9                   	leaveq 
  40633a:	c3                   	retq   
  40633b:	90                   	nop

000000000040633c <_ZNKSt10unique_ptrIN10tensorflow6Status5StateESt14default_deleteIS2_EE3getEv>:
  40633c:	55                   	push   %rbp
  40633d:	48 89 e5             	mov    %rsp,%rbp
  406340:	48 83 ec 10          	sub    $0x10,%rsp
  406344:	48 89 7d f8          	mov    %rdi,-0x8(%rbp)
  406348:	48 8b 45 f8          	mov    -0x8(%rbp),%rax
  40634c:	48 89 c7             	mov    %rax,%rdi
  40634f:	e8 cd ff ff ff       	callq  406321 <_ZSt3getILm0EJPN10tensorflow6Status5StateESt14default_deleteIS2_EEERKNSt13tuple_elementIXT_ESt5tupleIJDpT0_EEE4typeERKSA_>
  406354:	48 8b 00             	mov    (%rax),%rax
  406357:	c9                   	leaveq 
  406358:	c3                   	retq   

0000000000406359 <_ZStlsIcSt11char_traitsIcENSt7__cxx1112basic_stringIcS1_SaIcEEEERSt13basic_ostreamIT_T0_EOS9_RKT1_>:
  406359:	55                   	push   %rbp
  40635a:	48 89 e5             	mov    %rsp,%rbp
  40635d:	48 83 ec 10          	sub    $0x10,%rsp
  406361:	48 89 7d f8          	mov    %rdi,-0x8(%rbp)
  406365:	48 89 75 f0          	mov    %rsi,-0x10(%rbp)
  406369:	48 8b 55 f0          	mov    -0x10(%rbp),%rdx
  40636d:	48 8b 45 f8          	mov    -0x8(%rbp),%rax
  406371:	48 89 d6             	mov    %rdx,%rsi
  406374:	48 89 c7             	mov    %rax,%rdi
  406377:	e8 b4 cb ff ff       	callq  402f30 <_ZStlsIcSt11char_traitsIcESaIcEERSt13basic_ostreamIT_T0_ES7_RKNSt7__cxx1112basic_stringIS4_S5_T1_EE@plt>
  40637c:	48 8b 45 f8          	mov    -0x8(%rbp),%rax
  406380:	c9                   	leaveq 
  406381:	c3                   	retq   

0000000000406382 <_ZN10tensorflow8internal12Check_EQImplIliEEPNSt7__cxx1112basic_stringIcSt11char_traitsIcESaIcEEERKT_RKT0_PKc>:
  406382:	55                   	push   %rbp
  406383:	48 89 e5             	mov    %rsp,%rbp
  406386:	48 83 ec 20          	sub    $0x20,%rsp
  40638a:	48 89 7d f8          	mov    %rdi,-0x8(%rbp)
  40638e:	48 89 75 f0          	mov    %rsi,-0x10(%rbp)
  406392:	48 89 55 e8          	mov    %rdx,-0x18(%rbp)
  406396:	48 8b 45 f8          	mov    -0x8(%rbp),%rax
  40639a:	48 8b 10             	mov    (%rax),%rdx
  40639d:	48 8b 45 f0          	mov    -0x10(%rbp),%rax
  4063a1:	8b 00                	mov    (%rax),%eax
  4063a3:	48 98                	cltq   
  4063a5:	48 39 c2             	cmp    %rax,%rdx
  4063a8:	75 07                	jne    4063b1 <_ZN10tensorflow8internal12Check_EQImplIliEEPNSt7__cxx1112basic_stringIcSt11char_traitsIcESaIcEEERKT_RKT0_PKc+0x2f>
  4063aa:	b8 00 00 00 00       	mov    $0x0,%eax
  4063af:	eb 17                	jmp    4063c8 <_ZN10tensorflow8internal12Check_EQImplIliEEPNSt7__cxx1112basic_stringIcSt11char_traitsIcESaIcEEERKT_RKT0_PKc+0x46>
  4063b1:	48 8b 55 e8          	mov    -0x18(%rbp),%rdx
  4063b5:	48 8b 4d f0          	mov    -0x10(%rbp),%rcx
  4063b9:	48 8b 45 f8          	mov    -0x8(%rbp),%rax
  4063bd:	48 89 ce             	mov    %rcx,%rsi
  4063c0:	48 89 c7             	mov    %rax,%rdi
  4063c3:	e8 0c 11 00 00       	callq  4074d4 <_ZN10tensorflow8internal17MakeCheckOpStringIliEEPNSt7__cxx1112basic_stringIcSt11char_traitsIcESaIcEEERKT_RKT0_PKc>
  4063c8:	c9                   	leaveq 
  4063c9:	c3                   	retq   

00000000004063ca <_ZN10tensorflow8internal12Check_GEImplIliEEPNSt7__cxx1112basic_stringIcSt11char_traitsIcESaIcEEERKT_RKT0_PKc>:
  4063ca:	55                   	push   %rbp
  4063cb:	48 89 e5             	mov    %rsp,%rbp
  4063ce:	48 83 ec 20          	sub    $0x20,%rsp
  4063d2:	48 89 7d f8          	mov    %rdi,-0x8(%rbp)
  4063d6:	48 89 75 f0          	mov    %rsi,-0x10(%rbp)
  4063da:	48 89 55 e8          	mov    %rdx,-0x18(%rbp)
  4063de:	48 8b 45 f8          	mov    -0x8(%rbp),%rax
  4063e2:	48 8b 10             	mov    (%rax),%rdx
  4063e5:	48 8b 45 f0          	mov    -0x10(%rbp),%rax
  4063e9:	8b 00                	mov    (%rax),%eax
  4063eb:	48 98                	cltq   
  4063ed:	48 39 c2             	cmp    %rax,%rdx
  4063f0:	7c 07                	jl     4063f9 <_ZN10tensorflow8internal12Check_GEImplIliEEPNSt7__cxx1112basic_stringIcSt11char_traitsIcESaIcEEERKT_RKT0_PKc+0x2f>
  4063f2:	b8 00 00 00 00       	mov    $0x0,%eax
  4063f7:	eb 17                	jmp    406410 <_ZN10tensorflow8internal12Check_GEImplIliEEPNSt7__cxx1112basic_stringIcSt11char_traitsIcESaIcEEERKT_RKT0_PKc+0x46>
  4063f9:	48 8b 55 e8          	mov    -0x18(%rbp),%rdx
  4063fd:	48 8b 4d f0          	mov    -0x10(%rbp),%rcx
  406401:	48 8b 45 f8          	mov    -0x8(%rbp),%rax
  406405:	48 89 ce             	mov    %rcx,%rsi
  406408:	48 89 c7             	mov    %rax,%rdi
  40640b:	e8 c4 10 00 00       	callq  4074d4 <_ZN10tensorflow8internal17MakeCheckOpStringIliEEPNSt7__cxx1112basic_stringIcSt11char_traitsIcESaIcEEERKT_RKT0_PKc>
  406410:	c9                   	leaveq 
  406411:	c3                   	retq   

0000000000406412 <_ZNSt6vectorISt4pairIPN10tensorflow4NodeEiESaIS4_EED1Ev>:
  406412:	55                   	push   %rbp
  406413:	48 89 e5             	mov    %rsp,%rbp
  406416:	48 83 ec 10          	sub    $0x10,%rsp
  40641a:	48 89 7d f8          	mov    %rdi,-0x8(%rbp)
  40641e:	48 8b 45 f8          	mov    -0x8(%rbp),%rax
  406422:	48 89 c7             	mov    %rax,%rdi
  406425:	e8 de 11 00 00       	callq  407608 <_ZNSt12_Vector_baseISt4pairIPN10tensorflow4NodeEiESaIS4_EE19_M_get_Tp_allocatorEv>
  40642a:	48 89 c2             	mov    %rax,%rdx
  40642d:	48 8b 45 f8          	mov    -0x8(%rbp),%rax
  406431:	48 8b 48 08          	mov    0x8(%rax),%rcx
  406435:	48 8b 45 f8          	mov    -0x8(%rbp),%rax
  406439:	48 8b 00             	mov    (%rax),%rax
  40643c:	48 89 ce             	mov    %rcx,%rsi
  40643f:	48 89 c7             	mov    %rax,%rdi
  406442:	e8 cf 11 00 00       	callq  407616 <_ZSt8_DestroyIPSt4pairIPN10tensorflow4NodeEiES4_EvT_S6_RSaIT0_E>
  406447:	48 8b 45 f8          	mov    -0x8(%rbp),%rax
  40644b:	48 89 c7             	mov    %rax,%rdi
  40644e:	e8 65 11 00 00       	callq  4075b8 <_ZNSt12_Vector_baseISt4pairIPN10tensorflow4NodeEiESaIS4_EED1Ev>
  406453:	90                   	nop
  406454:	c9                   	leaveq 
  406455:	c3                   	retq   

0000000000406456 <_ZNSt6vectorISt4pairIPN10tensorflow4NodeEiESaIS4_EEC1ERKS6_>:
  406456:	55                   	push   %rbp
  406457:	48 89 e5             	mov    %rsp,%rbp
  40645a:	41 55                	push   %r13
  40645c:	41 54                	push   %r12
  40645e:	53                   	push   %rbx
  40645f:	48 83 ec 28          	sub    $0x28,%rsp
  406463:	48 89 7d c8          	mov    %rdi,-0x38(%rbp)
  406467:	48 89 75 c0          	mov    %rsi,-0x40(%rbp)
  40646b:	64 48 8b 04 25 28 00 	mov    %fs:0x28,%rax
  406472:	00 00 
  406474:	48 89 45 d8          	mov    %rax,-0x28(%rbp)
  406478:	31 c0                	xor    %eax,%eax
  40647a:	48 8b 45 c0          	mov    -0x40(%rbp),%rax
  40647e:	48 89 c7             	mov    %rax,%rdi
  406481:	e8 2c 12 00 00       	callq  4076b2 <_ZNKSt12_Vector_baseISt4pairIPN10tensorflow4NodeEiESaIS4_EE19_M_get_Tp_allocatorEv>
  406486:	48 89 c2             	mov    %rax,%rdx
  406489:	48 8d 45 d7          	lea    -0x29(%rbp),%rax
  40648d:	48 89 d6             	mov    %rdx,%rsi
  406490:	48 89 c7             	mov    %rax,%rdi
  406493:	e8 ce 11 00 00       	callq  407666 <_ZN9__gnu_cxx14__alloc_traitsISaISt4pairIPN10tensorflow4NodeEiEEE17_S_select_on_copyERKS6_>
  406498:	48 8b 45 c0          	mov    -0x40(%rbp),%rax
  40649c:	48 89 c7             	mov    %rax,%rdi
  40649f:	e8 9c 11 00 00       	callq  407640 <_ZNKSt6vectorISt4pairIPN10tensorflow4NodeEiESaIS4_EE4sizeEv>
  4064a4:	48 89 c1             	mov    %rax,%rcx
  4064a7:	48 8b 45 c8          	mov    -0x38(%rbp),%rax
  4064ab:	48 8d 55 d7          	lea    -0x29(%rbp),%rdx
  4064af:	48 89 ce             	mov    %rcx,%rsi
  4064b2:	48 89 c7             	mov    %rax,%rdi
  4064b5:	e8 22 12 00 00       	callq  4076dc <_ZNSt12_Vector_baseISt4pairIPN10tensorflow4NodeEiESaIS4_EEC1EmRKS5_>
  4064ba:	48 8d 45 d7          	lea    -0x29(%rbp),%rax
  4064be:	48 89 c7             	mov    %rax,%rdi
  4064c1:	e8 fa 11 00 00       	callq  4076c0 <_ZNSaISt4pairIPN10tensorflow4NodeEiEED1Ev>
  4064c6:	48 8b 45 c8          	mov    -0x38(%rbp),%rax
  4064ca:	48 89 c7             	mov    %rax,%rdi
  4064cd:	e8 36 11 00 00       	callq  407608 <_ZNSt12_Vector_baseISt4pairIPN10tensorflow4NodeEiESaIS4_EE19_M_get_Tp_allocatorEv>
  4064d2:	49 89 c5             	mov    %rax,%r13
  4064d5:	48 8b 45 c8          	mov    -0x38(%rbp),%rax
  4064d9:	48 8b 18             	mov    (%rax),%rbx
  4064dc:	48 8b 45 c0          	mov    -0x40(%rbp),%rax
  4064e0:	48 89 c7             	mov    %rax,%rdi
  4064e3:	e8 a6 12 00 00       	callq  40778e <_ZNKSt6vectorISt4pairIPN10tensorflow4NodeEiESaIS4_EE3endEv>
  4064e8:	49 89 c4             	mov    %rax,%r12
  4064eb:	48 8b 45 c0          	mov    -0x40(%rbp),%rax
  4064ef:	48 89 c7             	mov    %rax,%rdi
  4064f2:	e8 43 12 00 00       	callq  40773a <_ZNKSt6vectorISt4pairIPN10tensorflow4NodeEiESaIS4_EE5beginEv>
  4064f7:	4c 89 e9             	mov    %r13,%rcx
  4064fa:	48 89 da             	mov    %rbx,%rdx
  4064fd:	4c 89 e6             	mov    %r12,%rsi
  406500:	48 89 c7             	mov    %rax,%rdi
  406503:	e8 da 12 00 00       	callq  4077e2 <_ZSt22__uninitialized_copy_aIN9__gnu_cxx17__normal_iteratorIPKSt4pairIPN10tensorflow4NodeEiESt6vectorIS6_SaIS6_EEEEPS6_S6_ET0_T_SF_SE_RSaIT1_E>
  406508:	48 89 c2             	mov    %rax,%rdx
  40650b:	48 8b 45 c8          	mov    -0x38(%rbp),%rax
  40650f:	48 89 50 08          	mov    %rdx,0x8(%rax)
  406513:	90                   	nop
  406514:	48 8b 45 d8          	mov    -0x28(%rbp),%rax
  406518:	64 48 33 04 25 28 00 	xor    %fs:0x28,%rax
  40651f:	00 00 
  406521:	74 3b                	je     40655e <_ZNSt6vectorISt4pairIPN10tensorflow4NodeEiESaIS4_EEC1ERKS6_+0x108>
  406523:	eb 34                	jmp    406559 <_ZNSt6vectorISt4pairIPN10tensorflow4NodeEiESaIS4_EEC1ERKS6_+0x103>
  406525:	48 89 c3             	mov    %rax,%rbx
  406528:	48 8d 45 d7          	lea    -0x29(%rbp),%rax
  40652c:	48 89 c7             	mov    %rax,%rdi
  40652f:	e8 8c 11 00 00       	callq  4076c0 <_ZNSaISt4pairIPN10tensorflow4NodeEiEED1Ev>
  406534:	48 89 d8             	mov    %rbx,%rax
  406537:	48 89 c7             	mov    %rax,%rdi
  40653a:	e8 c1 cb ff ff       	callq  403100 <_Unwind_Resume@plt>
  40653f:	48 89 c3             	mov    %rax,%rbx
  406542:	48 8b 45 c8          	mov    -0x38(%rbp),%rax
  406546:	48 89 c7             	mov    %rax,%rdi
  406549:	e8 6a 10 00 00       	callq  4075b8 <_ZNSt12_Vector_baseISt4pairIPN10tensorflow4NodeEiESaIS4_EED1Ev>
  40654e:	48 89 d8             	mov    %rbx,%rax
  406551:	48 89 c7             	mov    %rax,%rdi
  406554:	e8 a7 cb ff ff       	callq  403100 <_Unwind_Resume@plt>
  406559:	e8 c2 c8 ff ff       	callq  402e20 <__stack_chk_fail@plt>
  40655e:	48 83 c4 28          	add    $0x28,%rsp
  406562:	5b                   	pop    %rbx
  406563:	41 5c                	pop    %r12
  406565:	41 5d                	pop    %r13
  406567:	5d                   	pop    %rbp
  406568:	c3                   	retq   
  406569:	90                   	nop

000000000040656a <_ZNK6google8protobuf16RepeatedPtrFieldIN10tensorflow13NodeExecStatsEE4sizeEv>:
  40656a:	55                   	push   %rbp
  40656b:	48 89 e5             	mov    %rsp,%rbp
  40656e:	48 83 ec 10          	sub    $0x10,%rsp
  406572:	48 89 7d f8          	mov    %rdi,-0x8(%rbp)
  406576:	48 8b 45 f8          	mov    -0x8(%rbp),%rax
  40657a:	48 89 c7             	mov    %rax,%rdi
  40657d:	e8 66 e2 ff ff       	callq  4047e8 <_ZNK6google8protobuf8internal20RepeatedPtrFieldBase4sizeEv>
  406582:	c9                   	leaveq 
  406583:	c3                   	retq   

0000000000406584 <_ZNK6google8protobuf16RepeatedPtrFieldIN10tensorflow15DeviceStepStatsEE4sizeEv>:
  406584:	55                   	push   %rbp
  406585:	48 89 e5             	mov    %rsp,%rbp
  406588:	48 83 ec 10          	sub    $0x10,%rsp
  40658c:	48 89 7d f8          	mov    %rdi,-0x8(%rbp)
  406590:	48 8b 45 f8          	mov    -0x8(%rbp),%rax
  406594:	48 89 c7             	mov    %rax,%rdi
  406597:	e8 4c e2 ff ff       	callq  4047e8 <_ZNK6google8protobuf8internal20RepeatedPtrFieldBase4sizeEv>
  40659c:	c9                   	leaveq 
  40659d:	c3                   	retq   

000000000040659e <_ZNKSt16initializer_listIiE5beginEv>:
  40659e:	55                   	push   %rbp
  40659f:	48 89 e5             	mov    %rsp,%rbp
  4065a2:	48 89 7d f8          	mov    %rdi,-0x8(%rbp)
  4065a6:	48 8b 45 f8          	mov    -0x8(%rbp),%rax
  4065aa:	48 8b 00             	mov    (%rax),%rax
  4065ad:	5d                   	pop    %rbp
  4065ae:	c3                   	retq   
  4065af:	90                   	nop

00000000004065b0 <_ZNKSt16initializer_listIiE4sizeEv>:
  4065b0:	55                   	push   %rbp
  4065b1:	48 89 e5             	mov    %rsp,%rbp
  4065b4:	48 89 7d f8          	mov    %rdi,-0x8(%rbp)
  4065b8:	48 8b 45 f8          	mov    -0x8(%rbp),%rax
  4065bc:	48 8b 40 08          	mov    0x8(%rax),%rax
  4065c0:	5d                   	pop    %rbp
  4065c1:	c3                   	retq   

00000000004065c2 <_ZN10tensorflow3gtl20array_slice_internal14ArraySliceImplIiEC1EPKim>:
  4065c2:	55                   	push   %rbp
  4065c3:	48 89 e5             	mov    %rsp,%rbp
  4065c6:	48 83 ec 20          	sub    $0x20,%rsp
  4065ca:	48 89 7d f8          	mov    %rdi,-0x8(%rbp)
  4065ce:	48 89 75 f0          	mov    %rsi,-0x10(%rbp)
  4065d2:	48 89 55 e8          	mov    %rdx,-0x18(%rbp)
  4065d6:	48 8b 55 e8          	mov    -0x18(%rbp),%rdx
  4065da:	48 8b 4d f0          	mov    -0x10(%rbp),%rcx
  4065de:	48 8b 45 f8          	mov    -0x8(%rbp),%rax
  4065e2:	48 89 ce             	mov    %rcx,%rsi
  4065e5:	48 89 c7             	mov    %rax,%rdi
  4065e8:	e8 27 12 00 00       	callq  407814 <_ZN10tensorflow3gtl20array_slice_internal18ArraySliceImplBaseIKiEC1EPS3_m>
  4065ed:	90                   	nop
  4065ee:	c9                   	leaveq 
  4065ef:	c3                   	retq   

00000000004065f0 <_ZNK6google8protobuf16RepeatedPtrFieldIN10tensorflow15DeviceStepStatsEE5beginEv>:
  4065f0:	55                   	push   %rbp
  4065f1:	48 89 e5             	mov    %rsp,%rbp
  4065f4:	48 83 ec 30          	sub    $0x30,%rsp
  4065f8:	48 89 7d d8          	mov    %rdi,-0x28(%rbp)
  4065fc:	64 48 8b 04 25 28 00 	mov    %fs:0x28,%rax
  406603:	00 00 
  406605:	48 89 45 f8          	mov    %rax,-0x8(%rbp)
  406609:	31 c0                	xor    %eax,%eax
  40660b:	48 8b 45 d8          	mov    -0x28(%rbp),%rax
  40660f:	48 89 c7             	mov    %rax,%rdi
  406612:	e8 e3 e1 ff ff       	callq  4047fa <_ZNK6google8protobuf8internal20RepeatedPtrFieldBase8raw_dataEv>
  406617:	48 89 c2             	mov    %rax,%rdx
  40661a:	48 8d 45 e8          	lea    -0x18(%rbp),%rax
  40661e:	48 89 d6             	mov    %rdx,%rsi
  406621:	48 89 c7             	mov    %rax,%rdi
  406624:	e8 21 12 00 00       	callq  40784a <_ZN6google8protobuf8internal19RepeatedPtrIteratorIN10tensorflow15DeviceStepStatsEEC1EPKPv>
  406629:	48 8d 55 e8          	lea    -0x18(%rbp),%rdx
  40662d:	48 8d 45 f0          	lea    -0x10(%rbp),%rax
  406631:	48 89 d6             	mov    %rdx,%rsi
  406634:	48 89 c7             	mov    %rax,%rdi
  406637:	e8 44 12 00 00       	callq  407880 <_ZN6google8protobuf8internal19RepeatedPtrIteratorIKN10tensorflow15DeviceStepStatsEEC1IS4_EERKNS2_IT_EE>
  40663c:	48 8b 45 f0          	mov    -0x10(%rbp),%rax
  406640:	48 8b 4d f8          	mov    -0x8(%rbp),%rcx
  406644:	64 48 33 0c 25 28 00 	xor    %fs:0x28,%rcx
  40664b:	00 00 
  40664d:	74 05                	je     406654 <_ZNK6google8protobuf16RepeatedPtrFieldIN10tensorflow15DeviceStepStatsEE5beginEv+0x64>
  40664f:	e8 cc c7 ff ff       	callq  402e20 <__stack_chk_fail@plt>
  406654:	c9                   	leaveq 
  406655:	c3                   	retq   

0000000000406656 <_ZNK6google8protobuf16RepeatedPtrFieldIN10tensorflow15DeviceStepStatsEE3endEv>:
  406656:	55                   	push   %rbp
  406657:	48 89 e5             	mov    %rsp,%rbp
  40665a:	53                   	push   %rbx
  40665b:	48 83 ec 38          	sub    $0x38,%rsp
  40665f:	48 89 7d c8          	mov    %rdi,-0x38(%rbp)
  406663:	64 48 8b 04 25 28 00 	mov    %fs:0x28,%rax
  40666a:	00 00 
  40666c:	48 89 45 e8          	mov    %rax,-0x18(%rbp)
  406670:	31 c0                	xor    %eax,%eax
  406672:	48 8b 45 c8          	mov    -0x38(%rbp),%rax
  406676:	48 89 c7             	mov    %rax,%rdi
  406679:	e8 7c e1 ff ff       	callq  4047fa <_ZNK6google8protobuf8internal20RepeatedPtrFieldBase8raw_dataEv>
  40667e:	48 89 c3             	mov    %rax,%rbx
  406681:	48 8b 45 c8          	mov    -0x38(%rbp),%rax
  406685:	48 89 c7             	mov    %rax,%rdi
  406688:	e8 f7 fe ff ff       	callq  406584 <_ZNK6google8protobuf16RepeatedPtrFieldIN10tensorflow15DeviceStepStatsEE4sizeEv>
  40668d:	48 98                	cltq   
  40668f:	48 c1 e0 03          	shl    $0x3,%rax
  406693:	48 8d 14 03          	lea    (%rbx,%rax,1),%rdx
  406697:	48 8d 45 d8          	lea    -0x28(%rbp),%rax
  40669b:	48 89 d6             	mov    %rdx,%rsi
  40669e:	48 89 c7             	mov    %rax,%rdi
  4066a1:	e8 a4 11 00 00       	callq  40784a <_ZN6google8protobuf8internal19RepeatedPtrIteratorIN10tensorflow15DeviceStepStatsEEC1EPKPv>
  4066a6:	48 8d 55 d8          	lea    -0x28(%rbp),%rdx
  4066aa:	48 8d 45 e0          	lea    -0x20(%rbp),%rax
  4066ae:	48 89 d6             	mov    %rdx,%rsi
  4066b1:	48 89 c7             	mov    %rax,%rdi
  4066b4:	e8 c7 11 00 00       	callq  407880 <_ZN6google8protobuf8internal19RepeatedPtrIteratorIKN10tensorflow15DeviceStepStatsEEC1IS4_EERKNS2_IT_EE>
  4066b9:	48 8b 45 e0          	mov    -0x20(%rbp),%rax
  4066bd:	48 8b 4d e8          	mov    -0x18(%rbp),%rcx
  4066c1:	64 48 33 0c 25 28 00 	xor    %fs:0x28,%rcx
  4066c8:	00 00 
  4066ca:	74 05                	je     4066d1 <_ZNK6google8protobuf16RepeatedPtrFieldIN10tensorflow15DeviceStepStatsEE3endEv+0x7b>
  4066cc:	e8 4f c7 ff ff       	callq  402e20 <__stack_chk_fail@plt>
  4066d1:	48 83 c4 38          	add    $0x38,%rsp
  4066d5:	5b                   	pop    %rbx
  4066d6:	5d                   	pop    %rbp
  4066d7:	c3                   	retq   

00000000004066d8 <_ZNK6google8protobuf8internal19RepeatedPtrIteratorIKN10tensorflow15DeviceStepStatsEEneERKS6_>:
  4066d8:	55                   	push   %rbp
  4066d9:	48 89 e5             	mov    %rsp,%rbp
  4066dc:	48 89 7d f8          	mov    %rdi,-0x8(%rbp)
  4066e0:	48 89 75 f0          	mov    %rsi,-0x10(%rbp)
  4066e4:	48 8b 45 f8          	mov    -0x8(%rbp),%rax
  4066e8:	48 8b 10             	mov    (%rax),%rdx
  4066eb:	48 8b 45 f0          	mov    -0x10(%rbp),%rax
  4066ef:	48 8b 00             	mov    (%rax),%rax
  4066f2:	48 39 c2             	cmp    %rax,%rdx
  4066f5:	0f 95 c0             	setne  %al
  4066f8:	5d                   	pop    %rbp
  4066f9:	c3                   	retq   

00000000004066fa <_ZN6google8protobuf8internal19RepeatedPtrIteratorIKN10tensorflow15DeviceStepStatsEEppEv>:
  4066fa:	55                   	push   %rbp
  4066fb:	48 89 e5             	mov    %rsp,%rbp
  4066fe:	48 89 7d f8          	mov    %rdi,-0x8(%rbp)
  406702:	48 8b 45 f8          	mov    -0x8(%rbp),%rax
  406706:	48 8b 00             	mov    (%rax),%rax
  406709:	48 8d 50 08          	lea    0x8(%rax),%rdx
  40670d:	48 8b 45 f8          	mov    -0x8(%rbp),%rax
  406711:	48 89 10             	mov    %rdx,(%rax)
  406714:	48 8b 45 f8          	mov    -0x8(%rbp),%rax
  406718:	5d                   	pop    %rbp
  406719:	c3                   	retq   

000000000040671a <_ZNK6google8protobuf8internal19RepeatedPtrIteratorIKN10tensorflow15DeviceStepStatsEEdeEv>:
  40671a:	55                   	push   %rbp
  40671b:	48 89 e5             	mov    %rsp,%rbp
  40671e:	48 89 7d f8          	mov    %rdi,-0x8(%rbp)
  406722:	48 8b 45 f8          	mov    -0x8(%rbp),%rax
  406726:	48 8b 00             	mov    (%rax),%rax
  406729:	48 8b 00             	mov    (%rax),%rax
  40672c:	5d                   	pop    %rbp
  40672d:	c3                   	retq   

000000000040672e <_ZNK6google8protobuf16RepeatedPtrFieldIN10tensorflow13NodeExecStatsEE5beginEv>:
  40672e:	55                   	push   %rbp
  40672f:	48 89 e5             	mov    %rsp,%rbp
  406732:	48 83 ec 30          	sub    $0x30,%rsp
  406736:	48 89 7d d8          	mov    %rdi,-0x28(%rbp)
  40673a:	64 48 8b 04 25 28 00 	mov    %fs:0x28,%rax
  406741:	00 00 
  406743:	48 89 45 f8          	mov    %rax,-0x8(%rbp)
  406747:	31 c0                	xor    %eax,%eax
  406749:	48 8b 45 d8          	mov    -0x28(%rbp),%rax
  40674d:	48 89 c7             	mov    %rax,%rdi
  406750:	e8 a5 e0 ff ff       	callq  4047fa <_ZNK6google8protobuf8internal20RepeatedPtrFieldBase8raw_dataEv>
  406755:	48 89 c2             	mov    %rax,%rdx
  406758:	48 8d 45 e8          	lea    -0x18(%rbp),%rax
  40675c:	48 89 d6             	mov    %rdx,%rsi
  40675f:	48 89 c7             	mov    %rax,%rdi
  406762:	e8 75 11 00 00       	callq  4078dc <_ZN6google8protobuf8internal19RepeatedPtrIteratorIN10tensorflow13NodeExecStatsEEC1EPKPv>
  406767:	48 8d 55 e8          	lea    -0x18(%rbp),%rdx
  40676b:	48 8d 45 f0          	lea    -0x10(%rbp),%rax
  40676f:	48 89 d6             	mov    %rdx,%rsi
  406772:	48 89 c7             	mov    %rax,%rdi
  406775:	e8 98 11 00 00       	callq  407912 <_ZN6google8protobuf8internal19RepeatedPtrIteratorIKN10tensorflow13NodeExecStatsEEC1IS4_EERKNS2_IT_EE>
  40677a:	48 8b 45 f0          	mov    -0x10(%rbp),%rax
  40677e:	48 8b 4d f8          	mov    -0x8(%rbp),%rcx
  406782:	64 48 33 0c 25 28 00 	xor    %fs:0x28,%rcx
  406789:	00 00 
  40678b:	74 05                	je     406792 <_ZNK6google8protobuf16RepeatedPtrFieldIN10tensorflow13NodeExecStatsEE5beginEv+0x64>
  40678d:	e8 8e c6 ff ff       	callq  402e20 <__stack_chk_fail@plt>
  406792:	c9                   	leaveq 
  406793:	c3                   	retq   

0000000000406794 <_ZNK6google8protobuf16RepeatedPtrFieldIN10tensorflow13NodeExecStatsEE3endEv>:
  406794:	55                   	push   %rbp
  406795:	48 89 e5             	mov    %rsp,%rbp
  406798:	53                   	push   %rbx
  406799:	48 83 ec 38          	sub    $0x38,%rsp
  40679d:	48 89 7d c8          	mov    %rdi,-0x38(%rbp)
  4067a1:	64 48 8b 04 25 28 00 	mov    %fs:0x28,%rax
  4067a8:	00 00 
  4067aa:	48 89 45 e8          	mov    %rax,-0x18(%rbp)
  4067ae:	31 c0                	xor    %eax,%eax
