
avgpool:     file format elf64-x86-64


Disassembly of section .init:

00000000004030a0 <_init>:
  4030a0:	48 83 ec 08          	sub    $0x8,%rsp
  4030a4:	48 8b 05 4d ef 20 00 	mov    0x20ef4d(%rip),%rax        # 611ff8 <_DYNAMIC+0x230>
  4030ab:	48 85 c0             	test   %rax,%rax
  4030ae:	74 05                	je     4030b5 <_init+0x15>
  4030b0:	e8 fb 04 00 00       	callq  4035b0 <xopenme_get_timer@plt+0x10>
  4030b5:	48 83 c4 08          	add    $0x8,%rsp
  4030b9:	c3                   	retq   

Disassembly of section .plt:

00000000004030c0 <_Znam@plt-0x10>:
  4030c0:	ff 35 42 ef 20 00    	pushq  0x20ef42(%rip)        # 612008 <_GLOBAL_OFFSET_TABLE_+0x8>
  4030c6:	ff 25 44 ef 20 00    	jmpq   *0x20ef44(%rip)        # 612010 <_GLOBAL_OFFSET_TABLE_+0x10>
  4030cc:	0f 1f 40 00          	nopl   0x0(%rax)

00000000004030d0 <_Znam@plt>:
  4030d0:	ff 25 42 ef 20 00    	jmpq   *0x20ef42(%rip)        # 612018 <_GLOBAL_OFFSET_TABLE_+0x18>
  4030d6:	68 00 00 00 00       	pushq  $0x0
  4030db:	e9 e0 ff ff ff       	jmpq   4030c0 <_init+0x20>

00000000004030e0 <_ZNSt7__cxx1112basic_stringIcSt11char_traitsIcESaIcEEaSERKS4_@plt>:
  4030e0:	ff 25 3a ef 20 00    	jmpq   *0x20ef3a(%rip)        # 612020 <_GLOBAL_OFFSET_TABLE_+0x20>
  4030e6:	68 01 00 00 00       	pushq  $0x1
  4030eb:	e9 d0 ff ff ff       	jmpq   4030c0 <_init+0x20>

00000000004030f0 <printf@plt>:
  4030f0:	ff 25 32 ef 20 00    	jmpq   *0x20ef32(%rip)        # 612028 <_GLOBAL_OFFSET_TABLE_+0x28>
  4030f6:	68 02 00 00 00       	pushq  $0x2
  4030fb:	e9 c0 ff ff ff       	jmpq   4030c0 <_init+0x20>

0000000000403100 <_ZN11arm_compute11CLScheduler3getEv@plt>:
  403100:	ff 25 2a ef 20 00    	jmpq   *0x20ef2a(%rip)        # 612030 <_GLOBAL_OFFSET_TABLE_+0x30>
  403106:	68 03 00 00 00       	pushq  $0x3
  40310b:	e9 b0 ff ff ff       	jmpq   4030c0 <_init+0x20>

0000000000403110 <sprintf@plt>:
  403110:	ff 25 22 ef 20 00    	jmpq   *0x20ef22(%rip)        # 612038 <_GLOBAL_OFFSET_TABLE_+0x38>
  403116:	68 04 00 00 00       	pushq  $0x4
  40311b:	e9 a0 ff ff ff       	jmpq   4030c0 <_init+0x20>

0000000000403120 <xopenme_clock_start@plt>:
  403120:	ff 25 1a ef 20 00    	jmpq   *0x20ef1a(%rip)        # 612040 <_GLOBAL_OFFSET_TABLE_+0x40>
  403126:	68 05 00 00 00       	pushq  $0x5
  40312b:	e9 90 ff ff ff       	jmpq   4030c0 <_init+0x20>

0000000000403130 <xopenme_dump_state@plt>:
  403130:	ff 25 12 ef 20 00    	jmpq   *0x20ef12(%rip)        # 612048 <_GLOBAL_OFFSET_TABLE_+0x48>
  403136:	68 06 00 00 00       	pushq  $0x6
  40313b:	e9 80 ff ff ff       	jmpq   4030c0 <_init+0x20>

0000000000403140 <clFinish@plt>:
  403140:	ff 25 0a ef 20 00    	jmpq   *0x20ef0a(%rip)        # 612050 <_GLOBAL_OFFSET_TABLE_+0x50>
  403146:	68 07 00 00 00       	pushq  $0x7
  40314b:	e9 70 ff ff ff       	jmpq   4030c0 <_init+0x20>

0000000000403150 <xopenme_finish@plt>:
  403150:	ff 25 02 ef 20 00    	jmpq   *0x20ef02(%rip)        # 612058 <_GLOBAL_OFFSET_TABLE_+0x58>
  403156:	68 08 00 00 00       	pushq  $0x8
  40315b:	e9 60 ff ff ff       	jmpq   4030c0 <_init+0x20>

0000000000403160 <rand@plt>:
  403160:	ff 25 fa ee 20 00    	jmpq   *0x20eefa(%rip)        # 612060 <_GLOBAL_OFFSET_TABLE_+0x60>
  403166:	68 09 00 00 00       	pushq  $0x9
  40316b:	e9 50 ff ff ff       	jmpq   4030c0 <_init+0x20>

0000000000403170 <_ZN11arm_compute8CLTensor5unmapEv@plt>:
  403170:	ff 25 f2 ee 20 00    	jmpq   *0x20eef2(%rip)        # 612068 <_GLOBAL_OFFSET_TABLE_+0x68>
  403176:	68 0a 00 00 00       	pushq  $0xa
  40317b:	e9 40 ff ff ff       	jmpq   4030c0 <_init+0x20>

0000000000403180 <_ZSt17__throw_bad_allocv@plt>:
  403180:	ff 25 ea ee 20 00    	jmpq   *0x20eeea(%rip)        # 612070 <_GLOBAL_OFFSET_TABLE_+0x70>
  403186:	68 0b 00 00 00       	pushq  $0xb
  40318b:	e9 30 ff ff ff       	jmpq   4030c0 <_init+0x20>

0000000000403190 <xopenme_init@plt>:
  403190:	ff 25 e2 ee 20 00    	jmpq   *0x20eee2(%rip)        # 612078 <_GLOBAL_OFFSET_TABLE_+0x78>
  403196:	68 0c 00 00 00       	pushq  $0xc
  40319b:	e9 20 ff ff ff       	jmpq   4030c0 <_init+0x20>

00000000004031a0 <__cxa_begin_catch@plt>:
  4031a0:	ff 25 da ee 20 00    	jmpq   *0x20eeda(%rip)        # 612080 <_GLOBAL_OFFSET_TABLE_+0x80>
  4031a6:	68 0d 00 00 00       	pushq  $0xd
  4031ab:	e9 10 ff ff ff       	jmpq   4030c0 <_init+0x20>

00000000004031b0 <strlen@plt>:
  4031b0:	ff 25 d2 ee 20 00    	jmpq   *0x20eed2(%rip)        # 612088 <_GLOBAL_OFFSET_TABLE_+0x88>
  4031b6:	68 0e 00 00 00       	pushq  $0xe
  4031bb:	e9 00 ff ff ff       	jmpq   4030c0 <_init+0x20>

00000000004031c0 <xopenme_dump_memory@plt>:
  4031c0:	ff 25 ca ee 20 00    	jmpq   *0x20eeca(%rip)        # 612090 <_GLOBAL_OFFSET_TABLE_+0x90>
  4031c6:	68 0f 00 00 00       	pushq  $0xf
  4031cb:	e9 f0 fe ff ff       	jmpq   4030c0 <_init+0x20>

00000000004031d0 <clRetainCommandQueue@plt>:
  4031d0:	ff 25 c2 ee 20 00    	jmpq   *0x20eec2(%rip)        # 612098 <_GLOBAL_OFFSET_TABLE_+0x98>
  4031d6:	68 10 00 00 00       	pushq  $0x10
  4031db:	e9 e0 fe ff ff       	jmpq   4030c0 <_init+0x20>

00000000004031e0 <__cxa_allocate_exception@plt>:
  4031e0:	ff 25 ba ee 20 00    	jmpq   *0x20eeba(%rip)        # 6120a0 <_GLOBAL_OFFSET_TABLE_+0xa0>
  4031e6:	68 11 00 00 00       	pushq  $0x11
  4031eb:	e9 d0 fe ff ff       	jmpq   4030c0 <_init+0x20>

00000000004031f0 <_ZSt20__throw_length_errorPKc@plt>:
  4031f0:	ff 25 b2 ee 20 00    	jmpq   *0x20eeb2(%rip)        # 6120a8 <_GLOBAL_OFFSET_TABLE_+0xa8>
  4031f6:	68 12 00 00 00       	pushq  $0x12
  4031fb:	e9 c0 fe ff ff       	jmpq   4030c0 <_init+0x20>

0000000000403200 <_ZN11arm_compute15CLKernelLibrary3getEv@plt>:
  403200:	ff 25 aa ee 20 00    	jmpq   *0x20eeaa(%rip)        # 6120b0 <_GLOBAL_OFFSET_TABLE_+0xb0>
  403206:	68 13 00 00 00       	pushq  $0x13
  40320b:	e9 b0 fe ff ff       	jmpq   4030c0 <_init+0x20>

0000000000403210 <clReleaseContext@plt>:
  403210:	ff 25 a2 ee 20 00    	jmpq   *0x20eea2(%rip)        # 6120b8 <_GLOBAL_OFFSET_TABLE_+0xb8>
  403216:	68 14 00 00 00       	pushq  $0x14
  40321b:	e9 a0 fe ff ff       	jmpq   4030c0 <_init+0x20>

0000000000403220 <_ZNSt7__cxx1112basic_stringIcSt11char_traitsIcESaIcEED1Ev@plt>:
  403220:	ff 25 9a ee 20 00    	jmpq   *0x20ee9a(%rip)        # 6120c0 <_GLOBAL_OFFSET_TABLE_+0xc0>
  403226:	68 15 00 00 00       	pushq  $0x15
  40322b:	e9 90 fe ff ff       	jmpq   4030c0 <_init+0x20>

0000000000403230 <_ZSt20__throw_system_errori@plt>:
  403230:	ff 25 92 ee 20 00    	jmpq   *0x20ee92(%rip)        # 6120c8 <_GLOBAL_OFFSET_TABLE_+0xc8>
  403236:	68 16 00 00 00       	pushq  $0x16
  40323b:	e9 80 fe ff ff       	jmpq   4030c0 <_init+0x20>

0000000000403240 <clGetPlatformIDs@plt>:
  403240:	ff 25 8a ee 20 00    	jmpq   *0x20ee8a(%rip)        # 6120d0 <_GLOBAL_OFFSET_TABLE_+0xd0>
  403246:	68 17 00 00 00       	pushq  $0x17
  40324b:	e9 70 fe ff ff       	jmpq   4030c0 <_init+0x20>

0000000000403250 <clGetContextInfo@plt>:
  403250:	ff 25 82 ee 20 00    	jmpq   *0x20ee82(%rip)        # 6120d8 <_GLOBAL_OFFSET_TABLE_+0xd8>
  403256:	68 18 00 00 00       	pushq  $0x18
  40325b:	e9 60 fe ff ff       	jmpq   4030c0 <_init+0x20>

0000000000403260 <_ZN11arm_compute14CLPoolingLayer9configureEPNS_9ICLTensorES2_RKNS_16PoolingLayerInfoE@plt>:
  403260:	ff 25 7a ee 20 00    	jmpq   *0x20ee7a(%rip)        # 6120e0 <_GLOBAL_OFFSET_TABLE_+0xe0>
  403266:	68 19 00 00 00       	pushq  $0x19
  40326b:	e9 50 fe ff ff       	jmpq   4030c0 <_init+0x20>

0000000000403270 <__cxa_atexit@plt>:
  403270:	ff 25 72 ee 20 00    	jmpq   *0x20ee72(%rip)        # 6120e8 <_GLOBAL_OFFSET_TABLE_+0xe8>
  403276:	68 1a 00 00 00       	pushq  $0x1a
  40327b:	e9 40 fe ff ff       	jmpq   4030c0 <_init+0x20>

0000000000403280 <_ZdlPv@plt>:
  403280:	ff 25 6a ee 20 00    	jmpq   *0x20ee6a(%rip)        # 6120f0 <_GLOBAL_OFFSET_TABLE_+0xf0>
  403286:	68 1b 00 00 00       	pushq  $0x1b
  40328b:	e9 30 fe ff ff       	jmpq   4030c0 <_init+0x20>

0000000000403290 <srand@plt>:
  403290:	ff 25 62 ee 20 00    	jmpq   *0x20ee62(%rip)        # 6120f8 <_GLOBAL_OFFSET_TABLE_+0xf8>
  403296:	68 1c 00 00 00       	pushq  $0x1c
  40329b:	e9 20 fe ff ff       	jmpq   4030c0 <_init+0x20>

00000000004032a0 <_Znwm@plt>:
  4032a0:	ff 25 5a ee 20 00    	jmpq   *0x20ee5a(%rip)        # 612100 <_GLOBAL_OFFSET_TABLE_+0x100>
  4032a6:	68 1d 00 00 00       	pushq  $0x1d
  4032ab:	e9 10 fe ff ff       	jmpq   4030c0 <_init+0x20>

00000000004032b0 <_ZN11arm_compute15CLKernelLibrary24max_local_workgroup_sizeEv@plt>:
  4032b0:	ff 25 52 ee 20 00    	jmpq   *0x20ee52(%rip)        # 612108 <_GLOBAL_OFFSET_TABLE_+0x108>
  4032b6:	68 1e 00 00 00       	pushq  $0x1e
  4032bb:	e9 00 fe ff ff       	jmpq   4030c0 <_init+0x20>

00000000004032c0 <_ZN11arm_compute17ICLSimpleFunction3runEv@plt>:
  4032c0:	ff 25 4a ee 20 00    	jmpq   *0x20ee4a(%rip)        # 612110 <_GLOBAL_OFFSET_TABLE_+0x110>
  4032c6:	68 1f 00 00 00       	pushq  $0x1f
  4032cb:	e9 f0 fd ff ff       	jmpq   4030c0 <_init+0x20>

00000000004032d0 <_ZNSaIcED1Ev@plt>:
  4032d0:	ff 25 42 ee 20 00    	jmpq   *0x20ee42(%rip)        # 612118 <_GLOBAL_OFFSET_TABLE_+0x118>
  4032d6:	68 20 00 00 00       	pushq  $0x20
  4032db:	e9 e0 fd ff ff       	jmpq   4030c0 <_init+0x20>

00000000004032e0 <_ZN11arm_compute17ICLSimpleFunctionC2Ev@plt>:
  4032e0:	ff 25 3a ee 20 00    	jmpq   *0x20ee3a(%rip)        # 612120 <_GLOBAL_OFFSET_TABLE_+0x120>
  4032e6:	68 21 00 00 00       	pushq  $0x21
  4032eb:	e9 d0 fd ff ff       	jmpq   4030c0 <_init+0x20>

00000000004032f0 <__stack_chk_fail@plt>:
  4032f0:	ff 25 32 ee 20 00    	jmpq   *0x20ee32(%rip)        # 612128 <_GLOBAL_OFFSET_TABLE_+0x128>
  4032f6:	68 22 00 00 00       	pushq  $0x22
  4032fb:	e9 c0 fd ff ff       	jmpq   4030c0 <_init+0x20>

0000000000403300 <_ZN11arm_compute16ITensorAllocator4initERKNS_10TensorInfoE@plt>:
  403300:	ff 25 2a ee 20 00    	jmpq   *0x20ee2a(%rip)        # 612130 <_GLOBAL_OFFSET_TABLE_+0x130>
  403306:	68 23 00 00 00       	pushq  $0x23
  40330b:	e9 b0 fd ff ff       	jmpq   4030c0 <_init+0x20>

0000000000403310 <xopenme_add_var_i@plt>:
  403310:	ff 25 22 ee 20 00    	jmpq   *0x20ee22(%rip)        # 612138 <_GLOBAL_OFFSET_TABLE_+0x138>
  403316:	68 24 00 00 00       	pushq  $0x24
  40331b:	e9 a0 fd ff ff       	jmpq   4030c0 <_init+0x20>

0000000000403320 <_ZN11arm_compute8CLTensor9allocatorEv@plt>:
  403320:	ff 25 1a ee 20 00    	jmpq   *0x20ee1a(%rip)        # 612140 <_GLOBAL_OFFSET_TABLE_+0x140>
  403326:	68 25 00 00 00       	pushq  $0x25
  40332b:	e9 90 fd ff ff       	jmpq   4030c0 <_init+0x20>

0000000000403330 <getenv@plt>:
  403330:	ff 25 12 ee 20 00    	jmpq   *0x20ee12(%rip)        # 612148 <_GLOBAL_OFFSET_TABLE_+0x148>
  403336:	68 26 00 00 00       	pushq  $0x26
  40333b:	e9 80 fd ff ff       	jmpq   4030c0 <_init+0x20>

0000000000403340 <_ZN11arm_compute30error_on_window_dimensions_gteEPKcS1_iRKNS_6WindowEj@plt>:
  403340:	ff 25 0a ee 20 00    	jmpq   *0x20ee0a(%rip)        # 612150 <_GLOBAL_OFFSET_TABLE_+0x150>
  403346:	68 27 00 00 00       	pushq  $0x27
  40334b:	e9 70 fd ff ff       	jmpq   4030c0 <_init+0x20>

0000000000403350 <_ZNSt7__cxx1112basic_stringIcSt11char_traitsIcESaIcEEaSEOS4_@plt>:
  403350:	ff 25 02 ee 20 00    	jmpq   *0x20ee02(%rip)        # 612158 <_GLOBAL_OFFSET_TABLE_+0x158>
  403356:	68 28 00 00 00       	pushq  $0x28
  40335b:	e9 60 fd ff ff       	jmpq   4030c0 <_init+0x20>

0000000000403360 <clGetDeviceIDs@plt>:
  403360:	ff 25 fa ed 20 00    	jmpq   *0x20edfa(%rip)        # 612160 <_GLOBAL_OFFSET_TABLE_+0x160>
  403366:	68 29 00 00 00       	pushq  $0x29
  40336b:	e9 50 fd ff ff       	jmpq   4030c0 <_init+0x20>

0000000000403370 <__cxa_get_exception_ptr@plt>:
  403370:	ff 25 f2 ed 20 00    	jmpq   *0x20edf2(%rip)        # 612168 <_GLOBAL_OFFSET_TABLE_+0x168>
  403376:	68 2a 00 00 00       	pushq  $0x2a
  40337b:	e9 40 fd ff ff       	jmpq   4030c0 <_init+0x20>

0000000000403380 <_ZN11arm_compute8CLTensor4infoEv@plt>:
  403380:	ff 25 ea ed 20 00    	jmpq   *0x20edea(%rip)        # 612170 <_GLOBAL_OFFSET_TABLE_+0x170>
  403386:	68 2b 00 00 00       	pushq  $0x2b
  40338b:	e9 30 fd ff ff       	jmpq   4030c0 <_init+0x20>

0000000000403390 <clReleaseCommandQueue@plt>:
  403390:	ff 25 e2 ed 20 00    	jmpq   *0x20ede2(%rip)        # 612178 <_GLOBAL_OFFSET_TABLE_+0x178>
  403396:	68 2c 00 00 00       	pushq  $0x2c
  40339b:	e9 20 fd ff ff       	jmpq   4030c0 <_init+0x20>

00000000004033a0 <_ZdaPv@plt>:
  4033a0:	ff 25 da ed 20 00    	jmpq   *0x20edda(%rip)        # 612180 <_GLOBAL_OFFSET_TABLE_+0x180>
  4033a6:	68 2d 00 00 00       	pushq  $0x2d
  4033ab:	e9 10 fd ff ff       	jmpq   4030c0 <_init+0x20>

00000000004033b0 <_ZN11arm_compute22get_target_from_deviceERN2cl6DeviceE@plt>:
  4033b0:	ff 25 d2 ed 20 00    	jmpq   *0x20edd2(%rip)        # 612188 <_GLOBAL_OFFSET_TABLE_+0x188>
  4033b6:	68 2e 00 00 00       	pushq  $0x2e
  4033bb:	e9 00 fd ff ff       	jmpq   4030c0 <_init+0x20>

00000000004033c0 <xopenme_clock_end@plt>:
  4033c0:	ff 25 ca ed 20 00    	jmpq   *0x20edca(%rip)        # 612190 <_GLOBAL_OFFSET_TABLE_+0x190>
  4033c6:	68 2f 00 00 00       	pushq  $0x2f
  4033cb:	e9 f0 fc ff ff       	jmpq   4030c0 <_init+0x20>

00000000004033d0 <_ZNSt7__cxx1112basic_stringIcSt11char_traitsIcESaIcEEC1EPKcRKS3_@plt>:
  4033d0:	ff 25 c2 ed 20 00    	jmpq   *0x20edc2(%rip)        # 612198 <_GLOBAL_OFFSET_TABLE_+0x198>
  4033d6:	68 30 00 00 00       	pushq  $0x30
  4033db:	e9 e0 fc ff ff       	jmpq   4030c0 <_init+0x20>

00000000004033e0 <putchar@plt>:
  4033e0:	ff 25 ba ed 20 00    	jmpq   *0x20edba(%rip)        # 6121a0 <_GLOBAL_OFFSET_TABLE_+0x1a0>
  4033e6:	68 31 00 00 00       	pushq  $0x31
  4033eb:	e9 d0 fc ff ff       	jmpq   4030c0 <_init+0x20>

00000000004033f0 <__cxa_throw_bad_array_new_length@plt>:
  4033f0:	ff 25 b2 ed 20 00    	jmpq   *0x20edb2(%rip)        # 6121a8 <_GLOBAL_OFFSET_TABLE_+0x1a8>
  4033f6:	68 32 00 00 00       	pushq  $0x32
  4033fb:	e9 c0 fc ff ff       	jmpq   4030c0 <_init+0x20>

0000000000403400 <__cxa_rethrow@plt>:
  403400:	ff 25 aa ed 20 00    	jmpq   *0x20edaa(%rip)        # 6121b0 <_GLOBAL_OFFSET_TABLE_+0x1b0>
  403406:	68 33 00 00 00       	pushq  $0x33
  40340b:	e9 b0 fc ff ff       	jmpq   4030c0 <_init+0x20>

0000000000403410 <_ZSt24__throw_out_of_range_fmtPKcz@plt>:
  403410:	ff 25 a2 ed 20 00    	jmpq   *0x20eda2(%rip)        # 6121b8 <_GLOBAL_OFFSET_TABLE_+0x1b8>
  403416:	68 34 00 00 00       	pushq  $0x34
  40341b:	e9 a0 fc ff ff       	jmpq   4030c0 <_init+0x20>

0000000000403420 <_ZNK11arm_compute7IKernel17is_parallelisableEv@plt>:
  403420:	ff 25 9a ed 20 00    	jmpq   *0x20ed9a(%rip)        # 6121c0 <_GLOBAL_OFFSET_TABLE_+0x1c0>
  403426:	68 35 00 00 00       	pushq  $0x35
  40342b:	e9 90 fc ff ff       	jmpq   4030c0 <_init+0x20>

0000000000403430 <puts@plt>:
  403430:	ff 25 92 ed 20 00    	jmpq   *0x20ed92(%rip)        # 6121c8 <_GLOBAL_OFFSET_TABLE_+0x1c8>
  403436:	68 36 00 00 00       	pushq  $0x36
  40343b:	e9 80 fc ff ff       	jmpq   4030c0 <_init+0x20>

0000000000403440 <atoi@plt>:
  403440:	ff 25 8a ed 20 00    	jmpq   *0x20ed8a(%rip)        # 6121d0 <_GLOBAL_OFFSET_TABLE_+0x1d0>
  403446:	68 37 00 00 00       	pushq  $0x37
  40344b:	e9 70 fc ff ff       	jmpq   4030c0 <_init+0x20>

0000000000403450 <_ZN11arm_compute17CLTensorAllocatorD1Ev@plt>:
  403450:	ff 25 82 ed 20 00    	jmpq   *0x20ed82(%rip)        # 6121d8 <_GLOBAL_OFFSET_TABLE_+0x1d8>
  403456:	68 38 00 00 00       	pushq  $0x38
  40345b:	e9 60 fc ff ff       	jmpq   4030c0 <_init+0x20>

0000000000403460 <__once_proxy@plt>:
  403460:	ff 25 7a ed 20 00    	jmpq   *0x20ed7a(%rip)        # 6121e0 <_GLOBAL_OFFSET_TABLE_+0x1e0>
  403466:	68 39 00 00 00       	pushq  $0x39
  40346b:	e9 50 fc ff ff       	jmpq   4030c0 <_init+0x20>

0000000000403470 <__cxa_end_catch@plt>:
  403470:	ff 25 72 ed 20 00    	jmpq   *0x20ed72(%rip)        # 6121e8 <_GLOBAL_OFFSET_TABLE_+0x1e8>
  403476:	68 3a 00 00 00       	pushq  $0x3a
  40347b:	e9 40 fc ff ff       	jmpq   4030c0 <_init+0x20>

0000000000403480 <pthread_once@plt>:
  403480:	ff 25 6a ed 20 00    	jmpq   *0x20ed6a(%rip)        # 6121f0 <_GLOBAL_OFFSET_TABLE_+0x1f0>
  403486:	68 3b 00 00 00       	pushq  $0x3b
  40348b:	e9 30 fc ff ff       	jmpq   4030c0 <_init+0x20>

0000000000403490 <__gxx_personality_v0@plt>:
  403490:	ff 25 62 ed 20 00    	jmpq   *0x20ed62(%rip)        # 6121f8 <_GLOBAL_OFFSET_TABLE_+0x1f8>
  403496:	68 3c 00 00 00       	pushq  $0x3c
  40349b:	e9 20 fc ff ff       	jmpq   4030c0 <_init+0x20>

00000000004034a0 <__pthread_key_create@plt>:
  4034a0:	ff 25 5a ed 20 00    	jmpq   *0x20ed5a(%rip)        # 612200 <_GLOBAL_OFFSET_TABLE_+0x200>
  4034a6:	68 3d 00 00 00       	pushq  $0x3d
  4034ab:	e9 10 fc ff ff       	jmpq   4030c0 <_init+0x20>

00000000004034b0 <_ZNK11arm_compute7IKernel11border_sizeEv@plt>:
  4034b0:	ff 25 52 ed 20 00    	jmpq   *0x20ed52(%rip)        # 612208 <_GLOBAL_OFFSET_TABLE_+0x208>
  4034b6:	68 3e 00 00 00       	pushq  $0x3e
  4034bb:	e9 00 fc ff ff       	jmpq   4030c0 <_init+0x20>

00000000004034c0 <clCreateCommandQueue@plt>:
  4034c0:	ff 25 4a ed 20 00    	jmpq   *0x20ed4a(%rip)        # 612210 <_GLOBAL_OFFSET_TABLE_+0x210>
  4034c6:	68 3f 00 00 00       	pushq  $0x3f
  4034cb:	e9 f0 fb ff ff       	jmpq   4030c0 <_init+0x20>

00000000004034d0 <clRetainContext@plt>:
  4034d0:	ff 25 42 ed 20 00    	jmpq   *0x20ed42(%rip)        # 612218 <_GLOBAL_OFFSET_TABLE_+0x218>
  4034d6:	68 40 00 00 00       	pushq  $0x40
  4034db:	e9 e0 fb ff ff       	jmpq   4030c0 <_init+0x20>

00000000004034e0 <_ZN11arm_compute10TensorInfoC1ERKNS_11TensorShapeENS_6FormatE@plt>:
  4034e0:	ff 25 3a ed 20 00    	jmpq   *0x20ed3a(%rip)        # 612220 <_GLOBAL_OFFSET_TABLE_+0x220>
  4034e6:	68 41 00 00 00       	pushq  $0x41
  4034eb:	e9 d0 fb ff ff       	jmpq   4030c0 <_init+0x20>

00000000004034f0 <__cxa_throw@plt>:
  4034f0:	ff 25 32 ed 20 00    	jmpq   *0x20ed32(%rip)        # 612228 <_GLOBAL_OFFSET_TABLE_+0x228>
  4034f6:	68 42 00 00 00       	pushq  $0x42
  4034fb:	e9 c0 fb ff ff       	jmpq   4030c0 <_init+0x20>

0000000000403500 <clCreateContextFromType@plt>:
  403500:	ff 25 2a ed 20 00    	jmpq   *0x20ed2a(%rip)        # 612230 <_GLOBAL_OFFSET_TABLE_+0x230>
  403506:	68 43 00 00 00       	pushq  $0x43
  40350b:	e9 b0 fb ff ff       	jmpq   4030c0 <_init+0x20>

0000000000403510 <_Unwind_Resume@plt>:
  403510:	ff 25 22 ed 20 00    	jmpq   *0x20ed22(%rip)        # 612238 <_GLOBAL_OFFSET_TABLE_+0x238>
  403516:	68 44 00 00 00       	pushq  $0x44
  40351b:	e9 a0 fb ff ff       	jmpq   4030c0 <_init+0x20>

0000000000403520 <_ZNSaIcEC1Ev@plt>:
  403520:	ff 25 1a ed 20 00    	jmpq   *0x20ed1a(%rip)        # 612240 <_GLOBAL_OFFSET_TABLE_+0x240>
  403526:	68 45 00 00 00       	pushq  $0x45
  40352b:	e9 90 fb ff ff       	jmpq   4030c0 <_init+0x20>

0000000000403530 <_ZN11arm_compute8CLTensor3mapEb@plt>:
  403530:	ff 25 12 ed 20 00    	jmpq   *0x20ed12(%rip)        # 612248 <_GLOBAL_OFFSET_TABLE_+0x248>
  403536:	68 46 00 00 00       	pushq  $0x46
  40353b:	e9 80 fb ff ff       	jmpq   4030c0 <_init+0x20>

0000000000403540 <_ZNSt9exceptionD2Ev@plt>:
  403540:	ff 25 0a ed 20 00    	jmpq   *0x20ed0a(%rip)        # 612250 <_GLOBAL_OFFSET_TABLE_+0x250>
  403546:	68 47 00 00 00       	pushq  $0x47
  40354b:	e9 70 fb ff ff       	jmpq   4030c0 <_init+0x20>

0000000000403550 <clReleaseKernel@plt>:
  403550:	ff 25 02 ed 20 00    	jmpq   *0x20ed02(%rip)        # 612258 <_GLOBAL_OFFSET_TABLE_+0x258>
  403556:	68 48 00 00 00       	pushq  $0x48
  40355b:	e9 60 fb ff ff       	jmpq   4030c0 <_init+0x20>

0000000000403560 <__libc_start_main@plt>:
  403560:	ff 25 fa ec 20 00    	jmpq   *0x20ecfa(%rip)        # 612260 <_GLOBAL_OFFSET_TABLE_+0x260>
  403566:	68 49 00 00 00       	pushq  $0x49
  40356b:	e9 50 fb ff ff       	jmpq   4030c0 <_init+0x20>

0000000000403570 <xopenme_add_var_f@plt>:
  403570:	ff 25 f2 ec 20 00    	jmpq   *0x20ecf2(%rip)        # 612268 <_GLOBAL_OFFSET_TABLE_+0x268>
  403576:	68 4a 00 00 00       	pushq  $0x4a
  40357b:	e9 40 fb ff ff       	jmpq   4030c0 <_init+0x20>

0000000000403580 <_ZN11arm_compute8CLTensorC1Ev@plt>:
  403580:	ff 25 ea ec 20 00    	jmpq   *0x20ecea(%rip)        # 612270 <_GLOBAL_OFFSET_TABLE_+0x270>
  403586:	68 4b 00 00 00       	pushq  $0x4b
  40358b:	e9 30 fb ff ff       	jmpq   4030c0 <_init+0x20>

0000000000403590 <__cxa_pure_virtual@plt>:
  403590:	ff 25 e2 ec 20 00    	jmpq   *0x20ece2(%rip)        # 612278 <_GLOBAL_OFFSET_TABLE_+0x278>
  403596:	68 4c 00 00 00       	pushq  $0x4c
  40359b:	e9 20 fb ff ff       	jmpq   4030c0 <_init+0x20>

00000000004035a0 <xopenme_get_timer@plt>:
  4035a0:	ff 25 da ec 20 00    	jmpq   *0x20ecda(%rip)        # 612280 <_GLOBAL_OFFSET_TABLE_+0x280>
  4035a6:	68 4d 00 00 00       	pushq  $0x4d
  4035ab:	e9 10 fb ff ff       	jmpq   4030c0 <_init+0x20>

Disassembly of section .plt.got:

00000000004035b0 <.plt.got>:
  4035b0:	ff 25 42 ea 20 00    	jmpq   *0x20ea42(%rip)        # 611ff8 <_DYNAMIC+0x230>
  4035b6:	66 90                	xchg   %ax,%ax

Disassembly of section .text:

00000000004035c0 <_start>:
  4035c0:	31 ed                	xor    %ebp,%ebp
  4035c2:	49 89 d1             	mov    %rdx,%r9
  4035c5:	5e                   	pop    %rsi
  4035c6:	48 89 e2             	mov    %rsp,%rdx
  4035c9:	48 83 e4 f0          	and    $0xfffffffffffffff0,%rsp
  4035cd:	50                   	push   %rax
  4035ce:	54                   	push   %rsp
  4035cf:	49 c7 c0 c0 be 40 00 	mov    $0x40bec0,%r8
  4035d6:	48 c7 c1 50 be 40 00 	mov    $0x40be50,%rcx
  4035dd:	48 c7 c7 c1 3b 40 00 	mov    $0x403bc1,%rdi
  4035e4:	e8 77 ff ff ff       	callq  403560 <__libc_start_main@plt>
  4035e9:	f4                   	hlt    
  4035ea:	66 0f 1f 44 00 00    	nopw   0x0(%rax,%rax,1)

00000000004035f0 <deregister_tm_clones>:
  4035f0:	b8 9f 22 61 00       	mov    $0x61229f,%eax
  4035f5:	55                   	push   %rbp
  4035f6:	48 2d 98 22 61 00    	sub    $0x612298,%rax
  4035fc:	48 83 f8 0e          	cmp    $0xe,%rax
  403600:	48 89 e5             	mov    %rsp,%rbp
  403603:	76 1b                	jbe    403620 <deregister_tm_clones+0x30>
  403605:	b8 00 00 00 00       	mov    $0x0,%eax
  40360a:	48 85 c0             	test   %rax,%rax
  40360d:	74 11                	je     403620 <deregister_tm_clones+0x30>
  40360f:	5d                   	pop    %rbp
  403610:	bf 98 22 61 00       	mov    $0x612298,%edi
  403615:	ff e0                	jmpq   *%rax
  403617:	66 0f 1f 84 00 00 00 	nopw   0x0(%rax,%rax,1)
  40361e:	00 00 
  403620:	5d                   	pop    %rbp
  403621:	c3                   	retq   
  403622:	0f 1f 40 00          	nopl   0x0(%rax)
  403626:	66 2e 0f 1f 84 00 00 	nopw   %cs:0x0(%rax,%rax,1)
  40362d:	00 00 00 

0000000000403630 <register_tm_clones>:
  403630:	be 98 22 61 00       	mov    $0x612298,%esi
  403635:	55                   	push   %rbp
  403636:	48 81 ee 98 22 61 00 	sub    $0x612298,%rsi
  40363d:	48 c1 fe 03          	sar    $0x3,%rsi
  403641:	48 89 e5             	mov    %rsp,%rbp
  403644:	48 89 f0             	mov    %rsi,%rax
  403647:	48 c1 e8 3f          	shr    $0x3f,%rax
  40364b:	48 01 c6             	add    %rax,%rsi
  40364e:	48 d1 fe             	sar    %rsi
  403651:	74 15                	je     403668 <register_tm_clones+0x38>
  403653:	b8 00 00 00 00       	mov    $0x0,%eax
  403658:	48 85 c0             	test   %rax,%rax
  40365b:	74 0b                	je     403668 <register_tm_clones+0x38>
  40365d:	5d                   	pop    %rbp
  40365e:	bf 98 22 61 00       	mov    $0x612298,%edi
  403663:	ff e0                	jmpq   *%rax
  403665:	0f 1f 00             	nopl   (%rax)
  403668:	5d                   	pop    %rbp
  403669:	c3                   	retq   
  40366a:	66 0f 1f 44 00 00    	nopw   0x0(%rax,%rax,1)

0000000000403670 <__do_global_dtors_aux>:
  403670:	80 3d 79 ef 20 00 00 	cmpb   $0x0,0x20ef79(%rip)        # 6125f0 <completed.7585>
  403677:	75 11                	jne    40368a <__do_global_dtors_aux+0x1a>
  403679:	55                   	push   %rbp
  40367a:	48 89 e5             	mov    %rsp,%rbp
  40367d:	e8 6e ff ff ff       	callq  4035f0 <deregister_tm_clones>
  403682:	5d                   	pop    %rbp
  403683:	c6 05 66 ef 20 00 01 	movb   $0x1,0x20ef66(%rip)        # 6125f0 <completed.7585>
  40368a:	f3 c3                	repz retq 
  40368c:	0f 1f 40 00          	nopl   0x0(%rax)

0000000000403690 <frame_dummy>:
  403690:	bf c0 1d 61 00       	mov    $0x611dc0,%edi
  403695:	48 83 3f 00          	cmpq   $0x0,(%rdi)
  403699:	75 05                	jne    4036a0 <frame_dummy+0x10>
  40369b:	eb 93                	jmp    403630 <register_tm_clones>
  40369d:	0f 1f 00             	nopl   (%rax)
  4036a0:	b8 00 00 00 00       	mov    $0x0,%eax
  4036a5:	48 85 c0             	test   %rax,%rax
  4036a8:	74 f1                	je     40369b <frame_dummy+0xb>
  4036aa:	55                   	push   %rbp
  4036ab:	48 89 e5             	mov    %rsp,%rbp
  4036ae:	ff d0                	callq  *%rax
  4036b0:	5d                   	pop    %rbp
  4036b1:	e9 7a ff ff ff       	jmpq   403630 <register_tm_clones>

00000000004036b6 <_ZL18__gthread_active_pv>:
  4036b6:	55                   	push   %rbp
  4036b7:	48 89 e5             	mov    %rsp,%rbp
  4036ba:	48 8b 05 07 8c 00 00 	mov    0x8c07(%rip),%rax        # 40c2c8 <_ZZL18__gthread_active_pvE20__gthread_active_ptr>
  4036c1:	48 85 c0             	test   %rax,%rax
  4036c4:	0f 95 c0             	setne  %al
  4036c7:	0f b6 c0             	movzbl %al,%eax
  4036ca:	5d                   	pop    %rbp
  4036cb:	c3                   	retq   

00000000004036cc <_ZL14__gthread_oncePiPFvvE>:
  4036cc:	55                   	push   %rbp
  4036cd:	48 89 e5             	mov    %rsp,%rbp
  4036d0:	48 83 ec 10          	sub    $0x10,%rsp
  4036d4:	48 89 7d f8          	mov    %rdi,-0x8(%rbp)
  4036d8:	48 89 75 f0          	mov    %rsi,-0x10(%rbp)
  4036dc:	e8 d5 ff ff ff       	callq  4036b6 <_ZL18__gthread_active_pv>
  4036e1:	85 c0                	test   %eax,%eax
  4036e3:	0f 95 c0             	setne  %al
  4036e6:	84 c0                	test   %al,%al
  4036e8:	74 15                	je     4036ff <_ZL14__gthread_oncePiPFvvE+0x33>
  4036ea:	48 8b 55 f0          	mov    -0x10(%rbp),%rdx
  4036ee:	48 8b 45 f8          	mov    -0x8(%rbp),%rax
  4036f2:	48 89 d6             	mov    %rdx,%rsi
  4036f5:	48 89 c7             	mov    %rax,%rdi
  4036f8:	e8 83 fd ff ff       	callq  403480 <pthread_once@plt>
  4036fd:	eb 05                	jmp    403704 <_ZL14__gthread_oncePiPFvvE+0x38>
  4036ff:	b8 ff ff ff ff       	mov    $0xffffffff,%eax
  403704:	c9                   	leaveq 
  403705:	c3                   	retq   

0000000000403706 <_ZN2cl6detailL10errHandlerEiPKc>:
  403706:	55                   	push   %rbp
  403707:	48 89 e5             	mov    %rsp,%rbp
  40370a:	53                   	push   %rbx
  40370b:	48 83 ec 18          	sub    $0x18,%rsp
  40370f:	89 7d ec             	mov    %edi,-0x14(%rbp)
  403712:	48 89 75 e0          	mov    %rsi,-0x20(%rbp)
  403716:	83 7d ec 00          	cmpl   $0x0,-0x14(%rbp)
  40371a:	74 30                	je     40374c <_ZN2cl6detailL10errHandlerEiPKc+0x46>
  40371c:	bf 18 00 00 00       	mov    $0x18,%edi
  403721:	e8 ba fa ff ff       	callq  4031e0 <__cxa_allocate_exception@plt>
  403726:	48 89 c3             	mov    %rax,%rbx
  403729:	48 8b 55 e0          	mov    -0x20(%rbp),%rdx
  40372d:	8b 45 ec             	mov    -0x14(%rbp),%eax
  403730:	89 c6                	mov    %eax,%esi
  403732:	48 89 df             	mov    %rbx,%rdi
  403735:	e8 34 0a 00 00       	callq  40416e <_ZN2cl5ErrorC1EiPKc>
  40373a:	ba b2 41 40 00       	mov    $0x4041b2,%edx
  40373f:	be 80 c5 40 00       	mov    $0x40c580,%esi
  403744:	48 89 df             	mov    %rbx,%rdi
  403747:	e8 a4 fd ff ff       	callq  4034f0 <__cxa_throw@plt>
  40374c:	8b 45 ec             	mov    -0x14(%rbp),%eax
  40374f:	48 83 c4 18          	add    $0x18,%rsp
  403753:	5b                   	pop    %rbx
  403754:	5d                   	pop    %rbp
  403755:	c3                   	retq   

0000000000403756 <_ZN2cl6detailL10getVersionERKSt6vectorIcSaIcEE>:
  403756:	55                   	push   %rbp
  403757:	48 89 e5             	mov    %rsp,%rbp
  40375a:	48 83 ec 20          	sub    $0x20,%rsp
  40375e:	48 89 7d e8          	mov    %rdi,-0x18(%rbp)
  403762:	c7 45 f4 00 00 00 00 	movl   $0x0,-0xc(%rbp)
  403769:	c7 45 f8 00 00 00 00 	movl   $0x0,-0x8(%rbp)
  403770:	c7 45 fc 07 00 00 00 	movl   $0x7,-0x4(%rbp)
  403777:	8b 45 fc             	mov    -0x4(%rbp),%eax
  40377a:	48 63 d0             	movslq %eax,%rdx
  40377d:	48 8b 45 e8          	mov    -0x18(%rbp),%rax
  403781:	48 89 d6             	mov    %rdx,%rsi
  403784:	48 89 c7             	mov    %rax,%rdi
  403787:	e8 9c 36 00 00       	callq  406e28 <_ZNKSt6vectorIcSaIcEEixEm>
  40378c:	0f b6 00             	movzbl (%rax),%eax
  40378f:	3c 2e                	cmp    $0x2e,%al
  403791:	0f 95 c0             	setne  %al
  403794:	84 c0                	test   %al,%al
  403796:	74 36                	je     4037ce <_ZN2cl6detailL10getVersionERKSt6vectorIcSaIcEE+0x78>
  403798:	8b 55 f4             	mov    -0xc(%rbp),%edx
  40379b:	89 d0                	mov    %edx,%eax
  40379d:	c1 e0 02             	shl    $0x2,%eax
  4037a0:	01 d0                	add    %edx,%eax
  4037a2:	01 c0                	add    %eax,%eax
  4037a4:	89 45 f4             	mov    %eax,-0xc(%rbp)
  4037a7:	8b 45 fc             	mov    -0x4(%rbp),%eax
  4037aa:	48 63 d0             	movslq %eax,%rdx
  4037ad:	48 8b 45 e8          	mov    -0x18(%rbp),%rax
  4037b1:	48 89 d6             	mov    %rdx,%rsi
  4037b4:	48 89 c7             	mov    %rax,%rdi
  4037b7:	e8 6c 36 00 00       	callq  406e28 <_ZNKSt6vectorIcSaIcEEixEm>
  4037bc:	0f b6 00             	movzbl (%rax),%eax
  4037bf:	0f be c0             	movsbl %al,%eax
  4037c2:	83 e8 30             	sub    $0x30,%eax
  4037c5:	01 45 f4             	add    %eax,-0xc(%rbp)
  4037c8:	83 45 fc 01          	addl   $0x1,-0x4(%rbp)
  4037cc:	eb a9                	jmp    403777 <_ZN2cl6detailL10getVersionERKSt6vectorIcSaIcEE+0x21>
  4037ce:	83 45 fc 01          	addl   $0x1,-0x4(%rbp)
  4037d2:	8b 45 fc             	mov    -0x4(%rbp),%eax
  4037d5:	48 63 d0             	movslq %eax,%rdx
  4037d8:	48 8b 45 e8          	mov    -0x18(%rbp),%rax
  4037dc:	48 89 d6             	mov    %rdx,%rsi
  4037df:	48 89 c7             	mov    %rax,%rdi
  4037e2:	e8 41 36 00 00       	callq  406e28 <_ZNKSt6vectorIcSaIcEEixEm>
  4037e7:	0f b6 00             	movzbl (%rax),%eax
  4037ea:	3c 20                	cmp    $0x20,%al
  4037ec:	74 23                	je     403811 <_ZN2cl6detailL10getVersionERKSt6vectorIcSaIcEE+0xbb>
  4037ee:	8b 45 fc             	mov    -0x4(%rbp),%eax
  4037f1:	48 63 d0             	movslq %eax,%rdx
  4037f4:	48 8b 45 e8          	mov    -0x18(%rbp),%rax
  4037f8:	48 89 d6             	mov    %rdx,%rsi
  4037fb:	48 89 c7             	mov    %rax,%rdi
  4037fe:	e8 25 36 00 00       	callq  406e28 <_ZNKSt6vectorIcSaIcEEixEm>
  403803:	0f b6 00             	movzbl (%rax),%eax
  403806:	84 c0                	test   %al,%al
  403808:	74 07                	je     403811 <_ZN2cl6detailL10getVersionERKSt6vectorIcSaIcEE+0xbb>
  40380a:	b8 01 00 00 00       	mov    $0x1,%eax
  40380f:	eb 05                	jmp    403816 <_ZN2cl6detailL10getVersionERKSt6vectorIcSaIcEE+0xc0>
  403811:	b8 00 00 00 00       	mov    $0x0,%eax
  403816:	84 c0                	test   %al,%al
  403818:	74 36                	je     403850 <_ZN2cl6detailL10getVersionERKSt6vectorIcSaIcEE+0xfa>
  40381a:	8b 55 f8             	mov    -0x8(%rbp),%edx
  40381d:	89 d0                	mov    %edx,%eax
  40381f:	c1 e0 02             	shl    $0x2,%eax
  403822:	01 d0                	add    %edx,%eax
  403824:	01 c0                	add    %eax,%eax
  403826:	89 45 f8             	mov    %eax,-0x8(%rbp)
  403829:	8b 45 fc             	mov    -0x4(%rbp),%eax
  40382c:	48 63 d0             	movslq %eax,%rdx
  40382f:	48 8b 45 e8          	mov    -0x18(%rbp),%rax
  403833:	48 89 d6             	mov    %rdx,%rsi
  403836:	48 89 c7             	mov    %rax,%rdi
  403839:	e8 ea 35 00 00       	callq  406e28 <_ZNKSt6vectorIcSaIcEEixEm>
  40383e:	0f b6 00             	movzbl (%rax),%eax
  403841:	0f be c0             	movsbl %al,%eax
  403844:	83 e8 30             	sub    $0x30,%eax
  403847:	01 45 f8             	add    %eax,-0x8(%rbp)
  40384a:	83 45 fc 01          	addl   $0x1,-0x4(%rbp)
  40384e:	eb 82                	jmp    4037d2 <_ZN2cl6detailL10getVersionERKSt6vectorIcSaIcEE+0x7c>
  403850:	8b 45 f4             	mov    -0xc(%rbp),%eax
  403853:	c1 e0 10             	shl    $0x10,%eax
  403856:	0b 45 f8             	or     -0x8(%rbp),%eax
  403859:	c9                   	leaveq 
  40385a:	c3                   	retq   

000000000040385b <_ZN2CK16store_setup_timeEf>:
  40385b:	55                   	push   %rbp
  40385c:	48 89 e5             	mov    %rsp,%rbp
  40385f:	48 83 ec 10          	sub    $0x10,%rsp
  403863:	f3 0f 11 45 fc       	movss  %xmm0,-0x4(%rbp)
  403868:	8b 45 fc             	mov    -0x4(%rbp),%eax
  40386b:	89 45 f8             	mov    %eax,-0x8(%rbp)
  40386e:	f3 0f 10 45 f8       	movss  -0x8(%rbp),%xmm0
  403873:	be f8 c0 40 00       	mov    $0x40c0f8,%esi
  403878:	bf 0a 00 00 00       	mov    $0xa,%edi
  40387d:	e8 a6 2f 00 00       	callq  406828 <_ZN2CK13store_value_fEiPKcf>
  403882:	90                   	nop
  403883:	c9                   	leaveq 
  403884:	c3                   	retq   

0000000000403885 <_ZN2CK15store_test_timeEf>:
  403885:	55                   	push   %rbp
  403886:	48 89 e5             	mov    %rsp,%rbp
  403889:	48 83 ec 10          	sub    $0x10,%rsp
  40388d:	f3 0f 11 45 fc       	movss  %xmm0,-0x4(%rbp)
  403892:	8b 45 fc             	mov    -0x4(%rbp),%eax
  403895:	89 45 f8             	mov    %eax,-0x8(%rbp)
  403898:	f3 0f 10 45 f8       	movss  -0x8(%rbp),%xmm0
  40389d:	be 03 c1 40 00       	mov    $0x40c103,%esi
  4038a2:	bf 0b 00 00 00       	mov    $0xb,%edi
  4038a7:	e8 7c 2f 00 00       	callq  406828 <_ZN2CK13store_value_fEiPKcf>
  4038ac:	90                   	nop
  4038ad:	c9                   	leaveq 
  4038ae:	c3                   	retq   

00000000004038af <_ZN2CK5armcl15printf_callbackEPKcjmPv>:
  4038af:	55                   	push   %rbp
  4038b0:	48 89 e5             	mov    %rsp,%rbp
  4038b3:	48 83 ec 20          	sub    $0x20,%rsp
  4038b7:	48 89 7d f8          	mov    %rdi,-0x8(%rbp)
  4038bb:	89 75 f4             	mov    %esi,-0xc(%rbp)
  4038be:	48 89 55 e8          	mov    %rdx,-0x18(%rbp)
  4038c2:	48 89 4d e0          	mov    %rcx,-0x20(%rbp)
  4038c6:	48 8b 55 f8          	mov    -0x8(%rbp),%rdx
  4038ca:	8b 45 f4             	mov    -0xc(%rbp),%eax
  4038cd:	89 c6                	mov    %eax,%esi
  4038cf:	bf 0d c1 40 00       	mov    $0x40c10d,%edi
  4038d4:	b8 00 00 00 00       	mov    $0x0,%eax
  4038d9:	e8 12 f8 ff ff       	callq  4030f0 <printf@plt>
  4038de:	90                   	nop
  4038df:	c9                   	leaveq 
  4038e0:	c3                   	retq   
  4038e1:	90                   	nop

00000000004038e2 <_ZZ4mainENKUlvE_clEv>:
  4038e2:	55                   	push   %rbp
  4038e3:	48 89 e5             	mov    %rsp,%rbp
  4038e6:	41 54                	push   %r12
  4038e8:	53                   	push   %rbx
  4038e9:	48 81 ec 80 01 00 00 	sub    $0x180,%rsp
  4038f0:	48 89 bd 78 fe ff ff 	mov    %rdi,-0x188(%rbp)
  4038f7:	64 48 8b 04 25 28 00 	mov    %fs:0x28,%rax
  4038fe:	00 00 
  403900:	48 89 45 e8          	mov    %rax,-0x18(%rbp)
  403904:	31 c0                	xor    %eax,%eax
  403906:	48 8b 85 78 fe ff ff 	mov    -0x188(%rbp),%rax
  40390d:	48 8b 00             	mov    (%rax),%rax
  403910:	8b 10                	mov    (%rax),%edx
  403912:	48 8b 85 78 fe ff ff 	mov    -0x188(%rbp),%rax
  403919:	48 8b 00             	mov    (%rax),%rax
  40391c:	8b 40 04             	mov    0x4(%rax),%eax
  40391f:	0f af c2             	imul   %edx,%eax
  403922:	48 63 c8             	movslq %eax,%rcx
  403925:	48 8b 85 78 fe ff ff 	mov    -0x188(%rbp),%rax
  40392c:	48 8b 00             	mov    (%rax),%rax
  40392f:	8b 40 0c             	mov    0xc(%rax),%eax
  403932:	48 63 d0             	movslq %eax,%rdx
  403935:	48 8b 85 78 fe ff ff 	mov    -0x188(%rbp),%rax
  40393c:	48 8b 00             	mov    (%rax),%rax
  40393f:	8b 40 08             	mov    0x8(%rax),%eax
  403942:	48 63 f0             	movslq %eax,%rsi
  403945:	48 8d 85 90 fe ff ff 	lea    -0x170(%rbp),%rax
  40394c:	48 89 c7             	mov    %rax,%rdi
  40394f:	e8 aa 45 00 00       	callq  407efe <_ZN11arm_compute11TensorShapeC1IImmmEEEDpT_>
  403954:	48 8d 8d 90 fe ff ff 	lea    -0x170(%rbp),%rcx
  40395b:	48 8d 85 d0 fe ff ff 	lea    -0x130(%rbp),%rax
  403962:	ba 07 00 00 00       	mov    $0x7,%edx
  403967:	48 89 ce             	mov    %rcx,%rsi
  40396a:	48 89 c7             	mov    %rax,%rdi
  40396d:	e8 6e fb ff ff       	callq  4034e0 <_ZN11arm_compute10TensorInfoC1ERKNS_11TensorShapeENS_6FormatE@plt>
  403972:	48 8b 85 78 fe ff ff 	mov    -0x188(%rbp),%rax
  403979:	48 8b 40 08          	mov    0x8(%rax),%rax
  40397d:	48 89 c7             	mov    %rax,%rdi
  403980:	e8 9b f9 ff ff       	callq  403320 <_ZN11arm_compute8CLTensor9allocatorEv@plt>
  403985:	48 89 c2             	mov    %rax,%rdx
  403988:	48 8d 85 d0 fe ff ff 	lea    -0x130(%rbp),%rax
  40398f:	48 89 c6             	mov    %rax,%rsi
  403992:	48 89 d7             	mov    %rdx,%rdi
  403995:	e8 66 f9 ff ff       	callq  403300 <_ZN11arm_compute16ITensorAllocator4initERKNS_10TensorInfoE@plt>
  40399a:	48 8d 85 d0 fe ff ff 	lea    -0x130(%rbp),%rax
  4039a1:	48 89 c7             	mov    %rax,%rdi
  4039a4:	e8 41 84 00 00       	callq  40bdea <_ZN11arm_compute10TensorInfoD1Ev>
  4039a9:	48 8b 85 78 fe ff ff 	mov    -0x188(%rbp),%rax
  4039b0:	48 8b 50 20          	mov    0x20(%rax),%rdx
  4039b4:	48 8b 85 78 fe ff ff 	mov    -0x188(%rbp),%rax
  4039bb:	48 8b 40 18          	mov    0x18(%rax),%rax
  4039bf:	48 89 c7             	mov    %rax,%rdi
  4039c2:	48 8b 85 78 fe ff ff 	mov    -0x188(%rbp),%rax
  4039c9:	48 8b 40 08          	mov    0x8(%rax),%rax
  4039cd:	48 89 c6             	mov    %rax,%rsi
  4039d0:	48 8b 85 78 fe ff ff 	mov    -0x188(%rbp),%rax
  4039d7:	48 8b 40 10          	mov    0x10(%rax),%rax
  4039db:	48 89 d1             	mov    %rdx,%rcx
  4039de:	48 89 fa             	mov    %rdi,%rdx
  4039e1:	48 89 c7             	mov    %rax,%rdi
  4039e4:	e8 77 f8 ff ff       	callq  403260 <_ZN11arm_compute14CLPoolingLayer9configureEPNS_9ICLTensorES2_RKNS_16PoolingLayerInfoE@plt>
  4039e9:	48 8b 85 78 fe ff ff 	mov    -0x188(%rbp),%rax
  4039f0:	48 8b 40 18          	mov    0x18(%rax),%rax
  4039f4:	48 8b 00             	mov    (%rax),%rax
  4039f7:	48 83 c0 08          	add    $0x8,%rax
  4039fb:	48 8b 00             	mov    (%rax),%rax
  4039fe:	48 8b 95 78 fe ff ff 	mov    -0x188(%rbp),%rdx
  403a05:	48 8b 52 18          	mov    0x18(%rdx),%rdx
  403a09:	48 89 d7             	mov    %rdx,%rdi
  403a0c:	ff d0                	callq  *%rax
  403a0e:	be 02 00 00 00       	mov    $0x2,%esi
  403a13:	48 89 c7             	mov    %rax,%rdi
  403a16:	e8 3d 26 00 00       	callq  406058 <_ZNK11arm_compute10TensorInfo9dimensionEm>
  403a1b:	49 89 c4             	mov    %rax,%r12
  403a1e:	48 8b 85 78 fe ff ff 	mov    -0x188(%rbp),%rax
  403a25:	48 8b 40 18          	mov    0x18(%rax),%rax
  403a29:	48 8b 00             	mov    (%rax),%rax
  403a2c:	48 83 c0 08          	add    $0x8,%rax
  403a30:	48 8b 00             	mov    (%rax),%rax
  403a33:	48 8b 95 78 fe ff ff 	mov    -0x188(%rbp),%rdx
  403a3a:	48 8b 52 18          	mov    0x18(%rdx),%rdx
  403a3e:	48 89 d7             	mov    %rdx,%rdi
  403a41:	ff d0                	callq  *%rax
  403a43:	be 01 00 00 00       	mov    $0x1,%esi
  403a48:	48 89 c7             	mov    %rax,%rdi
  403a4b:	e8 08 26 00 00       	callq  406058 <_ZNK11arm_compute10TensorInfo9dimensionEm>
  403a50:	48 89 c3             	mov    %rax,%rbx
  403a53:	48 8b 85 78 fe ff ff 	mov    -0x188(%rbp),%rax
  403a5a:	48 8b 40 18          	mov    0x18(%rax),%rax
  403a5e:	48 8b 00             	mov    (%rax),%rax
  403a61:	48 83 c0 08          	add    $0x8,%rax
  403a65:	48 8b 00             	mov    (%rax),%rax
  403a68:	48 8b 95 78 fe ff ff 	mov    -0x188(%rbp),%rdx
  403a6f:	48 8b 52 18          	mov    0x18(%rdx),%rdx
  403a73:	48 89 d7             	mov    %rdx,%rdi
  403a76:	ff d0                	callq  *%rax
  403a78:	be 00 00 00 00       	mov    $0x0,%esi
  403a7d:	48 89 c7             	mov    %rax,%rdi
  403a80:	e8 d3 25 00 00       	callq  406058 <_ZNK11arm_compute10TensorInfo9dimensionEm>
  403a85:	4c 89 e1             	mov    %r12,%rcx
  403a88:	48 89 da             	mov    %rbx,%rdx
  403a8b:	48 89 c6             	mov    %rax,%rsi
  403a8e:	bf 40 c1 40 00       	mov    $0x40c140,%edi
  403a93:	b8 00 00 00 00       	mov    $0x0,%eax
  403a98:	e8 53 f6 ff ff       	callq  4030f0 <printf@plt>
  403a9d:	48 8b 85 78 fe ff ff 	mov    -0x188(%rbp),%rax
  403aa4:	48 8b 40 08          	mov    0x8(%rax),%rax
  403aa8:	48 89 c7             	mov    %rax,%rdi
  403aab:	e8 70 f8 ff ff       	callq  403320 <_ZN11arm_compute8CLTensor9allocatorEv@plt>
  403ab0:	48 8b 10             	mov    (%rax),%rdx
  403ab3:	48 83 c2 10          	add    $0x10,%rdx
  403ab7:	48 8b 12             	mov    (%rdx),%rdx
  403aba:	48 89 c7             	mov    %rax,%rdi
  403abd:	ff d2                	callq  *%rdx
  403abf:	48 8b 85 78 fe ff ff 	mov    -0x188(%rbp),%rax
  403ac6:	48 8b 40 18          	mov    0x18(%rax),%rax
  403aca:	48 89 c7             	mov    %rax,%rdi
  403acd:	e8 4e f8 ff ff       	callq  403320 <_ZN11arm_compute8CLTensor9allocatorEv@plt>
  403ad2:	48 8b 10             	mov    (%rax),%rdx
  403ad5:	48 83 c2 10          	add    $0x10,%rdx
  403ad9:	48 8b 12             	mov    (%rdx),%rdx
  403adc:	48 89 c7             	mov    %rax,%rdi
  403adf:	ff d2                	callq  *%rdx
  403ae1:	48 8b 85 78 fe ff ff 	mov    -0x188(%rbp),%rax
  403ae8:	48 8b 00             	mov    (%rax),%rax
  403aeb:	48 89 c7             	mov    %rax,%rdi
  403aee:	e8 c7 44 00 00       	callq  407fba <_ZN2CK19get_random_raw_dataIfEEPT_RKNS_5ShapeE>
  403af3:	48 89 85 88 fe ff ff 	mov    %rax,-0x178(%rbp)
  403afa:	48 8b 85 78 fe ff ff 	mov    -0x188(%rbp),%rax
  403b01:	48 8b 10             	mov    (%rax),%rdx
  403b04:	48 8b 85 88 fe ff ff 	mov    -0x178(%rbp),%rax
  403b0b:	48 89 d6             	mov    %rdx,%rsi
  403b0e:	48 89 c7             	mov    %rax,%rdi
  403b11:	e8 c0 45 00 00       	callq  4080d6 <_ZN2CK20print_input_raw_dataIfEEvPT_RKNS_5ShapeE>
  403b16:	48 8b 85 78 fe ff ff 	mov    -0x188(%rbp),%rax
  403b1d:	48 8b 10             	mov    (%rax),%rdx
  403b20:	48 8b 85 78 fe ff ff 	mov    -0x188(%rbp),%rax
  403b27:	48 8b 40 08          	mov    0x8(%rax),%rax
  403b2b:	48 8b 8d 88 fe ff ff 	mov    -0x178(%rbp),%rcx
  403b32:	48 89 ce             	mov    %rcx,%rsi
  403b35:	48 89 c7             	mov    %rax,%rdi
  403b38:	e8 3b 46 00 00       	callq  408178 <_ZN2CK5armcl23copy_raw_data_to_tensorIfEEvPN11arm_compute8CLTensorEPT_RKNS_5ShapeE>
  403b3d:	48 83 bd 88 fe ff ff 	cmpq   $0x0,-0x178(%rbp)
  403b44:	00 
  403b45:	74 2e                	je     403b75 <_ZZ4mainENKUlvE_clEv+0x293>
  403b47:	48 8b 85 88 fe ff ff 	mov    -0x178(%rbp),%rax
  403b4e:	48 89 c7             	mov    %rax,%rdi
  403b51:	e8 4a f8 ff ff       	callq  4033a0 <_ZdaPv@plt>
  403b56:	eb 1d                	jmp    403b75 <_ZZ4mainENKUlvE_clEv+0x293>
  403b58:	48 89 c3             	mov    %rax,%rbx
  403b5b:	48 8d 85 d0 fe ff ff 	lea    -0x130(%rbp),%rax
  403b62:	48 89 c7             	mov    %rax,%rdi
  403b65:	e8 80 82 00 00       	callq  40bdea <_ZN11arm_compute10TensorInfoD1Ev>
  403b6a:	48 89 d8             	mov    %rbx,%rax
  403b6d:	48 89 c7             	mov    %rax,%rdi
  403b70:	e8 9b f9 ff ff       	callq  403510 <_Unwind_Resume@plt>
  403b75:	90                   	nop
  403b76:	48 8b 45 e8          	mov    -0x18(%rbp),%rax
  403b7a:	64 48 33 04 25 28 00 	xor    %fs:0x28,%rax
  403b81:	00 00 
  403b83:	74 05                	je     403b8a <_ZZ4mainENKUlvE_clEv+0x2a8>
  403b85:	e8 66 f7 ff ff       	callq  4032f0 <__stack_chk_fail@plt>
  403b8a:	48 81 c4 80 01 00 00 	add    $0x180,%rsp
  403b91:	5b                   	pop    %rbx
  403b92:	41 5c                	pop    %r12
  403b94:	5d                   	pop    %rbp
  403b95:	c3                   	retq   

0000000000403b96 <_ZZ4mainENKUlvE0_clEv>:
  403b96:	55                   	push   %rbp
  403b97:	48 89 e5             	mov    %rsp,%rbp
  403b9a:	48 83 ec 10          	sub    $0x10,%rsp
  403b9e:	48 89 7d f8          	mov    %rdi,-0x8(%rbp)
  403ba2:	48 8b 45 f8          	mov    -0x8(%rbp),%rax
  403ba6:	48 8b 00             	mov    (%rax),%rax
  403ba9:	48 89 c7             	mov    %rax,%rdi
  403bac:	e8 0f f7 ff ff       	callq  4032c0 <_ZN11arm_compute17ICLSimpleFunction3runEv@plt>
  403bb1:	e8 4a f5 ff ff       	callq  403100 <_ZN11arm_compute11CLScheduler3getEv@plt>
  403bb6:	48 89 c7             	mov    %rax,%rdi
  403bb9:	e8 f2 2a 00 00       	callq  4066b0 <_ZN11arm_compute11CLScheduler4syncEv>
  403bbe:	90                   	nop
  403bbf:	c9                   	leaveq 
  403bc0:	c3                   	retq   

0000000000403bc1 <main>:
  403bc1:	55                   	push   %rbp
  403bc2:	48 89 e5             	mov    %rsp,%rbp
  403bc5:	53                   	push   %rbx
  403bc6:	48 81 ec e8 03 00 00 	sub    $0x3e8,%rsp
  403bcd:	64 48 8b 04 25 28 00 	mov    %fs:0x28,%rax
  403bd4:	00 00 
  403bd6:	48 89 45 e8          	mov    %rax,-0x18(%rbp)
  403bda:	31 c0                	xor    %eax,%eax
  403bdc:	e8 90 2d 00 00       	callq  406971 <_ZN2CK9init_testEv>
  403be1:	e8 d0 2e 00 00       	callq  406ab6 <_ZN2CK5armcl10init_armclEv>
  403be6:	e8 b9 2c 00 00       	callq  4068a4 <_ZN2CK24get_input_shape_from_envEv>
  403beb:	48 89 85 30 fc ff ff 	mov    %rax,-0x3d0(%rbp)
  403bf2:	48 89 95 38 fc ff ff 	mov    %rdx,-0x3c8(%rbp)
  403bf9:	be 03 00 00 00       	mov    $0x3,%esi
  403bfe:	bf 65 c1 40 00       	mov    $0x40c165,%edi
  403c03:	e8 73 2b 00 00       	callq  40677b <_ZN2CK8getenv_iEPKci>
  403c08:	89 85 1c fc ff ff    	mov    %eax,-0x3e4(%rbp)
  403c0e:	be 01 00 00 00       	mov    $0x1,%esi
  403c13:	bf 74 c1 40 00       	mov    $0x40c174,%edi
  403c18:	e8 5e 2b 00 00       	callq  40677b <_ZN2CK8getenv_iEPKci>
  403c1d:	89 85 20 fc ff ff    	mov    %eax,-0x3e0(%rbp)
  403c23:	be 00 00 00 00       	mov    $0x0,%esi
  403c28:	bf 83 c1 40 00       	mov    $0x40c183,%edi
  403c2d:	e8 49 2b 00 00       	callq  40677b <_ZN2CK8getenv_iEPKci>
  403c32:	89 85 24 fc ff ff    	mov    %eax,-0x3dc(%rbp)
  403c38:	8b 8d 24 fc ff ff    	mov    -0x3dc(%rbp),%ecx
  403c3e:	8b 95 20 fc ff ff    	mov    -0x3e0(%rbp),%edx
  403c44:	8b 85 1c fc ff ff    	mov    -0x3e4(%rbp),%eax
  403c4a:	89 c6                	mov    %eax,%esi
  403c4c:	bf 90 c1 40 00       	mov    $0x40c190,%edi
  403c51:	b8 00 00 00 00       	mov    $0x0,%eax
  403c56:	e8 95 f4 ff ff       	callq  4030f0 <printf@plt>
  403c5b:	48 8d 85 50 fd ff ff 	lea    -0x2b0(%rbp),%rax
  403c62:	48 89 c7             	mov    %rax,%rdi
  403c65:	e8 16 f9 ff ff       	callq  403580 <_ZN11arm_compute8CLTensorC1Ev@plt>
  403c6a:	48 8d 85 a0 fe ff ff 	lea    -0x160(%rbp),%rax
  403c71:	48 89 c7             	mov    %rax,%rdi
  403c74:	e8 07 f9 ff ff       	callq  403580 <_ZN11arm_compute8CLTensorC1Ev@plt>
  403c79:	8b bd 24 fc ff ff    	mov    -0x3dc(%rbp),%edi
  403c7f:	8b 8d 24 fc ff ff    	mov    -0x3dc(%rbp),%ecx
  403c85:	8b 95 20 fc ff ff    	mov    -0x3e0(%rbp),%edx
  403c8b:	8b b5 20 fc ff ff    	mov    -0x3e0(%rbp),%esi
  403c91:	48 8d 85 40 fc ff ff 	lea    -0x3c0(%rbp),%rax
  403c98:	41 b9 00 00 00 00    	mov    $0x0,%r9d
  403c9e:	41 89 f8             	mov    %edi,%r8d
  403ca1:	48 89 c7             	mov    %rax,%rdi
  403ca4:	e8 ef 20 00 00       	callq  405d98 <_ZN11arm_compute13PadStrideInfoC1EjjjjNS_21DimensionRoundingTypeE>
  403ca9:	8b 95 1c fc ff ff    	mov    -0x3e4(%rbp),%edx
  403caf:	48 8d 8d 60 fc ff ff 	lea    -0x3a0(%rbp),%rcx
  403cb6:	48 83 ec 08          	sub    $0x8,%rsp
  403cba:	48 83 ec 18          	sub    $0x18,%rsp
  403cbe:	48 89 e0             	mov    %rsp,%rax
  403cc1:	48 8b b5 40 fc ff ff 	mov    -0x3c0(%rbp),%rsi
  403cc8:	48 89 30             	mov    %rsi,(%rax)
  403ccb:	48 8b b5 48 fc ff ff 	mov    -0x3b8(%rbp),%rsi
  403cd2:	48 89 70 08          	mov    %rsi,0x8(%rax)
  403cd6:	8b b5 50 fc ff ff    	mov    -0x3b0(%rbp),%esi
  403cdc:	89 70 10             	mov    %esi,0x10(%rax)
  403cdf:	be 01 00 00 00       	mov    $0x1,%esi
  403ce4:	48 89 cf             	mov    %rcx,%rdi
  403ce7:	e8 12 21 00 00       	callq  405dfe <_ZN11arm_compute16PoolingLayerInfoC1ENS_11PoolingTypeEjNS_13PadStrideInfoE>
  403cec:	48 83 c4 20          	add    $0x20,%rsp
  403cf0:	48 8d 85 b0 fc ff ff 	lea    -0x350(%rbp),%rax
  403cf7:	48 89 c7             	mov    %rax,%rdi
  403cfa:	e8 b5 30 00 00       	callq  406db4 <_ZN11arm_compute14CLPoolingLayerC1Ev>
  403cff:	48 8d 85 30 fc ff ff 	lea    -0x3d0(%rbp),%rax
  403d06:	48 89 85 80 fc ff ff 	mov    %rax,-0x380(%rbp)
  403d0d:	48 8d 85 50 fd ff ff 	lea    -0x2b0(%rbp),%rax
  403d14:	48 89 85 88 fc ff ff 	mov    %rax,-0x378(%rbp)
  403d1b:	48 8d 85 b0 fc ff ff 	lea    -0x350(%rbp),%rax
  403d22:	48 89 85 90 fc ff ff 	mov    %rax,-0x370(%rbp)
  403d29:	48 8d 85 a0 fe ff ff 	lea    -0x160(%rbp),%rax
  403d30:	48 89 85 98 fc ff ff 	mov    %rax,-0x368(%rbp)
  403d37:	48 8d 85 60 fc ff ff 	lea    -0x3a0(%rbp),%rax
  403d3e:	48 89 85 a0 fc ff ff 	mov    %rax,-0x360(%rbp)
  403d45:	48 8d 85 80 fc ff ff 	lea    -0x380(%rbp),%rax
  403d4c:	48 89 c7             	mov    %rax,%rdi
  403d4f:	e8 f4 01 00 00       	callq  403f48 <_ZN2CK13measure_setupIZ4mainEUlvE_EEvOT_>
  403d54:	48 8d 85 b0 fc ff ff 	lea    -0x350(%rbp),%rax
  403d5b:	48 89 85 80 fc ff ff 	mov    %rax,-0x380(%rbp)
  403d62:	48 8d 85 80 fc ff ff 	lea    -0x380(%rbp),%rax
  403d69:	48 89 c7             	mov    %rax,%rdi
  403d6c:	e8 0a 02 00 00       	callq  403f7b <_ZN2CK12measure_testIZ4mainEUlvE0_EEvOT_>
  403d71:	8b 85 30 fc ff ff    	mov    -0x3d0(%rbp),%eax
  403d77:	89 85 80 fc ff ff    	mov    %eax,-0x380(%rbp)
  403d7d:	8b 85 34 fc ff ff    	mov    -0x3cc(%rbp),%eax
  403d83:	89 85 84 fc ff ff    	mov    %eax,-0x37c(%rbp)
  403d89:	48 8d 85 a0 fe ff ff 	lea    -0x160(%rbp),%rax
  403d90:	48 89 c7             	mov    %rax,%rdi
  403d93:	e8 e8 f5 ff ff       	callq  403380 <_ZN11arm_compute8CLTensor4infoEv@plt>
  403d98:	be 00 00 00 00       	mov    $0x0,%esi
  403d9d:	48 89 c7             	mov    %rax,%rdi
  403da0:	e8 b3 22 00 00       	callq  406058 <_ZNK11arm_compute10TensorInfo9dimensionEm>
  403da5:	89 85 88 fc ff ff    	mov    %eax,-0x378(%rbp)
  403dab:	48 8d 85 a0 fe ff ff 	lea    -0x160(%rbp),%rax
  403db2:	48 89 c7             	mov    %rax,%rdi
  403db5:	e8 c6 f5 ff ff       	callq  403380 <_ZN11arm_compute8CLTensor4infoEv@plt>
  403dba:	be 01 00 00 00       	mov    $0x1,%esi
  403dbf:	48 89 c7             	mov    %rax,%rdi
  403dc2:	e8 91 22 00 00       	callq  406058 <_ZNK11arm_compute10TensorInfo9dimensionEm>
  403dc7:	89 85 8c fc ff ff    	mov    %eax,-0x374(%rbp)
  403dcd:	48 8d 85 80 fc ff ff 	lea    -0x380(%rbp),%rax
  403dd4:	48 89 c7             	mov    %rax,%rdi
  403dd7:	e8 f4 28 00 00       	callq  4066d0 <_ZNK2CK5Shape10data_countEv>
  403ddc:	48 98                	cltq   
  403dde:	48 ba 00 00 00 00 00 	movabs $0x1fc0000000000000,%rdx
  403de5:	00 c0 1f 
  403de8:	48 39 d0             	cmp    %rdx,%rax
  403deb:	77 0e                	ja     403dfb <main+0x23a>
  403ded:	48 c1 e0 02          	shl    $0x2,%rax
  403df1:	48 89 c7             	mov    %rax,%rdi
  403df4:	e8 d7 f2 ff ff       	callq  4030d0 <_Znam@plt>
  403df9:	eb 05                	jmp    403e00 <main+0x23f>
  403dfb:	e8 f0 f5 ff ff       	callq  4033f0 <__cxa_throw_bad_array_new_length@plt>
  403e00:	48 89 85 28 fc ff ff 	mov    %rax,-0x3d8(%rbp)
  403e07:	48 8d 95 80 fc ff ff 	lea    -0x380(%rbp),%rdx
  403e0e:	48 8b 8d 28 fc ff ff 	mov    -0x3d8(%rbp),%rcx
  403e15:	48 8d 85 a0 fe ff ff 	lea    -0x160(%rbp),%rax
  403e1c:	48 89 ce             	mov    %rcx,%rsi
  403e1f:	48 89 c7             	mov    %rax,%rdi
  403e22:	e8 44 45 00 00       	callq  40836b <_ZN2CK5armcl25copy_raw_data_from_tensorIfEEvPN11arm_compute8CLTensorEPT_RKNS_5ShapeE>
  403e27:	48 8d 95 80 fc ff ff 	lea    -0x380(%rbp),%rdx
  403e2e:	48 8b 85 28 fc ff ff 	mov    -0x3d8(%rbp),%rax
  403e35:	48 89 d6             	mov    %rdx,%rsi
  403e38:	48 89 c7             	mov    %rax,%rdi
  403e3b:	e8 c3 46 00 00       	callq  408503 <_ZN2CK21print_output_raw_dataIfEEvPT_RKNS_5ShapeE>
  403e40:	48 8d 95 80 fc ff ff 	lea    -0x380(%rbp),%rdx
  403e47:	48 8b 85 28 fc ff ff 	mov    -0x3d8(%rbp),%rax
  403e4e:	48 89 d6             	mov    %rdx,%rsi
  403e51:	48 89 c7             	mov    %rax,%rdi
  403e54:	e8 e8 46 00 00       	callq  408541 <_ZN2CK20dump_output_raw_dataIfEEvPT_RKNS_5ShapeE>
  403e59:	48 83 bd 28 fc ff ff 	cmpq   $0x0,-0x3d8(%rbp)
  403e60:	00 
  403e61:	74 0f                	je     403e72 <main+0x2b1>
  403e63:	48 8b 85 28 fc ff ff 	mov    -0x3d8(%rbp),%rax
  403e6a:	48 89 c7             	mov    %rax,%rdi
  403e6d:	e8 2e f5 ff ff       	callq  4033a0 <_ZdaPv@plt>
  403e72:	48 8d 85 50 fd ff ff 	lea    -0x2b0(%rbp),%rax
  403e79:	48 89 c7             	mov    %rax,%rdi
  403e7c:	e8 9f f4 ff ff       	callq  403320 <_ZN11arm_compute8CLTensor9allocatorEv@plt>
  403e81:	48 8b 10             	mov    (%rax),%rdx
  403e84:	48 83 c2 18          	add    $0x18,%rdx
  403e88:	48 8b 12             	mov    (%rdx),%rdx
  403e8b:	48 89 c7             	mov    %rax,%rdi
  403e8e:	ff d2                	callq  *%rdx
  403e90:	48 8d 85 a0 fe ff ff 	lea    -0x160(%rbp),%rax
  403e97:	48 89 c7             	mov    %rax,%rdi
  403e9a:	e8 81 f4 ff ff       	callq  403320 <_ZN11arm_compute8CLTensor9allocatorEv@plt>
  403e9f:	48 8b 10             	mov    (%rax),%rdx
  403ea2:	48 83 c2 18          	add    $0x18,%rdx
  403ea6:	48 8b 12             	mov    (%rdx),%rdx
  403ea9:	48 89 c7             	mov    %rax,%rdi
  403eac:	ff d2                	callq  *%rdx
  403eae:	e8 d4 2a 00 00       	callq  406987 <_ZN2CK11finish_testEv>
  403eb3:	bb 00 00 00 00       	mov    $0x0,%ebx
  403eb8:	48 8d 85 b0 fc ff ff 	lea    -0x350(%rbp),%rax
  403ebf:	48 89 c7             	mov    %rax,%rdi
  403ec2:	e8 df 7c 00 00       	callq  40bba6 <_ZN11arm_compute14CLPoolingLayerD1Ev>
  403ec7:	48 8d 85 a0 fe ff ff 	lea    -0x160(%rbp),%rax
  403ece:	48 89 c7             	mov    %rax,%rdi
  403ed1:	e8 ea 7d 00 00       	callq  40bcc0 <_ZN11arm_compute8CLTensorD1Ev>
  403ed6:	48 8d 85 50 fd ff ff 	lea    -0x2b0(%rbp),%rax
  403edd:	48 89 c7             	mov    %rax,%rdi
  403ee0:	e8 db 7d 00 00       	callq  40bcc0 <_ZN11arm_compute8CLTensorD1Ev>
  403ee5:	89 d8                	mov    %ebx,%eax
  403ee7:	48 8b 4d e8          	mov    -0x18(%rbp),%rcx
  403eeb:	64 48 33 0c 25 28 00 	xor    %fs:0x28,%rcx
  403ef2:	00 00 
  403ef4:	74 4c                	je     403f42 <main+0x381>
  403ef6:	eb 45                	jmp    403f3d <main+0x37c>
  403ef8:	48 89 c3             	mov    %rax,%rbx
  403efb:	48 8d 85 b0 fc ff ff 	lea    -0x350(%rbp),%rax
  403f02:	48 89 c7             	mov    %rax,%rdi
  403f05:	e8 9c 7c 00 00       	callq  40bba6 <_ZN11arm_compute14CLPoolingLayerD1Ev>
  403f0a:	eb 03                	jmp    403f0f <main+0x34e>
  403f0c:	48 89 c3             	mov    %rax,%rbx
  403f0f:	48 8d 85 a0 fe ff ff 	lea    -0x160(%rbp),%rax
  403f16:	48 89 c7             	mov    %rax,%rdi
  403f19:	e8 a2 7d 00 00       	callq  40bcc0 <_ZN11arm_compute8CLTensorD1Ev>
  403f1e:	eb 03                	jmp    403f23 <main+0x362>
  403f20:	48 89 c3             	mov    %rax,%rbx
  403f23:	48 8d 85 50 fd ff ff 	lea    -0x2b0(%rbp),%rax
  403f2a:	48 89 c7             	mov    %rax,%rdi
  403f2d:	e8 8e 7d 00 00       	callq  40bcc0 <_ZN11arm_compute8CLTensorD1Ev>
  403f32:	48 89 d8             	mov    %rbx,%rax
  403f35:	48 89 c7             	mov    %rax,%rdi
  403f38:	e8 d3 f5 ff ff       	callq  403510 <_Unwind_Resume@plt>
  403f3d:	e8 ae f3 ff ff       	callq  4032f0 <__stack_chk_fail@plt>
  403f42:	48 8b 5d f8          	mov    -0x8(%rbp),%rbx
  403f46:	c9                   	leaveq 
  403f47:	c3                   	retq   

0000000000403f48 <_ZN2CK13measure_setupIZ4mainEUlvE_EEvOT_>:
  403f48:	55                   	push   %rbp
  403f49:	48 89 e5             	mov    %rsp,%rbp
  403f4c:	48 83 ec 10          	sub    $0x10,%rsp
  403f50:	48 89 7d f8          	mov    %rdi,-0x8(%rbp)
  403f54:	48 8b 45 f8          	mov    -0x8(%rbp),%rax
  403f58:	be 00 00 00 00       	mov    $0x0,%esi
  403f5d:	48 89 c7             	mov    %rax,%rdi
  403f60:	e8 49 00 00 00       	callq  403fae <_ZN2CK11do_measuredIRZ4mainEUlvE_EEvOT_i>
  403f65:	bf 00 00 00 00       	mov    $0x0,%edi
  403f6a:	e8 31 f6 ff ff       	callq  4035a0 <xopenme_get_timer@plt>
  403f6f:	f2 0f 5a c0          	cvtsd2ss %xmm0,%xmm0
  403f73:	e8 e3 f8 ff ff       	callq  40385b <_ZN2CK16store_setup_timeEf>
  403f78:	90                   	nop
  403f79:	c9                   	leaveq 
  403f7a:	c3                   	retq   

0000000000403f7b <_ZN2CK12measure_testIZ4mainEUlvE0_EEvOT_>:
  403f7b:	55                   	push   %rbp
  403f7c:	48 89 e5             	mov    %rsp,%rbp
  403f7f:	48 83 ec 10          	sub    $0x10,%rsp
  403f83:	48 89 7d f8          	mov    %rdi,-0x8(%rbp)
  403f87:	48 8b 45 f8          	mov    -0x8(%rbp),%rax
  403f8b:	be 01 00 00 00       	mov    $0x1,%esi
  403f90:	48 89 c7             	mov    %rax,%rdi
  403f93:	e8 48 00 00 00       	callq  403fe0 <_ZN2CK11do_measuredIRZ4mainEUlvE0_EEvOT_i>
  403f98:	bf 01 00 00 00       	mov    $0x1,%edi
  403f9d:	e8 fe f5 ff ff       	callq  4035a0 <xopenme_get_timer@plt>
  403fa2:	f2 0f 5a c0          	cvtsd2ss %xmm0,%xmm0
  403fa6:	e8 da f8 ff ff       	callq  403885 <_ZN2CK15store_test_timeEf>
  403fab:	90                   	nop
  403fac:	c9                   	leaveq 
  403fad:	c3                   	retq   

0000000000403fae <_ZN2CK11do_measuredIRZ4mainEUlvE_EEvOT_i>:
  403fae:	55                   	push   %rbp
  403faf:	48 89 e5             	mov    %rsp,%rbp
  403fb2:	48 83 ec 10          	sub    $0x10,%rsp
  403fb6:	48 89 7d f8          	mov    %rdi,-0x8(%rbp)
  403fba:	89 75 f4             	mov    %esi,-0xc(%rbp)
  403fbd:	8b 45 f4             	mov    -0xc(%rbp),%eax
  403fc0:	89 c7                	mov    %eax,%edi
  403fc2:	e8 59 f1 ff ff       	callq  403120 <xopenme_clock_start@plt>
  403fc7:	48 8b 45 f8          	mov    -0x8(%rbp),%rax
  403fcb:	48 89 c7             	mov    %rax,%rdi
  403fce:	e8 0f f9 ff ff       	callq  4038e2 <_ZZ4mainENKUlvE_clEv>
  403fd3:	8b 45 f4             	mov    -0xc(%rbp),%eax
  403fd6:	89 c7                	mov    %eax,%edi
  403fd8:	e8 e3 f3 ff ff       	callq  4033c0 <xopenme_clock_end@plt>
  403fdd:	90                   	nop
  403fde:	c9                   	leaveq 
  403fdf:	c3                   	retq   

0000000000403fe0 <_ZN2CK11do_measuredIRZ4mainEUlvE0_EEvOT_i>:
  403fe0:	55                   	push   %rbp
  403fe1:	48 89 e5             	mov    %rsp,%rbp
  403fe4:	48 83 ec 10          	sub    $0x10,%rsp
  403fe8:	48 89 7d f8          	mov    %rdi,-0x8(%rbp)
  403fec:	89 75 f4             	mov    %esi,-0xc(%rbp)
  403fef:	8b 45 f4             	mov    -0xc(%rbp),%eax
  403ff2:	89 c7                	mov    %eax,%edi
  403ff4:	e8 27 f1 ff ff       	callq  403120 <xopenme_clock_start@plt>
  403ff9:	48 8b 45 f8          	mov    -0x8(%rbp),%rax
  403ffd:	48 89 c7             	mov    %rax,%rdi
  404000:	e8 91 fb ff ff       	callq  403b96 <_ZZ4mainENKUlvE0_clEv>
  404005:	8b 45 f4             	mov    -0xc(%rbp),%eax
  404008:	89 c7                	mov    %eax,%edi
  40400a:	e8 b1 f3 ff ff       	callq  4033c0 <xopenme_clock_end@plt>
  40400f:	90                   	nop
  404010:	c9                   	leaveq 
  404011:	c3                   	retq   

0000000000404012 <_Z41__static_initialization_and_destruction_0ii>:
  404012:	55                   	push   %rbp
  404013:	48 89 e5             	mov    %rsp,%rbp
  404016:	48 83 ec 10          	sub    $0x10,%rsp
  40401a:	89 7d fc             	mov    %edi,-0x4(%rbp)
  40401d:	89 75 f8             	mov    %esi,-0x8(%rbp)
  404020:	83 7d fc 01          	cmpl   $0x1,-0x4(%rbp)
  404024:	0f 85 f3 00 00 00    	jne    40411d <_Z41__static_initialization_and_destruction_0ii+0x10b>
  40402a:	81 7d f8 ff ff 00 00 	cmpl   $0xffff,-0x8(%rbp)
  404031:	0f 85 e6 00 00 00    	jne    40411d <_Z41__static_initialization_and_destruction_0ii+0x10b>
  404037:	b8 58 26 61 00       	mov    $0x612658,%eax
  40403c:	0f b6 00             	movzbl (%rax),%eax
  40403f:	84 c0                	test   %al,%al
  404041:	75 26                	jne    404069 <_Z41__static_initialization_and_destruction_0ii+0x57>
  404043:	b8 58 26 61 00       	mov    $0x612658,%eax
  404048:	c6 00 01             	movb   $0x1,(%rax)
  40404b:	bf 10 26 61 00       	mov    $0x612610,%edi
  404050:	e8 bf 05 00 00       	callq  404614 <_ZN2cl6DeviceC1Ev>
  404055:	ba 90 22 61 00       	mov    $0x612290,%edx
  40405a:	be 10 26 61 00       	mov    $0x612610,%esi
  40405f:	bf 60 46 40 00       	mov    $0x404660,%edi
  404064:	e8 07 f2 ff ff       	callq  403270 <__cxa_atexit@plt>
  404069:	b8 60 26 61 00       	mov    $0x612660,%eax
  40406e:	0f b6 00             	movzbl (%rax),%eax
  404071:	84 c0                	test   %al,%al
  404073:	75 26                	jne    40409b <_Z41__static_initialization_and_destruction_0ii+0x89>
  404075:	b8 60 26 61 00       	mov    $0x612660,%eax
  40407a:	c6 00 01             	movb   $0x1,(%rax)
  40407d:	bf 28 26 61 00       	mov    $0x612628,%edi
  404082:	e8 17 09 00 00       	callq  40499e <_ZN2cl8PlatformC1Ev>
  404087:	ba 90 22 61 00       	mov    $0x612290,%edx
  40408c:	be 28 26 61 00       	mov    $0x612628,%esi
  404091:	bf 9a 47 40 00       	mov    $0x40479a,%edi
  404096:	e8 d5 f1 ff ff       	callq  403270 <__cxa_atexit@plt>
  40409b:	b8 68 26 61 00       	mov    $0x612668,%eax
  4040a0:	0f b6 00             	movzbl (%rax),%eax
  4040a3:	84 c0                	test   %al,%al
  4040a5:	75 26                	jne    4040cd <_Z41__static_initialization_and_destruction_0ii+0xbb>
  4040a7:	b8 68 26 61 00       	mov    $0x612668,%eax
  4040ac:	c6 00 01             	movb   $0x1,(%rax)
  4040af:	bf 38 26 61 00       	mov    $0x612638,%edi
  4040b4:	e8 d7 14 00 00       	callq  405590 <_ZN2cl7ContextC1Ev>
  4040b9:	ba 90 22 61 00       	mov    $0x612290,%edx
  4040be:	be 38 26 61 00       	mov    $0x612638,%esi
  4040c3:	bf 18 4f 40 00       	mov    $0x404f18,%edi
  4040c8:	e8 a3 f1 ff ff       	callq  403270 <__cxa_atexit@plt>
  4040cd:	bf 80 26 61 00       	mov    $0x612680,%edi
  4040d2:	e8 01 16 00 00       	callq  4056d8 <_ZN2cl7NDRangeC1Ev>
  4040d7:	b8 70 26 61 00       	mov    $0x612670,%eax
  4040dc:	0f b6 00             	movzbl (%rax),%eax
  4040df:	84 c0                	test   %al,%al
  4040e1:	75 26                	jne    404109 <_Z41__static_initialization_and_destruction_0ii+0xf7>
  4040e3:	b8 70 26 61 00       	mov    $0x612670,%eax
  4040e8:	c6 00 01             	movb   $0x1,(%rax)
  4040eb:	bf 48 26 61 00       	mov    $0x612648,%edi
  4040f0:	e8 f3 18 00 00       	callq  4059e8 <_ZN2cl12CommandQueueC1Ev>
  4040f5:	ba 90 22 61 00       	mov    $0x612290,%edx
  4040fa:	be 48 26 61 00       	mov    $0x612648,%esi
  4040ff:	bf 70 57 40 00       	mov    $0x405770,%edi
  404104:	e8 67 f1 ff ff       	callq  403270 <__cxa_atexit@plt>
  404109:	ba 01 00 00 00       	mov    $0x1,%edx
  40410e:	be 80 00 00 00       	mov    $0x80,%esi
  404113:	bf a0 26 61 00       	mov    $0x6126a0,%edi
  404118:	e8 f5 15 00 00       	callq  405712 <_ZN2cl7NDRangeC1Emm>
  40411d:	90                   	nop
  40411e:	c9                   	leaveq 
  40411f:	c3                   	retq   

0000000000404120 <_GLOBAL__sub_I__ZN2CK16store_setup_timeEf>:
  404120:	55                   	push   %rbp
  404121:	48 89 e5             	mov    %rsp,%rbp
  404124:	be ff ff 00 00       	mov    $0xffff,%esi
  404129:	bf 01 00 00 00       	mov    $0x1,%edi
  40412e:	e8 df fe ff ff       	callq  404012 <_Z41__static_initialization_and_destruction_0ii>
  404133:	5d                   	pop    %rbp
  404134:	c3                   	retq   
  404135:	90                   	nop

0000000000404136 <_ZNSt9exceptionC1Ev>:
  404136:	55                   	push   %rbp
  404137:	48 89 e5             	mov    %rsp,%rbp
  40413a:	48 89 7d f8          	mov    %rdi,-0x8(%rbp)
  40413e:	ba a0 24 61 00       	mov    $0x6124a0,%edx
  404143:	48 8b 45 f8          	mov    -0x8(%rbp),%rax
  404147:	48 89 10             	mov    %rdx,(%rax)
  40414a:	90                   	nop
  40414b:	5d                   	pop    %rbp
  40414c:	c3                   	retq   

000000000040414d <_ZnwmPv>:
  40414d:	55                   	push   %rbp
  40414e:	48 89 e5             	mov    %rsp,%rbp
  404151:	48 89 7d f8          	mov    %rdi,-0x8(%rbp)
  404155:	48 89 75 f0          	mov    %rsi,-0x10(%rbp)
  404159:	48 8b 45 f0          	mov    -0x10(%rbp),%rax
  40415d:	5d                   	pop    %rbp
  40415e:	c3                   	retq   

000000000040415f <_ZdlPvS_>:
  40415f:	55                   	push   %rbp
  404160:	48 89 e5             	mov    %rsp,%rbp
  404163:	48 89 7d f8          	mov    %rdi,-0x8(%rbp)
  404167:	48 89 75 f0          	mov    %rsi,-0x10(%rbp)
  40416b:	90                   	nop
  40416c:	5d                   	pop    %rbp
  40416d:	c3                   	retq   

000000000040416e <_ZN2cl5ErrorC1EiPKc>:
  40416e:	55                   	push   %rbp
  40416f:	48 89 e5             	mov    %rsp,%rbp
  404172:	48 83 ec 20          	sub    $0x20,%rsp
  404176:	48 89 7d f8          	mov    %rdi,-0x8(%rbp)
  40417a:	89 75 f4             	mov    %esi,-0xc(%rbp)
  40417d:	48 89 55 e8          	mov    %rdx,-0x18(%rbp)
  404181:	48 8b 45 f8          	mov    -0x8(%rbp),%rax
  404185:	48 89 c7             	mov    %rax,%rdi
  404188:	e8 a9 ff ff ff       	callq  404136 <_ZNSt9exceptionC1Ev>
  40418d:	ba 98 c4 40 00       	mov    $0x40c498,%edx
  404192:	48 8b 45 f8          	mov    -0x8(%rbp),%rax
  404196:	48 89 10             	mov    %rdx,(%rax)
  404199:	48 8b 45 f8          	mov    -0x8(%rbp),%rax
  40419d:	8b 55 f4             	mov    -0xc(%rbp),%edx
  4041a0:	89 50 08             	mov    %edx,0x8(%rax)
  4041a3:	48 8b 45 f8          	mov    -0x8(%rbp),%rax
  4041a7:	48 8b 55 e8          	mov    -0x18(%rbp),%rdx
  4041ab:	48 89 50 10          	mov    %rdx,0x10(%rax)
  4041af:	90                   	nop
  4041b0:	c9                   	leaveq 
  4041b1:	c3                   	retq   

00000000004041b2 <_ZN2cl5ErrorD1Ev>:
  4041b2:	55                   	push   %rbp
  4041b3:	48 89 e5             	mov    %rsp,%rbp
  4041b6:	48 83 ec 10          	sub    $0x10,%rsp
  4041ba:	48 89 7d f8          	mov    %rdi,-0x8(%rbp)
  4041be:	ba 98 c4 40 00       	mov    $0x40c498,%edx
  4041c3:	48 8b 45 f8          	mov    -0x8(%rbp),%rax
  4041c7:	48 89 10             	mov    %rdx,(%rax)
  4041ca:	48 8b 45 f8          	mov    -0x8(%rbp),%rax
  4041ce:	48 89 c7             	mov    %rax,%rdi
  4041d1:	e8 6a f3 ff ff       	callq  403540 <_ZNSt9exceptionD2Ev@plt>
  4041d6:	b8 00 00 00 00       	mov    $0x0,%eax
  4041db:	85 c0                	test   %eax,%eax
  4041dd:	74 0c                	je     4041eb <_ZN2cl5ErrorD1Ev+0x39>
  4041df:	48 8b 45 f8          	mov    -0x8(%rbp),%rax
  4041e3:	48 89 c7             	mov    %rax,%rdi
  4041e6:	e8 95 f0 ff ff       	callq  403280 <_ZdlPv@plt>
  4041eb:	c9                   	leaveq 
  4041ec:	c3                   	retq   
  4041ed:	90                   	nop

00000000004041ee <_ZN2cl5ErrorD0Ev>:
  4041ee:	55                   	push   %rbp
  4041ef:	48 89 e5             	mov    %rsp,%rbp
  4041f2:	48 83 ec 10          	sub    $0x10,%rsp
  4041f6:	48 89 7d f8          	mov    %rdi,-0x8(%rbp)
  4041fa:	48 8b 45 f8          	mov    -0x8(%rbp),%rax
  4041fe:	48 89 c7             	mov    %rax,%rdi
  404201:	e8 ac ff ff ff       	callq  4041b2 <_ZN2cl5ErrorD1Ev>
  404206:	48 8b 45 f8          	mov    -0x8(%rbp),%rax
  40420a:	48 89 c7             	mov    %rax,%rdi
  40420d:	e8 6e f0 ff ff       	callq  403280 <_ZdlPv@plt>
  404212:	c9                   	leaveq 
  404213:	c3                   	retq   

0000000000404214 <_ZNK2cl5Error4whatEv>:
  404214:	55                   	push   %rbp
  404215:	48 89 e5             	mov    %rsp,%rbp
  404218:	48 89 7d f8          	mov    %rdi,-0x8(%rbp)
  40421c:	48 8b 45 f8          	mov    -0x8(%rbp),%rax
  404220:	48 8b 40 10          	mov    0x10(%rax),%rax
  404224:	48 85 c0             	test   %rax,%rax
  404227:	75 07                	jne    404230 <_ZNK2cl5Error4whatEv+0x1c>
  404229:	b8 ee be 40 00       	mov    $0x40beee,%eax
  40422e:	eb 08                	jmp    404238 <_ZNK2cl5Error4whatEv+0x24>
  404230:	48 8b 45 f8          	mov    -0x8(%rbp),%rax
  404234:	48 8b 40 10          	mov    0x10(%rax),%rax
  404238:	5d                   	pop    %rbp
  404239:	c3                   	retq   

000000000040423a <_ZNK2cl5Error3errEv>:
  40423a:	55                   	push   %rbp
  40423b:	48 89 e5             	mov    %rsp,%rbp
  40423e:	48 89 7d f8          	mov    %rdi,-0x8(%rbp)
  404242:	48 8b 45 f8          	mov    -0x8(%rbp),%rax
  404246:	8b 40 08             	mov    0x8(%rax),%eax
  404249:	5d                   	pop    %rbp
  40424a:	c3                   	retq   
  40424b:	90                   	nop

000000000040424c <_ZNSt9exceptionC1ERKS_>:
  40424c:	55                   	push   %rbp
  40424d:	48 89 e5             	mov    %rsp,%rbp
  404250:	48 89 7d f8          	mov    %rdi,-0x8(%rbp)
  404254:	48 89 75 f0          	mov    %rsi,-0x10(%rbp)
  404258:	ba a0 24 61 00       	mov    $0x6124a0,%edx
  40425d:	48 8b 45 f8          	mov    -0x8(%rbp),%rax
  404261:	48 89 10             	mov    %rdx,(%rax)
  404264:	90                   	nop
  404265:	5d                   	pop    %rbp
  404266:	c3                   	retq   
  404267:	90                   	nop

0000000000404268 <_ZN2cl5ErrorC1ERKS0_>:
  404268:	55                   	push   %rbp
  404269:	48 89 e5             	mov    %rsp,%rbp
  40426c:	48 83 ec 10          	sub    $0x10,%rsp
  404270:	48 89 7d f8          	mov    %rdi,-0x8(%rbp)
  404274:	48 89 75 f0          	mov    %rsi,-0x10(%rbp)
  404278:	48 8b 55 f0          	mov    -0x10(%rbp),%rdx
  40427c:	48 8b 45 f8          	mov    -0x8(%rbp),%rax
  404280:	48 89 d6             	mov    %rdx,%rsi
  404283:	48 89 c7             	mov    %rax,%rdi
  404286:	e8 c1 ff ff ff       	callq  40424c <_ZNSt9exceptionC1ERKS_>
  40428b:	ba 98 c4 40 00       	mov    $0x40c498,%edx
  404290:	48 8b 45 f8          	mov    -0x8(%rbp),%rax
  404294:	48 89 10             	mov    %rdx,(%rax)
  404297:	48 8b 45 f0          	mov    -0x10(%rbp),%rax
  40429b:	8b 50 08             	mov    0x8(%rax),%edx
  40429e:	48 8b 45 f8          	mov    -0x8(%rbp),%rax
  4042a2:	89 50 08             	mov    %edx,0x8(%rax)
  4042a5:	48 8b 45 f0          	mov    -0x10(%rbp),%rax
  4042a9:	48 8b 50 10          	mov    0x10(%rax),%rdx
  4042ad:	48 8b 45 f8          	mov    -0x8(%rbp),%rax
  4042b1:	48 89 50 10          	mov    %rdx,0x10(%rax)
  4042b5:	90                   	nop
  4042b6:	c9                   	leaveq 
  4042b7:	c3                   	retq   

00000000004042b8 <_ZN2cl6detail16ReferenceHandlerIP13_cl_device_idE6retainES3_>:
  4042b8:	55                   	push   %rbp
  4042b9:	48 89 e5             	mov    %rsp,%rbp
  4042bc:	48 89 7d f8          	mov    %rdi,-0x8(%rbp)
  4042c0:	b8 00 00 00 00       	mov    $0x0,%eax
  4042c5:	5d                   	pop    %rbp
  4042c6:	c3                   	retq   

00000000004042c7 <_ZN2cl6detail16ReferenceHandlerIP13_cl_device_idE7releaseES3_>:
  4042c7:	55                   	push   %rbp
  4042c8:	48 89 e5             	mov    %rsp,%rbp
  4042cb:	48 89 7d f8          	mov    %rdi,-0x8(%rbp)
  4042cf:	b8 00 00 00 00       	mov    $0x0,%eax
  4042d4:	5d                   	pop    %rbp
  4042d5:	c3                   	retq   

00000000004042d6 <_ZN2cl6detail16ReferenceHandlerIP15_cl_platform_idE6retainES3_>:
  4042d6:	55                   	push   %rbp
  4042d7:	48 89 e5             	mov    %rsp,%rbp
  4042da:	48 89 7d f8          	mov    %rdi,-0x8(%rbp)
  4042de:	b8 00 00 00 00       	mov    $0x0,%eax
  4042e3:	5d                   	pop    %rbp
  4042e4:	c3                   	retq   

00000000004042e5 <_ZN2cl6detail16ReferenceHandlerIP15_cl_platform_idE7releaseES3_>:
  4042e5:	55                   	push   %rbp
  4042e6:	48 89 e5             	mov    %rsp,%rbp
  4042e9:	48 89 7d f8          	mov    %rdi,-0x8(%rbp)
  4042ed:	b8 00 00 00 00       	mov    $0x0,%eax
  4042f2:	5d                   	pop    %rbp
  4042f3:	c3                   	retq   

00000000004042f4 <_ZN2cl6detail16ReferenceHandlerIP11_cl_contextE6retainES3_>:
  4042f4:	55                   	push   %rbp
  4042f5:	48 89 e5             	mov    %rsp,%rbp
  4042f8:	48 83 ec 10          	sub    $0x10,%rsp
  4042fc:	48 89 7d f8          	mov    %rdi,-0x8(%rbp)
  404300:	48 8b 45 f8          	mov    -0x8(%rbp),%rax
  404304:	48 89 c7             	mov    %rax,%rdi
  404307:	e8 c4 f1 ff ff       	callq  4034d0 <clRetainContext@plt>
  40430c:	c9                   	leaveq 
  40430d:	c3                   	retq   

000000000040430e <_ZN2cl6detail16ReferenceHandlerIP11_cl_contextE7releaseES3_>:
  40430e:	55                   	push   %rbp
  40430f:	48 89 e5             	mov    %rsp,%rbp
  404312:	48 83 ec 10          	sub    $0x10,%rsp
  404316:	48 89 7d f8          	mov    %rdi,-0x8(%rbp)
  40431a:	48 8b 45 f8          	mov    -0x8(%rbp),%rax
  40431e:	48 89 c7             	mov    %rax,%rdi
  404321:	e8 ea ee ff ff       	callq  403210 <clReleaseContext@plt>
  404326:	c9                   	leaveq 
  404327:	c3                   	retq   

0000000000404328 <_ZN2cl6detail16ReferenceHandlerIP17_cl_command_queueE6retainES3_>:
  404328:	55                   	push   %rbp
  404329:	48 89 e5             	mov    %rsp,%rbp
  40432c:	48 83 ec 10          	sub    $0x10,%rsp
  404330:	48 89 7d f8          	mov    %rdi,-0x8(%rbp)
  404334:	48 8b 45 f8          	mov    -0x8(%rbp),%rax
  404338:	48 89 c7             	mov    %rax,%rdi
  40433b:	e8 90 ee ff ff       	callq  4031d0 <clRetainCommandQueue@plt>
  404340:	c9                   	leaveq 
  404341:	c3                   	retq   

0000000000404342 <_ZN2cl6detail16ReferenceHandlerIP17_cl_command_queueE7releaseES3_>:
  404342:	55                   	push   %rbp
  404343:	48 89 e5             	mov    %rsp,%rbp
  404346:	48 83 ec 10          	sub    $0x10,%rsp
  40434a:	48 89 7d f8          	mov    %rdi,-0x8(%rbp)
  40434e:	48 8b 45 f8          	mov    -0x8(%rbp),%rax
  404352:	48 89 c7             	mov    %rax,%rdi
  404355:	e8 36 f0 ff ff       	callq  403390 <clReleaseCommandQueue@plt>
  40435a:	c9                   	leaveq 
  40435b:	c3                   	retq   

000000000040435c <_ZN2cl6detail16ReferenceHandlerIP10_cl_kernelE7releaseES3_>:
  40435c:	55                   	push   %rbp
  40435d:	48 89 e5             	mov    %rsp,%rbp
  404360:	48 83 ec 10          	sub    $0x10,%rsp
  404364:	48 89 7d f8          	mov    %rdi,-0x8(%rbp)
  404368:	48 8b 45 f8          	mov    -0x8(%rbp),%rax
  40436c:	48 89 c7             	mov    %rax,%rdi
  40436f:	e8 dc f1 ff ff       	callq  403550 <clReleaseKernel@plt>
  404374:	c9                   	leaveq 
  404375:	c3                   	retq   

0000000000404376 <_ZN2cl6detail7WrapperIP13_cl_device_idE20isReferenceCountableES3_>:
  404376:	55                   	push   %rbp
  404377:	48 89 e5             	mov    %rsp,%rbp
  40437a:	48 89 7d e8          	mov    %rdi,-0x18(%rbp)
  40437e:	c6 45 ff 00          	movb   $0x0,-0x1(%rbp)
  404382:	0f b6 45 ff          	movzbl -0x1(%rbp),%eax
  404386:	5d                   	pop    %rbp
  404387:	c3                   	retq   

0000000000404388 <_ZN2cl6detail7WrapperIP13_cl_device_idEC1Ev>:
  404388:	55                   	push   %rbp
  404389:	48 89 e5             	mov    %rsp,%rbp
  40438c:	48 89 7d f8          	mov    %rdi,-0x8(%rbp)
  404390:	48 8b 45 f8          	mov    -0x8(%rbp),%rax
  404394:	48 c7 00 00 00 00 00 	movq   $0x0,(%rax)
  40439b:	48 8b 45 f8          	mov    -0x8(%rbp),%rax
  40439f:	c6 40 08 00          	movb   $0x0,0x8(%rax)
  4043a3:	90                   	nop
  4043a4:	5d                   	pop    %rbp
  4043a5:	c3                   	retq   

00000000004043a6 <_ZN2cl6detail7WrapperIP13_cl_device_idEC1ERKS3_b>:
  4043a6:	55                   	push   %rbp
  4043a7:	48 89 e5             	mov    %rsp,%rbp
  4043aa:	48 83 ec 20          	sub    $0x20,%rsp
  4043ae:	48 89 7d f8          	mov    %rdi,-0x8(%rbp)
  4043b2:	48 89 75 f0          	mov    %rsi,-0x10(%rbp)
  4043b6:	89 d0                	mov    %edx,%eax
  4043b8:	88 45 ec             	mov    %al,-0x14(%rbp)
  4043bb:	48 8b 45 f0          	mov    -0x10(%rbp),%rax
  4043bf:	48 8b 10             	mov    (%rax),%rdx
  4043c2:	48 8b 45 f8          	mov    -0x8(%rbp),%rax
  4043c6:	48 89 10             	mov    %rdx,(%rax)
  4043c9:	48 8b 45 f8          	mov    -0x8(%rbp),%rax
  4043cd:	c6 40 08 00          	movb   $0x0,0x8(%rax)
  4043d1:	48 8b 45 f0          	mov    -0x10(%rbp),%rax
  4043d5:	48 8b 00             	mov    (%rax),%rax
  4043d8:	48 89 c7             	mov    %rax,%rdi
  4043db:	e8 96 ff ff ff       	callq  404376 <_ZN2cl6detail7WrapperIP13_cl_device_idE20isReferenceCountableES3_>
  4043e0:	89 c2                	mov    %eax,%edx
  4043e2:	48 8b 45 f8          	mov    -0x8(%rbp),%rax
  4043e6:	88 50 08             	mov    %dl,0x8(%rax)
  4043e9:	80 7d ec 00          	cmpb   $0x0,-0x14(%rbp)
  4043ed:	74 18                	je     404407 <_ZN2cl6detail7WrapperIP13_cl_device_idEC1ERKS3_b+0x61>
  4043ef:	48 8b 45 f8          	mov    -0x8(%rbp),%rax
  4043f3:	48 89 c7             	mov    %rax,%rdi
  4043f6:	e8 a1 01 00 00       	callq  40459c <_ZNK2cl6detail7WrapperIP13_cl_device_idE6retainEv>
  4043fb:	be f4 be 40 00       	mov    $0x40bef4,%esi
  404400:	89 c7                	mov    %eax,%edi
  404402:	e8 ff f2 ff ff       	callq  403706 <_ZN2cl6detailL10errHandlerEiPKc>
  404407:	90                   	nop
  404408:	c9                   	leaveq 
  404409:	c3                   	retq   

000000000040440a <_ZN2cl6detail7WrapperIP13_cl_device_idED1Ev>:
  40440a:	55                   	push   %rbp
  40440b:	48 89 e5             	mov    %rsp,%rbp
  40440e:	48 83 ec 10          	sub    $0x10,%rsp
  404412:	48 89 7d f8          	mov    %rdi,-0x8(%rbp)
  404416:	48 8b 45 f8          	mov    -0x8(%rbp),%rax
  40441a:	48 89 c7             	mov    %rax,%rdi
  40441d:	e8 b6 01 00 00       	callq  4045d8 <_ZNK2cl6detail7WrapperIP13_cl_device_idE7releaseEv>
  404422:	90                   	nop
  404423:	c9                   	leaveq 
  404424:	c3                   	retq   
  404425:	90                   	nop

0000000000404426 <_ZN2cl6detail7WrapperIP13_cl_device_idEC1ERKS4_>:
  404426:	55                   	push   %rbp
  404427:	48 89 e5             	mov    %rsp,%rbp
  40442a:	48 83 ec 10          	sub    $0x10,%rsp
  40442e:	48 89 7d f8          	mov    %rdi,-0x8(%rbp)
  404432:	48 89 75 f0          	mov    %rsi,-0x10(%rbp)
  404436:	48 8b 45 f0          	mov    -0x10(%rbp),%rax
  40443a:	48 8b 10             	mov    (%rax),%rdx
  40443d:	48 8b 45 f8          	mov    -0x8(%rbp),%rax
  404441:	48 89 10             	mov    %rdx,(%rax)
  404444:	48 8b 45 f8          	mov    -0x8(%rbp),%rax
  404448:	48 8b 00             	mov    (%rax),%rax
  40444b:	48 89 c7             	mov    %rax,%rdi
  40444e:	e8 23 ff ff ff       	callq  404376 <_ZN2cl6detail7WrapperIP13_cl_device_idE20isReferenceCountableES3_>
  404453:	89 c2                	mov    %eax,%edx
  404455:	48 8b 45 f8          	mov    -0x8(%rbp),%rax
  404459:	88 50 08             	mov    %dl,0x8(%rax)
  40445c:	48 8b 45 f8          	mov    -0x8(%rbp),%rax
  404460:	48 89 c7             	mov    %rax,%rdi
  404463:	e8 34 01 00 00       	callq  40459c <_ZNK2cl6detail7WrapperIP13_cl_device_idE6retainEv>
  404468:	be f4 be 40 00       	mov    $0x40bef4,%esi
  40446d:	89 c7                	mov    %eax,%edi
  40446f:	e8 92 f2 ff ff       	callq  403706 <_ZN2cl6detailL10errHandlerEiPKc>
  404474:	90                   	nop
  404475:	c9                   	leaveq 
  404476:	c3                   	retq   
  404477:	90                   	nop

0000000000404478 <_ZN2cl6detail7WrapperIP13_cl_device_idEC1EOS4_>:
  404478:	55                   	push   %rbp
  404479:	48 89 e5             	mov    %rsp,%rbp
  40447c:	48 89 7d f8          	mov    %rdi,-0x8(%rbp)
  404480:	48 89 75 f0          	mov    %rsi,-0x10(%rbp)
  404484:	48 8b 45 f0          	mov    -0x10(%rbp),%rax
  404488:	48 8b 10             	mov    (%rax),%rdx
  40448b:	48 8b 45 f8          	mov    -0x8(%rbp),%rax
  40448f:	48 89 10             	mov    %rdx,(%rax)
  404492:	48 8b 45 f0          	mov    -0x10(%rbp),%rax
  404496:	0f b6 50 08          	movzbl 0x8(%rax),%edx
  40449a:	48 8b 45 f8          	mov    -0x8(%rbp),%rax
  40449e:	88 50 08             	mov    %dl,0x8(%rax)
  4044a1:	48 8b 45 f0          	mov    -0x10(%rbp),%rax
  4044a5:	48 c7 00 00 00 00 00 	movq   $0x0,(%rax)
  4044ac:	48 8b 45 f0          	mov    -0x10(%rbp),%rax
  4044b0:	c6 40 08 00          	movb   $0x0,0x8(%rax)
  4044b4:	90                   	nop
  4044b5:	5d                   	pop    %rbp
  4044b6:	c3                   	retq   
  4044b7:	90                   	nop

00000000004044b8 <_ZN2cl6detail7WrapperIP13_cl_device_idEaSERKS4_>:
  4044b8:	55                   	push   %rbp
  4044b9:	48 89 e5             	mov    %rsp,%rbp
  4044bc:	48 83 ec 10          	sub    $0x10,%rsp
  4044c0:	48 89 7d f8          	mov    %rdi,-0x8(%rbp)
  4044c4:	48 89 75 f0          	mov    %rsi,-0x10(%rbp)
  4044c8:	48 8b 45 f8          	mov    -0x8(%rbp),%rax
  4044cc:	48 3b 45 f0          	cmp    -0x10(%rbp),%rax
  4044d0:	74 4d                	je     40451f <_ZN2cl6detail7WrapperIP13_cl_device_idEaSERKS4_+0x67>
  4044d2:	48 8b 45 f8          	mov    -0x8(%rbp),%rax
  4044d6:	48 89 c7             	mov    %rax,%rdi
  4044d9:	e8 fa 00 00 00       	callq  4045d8 <_ZNK2cl6detail7WrapperIP13_cl_device_idE7releaseEv>
  4044de:	be 02 bf 40 00       	mov    $0x40bf02,%esi
  4044e3:	89 c7                	mov    %eax,%edi
  4044e5:	e8 1c f2 ff ff       	callq  403706 <_ZN2cl6detailL10errHandlerEiPKc>
  4044ea:	48 8b 45 f0          	mov    -0x10(%rbp),%rax
  4044ee:	48 8b 10             	mov    (%rax),%rdx
  4044f1:	48 8b 45 f8          	mov    -0x8(%rbp),%rax
  4044f5:	48 89 10             	mov    %rdx,(%rax)
  4044f8:	48 8b 45 f0          	mov    -0x10(%rbp),%rax
  4044fc:	0f b6 50 08          	movzbl 0x8(%rax),%edx
  404500:	48 8b 45 f8          	mov    -0x8(%rbp),%rax
  404504:	88 50 08             	mov    %dl,0x8(%rax)
  404507:	48 8b 45 f8          	mov    -0x8(%rbp),%rax
  40450b:	48 89 c7             	mov    %rax,%rdi
  40450e:	e8 89 00 00 00       	callq  40459c <_ZNK2cl6detail7WrapperIP13_cl_device_idE6retainEv>
  404513:	be f4 be 40 00       	mov    $0x40bef4,%esi
  404518:	89 c7                	mov    %eax,%edi
  40451a:	e8 e7 f1 ff ff       	callq  403706 <_ZN2cl6detailL10errHandlerEiPKc>
  40451f:	48 8b 45 f8          	mov    -0x8(%rbp),%rax
  404523:	c9                   	leaveq 
  404524:	c3                   	retq   
  404525:	90                   	nop

0000000000404526 <_ZN2cl6detail7WrapperIP13_cl_device_idEaSEOS4_>:
  404526:	55                   	push   %rbp
  404527:	48 89 e5             	mov    %rsp,%rbp
  40452a:	48 83 ec 10          	sub    $0x10,%rsp
  40452e:	48 89 7d f8          	mov    %rdi,-0x8(%rbp)
  404532:	48 89 75 f0          	mov    %rsi,-0x10(%rbp)
  404536:	48 8b 45 f8          	mov    -0x8(%rbp),%rax
  40453a:	48 3b 45 f0          	cmp    -0x10(%rbp),%rax
  40453e:	74 48                	je     404588 <_ZN2cl6detail7WrapperIP13_cl_device_idEaSEOS4_+0x62>
  404540:	48 8b 45 f8          	mov    -0x8(%rbp),%rax
  404544:	48 89 c7             	mov    %rax,%rdi
  404547:	e8 8c 00 00 00       	callq  4045d8 <_ZNK2cl6detail7WrapperIP13_cl_device_idE7releaseEv>
  40454c:	be 02 bf 40 00       	mov    $0x40bf02,%esi
  404551:	89 c7                	mov    %eax,%edi
  404553:	e8 ae f1 ff ff       	callq  403706 <_ZN2cl6detailL10errHandlerEiPKc>
  404558:	48 8b 45 f0          	mov    -0x10(%rbp),%rax
  40455c:	48 8b 10             	mov    (%rax),%rdx
  40455f:	48 8b 45 f8          	mov    -0x8(%rbp),%rax
  404563:	48 89 10             	mov    %rdx,(%rax)
  404566:	48 8b 45 f0          	mov    -0x10(%rbp),%rax
  40456a:	0f b6 50 08          	movzbl 0x8(%rax),%edx
  40456e:	48 8b 45 f8          	mov    -0x8(%rbp),%rax
  404572:	88 50 08             	mov    %dl,0x8(%rax)
  404575:	48 8b 45 f0          	mov    -0x10(%rbp),%rax
  404579:	48 c7 00 00 00 00 00 	movq   $0x0,(%rax)
  404580:	48 8b 45 f0          	mov    -0x10(%rbp),%rax
  404584:	c6 40 08 00          	movb   $0x0,0x8(%rax)
  404588:	48 8b 45 f8          	mov    -0x8(%rbp),%rax
  40458c:	c9                   	leaveq 
  40458d:	c3                   	retq   

000000000040458e <_ZNK2cl6detail7WrapperIP13_cl_device_idEclEv>:
  40458e:	55                   	push   %rbp
  40458f:	48 89 e5             	mov    %rsp,%rbp
  404592:	48 89 7d f8          	mov    %rdi,-0x8(%rbp)
  404596:	48 8b 45 f8          	mov    -0x8(%rbp),%rax
  40459a:	5d                   	pop    %rbp
  40459b:	c3                   	retq   

000000000040459c <_ZNK2cl6detail7WrapperIP13_cl_device_idE6retainEv>:
  40459c:	55                   	push   %rbp
  40459d:	48 89 e5             	mov    %rsp,%rbp
  4045a0:	48 83 ec 10          	sub    $0x10,%rsp
  4045a4:	48 89 7d f8          	mov    %rdi,-0x8(%rbp)
  4045a8:	48 8b 45 f8          	mov    -0x8(%rbp),%rax
  4045ac:	48 8b 00             	mov    (%rax),%rax
  4045af:	48 85 c0             	test   %rax,%rax
  4045b2:	74 1d                	je     4045d1 <_ZNK2cl6detail7WrapperIP13_cl_device_idE6retainEv+0x35>
  4045b4:	48 8b 45 f8          	mov    -0x8(%rbp),%rax
  4045b8:	0f b6 40 08          	movzbl 0x8(%rax),%eax
  4045bc:	84 c0                	test   %al,%al
  4045be:	74 11                	je     4045d1 <_ZNK2cl6detail7WrapperIP13_cl_device_idE6retainEv+0x35>
  4045c0:	48 8b 45 f8          	mov    -0x8(%rbp),%rax
  4045c4:	48 8b 00             	mov    (%rax),%rax
  4045c7:	48 89 c7             	mov    %rax,%rdi
  4045ca:	e8 e9 fc ff ff       	callq  4042b8 <_ZN2cl6detail16ReferenceHandlerIP13_cl_device_idE6retainES3_>
  4045cf:	eb 05                	jmp    4045d6 <_ZNK2cl6detail7WrapperIP13_cl_device_idE6retainEv+0x3a>
  4045d1:	b8 00 00 00 00       	mov    $0x0,%eax
  4045d6:	c9                   	leaveq 
  4045d7:	c3                   	retq   

00000000004045d8 <_ZNK2cl6detail7WrapperIP13_cl_device_idE7releaseEv>:
  4045d8:	55                   	push   %rbp
  4045d9:	48 89 e5             	mov    %rsp,%rbp
  4045dc:	48 83 ec 10          	sub    $0x10,%rsp
  4045e0:	48 89 7d f8          	mov    %rdi,-0x8(%rbp)
  4045e4:	48 8b 45 f8          	mov    -0x8(%rbp),%rax
  4045e8:	48 8b 00             	mov    (%rax),%rax
  4045eb:	48 85 c0             	test   %rax,%rax
  4045ee:	74 1d                	je     40460d <_ZNK2cl6detail7WrapperIP13_cl_device_idE7releaseEv+0x35>
  4045f0:	48 8b 45 f8          	mov    -0x8(%rbp),%rax
  4045f4:	0f b6 40 08          	movzbl 0x8(%rax),%eax
  4045f8:	84 c0                	test   %al,%al
  4045fa:	74 11                	je     40460d <_ZNK2cl6detail7WrapperIP13_cl_device_idE7releaseEv+0x35>
  4045fc:	48 8b 45 f8          	mov    -0x8(%rbp),%rax
  404600:	48 8b 00             	mov    (%rax),%rax
  404603:	48 89 c7             	mov    %rax,%rdi
  404606:	e8 bc fc ff ff       	callq  4042c7 <_ZN2cl6detail16ReferenceHandlerIP13_cl_device_idE7releaseES3_>
  40460b:	eb 05                	jmp    404612 <_ZNK2cl6detail7WrapperIP13_cl_device_idE7releaseEv+0x3a>
  40460d:	b8 00 00 00 00       	mov    $0x0,%eax
  404612:	c9                   	leaveq 
  404613:	c3                   	retq   

0000000000404614 <_ZN2cl6DeviceC1Ev>:
  404614:	55                   	push   %rbp
  404615:	48 89 e5             	mov    %rsp,%rbp
  404618:	48 83 ec 10          	sub    $0x10,%rsp
  40461c:	48 89 7d f8          	mov    %rdi,-0x8(%rbp)
  404620:	48 8b 45 f8          	mov    -0x8(%rbp),%rax
  404624:	48 89 c7             	mov    %rax,%rdi
  404627:	e8 5c fd ff ff       	callq  404388 <_ZN2cl6detail7WrapperIP13_cl_device_idEC1Ev>
  40462c:	90                   	nop
  40462d:	c9                   	leaveq 
  40462e:	c3                   	retq   
  40462f:	90                   	nop

0000000000404630 <_ZN2cl6DeviceC1ERKP13_cl_device_idb>:
  404630:	55                   	push   %rbp
  404631:	48 89 e5             	mov    %rsp,%rbp
  404634:	48 83 ec 20          	sub    $0x20,%rsp
  404638:	48 89 7d f8          	mov    %rdi,-0x8(%rbp)
  40463c:	48 89 75 f0          	mov    %rsi,-0x10(%rbp)
  404640:	89 d0                	mov    %edx,%eax
  404642:	88 45 ec             	mov    %al,-0x14(%rbp)
  404645:	0f b6 55 ec          	movzbl -0x14(%rbp),%edx
  404649:	48 8b 45 f8          	mov    -0x8(%rbp),%rax
  40464d:	48 8b 4d f0          	mov    -0x10(%rbp),%rcx
  404651:	48 89 ce             	mov    %rcx,%rsi
  404654:	48 89 c7             	mov    %rax,%rdi
  404657:	e8 4a fd ff ff       	callq  4043a6 <_ZN2cl6detail7WrapperIP13_cl_device_idEC1ERKS3_b>
  40465c:	90                   	nop
  40465d:	c9                   	leaveq 
  40465e:	c3                   	retq   
  40465f:	90                   	nop

0000000000404660 <_ZN2cl6DeviceD1Ev>:
  404660:	55                   	push   %rbp
  404661:	48 89 e5             	mov    %rsp,%rbp
  404664:	48 83 ec 10          	sub    $0x10,%rsp
  404668:	48 89 7d f8          	mov    %rdi,-0x8(%rbp)
  40466c:	48 8b 45 f8          	mov    -0x8(%rbp),%rax
  404670:	48 89 c7             	mov    %rax,%rdi
  404673:	e8 92 fd ff ff       	callq  40440a <_ZN2cl6detail7WrapperIP13_cl_device_idED1Ev>
  404678:	90                   	nop
  404679:	c9                   	leaveq 
  40467a:	c3                   	retq   

000000000040467b <_ZN2cl6Device10getDefaultEPi>:
  40467b:	55                   	push   %rbp
  40467c:	48 89 e5             	mov    %rsp,%rbp
  40467f:	48 83 ec 10          	sub    $0x10,%rsp
  404683:	48 89 7d f8          	mov    %rdi,-0x8(%rbp)
  404687:	48 89 75 f0          	mov    %rsi,-0x10(%rbp)
  40468b:	be ac 55 40 00       	mov    $0x4055ac,%esi
  404690:	bf 00 26 61 00       	mov    $0x612600,%edi
  404695:	e8 17 28 00 00       	callq  406eb1 <_ZSt9call_onceIRFvvEIEEvRSt9once_flagOT_DpOT0_>
  40469a:	8b 05 80 df 20 00    	mov    0x20df80(%rip),%eax        # 612620 <_ZN2cl6Device14default_error_E>
  4046a0:	be 00 00 00 00       	mov    $0x0,%esi
  4046a5:	89 c7                	mov    %eax,%edi
  4046a7:	e8 5a f0 ff ff       	callq  403706 <_ZN2cl6detailL10errHandlerEiPKc>
  4046ac:	48 83 7d f0 00       	cmpq   $0x0,-0x10(%rbp)
  4046b1:	74 0c                	je     4046bf <_ZN2cl6Device10getDefaultEPi+0x44>
  4046b3:	8b 15 67 df 20 00    	mov    0x20df67(%rip),%edx        # 612620 <_ZN2cl6Device14default_error_E>
  4046b9:	48 8b 45 f0          	mov    -0x10(%rbp),%rax
  4046bd:	89 10                	mov    %edx,(%rax)
  4046bf:	48 8b 45 f8          	mov    -0x8(%rbp),%rax
  4046c3:	be 10 26 61 00       	mov    $0x612610,%esi
  4046c8:	48 89 c7             	mov    %rax,%rdi
  4046cb:	e8 06 00 00 00       	callq  4046d6 <_ZN2cl6DeviceC1ERKS0_>
  4046d0:	48 8b 45 f8          	mov    -0x8(%rbp),%rax
  4046d4:	c9                   	leaveq 
  4046d5:	c3                   	retq   

00000000004046d6 <_ZN2cl6DeviceC1ERKS0_>:
  4046d6:	55                   	push   %rbp
  4046d7:	48 89 e5             	mov    %rsp,%rbp
  4046da:	48 83 ec 10          	sub    $0x10,%rsp
  4046de:	48 89 7d f8          	mov    %rdi,-0x8(%rbp)
  4046e2:	48 89 75 f0          	mov    %rsi,-0x10(%rbp)
  4046e6:	48 8b 55 f0          	mov    -0x10(%rbp),%rdx
  4046ea:	48 8b 45 f8          	mov    -0x8(%rbp),%rax
  4046ee:	48 89 d6             	mov    %rdx,%rsi
  4046f1:	48 89 c7             	mov    %rax,%rdi
  4046f4:	e8 2d fd ff ff       	callq  404426 <_ZN2cl6detail7WrapperIP13_cl_device_idEC1ERKS4_>
  4046f9:	90                   	nop
  4046fa:	c9                   	leaveq 
  4046fb:	c3                   	retq   

00000000004046fc <_ZN2cl6DeviceaSERKS0_>:
  4046fc:	55                   	push   %rbp
  4046fd:	48 89 e5             	mov    %rsp,%rbp
  404700:	48 83 ec 10          	sub    $0x10,%rsp
  404704:	48 89 7d f8          	mov    %rdi,-0x8(%rbp)
  404708:	48 89 75 f0          	mov    %rsi,-0x10(%rbp)
  40470c:	48 8b 55 f0          	mov    -0x10(%rbp),%rdx
  404710:	48 8b 45 f8          	mov    -0x8(%rbp),%rax
  404714:	48 89 d6             	mov    %rdx,%rsi
  404717:	48 89 c7             	mov    %rax,%rdi
  40471a:	e8 99 fd ff ff       	callq  4044b8 <_ZN2cl6detail7WrapperIP13_cl_device_idEaSERKS4_>
  40471f:	48 8b 45 f8          	mov    -0x8(%rbp),%rax
  404723:	c9                   	leaveq 
  404724:	c3                   	retq   

0000000000404725 <_ZSt4moveIRN2cl6DeviceEEONSt16remove_referenceIT_E4typeEOS4_>:
  404725:	55                   	push   %rbp
  404726:	48 89 e5             	mov    %rsp,%rbp
  404729:	48 89 7d f8          	mov    %rdi,-0x8(%rbp)
  40472d:	48 8b 45 f8          	mov    -0x8(%rbp),%rax
  404731:	5d                   	pop    %rbp
  404732:	c3                   	retq   
  404733:	90                   	nop

0000000000404734 <_ZN2cl6DeviceC1EOS0_>:
  404734:	55                   	push   %rbp
  404735:	48 89 e5             	mov    %rsp,%rbp
  404738:	48 83 ec 10          	sub    $0x10,%rsp
  40473c:	48 89 7d f8          	mov    %rdi,-0x8(%rbp)
  404740:	48 89 75 f0          	mov    %rsi,-0x10(%rbp)
  404744:	48 8b 45 f0          	mov    -0x10(%rbp),%rax
  404748:	48 89 c7             	mov    %rax,%rdi
  40474b:	e8 d5 ff ff ff       	callq  404725 <_ZSt4moveIRN2cl6DeviceEEONSt16remove_referenceIT_E4typeEOS4_>
  404750:	48 89 c2             	mov    %rax,%rdx
  404753:	48 8b 45 f8          	mov    -0x8(%rbp),%rax
  404757:	48 89 d6             	mov    %rdx,%rsi
  40475a:	48 89 c7             	mov    %rax,%rdi
  40475d:	e8 16 fd ff ff       	callq  404478 <_ZN2cl6detail7WrapperIP13_cl_device_idEC1EOS4_>
  404762:	90                   	nop
  404763:	c9                   	leaveq 
  404764:	c3                   	retq   
  404765:	90                   	nop

0000000000404766 <_ZN2cl6DeviceaSEOS0_>:
  404766:	55                   	push   %rbp
  404767:	48 89 e5             	mov    %rsp,%rbp
  40476a:	48 83 ec 10          	sub    $0x10,%rsp
  40476e:	48 89 7d f8          	mov    %rdi,-0x8(%rbp)
  404772:	48 89 75 f0          	mov    %rsi,-0x10(%rbp)
  404776:	48 8b 45 f0          	mov    -0x10(%rbp),%rax
  40477a:	48 89 c7             	mov    %rax,%rdi
  40477d:	e8 a3 ff ff ff       	callq  404725 <_ZSt4moveIRN2cl6DeviceEEONSt16remove_referenceIT_E4typeEOS4_>
  404782:	48 89 c2             	mov    %rax,%rdx
  404785:	48 8b 45 f8          	mov    -0x8(%rbp),%rax
  404789:	48 89 d6             	mov    %rdx,%rsi
  40478c:	48 89 c7             	mov    %rax,%rdi
  40478f:	e8 92 fd ff ff       	callq  404526 <_ZN2cl6detail7WrapperIP13_cl_device_idEaSEOS4_>
  404794:	48 8b 45 f8          	mov    -0x8(%rbp),%rax
  404798:	c9                   	leaveq 
  404799:	c3                   	retq   

000000000040479a <_ZN2cl8PlatformD1Ev>:
  40479a:	55                   	push   %rbp
  40479b:	48 89 e5             	mov    %rsp,%rbp
  40479e:	48 83 ec 10          	sub    $0x10,%rsp
  4047a2:	48 89 7d f8          	mov    %rdi,-0x8(%rbp)
  4047a6:	48 8b 45 f8          	mov    -0x8(%rbp),%rax
  4047aa:	48 89 c7             	mov    %rax,%rdi
  4047ad:	e8 c2 28 00 00       	callq  407074 <_ZN2cl6detail7WrapperIP15_cl_platform_idED1Ev>
  4047b2:	90                   	nop
  4047b3:	c9                   	leaveq 
  4047b4:	c3                   	retq   
  4047b5:	90                   	nop

00000000004047b6 <_ZN2cl8PlatformaSEOS0_>:
  4047b6:	55                   	push   %rbp
  4047b7:	48 89 e5             	mov    %rsp,%rbp
  4047ba:	48 83 ec 10          	sub    $0x10,%rsp
  4047be:	48 89 7d f8          	mov    %rdi,-0x8(%rbp)
  4047c2:	48 89 75 f0          	mov    %rsi,-0x10(%rbp)
  4047c6:	48 8b 55 f0          	mov    -0x10(%rbp),%rdx
  4047ca:	48 8b 45 f8          	mov    -0x8(%rbp),%rax
  4047ce:	48 89 d6             	mov    %rdx,%rsi
  4047d1:	48 89 c7             	mov    %rax,%rdi
  4047d4:	e8 c3 28 00 00       	callq  40709c <_ZN2cl6detail7WrapperIP15_cl_platform_idEaSEOS4_>
  4047d9:	48 8b 45 f8          	mov    -0x8(%rbp),%rax
  4047dd:	c9                   	leaveq 
  4047de:	c3                   	retq   

00000000004047df <_ZN2cl8Platform11makeDefaultEv>:
  4047df:	55                   	push   %rbp
  4047e0:	48 89 e5             	mov    %rsp,%rbp
  4047e3:	41 54                	push   %r12
  4047e5:	53                   	push   %rbx
  4047e6:	48 83 ec 40          	sub    $0x40,%rsp
  4047ea:	64 48 8b 04 25 28 00 	mov    %fs:0x28,%rax
  4047f1:	00 00 
  4047f3:	48 89 45 e8          	mov    %rax,-0x18(%rbp)
  4047f7:	31 c0                	xor    %eax,%eax
  4047f9:	c7 45 b8 00 00 00 00 	movl   $0x0,-0x48(%rbp)
  404800:	48 8d 45 b8          	lea    -0x48(%rbp),%rax
  404804:	48 89 c2             	mov    %rax,%rdx
  404807:	be 00 00 00 00       	mov    $0x0,%esi
  40480c:	bf 00 00 00 00       	mov    $0x0,%edi
  404811:	e8 2a ea ff ff       	callq  403240 <clGetPlatformIDs@plt>
  404816:	89 45 bc             	mov    %eax,-0x44(%rbp)
  404819:	83 7d bc 00          	cmpl   $0x0,-0x44(%rbp)
  40481d:	74 0e                	je     40482d <_ZN2cl8Platform11makeDefaultEv+0x4e>
  40481f:	8b 45 bc             	mov    -0x44(%rbp),%eax
  404822:	89 05 08 de 20 00    	mov    %eax,0x20de08(%rip)        # 612630 <_ZN2cl8Platform14default_error_E>
  404828:	e9 54 01 00 00       	jmpq   404981 <_ZN2cl8Platform11makeDefaultEv+0x1a2>
  40482d:	8b 45 b8             	mov    -0x48(%rbp),%eax
  404830:	85 c0                	test   %eax,%eax
  404832:	75 0f                	jne    404843 <_ZN2cl8Platform11makeDefaultEv+0x64>
  404834:	c7 05 f2 dd 20 00 e0 	movl   $0xffffffe0,0x20ddf2(%rip)        # 612630 <_ZN2cl8Platform14default_error_E>
  40483b:	ff ff ff 
  40483e:	e9 3e 01 00 00       	jmpq   404981 <_ZN2cl8Platform11makeDefaultEv+0x1a2>
  404843:	48 8d 45 c0          	lea    -0x40(%rbp),%rax
  404847:	48 89 c7             	mov    %rax,%rdi
  40484a:	e8 03 27 00 00       	callq  406f52 <_ZNSaIP15_cl_platform_idEC1Ev>
  40484f:	8b 45 b8             	mov    -0x48(%rbp),%eax
  404852:	89 c1                	mov    %eax,%ecx
  404854:	48 8d 55 c0          	lea    -0x40(%rbp),%rdx
  404858:	48 8d 45 d0          	lea    -0x30(%rbp),%rax
  40485c:	48 89 ce             	mov    %rcx,%rsi
  40485f:	48 89 c7             	mov    %rax,%rdi
  404862:	e8 23 27 00 00       	callq  406f8a <_ZNSt6vectorIP15_cl_platform_idSaIS1_EEC1EmRKS2_>
  404867:	48 8d 45 c0          	lea    -0x40(%rbp),%rax
  40486b:	48 89 c7             	mov    %rax,%rdi
  40486e:	e8 fb 26 00 00       	callq  406f6e <_ZNSaIP15_cl_platform_idED1Ev>
  404873:	48 8d 45 d0          	lea    -0x30(%rbp),%rax
  404877:	48 89 c7             	mov    %rax,%rdi
  40487a:	e8 b1 27 00 00       	callq  407030 <_ZNSt6vectorIP15_cl_platform_idSaIS1_EE4dataEv>
  40487f:	48 89 c1             	mov    %rax,%rcx
  404882:	8b 45 b8             	mov    -0x48(%rbp),%eax
  404885:	ba 00 00 00 00       	mov    $0x0,%edx
  40488a:	48 89 ce             	mov    %rcx,%rsi
  40488d:	89 c7                	mov    %eax,%edi
  40488f:	e8 ac e9 ff ff       	callq  403240 <clGetPlatformIDs@plt>
  404894:	89 45 bc             	mov    %eax,-0x44(%rbp)
  404897:	83 7d bc 00          	cmpl   $0x0,-0x44(%rbp)
  40489b:	74 10                	je     4048ad <_ZN2cl8Platform11makeDefaultEv+0xce>
  40489d:	8b 45 bc             	mov    -0x44(%rbp),%eax
  4048a0:	89 05 8a dd 20 00    	mov    %eax,0x20dd8a(%rip)        # 612630 <_ZN2cl8Platform14default_error_E>
  4048a6:	bb 00 00 00 00       	mov    $0x0,%ebx
  4048ab:	eb 4a                	jmp    4048f7 <_ZN2cl8Platform11makeDefaultEv+0x118>
  4048ad:	48 8d 45 d0          	lea    -0x30(%rbp),%rax
  4048b1:	be 00 00 00 00       	mov    $0x0,%esi
  4048b6:	48 89 c7             	mov    %rax,%rdi
  4048b9:	e8 96 27 00 00       	callq  407054 <_ZNSt6vectorIP15_cl_platform_idSaIS1_EEixEm>
  4048be:	48 89 c1             	mov    %rax,%rcx
  4048c1:	48 8d 45 c0          	lea    -0x40(%rbp),%rax
  4048c5:	ba 00 00 00 00       	mov    $0x0,%edx
  4048ca:	48 89 ce             	mov    %rcx,%rsi
  4048cd:	48 89 c7             	mov    %rax,%rdi
  4048d0:	e8 e5 00 00 00       	callq  4049ba <_ZN2cl8PlatformC1ERKP15_cl_platform_idb>
  4048d5:	48 8d 45 c0          	lea    -0x40(%rbp),%rax
  4048d9:	48 89 c6             	mov    %rax,%rsi
  4048dc:	bf 28 26 61 00       	mov    $0x612628,%edi
  4048e1:	e8 d0 fe ff ff       	callq  4047b6 <_ZN2cl8PlatformaSEOS0_>
  4048e6:	48 8d 45 c0          	lea    -0x40(%rbp),%rax
  4048ea:	48 89 c7             	mov    %rax,%rdi
  4048ed:	e8 a8 fe ff ff       	callq  40479a <_ZN2cl8PlatformD1Ev>
  4048f2:	bb 01 00 00 00       	mov    $0x1,%ebx
  4048f7:	48 8d 45 d0          	lea    -0x30(%rbp),%rax
  4048fb:	48 89 c7             	mov    %rax,%rdi
  4048fe:	e8 e9 26 00 00       	callq  406fec <_ZNSt6vectorIP15_cl_platform_idSaIS1_EED1Ev>
  404903:	83 fb 01             	cmp    $0x1,%ebx
  404906:	eb 79                	jmp    404981 <_ZN2cl8Platform11makeDefaultEv+0x1a2>
  404908:	49 89 c4             	mov    %rax,%r12
  40490b:	48 89 d3             	mov    %rdx,%rbx
  40490e:	48 8d 45 c0          	lea    -0x40(%rbp),%rax
  404912:	48 89 c7             	mov    %rax,%rdi
  404915:	e8 54 26 00 00       	callq  406f6e <_ZNSaIP15_cl_platform_idED1Ev>
  40491a:	4c 89 e0             	mov    %r12,%rax
  40491d:	48 89 da             	mov    %rbx,%rdx
  404920:	eb 2e                	jmp    404950 <_ZN2cl8Platform11makeDefaultEv+0x171>
  404922:	49 89 c4             	mov    %rax,%r12
  404925:	48 89 d3             	mov    %rdx,%rbx
  404928:	48 8d 45 c0          	lea    -0x40(%rbp),%rax
  40492c:	48 89 c7             	mov    %rax,%rdi
  40492f:	e8 66 fe ff ff       	callq  40479a <_ZN2cl8PlatformD1Ev>
  404934:	eb 06                	jmp    40493c <_ZN2cl8Platform11makeDefaultEv+0x15d>
  404936:	49 89 c4             	mov    %rax,%r12
  404939:	48 89 d3             	mov    %rdx,%rbx
  40493c:	48 8d 45 d0          	lea    -0x30(%rbp),%rax
  404940:	48 89 c7             	mov    %rax,%rdi
  404943:	e8 a4 26 00 00       	callq  406fec <_ZNSt6vectorIP15_cl_platform_idSaIS1_EED1Ev>
  404948:	4c 89 e0             	mov    %r12,%rax
  40494b:	48 89 da             	mov    %rbx,%rdx
  40494e:	eb 00                	jmp    404950 <_ZN2cl8Platform11makeDefaultEv+0x171>
  404950:	48 83 fa 01          	cmp    $0x1,%rdx
  404954:	74 08                	je     40495e <_ZN2cl8Platform11makeDefaultEv+0x17f>
  404956:	48 89 c7             	mov    %rax,%rdi
  404959:	e8 b2 eb ff ff       	callq  403510 <_Unwind_Resume@plt>
  40495e:	48 89 c7             	mov    %rax,%rdi
  404961:	e8 3a e8 ff ff       	callq  4031a0 <__cxa_begin_catch@plt>
  404966:	48 89 45 c8          	mov    %rax,-0x38(%rbp)
  40496a:	48 8b 45 c8          	mov    -0x38(%rbp),%rax
  40496e:	48 89 c7             	mov    %rax,%rdi
  404971:	e8 c4 f8 ff ff       	callq  40423a <_ZNK2cl5Error3errEv>
  404976:	89 05 b4 dc 20 00    	mov    %eax,0x20dcb4(%rip)        # 612630 <_ZN2cl8Platform14default_error_E>
  40497c:	e8 ef ea ff ff       	callq  403470 <__cxa_end_catch@plt>
  404981:	48 8b 45 e8          	mov    -0x18(%rbp),%rax
  404985:	64 48 33 04 25 28 00 	xor    %fs:0x28,%rax
  40498c:	00 00 
  40498e:	74 05                	je     404995 <_ZN2cl8Platform11makeDefaultEv+0x1b6>
  404990:	e8 5b e9 ff ff       	callq  4032f0 <__stack_chk_fail@plt>
  404995:	48 83 c4 40          	add    $0x40,%rsp
  404999:	5b                   	pop    %rbx
  40499a:	41 5c                	pop    %r12
  40499c:	5d                   	pop    %rbp
  40499d:	c3                   	retq   

000000000040499e <_ZN2cl8PlatformC1Ev>:
  40499e:	55                   	push   %rbp
  40499f:	48 89 e5             	mov    %rsp,%rbp
  4049a2:	48 83 ec 10          	sub    $0x10,%rsp
  4049a6:	48 89 7d f8          	mov    %rdi,-0x8(%rbp)
  4049aa:	48 8b 45 f8          	mov    -0x8(%rbp),%rax
  4049ae:	48 89 c7             	mov    %rax,%rdi
  4049b1:	e8 38 27 00 00       	callq  4070ee <_ZN2cl6detail7WrapperIP15_cl_platform_idEC1Ev>
  4049b6:	90                   	nop
  4049b7:	c9                   	leaveq 
  4049b8:	c3                   	retq   
  4049b9:	90                   	nop

00000000004049ba <_ZN2cl8PlatformC1ERKP15_cl_platform_idb>:
  4049ba:	55                   	push   %rbp
  4049bb:	48 89 e5             	mov    %rsp,%rbp
  4049be:	48 83 ec 20          	sub    $0x20,%rsp
  4049c2:	48 89 7d f8          	mov    %rdi,-0x8(%rbp)
  4049c6:	48 89 75 f0          	mov    %rsi,-0x10(%rbp)
  4049ca:	89 d0                	mov    %edx,%eax
  4049cc:	88 45 ec             	mov    %al,-0x14(%rbp)
  4049cf:	0f b6 55 ec          	movzbl -0x14(%rbp),%edx
  4049d3:	48 8b 45 f8          	mov    -0x8(%rbp),%rax
  4049d7:	48 8b 4d f0          	mov    -0x10(%rbp),%rcx
  4049db:	48 89 ce             	mov    %rcx,%rsi
  4049de:	48 89 c7             	mov    %rax,%rdi
  4049e1:	e8 1e 27 00 00       	callq  407104 <_ZN2cl6detail7WrapperIP15_cl_platform_idEC1ERKS3_b>
  4049e6:	90                   	nop
  4049e7:	c9                   	leaveq 
  4049e8:	c3                   	retq   
  4049e9:	90                   	nop

00000000004049ea <_ZN2cl8PlatformC1ERKS0_>:
  4049ea:	55                   	push   %rbp
  4049eb:	48 89 e5             	mov    %rsp,%rbp
  4049ee:	48 83 ec 10          	sub    $0x10,%rsp
  4049f2:	48 89 7d f8          	mov    %rdi,-0x8(%rbp)
  4049f6:	48 89 75 f0          	mov    %rsi,-0x10(%rbp)
  4049fa:	48 8b 55 f0          	mov    -0x10(%rbp),%rdx
  4049fe:	48 8b 45 f8          	mov    -0x8(%rbp),%rax
  404a02:	48 89 d6             	mov    %rdx,%rsi
  404a05:	48 89 c7             	mov    %rax,%rdi
  404a08:	e8 3b 27 00 00       	callq  407148 <_ZN2cl6detail7WrapperIP15_cl_platform_idEC1ERKS4_>
  404a0d:	90                   	nop
  404a0e:	c9                   	leaveq 
  404a0f:	c3                   	retq   

0000000000404a10 <_ZN2cl8Platform10getDefaultEPi>:
  404a10:	55                   	push   %rbp
  404a11:	48 89 e5             	mov    %rsp,%rbp
  404a14:	48 83 ec 10          	sub    $0x10,%rsp
  404a18:	48 89 7d f8          	mov    %rdi,-0x8(%rbp)
  404a1c:	48 89 75 f0          	mov    %rsi,-0x10(%rbp)
  404a20:	be df 47 40 00       	mov    $0x4047df,%esi
  404a25:	bf 24 26 61 00       	mov    $0x612624,%edi
  404a2a:	e8 82 24 00 00       	callq  406eb1 <_ZSt9call_onceIRFvvEIEEvRSt9once_flagOT_DpOT0_>
  404a2f:	8b 05 fb db 20 00    	mov    0x20dbfb(%rip),%eax        # 612630 <_ZN2cl8Platform14default_error_E>
  404a35:	be 00 00 00 00       	mov    $0x0,%esi
  404a3a:	89 c7                	mov    %eax,%edi
  404a3c:	e8 c5 ec ff ff       	callq  403706 <_ZN2cl6detailL10errHandlerEiPKc>
  404a41:	48 83 7d f0 00       	cmpq   $0x0,-0x10(%rbp)
  404a46:	74 0c                	je     404a54 <_ZN2cl8Platform10getDefaultEPi+0x44>
  404a48:	8b 15 e2 db 20 00    	mov    0x20dbe2(%rip),%edx        # 612630 <_ZN2cl8Platform14default_error_E>
  404a4e:	48 8b 45 f0          	mov    -0x10(%rbp),%rax
  404a52:	89 10                	mov    %edx,(%rax)
  404a54:	48 8b 45 f8          	mov    -0x8(%rbp),%rax
  404a58:	be 28 26 61 00       	mov    $0x612628,%esi
  404a5d:	48 89 c7             	mov    %rax,%rdi
  404a60:	e8 85 ff ff ff       	callq  4049ea <_ZN2cl8PlatformC1ERKS0_>
  404a65:	48 8b 45 f8          	mov    -0x8(%rbp),%rax
  404a69:	c9                   	leaveq 
  404a6a:	c3                   	retq   
  404a6b:	90                   	nop

0000000000404a6c <_ZNK2cl8Platform10getDevicesEmPSt6vectorINS_6DeviceESaIS2_EE>:
  404a6c:	55                   	push   %rbp
  404a6d:	48 89 e5             	mov    %rsp,%rbp
  404a70:	53                   	push   %rbx
  404a71:	48 83 ec 68          	sub    $0x68,%rsp
  404a75:	48 89 7d a8          	mov    %rdi,-0x58(%rbp)
  404a79:	48 89 75 a0          	mov    %rsi,-0x60(%rbp)
  404a7d:	48 89 55 98          	mov    %rdx,-0x68(%rbp)
  404a81:	64 48 8b 04 25 28 00 	mov    %fs:0x28,%rax
  404a88:	00 00 
  404a8a:	48 89 45 e8          	mov    %rax,-0x18(%rbp)
  404a8e:	31 c0                	xor    %eax,%eax
  404a90:	c7 45 b0 00 00 00 00 	movl   $0x0,-0x50(%rbp)
  404a97:	48 83 7d 98 00       	cmpq   $0x0,-0x68(%rbp)
  404a9c:	75 16                	jne    404ab4 <_ZNK2cl8Platform10getDevicesEmPSt6vectorINS_6DeviceESaIS2_EE+0x48>
  404a9e:	be 11 bf 40 00       	mov    $0x40bf11,%esi
  404aa3:	bf ce ff ff ff       	mov    $0xffffffce,%edi
  404aa8:	e8 59 ec ff ff       	callq  403706 <_ZN2cl6detailL10errHandlerEiPKc>
  404aad:	89 c3                	mov    %eax,%ebx
  404aaf:	e9 78 01 00 00       	jmpq   404c2c <_ZNK2cl8Platform10getDevicesEmPSt6vectorINS_6DeviceESaIS2_EE+0x1c0>
  404ab4:	48 8b 45 a8          	mov    -0x58(%rbp),%rax
  404ab8:	48 8b 00             	mov    (%rax),%rax
  404abb:	48 8d 55 b0          	lea    -0x50(%rbp),%rdx
  404abf:	48 8b 75 a0          	mov    -0x60(%rbp),%rsi
  404ac3:	49 89 d0             	mov    %rdx,%r8
  404ac6:	b9 00 00 00 00       	mov    $0x0,%ecx
  404acb:	ba 00 00 00 00       	mov    $0x0,%edx
  404ad0:	48 89 c7             	mov    %rax,%rdi
  404ad3:	e8 88 e8 ff ff       	callq  403360 <clGetDeviceIDs@plt>
  404ad8:	89 45 b4             	mov    %eax,-0x4c(%rbp)
  404adb:	83 7d b4 00          	cmpl   $0x0,-0x4c(%rbp)
  404adf:	74 16                	je     404af7 <_ZNK2cl8Platform10getDevicesEmPSt6vectorINS_6DeviceESaIS2_EE+0x8b>
  404ae1:	8b 45 b4             	mov    -0x4c(%rbp),%eax
  404ae4:	be 11 bf 40 00       	mov    $0x40bf11,%esi
  404ae9:	89 c7                	mov    %eax,%edi
  404aeb:	e8 16 ec ff ff       	callq  403706 <_ZN2cl6detailL10errHandlerEiPKc>
  404af0:	89 c3                	mov    %eax,%ebx
  404af2:	e9 35 01 00 00       	jmpq   404c2c <_ZNK2cl8Platform10getDevicesEmPSt6vectorINS_6DeviceESaIS2_EE+0x1c0>
  404af7:	48 8d 45 c0          	lea    -0x40(%rbp),%rax
  404afb:	48 89 c7             	mov    %rax,%rdi
  404afe:	e8 7f 26 00 00       	callq  407182 <_ZNSaIP13_cl_device_idEC1Ev>
  404b03:	8b 45 b0             	mov    -0x50(%rbp),%eax
  404b06:	89 c1                	mov    %eax,%ecx
  404b08:	48 8d 55 c0          	lea    -0x40(%rbp),%rdx
  404b0c:	48 8d 45 d0          	lea    -0x30(%rbp),%rax
  404b10:	48 89 ce             	mov    %rcx,%rsi
  404b13:	48 89 c7             	mov    %rax,%rdi
  404b16:	e8 9f 26 00 00       	callq  4071ba <_ZNSt6vectorIP13_cl_device_idSaIS1_EEC1EmRKS2_>
  404b1b:	48 8d 45 c0          	lea    -0x40(%rbp),%rax
  404b1f:	48 89 c7             	mov    %rax,%rdi
  404b22:	e8 77 26 00 00       	callq  40719e <_ZNSaIP13_cl_device_idED1Ev>
  404b27:	48 8d 45 d0          	lea    -0x30(%rbp),%rax
  404b2b:	48 89 c7             	mov    %rax,%rdi
  404b2e:	e8 2d 27 00 00       	callq  407260 <_ZNSt6vectorIP13_cl_device_idSaIS1_EE4dataEv>
  404b33:	48 89 c1             	mov    %rax,%rcx
  404b36:	8b 55 b0             	mov    -0x50(%rbp),%edx
  404b39:	48 8b 45 a8          	mov    -0x58(%rbp),%rax
  404b3d:	48 8b 00             	mov    (%rax),%rax
  404b40:	48 8b 75 a0          	mov    -0x60(%rbp),%rsi
  404b44:	41 b8 00 00 00 00    	mov    $0x0,%r8d
  404b4a:	48 89 c7             	mov    %rax,%rdi
  404b4d:	e8 0e e8 ff ff       	callq  403360 <clGetDeviceIDs@plt>
  404b52:	89 45 b4             	mov    %eax,-0x4c(%rbp)
  404b55:	83 7d b4 00          	cmpl   $0x0,-0x4c(%rbp)
  404b59:	74 16                	je     404b71 <_ZNK2cl8Platform10getDevicesEmPSt6vectorINS_6DeviceESaIS2_EE+0x105>
  404b5b:	8b 45 b4             	mov    -0x4c(%rbp),%eax
  404b5e:	be 11 bf 40 00       	mov    $0x40bf11,%esi
  404b63:	89 c7                	mov    %eax,%edi
  404b65:	e8 9c eb ff ff       	callq  403706 <_ZN2cl6detailL10errHandlerEiPKc>
  404b6a:	89 c3                	mov    %eax,%ebx
  404b6c:	e9 af 00 00 00       	jmpq   404c20 <_ZNK2cl8Platform10getDevicesEmPSt6vectorINS_6DeviceESaIS2_EE+0x1b4>
  404b71:	48 83 7d 98 00       	cmpq   $0x0,-0x68(%rbp)
  404b76:	0f 84 9f 00 00 00    	je     404c1b <_ZNK2cl8Platform10getDevicesEmPSt6vectorINS_6DeviceESaIS2_EE+0x1af>
  404b7c:	48 8d 45 d0          	lea    -0x30(%rbp),%rax
  404b80:	48 89 c7             	mov    %rax,%rdi
  404b83:	e8 fc 26 00 00       	callq  407284 <_ZNKSt6vectorIP13_cl_device_idSaIS1_EE4sizeEv>
  404b88:	48 89 c2             	mov    %rax,%rdx
  404b8b:	48 8b 45 98          	mov    -0x68(%rbp),%rax
  404b8f:	48 89 d6             	mov    %rdx,%rsi
  404b92:	48 89 c7             	mov    %rax,%rdi
  404b95:	e8 10 27 00 00       	callq  4072aa <_ZNSt6vectorIN2cl6DeviceESaIS1_EE6resizeEm>
  404b9a:	48 c7 45 b8 00 00 00 	movq   $0x0,-0x48(%rbp)
  404ba1:	00 
  404ba2:	48 8d 45 d0          	lea    -0x30(%rbp),%rax
  404ba6:	48 89 c7             	mov    %rax,%rdi
  404ba9:	e8 d6 26 00 00       	callq  407284 <_ZNKSt6vectorIP13_cl_device_idSaIS1_EE4sizeEv>
  404bae:	48 3b 45 b8          	cmp    -0x48(%rbp),%rax
  404bb2:	0f 97 c0             	seta   %al
  404bb5:	84 c0                	test   %al,%al
  404bb7:	74 62                	je     404c1b <_ZNK2cl8Platform10getDevicesEmPSt6vectorINS_6DeviceESaIS2_EE+0x1af>
  404bb9:	48 8b 55 b8          	mov    -0x48(%rbp),%rdx
  404bbd:	48 8d 45 d0          	lea    -0x30(%rbp),%rax
  404bc1:	48 89 d6             	mov    %rdx,%rsi
  404bc4:	48 89 c7             	mov    %rax,%rdi
  404bc7:	e8 8a 27 00 00       	callq  407356 <_ZNSt6vectorIP13_cl_device_idSaIS1_EEixEm>
  404bcc:	48 89 c1             	mov    %rax,%rcx
  404bcf:	48 8d 45 c0          	lea    -0x40(%rbp),%rax
  404bd3:	ba 01 00 00 00       	mov    $0x1,%edx
  404bd8:	48 89 ce             	mov    %rcx,%rsi
  404bdb:	48 89 c7             	mov    %rax,%rdi
  404bde:	e8 4d fa ff ff       	callq  404630 <_ZN2cl6DeviceC1ERKP13_cl_device_idb>
  404be3:	48 8b 55 b8          	mov    -0x48(%rbp),%rdx
  404be7:	48 8b 45 98          	mov    -0x68(%rbp),%rax
  404beb:	48 89 d6             	mov    %rdx,%rsi
  404bee:	48 89 c7             	mov    %rax,%rdi
  404bf1:	e8 40 27 00 00       	callq  407336 <_ZNSt6vectorIN2cl6DeviceESaIS1_EEixEm>
  404bf6:	48 89 c2             	mov    %rax,%rdx
  404bf9:	48 8d 45 c0          	lea    -0x40(%rbp),%rax
  404bfd:	48 89 c6             	mov    %rax,%rsi
  404c00:	48 89 d7             	mov    %rdx,%rdi
  404c03:	e8 5e fb ff ff       	callq  404766 <_ZN2cl6DeviceaSEOS0_>
  404c08:	48 8d 45 c0          	lea    -0x40(%rbp),%rax
  404c0c:	48 89 c7             	mov    %rax,%rdi
  404c0f:	e8 4c fa ff ff       	callq  404660 <_ZN2cl6DeviceD1Ev>
  404c14:	48 83 45 b8 01       	addq   $0x1,-0x48(%rbp)
  404c19:	eb 87                	jmp    404ba2 <_ZNK2cl8Platform10getDevicesEmPSt6vectorINS_6DeviceESaIS2_EE+0x136>
  404c1b:	bb 00 00 00 00       	mov    $0x0,%ebx
  404c20:	48 8d 45 d0          	lea    -0x30(%rbp),%rax
  404c24:	48 89 c7             	mov    %rax,%rdi
  404c27:	e8 f0 25 00 00       	callq  40721c <_ZNSt6vectorIP13_cl_device_idSaIS1_EED1Ev>
  404c2c:	89 d8                	mov    %ebx,%eax
  404c2e:	48 8b 4d e8          	mov    -0x18(%rbp),%rcx
  404c32:	64 48 33 0c 25 28 00 	xor    %fs:0x28,%rcx
  404c39:	00 00 
  404c3b:	74 4c                	je     404c89 <_ZNK2cl8Platform10getDevicesEmPSt6vectorINS_6DeviceESaIS2_EE+0x21d>
  404c3d:	eb 45                	jmp    404c84 <_ZNK2cl8Platform10getDevicesEmPSt6vectorINS_6DeviceESaIS2_EE+0x218>
  404c3f:	48 89 c3             	mov    %rax,%rbx
  404c42:	48 8d 45 c0          	lea    -0x40(%rbp),%rax
  404c46:	48 89 c7             	mov    %rax,%rdi
  404c49:	e8 50 25 00 00       	callq  40719e <_ZNSaIP13_cl_device_idED1Ev>
  404c4e:	48 89 d8             	mov    %rbx,%rax
  404c51:	48 89 c7             	mov    %rax,%rdi
  404c54:	e8 b7 e8 ff ff       	callq  403510 <_Unwind_Resume@plt>
  404c59:	48 89 c3             	mov    %rax,%rbx
  404c5c:	48 8d 45 c0          	lea    -0x40(%rbp),%rax
  404c60:	48 89 c7             	mov    %rax,%rdi
  404c63:	e8 f8 f9 ff ff       	callq  404660 <_ZN2cl6DeviceD1Ev>
  404c68:	eb 03                	jmp    404c6d <_ZNK2cl8Platform10getDevicesEmPSt6vectorINS_6DeviceESaIS2_EE+0x201>
  404c6a:	48 89 c3             	mov    %rax,%rbx
  404c6d:	48 8d 45 d0          	lea    -0x30(%rbp),%rax
  404c71:	48 89 c7             	mov    %rax,%rdi
  404c74:	e8 a3 25 00 00       	callq  40721c <_ZNSt6vectorIP13_cl_device_idSaIS1_EED1Ev>
  404c79:	48 89 d8             	mov    %rbx,%rax
  404c7c:	48 89 c7             	mov    %rax,%rdi
  404c7f:	e8 8c e8 ff ff       	callq  403510 <_Unwind_Resume@plt>
  404c84:	e8 67 e6 ff ff       	callq  4032f0 <__stack_chk_fail@plt>
  404c89:	48 83 c4 68          	add    $0x68,%rsp
  404c8d:	5b                   	pop    %rbx
  404c8e:	5d                   	pop    %rbp
  404c8f:	c3                   	retq   

0000000000404c90 <_ZN2cl8Platform3getEPSt6vectorIS0_SaIS0_EE>:
  404c90:	55                   	push   %rbp
  404c91:	48 89 e5             	mov    %rsp,%rbp
  404c94:	53                   	push   %rbx
  404c95:	48 83 ec 58          	sub    $0x58,%rsp
  404c99:	48 89 7d a8          	mov    %rdi,-0x58(%rbp)
  404c9d:	64 48 8b 04 25 28 00 	mov    %fs:0x28,%rax
  404ca4:	00 00 
  404ca6:	48 89 45 e8          	mov    %rax,-0x18(%rbp)
  404caa:	31 c0                	xor    %eax,%eax
  404cac:	c7 45 b8 00 00 00 00 	movl   $0x0,-0x48(%rbp)
  404cb3:	48 83 7d a8 00       	cmpq   $0x0,-0x58(%rbp)
  404cb8:	75 16                	jne    404cd0 <_ZN2cl8Platform3getEPSt6vectorIS0_SaIS0_EE+0x40>
  404cba:	be 20 bf 40 00       	mov    $0x40bf20,%esi
  404cbf:	bf ce ff ff ff       	mov    $0xffffffce,%edi
  404cc4:	e8 3d ea ff ff       	callq  403706 <_ZN2cl6detailL10errHandlerEiPKc>
  404cc9:	89 c3                	mov    %eax,%ebx
  404ccb:	e9 60 01 00 00       	jmpq   404e30 <_ZN2cl8Platform3getEPSt6vectorIS0_SaIS0_EE+0x1a0>
  404cd0:	48 8d 45 b8          	lea    -0x48(%rbp),%rax
  404cd4:	48 89 c2             	mov    %rax,%rdx
  404cd7:	be 00 00 00 00       	mov    $0x0,%esi
  404cdc:	bf 00 00 00 00       	mov    $0x0,%edi
  404ce1:	e8 5a e5 ff ff       	callq  403240 <clGetPlatformIDs@plt>
  404ce6:	89 45 bc             	mov    %eax,-0x44(%rbp)
  404ce9:	83 7d bc 00          	cmpl   $0x0,-0x44(%rbp)
  404ced:	74 16                	je     404d05 <_ZN2cl8Platform3getEPSt6vectorIS0_SaIS0_EE+0x75>
  404cef:	8b 45 bc             	mov    -0x44(%rbp),%eax
  404cf2:	be 20 bf 40 00       	mov    $0x40bf20,%esi
  404cf7:	89 c7                	mov    %eax,%edi
  404cf9:	e8 08 ea ff ff       	callq  403706 <_ZN2cl6detailL10errHandlerEiPKc>
  404cfe:	89 c3                	mov    %eax,%ebx
  404d00:	e9 2b 01 00 00       	jmpq   404e30 <_ZN2cl8Platform3getEPSt6vectorIS0_SaIS0_EE+0x1a0>
  404d05:	48 8d 45 c0          	lea    -0x40(%rbp),%rax
  404d09:	48 89 c7             	mov    %rax,%rdi
  404d0c:	e8 41 22 00 00       	callq  406f52 <_ZNSaIP15_cl_platform_idEC1Ev>
  404d11:	8b 45 b8             	mov    -0x48(%rbp),%eax
  404d14:	89 c1                	mov    %eax,%ecx
  404d16:	48 8d 55 c0          	lea    -0x40(%rbp),%rdx
  404d1a:	48 8d 45 d0          	lea    -0x30(%rbp),%rax
  404d1e:	48 89 ce             	mov    %rcx,%rsi
  404d21:	48 89 c7             	mov    %rax,%rdi
  404d24:	e8 61 22 00 00       	callq  406f8a <_ZNSt6vectorIP15_cl_platform_idSaIS1_EEC1EmRKS2_>
  404d29:	48 8d 45 c0          	lea    -0x40(%rbp),%rax
  404d2d:	48 89 c7             	mov    %rax,%rdi
  404d30:	e8 39 22 00 00       	callq  406f6e <_ZNSaIP15_cl_platform_idED1Ev>
  404d35:	48 8d 45 d0          	lea    -0x30(%rbp),%rax
  404d39:	48 89 c7             	mov    %rax,%rdi
  404d3c:	e8 ef 22 00 00       	callq  407030 <_ZNSt6vectorIP15_cl_platform_idSaIS1_EE4dataEv>
  404d41:	48 89 c1             	mov    %rax,%rcx
  404d44:	8b 45 b8             	mov    -0x48(%rbp),%eax
  404d47:	ba 00 00 00 00       	mov    $0x0,%edx
  404d4c:	48 89 ce             	mov    %rcx,%rsi
  404d4f:	89 c7                	mov    %eax,%edi
  404d51:	e8 ea e4 ff ff       	callq  403240 <clGetPlatformIDs@plt>
  404d56:	89 45 bc             	mov    %eax,-0x44(%rbp)
  404d59:	83 7d bc 00          	cmpl   $0x0,-0x44(%rbp)
  404d5d:	74 16                	je     404d75 <_ZN2cl8Platform3getEPSt6vectorIS0_SaIS0_EE+0xe5>
  404d5f:	8b 45 bc             	mov    -0x44(%rbp),%eax
  404d62:	be 20 bf 40 00       	mov    $0x40bf20,%esi
  404d67:	89 c7                	mov    %eax,%edi
  404d69:	e8 98 e9 ff ff       	callq  403706 <_ZN2cl6detailL10errHandlerEiPKc>
  404d6e:	89 c3                	mov    %eax,%ebx
  404d70:	e9 af 00 00 00       	jmpq   404e24 <_ZN2cl8Platform3getEPSt6vectorIS0_SaIS0_EE+0x194>
  404d75:	48 83 7d a8 00       	cmpq   $0x0,-0x58(%rbp)
  404d7a:	0f 84 9f 00 00 00    	je     404e1f <_ZN2cl8Platform3getEPSt6vectorIS0_SaIS0_EE+0x18f>
  404d80:	48 8d 45 d0          	lea    -0x30(%rbp),%rax
  404d84:	48 89 c7             	mov    %rax,%rdi
  404d87:	e8 ea 25 00 00       	callq  407376 <_ZNKSt6vectorIP15_cl_platform_idSaIS1_EE4sizeEv>
  404d8c:	48 89 c2             	mov    %rax,%rdx
  404d8f:	48 8b 45 a8          	mov    -0x58(%rbp),%rax
  404d93:	48 89 d6             	mov    %rdx,%rsi
  404d96:	48 89 c7             	mov    %rax,%rdi
  404d99:	e8 fe 25 00 00       	callq  40739c <_ZNSt6vectorIN2cl8PlatformESaIS1_EE6resizeEm>
  404d9e:	48 c7 45 c8 00 00 00 	movq   $0x0,-0x38(%rbp)
  404da5:	00 
  404da6:	48 8d 45 d0          	lea    -0x30(%rbp),%rax
  404daa:	48 89 c7             	mov    %rax,%rdi
  404dad:	e8 c4 25 00 00       	callq  407376 <_ZNKSt6vectorIP15_cl_platform_idSaIS1_EE4sizeEv>
  404db2:	48 3b 45 c8          	cmp    -0x38(%rbp),%rax
  404db6:	0f 97 c0             	seta   %al
  404db9:	84 c0                	test   %al,%al
  404dbb:	74 62                	je     404e1f <_ZN2cl8Platform3getEPSt6vectorIS0_SaIS0_EE+0x18f>
  404dbd:	48 8b 55 c8          	mov    -0x38(%rbp),%rdx
  404dc1:	48 8d 45 d0          	lea    -0x30(%rbp),%rax
  404dc5:	48 89 d6             	mov    %rdx,%rsi
  404dc8:	48 89 c7             	mov    %rax,%rdi
  404dcb:	e8 84 22 00 00       	callq  407054 <_ZNSt6vectorIP15_cl_platform_idSaIS1_EEixEm>
  404dd0:	48 89 c1             	mov    %rax,%rcx
  404dd3:	48 8d 45 c0          	lea    -0x40(%rbp),%rax
  404dd7:	ba 00 00 00 00       	mov    $0x0,%edx
  404ddc:	48 89 ce             	mov    %rcx,%rsi
  404ddf:	48 89 c7             	mov    %rax,%rdi
  404de2:	e8 d3 fb ff ff       	callq  4049ba <_ZN2cl8PlatformC1ERKP15_cl_platform_idb>
  404de7:	48 8b 55 c8          	mov    -0x38(%rbp),%rdx
  404deb:	48 8b 45 a8          	mov    -0x58(%rbp),%rax
  404def:	48 89 d6             	mov    %rdx,%rsi
  404df2:	48 89 c7             	mov    %rax,%rdi
  404df5:	e8 2e 26 00 00       	callq  407428 <_ZNSt6vectorIN2cl8PlatformESaIS1_EEixEm>
  404dfa:	48 89 c2             	mov    %rax,%rdx
  404dfd:	48 8d 45 c0          	lea    -0x40(%rbp),%rax
  404e01:	48 89 c6             	mov    %rax,%rsi
  404e04:	48 89 d7             	mov    %rdx,%rdi
  404e07:	e8 aa f9 ff ff       	callq  4047b6 <_ZN2cl8PlatformaSEOS0_>
  404e0c:	48 8d 45 c0          	lea    -0x40(%rbp),%rax
  404e10:	48 89 c7             	mov    %rax,%rdi
  404e13:	e8 82 f9 ff ff       	callq  40479a <_ZN2cl8PlatformD1Ev>
  404e18:	48 83 45 c8 01       	addq   $0x1,-0x38(%rbp)
  404e1d:	eb 87                	jmp    404da6 <_ZN2cl8Platform3getEPSt6vectorIS0_SaIS0_EE+0x116>
  404e1f:	bb 00 00 00 00       	mov    $0x0,%ebx
  404e24:	48 8d 45 d0          	lea    -0x30(%rbp),%rax
  404e28:	48 89 c7             	mov    %rax,%rdi
  404e2b:	e8 bc 21 00 00       	callq  406fec <_ZNSt6vectorIP15_cl_platform_idSaIS1_EED1Ev>
  404e30:	89 d8                	mov    %ebx,%eax
  404e32:	48 8b 4d e8          	mov    -0x18(%rbp),%rcx
  404e36:	64 48 33 0c 25 28 00 	xor    %fs:0x28,%rcx
  404e3d:	00 00 
  404e3f:	74 4c                	je     404e8d <_ZN2cl8Platform3getEPSt6vectorIS0_SaIS0_EE+0x1fd>
  404e41:	eb 45                	jmp    404e88 <_ZN2cl8Platform3getEPSt6vectorIS0_SaIS0_EE+0x1f8>
  404e43:	48 89 c3             	mov    %rax,%rbx
  404e46:	48 8d 45 c0          	lea    -0x40(%rbp),%rax
  404e4a:	48 89 c7             	mov    %rax,%rdi
  404e4d:	e8 1c 21 00 00       	callq  406f6e <_ZNSaIP15_cl_platform_idED1Ev>
  404e52:	48 89 d8             	mov    %rbx,%rax
  404e55:	48 89 c7             	mov    %rax,%rdi
  404e58:	e8 b3 e6 ff ff       	callq  403510 <_Unwind_Resume@plt>
  404e5d:	48 89 c3             	mov    %rax,%rbx
  404e60:	48 8d 45 c0          	lea    -0x40(%rbp),%rax
  404e64:	48 89 c7             	mov    %rax,%rdi
  404e67:	e8 2e f9 ff ff       	callq  40479a <_ZN2cl8PlatformD1Ev>
  404e6c:	eb 03                	jmp    404e71 <_ZN2cl8Platform3getEPSt6vectorIS0_SaIS0_EE+0x1e1>
  404e6e:	48 89 c3             	mov    %rax,%rbx
  404e71:	48 8d 45 d0          	lea    -0x30(%rbp),%rax
  404e75:	48 89 c7             	mov    %rax,%rdi
  404e78:	e8 6f 21 00 00       	callq  406fec <_ZNSt6vectorIP15_cl_platform_idSaIS1_EED1Ev>
  404e7d:	48 89 d8             	mov    %rbx,%rax
  404e80:	48 89 c7             	mov    %rax,%rdi
  404e83:	e8 88 e6 ff ff       	callq  403510 <_Unwind_Resume@plt>
  404e88:	e8 63 e4 ff ff       	callq  4032f0 <__stack_chk_fail@plt>
  404e8d:	48 83 c4 58          	add    $0x58,%rsp
  404e91:	5b                   	pop    %rbx
  404e92:	5d                   	pop    %rbp
  404e93:	c3                   	retq   

0000000000404e94 <_ZN2cl8PlatformC1EOS0_>:
  404e94:	55                   	push   %rbp
  404e95:	48 89 e5             	mov    %rsp,%rbp
  404e98:	48 83 ec 10          	sub    $0x10,%rsp
  404e9c:	48 89 7d f8          	mov    %rdi,-0x8(%rbp)
  404ea0:	48 89 75 f0          	mov    %rsi,-0x10(%rbp)
  404ea4:	48 8b 55 f0          	mov    -0x10(%rbp),%rdx
  404ea8:	48 8b 45 f8          	mov    -0x8(%rbp),%rax
  404eac:	48 89 d6             	mov    %rdx,%rsi
  404eaf:	48 89 c7             	mov    %rax,%rdi
  404eb2:	e8 91 25 00 00       	callq  407448 <_ZN2cl6detail7WrapperIP15_cl_platform_idEC1EOS4_>
  404eb7:	90                   	nop
  404eb8:	c9                   	leaveq 
  404eb9:	c3                   	retq   

0000000000404eba <_ZN2cl8Platform3getEPi>:
  404eba:	55                   	push   %rbp
  404ebb:	48 89 e5             	mov    %rsp,%rbp
  404ebe:	48 83 ec 20          	sub    $0x20,%rsp
  404ec2:	48 89 7d e8          	mov    %rdi,-0x18(%rbp)
  404ec6:	48 89 75 e0          	mov    %rsi,-0x20(%rbp)
  404eca:	64 48 8b 04 25 28 00 	mov    %fs:0x28,%rax
  404ed1:	00 00 
  404ed3:	48 89 45 f8          	mov    %rax,-0x8(%rbp)
  404ed7:	31 c0                	xor    %eax,%eax
  404ed9:	48 8b 45 e8          	mov    -0x18(%rbp),%rax
  404edd:	48 8d 55 f4          	lea    -0xc(%rbp),%rdx
  404ee1:	48 89 d6             	mov    %rdx,%rsi
  404ee4:	48 89 c7             	mov    %rax,%rdi
  404ee7:	e8 24 fb ff ff       	callq  404a10 <_ZN2cl8Platform10getDefaultEPi>
  404eec:	48 83 7d e0 00       	cmpq   $0x0,-0x20(%rbp)
  404ef1:	74 0a                	je     404efd <_ZN2cl8Platform3getEPi+0x43>
  404ef3:	8b 55 f4             	mov    -0xc(%rbp),%edx
  404ef6:	48 8b 45 e0          	mov    -0x20(%rbp),%rax
  404efa:	89 10                	mov    %edx,(%rax)
  404efc:	90                   	nop
  404efd:	90                   	nop
  404efe:	48 8b 45 e8          	mov    -0x18(%rbp),%rax
  404f02:	48 8b 4d f8          	mov    -0x8(%rbp),%rcx
  404f06:	64 48 33 0c 25 28 00 	xor    %fs:0x28,%rcx
  404f0d:	00 00 
  404f0f:	74 05                	je     404f16 <_ZN2cl8Platform3getEPi+0x5c>
  404f11:	e8 da e3 ff ff       	callq  4032f0 <__stack_chk_fail@plt>
  404f16:	c9                   	leaveq 
  404f17:	c3                   	retq   

0000000000404f18 <_ZN2cl7ContextD1Ev>:
  404f18:	55                   	push   %rbp
  404f19:	48 89 e5             	mov    %rsp,%rbp
  404f1c:	48 83 ec 10          	sub    $0x10,%rsp
  404f20:	48 89 7d f8          	mov    %rdi,-0x8(%rbp)
  404f24:	48 8b 45 f8          	mov    -0x8(%rbp),%rax
  404f28:	48 89 c7             	mov    %rax,%rdi
  404f2b:	e8 4e 25 00 00       	callq  40747e <_ZN2cl6detail7WrapperIP11_cl_contextED1Ev>
  404f30:	90                   	nop
  404f31:	c9                   	leaveq 
  404f32:	c3                   	retq   

0000000000404f33 <_ZN2cl7Context11makeDefaultEv>:
  404f33:	55                   	push   %rbp
  404f34:	48 89 e5             	mov    %rsp,%rbp
  404f37:	41 54                	push   %r12
  404f39:	53                   	push   %rbx
  404f3a:	48 83 ec 50          	sub    $0x50,%rsp
  404f3e:	64 48 8b 04 25 28 00 	mov    %fs:0x28,%rax
  404f45:	00 00 
  404f47:	48 89 45 e8          	mov    %rax,-0x18(%rbp)
  404f4b:	31 c0                	xor    %eax,%eax
  404f4d:	48 8d 45 a0          	lea    -0x60(%rbp),%rax
  404f51:	be 00 00 00 00       	mov    $0x0,%esi
  404f56:	48 89 c7             	mov    %rax,%rdi
  404f59:	e8 b2 fa ff ff       	callq  404a10 <_ZN2cl8Platform10getDefaultEPi>
  404f5e:	48 8d 45 a0          	lea    -0x60(%rbp),%rax
  404f62:	48 89 45 b8          	mov    %rax,-0x48(%rbp)
  404f66:	48 8b 45 b8          	mov    -0x48(%rbp),%rax
  404f6a:	48 89 c7             	mov    %rax,%rdi
  404f6d:	e8 fe 24 00 00       	callq  407470 <_ZNK2cl6detail7WrapperIP15_cl_platform_idEclEv>
  404f72:	48 8b 00             	mov    (%rax),%rax
  404f75:	48 89 45 c0          	mov    %rax,-0x40(%rbp)
  404f79:	48 c7 45 d0 00 00 00 	movq   $0x0,-0x30(%rbp)
  404f80:	00 
  404f81:	48 c7 45 d8 00 00 00 	movq   $0x0,-0x28(%rbp)
  404f88:	00 
  404f89:	48 c7 45 e0 00 00 00 	movq   $0x0,-0x20(%rbp)
  404f90:	00 
  404f91:	48 c7 45 d0 84 10 00 	movq   $0x1084,-0x30(%rbp)
  404f98:	00 
  404f99:	48 8b 45 c0          	mov    -0x40(%rbp),%rax
  404f9d:	48 89 45 d8          	mov    %rax,-0x28(%rbp)
  404fa1:	48 8d 55 d0          	lea    -0x30(%rbp),%rdx
  404fa5:	48 8d 45 b0          	lea    -0x50(%rbp),%rax
  404fa9:	41 b9 40 26 61 00    	mov    $0x612640,%r9d
  404faf:	41 b8 00 00 00 00    	mov    $0x0,%r8d
  404fb5:	b9 00 00 00 00       	mov    $0x0,%ecx
  404fba:	be 01 00 00 00       	mov    $0x1,%esi
  404fbf:	48 89 c7             	mov    %rax,%rdi
  404fc2:	e8 c9 00 00 00       	callq  405090 <_ZN2cl7ContextC1EmPlPFvPKcPKvmPvES6_Pi>
  404fc7:	48 8d 45 b0          	lea    -0x50(%rbp),%rax
  404fcb:	48 89 c6             	mov    %rax,%rsi
  404fce:	bf 38 26 61 00       	mov    $0x612638,%edi
  404fd3:	e8 a6 04 00 00       	callq  40547e <_ZN2cl7ContextaSEOS0_>
  404fd8:	48 8d 45 b0          	lea    -0x50(%rbp),%rax
  404fdc:	48 89 c7             	mov    %rax,%rdi
  404fdf:	e8 34 ff ff ff       	callq  404f18 <_ZN2cl7ContextD1Ev>
  404fe4:	48 8d 45 a0          	lea    -0x60(%rbp),%rax
  404fe8:	48 89 c7             	mov    %rax,%rdi
  404feb:	e8 aa f7 ff ff       	callq  40479a <_ZN2cl8PlatformD1Ev>
  404ff0:	eb 5f                	jmp    405051 <_ZN2cl7Context11makeDefaultEv+0x11e>
  404ff2:	49 89 c4             	mov    %rax,%r12
  404ff5:	48 89 d3             	mov    %rdx,%rbx
  404ff8:	48 8d 45 b0          	lea    -0x50(%rbp),%rax
  404ffc:	48 89 c7             	mov    %rax,%rdi
  404fff:	e8 14 ff ff ff       	callq  404f18 <_ZN2cl7ContextD1Ev>
  405004:	eb 06                	jmp    40500c <_ZN2cl7Context11makeDefaultEv+0xd9>
  405006:	49 89 c4             	mov    %rax,%r12
  405009:	48 89 d3             	mov    %rdx,%rbx
  40500c:	48 8d 45 a0          	lea    -0x60(%rbp),%rax
  405010:	48 89 c7             	mov    %rax,%rdi
  405013:	e8 82 f7 ff ff       	callq  40479a <_ZN2cl8PlatformD1Ev>
  405018:	4c 89 e0             	mov    %r12,%rax
  40501b:	48 89 da             	mov    %rbx,%rdx
  40501e:	eb 00                	jmp    405020 <_ZN2cl7Context11makeDefaultEv+0xed>
  405020:	48 83 fa 01          	cmp    $0x1,%rdx
  405024:	74 08                	je     40502e <_ZN2cl7Context11makeDefaultEv+0xfb>
  405026:	48 89 c7             	mov    %rax,%rdi
  405029:	e8 e2 e4 ff ff       	callq  403510 <_Unwind_Resume@plt>
  40502e:	48 89 c7             	mov    %rax,%rdi
  405031:	e8 6a e1 ff ff       	callq  4031a0 <__cxa_begin_catch@plt>
  405036:	48 89 45 c8          	mov    %rax,-0x38(%rbp)
  40503a:	48 8b 45 c8          	mov    -0x38(%rbp),%rax
  40503e:	48 89 c7             	mov    %rax,%rdi
  405041:	e8 f4 f1 ff ff       	callq  40423a <_ZNK2cl5Error3errEv>
  405046:	89 05 f4 d5 20 00    	mov    %eax,0x20d5f4(%rip)        # 612640 <_ZN2cl7Context14default_error_E>
  40504c:	e8 1f e4 ff ff       	callq  403470 <__cxa_end_catch@plt>
  405051:	90                   	nop
  405052:	48 8b 45 e8          	mov    -0x18(%rbp),%rax
  405056:	64 48 33 04 25 28 00 	xor    %fs:0x28,%rax
  40505d:	00 00 
  40505f:	74 05                	je     405066 <_ZN2cl7Context11makeDefaultEv+0x133>
  405061:	e8 8a e2 ff ff       	callq  4032f0 <__stack_chk_fail@plt>
  405066:	48 83 c4 50          	add    $0x50,%rsp
  40506a:	5b                   	pop    %rbx
  40506b:	41 5c                	pop    %r12
  40506d:	5d                   	pop    %rbp
  40506e:	c3                   	retq   

000000000040506f <_ZN2cl7Context19makeDefaultProvidedERKS0_>:
  40506f:	55                   	push   %rbp
  405070:	48 89 e5             	mov    %rsp,%rbp
  405073:	48 83 ec 10          	sub    $0x10,%rsp
  405077:	48 89 7d f8          	mov    %rdi,-0x8(%rbp)
  40507b:	48 8b 45 f8          	mov    -0x8(%rbp),%rax
  40507f:	48 89 c6             	mov    %rax,%rsi
  405082:	bf 38 26 61 00       	mov    $0x612638,%edi
  405087:	e8 ba 03 00 00       	callq  405446 <_ZN2cl7ContextaSERKS0_>
  40508c:	90                   	nop
  40508d:	c9                   	leaveq 
  40508e:	c3                   	retq   
  40508f:	90                   	nop

0000000000405090 <_ZN2cl7ContextC1EmPlPFvPKcPKvmPvES6_Pi>:
  405090:	55                   	push   %rbp
  405091:	48 89 e5             	mov    %rsp,%rbp
  405094:	53                   	push   %rbx
  405095:	48 81 ec d8 00 00 00 	sub    $0xd8,%rsp
  40509c:	48 89 bd 48 ff ff ff 	mov    %rdi,-0xb8(%rbp)
  4050a3:	48 89 b5 40 ff ff ff 	mov    %rsi,-0xc0(%rbp)
  4050aa:	48 89 95 38 ff ff ff 	mov    %rdx,-0xc8(%rbp)
  4050b1:	48 89 8d 30 ff ff ff 	mov    %rcx,-0xd0(%rbp)
  4050b8:	4c 89 85 28 ff ff ff 	mov    %r8,-0xd8(%rbp)
  4050bf:	4c 89 8d 20 ff ff ff 	mov    %r9,-0xe0(%rbp)
  4050c6:	64 48 8b 04 25 28 00 	mov    %fs:0x28,%rax
  4050cd:	00 00 
  4050cf:	48 89 45 e8          	mov    %rax,-0x18(%rbp)
  4050d3:	31 c0                	xor    %eax,%eax
  4050d5:	48 8b 85 48 ff ff ff 	mov    -0xb8(%rbp),%rax
  4050dc:	48 89 c7             	mov    %rax,%rdi
  4050df:	e8 c2 23 00 00       	callq  4074a6 <_ZN2cl6detail7WrapperIP11_cl_contextEC1Ev>
  4050e4:	48 c7 45 c0 84 10 00 	movq   $0x1084,-0x40(%rbp)
  4050eb:	00 
  4050ec:	48 c7 45 c8 00 00 00 	movq   $0x0,-0x38(%rbp)
  4050f3:	00 
  4050f4:	48 c7 45 d0 00 00 00 	movq   $0x0,-0x30(%rbp)
  4050fb:	00 
  4050fc:	48 c7 45 d8 00 00 00 	movq   $0x0,-0x28(%rbp)
  405103:	00 
  405104:	48 83 bd 38 ff ff ff 	cmpq   $0x0,-0xc8(%rbp)
  40510b:	00 
  40510c:	0f 85 f3 01 00 00    	jne    405305 <_ZN2cl7ContextC1EmPlPFvPKcPKvmPvES6_Pi+0x275>
  405112:	48 8d 85 60 ff ff ff 	lea    -0xa0(%rbp),%rax
  405119:	48 89 c7             	mov    %rax,%rdi
  40511c:	e8 c1 23 00 00       	callq  4074e2 <_ZNSt6vectorIN2cl8PlatformESaIS1_EEC1Ev>
  405121:	48 8d 85 60 ff ff ff 	lea    -0xa0(%rbp),%rax
  405128:	48 89 c7             	mov    %rax,%rdi
  40512b:	e8 60 fb ff ff       	callq  404c90 <_ZN2cl8Platform3getEPSt6vectorIS0_SaIS0_EE>
  405130:	89 85 50 ff ff ff    	mov    %eax,-0xb0(%rbp)
  405136:	8b 85 50 ff ff ff    	mov    -0xb0(%rbp),%eax
  40513c:	85 c0                	test   %eax,%eax
  40513e:	74 35                	je     405175 <_ZN2cl7ContextC1EmPlPFvPKcPKvmPvES6_Pi+0xe5>
  405140:	8b 85 50 ff ff ff    	mov    -0xb0(%rbp),%eax
  405146:	be 31 bf 40 00       	mov    $0x40bf31,%esi
  40514b:	89 c7                	mov    %eax,%edi
  40514d:	e8 b4 e5 ff ff       	callq  403706 <_ZN2cl6detailL10errHandlerEiPKc>
  405152:	48 83 bd 20 ff ff ff 	cmpq   $0x0,-0xe0(%rbp)
  405159:	00 
  40515a:	74 0f                	je     40516b <_ZN2cl7ContextC1EmPlPFvPKcPKvmPvES6_Pi+0xdb>
  40515c:	8b 95 50 ff ff ff    	mov    -0xb0(%rbp),%edx
  405162:	48 8b 85 20 ff ff ff 	mov    -0xe0(%rbp),%rax
  405169:	89 10                	mov    %edx,(%rax)
  40516b:	bb 00 00 00 00       	mov    $0x0,%ebx
  405170:	e9 77 01 00 00       	jmpq   4052ec <_ZN2cl7ContextC1EmPlPFvPKcPKvmPvES6_Pi+0x25c>
  405175:	48 c7 85 58 ff ff ff 	movq   $0x0,-0xa8(%rbp)
  40517c:	00 00 00 00 
  405180:	c7 85 54 ff ff ff 00 	movl   $0x0,-0xac(%rbp)
  405187:	00 00 00 
  40518a:	8b 9d 54 ff ff ff    	mov    -0xac(%rbp),%ebx
  405190:	48 8d 85 60 ff ff ff 	lea    -0xa0(%rbp),%rax
  405197:	48 89 c7             	mov    %rax,%rdi
  40519a:	e8 a3 23 00 00       	callq  407542 <_ZNKSt6vectorIN2cl8PlatformESaIS1_EE4sizeEv>
  40519f:	48 39 c3             	cmp    %rax,%rbx
  4051a2:	0f 92 c0             	setb   %al
  4051a5:	84 c0                	test   %al,%al
  4051a7:	0f 84 ed 00 00 00    	je     40529a <_ZN2cl7ContextC1EmPlPFvPKcPKvmPvES6_Pi+0x20a>
  4051ad:	48 8d 45 80          	lea    -0x80(%rbp),%rax
  4051b1:	48 89 c7             	mov    %rax,%rdi
  4051b4:	e8 af 23 00 00       	callq  407568 <_ZNSt6vectorIN2cl6DeviceESaIS1_EEC1Ev>
  4051b9:	8b 95 54 ff ff ff    	mov    -0xac(%rbp),%edx
  4051bf:	48 8d 85 60 ff ff ff 	lea    -0xa0(%rbp),%rax
  4051c6:	48 89 d6             	mov    %rdx,%rsi
  4051c9:	48 89 c7             	mov    %rax,%rdi
  4051cc:	e8 57 22 00 00       	callq  407428 <_ZNSt6vectorIN2cl8PlatformESaIS1_EEixEm>
  4051d1:	48 89 c1             	mov    %rax,%rcx
  4051d4:	48 8d 55 80          	lea    -0x80(%rbp),%rdx
  4051d8:	48 8b 85 40 ff ff ff 	mov    -0xc0(%rbp),%rax
  4051df:	48 89 c6             	mov    %rax,%rsi
  4051e2:	48 89 cf             	mov    %rcx,%rdi
  4051e5:	e8 82 f8 ff ff       	callq  404a6c <_ZNK2cl8Platform10getDevicesEmPSt6vectorINS_6DeviceESaIS2_EE>
  4051ea:	89 85 50 ff ff ff    	mov    %eax,-0xb0(%rbp)
  4051f0:	8b 85 50 ff ff ff    	mov    -0xb0(%rbp),%eax
  4051f6:	85 c0                	test   %eax,%eax
  4051f8:	74 36                	je     405230 <_ZN2cl7ContextC1EmPlPFvPKcPKvmPvES6_Pi+0x1a0>
  4051fa:	8b 85 50 ff ff ff    	mov    -0xb0(%rbp),%eax
  405200:	83 f8 ff             	cmp    $0xffffffff,%eax
  405203:	74 2b                	je     405230 <_ZN2cl7ContextC1EmPlPFvPKcPKvmPvES6_Pi+0x1a0>
  405205:	8b 85 50 ff ff ff    	mov    -0xb0(%rbp),%eax
  40520b:	be 31 bf 40 00       	mov    $0x40bf31,%esi
  405210:	89 c7                	mov    %eax,%edi
  405212:	e8 ef e4 ff ff       	callq  403706 <_ZN2cl6detailL10errHandlerEiPKc>
  405217:	48 83 bd 20 ff ff ff 	cmpq   $0x0,-0xe0(%rbp)
  40521e:	00 
  40521f:	74 0f                	je     405230 <_ZN2cl7ContextC1EmPlPFvPKcPKvmPvES6_Pi+0x1a0>
  405221:	8b 95 50 ff ff ff    	mov    -0xb0(%rbp),%edx
  405227:	48 8b 85 20 ff ff ff 	mov    -0xe0(%rbp),%rax
  40522e:	89 10                	mov    %edx,(%rax)
  405230:	48 8d 45 80          	lea    -0x80(%rbp),%rax
  405234:	48 89 c7             	mov    %rax,%rdi
  405237:	e8 80 22 00 00       	callq  4074bc <_ZNKSt6vectorIN2cl6DeviceESaIS1_EE4sizeEv>
  40523c:	48 85 c0             	test   %rax,%rax
  40523f:	0f 95 c0             	setne  %al
  405242:	84 c0                	test   %al,%al
  405244:	74 31                	je     405277 <_ZN2cl7ContextC1EmPlPFvPKcPKvmPvES6_Pi+0x1e7>
  405246:	8b 95 54 ff ff ff    	mov    -0xac(%rbp),%edx
  40524c:	48 8d 85 60 ff ff ff 	lea    -0xa0(%rbp),%rax
  405253:	48 89 d6             	mov    %rdx,%rsi
  405256:	48 89 c7             	mov    %rax,%rdi
  405259:	e8 ca 21 00 00       	callq  407428 <_ZNSt6vectorIN2cl8PlatformESaIS1_EEixEm>
  40525e:	48 89 c7             	mov    %rax,%rdi
  405261:	e8 62 23 00 00       	callq  4075c8 <_ZN2cl6detail7WrapperIP15_cl_platform_idEclEv>
  405266:	48 8b 00             	mov    (%rax),%rax
  405269:	48 89 85 58 ff ff ff 	mov    %rax,-0xa8(%rbp)
  405270:	bb 00 00 00 00       	mov    $0x0,%ebx
  405275:	eb 05                	jmp    40527c <_ZN2cl7ContextC1EmPlPFvPKcPKvmPvES6_Pi+0x1ec>
  405277:	bb 01 00 00 00       	mov    $0x1,%ebx
  40527c:	48 8d 45 80          	lea    -0x80(%rbp),%rax
  405280:	48 89 c7             	mov    %rax,%rdi
  405283:	e8 fc 22 00 00       	callq  407584 <_ZNSt6vectorIN2cl6DeviceESaIS1_EED1Ev>
  405288:	83 fb 01             	cmp    $0x1,%ebx
  40528b:	75 0d                	jne    40529a <_ZN2cl7ContextC1EmPlPFvPKcPKvmPvES6_Pi+0x20a>
  40528d:	90                   	nop
  40528e:	83 85 54 ff ff ff 01 	addl   $0x1,-0xac(%rbp)
  405295:	e9 f0 fe ff ff       	jmpq   40518a <_ZN2cl7ContextC1EmPlPFvPKcPKvmPvES6_Pi+0xfa>
  40529a:	48 83 bd 58 ff ff ff 	cmpq   $0x0,-0xa8(%rbp)
  4052a1:	00 
  4052a2:	75 2d                	jne    4052d1 <_ZN2cl7ContextC1EmPlPFvPKcPKvmPvES6_Pi+0x241>
  4052a4:	be 31 bf 40 00       	mov    $0x40bf31,%esi
  4052a9:	bf ff ff ff ff       	mov    $0xffffffff,%edi
  4052ae:	e8 53 e4 ff ff       	callq  403706 <_ZN2cl6detailL10errHandlerEiPKc>
  4052b3:	48 83 bd 20 ff ff ff 	cmpq   $0x0,-0xe0(%rbp)
  4052ba:	00 
  4052bb:	74 0d                	je     4052ca <_ZN2cl7ContextC1EmPlPFvPKcPKvmPvES6_Pi+0x23a>
  4052bd:	48 8b 85 20 ff ff ff 	mov    -0xe0(%rbp),%rax
  4052c4:	c7 00 ff ff ff ff    	movl   $0xffffffff,(%rax)
  4052ca:	bb 00 00 00 00       	mov    $0x0,%ebx
  4052cf:	eb 1b                	jmp    4052ec <_ZN2cl7ContextC1EmPlPFvPKcPKvmPvES6_Pi+0x25c>
  4052d1:	48 8b 85 58 ff ff ff 	mov    -0xa8(%rbp),%rax
  4052d8:	48 89 45 c8          	mov    %rax,-0x38(%rbp)
  4052dc:	48 8d 45 c0          	lea    -0x40(%rbp),%rax
  4052e0:	48 89 85 38 ff ff ff 	mov    %rax,-0xc8(%rbp)
  4052e7:	bb 01 00 00 00       	mov    $0x1,%ebx
  4052ec:	48 8d 85 60 ff ff ff 	lea    -0xa0(%rbp),%rax
  4052f3:	48 89 c7             	mov    %rax,%rdi
  4052f6:	e8 03 22 00 00       	callq  4074fe <_ZNSt6vectorIN2cl8PlatformESaIS1_EED1Ev>
  4052fb:	83 fb 01             	cmp    $0x1,%ebx
  4052fe:	0f 85 fe 00 00 00    	jne    405402 <_ZN2cl7ContextC1EmPlPFvPKcPKvmPvES6_Pi+0x372>
  405304:	90                   	nop
  405305:	48 8d bd 50 ff ff ff 	lea    -0xb0(%rbp),%rdi
  40530c:	48 8b 8d 28 ff ff ff 	mov    -0xd8(%rbp),%rcx
  405313:	48 8b 95 30 ff ff ff 	mov    -0xd0(%rbp),%rdx
  40531a:	48 8b b5 40 ff ff ff 	mov    -0xc0(%rbp),%rsi
  405321:	48 8b 85 38 ff ff ff 	mov    -0xc8(%rbp),%rax
  405328:	49 89 f8             	mov    %rdi,%r8
  40532b:	48 89 c7             	mov    %rax,%rdi
  40532e:	e8 cd e1 ff ff       	callq  403500 <clCreateContextFromType@plt>
  405333:	48 89 c2             	mov    %rax,%rdx
  405336:	48 8b 85 48 ff ff ff 	mov    -0xb8(%rbp),%rax
  40533d:	48 89 10             	mov    %rdx,(%rax)
  405340:	8b 85 50 ff ff ff    	mov    -0xb0(%rbp),%eax
  405346:	be 31 bf 40 00       	mov    $0x40bf31,%esi
  40534b:	89 c7                	mov    %eax,%edi
  40534d:	e8 b4 e3 ff ff       	callq  403706 <_ZN2cl6detailL10errHandlerEiPKc>
  405352:	48 83 bd 20 ff ff ff 	cmpq   $0x0,-0xe0(%rbp)
  405359:	00 
  40535a:	0f 84 a2 00 00 00    	je     405402 <_ZN2cl7ContextC1EmPlPFvPKcPKvmPvES6_Pi+0x372>
  405360:	8b 95 50 ff ff ff    	mov    -0xb0(%rbp),%edx
  405366:	48 8b 85 20 ff ff ff 	mov    -0xe0(%rbp),%rax
  40536d:	89 10                	mov    %edx,(%rax)
  40536f:	e9 8e 00 00 00       	jmpq   405402 <_ZN2cl7ContextC1EmPlPFvPKcPKvmPvES6_Pi+0x372>
  405374:	48 89 c3             	mov    %rax,%rbx
  405377:	48 89 d0             	mov    %rdx,%rax
  40537a:	48 83 f8 01          	cmp    $0x1,%rax
  40537e:	74 02                	je     405382 <_ZN2cl7ContextC1EmPlPFvPKcPKvmPvES6_Pi+0x2f2>
  405380:	eb 41                	jmp    4053c3 <_ZN2cl7ContextC1EmPlPFvPKcPKvmPvES6_Pi+0x333>
  405382:	48 89 d8             	mov    %rbx,%rax
  405385:	48 89 c7             	mov    %rax,%rdi
  405388:	e8 e3 df ff ff       	callq  403370 <__cxa_get_exception_ptr@plt>
  40538d:	48 89 c2             	mov    %rax,%rdx
  405390:	48 8d 45 a0          	lea    -0x60(%rbp),%rax
  405394:	48 89 d6             	mov    %rdx,%rsi
  405397:	48 89 c7             	mov    %rax,%rdi
  40539a:	e8 c9 ee ff ff       	callq  404268 <_ZN2cl5ErrorC1ERKS0_>
  40539f:	48 89 d8             	mov    %rbx,%rax
  4053a2:	48 89 c7             	mov    %rax,%rdi
  4053a5:	e8 f6 dd ff ff       	callq  4031a0 <__cxa_begin_catch@plt>
  4053aa:	48 8d 45 a0          	lea    -0x60(%rbp),%rax
  4053ae:	48 89 c7             	mov    %rax,%rdi
  4053b1:	e8 fc ed ff ff       	callq  4041b2 <_ZN2cl5ErrorD1Ev>
  4053b6:	e8 b5 e0 ff ff       	callq  403470 <__cxa_end_catch@plt>
  4053bb:	e9 30 fe ff ff       	jmpq   4051f0 <_ZN2cl7ContextC1EmPlPFvPKcPKvmPvES6_Pi+0x160>
  4053c0:	48 89 c3             	mov    %rax,%rbx
  4053c3:	48 8d 45 80          	lea    -0x80(%rbp),%rax
  4053c7:	48 89 c7             	mov    %rax,%rdi
  4053ca:	e8 b5 21 00 00       	callq  407584 <_ZNSt6vectorIN2cl6DeviceESaIS1_EED1Ev>
  4053cf:	eb 03                	jmp    4053d4 <_ZN2cl7ContextC1EmPlPFvPKcPKvmPvES6_Pi+0x344>
  4053d1:	48 89 c3             	mov    %rax,%rbx
  4053d4:	48 8d 85 60 ff ff ff 	lea    -0xa0(%rbp),%rax
  4053db:	48 89 c7             	mov    %rax,%rdi
  4053de:	e8 1b 21 00 00       	callq  4074fe <_ZNSt6vectorIN2cl8PlatformESaIS1_EED1Ev>
  4053e3:	eb 03                	jmp    4053e8 <_ZN2cl7ContextC1EmPlPFvPKcPKvmPvES6_Pi+0x358>
  4053e5:	48 89 c3             	mov    %rax,%rbx
  4053e8:	48 8b 85 48 ff ff ff 	mov    -0xb8(%rbp),%rax
  4053ef:	48 89 c7             	mov    %rax,%rdi
  4053f2:	e8 87 20 00 00       	callq  40747e <_ZN2cl6detail7WrapperIP11_cl_contextED1Ev>
  4053f7:	48 89 d8             	mov    %rbx,%rax
  4053fa:	48 89 c7             	mov    %rax,%rdi
  4053fd:	e8 0e e1 ff ff       	callq  403510 <_Unwind_Resume@plt>
  405402:	48 8b 45 e8          	mov    -0x18(%rbp),%rax
  405406:	64 48 33 04 25 28 00 	xor    %fs:0x28,%rax
  40540d:	00 00 
  40540f:	74 05                	je     405416 <_ZN2cl7ContextC1EmPlPFvPKcPKvmPvES6_Pi+0x386>
  405411:	e8 da de ff ff       	callq  4032f0 <__stack_chk_fail@plt>
  405416:	48 81 c4 d8 00 00 00 	add    $0xd8,%rsp
  40541d:	5b                   	pop    %rbx
  40541e:	5d                   	pop    %rbp
  40541f:	c3                   	retq   

0000000000405420 <_ZN2cl7ContextC1ERKS0_>:
  405420:	55                   	push   %rbp
  405421:	48 89 e5             	mov    %rsp,%rbp
  405424:	48 83 ec 10          	sub    $0x10,%rsp
  405428:	48 89 7d f8          	mov    %rdi,-0x8(%rbp)
  40542c:	48 89 75 f0          	mov    %rsi,-0x10(%rbp)
  405430:	48 8b 55 f0          	mov    -0x10(%rbp),%rdx
  405434:	48 8b 45 f8          	mov    -0x8(%rbp),%rax
  405438:	48 89 d6             	mov    %rdx,%rsi
  40543b:	48 89 c7             	mov    %rax,%rdi
  40543e:	e8 93 21 00 00       	callq  4075d6 <_ZN2cl6detail7WrapperIP11_cl_contextEC1ERKS4_>
  405443:	90                   	nop
  405444:	c9                   	leaveq 
  405445:	c3                   	retq   

0000000000405446 <_ZN2cl7ContextaSERKS0_>:
  405446:	55                   	push   %rbp
  405447:	48 89 e5             	mov    %rsp,%rbp
  40544a:	48 83 ec 10          	sub    $0x10,%rsp
  40544e:	48 89 7d f8          	mov    %rdi,-0x8(%rbp)
  405452:	48 89 75 f0          	mov    %rsi,-0x10(%rbp)
  405456:	48 8b 55 f0          	mov    -0x10(%rbp),%rdx
  40545a:	48 8b 45 f8          	mov    -0x8(%rbp),%rax
  40545e:	48 89 d6             	mov    %rdx,%rsi
  405461:	48 89 c7             	mov    %rax,%rdi
  405464:	e8 a7 21 00 00       	callq  407610 <_ZN2cl6detail7WrapperIP11_cl_contextEaSERKS4_>
  405469:	48 8b 45 f8          	mov    -0x8(%rbp),%rax
  40546d:	c9                   	leaveq 
  40546e:	c3                   	retq   

000000000040546f <_ZSt4moveIRN2cl7ContextEEONSt16remove_referenceIT_E4typeEOS4_>:
  40546f:	55                   	push   %rbp
  405470:	48 89 e5             	mov    %rsp,%rbp
  405473:	48 89 7d f8          	mov    %rdi,-0x8(%rbp)
  405477:	48 8b 45 f8          	mov    -0x8(%rbp),%rax
  40547b:	5d                   	pop    %rbp
  40547c:	c3                   	retq   
  40547d:	90                   	nop

000000000040547e <_ZN2cl7ContextaSEOS0_>:
  40547e:	55                   	push   %rbp
  40547f:	48 89 e5             	mov    %rsp,%rbp
  405482:	48 83 ec 10          	sub    $0x10,%rsp
  405486:	48 89 7d f8          	mov    %rdi,-0x8(%rbp)
  40548a:	48 89 75 f0          	mov    %rsi,-0x10(%rbp)
  40548e:	48 8b 45 f0          	mov    -0x10(%rbp),%rax
  405492:	48 89 c7             	mov    %rax,%rdi
  405495:	e8 d5 ff ff ff       	callq  40546f <_ZSt4moveIRN2cl7ContextEEONSt16remove_referenceIT_E4typeEOS4_>
  40549a:	48 89 c2             	mov    %rax,%rdx
  40549d:	48 8b 45 f8          	mov    -0x8(%rbp),%rax
  4054a1:	48 89 d6             	mov    %rdx,%rsi
  4054a4:	48 89 c7             	mov    %rax,%rdi
  4054a7:	e8 c2 21 00 00       	callq  40766e <_ZN2cl6detail7WrapperIP11_cl_contextEaSEOS4_>
  4054ac:	48 8b 45 f8          	mov    -0x8(%rbp),%rax
  4054b0:	c9                   	leaveq 
  4054b1:	c3                   	retq   

00000000004054b2 <_ZN2cl7Context10getDefaultEPi>:
  4054b2:	55                   	push   %rbp
  4054b3:	48 89 e5             	mov    %rsp,%rbp
  4054b6:	48 83 ec 10          	sub    $0x10,%rsp
  4054ba:	48 89 7d f8          	mov    %rdi,-0x8(%rbp)
  4054be:	48 89 75 f0          	mov    %rsi,-0x10(%rbp)
  4054c2:	be 33 4f 40 00       	mov    $0x404f33,%esi
  4054c7:	bf 34 26 61 00       	mov    $0x612634,%edi
  4054cc:	e8 e0 19 00 00       	callq  406eb1 <_ZSt9call_onceIRFvvEIEEvRSt9once_flagOT_DpOT0_>
  4054d1:	8b 05 69 d1 20 00    	mov    0x20d169(%rip),%eax        # 612640 <_ZN2cl7Context14default_error_E>
  4054d7:	be 00 00 00 00       	mov    $0x0,%esi
  4054dc:	89 c7                	mov    %eax,%edi
  4054de:	e8 23 e2 ff ff       	callq  403706 <_ZN2cl6detailL10errHandlerEiPKc>
  4054e3:	48 83 7d f0 00       	cmpq   $0x0,-0x10(%rbp)
  4054e8:	74 0c                	je     4054f6 <_ZN2cl7Context10getDefaultEPi+0x44>
  4054ea:	8b 15 50 d1 20 00    	mov    0x20d150(%rip),%edx        # 612640 <_ZN2cl7Context14default_error_E>
  4054f0:	48 8b 45 f0          	mov    -0x10(%rbp),%rax
  4054f4:	89 10                	mov    %edx,(%rax)
  4054f6:	48 8b 45 f8          	mov    -0x8(%rbp),%rax
  4054fa:	be 38 26 61 00       	mov    $0x612638,%esi
  4054ff:	48 89 c7             	mov    %rax,%rdi
  405502:	e8 19 ff ff ff       	callq  405420 <_ZN2cl7ContextC1ERKS0_>
  405507:	48 8b 45 f8          	mov    -0x8(%rbp),%rax
  40550b:	c9                   	leaveq 
  40550c:	c3                   	retq   

000000000040550d <_ZN2cl7Context10setDefaultERKS0_>:
  40550d:	55                   	push   %rbp
  40550e:	48 89 e5             	mov    %rsp,%rbp
  405511:	48 83 ec 20          	sub    $0x20,%rsp
  405515:	48 89 7d e8          	mov    %rdi,-0x18(%rbp)
  405519:	48 89 75 e0          	mov    %rsi,-0x20(%rbp)
  40551d:	64 48 8b 04 25 28 00 	mov    %fs:0x28,%rax
  405524:	00 00 
  405526:	48 89 45 f8          	mov    %rax,-0x8(%rbp)
  40552a:	31 c0                	xor    %eax,%eax
  40552c:	48 8b 45 e0          	mov    -0x20(%rbp),%rax
  405530:	48 89 c7             	mov    %rax,%rdi
  405533:	e8 87 21 00 00       	callq  4076bf <_ZSt4crefIN2cl7ContextEESt17reference_wrapperIKT_ERS4_>
  405538:	48 89 45 f0          	mov    %rax,-0x10(%rbp)
  40553c:	48 8d 45 f0          	lea    -0x10(%rbp),%rax
  405540:	48 89 c2             	mov    %rax,%rdx
  405543:	be 6f 50 40 00       	mov    $0x40506f,%esi
  405548:	bf 34 26 61 00       	mov    $0x612634,%edi
  40554d:	e8 89 22 00 00       	callq  4077db <_ZSt9call_onceIRFvRKN2cl7ContextEEISt17reference_wrapperIS2_EEEvRSt9once_flagOT_DpOT0_>
  405552:	8b 05 e8 d0 20 00    	mov    0x20d0e8(%rip),%eax        # 612640 <_ZN2cl7Context14default_error_E>
  405558:	be 00 00 00 00       	mov    $0x0,%esi
  40555d:	89 c7                	mov    %eax,%edi
  40555f:	e8 a2 e1 ff ff       	callq  403706 <_ZN2cl6detailL10errHandlerEiPKc>
  405564:	48 8b 45 e8          	mov    -0x18(%rbp),%rax
  405568:	be 38 26 61 00       	mov    $0x612638,%esi
  40556d:	48 89 c7             	mov    %rax,%rdi
  405570:	e8 ab fe ff ff       	callq  405420 <_ZN2cl7ContextC1ERKS0_>
  405575:	48 8b 45 e8          	mov    -0x18(%rbp),%rax
  405579:	48 8b 4d f8          	mov    -0x8(%rbp),%rcx
  40557d:	64 48 33 0c 25 28 00 	xor    %fs:0x28,%rcx
  405584:	00 00 
  405586:	74 05                	je     40558d <_ZN2cl7Context10setDefaultERKS0_+0x80>
  405588:	e8 63 dd ff ff       	callq  4032f0 <__stack_chk_fail@plt>
  40558d:	c9                   	leaveq 
  40558e:	c3                   	retq   
  40558f:	90                   	nop

0000000000405590 <_ZN2cl7ContextC1Ev>:
  405590:	55                   	push   %rbp
  405591:	48 89 e5             	mov    %rsp,%rbp
  405594:	48 83 ec 10          	sub    $0x10,%rsp
  405598:	48 89 7d f8          	mov    %rdi,-0x8(%rbp)
  40559c:	48 8b 45 f8          	mov    -0x8(%rbp),%rax
  4055a0:	48 89 c7             	mov    %rax,%rdi
  4055a3:	e8 fe 1e 00 00       	callq  4074a6 <_ZN2cl6detail7WrapperIP11_cl_contextEC1Ev>
  4055a8:	90                   	nop
  4055a9:	c9                   	leaveq 
  4055aa:	c3                   	retq   
  4055ab:	90                   	nop

00000000004055ac <_ZN2cl6Device11makeDefaultEv>:
  4055ac:	55                   	push   %rbp
  4055ad:	48 89 e5             	mov    %rsp,%rbp
  4055b0:	41 54                	push   %r12
  4055b2:	53                   	push   %rbx
  4055b3:	48 83 ec 40          	sub    $0x40,%rsp
  4055b7:	64 48 8b 04 25 28 00 	mov    %fs:0x28,%rax
  4055be:	00 00 
  4055c0:	48 89 45 e8          	mov    %rax,-0x18(%rbp)
  4055c4:	31 c0                	xor    %eax,%eax
  4055c6:	c7 45 bc 00 00 00 00 	movl   $0x0,-0x44(%rbp)
  4055cd:	48 8d 45 c0          	lea    -0x40(%rbp),%rax
  4055d1:	48 8d 55 bc          	lea    -0x44(%rbp),%rdx
  4055d5:	48 89 d6             	mov    %rdx,%rsi
  4055d8:	48 89 c7             	mov    %rax,%rdi
  4055db:	e8 d2 fe ff ff       	callq  4054b2 <_ZN2cl7Context10getDefaultEPi>
  4055e0:	8b 45 bc             	mov    -0x44(%rbp),%eax
  4055e3:	be 49 bf 40 00       	mov    $0x40bf49,%esi
  4055e8:	89 c7                	mov    %eax,%edi
  4055ea:	e8 17 e1 ff ff       	callq  403706 <_ZN2cl6detailL10errHandlerEiPKc>
  4055ef:	8b 45 bc             	mov    -0x44(%rbp),%eax
  4055f2:	85 c0                	test   %eax,%eax
  4055f4:	74 0b                	je     405601 <_ZN2cl6Device11makeDefaultEv+0x55>
  4055f6:	8b 45 bc             	mov    -0x44(%rbp),%eax
  4055f9:	89 05 21 d0 20 00    	mov    %eax,0x20d021(%rip)        # 612620 <_ZN2cl6Device14default_error_E>
  4055ff:	eb 4c                	jmp    40564d <_ZN2cl6Device11makeDefaultEv+0xa1>
  405601:	48 8d 45 d0          	lea    -0x30(%rbp),%rax
  405605:	48 8d 4d c0          	lea    -0x40(%rbp),%rcx
  405609:	ba 00 00 00 00       	mov    $0x0,%edx
  40560e:	48 89 ce             	mov    %rcx,%rsi
  405611:	48 89 c7             	mov    %rax,%rdi
  405614:	e8 7f 22 00 00       	callq  407898 <_ZNK2cl7Context7getInfoILi4225EEENS_6detail12param_traitsINS2_15cl_context_infoEXT_EE10param_typeEPi>
  405619:	48 8d 45 d0          	lea    -0x30(%rbp),%rax
  40561d:	be 00 00 00 00       	mov    $0x0,%esi
  405622:	48 89 c7             	mov    %rax,%rdi
  405625:	e8 0c 1d 00 00       	callq  407336 <_ZNSt6vectorIN2cl6DeviceESaIS1_EEixEm>
  40562a:	48 89 c6             	mov    %rax,%rsi
  40562d:	bf 10 26 61 00       	mov    $0x612610,%edi
  405632:	e8 c5 f0 ff ff       	callq  4046fc <_ZN2cl6DeviceaSERKS0_>
  405637:	48 8d 45 d0          	lea    -0x30(%rbp),%rax
  40563b:	48 89 c7             	mov    %rax,%rdi
  40563e:	e8 41 1f 00 00       	callq  407584 <_ZNSt6vectorIN2cl6DeviceESaIS1_EED1Ev>
  405643:	c7 05 d3 cf 20 00 00 	movl   $0x0,0x20cfd3(%rip)        # 612620 <_ZN2cl6Device14default_error_E>
  40564a:	00 00 00 
  40564d:	48 8d 45 c0          	lea    -0x40(%rbp),%rax
  405651:	48 89 c7             	mov    %rax,%rdi
  405654:	e8 bf f8 ff ff       	callq  404f18 <_ZN2cl7ContextD1Ev>
  405659:	eb 5f                	jmp    4056ba <_ZN2cl6Device11makeDefaultEv+0x10e>
  40565b:	49 89 c4             	mov    %rax,%r12
  40565e:	48 89 d3             	mov    %rdx,%rbx
  405661:	48 8d 45 d0          	lea    -0x30(%rbp),%rax
  405665:	48 89 c7             	mov    %rax,%rdi
  405668:	e8 17 1f 00 00       	callq  407584 <_ZNSt6vectorIN2cl6DeviceESaIS1_EED1Ev>
  40566d:	eb 06                	jmp    405675 <_ZN2cl6Device11makeDefaultEv+0xc9>
  40566f:	49 89 c4             	mov    %rax,%r12
  405672:	48 89 d3             	mov    %rdx,%rbx
  405675:	48 8d 45 c0          	lea    -0x40(%rbp),%rax
  405679:	48 89 c7             	mov    %rax,%rdi
  40567c:	e8 97 f8 ff ff       	callq  404f18 <_ZN2cl7ContextD1Ev>
  405681:	4c 89 e0             	mov    %r12,%rax
  405684:	48 89 da             	mov    %rbx,%rdx
  405687:	eb 00                	jmp    405689 <_ZN2cl6Device11makeDefaultEv+0xdd>
  405689:	48 83 fa 01          	cmp    $0x1,%rdx
  40568d:	74 08                	je     405697 <_ZN2cl6Device11makeDefaultEv+0xeb>
  40568f:	48 89 c7             	mov    %rax,%rdi
  405692:	e8 79 de ff ff       	callq  403510 <_Unwind_Resume@plt>
  405697:	48 89 c7             	mov    %rax,%rdi
  40569a:	e8 01 db ff ff       	callq  4031a0 <__cxa_begin_catch@plt>
  40569f:	48 89 45 c8          	mov    %rax,-0x38(%rbp)
  4056a3:	48 8b 45 c8          	mov    -0x38(%rbp),%rax
  4056a7:	48 89 c7             	mov    %rax,%rdi
  4056aa:	e8 8b eb ff ff       	callq  40423a <_ZNK2cl5Error3errEv>
  4056af:	89 05 6b cf 20 00    	mov    %eax,0x20cf6b(%rip)        # 612620 <_ZN2cl6Device14default_error_E>
  4056b5:	e8 b6 dd ff ff       	callq  403470 <__cxa_end_catch@plt>
  4056ba:	90                   	nop
  4056bb:	48 8b 45 e8          	mov    -0x18(%rbp),%rax
  4056bf:	64 48 33 04 25 28 00 	xor    %fs:0x28,%rax
  4056c6:	00 00 
  4056c8:	74 05                	je     4056cf <_ZN2cl6Device11makeDefaultEv+0x123>
  4056ca:	e8 21 dc ff ff       	callq  4032f0 <__stack_chk_fail@plt>
  4056cf:	48 83 c4 40          	add    $0x40,%rsp
  4056d3:	5b                   	pop    %rbx
  4056d4:	41 5c                	pop    %r12
  4056d6:	5d                   	pop    %rbp
  4056d7:	c3                   	retq   

00000000004056d8 <_ZN2cl7NDRangeC1Ev>:
  4056d8:	55                   	push   %rbp
  4056d9:	48 89 e5             	mov    %rsp,%rbp
  4056dc:	48 89 7d f8          	mov    %rdi,-0x8(%rbp)
  4056e0:	48 8b 45 f8          	mov    -0x8(%rbp),%rax
  4056e4:	c7 40 18 00 00 00 00 	movl   $0x0,0x18(%rax)
  4056eb:	48 8b 45 f8          	mov    -0x8(%rbp),%rax
  4056ef:	48 c7 00 00 00 00 00 	movq   $0x0,(%rax)
  4056f6:	48 8b 45 f8          	mov    -0x8(%rbp),%rax
  4056fa:	48 c7 40 08 00 00 00 	movq   $0x0,0x8(%rax)
  405701:	00 
  405702:	48 8b 45 f8          	mov    -0x8(%rbp),%rax
  405706:	48 c7 40 10 00 00 00 	movq   $0x0,0x10(%rax)
  40570d:	00 
  40570e:	90                   	nop
  40570f:	5d                   	pop    %rbp
  405710:	c3                   	retq   
  405711:	90                   	nop

0000000000405712 <_ZN2cl7NDRangeC1Emm>:
  405712:	55                   	push   %rbp
  405713:	48 89 e5             	mov    %rsp,%rbp
  405716:	48 89 7d f8          	mov    %rdi,-0x8(%rbp)
  40571a:	48 89 75 f0          	mov    %rsi,-0x10(%rbp)
  40571e:	48 89 55 e8          	mov    %rdx,-0x18(%rbp)
  405722:	48 8b 45 f8          	mov    -0x8(%rbp),%rax
  405726:	c7 40 18 02 00 00 00 	movl   $0x2,0x18(%rax)
  40572d:	48 8b 45 f8          	mov    -0x8(%rbp),%rax
  405731:	48 8b 55 f0          	mov    -0x10(%rbp),%rdx
  405735:	48 89 10             	mov    %rdx,(%rax)
  405738:	48 8b 45 f8          	mov    -0x8(%rbp),%rax
  40573c:	48 8b 55 e8          	mov    -0x18(%rbp),%rdx
  405740:	48 89 50 08          	mov    %rdx,0x8(%rax)
  405744:	48 8b 45 f8          	mov    -0x8(%rbp),%rax
  405748:	48 c7 40 10 01 00 00 	movq   $0x1,0x10(%rax)
  40574f:	00 
  405750:	90                   	nop
  405751:	5d                   	pop    %rbp
  405752:	c3                   	retq   
  405753:	90                   	nop

0000000000405754 <_ZN2cl6KernelD1Ev>:
  405754:	55                   	push   %rbp
  405755:	48 89 e5             	mov    %rsp,%rbp
  405758:	48 83 ec 10          	sub    $0x10,%rsp
  40575c:	48 89 7d f8          	mov    %rdi,-0x8(%rbp)
  405760:	48 8b 45 f8          	mov    -0x8(%rbp),%rax
  405764:	48 89 c7             	mov    %rax,%rdi
  405767:	e8 ce 21 00 00       	callq  40793a <_ZN2cl6detail7WrapperIP10_cl_kernelED1Ev>
  40576c:	90                   	nop
  40576d:	c9                   	leaveq 
  40576e:	c3                   	retq   
  40576f:	90                   	nop

0000000000405770 <_ZN2cl12CommandQueueD1Ev>:
  405770:	55                   	push   %rbp
  405771:	48 89 e5             	mov    %rsp,%rbp
  405774:	48 83 ec 10          	sub    $0x10,%rsp
  405778:	48 89 7d f8          	mov    %rdi,-0x8(%rbp)
  40577c:	48 8b 45 f8          	mov    -0x8(%rbp),%rax
  405780:	48 89 c7             	mov    %rax,%rdi
  405783:	e8 da 21 00 00       	callq  407962 <_ZN2cl6detail7WrapperIP17_cl_command_queueED1Ev>
  405788:	90                   	nop
  405789:	c9                   	leaveq 
  40578a:	c3                   	retq   

000000000040578b <_ZN2cl12CommandQueue11makeDefaultEv>:
  40578b:	55                   	push   %rbp
  40578c:	48 89 e5             	mov    %rsp,%rbp
  40578f:	41 54                	push   %r12
  405791:	53                   	push   %rbx
  405792:	48 83 ec 50          	sub    $0x50,%rsp
  405796:	64 48 8b 04 25 28 00 	mov    %fs:0x28,%rax
  40579d:	00 00 
  40579f:	48 89 45 e8          	mov    %rax,-0x18(%rbp)
  4057a3:	31 c0                	xor    %eax,%eax
  4057a5:	48 8d 45 b0          	lea    -0x50(%rbp),%rax
  4057a9:	48 8d 55 ac          	lea    -0x54(%rbp),%rdx
  4057ad:	48 89 d6             	mov    %rdx,%rsi
  4057b0:	48 89 c7             	mov    %rax,%rdi
  4057b3:	e8 fa fc ff ff       	callq  4054b2 <_ZN2cl7Context10getDefaultEPi>
  4057b8:	8b 45 ac             	mov    -0x54(%rbp),%eax
  4057bb:	85 c0                	test   %eax,%eax
  4057bd:	74 0b                	je     4057ca <_ZN2cl12CommandQueue11makeDefaultEv+0x3f>
  4057bf:	8b 45 ac             	mov    -0x54(%rbp),%eax
  4057c2:	89 05 88 ce 20 00    	mov    %eax,0x20ce88(%rip)        # 612650 <_ZN2cl12CommandQueue14default_error_E>
  4057c8:	eb 59                	jmp    405823 <_ZN2cl12CommandQueue11makeDefaultEv+0x98>
  4057ca:	48 8d 45 d0          	lea    -0x30(%rbp),%rax
  4057ce:	be 00 00 00 00       	mov    $0x0,%esi
  4057d3:	48 89 c7             	mov    %rax,%rdi
  4057d6:	e8 a0 ee ff ff       	callq  40467b <_ZN2cl6Device10getDefaultEPi>
  4057db:	48 8d 55 d0          	lea    -0x30(%rbp),%rdx
  4057df:	48 8d 75 b0          	lea    -0x50(%rbp),%rsi
  4057e3:	48 8d 45 c0          	lea    -0x40(%rbp),%rax
  4057e7:	41 b8 50 26 61 00    	mov    $0x612650,%r8d
  4057ed:	b9 00 00 00 00       	mov    $0x0,%ecx
  4057f2:	48 89 c7             	mov    %rax,%rdi
  4057f5:	e8 c8 00 00 00       	callq  4058c2 <_ZN2cl12CommandQueueC1ERKNS_7ContextERKNS_6DeviceEmPi>
  4057fa:	48 8d 45 c0          	lea    -0x40(%rbp),%rax
  4057fe:	48 89 c6             	mov    %rax,%rsi
  405801:	bf 48 26 61 00       	mov    $0x612648,%edi
  405806:	e8 2d 02 00 00       	callq  405a38 <_ZN2cl12CommandQueueaSEOS0_>
  40580b:	48 8d 45 c0          	lea    -0x40(%rbp),%rax
  40580f:	48 89 c7             	mov    %rax,%rdi
  405812:	e8 59 ff ff ff       	callq  405770 <_ZN2cl12CommandQueueD1Ev>
  405817:	48 8d 45 d0          	lea    -0x30(%rbp),%rax
  40581b:	48 89 c7             	mov    %rax,%rdi
  40581e:	e8 3d ee ff ff       	callq  404660 <_ZN2cl6DeviceD1Ev>
  405823:	48 8d 45 b0          	lea    -0x50(%rbp),%rax
  405827:	48 89 c7             	mov    %rax,%rdi
  40582a:	e8 e9 f6 ff ff       	callq  404f18 <_ZN2cl7ContextD1Ev>
  40582f:	eb 73                	jmp    4058a4 <_ZN2cl12CommandQueue11makeDefaultEv+0x119>
  405831:	49 89 c4             	mov    %rax,%r12
  405834:	48 89 d3             	mov    %rdx,%rbx
  405837:	48 8d 45 c0          	lea    -0x40(%rbp),%rax
  40583b:	48 89 c7             	mov    %rax,%rdi
  40583e:	e8 2d ff ff ff       	callq  405770 <_ZN2cl12CommandQueueD1Ev>
  405843:	eb 06                	jmp    40584b <_ZN2cl12CommandQueue11makeDefaultEv+0xc0>
  405845:	49 89 c4             	mov    %rax,%r12
  405848:	48 89 d3             	mov    %rdx,%rbx
  40584b:	48 8d 45 d0          	lea    -0x30(%rbp),%rax
  40584f:	48 89 c7             	mov    %rax,%rdi
  405852:	e8 09 ee ff ff       	callq  404660 <_ZN2cl6DeviceD1Ev>
  405857:	eb 06                	jmp    40585f <_ZN2cl12CommandQueue11makeDefaultEv+0xd4>
  405859:	49 89 c4             	mov    %rax,%r12
  40585c:	48 89 d3             	mov    %rdx,%rbx
  40585f:	48 8d 45 b0          	lea    -0x50(%rbp),%rax
  405863:	48 89 c7             	mov    %rax,%rdi
  405866:	e8 ad f6 ff ff       	callq  404f18 <_ZN2cl7ContextD1Ev>
  40586b:	4c 89 e0             	mov    %r12,%rax
  40586e:	48 89 da             	mov    %rbx,%rdx
  405871:	eb 00                	jmp    405873 <_ZN2cl12CommandQueue11makeDefaultEv+0xe8>
  405873:	48 83 fa 01          	cmp    $0x1,%rdx
  405877:	74 08                	je     405881 <_ZN2cl12CommandQueue11makeDefaultEv+0xf6>
  405879:	48 89 c7             	mov    %rax,%rdi
  40587c:	e8 8f dc ff ff       	callq  403510 <_Unwind_Resume@plt>
  405881:	48 89 c7             	mov    %rax,%rdi
  405884:	e8 17 d9 ff ff       	callq  4031a0 <__cxa_begin_catch@plt>
  405889:	48 89 45 c8          	mov    %rax,-0x38(%rbp)
  40588d:	48 8b 45 c8          	mov    -0x38(%rbp),%rax
  405891:	48 89 c7             	mov    %rax,%rdi
  405894:	e8 a1 e9 ff ff       	callq  40423a <_ZNK2cl5Error3errEv>
  405899:	89 05 b1 cd 20 00    	mov    %eax,0x20cdb1(%rip)        # 612650 <_ZN2cl12CommandQueue14default_error_E>
  40589f:	e8 cc db ff ff       	callq  403470 <__cxa_end_catch@plt>
  4058a4:	90                   	nop
  4058a5:	48 8b 45 e8          	mov    -0x18(%rbp),%rax
  4058a9:	64 48 33 04 25 28 00 	xor    %fs:0x28,%rax
  4058b0:	00 00 
  4058b2:	74 05                	je     4058b9 <_ZN2cl12CommandQueue11makeDefaultEv+0x12e>
  4058b4:	e8 37 da ff ff       	callq  4032f0 <__stack_chk_fail@plt>
  4058b9:	48 83 c4 50          	add    $0x50,%rsp
  4058bd:	5b                   	pop    %rbx
  4058be:	41 5c                	pop    %r12
  4058c0:	5d                   	pop    %rbp
  4058c1:	c3                   	retq   

00000000004058c2 <_ZN2cl12CommandQueueC1ERKNS_7ContextERKNS_6DeviceEmPi>:
  4058c2:	55                   	push   %rbp
  4058c3:	48 89 e5             	mov    %rsp,%rbp
  4058c6:	53                   	push   %rbx
  4058c7:	48 83 ec 48          	sub    $0x48,%rsp
  4058cb:	48 89 7d d8          	mov    %rdi,-0x28(%rbp)
  4058cf:	48 89 75 d0          	mov    %rsi,-0x30(%rbp)
  4058d3:	48 89 55 c8          	mov    %rdx,-0x38(%rbp)
  4058d7:	48 89 4d c0          	mov    %rcx,-0x40(%rbp)
  4058db:	4c 89 45 b8          	mov    %r8,-0x48(%rbp)
  4058df:	64 48 8b 04 25 28 00 	mov    %fs:0x28,%rax
  4058e6:	00 00 
  4058e8:	48 89 45 e8          	mov    %rax,-0x18(%rbp)
  4058ec:	31 c0                	xor    %eax,%eax
  4058ee:	48 8b 45 d8          	mov    -0x28(%rbp),%rax
  4058f2:	48 89 c7             	mov    %rax,%rdi
  4058f5:	e8 90 20 00 00       	callq  40798a <_ZN2cl6detail7WrapperIP17_cl_command_queueEC1Ev>
  4058fa:	48 8b 45 c8          	mov    -0x38(%rbp),%rax
  4058fe:	48 89 c7             	mov    %rax,%rdi
  405901:	e8 88 ec ff ff       	callq  40458e <_ZNK2cl6detail7WrapperIP13_cl_device_idEclEv>
  405906:	48 8b 18             	mov    (%rax),%rbx
  405909:	48 8b 45 d0          	mov    -0x30(%rbp),%rax
  40590d:	48 89 c7             	mov    %rax,%rdi
  405910:	e8 17 20 00 00       	callq  40792c <_ZNK2cl6detail7WrapperIP11_cl_contextEclEv>
  405915:	48 8b 00             	mov    (%rax),%rax
  405918:	48 8d 4d e4          	lea    -0x1c(%rbp),%rcx
  40591c:	48 8b 55 c0          	mov    -0x40(%rbp),%rdx
  405920:	48 89 de             	mov    %rbx,%rsi
  405923:	48 89 c7             	mov    %rax,%rdi
  405926:	e8 95 db ff ff       	callq  4034c0 <clCreateCommandQueue@plt>
  40592b:	48 89 c2             	mov    %rax,%rdx
  40592e:	48 8b 45 d8          	mov    -0x28(%rbp),%rax
  405932:	48 89 10             	mov    %rdx,(%rax)
  405935:	8b 45 e4             	mov    -0x1c(%rbp),%eax
  405938:	be 59 bf 40 00       	mov    $0x40bf59,%esi
  40593d:	89 c7                	mov    %eax,%edi
  40593f:	e8 c2 dd ff ff       	callq  403706 <_ZN2cl6detailL10errHandlerEiPKc>
  405944:	48 83 7d b8 00       	cmpq   $0x0,-0x48(%rbp)
  405949:	74 25                	je     405970 <_ZN2cl12CommandQueueC1ERKNS_7ContextERKNS_6DeviceEmPi+0xae>
  40594b:	8b 55 e4             	mov    -0x1c(%rbp),%edx
  40594e:	48 8b 45 b8          	mov    -0x48(%rbp),%rax
  405952:	89 10                	mov    %edx,(%rax)
  405954:	eb 1a                	jmp    405970 <_ZN2cl12CommandQueueC1ERKNS_7ContextERKNS_6DeviceEmPi+0xae>
  405956:	48 89 c3             	mov    %rax,%rbx
  405959:	48 8b 45 d8          	mov    -0x28(%rbp),%rax
  40595d:	48 89 c7             	mov    %rax,%rdi
  405960:	e8 fd 1f 00 00       	callq  407962 <_ZN2cl6detail7WrapperIP17_cl_command_queueED1Ev>
  405965:	48 89 d8             	mov    %rbx,%rax
  405968:	48 89 c7             	mov    %rax,%rdi
  40596b:	e8 a0 db ff ff       	callq  403510 <_Unwind_Resume@plt>
  405970:	90                   	nop
  405971:	48 8b 45 e8          	mov    -0x18(%rbp),%rax
  405975:	64 48 33 04 25 28 00 	xor    %fs:0x28,%rax
  40597c:	00 00 
  40597e:	74 05                	je     405985 <_ZN2cl12CommandQueueC1ERKNS_7ContextERKNS_6DeviceEmPi+0xc3>
  405980:	e8 6b d9 ff ff       	callq  4032f0 <__stack_chk_fail@plt>
  405985:	48 83 c4 48          	add    $0x48,%rsp
  405989:	5b                   	pop    %rbx
  40598a:	5d                   	pop    %rbp
  40598b:	c3                   	retq   

000000000040598c <_ZN2cl12CommandQueue10getDefaultEPi>:
  40598c:	55                   	push   %rbp
  40598d:	48 89 e5             	mov    %rsp,%rbp
  405990:	48 83 ec 10          	sub    $0x10,%rsp
  405994:	48 89 7d f8          	mov    %rdi,-0x8(%rbp)
  405998:	48 89 75 f0          	mov    %rsi,-0x10(%rbp)
  40599c:	be 8b 57 40 00       	mov    $0x40578b,%esi
  4059a1:	bf 44 26 61 00       	mov    $0x612644,%edi
  4059a6:	e8 06 15 00 00       	callq  406eb1 <_ZSt9call_onceIRFvvEIEEvRSt9once_flagOT_DpOT0_>
  4059ab:	8b 05 9f cc 20 00    	mov    0x20cc9f(%rip),%eax        # 612650 <_ZN2cl12CommandQueue14default_error_E>
  4059b1:	be 59 bf 40 00       	mov    $0x40bf59,%esi
  4059b6:	89 c7                	mov    %eax,%edi
  4059b8:	e8 49 dd ff ff       	callq  403706 <_ZN2cl6detailL10errHandlerEiPKc>
  4059bd:	48 83 7d f0 00       	cmpq   $0x0,-0x10(%rbp)
  4059c2:	74 0c                	je     4059d0 <_ZN2cl12CommandQueue10getDefaultEPi+0x44>
  4059c4:	8b 15 86 cc 20 00    	mov    0x20cc86(%rip),%edx        # 612650 <_ZN2cl12CommandQueue14default_error_E>
  4059ca:	48 8b 45 f0          	mov    -0x10(%rbp),%rax
  4059ce:	89 10                	mov    %edx,(%rax)
  4059d0:	48 8b 45 f8          	mov    -0x8(%rbp),%rax
  4059d4:	be 48 26 61 00       	mov    $0x612648,%esi
  4059d9:	48 89 c7             	mov    %rax,%rdi
  4059dc:	e8 23 00 00 00       	callq  405a04 <_ZN2cl12CommandQueueC1ERKS0_>
  4059e1:	48 8b 45 f8          	mov    -0x8(%rbp),%rax
  4059e5:	c9                   	leaveq 
  4059e6:	c3                   	retq   
  4059e7:	90                   	nop

00000000004059e8 <_ZN2cl12CommandQueueC1Ev>:
  4059e8:	55                   	push   %rbp
  4059e9:	48 89 e5             	mov    %rsp,%rbp
  4059ec:	48 83 ec 10          	sub    $0x10,%rsp
  4059f0:	48 89 7d f8          	mov    %rdi,-0x8(%rbp)
  4059f4:	48 8b 45 f8          	mov    -0x8(%rbp),%rax
  4059f8:	48 89 c7             	mov    %rax,%rdi
  4059fb:	e8 8a 1f 00 00       	callq  40798a <_ZN2cl6detail7WrapperIP17_cl_command_queueEC1Ev>
  405a00:	90                   	nop
  405a01:	c9                   	leaveq 
  405a02:	c3                   	retq   
  405a03:	90                   	nop

0000000000405a04 <_ZN2cl12CommandQueueC1ERKS0_>:
  405a04:	55                   	push   %rbp
  405a05:	48 89 e5             	mov    %rsp,%rbp
  405a08:	48 83 ec 10          	sub    $0x10,%rsp
  405a0c:	48 89 7d f8          	mov    %rdi,-0x8(%rbp)
  405a10:	48 89 75 f0          	mov    %rsi,-0x10(%rbp)
  405a14:	48 8b 55 f0          	mov    -0x10(%rbp),%rdx
  405a18:	48 8b 45 f8          	mov    -0x8(%rbp),%rax
  405a1c:	48 89 d6             	mov    %rdx,%rsi
  405a1f:	48 89 c7             	mov    %rax,%rdi
  405a22:	e8 b3 1f 00 00       	callq  4079da <_ZN2cl6detail7WrapperIP17_cl_command_queueEC1ERKS4_>
  405a27:	90                   	nop
  405a28:	c9                   	leaveq 
  405a29:	c3                   	retq   

0000000000405a2a <_ZSt4moveIRN2cl12CommandQueueEEONSt16remove_referenceIT_E4typeEOS4_>:
  405a2a:	55                   	push   %rbp
  405a2b:	48 89 e5             	mov    %rsp,%rbp
  405a2e:	48 89 7d f8          	mov    %rdi,-0x8(%rbp)
  405a32:	48 8b 45 f8          	mov    -0x8(%rbp),%rax
  405a36:	5d                   	pop    %rbp
  405a37:	c3                   	retq   

0000000000405a38 <_ZN2cl12CommandQueueaSEOS0_>:
  405a38:	55                   	push   %rbp
  405a39:	48 89 e5             	mov    %rsp,%rbp
  405a3c:	48 83 ec 10          	sub    $0x10,%rsp
  405a40:	48 89 7d f8          	mov    %rdi,-0x8(%rbp)
  405a44:	48 89 75 f0          	mov    %rsi,-0x10(%rbp)
  405a48:	48 8b 45 f0          	mov    -0x10(%rbp),%rax
  405a4c:	48 89 c7             	mov    %rax,%rdi
  405a4f:	e8 d6 ff ff ff       	callq  405a2a <_ZSt4moveIRN2cl12CommandQueueEEONSt16remove_referenceIT_E4typeEOS4_>
  405a54:	48 89 c2             	mov    %rax,%rdx
  405a57:	48 8b 45 f8          	mov    -0x8(%rbp),%rax
  405a5b:	48 89 d6             	mov    %rdx,%rsi
  405a5e:	48 89 c7             	mov    %rax,%rdi
  405a61:	e8 ae 1f 00 00       	callq  407a14 <_ZN2cl6detail7WrapperIP17_cl_command_queueEaSEOS4_>
  405a66:	48 8b 45 f8          	mov    -0x8(%rbp),%rax
  405a6a:	c9                   	leaveq 
  405a6b:	c3                   	retq   

0000000000405a6c <_ZNK2cl12CommandQueue6finishEv>:
  405a6c:	55                   	push   %rbp
  405a6d:	48 89 e5             	mov    %rsp,%rbp
  405a70:	48 83 ec 10          	sub    $0x10,%rsp
  405a74:	48 89 7d f8          	mov    %rdi,-0x8(%rbp)
  405a78:	48 8b 45 f8          	mov    -0x8(%rbp),%rax
  405a7c:	48 8b 00             	mov    (%rax),%rax
  405a7f:	48 89 c7             	mov    %rax,%rdi
  405a82:	e8 b9 d6 ff ff       	callq  403140 <clFinish@plt>
  405a87:	be 6e bf 40 00       	mov    $0x40bf6e,%esi
  405a8c:	89 c7                	mov    %eax,%edi
  405a8e:	e8 73 dc ff ff       	callq  403706 <_ZN2cl6detailL10errHandlerEiPKc>
  405a93:	c9                   	leaveq 
  405a94:	c3                   	retq   

0000000000405a95 <_ZSt4moveIRNSt7__cxx1112basic_stringIcSt11char_traitsIcESaIcEEEEONSt16remove_referenceIT_E4typeEOS8_>:
  405a95:	55                   	push   %rbp
  405a96:	48 89 e5             	mov    %rsp,%rbp
  405a99:	48 89 7d f8          	mov    %rdi,-0x8(%rbp)
  405a9d:	48 8b 45 f8          	mov    -0x8(%rbp),%rax
  405aa1:	5d                   	pop    %rbp
  405aa2:	c3                   	retq   
  405aa3:	90                   	nop

0000000000405aa4 <_ZN11arm_compute15CLKernelLibrary4initENSt7__cxx1112basic_stringIcSt11char_traitsIcESaIcEEEN2cl7ContextENS7_6DeviceE>:
  405aa4:	55                   	push   %rbp
  405aa5:	48 89 e5             	mov    %rsp,%rbp
  405aa8:	48 83 ec 20          	sub    $0x20,%rsp
  405aac:	48 89 7d f8          	mov    %rdi,-0x8(%rbp)
  405ab0:	48 89 75 f0          	mov    %rsi,-0x10(%rbp)
  405ab4:	48 89 55 e8          	mov    %rdx,-0x18(%rbp)
  405ab8:	48 89 4d e0          	mov    %rcx,-0x20(%rbp)
  405abc:	48 8b 45 f0          	mov    -0x10(%rbp),%rax
  405ac0:	48 89 c7             	mov    %rax,%rdi
  405ac3:	e8 cd ff ff ff       	callq  405a95 <_ZSt4moveIRNSt7__cxx1112basic_stringIcSt11char_traitsIcESaIcEEEEONSt16remove_referenceIT_E4typeEOS8_>
  405ac8:	48 89 c2             	mov    %rax,%rdx
  405acb:	48 8b 45 f8          	mov    -0x8(%rbp),%rax
  405acf:	48 83 c0 18          	add    $0x18,%rax
  405ad3:	48 89 d6             	mov    %rdx,%rsi
  405ad6:	48 89 c7             	mov    %rax,%rdi
  405ad9:	e8 72 d8 ff ff       	callq  403350 <_ZNSt7__cxx1112basic_stringIcSt11char_traitsIcESaIcEEaSEOS4_@plt>
  405ade:	48 8b 45 e8          	mov    -0x18(%rbp),%rax
  405ae2:	48 89 c7             	mov    %rax,%rdi
  405ae5:	e8 85 f9 ff ff       	callq  40546f <_ZSt4moveIRN2cl7ContextEEONSt16remove_referenceIT_E4typeEOS4_>
  405aea:	48 89 c2             	mov    %rax,%rdx
  405aed:	48 8b 45 f8          	mov    -0x8(%rbp),%rax
  405af1:	48 89 d6             	mov    %rdx,%rsi
  405af4:	48 89 c7             	mov    %rax,%rdi
  405af7:	e8 82 f9 ff ff       	callq  40547e <_ZN2cl7ContextaSEOS0_>
  405afc:	48 8b 45 e0          	mov    -0x20(%rbp),%rax
  405b00:	48 89 c7             	mov    %rax,%rdi
  405b03:	e8 1d ec ff ff       	callq  404725 <_ZSt4moveIRN2cl6DeviceEEONSt16remove_referenceIT_E4typeEOS4_>
  405b08:	48 89 c2             	mov    %rax,%rdx
  405b0b:	48 8b 45 f8          	mov    -0x8(%rbp),%rax
  405b0f:	48 83 c0 08          	add    $0x8,%rax
  405b13:	48 89 d6             	mov    %rdx,%rsi
  405b16:	48 89 c7             	mov    %rax,%rdi
  405b19:	e8 48 ec ff ff       	callq  404766 <_ZN2cl6DeviceaSEOS0_>
  405b1e:	48 8b 45 f8          	mov    -0x8(%rbp),%rax
  405b22:	48 c7 80 98 00 00 00 	movq   $0x0,0x98(%rax)
  405b29:	00 00 00 00 
  405b2d:	48 8b 45 f8          	mov    -0x8(%rbp),%rax
  405b31:	48 89 c7             	mov    %rax,%rdi
  405b34:	e8 77 d7 ff ff       	callq  4032b0 <_ZN11arm_compute15CLKernelLibrary24max_local_workgroup_sizeEv@plt>
  405b39:	90                   	nop
  405b3a:	c9                   	leaveq 
  405b3b:	c3                   	retq   

0000000000405b3c <_ZN11arm_compute15CLKernelLibrary15set_kernel_pathERKNSt7__cxx1112basic_stringIcSt11char_traitsIcESaIcEEE>:
  405b3c:	55                   	push   %rbp
  405b3d:	48 89 e5             	mov    %rsp,%rbp
  405b40:	48 83 ec 10          	sub    $0x10,%rsp
  405b44:	48 89 7d f8          	mov    %rdi,-0x8(%rbp)
  405b48:	48 89 75 f0          	mov    %rsi,-0x10(%rbp)
  405b4c:	48 8b 45 f8          	mov    -0x8(%rbp),%rax
  405b50:	48 8d 50 18          	lea    0x18(%rax),%rdx
  405b54:	48 8b 45 f0          	mov    -0x10(%rbp),%rax
  405b58:	48 89 c6             	mov    %rax,%rsi
  405b5b:	48 89 d7             	mov    %rdx,%rdi
  405b5e:	e8 7d d5 ff ff       	callq  4030e0 <_ZNSt7__cxx1112basic_stringIcSt11char_traitsIcESaIcEEaSERKS4_@plt>
  405b63:	90                   	nop
  405b64:	c9                   	leaveq 
  405b65:	c3                   	retq   

0000000000405b66 <_ZN11arm_compute11TensorShape3setEmm>:
  405b66:	55                   	push   %rbp
  405b67:	48 89 e5             	mov    %rsp,%rbp
  405b6a:	53                   	push   %rbx
  405b6b:	48 83 ec 38          	sub    $0x38,%rsp
  405b6f:	48 89 7d d8          	mov    %rdi,-0x28(%rbp)
  405b73:	48 89 75 d0          	mov    %rsi,-0x30(%rbp)
  405b77:	48 89 55 c8          	mov    %rdx,-0x38(%rbp)
  405b7b:	64 48 8b 04 25 28 00 	mov    %fs:0x28,%rax
  405b82:	00 00 
  405b84:	48 89 45 e8          	mov    %rax,-0x18(%rbp)
  405b88:	31 c0                	xor    %eax,%eax
  405b8a:	48 83 7d c8 00       	cmpq   $0x0,-0x38(%rbp)
  405b8f:	75 45                	jne    405bd6 <_ZN11arm_compute11TensorShape3setEmm+0x70>
  405b91:	48 8b 45 d8          	mov    -0x28(%rbp),%rax
  405b95:	48 c7 40 30 00 00 00 	movq   $0x0,0x30(%rax)
  405b9c:	00 
  405b9d:	c7 45 e4 00 00 00 00 	movl   $0x0,-0x1c(%rbp)
  405ba4:	48 8b 45 d8          	mov    -0x28(%rbp),%rax
  405ba8:	48 89 c7             	mov    %rax,%rdi
  405bab:	e8 d0 1e 00 00       	callq  407a80 <_ZNSt5arrayImLm6EE3endEv>
  405bb0:	48 89 c3             	mov    %rax,%rbx
  405bb3:	48 8b 45 d8          	mov    -0x28(%rbp),%rax
  405bb7:	48 89 c7             	mov    %rax,%rdi
  405bba:	e8 a7 1e 00 00       	callq  407a66 <_ZNSt5arrayImLm6EE5beginEv>
  405bbf:	48 89 c1             	mov    %rax,%rcx
  405bc2:	48 8d 45 e4          	lea    -0x1c(%rbp),%rax
  405bc6:	48 89 c2             	mov    %rax,%rdx
  405bc9:	48 89 de             	mov    %rbx,%rsi
  405bcc:	48 89 cf             	mov    %rcx,%rdi
  405bcf:	e8 07 12 00 00       	callq  406ddb <_ZSt4fillIPmiEvT_S1_RKT0_>
  405bd4:	eb 6a                	jmp    405c40 <_ZN11arm_compute11TensorShape3setEmm+0xda>
  405bd6:	c7 45 e4 01 00 00 00 	movl   $0x1,-0x1c(%rbp)
  405bdd:	48 8b 45 d8          	mov    -0x28(%rbp),%rax
  405be1:	48 89 c7             	mov    %rax,%rdi
  405be4:	e8 97 1e 00 00       	callq  407a80 <_ZNSt5arrayImLm6EE3endEv>
  405be9:	48 89 c3             	mov    %rax,%rbx
  405bec:	48 8b 45 d8          	mov    -0x28(%rbp),%rax
  405bf0:	48 89 c7             	mov    %rax,%rdi
  405bf3:	e8 6e 1e 00 00       	callq  407a66 <_ZNSt5arrayImLm6EE5beginEv>
  405bf8:	48 89 c2             	mov    %rax,%rdx
  405bfb:	48 8b 45 d8          	mov    -0x28(%rbp),%rax
  405bff:	48 8b 40 30          	mov    0x30(%rax),%rax
  405c03:	48 c1 e0 03          	shl    $0x3,%rax
  405c07:	48 8d 0c 02          	lea    (%rdx,%rax,1),%rcx
  405c0b:	48 8d 45 e4          	lea    -0x1c(%rbp),%rax
  405c0f:	48 89 c2             	mov    %rax,%rdx
  405c12:	48 89 de             	mov    %rbx,%rsi
  405c15:	48 89 cf             	mov    %rcx,%rdi
  405c18:	e8 be 11 00 00       	callq  406ddb <_ZSt4fillIPmiEvT_S1_RKT0_>
  405c1d:	48 8b 45 d8          	mov    -0x28(%rbp),%rax
  405c21:	48 8b 55 c8          	mov    -0x38(%rbp),%rdx
  405c25:	48 8b 4d d0          	mov    -0x30(%rbp),%rcx
  405c29:	48 89 ce             	mov    %rcx,%rsi
  405c2c:	48 89 c7             	mov    %rax,%rdi
  405c2f:	e8 6a 1e 00 00       	callq  407a9e <_ZN11arm_compute10DimensionsImE3setEmm>
  405c34:	48 8b 45 d8          	mov    -0x28(%rbp),%rax
  405c38:	48 89 c7             	mov    %rax,%rdi
  405c3b:	e8 1c 00 00 00       	callq  405c5c <_ZN11arm_compute11TensorShape26apply_dimension_correctionEv>
  405c40:	48 8b 45 e8          	mov    -0x18(%rbp),%rax
  405c44:	64 48 33 04 25 28 00 	xor    %fs:0x28,%rax
  405c4b:	00 00 
  405c4d:	74 05                	je     405c54 <_ZN11arm_compute11TensorShape3setEmm+0xee>
  405c4f:	e8 9c d6 ff ff       	callq  4032f0 <__stack_chk_fail@plt>
  405c54:	48 83 c4 38          	add    $0x38,%rsp
  405c58:	5b                   	pop    %rbx
  405c59:	5d                   	pop    %rbp
  405c5a:	c3                   	retq   
  405c5b:	90                   	nop

0000000000405c5c <_ZN11arm_compute11TensorShape26apply_dimension_correctionEv>:
  405c5c:	55                   	push   %rbp
  405c5d:	48 89 e5             	mov    %rsp,%rbp
  405c60:	48 83 ec 20          	sub    $0x20,%rsp
  405c64:	48 89 7d e8          	mov    %rdi,-0x18(%rbp)
  405c68:	48 8b 45 e8          	mov    -0x18(%rbp),%rax
  405c6c:	48 8b 40 30          	mov    0x30(%rax),%rax
  405c70:	83 e8 01             	sub    $0x1,%eax
  405c73:	89 45 fc             	mov    %eax,-0x4(%rbp)
  405c76:	83 7d fc 00          	cmpl   $0x0,-0x4(%rbp)
  405c7a:	78 3e                	js     405cba <_ZN11arm_compute11TensorShape26apply_dimension_correctionEv+0x5e>
  405c7c:	8b 45 fc             	mov    -0x4(%rbp),%eax
  405c7f:	48 63 d0             	movslq %eax,%rdx
  405c82:	48 8b 45 e8          	mov    -0x18(%rbp),%rax
  405c86:	48 89 d6             	mov    %rdx,%rsi
  405c89:	48 89 c7             	mov    %rax,%rdi
  405c8c:	e8 b3 1e 00 00       	callq  407b44 <_ZNSt5arrayImLm6EEixEm>
  405c91:	48 8b 00             	mov    (%rax),%rax
  405c94:	48 83 f8 01          	cmp    $0x1,%rax
  405c98:	0f 94 c0             	sete   %al
  405c9b:	84 c0                	test   %al,%al
  405c9d:	74 1a                	je     405cb9 <_ZN11arm_compute11TensorShape26apply_dimension_correctionEv+0x5d>
  405c9f:	48 8b 45 e8          	mov    -0x18(%rbp),%rax
  405ca3:	48 8b 40 30          	mov    0x30(%rax),%rax
  405ca7:	48 8d 50 ff          	lea    -0x1(%rax),%rdx
  405cab:	48 8b 45 e8          	mov    -0x18(%rbp),%rax
  405caf:	48 89 50 30          	mov    %rdx,0x30(%rax)
  405cb3:	83 6d fc 01          	subl   $0x1,-0x4(%rbp)
  405cb7:	eb bd                	jmp    405c76 <_ZN11arm_compute11TensorShape26apply_dimension_correctionEv+0x1a>
  405cb9:	90                   	nop
  405cba:	90                   	nop
  405cbb:	c9                   	leaveq 
  405cbc:	c3                   	retq   
  405cbd:	90                   	nop

0000000000405cbe <_ZN11arm_compute11CoordinatesC1IIEEEDpT_>:
  405cbe:	55                   	push   %rbp
  405cbf:	48 89 e5             	mov    %rsp,%rbp
  405cc2:	48 83 ec 10          	sub    $0x10,%rsp
  405cc6:	48 89 7d f8          	mov    %rdi,-0x8(%rbp)
  405cca:	48 8b 45 f8          	mov    -0x8(%rbp),%rax
  405cce:	48 89 c7             	mov    %rax,%rdi
  405cd1:	e8 94 1e 00 00       	callq  407b6a <_ZN11arm_compute10DimensionsIiEC1IIEEEDpT_>
  405cd6:	90                   	nop
  405cd7:	c9                   	leaveq 
  405cd8:	c3                   	retq   

0000000000405cd9 <_ZSt7forwardIRjEOT_RNSt16remove_referenceIS1_E4typeE>:
  405cd9:	55                   	push   %rbp
  405cda:	48 89 e5             	mov    %rsp,%rbp
  405cdd:	48 89 7d f8          	mov    %rdi,-0x8(%rbp)
  405ce1:	48 8b 45 f8          	mov    -0x8(%rbp),%rax
  405ce5:	5d                   	pop    %rbp
  405ce6:	c3                   	retq   
  405ce7:	90                   	nop

0000000000405ce8 <_ZNSt4pairIjjEC1IRjS2_vEEOT_OT0_>:
  405ce8:	55                   	push   %rbp
  405ce9:	48 89 e5             	mov    %rsp,%rbp
  405cec:	48 83 ec 20          	sub    $0x20,%rsp
  405cf0:	48 89 7d f8          	mov    %rdi,-0x8(%rbp)
  405cf4:	48 89 75 f0          	mov    %rsi,-0x10(%rbp)
  405cf8:	48 89 55 e8          	mov    %rdx,-0x18(%rbp)
  405cfc:	48 8b 45 f0          	mov    -0x10(%rbp),%rax
  405d00:	48 89 c7             	mov    %rax,%rdi
  405d03:	e8 d1 ff ff ff       	callq  405cd9 <_ZSt7forwardIRjEOT_RNSt16remove_referenceIS1_E4typeE>
  405d08:	8b 10                	mov    (%rax),%edx
  405d0a:	48 8b 45 f8          	mov    -0x8(%rbp),%rax
  405d0e:	89 10                	mov    %edx,(%rax)
  405d10:	48 8b 45 e8          	mov    -0x18(%rbp),%rax
  405d14:	48 89 c7             	mov    %rax,%rdi
  405d17:	e8 bd ff ff ff       	callq  405cd9 <_ZSt7forwardIRjEOT_RNSt16remove_referenceIS1_E4typeE>
  405d1c:	8b 10                	mov    (%rax),%edx
  405d1e:	48 8b 45 f8          	mov    -0x8(%rbp),%rax
  405d22:	89 50 04             	mov    %edx,0x4(%rax)
  405d25:	90                   	nop
  405d26:	c9                   	leaveq 
  405d27:	c3                   	retq   

0000000000405d28 <_ZSt9make_pairIRjS0_ESt4pairINSt17__decay_and_stripIT_E6__typeENS2_IT0_E6__typeEEOS3_OS6_>:
  405d28:	55                   	push   %rbp
  405d29:	48 89 e5             	mov    %rsp,%rbp
  405d2c:	53                   	push   %rbx
  405d2d:	48 83 ec 28          	sub    $0x28,%rsp
  405d31:	48 89 7d d8          	mov    %rdi,-0x28(%rbp)
  405d35:	48 89 75 d0          	mov    %rsi,-0x30(%rbp)
  405d39:	64 48 8b 04 25 28 00 	mov    %fs:0x28,%rax
  405d40:	00 00 
  405d42:	48 89 45 e8          	mov    %rax,-0x18(%rbp)
  405d46:	31 c0                	xor    %eax,%eax
  405d48:	48 8b 45 d0          	mov    -0x30(%rbp),%rax
  405d4c:	48 89 c7             	mov    %rax,%rdi
  405d4f:	e8 85 ff ff ff       	callq  405cd9 <_ZSt7forwardIRjEOT_RNSt16remove_referenceIS1_E4typeE>
  405d54:	48 89 c3             	mov    %rax,%rbx
  405d57:	48 8b 45 d8          	mov    -0x28(%rbp),%rax
  405d5b:	48 89 c7             	mov    %rax,%rdi
  405d5e:	e8 76 ff ff ff       	callq  405cd9 <_ZSt7forwardIRjEOT_RNSt16remove_referenceIS1_E4typeE>
  405d63:	48 89 c1             	mov    %rax,%rcx
  405d66:	48 8d 45 e0          	lea    -0x20(%rbp),%rax
  405d6a:	48 89 da             	mov    %rbx,%rdx
  405d6d:	48 89 ce             	mov    %rcx,%rsi
  405d70:	48 89 c7             	mov    %rax,%rdi
  405d73:	e8 70 ff ff ff       	callq  405ce8 <_ZNSt4pairIjjEC1IRjS2_vEEOT_OT0_>
  405d78:	48 8b 45 e0          	mov    -0x20(%rbp),%rax
  405d7c:	48 8b 55 e8          	mov    -0x18(%rbp),%rdx
  405d80:	64 48 33 14 25 28 00 	xor    %fs:0x28,%rdx
  405d87:	00 00 
  405d89:	74 05                	je     405d90 <_ZSt9make_pairIRjS0_ESt4pairINSt17__decay_and_stripIT_E6__typeENS2_IT0_E6__typeEEOS3_OS6_+0x68>
  405d8b:	e8 60 d5 ff ff       	callq  4032f0 <__stack_chk_fail@plt>
  405d90:	48 83 c4 28          	add    $0x28,%rsp
  405d94:	5b                   	pop    %rbx
  405d95:	5d                   	pop    %rbp
  405d96:	c3                   	retq   
  405d97:	90                   	nop

0000000000405d98 <_ZN11arm_compute13PadStrideInfoC1EjjjjNS_21DimensionRoundingTypeE>:
  405d98:	55                   	push   %rbp
  405d99:	48 89 e5             	mov    %rsp,%rbp
  405d9c:	53                   	push   %rbx
  405d9d:	48 83 ec 28          	sub    $0x28,%rsp
  405da1:	48 89 7d e8          	mov    %rdi,-0x18(%rbp)
  405da5:	89 75 e4             	mov    %esi,-0x1c(%rbp)
  405da8:	89 55 e0             	mov    %edx,-0x20(%rbp)
  405dab:	89 4d dc             	mov    %ecx,-0x24(%rbp)
  405dae:	44 89 45 d8          	mov    %r8d,-0x28(%rbp)
  405db2:	44 89 4d d4          	mov    %r9d,-0x2c(%rbp)
  405db6:	48 8b 5d e8          	mov    -0x18(%rbp),%rbx
  405dba:	48 8d 55 e0          	lea    -0x20(%rbp),%rdx
  405dbe:	48 8d 45 e4          	lea    -0x1c(%rbp),%rax
  405dc2:	48 89 d6             	mov    %rdx,%rsi
  405dc5:	48 89 c7             	mov    %rax,%rdi
  405dc8:	e8 5b ff ff ff       	callq  405d28 <_ZSt9make_pairIRjS0_ESt4pairINSt17__decay_and_stripIT_E6__typeENS2_IT0_E6__typeEEOS3_OS6_>
  405dcd:	48 89 03             	mov    %rax,(%rbx)
  405dd0:	48 8b 5d e8          	mov    -0x18(%rbp),%rbx
  405dd4:	48 8d 55 d8          	lea    -0x28(%rbp),%rdx
  405dd8:	48 8d 45 dc          	lea    -0x24(%rbp),%rax
  405ddc:	48 89 d6             	mov    %rdx,%rsi
  405ddf:	48 89 c7             	mov    %rax,%rdi
  405de2:	e8 41 ff ff ff       	callq  405d28 <_ZSt9make_pairIRjS0_ESt4pairINSt17__decay_and_stripIT_E6__typeENS2_IT0_E6__typeEEOS3_OS6_>
  405de7:	48 89 43 08          	mov    %rax,0x8(%rbx)
  405deb:	48 8b 45 e8          	mov    -0x18(%rbp),%rax
  405def:	8b 55 d4             	mov    -0x2c(%rbp),%edx
  405df2:	89 50 10             	mov    %edx,0x10(%rax)
  405df5:	90                   	nop
  405df6:	48 83 c4 28          	add    $0x28,%rsp
  405dfa:	5b                   	pop    %rbx
  405dfb:	5d                   	pop    %rbp
  405dfc:	c3                   	retq   
  405dfd:	90                   	nop

0000000000405dfe <_ZN11arm_compute16PoolingLayerInfoC1ENS_11PoolingTypeEjNS_13PadStrideInfoE>:
  405dfe:	55                   	push   %rbp
  405dff:	48 89 e5             	mov    %rsp,%rbp
  405e02:	48 89 7d f8          	mov    %rdi,-0x8(%rbp)
  405e06:	89 75 f4             	mov    %esi,-0xc(%rbp)
  405e09:	89 55 f0             	mov    %edx,-0x10(%rbp)
  405e0c:	48 8b 45 f8          	mov    -0x8(%rbp),%rax
  405e10:	8b 55 f4             	mov    -0xc(%rbp),%edx
  405e13:	89 10                	mov    %edx,(%rax)
  405e15:	48 8b 45 f8          	mov    -0x8(%rbp),%rax
  405e19:	8b 55 f0             	mov    -0x10(%rbp),%edx
  405e1c:	89 50 04             	mov    %edx,0x4(%rax)
  405e1f:	48 8b 45 f8          	mov    -0x8(%rbp),%rax
  405e23:	48 8b 55 10          	mov    0x10(%rbp),%rdx
  405e27:	48 89 50 08          	mov    %rdx,0x8(%rax)
  405e2b:	48 8b 55 18          	mov    0x18(%rbp),%rdx
  405e2f:	48 89 50 10          	mov    %rdx,0x10(%rax)
  405e33:	8b 55 20             	mov    0x20(%rbp),%edx
  405e36:	89 50 18             	mov    %edx,0x18(%rax)
  405e39:	90                   	nop
  405e3a:	5d                   	pop    %rbp
  405e3b:	c3                   	retq   

0000000000405e3c <_ZN11arm_compute6Window9DimensionC1Eiii>:
  405e3c:	55                   	push   %rbp
  405e3d:	48 89 e5             	mov    %rsp,%rbp
  405e40:	48 89 7d f8          	mov    %rdi,-0x8(%rbp)
  405e44:	89 75 f4             	mov    %esi,-0xc(%rbp)
  405e47:	89 55 f0             	mov    %edx,-0x10(%rbp)
  405e4a:	89 4d ec             	mov    %ecx,-0x14(%rbp)
  405e4d:	48 8b 45 f8          	mov    -0x8(%rbp),%rax
  405e51:	8b 55 f4             	mov    -0xc(%rbp),%edx
  405e54:	89 10                	mov    %edx,(%rax)
  405e56:	48 8b 45 f8          	mov    -0x8(%rbp),%rax
  405e5a:	8b 55 f0             	mov    -0x10(%rbp),%edx
  405e5d:	89 50 04             	mov    %edx,0x4(%rax)
  405e60:	48 8b 45 f8          	mov    -0x8(%rbp),%rax
  405e64:	8b 55 ec             	mov    -0x14(%rbp),%edx
  405e67:	89 50 08             	mov    %edx,0x8(%rax)
  405e6a:	90                   	nop
  405e6b:	5d                   	pop    %rbp
  405e6c:	c3                   	retq   
  405e6d:	90                   	nop

0000000000405e6e <_ZNK11arm_compute6Window9Dimension5startEv>:
  405e6e:	55                   	push   %rbp
  405e6f:	48 89 e5             	mov    %rsp,%rbp
  405e72:	48 89 7d f8          	mov    %rdi,-0x8(%rbp)
  405e76:	48 8b 45 f8          	mov    -0x8(%rbp),%rax
  405e7a:	8b 00                	mov    (%rax),%eax
  405e7c:	5d                   	pop    %rbp
  405e7d:	c3                   	retq   

0000000000405e7e <_ZNK11arm_compute6Window9Dimension3endEv>:
  405e7e:	55                   	push   %rbp
  405e7f:	48 89 e5             	mov    %rsp,%rbp
  405e82:	48 89 7d f8          	mov    %rdi,-0x8(%rbp)
  405e86:	48 8b 45 f8          	mov    -0x8(%rbp),%rax
  405e8a:	8b 40 04             	mov    0x4(%rax),%eax
  405e8d:	5d                   	pop    %rbp
  405e8e:	c3                   	retq   
  405e8f:	90                   	nop

0000000000405e90 <_ZNK11arm_compute6Window9Dimension4stepEv>:
  405e90:	55                   	push   %rbp
  405e91:	48 89 e5             	mov    %rsp,%rbp
  405e94:	48 89 7d f8          	mov    %rdi,-0x8(%rbp)
  405e98:	48 8b 45 f8          	mov    -0x8(%rbp),%rax
  405e9c:	8b 40 08             	mov    0x8(%rax),%eax
  405e9f:	5d                   	pop    %rbp
  405ea0:	c3                   	retq   

0000000000405ea1 <_ZNSt14__array_traitsIN11arm_compute6Window9DimensionELm6EE6_S_refERA6_KS2_m>:
  405ea1:	55                   	push   %rbp
  405ea2:	48 89 e5             	mov    %rsp,%rbp
  405ea5:	48 89 7d f8          	mov    %rdi,-0x8(%rbp)
  405ea9:	48 89 75 f0          	mov    %rsi,-0x10(%rbp)
  405ead:	48 8b 55 f0          	mov    -0x10(%rbp),%rdx
  405eb1:	48 89 d0             	mov    %rdx,%rax
  405eb4:	48 01 c0             	add    %rax,%rax
  405eb7:	48 01 d0             	add    %rdx,%rax
  405eba:	48 c1 e0 02          	shl    $0x2,%rax
  405ebe:	48 8b 55 f8          	mov    -0x8(%rbp),%rdx
  405ec2:	48 01 d0             	add    %rdx,%rax
  405ec5:	5d                   	pop    %rbp
  405ec6:	c3                   	retq   
  405ec7:	90                   	nop

0000000000405ec8 <_ZNKSt5arrayIN11arm_compute6Window9DimensionELm6EE2atEm>:
  405ec8:	55                   	push   %rbp
  405ec9:	48 89 e5             	mov    %rsp,%rbp
  405ecc:	48 83 ec 10          	sub    $0x10,%rsp
  405ed0:	48 89 7d f8          	mov    %rdi,-0x8(%rbp)
  405ed4:	48 89 75 f0          	mov    %rsi,-0x10(%rbp)
  405ed8:	48 83 7d f0 05       	cmpq   $0x5,-0x10(%rbp)
  405edd:	77 15                	ja     405ef4 <_ZNKSt5arrayIN11arm_compute6Window9DimensionELm6EE2atEm+0x2c>
  405edf:	48 8b 45 f8          	mov    -0x8(%rbp),%rax
  405ee3:	48 8b 55 f0          	mov    -0x10(%rbp),%rdx
  405ee7:	48 89 d6             	mov    %rdx,%rsi
  405eea:	48 89 c7             	mov    %rax,%rdi
  405eed:	e8 af ff ff ff       	callq  405ea1 <_ZNSt14__array_traitsIN11arm_compute6Window9DimensionELm6EE6_S_refERA6_KS2_m>
  405ef2:	eb 1b                	jmp    405f0f <_ZNKSt5arrayIN11arm_compute6Window9DimensionELm6EE2atEm+0x47>
  405ef4:	48 8b 45 f0          	mov    -0x10(%rbp),%rax
  405ef8:	ba 06 00 00 00       	mov    $0x6,%edx
  405efd:	48 89 c6             	mov    %rax,%rsi
  405f00:	bf 90 bf 40 00       	mov    $0x40bf90,%edi
  405f05:	b8 00 00 00 00       	mov    $0x0,%eax
  405f0a:	e8 01 d5 ff ff       	callq  403410 <_ZSt24__throw_out_of_range_fmtPKcz@plt>
  405f0f:	c9                   	leaveq 
  405f10:	c3                   	retq   
  405f11:	90                   	nop

0000000000405f12 <_ZNK11arm_compute6WindowixEm>:
  405f12:	55                   	push   %rbp
  405f13:	48 89 e5             	mov    %rsp,%rbp
  405f16:	48 83 ec 10          	sub    $0x10,%rsp
  405f1a:	48 89 7d f8          	mov    %rdi,-0x8(%rbp)
  405f1e:	48 89 75 f0          	mov    %rsi,-0x10(%rbp)
  405f22:	48 8b 45 f8          	mov    -0x8(%rbp),%rax
  405f26:	48 8b 55 f0          	mov    -0x10(%rbp),%rdx
  405f2a:	48 89 d6             	mov    %rdx,%rsi
  405f2d:	48 89 c7             	mov    %rax,%rdi
  405f30:	e8 93 ff ff ff       	callq  405ec8 <_ZNKSt5arrayIN11arm_compute6Window9DimensionELm6EE2atEm>
  405f35:	c9                   	leaveq 
  405f36:	c3                   	retq   
  405f37:	90                   	nop

0000000000405f38 <_ZN11arm_compute6Window3setEmRKNS0_9DimensionE>:
  405f38:	55                   	push   %rbp
  405f39:	48 89 e5             	mov    %rsp,%rbp
  405f3c:	48 83 ec 20          	sub    $0x20,%rsp
  405f40:	48 89 7d f8          	mov    %rdi,-0x8(%rbp)
  405f44:	48 89 75 f0          	mov    %rsi,-0x10(%rbp)
  405f48:	48 89 55 e8          	mov    %rdx,-0x18(%rbp)
  405f4c:	48 8b 45 f8          	mov    -0x8(%rbp),%rax
  405f50:	48 8b 55 f0          	mov    -0x10(%rbp),%rdx
  405f54:	48 89 d6             	mov    %rdx,%rsi
  405f57:	48 89 c7             	mov    %rax,%rdi
  405f5a:	e8 77 1d 00 00       	callq  407cd6 <_ZNSt5arrayIN11arm_compute6Window9DimensionELm6EEixEm>
  405f5f:	48 89 c2             	mov    %rax,%rdx
  405f62:	48 8b 45 e8          	mov    -0x18(%rbp),%rax
  405f66:	48 8b 08             	mov    (%rax),%rcx
  405f69:	48 89 0a             	mov    %rcx,(%rdx)
  405f6c:	8b 40 08             	mov    0x8(%rax),%eax
  405f6f:	89 42 08             	mov    %eax,0x8(%rdx)
  405f72:	90                   	nop
  405f73:	c9                   	leaveq 
  405f74:	c3                   	retq   
  405f75:	90                   	nop

0000000000405f76 <_ZNK11arm_compute6Window8validateEv>:
  405f76:	55                   	push   %rbp
  405f77:	48 89 e5             	mov    %rsp,%rbp
  405f7a:	48 89 7d e8          	mov    %rdi,-0x18(%rbp)
  405f7e:	48 c7 45 f8 00 00 00 	movq   $0x0,-0x8(%rbp)
  405f85:	00 
  405f86:	48 83 7d f8 05       	cmpq   $0x5,-0x8(%rbp)
  405f8b:	77 07                	ja     405f94 <_ZNK11arm_compute6Window8validateEv+0x1e>
  405f8d:	48 83 45 f8 01       	addq   $0x1,-0x8(%rbp)
  405f92:	eb f2                	jmp    405f86 <_ZNK11arm_compute6Window8validateEv+0x10>
  405f94:	90                   	nop
  405f95:	5d                   	pop    %rbp
  405f96:	c3                   	retq   
  405f97:	90                   	nop

0000000000405f98 <_ZN11arm_compute6Window21use_tensor_dimensionsERKNS_11TensorShapeEm>:
  405f98:	55                   	push   %rbp
  405f99:	48 89 e5             	mov    %rsp,%rbp
  405f9c:	48 83 ec 60          	sub    $0x60,%rsp
  405fa0:	48 89 7d b8          	mov    %rdi,-0x48(%rbp)
  405fa4:	48 89 75 b0          	mov    %rsi,-0x50(%rbp)
  405fa8:	48 89 55 a8          	mov    %rdx,-0x58(%rbp)
  405fac:	64 48 8b 04 25 28 00 	mov    %fs:0x28,%rax
  405fb3:	00 00 
  405fb5:	48 89 45 f8          	mov    %rax,-0x8(%rbp)
  405fb9:	31 c0                	xor    %eax,%eax
  405fbb:	48 8b 45 a8          	mov    -0x58(%rbp),%rax
  405fbf:	89 45 cc             	mov    %eax,-0x34(%rbp)
  405fc2:	48 8b 45 b0          	mov    -0x50(%rbp),%rax
  405fc6:	48 89 c7             	mov    %rax,%rdi
  405fc9:	e8 2e 1d 00 00       	callq  407cfc <_ZNK11arm_compute10DimensionsImE14num_dimensionsEv>
  405fce:	3b 45 cc             	cmp    -0x34(%rbp),%eax
  405fd1:	0f 97 c0             	seta   %al
  405fd4:	84 c0                	test   %al,%al
  405fd6:	74 68                	je     406040 <_ZN11arm_compute6Window21use_tensor_dimensionsERKNS_11TensorShapeEm+0xa8>
  405fd8:	48 c7 45 d8 01 00 00 	movq   $0x1,-0x28(%rbp)
  405fdf:	00 
  405fe0:	8b 55 cc             	mov    -0x34(%rbp),%edx
  405fe3:	48 8b 45 b0          	mov    -0x50(%rbp),%rax
  405fe7:	48 89 d6             	mov    %rdx,%rsi
  405fea:	48 89 c7             	mov    %rax,%rdi
  405fed:	e8 bc 1c 00 00       	callq  407cae <_ZNK11arm_compute10DimensionsImEixEm>
  405ff2:	48 89 45 d0          	mov    %rax,-0x30(%rbp)
  405ff6:	48 8d 55 d8          	lea    -0x28(%rbp),%rdx
  405ffa:	48 8d 45 d0          	lea    -0x30(%rbp),%rax
  405ffe:	48 89 d6             	mov    %rdx,%rsi
  406001:	48 89 c7             	mov    %rax,%rdi
  406004:	e8 05 1d 00 00       	callq  407d0e <_ZSt3maxImERKT_S2_S2_>
  406009:	48 8b 00             	mov    (%rax),%rax
  40600c:	89 c2                	mov    %eax,%edx
  40600e:	48 8d 45 e0          	lea    -0x20(%rbp),%rax
  406012:	b9 01 00 00 00       	mov    $0x1,%ecx
  406017:	be 00 00 00 00       	mov    $0x0,%esi
  40601c:	48 89 c7             	mov    %rax,%rdi
  40601f:	e8 18 fe ff ff       	callq  405e3c <_ZN11arm_compute6Window9DimensionC1Eiii>
  406024:	8b 4d cc             	mov    -0x34(%rbp),%ecx
  406027:	48 8d 55 e0          	lea    -0x20(%rbp),%rdx
  40602b:	48 8b 45 b8          	mov    -0x48(%rbp),%rax
  40602f:	48 89 ce             	mov    %rcx,%rsi
  406032:	48 89 c7             	mov    %rax,%rdi
  406035:	e8 fe fe ff ff       	callq  405f38 <_ZN11arm_compute6Window3setEmRKNS0_9DimensionE>
  40603a:	83 45 cc 01          	addl   $0x1,-0x34(%rbp)
  40603e:	eb 82                	jmp    405fc2 <_ZN11arm_compute6Window21use_tensor_dimensionsERKNS_11TensorShapeEm+0x2a>
  406040:	90                   	nop
  406041:	48 8b 45 f8          	mov    -0x8(%rbp),%rax
  406045:	64 48 33 04 25 28 00 	xor    %fs:0x28,%rax
  40604c:	00 00 
  40604e:	74 05                	je     406055 <_ZN11arm_compute6Window21use_tensor_dimensionsERKNS_11TensorShapeEm+0xbd>
  406050:	e8 9b d2 ff ff       	callq  4032f0 <__stack_chk_fail@plt>
  406055:	c9                   	leaveq 
  406056:	c3                   	retq   
  406057:	90                   	nop

0000000000406058 <_ZNK11arm_compute10TensorInfo9dimensionEm>:
  406058:	55                   	push   %rbp
  406059:	48 89 e5             	mov    %rsp,%rbp
  40605c:	48 83 ec 10          	sub    $0x10,%rsp
  406060:	48 89 7d f8          	mov    %rdi,-0x8(%rbp)
  406064:	48 89 75 f0          	mov    %rsi,-0x10(%rbp)
  406068:	48 8b 45 f8          	mov    -0x8(%rbp),%rax
  40606c:	48 8d 50 60          	lea    0x60(%rax),%rdx
  406070:	48 8b 45 f0          	mov    -0x10(%rbp),%rax
  406074:	48 89 c6             	mov    %rax,%rsi
  406077:	48 89 d7             	mov    %rdx,%rdi
  40607a:	e8 2f 1c 00 00       	callq  407cae <_ZNK11arm_compute10DimensionsImEixEm>
  40607f:	c9                   	leaveq 
  406080:	c3                   	retq   
  406081:	90                   	nop

0000000000406082 <_ZNK11arm_compute10TensorInfo14num_dimensionsEv>:
  406082:	55                   	push   %rbp
  406083:	48 89 e5             	mov    %rsp,%rbp
  406086:	48 83 ec 10          	sub    $0x10,%rsp
  40608a:	48 89 7d f8          	mov    %rdi,-0x8(%rbp)
  40608e:	48 8b 45 f8          	mov    -0x8(%rbp),%rax
  406092:	48 83 c0 60          	add    $0x60,%rax
  406096:	48 89 c7             	mov    %rax,%rdi
  406099:	e8 5e 1c 00 00       	callq  407cfc <_ZNK11arm_compute10DimensionsImE14num_dimensionsEv>
  40609e:	89 c0                	mov    %eax,%eax
  4060a0:	c9                   	leaveq 
  4060a1:	c3                   	retq   

00000000004060a2 <_ZNSt5arrayIN11arm_compute8Iterator9DimensionELm6EEC1Ev>:
  4060a2:	55                   	push   %rbp
  4060a3:	48 89 e5             	mov    %rsp,%rbp
  4060a6:	48 89 7d f8          	mov    %rdi,-0x8(%rbp)
  4060aa:	48 8b 45 f8          	mov    -0x8(%rbp),%rax
  4060ae:	b9 30 00 00 00       	mov    $0x30,%ecx
  4060b3:	be 00 00 00 00       	mov    $0x0,%esi
  4060b8:	48 89 30             	mov    %rsi,(%rax)
  4060bb:	89 ca                	mov    %ecx,%edx
  4060bd:	48 01 c2             	add    %rax,%rdx
  4060c0:	48 83 c2 08          	add    $0x8,%rdx
  4060c4:	48 89 72 f0          	mov    %rsi,-0x10(%rdx)
  4060c8:	48 8d 50 08          	lea    0x8(%rax),%rdx
  4060cc:	48 83 e2 f8          	and    $0xfffffffffffffff8,%rdx
  4060d0:	48 29 d0             	sub    %rdx,%rax
  4060d3:	01 c1                	add    %eax,%ecx
  4060d5:	83 e1 f8             	and    $0xfffffff8,%ecx
  4060d8:	89 c8                	mov    %ecx,%eax
  4060da:	c1 e8 03             	shr    $0x3,%eax
  4060dd:	89 c1                	mov    %eax,%ecx
  4060df:	48 89 d7             	mov    %rdx,%rdi
  4060e2:	48 89 f0             	mov    %rsi,%rax
  4060e5:	f3 48 ab             	rep stos %rax,%es:(%rdi)
  4060e8:	90                   	nop
  4060e9:	5d                   	pop    %rbp
  4060ea:	c3                   	retq   
  4060eb:	90                   	nop

00000000004060ec <_ZN11arm_compute8IteratorC1Ev>:
  4060ec:	55                   	push   %rbp
  4060ed:	48 89 e5             	mov    %rsp,%rbp
  4060f0:	48 83 ec 10          	sub    $0x10,%rsp
  4060f4:	48 89 7d f8          	mov    %rdi,-0x8(%rbp)
  4060f8:	48 8b 45 f8          	mov    -0x8(%rbp),%rax
  4060fc:	48 c7 00 00 00 00 00 	movq   $0x0,(%rax)
  406103:	48 8b 45 f8          	mov    -0x8(%rbp),%rax
  406107:	48 8d 50 08          	lea    0x8(%rax),%rdx
  40610b:	b8 00 00 00 00       	mov    $0x0,%eax
  406110:	b9 06 00 00 00       	mov    $0x6,%ecx
  406115:	48 89 d7             	mov    %rdx,%rdi
  406118:	f3 48 ab             	rep stos %rax,%es:(%rdi)
  40611b:	48 8b 45 f8          	mov    -0x8(%rbp),%rax
  40611f:	48 83 c0 08          	add    $0x8,%rax
  406123:	48 89 c7             	mov    %rax,%rdi
  406126:	e8 77 ff ff ff       	callq  4060a2 <_ZNSt5arrayIN11arm_compute8Iterator9DimensionELm6EEC1Ev>
  40612b:	90                   	nop
  40612c:	c9                   	leaveq 
  40612d:	c3                   	retq   

000000000040612e <_ZNSt14__array_traitsIN11arm_compute8Iterator9DimensionELm6EE6_S_refERA6_KS2_m>:
  40612e:	55                   	push   %rbp
  40612f:	48 89 e5             	mov    %rsp,%rbp
  406132:	48 89 7d f8          	mov    %rdi,-0x8(%rbp)
  406136:	48 89 75 f0          	mov    %rsi,-0x10(%rbp)
  40613a:	48 8b 45 f0          	mov    -0x10(%rbp),%rax
  40613e:	48 8d 14 c5 00 00 00 	lea    0x0(,%rax,8),%rdx
  406145:	00 
  406146:	48 8b 45 f8          	mov    -0x8(%rbp),%rax
  40614a:	48 01 d0             	add    %rdx,%rax
  40614d:	5d                   	pop    %rbp
  40614e:	c3                   	retq   

000000000040614f <_ZSt3getILm0EN11arm_compute8Iterator9DimensionELm6EERT0_RSt5arrayIS3_XT1_EE>:
  40614f:	55                   	push   %rbp
  406150:	48 89 e5             	mov    %rsp,%rbp
  406153:	48 83 ec 10          	sub    $0x10,%rsp
  406157:	48 89 7d f8          	mov    %rdi,-0x8(%rbp)
  40615b:	48 8b 45 f8          	mov    -0x8(%rbp),%rax
  40615f:	be 00 00 00 00       	mov    $0x0,%esi
  406164:	48 89 c7             	mov    %rax,%rdi
  406167:	e8 c2 ff ff ff       	callq  40612e <_ZNSt14__array_traitsIN11arm_compute8Iterator9DimensionELm6EE6_S_refERA6_KS2_m>
  40616c:	c9                   	leaveq 
  40616d:	c3                   	retq   

000000000040616e <_ZN11arm_compute8IteratorC1EPKNS_7ITensorERKNS_6WindowE>:
  40616e:	55                   	push   %rbp
  40616f:	48 89 e5             	mov    %rsp,%rbp
  406172:	41 54                	push   %r12
  406174:	53                   	push   %rbx
  406175:	48 83 ec 40          	sub    $0x40,%rsp
  406179:	48 89 7d c8          	mov    %rdi,-0x38(%rbp)
  40617d:	48 89 75 c0          	mov    %rsi,-0x40(%rbp)
  406181:	48 89 55 b8          	mov    %rdx,-0x48(%rbp)
  406185:	48 8b 45 c8          	mov    -0x38(%rbp),%rax
  406189:	48 89 c7             	mov    %rax,%rdi
  40618c:	e8 5b ff ff ff       	callq  4060ec <_ZN11arm_compute8IteratorC1Ev>
  406191:	48 8b 45 c0          	mov    -0x40(%rbp),%rax
  406195:	48 8b 00             	mov    (%rax),%rax
  406198:	48 8b 00             	mov    (%rax),%rax
  40619b:	48 8b 55 c0          	mov    -0x40(%rbp),%rdx
  40619f:	48 89 d7             	mov    %rdx,%rdi
  4061a2:	ff d0                	callq  *%rax
  4061a4:	48 89 45 e0          	mov    %rax,-0x20(%rbp)
  4061a8:	48 8b 45 e0          	mov    -0x20(%rbp),%rax
  4061ac:	48 8b 00             	mov    (%rax),%rax
  4061af:	48 83 c0 50          	add    $0x50,%rax
  4061b3:	48 8b 00             	mov    (%rax),%rax
  4061b6:	48 8b 55 e0          	mov    -0x20(%rbp),%rdx
  4061ba:	48 89 d7             	mov    %rdx,%rdi
  4061bd:	ff d0                	callq  *%rax
  4061bf:	48 89 45 e8          	mov    %rax,-0x18(%rbp)
  4061c3:	48 8b 45 c0          	mov    -0x40(%rbp),%rax
  4061c7:	48 8b 00             	mov    (%rax),%rax
  4061ca:	48 83 c0 20          	add    $0x20,%rax
  4061ce:	48 8b 00             	mov    (%rax),%rax
  4061d1:	48 8b 55 c0          	mov    -0x40(%rbp),%rdx
  4061d5:	48 89 d7             	mov    %rdx,%rdi
  4061d8:	ff d0                	callq  *%rax
  4061da:	48 89 c3             	mov    %rax,%rbx
  4061dd:	48 8b 45 e0          	mov    -0x20(%rbp),%rax
  4061e1:	48 8b 00             	mov    (%rax),%rax
  4061e4:	48 83 c0 58          	add    $0x58,%rax
  4061e8:	48 8b 00             	mov    (%rax),%rax
  4061eb:	48 8b 55 e0          	mov    -0x20(%rbp),%rdx
  4061ef:	48 89 d7             	mov    %rdx,%rdi
  4061f2:	ff d0                	callq  *%rax
  4061f4:	48 8d 14 03          	lea    (%rbx,%rax,1),%rdx
  4061f8:	48 8b 45 c8          	mov    -0x38(%rbp),%rax
  4061fc:	48 89 10             	mov    %rdx,(%rax)
  4061ff:	c7 45 d8 00 00 00 00 	movl   $0x0,-0x28(%rbp)
  406206:	8b 5d d8             	mov    -0x28(%rbp),%ebx
  406209:	48 8b 45 e0          	mov    -0x20(%rbp),%rax
  40620d:	48 8b 00             	mov    (%rax),%rax
  406210:	48 83 c0 78          	add    $0x78,%rax
  406214:	48 8b 00             	mov    (%rax),%rax
  406217:	48 8b 55 e0          	mov    -0x20(%rbp),%rdx
  40621b:	48 89 d7             	mov    %rdx,%rdi
  40621e:	ff d0                	callq  *%rax
  406220:	48 39 c3             	cmp    %rax,%rbx
  406223:	0f 92 c0             	setb   %al
  406226:	84 c0                	test   %al,%al
  406228:	0f 84 a9 00 00 00    	je     4062d7 <_ZN11arm_compute8IteratorC1EPKNS_7ITensorERKNS_6WindowE+0x169>
  40622e:	8b 45 d8             	mov    -0x28(%rbp),%eax
  406231:	48 8b 55 c8          	mov    -0x38(%rbp),%rdx
  406235:	48 83 c2 08          	add    $0x8,%rdx
  406239:	48 89 c6             	mov    %rax,%rsi
  40623c:	48 89 d7             	mov    %rdx,%rdi
  40623f:	e8 f6 1a 00 00       	callq  407d3a <_ZNSt5arrayIN11arm_compute8Iterator9DimensionELm6EEixEm>
  406244:	48 89 c3             	mov    %rax,%rbx
  406247:	8b 55 d8             	mov    -0x28(%rbp),%edx
  40624a:	48 8b 45 b8          	mov    -0x48(%rbp),%rax
  40624e:	48 89 d6             	mov    %rdx,%rsi
  406251:	48 89 c7             	mov    %rax,%rdi
  406254:	e8 b9 fc ff ff       	callq  405f12 <_ZNK11arm_compute6WindowixEm>
  406259:	48 89 c7             	mov    %rax,%rdi
  40625c:	e8 2f fc ff ff       	callq  405e90 <_ZNK11arm_compute6Window9Dimension4stepEv>
  406261:	48 98                	cltq   
  406263:	41 89 c4             	mov    %eax,%r12d
  406266:	8b 55 d8             	mov    -0x28(%rbp),%edx
  406269:	48 8b 45 e8          	mov    -0x18(%rbp),%rax
  40626d:	48 89 d6             	mov    %rdx,%rsi
  406270:	48 89 c7             	mov    %rax,%rdi
  406273:	e8 36 1a 00 00       	callq  407cae <_ZNK11arm_compute10DimensionsImEixEm>
  406278:	41 0f af c4          	imul   %r12d,%eax
  40627c:	89 43 04             	mov    %eax,0x4(%rbx)
  40627f:	8b 55 d8             	mov    -0x28(%rbp),%edx
  406282:	48 8b 45 e8          	mov    -0x18(%rbp),%rax
  406286:	48 89 d6             	mov    %rdx,%rsi
  406289:	48 89 c7             	mov    %rax,%rdi
  40628c:	e8 1d 1a 00 00       	callq  407cae <_ZNK11arm_compute10DimensionsImEixEm>
  406291:	48 89 c3             	mov    %rax,%rbx
  406294:	8b 55 d8             	mov    -0x28(%rbp),%edx
  406297:	48 8b 45 b8          	mov    -0x48(%rbp),%rax
  40629b:	48 89 d6             	mov    %rdx,%rsi
  40629e:	48 89 c7             	mov    %rax,%rdi
  4062a1:	e8 6c fc ff ff       	callq  405f12 <_ZNK11arm_compute6WindowixEm>
  4062a6:	48 89 c7             	mov    %rax,%rdi
  4062a9:	e8 c0 fb ff ff       	callq  405e6e <_ZNK11arm_compute6Window9Dimension5startEv>
  4062ae:	48 98                	cltq   
  4062b0:	48 0f af d8          	imul   %rax,%rbx
  4062b4:	48 8b 45 c8          	mov    -0x38(%rbp),%rax
  4062b8:	48 83 c0 08          	add    $0x8,%rax
  4062bc:	48 89 c7             	mov    %rax,%rdi
  4062bf:	e8 8b fe ff ff       	callq  40614f <_ZSt3getILm0EN11arm_compute8Iterator9DimensionELm6EERT0_RSt5arrayIS3_XT1_EE>
  4062c4:	8b 10                	mov    (%rax),%edx
  4062c6:	89 d1                	mov    %edx,%ecx
  4062c8:	89 da                	mov    %ebx,%edx
  4062ca:	01 ca                	add    %ecx,%edx
  4062cc:	89 10                	mov    %edx,(%rax)
  4062ce:	83 45 d8 01          	addl   $0x1,-0x28(%rbp)
  4062d2:	e9 2f ff ff ff       	jmpq   406206 <_ZN11arm_compute8IteratorC1EPKNS_7ITensorERKNS_6WindowE+0x98>
  4062d7:	c7 45 dc 01 00 00 00 	movl   $0x1,-0x24(%rbp)
  4062de:	83 7d dc 05          	cmpl   $0x5,-0x24(%rbp)
  4062e2:	77 33                	ja     406317 <_ZN11arm_compute8IteratorC1EPKNS_7ITensorERKNS_6WindowE+0x1a9>
  4062e4:	8b 45 dc             	mov    -0x24(%rbp),%eax
  4062e7:	48 8b 55 c8          	mov    -0x38(%rbp),%rdx
  4062eb:	48 83 c2 08          	add    $0x8,%rdx
  4062ef:	48 89 c6             	mov    %rax,%rsi
  4062f2:	48 89 d7             	mov    %rdx,%rdi
  4062f5:	e8 40 1a 00 00       	callq  407d3a <_ZNSt5arrayIN11arm_compute8Iterator9DimensionELm6EEixEm>
  4062fa:	48 89 c3             	mov    %rax,%rbx
  4062fd:	48 8b 45 c8          	mov    -0x38(%rbp),%rax
  406301:	48 83 c0 08          	add    $0x8,%rax
  406305:	48 89 c7             	mov    %rax,%rdi
  406308:	e8 42 fe ff ff       	callq  40614f <_ZSt3getILm0EN11arm_compute8Iterator9DimensionELm6EERT0_RSt5arrayIS3_XT1_EE>
  40630d:	8b 00                	mov    (%rax),%eax
  40630f:	89 03                	mov    %eax,(%rbx)
  406311:	83 45 dc 01          	addl   $0x1,-0x24(%rbp)
  406315:	eb c7                	jmp    4062de <_ZN11arm_compute8IteratorC1EPKNS_7ITensorERKNS_6WindowE+0x170>
  406317:	48 8b 45 e0          	mov    -0x20(%rbp),%rax
  40631b:	48 8b 00             	mov    (%rax),%rax
  40631e:	48 83 c0 78          	add    $0x78,%rax
  406322:	48 8b 00             	mov    (%rax),%rax
  406325:	48 8b 55 e0          	mov    -0x20(%rbp),%rdx
  406329:	48 89 d7             	mov    %rdx,%rdi
  40632c:	ff d0                	callq  *%rax
  40632e:	89 c2                	mov    %eax,%edx
  406330:	48 8b 45 b8          	mov    -0x48(%rbp),%rax
  406334:	41 89 d0             	mov    %edx,%r8d
  406337:	48 89 c1             	mov    %rax,%rcx
  40633a:	ba d4 00 00 00       	mov    $0xd4,%edx
  40633f:	be c8 bf 40 00       	mov    $0x40bfc8,%esi
  406344:	bf d0 c2 40 00       	mov    $0x40c2d0,%edi
  406349:	e8 f2 cf ff ff       	callq  403340 <_ZN11arm_compute30error_on_window_dimensions_gteEPKcS1_iRKNS_6WindowEj@plt>
  40634e:	90                   	nop
  40634f:	48 83 c4 40          	add    $0x40,%rsp
  406353:	5b                   	pop    %rbx
  406354:	41 5c                	pop    %r12
  406356:	5d                   	pop    %rbp
  406357:	c3                   	retq   

0000000000406358 <_ZN11arm_compute8Iterator9incrementEm>:
  406358:	55                   	push   %rbp
  406359:	48 89 e5             	mov    %rsp,%rbp
  40635c:	53                   	push   %rbx
  40635d:	48 83 ec 28          	sub    $0x28,%rsp
  406361:	48 89 7d d8          	mov    %rdi,-0x28(%rbp)
  406365:	48 89 75 d0          	mov    %rsi,-0x30(%rbp)
  406369:	48 8b 45 d8          	mov    -0x28(%rbp),%rax
  40636d:	48 8d 50 08          	lea    0x8(%rax),%rdx
  406371:	48 8b 45 d0          	mov    -0x30(%rbp),%rax
  406375:	48 89 c6             	mov    %rax,%rsi
  406378:	48 89 d7             	mov    %rdx,%rdi
  40637b:	e8 ba 19 00 00       	callq  407d3a <_ZNSt5arrayIN11arm_compute8Iterator9DimensionELm6EEixEm>
  406380:	8b 58 04             	mov    0x4(%rax),%ebx
  406383:	48 8b 45 d8          	mov    -0x28(%rbp),%rax
  406387:	48 8d 50 08          	lea    0x8(%rax),%rdx
  40638b:	48 8b 45 d0          	mov    -0x30(%rbp),%rax
  40638f:	48 89 c6             	mov    %rax,%rsi
  406392:	48 89 d7             	mov    %rdx,%rdi
  406395:	e8 a0 19 00 00       	callq  407d3a <_ZNSt5arrayIN11arm_compute8Iterator9DimensionELm6EEixEm>
  40639a:	8b 10                	mov    (%rax),%edx
  40639c:	01 da                	add    %ebx,%edx
  40639e:	89 10                	mov    %edx,(%rax)
  4063a0:	c7 45 ec 00 00 00 00 	movl   $0x0,-0x14(%rbp)
  4063a7:	8b 45 ec             	mov    -0x14(%rbp),%eax
  4063aa:	48 3b 45 d0          	cmp    -0x30(%rbp),%rax
  4063ae:	73 3a                	jae    4063ea <_ZN11arm_compute8Iterator9incrementEm+0x92>
  4063b0:	8b 45 ec             	mov    -0x14(%rbp),%eax
  4063b3:	48 8b 55 d8          	mov    -0x28(%rbp),%rdx
  4063b7:	48 83 c2 08          	add    $0x8,%rdx
  4063bb:	48 89 c6             	mov    %rax,%rsi
  4063be:	48 89 d7             	mov    %rdx,%rdi
  4063c1:	e8 74 19 00 00       	callq  407d3a <_ZNSt5arrayIN11arm_compute8Iterator9DimensionELm6EEixEm>
  4063c6:	48 89 c3             	mov    %rax,%rbx
  4063c9:	48 8b 45 d8          	mov    -0x28(%rbp),%rax
  4063cd:	48 8d 50 08          	lea    0x8(%rax),%rdx
  4063d1:	48 8b 45 d0          	mov    -0x30(%rbp),%rax
  4063d5:	48 89 c6             	mov    %rax,%rsi
  4063d8:	48 89 d7             	mov    %rdx,%rdi
  4063db:	e8 5a 19 00 00       	callq  407d3a <_ZNSt5arrayIN11arm_compute8Iterator9DimensionELm6EEixEm>
  4063e0:	8b 00                	mov    (%rax),%eax
  4063e2:	89 03                	mov    %eax,(%rbx)
  4063e4:	83 45 ec 01          	addl   $0x1,-0x14(%rbp)
  4063e8:	eb bd                	jmp    4063a7 <_ZN11arm_compute8Iterator9incrementEm+0x4f>
  4063ea:	90                   	nop
  4063eb:	48 83 c4 28          	add    $0x28,%rsp
  4063ef:	5b                   	pop    %rbx
  4063f0:	5d                   	pop    %rbp
  4063f1:	c3                   	retq   

00000000004063f2 <_ZNKSt5arrayIN11arm_compute8Iterator9DimensionELm6EE2atEm>:
  4063f2:	55                   	push   %rbp
  4063f3:	48 89 e5             	mov    %rsp,%rbp
  4063f6:	48 83 ec 10          	sub    $0x10,%rsp
  4063fa:	48 89 7d f8          	mov    %rdi,-0x8(%rbp)
  4063fe:	48 89 75 f0          	mov    %rsi,-0x10(%rbp)
  406402:	48 83 7d f0 05       	cmpq   $0x5,-0x10(%rbp)
  406407:	77 15                	ja     40641e <_ZNKSt5arrayIN11arm_compute8Iterator9DimensionELm6EE2atEm+0x2c>
  406409:	48 8b 45 f8          	mov    -0x8(%rbp),%rax
  40640d:	48 8b 55 f0          	mov    -0x10(%rbp),%rdx
  406411:	48 89 d6             	mov    %rdx,%rsi
  406414:	48 89 c7             	mov    %rax,%rdi
  406417:	e8 12 fd ff ff       	callq  40612e <_ZNSt14__array_traitsIN11arm_compute8Iterator9DimensionELm6EE6_S_refERA6_KS2_m>
  40641c:	eb 1b                	jmp    406439 <_ZNKSt5arrayIN11arm_compute8Iterator9DimensionELm6EE2atEm+0x47>
  40641e:	48 8b 45 f0          	mov    -0x10(%rbp),%rax
  406422:	ba 06 00 00 00       	mov    $0x6,%edx
  406427:	48 89 c6             	mov    %rax,%rsi
  40642a:	bf 90 bf 40 00       	mov    $0x40bf90,%edi
  40642f:	b8 00 00 00 00       	mov    $0x0,%eax
  406434:	e8 d7 cf ff ff       	callq  403410 <_ZSt24__throw_out_of_range_fmtPKcz@plt>
  406439:	c9                   	leaveq 
  40643a:	c3                   	retq   
  40643b:	90                   	nop

000000000040643c <_ZNK11arm_compute8Iterator3ptrEv>:
  40643c:	55                   	push   %rbp
  40643d:	48 89 e5             	mov    %rsp,%rbp
  406440:	53                   	push   %rbx
  406441:	48 83 ec 18          	sub    $0x18,%rsp
  406445:	48 89 7d e8          	mov    %rdi,-0x18(%rbp)
  406449:	48 8b 45 e8          	mov    -0x18(%rbp),%rax
  40644d:	48 8b 18             	mov    (%rax),%rbx
  406450:	48 8b 45 e8          	mov    -0x18(%rbp),%rax
  406454:	48 83 c0 08          	add    $0x8,%rax
  406458:	be 00 00 00 00       	mov    $0x0,%esi
  40645d:	48 89 c7             	mov    %rax,%rdi
  406460:	e8 8d ff ff ff       	callq  4063f2 <_ZNKSt5arrayIN11arm_compute8Iterator9DimensionELm6EE2atEm>
  406465:	8b 00                	mov    (%rax),%eax
  406467:	48 98                	cltq   
  406469:	48 01 d8             	add    %rbx,%rax
  40646c:	48 83 c4 18          	add    $0x18,%rsp
  406470:	5b                   	pop    %rbx
  406471:	5d                   	pop    %rbp
  406472:	c3                   	retq   
  406473:	90                   	nop

0000000000406474 <_ZN11arm_compute11CLScheduler12default_initEv>:
  406474:	55                   	push   %rbp
  406475:	48 89 e5             	mov    %rsp,%rbp
  406478:	53                   	push   %rbx
  406479:	48 83 ec 78          	sub    $0x78,%rsp
  40647d:	48 89 7d 88          	mov    %rdi,-0x78(%rbp)
  406481:	64 48 8b 04 25 28 00 	mov    %fs:0x28,%rax
  406488:	00 00 
  40648a:	48 89 45 e8          	mov    %rax,-0x18(%rbp)
  40648e:	31 c0                	xor    %eax,%eax
  406490:	48 8d 45 b0          	lea    -0x50(%rbp),%rax
  406494:	be 00 00 00 00       	mov    $0x0,%esi
  406499:	48 89 c7             	mov    %rax,%rdi
  40649c:	e8 da e1 ff ff       	callq  40467b <_ZN2cl6Device10getDefaultEPi>
  4064a1:	48 8d 45 a0          	lea    -0x60(%rbp),%rax
  4064a5:	be 00 00 00 00       	mov    $0x0,%esi
  4064aa:	48 89 c7             	mov    %rax,%rdi
  4064ad:	e8 00 f0 ff ff       	callq  4054b2 <_ZN2cl7Context10getDefaultEPi>
  4064b2:	48 8d 45 90          	lea    -0x70(%rbp),%rax
  4064b6:	48 89 c7             	mov    %rax,%rdi
  4064b9:	e8 62 d0 ff ff       	callq  403520 <_ZNSaIcEC1Ev@plt>
  4064be:	48 8d 55 90          	lea    -0x70(%rbp),%rdx
  4064c2:	48 8d 45 c0          	lea    -0x40(%rbp),%rax
  4064c6:	be 4c c0 40 00       	mov    $0x40c04c,%esi
  4064cb:	48 89 c7             	mov    %rax,%rdi
  4064ce:	e8 fd ce ff ff       	callq  4033d0 <_ZNSt7__cxx1112basic_stringIcSt11char_traitsIcESaIcEEC1EPKcRKS3_@plt>
  4064d3:	e8 28 cd ff ff       	callq  403200 <_ZN11arm_compute15CLKernelLibrary3getEv@plt>
  4064d8:	48 89 c7             	mov    %rax,%rdi
  4064db:	48 8d 4d b0          	lea    -0x50(%rbp),%rcx
  4064df:	48 8d 55 a0          	lea    -0x60(%rbp),%rdx
  4064e3:	48 8d 45 c0          	lea    -0x40(%rbp),%rax
  4064e7:	48 89 c6             	mov    %rax,%rsi
  4064ea:	e8 b5 f5 ff ff       	callq  405aa4 <_ZN11arm_compute15CLKernelLibrary4initENSt7__cxx1112basic_stringIcSt11char_traitsIcESaIcEEEN2cl7ContextENS7_6DeviceE>
  4064ef:	48 8d 45 c0          	lea    -0x40(%rbp),%rax
  4064f3:	48 89 c7             	mov    %rax,%rdi
  4064f6:	e8 25 cd ff ff       	callq  403220 <_ZNSt7__cxx1112basic_stringIcSt11char_traitsIcESaIcEED1Ev@plt>
  4064fb:	48 8d 45 90          	lea    -0x70(%rbp),%rax
  4064ff:	48 89 c7             	mov    %rax,%rdi
  406502:	e8 c9 cd ff ff       	callq  4032d0 <_ZNSaIcED1Ev@plt>
  406507:	48 8d 45 a0          	lea    -0x60(%rbp),%rax
  40650b:	48 89 c7             	mov    %rax,%rdi
  40650e:	e8 05 ea ff ff       	callq  404f18 <_ZN2cl7ContextD1Ev>
  406513:	48 8d 45 b0          	lea    -0x50(%rbp),%rax
  406517:	48 89 c7             	mov    %rax,%rdi
  40651a:	e8 41 e1 ff ff       	callq  404660 <_ZN2cl6DeviceD1Ev>
  40651f:	48 8d 45 b0          	lea    -0x50(%rbp),%rax
  406523:	be 00 00 00 00       	mov    $0x0,%esi
  406528:	48 89 c7             	mov    %rax,%rdi
  40652b:	e8 4b e1 ff ff       	callq  40467b <_ZN2cl6Device10getDefaultEPi>
  406530:	48 8d 45 a0          	lea    -0x60(%rbp),%rax
  406534:	be 00 00 00 00       	mov    $0x0,%esi
  406539:	48 89 c7             	mov    %rax,%rdi
  40653c:	e8 4b f4 ff ff       	callq  40598c <_ZN2cl12CommandQueue10getDefaultEPi>
  406541:	48 8d 45 90          	lea    -0x70(%rbp),%rax
  406545:	be 00 00 00 00       	mov    $0x0,%esi
  40654a:	48 89 c7             	mov    %rax,%rdi
  40654d:	e8 60 ef ff ff       	callq  4054b2 <_ZN2cl7Context10getDefaultEPi>
  406552:	48 8d 4d b0          	lea    -0x50(%rbp),%rcx
  406556:	48 8d 55 a0          	lea    -0x60(%rbp),%rdx
  40655a:	48 8d 75 90          	lea    -0x70(%rbp),%rsi
  40655e:	48 8b 45 88          	mov    -0x78(%rbp),%rax
  406562:	48 89 c7             	mov    %rax,%rdi
  406565:	e8 ce 00 00 00       	callq  406638 <_ZN11arm_compute11CLScheduler4initEN2cl7ContextENS1_12CommandQueueENS1_6DeviceE>
  40656a:	48 8d 45 90          	lea    -0x70(%rbp),%rax
  40656e:	48 89 c7             	mov    %rax,%rdi
  406571:	e8 a2 e9 ff ff       	callq  404f18 <_ZN2cl7ContextD1Ev>
  406576:	48 8d 45 a0          	lea    -0x60(%rbp),%rax
  40657a:	48 89 c7             	mov    %rax,%rdi
  40657d:	e8 ee f1 ff ff       	callq  405770 <_ZN2cl12CommandQueueD1Ev>
  406582:	48 8d 45 b0          	lea    -0x50(%rbp),%rax
  406586:	48 89 c7             	mov    %rax,%rdi
  406589:	e8 d2 e0 ff ff       	callq  404660 <_ZN2cl6DeviceD1Ev>
  40658e:	90                   	nop
  40658f:	48 8b 45 e8          	mov    -0x18(%rbp),%rax
  406593:	64 48 33 04 25 28 00 	xor    %fs:0x28,%rax
  40659a:	00 00 
  40659c:	0f 84 8e 00 00 00    	je     406630 <_ZN11arm_compute11CLScheduler12default_initEv+0x1bc>
  4065a2:	e9 84 00 00 00       	jmpq   40662b <_ZN11arm_compute11CLScheduler12default_initEv+0x1b7>
  4065a7:	48 89 c3             	mov    %rax,%rbx
  4065aa:	48 8d 45 c0          	lea    -0x40(%rbp),%rax
  4065ae:	48 89 c7             	mov    %rax,%rdi
  4065b1:	e8 6a cc ff ff       	callq  403220 <_ZNSt7__cxx1112basic_stringIcSt11char_traitsIcESaIcEED1Ev@plt>
  4065b6:	eb 03                	jmp    4065bb <_ZN11arm_compute11CLScheduler12default_initEv+0x147>
  4065b8:	48 89 c3             	mov    %rax,%rbx
  4065bb:	48 8d 45 90          	lea    -0x70(%rbp),%rax
  4065bf:	48 89 c7             	mov    %rax,%rdi
  4065c2:	e8 09 cd ff ff       	callq  4032d0 <_ZNSaIcED1Ev@plt>
  4065c7:	48 8d 45 a0          	lea    -0x60(%rbp),%rax
  4065cb:	48 89 c7             	mov    %rax,%rdi
  4065ce:	e8 45 e9 ff ff       	callq  404f18 <_ZN2cl7ContextD1Ev>
  4065d3:	eb 03                	jmp    4065d8 <_ZN11arm_compute11CLScheduler12default_initEv+0x164>
  4065d5:	48 89 c3             	mov    %rax,%rbx
  4065d8:	48 8d 45 b0          	lea    -0x50(%rbp),%rax
  4065dc:	48 89 c7             	mov    %rax,%rdi
  4065df:	e8 7c e0 ff ff       	callq  404660 <_ZN2cl6DeviceD1Ev>
  4065e4:	48 89 d8             	mov    %rbx,%rax
  4065e7:	48 89 c7             	mov    %rax,%rdi
  4065ea:	e8 21 cf ff ff       	callq  403510 <_Unwind_Resume@plt>
  4065ef:	48 89 c3             	mov    %rax,%rbx
  4065f2:	48 8d 45 90          	lea    -0x70(%rbp),%rax
  4065f6:	48 89 c7             	mov    %rax,%rdi
  4065f9:	e8 1a e9 ff ff       	callq  404f18 <_ZN2cl7ContextD1Ev>
  4065fe:	eb 03                	jmp    406603 <_ZN11arm_compute11CLScheduler12default_initEv+0x18f>
  406600:	48 89 c3             	mov    %rax,%rbx
  406603:	48 8d 45 a0          	lea    -0x60(%rbp),%rax
  406607:	48 89 c7             	mov    %rax,%rdi
  40660a:	e8 61 f1 ff ff       	callq  405770 <_ZN2cl12CommandQueueD1Ev>
  40660f:	eb 03                	jmp    406614 <_ZN11arm_compute11CLScheduler12default_initEv+0x1a0>
  406611:	48 89 c3             	mov    %rax,%rbx
  406614:	48 8d 45 b0          	lea    -0x50(%rbp),%rax
  406618:	48 89 c7             	mov    %rax,%rdi
  40661b:	e8 40 e0 ff ff       	callq  404660 <_ZN2cl6DeviceD1Ev>
  406620:	48 89 d8             	mov    %rbx,%rax
  406623:	48 89 c7             	mov    %rax,%rdi
  406626:	e8 e5 ce ff ff       	callq  403510 <_Unwind_Resume@plt>
  40662b:	e8 c0 cc ff ff       	callq  4032f0 <__stack_chk_fail@plt>
  406630:	48 83 c4 78          	add    $0x78,%rsp
  406634:	5b                   	pop    %rbx
  406635:	5d                   	pop    %rbp
  406636:	c3                   	retq   
  406637:	90                   	nop

0000000000406638 <_ZN11arm_compute11CLScheduler4initEN2cl7ContextENS1_12CommandQueueENS1_6DeviceE>:
  406638:	55                   	push   %rbp
  406639:	48 89 e5             	mov    %rsp,%rbp
  40663c:	48 83 ec 20          	sub    $0x20,%rsp
  406640:	48 89 7d f8          	mov    %rdi,-0x8(%rbp)
  406644:	48 89 75 f0          	mov    %rsi,-0x10(%rbp)
  406648:	48 89 55 e8          	mov    %rdx,-0x18(%rbp)
  40664c:	48 89 4d e0          	mov    %rcx,-0x20(%rbp)
  406650:	48 8b 45 f0          	mov    -0x10(%rbp),%rax
  406654:	48 89 c7             	mov    %rax,%rdi
  406657:	e8 13 ee ff ff       	callq  40546f <_ZSt4moveIRN2cl7ContextEEONSt16remove_referenceIT_E4typeEOS4_>
  40665c:	48 89 c2             	mov    %rax,%rdx
  40665f:	48 8b 45 f8          	mov    -0x8(%rbp),%rax
  406663:	48 89 d6             	mov    %rdx,%rsi
  406666:	48 89 c7             	mov    %rax,%rdi
  406669:	e8 10 ee ff ff       	callq  40547e <_ZN2cl7ContextaSEOS0_>
  40666e:	48 8b 45 e8          	mov    -0x18(%rbp),%rax
  406672:	48 89 c7             	mov    %rax,%rdi
  406675:	e8 b0 f3 ff ff       	callq  405a2a <_ZSt4moveIRN2cl12CommandQueueEEONSt16remove_referenceIT_E4typeEOS4_>
  40667a:	48 89 c2             	mov    %rax,%rdx
  40667d:	48 8b 45 f8          	mov    -0x8(%rbp),%rax
  406681:	48 83 c0 08          	add    $0x8,%rax
  406685:	48 89 d6             	mov    %rdx,%rsi
  406688:	48 89 c7             	mov    %rax,%rdi
  40668b:	e8 a8 f3 ff ff       	callq  405a38 <_ZN2cl12CommandQueueaSEOS0_>
  406690:	48 8b 45 e0          	mov    -0x20(%rbp),%rax
  406694:	48 89 c7             	mov    %rax,%rdi
  406697:	e8 14 cd ff ff       	callq  4033b0 <_ZN11arm_compute22get_target_from_deviceERN2cl6DeviceE@plt>
  40669c:	89 c2                	mov    %eax,%edx
  40669e:	48 8b 45 f8          	mov    -0x8(%rbp),%rax
  4066a2:	89 50 10             	mov    %edx,0x10(%rax)
  4066a5:	48 8b 45 f8          	mov    -0x8(%rbp),%rax
  4066a9:	c6 40 14 01          	movb   $0x1,0x14(%rax)
  4066ad:	90                   	nop
  4066ae:	c9                   	leaveq 
  4066af:	c3                   	retq   

00000000004066b0 <_ZN11arm_compute11CLScheduler4syncEv>:
  4066b0:	55                   	push   %rbp
  4066b1:	48 89 e5             	mov    %rsp,%rbp
  4066b4:	48 83 ec 10          	sub    $0x10,%rsp
  4066b8:	48 89 7d f8          	mov    %rdi,-0x8(%rbp)
  4066bc:	48 8b 45 f8          	mov    -0x8(%rbp),%rax
  4066c0:	48 83 c0 08          	add    $0x8,%rax
  4066c4:	48 89 c7             	mov    %rax,%rdi
  4066c7:	e8 a0 f3 ff ff       	callq  405a6c <_ZNK2cl12CommandQueue6finishEv>
  4066cc:	90                   	nop
  4066cd:	c9                   	leaveq 
  4066ce:	c3                   	retq   
  4066cf:	90                   	nop

00000000004066d0 <_ZNK2CK5Shape10data_countEv>:
  4066d0:	55                   	push   %rbp
  4066d1:	48 89 e5             	mov    %rsp,%rbp
  4066d4:	48 89 7d f8          	mov    %rdi,-0x8(%rbp)
  4066d8:	48 8b 45 f8          	mov    -0x8(%rbp),%rax
  4066dc:	8b 10                	mov    (%rax),%edx
  4066de:	48 8b 45 f8          	mov    -0x8(%rbp),%rax
  4066e2:	8b 40 04             	mov    0x4(%rax),%eax
  4066e5:	0f af d0             	imul   %eax,%edx
  4066e8:	48 8b 45 f8          	mov    -0x8(%rbp),%rax
  4066ec:	8b 40 0c             	mov    0xc(%rax),%eax
  4066ef:	0f af d0             	imul   %eax,%edx
  4066f2:	48 8b 45 f8          	mov    -0x8(%rbp),%rax
  4066f6:	8b 40 08             	mov    0x8(%rax),%eax
  4066f9:	0f af c2             	imul   %edx,%eax
  4066fc:	5d                   	pop    %rbp
  4066fd:	c3                   	retq   

00000000004066fe <_ZNK2CK5Shape14get_flat_indexEiiii>:
  4066fe:	55                   	push   %rbp
  4066ff:	48 89 e5             	mov    %rsp,%rbp
  406702:	48 83 ec 20          	sub    $0x20,%rsp
  406706:	48 89 7d f8          	mov    %rdi,-0x8(%rbp)
  40670a:	89 75 f4             	mov    %esi,-0xc(%rbp)
  40670d:	89 55 f0             	mov    %edx,-0x10(%rbp)
  406710:	89 4d ec             	mov    %ecx,-0x14(%rbp)
  406713:	44 89 45 e8          	mov    %r8d,-0x18(%rbp)
  406717:	8b 7d e8             	mov    -0x18(%rbp),%edi
  40671a:	8b 4d ec             	mov    -0x14(%rbp),%ecx
  40671d:	8b 55 f0             	mov    -0x10(%rbp),%edx
  406720:	8b 75 f4             	mov    -0xc(%rbp),%esi
  406723:	48 8b 45 f8          	mov    -0x8(%rbp),%rax
  406727:	41 89 f8             	mov    %edi,%r8d
  40672a:	48 89 c7             	mov    %rax,%rdi
  40672d:	e8 02 00 00 00       	callq  406734 <_ZNK2CK5Shape19get_flat_index_nchwEiiii>
  406732:	c9                   	leaveq 
  406733:	c3                   	retq   

0000000000406734 <_ZNK2CK5Shape19get_flat_index_nchwEiiii>:
  406734:	55                   	push   %rbp
  406735:	48 89 e5             	mov    %rsp,%rbp
  406738:	48 89 7d f8          	mov    %rdi,-0x8(%rbp)
  40673c:	89 75 f4             	mov    %esi,-0xc(%rbp)
  40673f:	89 55 f0             	mov    %edx,-0x10(%rbp)
  406742:	89 4d ec             	mov    %ecx,-0x14(%rbp)
  406745:	44 89 45 e8          	mov    %r8d,-0x18(%rbp)
  406749:	48 8b 45 f8          	mov    -0x8(%rbp),%rax
  40674d:	8b 40 04             	mov    0x4(%rax),%eax
  406750:	0f af 45 f4          	imul   -0xc(%rbp),%eax
  406754:	89 c2                	mov    %eax,%edx
  406756:	8b 45 f0             	mov    -0x10(%rbp),%eax
  406759:	01 c2                	add    %eax,%edx
  40675b:	48 8b 45 f8          	mov    -0x8(%rbp),%rax
  40675f:	8b 40 0c             	mov    0xc(%rax),%eax
  406762:	0f af d0             	imul   %eax,%edx
  406765:	8b 45 ec             	mov    -0x14(%rbp),%eax
  406768:	01 c2                	add    %eax,%edx
  40676a:	48 8b 45 f8          	mov    -0x8(%rbp),%rax
  40676e:	8b 40 08             	mov    0x8(%rax),%eax
  406771:	0f af d0             	imul   %eax,%edx
  406774:	8b 45 e8             	mov    -0x18(%rbp),%eax
  406777:	01 d0                	add    %edx,%eax
  406779:	5d                   	pop    %rbp
  40677a:	c3                   	retq   

000000000040677b <_ZN2CK8getenv_iEPKci>:
  40677b:	55                   	push   %rbp
  40677c:	48 89 e5             	mov    %rsp,%rbp
  40677f:	48 83 ec 10          	sub    $0x10,%rsp
  406783:	48 89 7d f8          	mov    %rdi,-0x8(%rbp)
  406787:	89 75 f4             	mov    %esi,-0xc(%rbp)
  40678a:	48 8b 45 f8          	mov    -0x8(%rbp),%rax
  40678e:	48 89 c7             	mov    %rax,%rdi
  406791:	e8 9a cb ff ff       	callq  403330 <getenv@plt>
  406796:	48 85 c0             	test   %rax,%rax
  406799:	74 16                	je     4067b1 <_ZN2CK8getenv_iEPKci+0x36>
  40679b:	48 8b 45 f8          	mov    -0x8(%rbp),%rax
  40679f:	48 89 c7             	mov    %rax,%rdi
  4067a2:	e8 89 cb ff ff       	callq  403330 <getenv@plt>
  4067a7:	48 89 c7             	mov    %rax,%rdi
  4067aa:	e8 91 cc ff ff       	callq  403440 <atoi@plt>
  4067af:	eb 03                	jmp    4067b4 <_ZN2CK8getenv_iEPKci+0x39>
  4067b1:	8b 45 f4             	mov    -0xc(%rbp),%eax
  4067b4:	c9                   	leaveq 
  4067b5:	c3                   	retq   

00000000004067b6 <_ZN2CK13store_value_iEiPKci>:
  4067b6:	55                   	push   %rbp
  4067b7:	48 89 e5             	mov    %rsp,%rbp
  4067ba:	48 83 ec 20          	sub    $0x20,%rsp
  4067be:	89 7d ec             	mov    %edi,-0x14(%rbp)
  4067c1:	48 89 75 e0          	mov    %rsi,-0x20(%rbp)
  4067c5:	89 55 e8             	mov    %edx,-0x18(%rbp)
  4067c8:	48 8b 45 e0          	mov    -0x20(%rbp),%rax
  4067cc:	48 89 c7             	mov    %rax,%rdi
  4067cf:	e8 dc c9 ff ff       	callq  4031b0 <strlen@plt>
  4067d4:	48 83 c0 05          	add    $0x5,%rax
  4067d8:	48 89 c7             	mov    %rax,%rdi
  4067db:	e8 f0 c8 ff ff       	callq  4030d0 <_Znam@plt>
  4067e0:	48 89 45 f8          	mov    %rax,-0x8(%rbp)
  4067e4:	48 8b 55 e0          	mov    -0x20(%rbp),%rdx
  4067e8:	48 8b 45 f8          	mov    -0x8(%rbp),%rax
  4067ec:	be 5a c0 40 00       	mov    $0x40c05a,%esi
  4067f1:	48 89 c7             	mov    %rax,%rdi
  4067f4:	b8 00 00 00 00       	mov    $0x0,%eax
  4067f9:	e8 12 c9 ff ff       	callq  403110 <sprintf@plt>
  4067fe:	8b 55 e8             	mov    -0x18(%rbp),%edx
  406801:	48 8b 4d f8          	mov    -0x8(%rbp),%rcx
  406805:	8b 45 ec             	mov    -0x14(%rbp),%eax
  406808:	48 89 ce             	mov    %rcx,%rsi
  40680b:	89 c7                	mov    %eax,%edi
  40680d:	e8 fe ca ff ff       	callq  403310 <xopenme_add_var_i@plt>
  406812:	48 83 7d f8 00       	cmpq   $0x0,-0x8(%rbp)
  406817:	74 0c                	je     406825 <_ZN2CK13store_value_iEiPKci+0x6f>
  406819:	48 8b 45 f8          	mov    -0x8(%rbp),%rax
  40681d:	48 89 c7             	mov    %rax,%rdi
  406820:	e8 7b cb ff ff       	callq  4033a0 <_ZdaPv@plt>
  406825:	90                   	nop
  406826:	c9                   	leaveq 
  406827:	c3                   	retq   

0000000000406828 <_ZN2CK13store_value_fEiPKcf>:
  406828:	55                   	push   %rbp
  406829:	48 89 e5             	mov    %rsp,%rbp
  40682c:	48 83 ec 30          	sub    $0x30,%rsp
  406830:	89 7d ec             	mov    %edi,-0x14(%rbp)
  406833:	48 89 75 e0          	mov    %rsi,-0x20(%rbp)
  406837:	f3 0f 11 45 e8       	movss  %xmm0,-0x18(%rbp)
  40683c:	48 8b 45 e0          	mov    -0x20(%rbp),%rax
  406840:	48 89 c7             	mov    %rax,%rdi
  406843:	e8 68 c9 ff ff       	callq  4031b0 <strlen@plt>
  406848:	48 83 c0 05          	add    $0x5,%rax
  40684c:	48 89 c7             	mov    %rax,%rdi
  40684f:	e8 7c c8 ff ff       	callq  4030d0 <_Znam@plt>
  406854:	48 89 45 f8          	mov    %rax,-0x8(%rbp)
  406858:	48 8b 55 e0          	mov    -0x20(%rbp),%rdx
  40685c:	48 8b 45 f8          	mov    -0x8(%rbp),%rax
  406860:	be 63 c0 40 00       	mov    $0x40c063,%esi
  406865:	48 89 c7             	mov    %rax,%rdi
  406868:	b8 00 00 00 00       	mov    $0x0,%eax
  40686d:	e8 9e c8 ff ff       	callq  403110 <sprintf@plt>
  406872:	8b 4d e8             	mov    -0x18(%rbp),%ecx
  406875:	48 8b 55 f8          	mov    -0x8(%rbp),%rdx
  406879:	8b 45 ec             	mov    -0x14(%rbp),%eax
  40687c:	89 4d dc             	mov    %ecx,-0x24(%rbp)
  40687f:	f3 0f 10 45 dc       	movss  -0x24(%rbp),%xmm0
  406884:	48 89 d6             	mov    %rdx,%rsi
  406887:	89 c7                	mov    %eax,%edi
  406889:	e8 e2 cc ff ff       	callq  403570 <xopenme_add_var_f@plt>
  40688e:	48 83 7d f8 00       	cmpq   $0x0,-0x8(%rbp)
  406893:	74 0c                	je     4068a1 <_ZN2CK13store_value_fEiPKcf+0x79>
  406895:	48 8b 45 f8          	mov    -0x8(%rbp),%rax
  406899:	48 89 c7             	mov    %rax,%rdi
  40689c:	e8 ff ca ff ff       	callq  4033a0 <_ZdaPv@plt>
  4068a1:	90                   	nop
  4068a2:	c9                   	leaveq 
  4068a3:	c3                   	retq   

00000000004068a4 <_ZN2CK24get_input_shape_from_envEv>:
  4068a4:	55                   	push   %rbp
  4068a5:	48 89 e5             	mov    %rsp,%rbp
  4068a8:	48 83 ec 20          	sub    $0x20,%rsp
  4068ac:	64 48 8b 04 25 28 00 	mov    %fs:0x28,%rax
  4068b3:	00 00 
  4068b5:	48 89 45 f8          	mov    %rax,-0x8(%rbp)
  4068b9:	31 c0                	xor    %eax,%eax
  4068bb:	be 01 00 00 00       	mov    $0x1,%esi
  4068c0:	bf 6c c0 40 00       	mov    $0x40c06c,%edi
  4068c5:	e8 b1 fe ff ff       	callq  40677b <_ZN2CK8getenv_iEPKci>
  4068ca:	89 45 e0             	mov    %eax,-0x20(%rbp)
  4068cd:	be 03 00 00 00       	mov    $0x3,%esi
  4068d2:	bf 7a c0 40 00       	mov    $0x40c07a,%edi
  4068d7:	e8 9f fe ff ff       	callq  40677b <_ZN2CK8getenv_iEPKci>
  4068dc:	89 45 e4             	mov    %eax,-0x1c(%rbp)
  4068df:	be 01 00 00 00       	mov    $0x1,%esi
  4068e4:	bf 88 c0 40 00       	mov    $0x40c088,%edi
  4068e9:	e8 8d fe ff ff       	callq  40677b <_ZN2CK8getenv_iEPKci>
  4068ee:	89 45 ec             	mov    %eax,-0x14(%rbp)
  4068f1:	be 01 00 00 00       	mov    $0x1,%esi
  4068f6:	bf 96 c0 40 00       	mov    $0x40c096,%edi
  4068fb:	e8 7b fe ff ff       	callq  40677b <_ZN2CK8getenv_iEPKci>
  406900:	89 45 e8             	mov    %eax,-0x18(%rbp)
  406903:	8b 45 e0             	mov    -0x20(%rbp),%eax
  406906:	89 c2                	mov    %eax,%edx
  406908:	be a4 c0 40 00       	mov    $0x40c0a4,%esi
  40690d:	bf 04 00 00 00       	mov    $0x4,%edi
  406912:	e8 9f fe ff ff       	callq  4067b6 <_ZN2CK13store_value_iEiPKci>
  406917:	8b 45 e4             	mov    -0x1c(%rbp),%eax
  40691a:	89 c2                	mov    %eax,%edx
  40691c:	be af c0 40 00       	mov    $0x40c0af,%esi
  406921:	bf 05 00 00 00       	mov    $0x5,%edi
  406926:	e8 8b fe ff ff       	callq  4067b6 <_ZN2CK13store_value_iEiPKci>
  40692b:	8b 45 ec             	mov    -0x14(%rbp),%eax
  40692e:	89 c2                	mov    %eax,%edx
  406930:	be ba c0 40 00       	mov    $0x40c0ba,%esi
  406935:	bf 06 00 00 00       	mov    $0x6,%edi
  40693a:	e8 77 fe ff ff       	callq  4067b6 <_ZN2CK13store_value_iEiPKci>
  40693f:	8b 45 e8             	mov    -0x18(%rbp),%eax
  406942:	89 c2                	mov    %eax,%edx
  406944:	be c5 c0 40 00       	mov    $0x40c0c5,%esi
  406949:	bf 07 00 00 00       	mov    $0x7,%edi
  40694e:	e8 63 fe ff ff       	callq  4067b6 <_ZN2CK13store_value_iEiPKci>
  406953:	48 8b 45 e0          	mov    -0x20(%rbp),%rax
  406957:	48 8b 55 e8          	mov    -0x18(%rbp),%rdx
  40695b:	48 8b 4d f8          	mov    -0x8(%rbp),%rcx
  40695f:	64 48 33 0c 25 28 00 	xor    %fs:0x28,%rcx
  406966:	00 00 
  406968:	74 05                	je     40696f <_ZN2CK24get_input_shape_from_envEv+0xcb>
  40696a:	e8 81 c9 ff ff       	callq  4032f0 <__stack_chk_fail@plt>
  40696f:	c9                   	leaveq 
  406970:	c3                   	retq   

0000000000406971 <_ZN2CK9init_testEv>:
  406971:	55                   	push   %rbp
  406972:	48 89 e5             	mov    %rsp,%rbp
  406975:	be 0c 00 00 00       	mov    $0xc,%esi
  40697a:	bf 02 00 00 00       	mov    $0x2,%edi
  40697f:	e8 0c c8 ff ff       	callq  403190 <xopenme_init@plt>
  406984:	90                   	nop
  406985:	5d                   	pop    %rbp
  406986:	c3                   	retq   

0000000000406987 <_ZN2CK11finish_testEv>:
  406987:	55                   	push   %rbp
  406988:	48 89 e5             	mov    %rsp,%rbp
  40698b:	bf 00 00 00 00       	mov    $0x0,%edi
  406990:	e8 0b cc ff ff       	callq  4035a0 <xopenme_get_timer@plt>
  406995:	be 00 00 00 00       	mov    $0x0,%esi
  40699a:	bf d0 c0 40 00       	mov    $0x40c0d0,%edi
  40699f:	b8 01 00 00 00       	mov    $0x1,%eax
  4069a4:	e8 47 c7 ff ff       	callq  4030f0 <printf@plt>
  4069a9:	bf 01 00 00 00       	mov    $0x1,%edi
  4069ae:	e8 ed cb ff ff       	callq  4035a0 <xopenme_get_timer@plt>
  4069b3:	be 01 00 00 00       	mov    $0x1,%esi
  4069b8:	bf e4 c0 40 00       	mov    $0x40c0e4,%edi
  4069bd:	b8 01 00 00 00       	mov    $0x1,%eax
  4069c2:	e8 29 c7 ff ff       	callq  4030f0 <printf@plt>
  4069c7:	e8 64 c7 ff ff       	callq  403130 <xopenme_dump_state@plt>
  4069cc:	e8 7f c7 ff ff       	callq  403150 <xopenme_finish@plt>
  4069d1:	90                   	nop
  4069d2:	5d                   	pop    %rbp
  4069d3:	c3                   	retq   

00000000004069d4 <_ZN2CK5armcl15set_kernel_pathEv>:
  4069d4:	55                   	push   %rbp
  4069d5:	48 89 e5             	mov    %rsp,%rbp
  4069d8:	53                   	push   %rbx
  4069d9:	48 83 ec 48          	sub    $0x48,%rsp
  4069dd:	64 48 8b 04 25 28 00 	mov    %fs:0x28,%rax
  4069e4:	00 00 
  4069e6:	48 89 45 e8          	mov    %rax,-0x18(%rbp)
  4069ea:	31 c0                	xor    %eax,%eax
  4069ec:	bf 12 c1 40 00       	mov    $0x40c112,%edi
  4069f1:	e8 3a c9 ff ff       	callq  403330 <getenv@plt>
  4069f6:	48 89 45 b8          	mov    %rax,-0x48(%rbp)
  4069fa:	48 83 7d b8 00       	cmpq   $0x0,-0x48(%rbp)
  4069ff:	0f 84 95 00 00 00    	je     406a9a <_ZN2CK5armcl15set_kernel_pathEv+0xc6>
  406a05:	48 8b 45 b8          	mov    -0x48(%rbp),%rax
  406a09:	48 89 c6             	mov    %rax,%rsi
  406a0c:	bf 2c c1 40 00       	mov    $0x40c12c,%edi
  406a11:	b8 00 00 00 00       	mov    $0x0,%eax
  406a16:	e8 d5 c6 ff ff       	callq  4030f0 <printf@plt>
  406a1b:	48 8d 45 b7          	lea    -0x49(%rbp),%rax
  406a1f:	48 89 c7             	mov    %rax,%rdi
  406a22:	e8 f9 ca ff ff       	callq  403520 <_ZNSaIcEC1Ev@plt>
  406a27:	48 8d 55 b7          	lea    -0x49(%rbp),%rdx
  406a2b:	48 8b 4d b8          	mov    -0x48(%rbp),%rcx
  406a2f:	48 8d 45 c0          	lea    -0x40(%rbp),%rax
  406a33:	48 89 ce             	mov    %rcx,%rsi
  406a36:	48 89 c7             	mov    %rax,%rdi
  406a39:	e8 92 c9 ff ff       	callq  4033d0 <_ZNSt7__cxx1112basic_stringIcSt11char_traitsIcESaIcEEC1EPKcRKS3_@plt>
  406a3e:	e8 bd c7 ff ff       	callq  403200 <_ZN11arm_compute15CLKernelLibrary3getEv@plt>
  406a43:	48 89 c2             	mov    %rax,%rdx
  406a46:	48 8d 45 c0          	lea    -0x40(%rbp),%rax
  406a4a:	48 89 c6             	mov    %rax,%rsi
  406a4d:	48 89 d7             	mov    %rdx,%rdi
  406a50:	e8 e7 f0 ff ff       	callq  405b3c <_ZN11arm_compute15CLKernelLibrary15set_kernel_pathERKNSt7__cxx1112basic_stringIcSt11char_traitsIcESaIcEEE>
  406a55:	48 8d 45 c0          	lea    -0x40(%rbp),%rax
  406a59:	48 89 c7             	mov    %rax,%rdi
  406a5c:	e8 bf c7 ff ff       	callq  403220 <_ZNSt7__cxx1112basic_stringIcSt11char_traitsIcESaIcEED1Ev@plt>
  406a61:	48 8d 45 b7          	lea    -0x49(%rbp),%rax
  406a65:	48 89 c7             	mov    %rax,%rdi
  406a68:	e8 63 c8 ff ff       	callq  4032d0 <_ZNSaIcED1Ev@plt>
  406a6d:	eb 2b                	jmp    406a9a <_ZN2CK5armcl15set_kernel_pathEv+0xc6>
  406a6f:	48 89 c3             	mov    %rax,%rbx
  406a72:	48 8d 45 c0          	lea    -0x40(%rbp),%rax
  406a76:	48 89 c7             	mov    %rax,%rdi
  406a79:	e8 a2 c7 ff ff       	callq  403220 <_ZNSt7__cxx1112basic_stringIcSt11char_traitsIcESaIcEED1Ev@plt>
  406a7e:	eb 03                	jmp    406a83 <_ZN2CK5armcl15set_kernel_pathEv+0xaf>
  406a80:	48 89 c3             	mov    %rax,%rbx
  406a83:	48 8d 45 b7          	lea    -0x49(%rbp),%rax
  406a87:	48 89 c7             	mov    %rax,%rdi
  406a8a:	e8 41 c8 ff ff       	callq  4032d0 <_ZNSaIcED1Ev@plt>
  406a8f:	48 89 d8             	mov    %rbx,%rax
  406a92:	48 89 c7             	mov    %rax,%rdi
  406a95:	e8 76 ca ff ff       	callq  403510 <_Unwind_Resume@plt>
  406a9a:	90                   	nop
  406a9b:	48 8b 45 e8          	mov    -0x18(%rbp),%rax
  406a9f:	64 48 33 04 25 28 00 	xor    %fs:0x28,%rax
  406aa6:	00 00 
  406aa8:	74 05                	je     406aaf <_ZN2CK5armcl15set_kernel_pathEv+0xdb>
  406aaa:	e8 41 c8 ff ff       	callq  4032f0 <__stack_chk_fail@plt>
  406aaf:	48 83 c4 48          	add    $0x48,%rsp
  406ab3:	5b                   	pop    %rbx
  406ab4:	5d                   	pop    %rbp
  406ab5:	c3                   	retq   

0000000000406ab6 <_ZN2CK5armcl10init_armclEv>:
  406ab6:	55                   	push   %rbp
  406ab7:	48 89 e5             	mov    %rsp,%rbp
  406aba:	53                   	push   %rbx
  406abb:	48 83 ec 68          	sub    $0x68,%rsp
  406abf:	64 48 8b 04 25 28 00 	mov    %fs:0x28,%rax
  406ac6:	00 00 
  406ac8:	48 89 45 e8          	mov    %rax,-0x18(%rbp)
  406acc:	31 c0                	xor    %eax,%eax
  406ace:	48 8d 55 b0          	lea    -0x50(%rbp),%rdx
  406ad2:	b8 00 00 00 00       	mov    $0x0,%eax
  406ad7:	b9 07 00 00 00       	mov    $0x7,%ecx
  406adc:	48 89 d7             	mov    %rdx,%rdi
  406adf:	f3 48 ab             	rep stos %rax,%es:(%rdi)
  406ae2:	48 c7 45 b0 b0 40 00 	movq   $0x40b0,-0x50(%rbp)
  406ae9:	00 
  406aea:	b8 af 38 40 00       	mov    $0x4038af,%eax
  406aef:	48 89 45 b8          	mov    %rax,-0x48(%rbp)
  406af3:	48 c7 45 c0 b1 40 00 	movq   $0x40b1,-0x40(%rbp)
  406afa:	00 
  406afb:	48 c7 45 c8 00 00 10 	movq   $0x100000,-0x38(%rbp)
  406b02:	00 
  406b03:	48 c7 45 d0 84 10 00 	movq   $0x1084,-0x30(%rbp)
  406b0a:	00 
  406b0b:	48 8d 45 a0          	lea    -0x60(%rbp),%rax
  406b0f:	be 00 00 00 00       	mov    $0x0,%esi
  406b14:	48 89 c7             	mov    %rax,%rdi
  406b17:	e8 9e e3 ff ff       	callq  404eba <_ZN2cl8Platform3getEPi>
  406b1c:	48 8d 45 a0          	lea    -0x60(%rbp),%rax
  406b20:	48 89 c7             	mov    %rax,%rdi
  406b23:	e8 a0 0a 00 00       	callq  4075c8 <_ZN2cl6detail7WrapperIP15_cl_platform_idEclEv>
  406b28:	48 8b 00             	mov    (%rax),%rax
  406b2b:	48 89 45 d8          	mov    %rax,-0x28(%rbp)
  406b2f:	48 8d 45 a0          	lea    -0x60(%rbp),%rax
  406b33:	48 89 c7             	mov    %rax,%rdi
  406b36:	e8 5f dc ff ff       	callq  40479a <_ZN2cl8PlatformD1Ev>
  406b3b:	48 8d 55 b0          	lea    -0x50(%rbp),%rdx
  406b3f:	48 8d 45 90          	lea    -0x70(%rbp),%rax
  406b43:	41 b9 00 00 00 00    	mov    $0x0,%r9d
  406b49:	41 b8 00 00 00 00    	mov    $0x0,%r8d
  406b4f:	b9 00 00 00 00       	mov    $0x0,%ecx
  406b54:	be 01 00 00 00       	mov    $0x1,%esi
  406b59:	48 89 c7             	mov    %rax,%rdi
  406b5c:	e8 2f e5 ff ff       	callq  405090 <_ZN2cl7ContextC1EmPlPFvPKcPKvmPvES6_Pi>
  406b61:	48 8d 45 a0          	lea    -0x60(%rbp),%rax
  406b65:	48 8d 55 90          	lea    -0x70(%rbp),%rdx
  406b69:	48 89 d6             	mov    %rdx,%rsi
  406b6c:	48 89 c7             	mov    %rax,%rdi
  406b6f:	e8 99 e9 ff ff       	callq  40550d <_ZN2cl7Context10setDefaultERKS0_>
  406b74:	48 8d 45 a0          	lea    -0x60(%rbp),%rax
  406b78:	48 89 c7             	mov    %rax,%rdi
  406b7b:	e8 98 e3 ff ff       	callq  404f18 <_ZN2cl7ContextD1Ev>
  406b80:	48 8d 45 90          	lea    -0x70(%rbp),%rax
  406b84:	48 89 c7             	mov    %rax,%rdi
  406b87:	e8 8c e3 ff ff       	callq  404f18 <_ZN2cl7ContextD1Ev>
  406b8c:	e8 6f c5 ff ff       	callq  403100 <_ZN11arm_compute11CLScheduler3getEv@plt>
  406b91:	48 89 c7             	mov    %rax,%rdi
  406b94:	e8 db f8 ff ff       	callq  406474 <_ZN11arm_compute11CLScheduler12default_initEv>
  406b99:	e8 36 fe ff ff       	callq  4069d4 <_ZN2CK5armcl15set_kernel_pathEv>
  406b9e:	90                   	nop
  406b9f:	48 8b 45 e8          	mov    -0x18(%rbp),%rax
  406ba3:	64 48 33 04 25 28 00 	xor    %fs:0x28,%rax
  406baa:	00 00 
