
softmax:     file format elf64-x86-64


Disassembly of section .init:

0000000000403bf8 <_init>:
  403bf8:	48 83 ec 08          	sub    $0x8,%rsp
  403bfc:	48 8b 05 f5 f3 20 00 	mov    0x20f3f5(%rip),%rax        # 612ff8 <_DYNAMIC+0x230>
  403c03:	48 85 c0             	test   %rax,%rax
  403c06:	74 05                	je     403c0d <_init+0x15>
  403c08:	e8 03 05 00 00       	callq  404110 <xopenme_get_timer@plt+0x10>
  403c0d:	48 83 c4 08          	add    $0x8,%rsp
  403c11:	c3                   	retq   

Disassembly of section .plt:

0000000000403c20 <_Znam@plt-0x10>:
  403c20:	ff 35 e2 f3 20 00    	pushq  0x20f3e2(%rip)        # 613008 <_GLOBAL_OFFSET_TABLE_+0x8>
  403c26:	ff 25 e4 f3 20 00    	jmpq   *0x20f3e4(%rip)        # 613010 <_GLOBAL_OFFSET_TABLE_+0x10>
  403c2c:	0f 1f 40 00          	nopl   0x0(%rax)

0000000000403c30 <_Znam@plt>:
  403c30:	ff 25 e2 f3 20 00    	jmpq   *0x20f3e2(%rip)        # 613018 <_GLOBAL_OFFSET_TABLE_+0x18>
  403c36:	68 00 00 00 00       	pushq  $0x0
  403c3b:	e9 e0 ff ff ff       	jmpq   403c20 <_init+0x28>

0000000000403c40 <_ZNSt7__cxx1112basic_stringIcSt11char_traitsIcESaIcEEaSERKS4_@plt>:
  403c40:	ff 25 da f3 20 00    	jmpq   *0x20f3da(%rip)        # 613020 <_GLOBAL_OFFSET_TABLE_+0x20>
  403c46:	68 01 00 00 00       	pushq  $0x1
  403c4b:	e9 d0 ff ff ff       	jmpq   403c20 <_init+0x28>

0000000000403c50 <printf@plt>:
  403c50:	ff 25 d2 f3 20 00    	jmpq   *0x20f3d2(%rip)        # 613028 <_GLOBAL_OFFSET_TABLE_+0x28>
  403c56:	68 02 00 00 00       	pushq  $0x2
  403c5b:	e9 c0 ff ff ff       	jmpq   403c20 <_init+0x28>

0000000000403c60 <_ZN11arm_compute11CLScheduler3getEv@plt>:
  403c60:	ff 25 ca f3 20 00    	jmpq   *0x20f3ca(%rip)        # 613030 <_GLOBAL_OFFSET_TABLE_+0x30>
  403c66:	68 03 00 00 00       	pushq  $0x3
  403c6b:	e9 b0 ff ff ff       	jmpq   403c20 <_init+0x28>

0000000000403c70 <sprintf@plt>:
  403c70:	ff 25 c2 f3 20 00    	jmpq   *0x20f3c2(%rip)        # 613038 <_GLOBAL_OFFSET_TABLE_+0x38>
  403c76:	68 04 00 00 00       	pushq  $0x4
  403c7b:	e9 a0 ff ff ff       	jmpq   403c20 <_init+0x28>

0000000000403c80 <xopenme_clock_start@plt>:
  403c80:	ff 25 ba f3 20 00    	jmpq   *0x20f3ba(%rip)        # 613040 <_GLOBAL_OFFSET_TABLE_+0x40>
  403c86:	68 05 00 00 00       	pushq  $0x5
  403c8b:	e9 90 ff ff ff       	jmpq   403c20 <_init+0x28>

0000000000403c90 <xopenme_dump_state@plt>:
  403c90:	ff 25 b2 f3 20 00    	jmpq   *0x20f3b2(%rip)        # 613048 <_GLOBAL_OFFSET_TABLE_+0x48>
  403c96:	68 06 00 00 00       	pushq  $0x6
  403c9b:	e9 80 ff ff ff       	jmpq   403c20 <_init+0x28>

0000000000403ca0 <clFinish@plt>:
  403ca0:	ff 25 aa f3 20 00    	jmpq   *0x20f3aa(%rip)        # 613050 <_GLOBAL_OFFSET_TABLE_+0x50>
  403ca6:	68 07 00 00 00       	pushq  $0x7
  403cab:	e9 70 ff ff ff       	jmpq   403c20 <_init+0x28>

0000000000403cb0 <xopenme_finish@plt>:
  403cb0:	ff 25 a2 f3 20 00    	jmpq   *0x20f3a2(%rip)        # 613058 <_GLOBAL_OFFSET_TABLE_+0x58>
  403cb6:	68 08 00 00 00       	pushq  $0x8
  403cbb:	e9 60 ff ff ff       	jmpq   403c20 <_init+0x28>

0000000000403cc0 <rand@plt>:
  403cc0:	ff 25 9a f3 20 00    	jmpq   *0x20f39a(%rip)        # 613060 <_GLOBAL_OFFSET_TABLE_+0x60>
  403cc6:	68 09 00 00 00       	pushq  $0x9
  403ccb:	e9 50 ff ff ff       	jmpq   403c20 <_init+0x28>

0000000000403cd0 <_ZN11arm_compute8CLTensor5unmapEv@plt>:
  403cd0:	ff 25 92 f3 20 00    	jmpq   *0x20f392(%rip)        # 613068 <_GLOBAL_OFFSET_TABLE_+0x68>
  403cd6:	68 0a 00 00 00       	pushq  $0xa
  403cdb:	e9 40 ff ff ff       	jmpq   403c20 <_init+0x28>

0000000000403ce0 <_ZSt17__throw_bad_allocv@plt>:
  403ce0:	ff 25 8a f3 20 00    	jmpq   *0x20f38a(%rip)        # 613070 <_GLOBAL_OFFSET_TABLE_+0x70>
  403ce6:	68 0b 00 00 00       	pushq  $0xb
  403ceb:	e9 30 ff ff ff       	jmpq   403c20 <_init+0x28>

0000000000403cf0 <xopenme_init@plt>:
  403cf0:	ff 25 82 f3 20 00    	jmpq   *0x20f382(%rip)        # 613078 <_GLOBAL_OFFSET_TABLE_+0x78>
  403cf6:	68 0c 00 00 00       	pushq  $0xc
  403cfb:	e9 20 ff ff ff       	jmpq   403c20 <_init+0x28>

0000000000403d00 <__cxa_begin_catch@plt>:
  403d00:	ff 25 7a f3 20 00    	jmpq   *0x20f37a(%rip)        # 613080 <_GLOBAL_OFFSET_TABLE_+0x80>
  403d06:	68 0d 00 00 00       	pushq  $0xd
  403d0b:	e9 10 ff ff ff       	jmpq   403c20 <_init+0x28>

0000000000403d10 <strlen@plt>:
  403d10:	ff 25 72 f3 20 00    	jmpq   *0x20f372(%rip)        # 613088 <_GLOBAL_OFFSET_TABLE_+0x88>
  403d16:	68 0e 00 00 00       	pushq  $0xe
  403d1b:	e9 00 ff ff ff       	jmpq   403c20 <_init+0x28>

0000000000403d20 <xopenme_dump_memory@plt>:
  403d20:	ff 25 6a f3 20 00    	jmpq   *0x20f36a(%rip)        # 613090 <_GLOBAL_OFFSET_TABLE_+0x90>
  403d26:	68 0f 00 00 00       	pushq  $0xf
  403d2b:	e9 f0 fe ff ff       	jmpq   403c20 <_init+0x28>

0000000000403d30 <clRetainCommandQueue@plt>:
  403d30:	ff 25 62 f3 20 00    	jmpq   *0x20f362(%rip)        # 613098 <_GLOBAL_OFFSET_TABLE_+0x98>
  403d36:	68 10 00 00 00       	pushq  $0x10
  403d3b:	e9 e0 fe ff ff       	jmpq   403c20 <_init+0x28>

0000000000403d40 <__cxa_allocate_exception@plt>:
  403d40:	ff 25 5a f3 20 00    	jmpq   *0x20f35a(%rip)        # 6130a0 <_GLOBAL_OFFSET_TABLE_+0xa0>
  403d46:	68 11 00 00 00       	pushq  $0x11
  403d4b:	e9 d0 fe ff ff       	jmpq   403c20 <_init+0x28>

0000000000403d50 <_ZSt20__throw_length_errorPKc@plt>:
  403d50:	ff 25 52 f3 20 00    	jmpq   *0x20f352(%rip)        # 6130a8 <_GLOBAL_OFFSET_TABLE_+0xa8>
  403d56:	68 12 00 00 00       	pushq  $0x12
  403d5b:	e9 c0 fe ff ff       	jmpq   403c20 <_init+0x28>

0000000000403d60 <_ZN11arm_compute14CLSoftmaxLayerC1ESt10shared_ptrINS_14IMemoryManagerEE@plt>:
  403d60:	ff 25 4a f3 20 00    	jmpq   *0x20f34a(%rip)        # 6130b0 <_GLOBAL_OFFSET_TABLE_+0xb0>
  403d66:	68 13 00 00 00       	pushq  $0x13
  403d6b:	e9 b0 fe ff ff       	jmpq   403c20 <_init+0x28>

0000000000403d70 <_ZN11arm_compute15CLKernelLibrary3getEv@plt>:
  403d70:	ff 25 42 f3 20 00    	jmpq   *0x20f342(%rip)        # 6130b8 <_GLOBAL_OFFSET_TABLE_+0xb8>
  403d76:	68 14 00 00 00       	pushq  $0x14
  403d7b:	e9 a0 fe ff ff       	jmpq   403c20 <_init+0x28>

0000000000403d80 <clReleaseContext@plt>:
  403d80:	ff 25 3a f3 20 00    	jmpq   *0x20f33a(%rip)        # 6130c0 <_GLOBAL_OFFSET_TABLE_+0xc0>
  403d86:	68 15 00 00 00       	pushq  $0x15
  403d8b:	e9 90 fe ff ff       	jmpq   403c20 <_init+0x28>

0000000000403d90 <_ZNSt7__cxx1112basic_stringIcSt11char_traitsIcESaIcEED1Ev@plt>:
  403d90:	ff 25 32 f3 20 00    	jmpq   *0x20f332(%rip)        # 6130c8 <_GLOBAL_OFFSET_TABLE_+0xc8>
  403d96:	68 16 00 00 00       	pushq  $0x16
  403d9b:	e9 80 fe ff ff       	jmpq   403c20 <_init+0x28>

0000000000403da0 <__assert_fail@plt>:
  403da0:	ff 25 2a f3 20 00    	jmpq   *0x20f32a(%rip)        # 6130d0 <_GLOBAL_OFFSET_TABLE_+0xd0>
  403da6:	68 17 00 00 00       	pushq  $0x17
  403dab:	e9 70 fe ff ff       	jmpq   403c20 <_init+0x28>

0000000000403db0 <_ZSt20__throw_system_errori@plt>:
  403db0:	ff 25 22 f3 20 00    	jmpq   *0x20f322(%rip)        # 6130d8 <_GLOBAL_OFFSET_TABLE_+0xd8>
  403db6:	68 18 00 00 00       	pushq  $0x18
  403dbb:	e9 60 fe ff ff       	jmpq   403c20 <_init+0x28>

0000000000403dc0 <clGetPlatformIDs@plt>:
  403dc0:	ff 25 1a f3 20 00    	jmpq   *0x20f31a(%rip)        # 6130e0 <_GLOBAL_OFFSET_TABLE_+0xe0>
  403dc6:	68 19 00 00 00       	pushq  $0x19
  403dcb:	e9 50 fe ff ff       	jmpq   403c20 <_init+0x28>

0000000000403dd0 <clGetContextInfo@plt>:
  403dd0:	ff 25 12 f3 20 00    	jmpq   *0x20f312(%rip)        # 6130e8 <_GLOBAL_OFFSET_TABLE_+0xe8>
  403dd6:	68 1a 00 00 00       	pushq  $0x1a
  403ddb:	e9 40 fe ff ff       	jmpq   403c20 <_init+0x28>

0000000000403de0 <__cxa_atexit@plt>:
  403de0:	ff 25 0a f3 20 00    	jmpq   *0x20f30a(%rip)        # 6130f0 <_GLOBAL_OFFSET_TABLE_+0xf0>
  403de6:	68 1b 00 00 00       	pushq  $0x1b
  403deb:	e9 30 fe ff ff       	jmpq   403c20 <_init+0x28>

0000000000403df0 <_ZdlPv@plt>:
  403df0:	ff 25 02 f3 20 00    	jmpq   *0x20f302(%rip)        # 6130f8 <_GLOBAL_OFFSET_TABLE_+0xf8>
  403df6:	68 1c 00 00 00       	pushq  $0x1c
  403dfb:	e9 20 fe ff ff       	jmpq   403c20 <_init+0x28>

0000000000403e00 <srand@plt>:
  403e00:	ff 25 fa f2 20 00    	jmpq   *0x20f2fa(%rip)        # 613100 <_GLOBAL_OFFSET_TABLE_+0x100>
  403e06:	68 1d 00 00 00       	pushq  $0x1d
  403e0b:	e9 10 fe ff ff       	jmpq   403c20 <_init+0x28>

0000000000403e10 <_Znwm@plt>:
  403e10:	ff 25 f2 f2 20 00    	jmpq   *0x20f2f2(%rip)        # 613108 <_GLOBAL_OFFSET_TABLE_+0x108>
  403e16:	68 1e 00 00 00       	pushq  $0x1e
  403e1b:	e9 00 fe ff ff       	jmpq   403c20 <_init+0x28>

0000000000403e20 <_ZN11arm_compute15CLKernelLibrary24max_local_workgroup_sizeEv@plt>:
  403e20:	ff 25 ea f2 20 00    	jmpq   *0x20f2ea(%rip)        # 613110 <_GLOBAL_OFFSET_TABLE_+0x110>
  403e26:	68 1f 00 00 00       	pushq  $0x1f
  403e2b:	e9 f0 fd ff ff       	jmpq   403c20 <_init+0x28>

0000000000403e30 <_ZNSaIcED1Ev@plt>:
  403e30:	ff 25 e2 f2 20 00    	jmpq   *0x20f2e2(%rip)        # 613118 <_GLOBAL_OFFSET_TABLE_+0x118>
  403e36:	68 20 00 00 00       	pushq  $0x20
  403e3b:	e9 e0 fd ff ff       	jmpq   403c20 <_init+0x28>

0000000000403e40 <_ZN11arm_compute17ICLSimple3DKernel3runERKNS_6WindowERN2cl12CommandQueueE@plt>:
  403e40:	ff 25 da f2 20 00    	jmpq   *0x20f2da(%rip)        # 613120 <_GLOBAL_OFFSET_TABLE_+0x120>
  403e46:	68 21 00 00 00       	pushq  $0x21
  403e4b:	e9 d0 fd ff ff       	jmpq   403c20 <_init+0x28>

0000000000403e50 <__stack_chk_fail@plt>:
  403e50:	ff 25 d2 f2 20 00    	jmpq   *0x20f2d2(%rip)        # 613128 <_GLOBAL_OFFSET_TABLE_+0x128>
  403e56:	68 22 00 00 00       	pushq  $0x22
  403e5b:	e9 c0 fd ff ff       	jmpq   403c20 <_init+0x28>

0000000000403e60 <_ZN11arm_compute16ITensorAllocator4initERKNS_10TensorInfoE@plt>:
  403e60:	ff 25 ca f2 20 00    	jmpq   *0x20f2ca(%rip)        # 613130 <_GLOBAL_OFFSET_TABLE_+0x130>
  403e66:	68 23 00 00 00       	pushq  $0x23
  403e6b:	e9 b0 fd ff ff       	jmpq   403c20 <_init+0x28>

0000000000403e70 <xopenme_add_var_i@plt>:
  403e70:	ff 25 c2 f2 20 00    	jmpq   *0x20f2c2(%rip)        # 613138 <_GLOBAL_OFFSET_TABLE_+0x138>
  403e76:	68 24 00 00 00       	pushq  $0x24
  403e7b:	e9 a0 fd ff ff       	jmpq   403c20 <_init+0x28>

0000000000403e80 <_ZN11arm_compute8CLTensor9allocatorEv@plt>:
  403e80:	ff 25 ba f2 20 00    	jmpq   *0x20f2ba(%rip)        # 613140 <_GLOBAL_OFFSET_TABLE_+0x140>
  403e86:	68 25 00 00 00       	pushq  $0x25
  403e8b:	e9 90 fd ff ff       	jmpq   403c20 <_init+0x28>

0000000000403e90 <getenv@plt>:
  403e90:	ff 25 b2 f2 20 00    	jmpq   *0x20f2b2(%rip)        # 613148 <_GLOBAL_OFFSET_TABLE_+0x148>
  403e96:	68 26 00 00 00       	pushq  $0x26
  403e9b:	e9 80 fd ff ff       	jmpq   403c20 <_init+0x28>

0000000000403ea0 <_ZN11arm_compute30error_on_window_dimensions_gteEPKcS1_iRKNS_6WindowEj@plt>:
  403ea0:	ff 25 aa f2 20 00    	jmpq   *0x20f2aa(%rip)        # 613150 <_GLOBAL_OFFSET_TABLE_+0x150>
  403ea6:	68 27 00 00 00       	pushq  $0x27
  403eab:	e9 70 fd ff ff       	jmpq   403c20 <_init+0x28>

0000000000403eb0 <_ZNSt7__cxx1112basic_stringIcSt11char_traitsIcESaIcEEaSEOS4_@plt>:
  403eb0:	ff 25 a2 f2 20 00    	jmpq   *0x20f2a2(%rip)        # 613158 <_GLOBAL_OFFSET_TABLE_+0x158>
  403eb6:	68 28 00 00 00       	pushq  $0x28
  403ebb:	e9 60 fd ff ff       	jmpq   403c20 <_init+0x28>

0000000000403ec0 <clGetDeviceIDs@plt>:
  403ec0:	ff 25 9a f2 20 00    	jmpq   *0x20f29a(%rip)        # 613160 <_GLOBAL_OFFSET_TABLE_+0x160>
  403ec6:	68 29 00 00 00       	pushq  $0x29
  403ecb:	e9 50 fd ff ff       	jmpq   403c20 <_init+0x28>

0000000000403ed0 <__cxa_get_exception_ptr@plt>:
  403ed0:	ff 25 92 f2 20 00    	jmpq   *0x20f292(%rip)        # 613168 <_GLOBAL_OFFSET_TABLE_+0x168>
  403ed6:	68 2a 00 00 00       	pushq  $0x2a
  403edb:	e9 40 fd ff ff       	jmpq   403c20 <_init+0x28>

0000000000403ee0 <clReleaseCommandQueue@plt>:
  403ee0:	ff 25 8a f2 20 00    	jmpq   *0x20f28a(%rip)        # 613170 <_GLOBAL_OFFSET_TABLE_+0x170>
  403ee6:	68 2b 00 00 00       	pushq  $0x2b
  403eeb:	e9 30 fd ff ff       	jmpq   403c20 <_init+0x28>

0000000000403ef0 <_ZdaPv@plt>:
  403ef0:	ff 25 82 f2 20 00    	jmpq   *0x20f282(%rip)        # 613178 <_GLOBAL_OFFSET_TABLE_+0x178>
  403ef6:	68 2c 00 00 00       	pushq  $0x2c
  403efb:	e9 20 fd ff ff       	jmpq   403c20 <_init+0x28>

0000000000403f00 <_ZN11arm_compute22get_target_from_deviceERN2cl6DeviceE@plt>:
  403f00:	ff 25 7a f2 20 00    	jmpq   *0x20f27a(%rip)        # 613180 <_GLOBAL_OFFSET_TABLE_+0x180>
  403f06:	68 2d 00 00 00       	pushq  $0x2d
  403f0b:	e9 10 fd ff ff       	jmpq   403c20 <_init+0x28>

0000000000403f10 <xopenme_clock_end@plt>:
  403f10:	ff 25 72 f2 20 00    	jmpq   *0x20f272(%rip)        # 613188 <_GLOBAL_OFFSET_TABLE_+0x188>
  403f16:	68 2e 00 00 00       	pushq  $0x2e
  403f1b:	e9 00 fd ff ff       	jmpq   403c20 <_init+0x28>

0000000000403f20 <_ZNSt7__cxx1112basic_stringIcSt11char_traitsIcESaIcEEC1EPKcRKS3_@plt>:
  403f20:	ff 25 6a f2 20 00    	jmpq   *0x20f26a(%rip)        # 613190 <_GLOBAL_OFFSET_TABLE_+0x190>
  403f26:	68 2f 00 00 00       	pushq  $0x2f
  403f2b:	e9 f0 fc ff ff       	jmpq   403c20 <_init+0x28>

0000000000403f30 <putchar@plt>:
  403f30:	ff 25 62 f2 20 00    	jmpq   *0x20f262(%rip)        # 613198 <_GLOBAL_OFFSET_TABLE_+0x198>
  403f36:	68 30 00 00 00       	pushq  $0x30
  403f3b:	e9 e0 fc ff ff       	jmpq   403c20 <_init+0x28>

0000000000403f40 <__cxa_throw_bad_array_new_length@plt>:
  403f40:	ff 25 5a f2 20 00    	jmpq   *0x20f25a(%rip)        # 6131a0 <_GLOBAL_OFFSET_TABLE_+0x1a0>
  403f46:	68 31 00 00 00       	pushq  $0x31
  403f4b:	e9 d0 fc ff ff       	jmpq   403c20 <_init+0x28>

0000000000403f50 <__cxa_rethrow@plt>:
  403f50:	ff 25 52 f2 20 00    	jmpq   *0x20f252(%rip)        # 6131a8 <_GLOBAL_OFFSET_TABLE_+0x1a8>
  403f56:	68 32 00 00 00       	pushq  $0x32
  403f5b:	e9 c0 fc ff ff       	jmpq   403c20 <_init+0x28>

0000000000403f60 <_ZSt24__throw_out_of_range_fmtPKcz@plt>:
  403f60:	ff 25 4a f2 20 00    	jmpq   *0x20f24a(%rip)        # 6131b0 <_GLOBAL_OFFSET_TABLE_+0x1b0>
  403f66:	68 33 00 00 00       	pushq  $0x33
  403f6b:	e9 b0 fc ff ff       	jmpq   403c20 <_init+0x28>

0000000000403f70 <_ZNK11arm_compute7IKernel17is_parallelisableEv@plt>:
  403f70:	ff 25 42 f2 20 00    	jmpq   *0x20f242(%rip)        # 6131b8 <_GLOBAL_OFFSET_TABLE_+0x1b8>
  403f76:	68 34 00 00 00       	pushq  $0x34
  403f7b:	e9 a0 fc ff ff       	jmpq   403c20 <_init+0x28>

0000000000403f80 <puts@plt>:
  403f80:	ff 25 3a f2 20 00    	jmpq   *0x20f23a(%rip)        # 6131c0 <_GLOBAL_OFFSET_TABLE_+0x1c0>
  403f86:	68 35 00 00 00       	pushq  $0x35
  403f8b:	e9 90 fc ff ff       	jmpq   403c20 <_init+0x28>

0000000000403f90 <atoi@plt>:
  403f90:	ff 25 32 f2 20 00    	jmpq   *0x20f232(%rip)        # 6131c8 <_GLOBAL_OFFSET_TABLE_+0x1c8>
  403f96:	68 36 00 00 00       	pushq  $0x36
  403f9b:	e9 80 fc ff ff       	jmpq   403c20 <_init+0x28>

0000000000403fa0 <_ZN11arm_compute17CLTensorAllocatorD1Ev@plt>:
  403fa0:	ff 25 2a f2 20 00    	jmpq   *0x20f22a(%rip)        # 6131d0 <_GLOBAL_OFFSET_TABLE_+0x1d0>
  403fa6:	68 37 00 00 00       	pushq  $0x37
  403fab:	e9 70 fc ff ff       	jmpq   403c20 <_init+0x28>

0000000000403fb0 <__once_proxy@plt>:
  403fb0:	ff 25 22 f2 20 00    	jmpq   *0x20f222(%rip)        # 6131d8 <_GLOBAL_OFFSET_TABLE_+0x1d8>
  403fb6:	68 38 00 00 00       	pushq  $0x38
  403fbb:	e9 60 fc ff ff       	jmpq   403c20 <_init+0x28>

0000000000403fc0 <__cxa_end_catch@plt>:
  403fc0:	ff 25 1a f2 20 00    	jmpq   *0x20f21a(%rip)        # 6131e0 <_GLOBAL_OFFSET_TABLE_+0x1e0>
  403fc6:	68 39 00 00 00       	pushq  $0x39
  403fcb:	e9 50 fc ff ff       	jmpq   403c20 <_init+0x28>

0000000000403fd0 <pthread_once@plt>:
  403fd0:	ff 25 12 f2 20 00    	jmpq   *0x20f212(%rip)        # 6131e8 <_GLOBAL_OFFSET_TABLE_+0x1e8>
  403fd6:	68 3a 00 00 00       	pushq  $0x3a
  403fdb:	e9 40 fc ff ff       	jmpq   403c20 <_init+0x28>

0000000000403fe0 <__gxx_personality_v0@plt>:
  403fe0:	ff 25 0a f2 20 00    	jmpq   *0x20f20a(%rip)        # 6131f0 <_GLOBAL_OFFSET_TABLE_+0x1f0>
  403fe6:	68 3b 00 00 00       	pushq  $0x3b
  403feb:	e9 30 fc ff ff       	jmpq   403c20 <_init+0x28>

0000000000403ff0 <__pthread_key_create@plt>:
  403ff0:	ff 25 02 f2 20 00    	jmpq   *0x20f202(%rip)        # 6131f8 <_GLOBAL_OFFSET_TABLE_+0x1f8>
  403ff6:	68 3c 00 00 00       	pushq  $0x3c
  403ffb:	e9 20 fc ff ff       	jmpq   403c20 <_init+0x28>

0000000000404000 <_ZN11arm_compute14CLSoftmaxLayer9configureEPKNS_9ICLTensorEPS1_@plt>:
  404000:	ff 25 fa f1 20 00    	jmpq   *0x20f1fa(%rip)        # 613200 <_GLOBAL_OFFSET_TABLE_+0x200>
  404006:	68 3d 00 00 00       	pushq  $0x3d
  40400b:	e9 10 fc ff ff       	jmpq   403c20 <_init+0x28>

0000000000404010 <_ZNK11arm_compute7IKernel11border_sizeEv@plt>:
  404010:	ff 25 f2 f1 20 00    	jmpq   *0x20f1f2(%rip)        # 613208 <_GLOBAL_OFFSET_TABLE_+0x208>
  404016:	68 3e 00 00 00       	pushq  $0x3e
  40401b:	e9 00 fc ff ff       	jmpq   403c20 <_init+0x28>

0000000000404020 <clCreateCommandQueue@plt>:
  404020:	ff 25 ea f1 20 00    	jmpq   *0x20f1ea(%rip)        # 613210 <_GLOBAL_OFFSET_TABLE_+0x210>
  404026:	68 3f 00 00 00       	pushq  $0x3f
  40402b:	e9 f0 fb ff ff       	jmpq   403c20 <_init+0x28>

0000000000404030 <clRetainContext@plt>:
  404030:	ff 25 e2 f1 20 00    	jmpq   *0x20f1e2(%rip)        # 613218 <_GLOBAL_OFFSET_TABLE_+0x218>
  404036:	68 40 00 00 00       	pushq  $0x40
  40403b:	e9 e0 fb ff ff       	jmpq   403c20 <_init+0x28>

0000000000404040 <_ZN11arm_compute10TensorInfoC1ERKNS_11TensorShapeENS_6FormatE@plt>:
  404040:	ff 25 da f1 20 00    	jmpq   *0x20f1da(%rip)        # 613220 <_GLOBAL_OFFSET_TABLE_+0x220>
  404046:	68 41 00 00 00       	pushq  $0x41
  40404b:	e9 d0 fb ff ff       	jmpq   403c20 <_init+0x28>

0000000000404050 <__cxa_throw@plt>:
  404050:	ff 25 d2 f1 20 00    	jmpq   *0x20f1d2(%rip)        # 613228 <_GLOBAL_OFFSET_TABLE_+0x228>
  404056:	68 42 00 00 00       	pushq  $0x42
  40405b:	e9 c0 fb ff ff       	jmpq   403c20 <_init+0x28>

0000000000404060 <clCreateContextFromType@plt>:
  404060:	ff 25 ca f1 20 00    	jmpq   *0x20f1ca(%rip)        # 613230 <_GLOBAL_OFFSET_TABLE_+0x230>
  404066:	68 43 00 00 00       	pushq  $0x43
  40406b:	e9 b0 fb ff ff       	jmpq   403c20 <_init+0x28>

0000000000404070 <_Unwind_Resume@plt>:
  404070:	ff 25 c2 f1 20 00    	jmpq   *0x20f1c2(%rip)        # 613238 <_GLOBAL_OFFSET_TABLE_+0x238>
  404076:	68 44 00 00 00       	pushq  $0x44
  40407b:	e9 a0 fb ff ff       	jmpq   403c20 <_init+0x28>

0000000000404080 <_ZNSaIcEC1Ev@plt>:
  404080:	ff 25 ba f1 20 00    	jmpq   *0x20f1ba(%rip)        # 613240 <_GLOBAL_OFFSET_TABLE_+0x240>
  404086:	68 45 00 00 00       	pushq  $0x45
  40408b:	e9 90 fb ff ff       	jmpq   403c20 <_init+0x28>

0000000000404090 <_ZN11arm_compute8CLTensor3mapEb@plt>:
  404090:	ff 25 b2 f1 20 00    	jmpq   *0x20f1b2(%rip)        # 613248 <_GLOBAL_OFFSET_TABLE_+0x248>
  404096:	68 46 00 00 00       	pushq  $0x46
  40409b:	e9 80 fb ff ff       	jmpq   403c20 <_init+0x28>

00000000004040a0 <_ZNSt9exceptionD2Ev@plt>:
  4040a0:	ff 25 aa f1 20 00    	jmpq   *0x20f1aa(%rip)        # 613250 <_GLOBAL_OFFSET_TABLE_+0x250>
  4040a6:	68 47 00 00 00       	pushq  $0x47
  4040ab:	e9 70 fb ff ff       	jmpq   403c20 <_init+0x28>

00000000004040b0 <clReleaseKernel@plt>:
  4040b0:	ff 25 a2 f1 20 00    	jmpq   *0x20f1a2(%rip)        # 613258 <_GLOBAL_OFFSET_TABLE_+0x258>
  4040b6:	68 48 00 00 00       	pushq  $0x48
  4040bb:	e9 60 fb ff ff       	jmpq   403c20 <_init+0x28>

00000000004040c0 <__libc_start_main@plt>:
  4040c0:	ff 25 9a f1 20 00    	jmpq   *0x20f19a(%rip)        # 613260 <_GLOBAL_OFFSET_TABLE_+0x260>
  4040c6:	68 49 00 00 00       	pushq  $0x49
  4040cb:	e9 50 fb ff ff       	jmpq   403c20 <_init+0x28>

00000000004040d0 <xopenme_add_var_f@plt>:
  4040d0:	ff 25 92 f1 20 00    	jmpq   *0x20f192(%rip)        # 613268 <_GLOBAL_OFFSET_TABLE_+0x268>
  4040d6:	68 4a 00 00 00       	pushq  $0x4a
  4040db:	e9 40 fb ff ff       	jmpq   403c20 <_init+0x28>

00000000004040e0 <_ZN11arm_compute8CLTensorC1Ev@plt>:
  4040e0:	ff 25 8a f1 20 00    	jmpq   *0x20f18a(%rip)        # 613270 <_GLOBAL_OFFSET_TABLE_+0x270>
  4040e6:	68 4b 00 00 00       	pushq  $0x4b
  4040eb:	e9 30 fb ff ff       	jmpq   403c20 <_init+0x28>

00000000004040f0 <__cxa_pure_virtual@plt>:
  4040f0:	ff 25 82 f1 20 00    	jmpq   *0x20f182(%rip)        # 613278 <_GLOBAL_OFFSET_TABLE_+0x278>
  4040f6:	68 4c 00 00 00       	pushq  $0x4c
  4040fb:	e9 20 fb ff ff       	jmpq   403c20 <_init+0x28>

0000000000404100 <xopenme_get_timer@plt>:
  404100:	ff 25 7a f1 20 00    	jmpq   *0x20f17a(%rip)        # 613280 <_GLOBAL_OFFSET_TABLE_+0x280>
  404106:	68 4d 00 00 00       	pushq  $0x4d
  40410b:	e9 10 fb ff ff       	jmpq   403c20 <_init+0x28>

Disassembly of section .plt.got:

0000000000404110 <.plt.got>:
  404110:	ff 25 e2 ee 20 00    	jmpq   *0x20eee2(%rip)        # 612ff8 <_DYNAMIC+0x230>
  404116:	66 90                	xchg   %ax,%ax

Disassembly of section .text:

0000000000404120 <_start>:
  404120:	31 ed                	xor    %ebp,%ebp
  404122:	49 89 d1             	mov    %rdx,%r9
  404125:	5e                   	pop    %rsi
  404126:	48 89 e2             	mov    %rsp,%rdx
  404129:	48 83 e4 f0          	and    $0xfffffffffffffff0,%rsp
  40412d:	50                   	push   %rax
  40412e:	54                   	push   %rsp
  40412f:	49 c7 c0 60 c6 40 00 	mov    $0x40c660,%r8
  404136:	48 c7 c1 f0 c5 40 00 	mov    $0x40c5f0,%rcx
  40413d:	48 c7 c7 03 47 40 00 	mov    $0x404703,%rdi
  404144:	e8 77 ff ff ff       	callq  4040c0 <__libc_start_main@plt>
  404149:	f4                   	hlt    
  40414a:	66 0f 1f 44 00 00    	nopw   0x0(%rax,%rax,1)

0000000000404150 <deregister_tm_clones>:
  404150:	b8 9f 32 61 00       	mov    $0x61329f,%eax
  404155:	55                   	push   %rbp
  404156:	48 2d 98 32 61 00    	sub    $0x613298,%rax
  40415c:	48 83 f8 0e          	cmp    $0xe,%rax
  404160:	48 89 e5             	mov    %rsp,%rbp
  404163:	76 1b                	jbe    404180 <deregister_tm_clones+0x30>
  404165:	b8 00 00 00 00       	mov    $0x0,%eax
  40416a:	48 85 c0             	test   %rax,%rax
  40416d:	74 11                	je     404180 <deregister_tm_clones+0x30>
  40416f:	5d                   	pop    %rbp
  404170:	bf 98 32 61 00       	mov    $0x613298,%edi
  404175:	ff e0                	jmpq   *%rax
  404177:	66 0f 1f 84 00 00 00 	nopw   0x0(%rax,%rax,1)
  40417e:	00 00 
  404180:	5d                   	pop    %rbp
  404181:	c3                   	retq   
  404182:	0f 1f 40 00          	nopl   0x0(%rax)
  404186:	66 2e 0f 1f 84 00 00 	nopw   %cs:0x0(%rax,%rax,1)
  40418d:	00 00 00 

0000000000404190 <register_tm_clones>:
  404190:	be 98 32 61 00       	mov    $0x613298,%esi
  404195:	55                   	push   %rbp
  404196:	48 81 ee 98 32 61 00 	sub    $0x613298,%rsi
  40419d:	48 c1 fe 03          	sar    $0x3,%rsi
  4041a1:	48 89 e5             	mov    %rsp,%rbp
  4041a4:	48 89 f0             	mov    %rsi,%rax
  4041a7:	48 c1 e8 3f          	shr    $0x3f,%rax
  4041ab:	48 01 c6             	add    %rax,%rsi
  4041ae:	48 d1 fe             	sar    %rsi
  4041b1:	74 15                	je     4041c8 <register_tm_clones+0x38>
  4041b3:	b8 00 00 00 00       	mov    $0x0,%eax
  4041b8:	48 85 c0             	test   %rax,%rax
  4041bb:	74 0b                	je     4041c8 <register_tm_clones+0x38>
  4041bd:	5d                   	pop    %rbp
  4041be:	bf 98 32 61 00       	mov    $0x613298,%edi
  4041c3:	ff e0                	jmpq   *%rax
  4041c5:	0f 1f 00             	nopl   (%rax)
  4041c8:	5d                   	pop    %rbp
  4041c9:	c3                   	retq   
  4041ca:	66 0f 1f 44 00 00    	nopw   0x0(%rax,%rax,1)

00000000004041d0 <__do_global_dtors_aux>:
  4041d0:	80 3d f1 f4 20 00 00 	cmpb   $0x0,0x20f4f1(%rip)        # 6136c8 <completed.7585>
  4041d7:	75 11                	jne    4041ea <__do_global_dtors_aux+0x1a>
  4041d9:	55                   	push   %rbp
  4041da:	48 89 e5             	mov    %rsp,%rbp
  4041dd:	e8 6e ff ff ff       	callq  404150 <deregister_tm_clones>
  4041e2:	5d                   	pop    %rbp
  4041e3:	c6 05 de f4 20 00 01 	movb   $0x1,0x20f4de(%rip)        # 6136c8 <completed.7585>
  4041ea:	f3 c3                	repz retq 
  4041ec:	0f 1f 40 00          	nopl   0x0(%rax)

00000000004041f0 <frame_dummy>:
  4041f0:	bf c0 2d 61 00       	mov    $0x612dc0,%edi
  4041f5:	48 83 3f 00          	cmpq   $0x0,(%rdi)
  4041f9:	75 05                	jne    404200 <frame_dummy+0x10>
  4041fb:	eb 93                	jmp    404190 <register_tm_clones>
  4041fd:	0f 1f 00             	nopl   (%rax)
  404200:	b8 00 00 00 00       	mov    $0x0,%eax
  404205:	48 85 c0             	test   %rax,%rax
  404208:	74 f1                	je     4041fb <frame_dummy+0xb>
  40420a:	55                   	push   %rbp
  40420b:	48 89 e5             	mov    %rsp,%rbp
  40420e:	ff d0                	callq  *%rax
  404210:	5d                   	pop    %rbp
  404211:	e9 7a ff ff ff       	jmpq   404190 <register_tm_clones>

0000000000404216 <_ZL18__gthread_active_pv>:
  404216:	55                   	push   %rbp
  404217:	48 89 e5             	mov    %rsp,%rbp
  40421a:	48 8b 05 0f 88 00 00 	mov    0x880f(%rip),%rax        # 40ca30 <_ZZL18__gthread_active_pvE20__gthread_active_ptr>
  404221:	48 85 c0             	test   %rax,%rax
  404224:	0f 95 c0             	setne  %al
  404227:	0f b6 c0             	movzbl %al,%eax
  40422a:	5d                   	pop    %rbp
  40422b:	c3                   	retq   

000000000040422c <_ZL14__gthread_oncePiPFvvE>:
  40422c:	55                   	push   %rbp
  40422d:	48 89 e5             	mov    %rsp,%rbp
  404230:	48 83 ec 10          	sub    $0x10,%rsp
  404234:	48 89 7d f8          	mov    %rdi,-0x8(%rbp)
  404238:	48 89 75 f0          	mov    %rsi,-0x10(%rbp)
  40423c:	e8 d5 ff ff ff       	callq  404216 <_ZL18__gthread_active_pv>
  404241:	85 c0                	test   %eax,%eax
  404243:	0f 95 c0             	setne  %al
  404246:	84 c0                	test   %al,%al
  404248:	74 15                	je     40425f <_ZL14__gthread_oncePiPFvvE+0x33>
  40424a:	48 8b 55 f0          	mov    -0x10(%rbp),%rdx
  40424e:	48 8b 45 f8          	mov    -0x8(%rbp),%rax
  404252:	48 89 d6             	mov    %rdx,%rsi
  404255:	48 89 c7             	mov    %rax,%rdi
  404258:	e8 73 fd ff ff       	callq  403fd0 <pthread_once@plt>
  40425d:	eb 05                	jmp    404264 <_ZL14__gthread_oncePiPFvvE+0x38>
  40425f:	b8 ff ff ff ff       	mov    $0xffffffff,%eax
  404264:	c9                   	leaveq 
  404265:	c3                   	retq   

0000000000404266 <_ZN9__gnu_cxxL18__exchange_and_addEPVii>:
  404266:	55                   	push   %rbp
  404267:	48 89 e5             	mov    %rsp,%rbp
  40426a:	48 89 7d f8          	mov    %rdi,-0x8(%rbp)
  40426e:	89 75 f4             	mov    %esi,-0xc(%rbp)
  404271:	8b 55 f4             	mov    -0xc(%rbp),%edx
  404274:	48 8b 45 f8          	mov    -0x8(%rbp),%rax
  404278:	f0 0f c1 10          	lock xadd %edx,(%rax)
  40427c:	89 d0                	mov    %edx,%eax
  40427e:	5d                   	pop    %rbp
  40427f:	c3                   	retq   

0000000000404280 <_ZN9__gnu_cxxL25__exchange_and_add_singleEPii>:
  404280:	55                   	push   %rbp
  404281:	48 89 e5             	mov    %rsp,%rbp
  404284:	48 89 7d e8          	mov    %rdi,-0x18(%rbp)
  404288:	89 75 e4             	mov    %esi,-0x1c(%rbp)
  40428b:	48 8b 45 e8          	mov    -0x18(%rbp),%rax
  40428f:	8b 00                	mov    (%rax),%eax
  404291:	89 45 fc             	mov    %eax,-0x4(%rbp)
  404294:	48 8b 45 e8          	mov    -0x18(%rbp),%rax
  404298:	8b 10                	mov    (%rax),%edx
  40429a:	8b 45 e4             	mov    -0x1c(%rbp),%eax
  40429d:	01 c2                	add    %eax,%edx
  40429f:	48 8b 45 e8          	mov    -0x18(%rbp),%rax
  4042a3:	89 10                	mov    %edx,(%rax)
  4042a5:	8b 45 fc             	mov    -0x4(%rbp),%eax
  4042a8:	5d                   	pop    %rbp
  4042a9:	c3                   	retq   

00000000004042aa <_ZN9__gnu_cxxL27__exchange_and_add_dispatchEPii>:
  4042aa:	55                   	push   %rbp
  4042ab:	48 89 e5             	mov    %rsp,%rbp
  4042ae:	48 83 ec 10          	sub    $0x10,%rsp
  4042b2:	48 89 7d f8          	mov    %rdi,-0x8(%rbp)
  4042b6:	89 75 f4             	mov    %esi,-0xc(%rbp)
  4042b9:	e8 58 ff ff ff       	callq  404216 <_ZL18__gthread_active_pv>
  4042be:	85 c0                	test   %eax,%eax
  4042c0:	0f 95 c0             	setne  %al
  4042c3:	84 c0                	test   %al,%al
  4042c5:	74 13                	je     4042da <_ZN9__gnu_cxxL27__exchange_and_add_dispatchEPii+0x30>
  4042c7:	8b 55 f4             	mov    -0xc(%rbp),%edx
  4042ca:	48 8b 45 f8          	mov    -0x8(%rbp),%rax
  4042ce:	89 d6                	mov    %edx,%esi
  4042d0:	48 89 c7             	mov    %rax,%rdi
  4042d3:	e8 8e ff ff ff       	callq  404266 <_ZN9__gnu_cxxL18__exchange_and_addEPVii>
  4042d8:	eb 11                	jmp    4042eb <_ZN9__gnu_cxxL27__exchange_and_add_dispatchEPii+0x41>
  4042da:	8b 55 f4             	mov    -0xc(%rbp),%edx
  4042dd:	48 8b 45 f8          	mov    -0x8(%rbp),%rax
  4042e1:	89 d6                	mov    %edx,%esi
  4042e3:	48 89 c7             	mov    %rax,%rdi
  4042e6:	e8 95 ff ff ff       	callq  404280 <_ZN9__gnu_cxxL25__exchange_and_add_singleEPii>
  4042eb:	c9                   	leaveq 
  4042ec:	c3                   	retq   

00000000004042ed <_ZN2cl6detailL10errHandlerEiPKc>:
  4042ed:	55                   	push   %rbp
  4042ee:	48 89 e5             	mov    %rsp,%rbp
  4042f1:	53                   	push   %rbx
  4042f2:	48 83 ec 18          	sub    $0x18,%rsp
  4042f6:	89 7d ec             	mov    %edi,-0x14(%rbp)
  4042f9:	48 89 75 e0          	mov    %rsi,-0x20(%rbp)
  4042fd:	83 7d ec 00          	cmpl   $0x0,-0x14(%rbp)
  404301:	74 30                	je     404333 <_ZN2cl6detailL10errHandlerEiPKc+0x46>
  404303:	bf 18 00 00 00       	mov    $0x18,%edi
  404308:	e8 33 fa ff ff       	callq  403d40 <__cxa_allocate_exception@plt>
  40430d:	48 89 c3             	mov    %rax,%rbx
  404310:	48 8b 55 e0          	mov    -0x20(%rbp),%rdx
  404314:	8b 45 ec             	mov    -0x14(%rbp),%eax
  404317:	89 c6                	mov    %eax,%esi
  404319:	48 89 df             	mov    %rbx,%rdi
  40431c:	e8 bb 08 00 00       	callq  404bdc <_ZN2cl5ErrorC1EiPKc>
  404321:	ba 20 4c 40 00       	mov    $0x404c20,%edx
  404326:	be 70 cd 40 00       	mov    $0x40cd70,%esi
  40432b:	48 89 df             	mov    %rbx,%rdi
  40432e:	e8 1d fd ff ff       	callq  404050 <__cxa_throw@plt>
  404333:	8b 45 ec             	mov    -0x14(%rbp),%eax
  404336:	48 83 c4 18          	add    $0x18,%rsp
  40433a:	5b                   	pop    %rbx
  40433b:	5d                   	pop    %rbp
  40433c:	c3                   	retq   

000000000040433d <_ZN2cl6detailL10getVersionERKSt6vectorIcSaIcEE>:
  40433d:	55                   	push   %rbp
  40433e:	48 89 e5             	mov    %rsp,%rbp
  404341:	48 83 ec 20          	sub    $0x20,%rsp
  404345:	48 89 7d e8          	mov    %rdi,-0x18(%rbp)
  404349:	c7 45 f4 00 00 00 00 	movl   $0x0,-0xc(%rbp)
  404350:	c7 45 f8 00 00 00 00 	movl   $0x0,-0x8(%rbp)
  404357:	c7 45 fc 07 00 00 00 	movl   $0x7,-0x4(%rbp)
  40435e:	8b 45 fc             	mov    -0x4(%rbp),%eax
  404361:	48 63 d0             	movslq %eax,%rdx
  404364:	48 8b 45 e8          	mov    -0x18(%rbp),%rax
  404368:	48 89 d6             	mov    %rdx,%rsi
  40436b:	48 89 c7             	mov    %rax,%rdi
  40436e:	e8 49 31 00 00       	callq  4074bc <_ZNKSt6vectorIcSaIcEEixEm>
  404373:	0f b6 00             	movzbl (%rax),%eax
  404376:	3c 2e                	cmp    $0x2e,%al
  404378:	0f 95 c0             	setne  %al
  40437b:	84 c0                	test   %al,%al
  40437d:	74 36                	je     4043b5 <_ZN2cl6detailL10getVersionERKSt6vectorIcSaIcEE+0x78>
  40437f:	8b 55 f4             	mov    -0xc(%rbp),%edx
  404382:	89 d0                	mov    %edx,%eax
  404384:	c1 e0 02             	shl    $0x2,%eax
  404387:	01 d0                	add    %edx,%eax
  404389:	01 c0                	add    %eax,%eax
  40438b:	89 45 f4             	mov    %eax,-0xc(%rbp)
  40438e:	8b 45 fc             	mov    -0x4(%rbp),%eax
  404391:	48 63 d0             	movslq %eax,%rdx
  404394:	48 8b 45 e8          	mov    -0x18(%rbp),%rax
  404398:	48 89 d6             	mov    %rdx,%rsi
  40439b:	48 89 c7             	mov    %rax,%rdi
  40439e:	e8 19 31 00 00       	callq  4074bc <_ZNKSt6vectorIcSaIcEEixEm>
  4043a3:	0f b6 00             	movzbl (%rax),%eax
  4043a6:	0f be c0             	movsbl %al,%eax
  4043a9:	83 e8 30             	sub    $0x30,%eax
  4043ac:	01 45 f4             	add    %eax,-0xc(%rbp)
  4043af:	83 45 fc 01          	addl   $0x1,-0x4(%rbp)
  4043b3:	eb a9                	jmp    40435e <_ZN2cl6detailL10getVersionERKSt6vectorIcSaIcEE+0x21>
  4043b5:	83 45 fc 01          	addl   $0x1,-0x4(%rbp)
  4043b9:	8b 45 fc             	mov    -0x4(%rbp),%eax
  4043bc:	48 63 d0             	movslq %eax,%rdx
  4043bf:	48 8b 45 e8          	mov    -0x18(%rbp),%rax
  4043c3:	48 89 d6             	mov    %rdx,%rsi
  4043c6:	48 89 c7             	mov    %rax,%rdi
  4043c9:	e8 ee 30 00 00       	callq  4074bc <_ZNKSt6vectorIcSaIcEEixEm>
  4043ce:	0f b6 00             	movzbl (%rax),%eax
  4043d1:	3c 20                	cmp    $0x20,%al
  4043d3:	74 23                	je     4043f8 <_ZN2cl6detailL10getVersionERKSt6vectorIcSaIcEE+0xbb>
  4043d5:	8b 45 fc             	mov    -0x4(%rbp),%eax
  4043d8:	48 63 d0             	movslq %eax,%rdx
  4043db:	48 8b 45 e8          	mov    -0x18(%rbp),%rax
  4043df:	48 89 d6             	mov    %rdx,%rsi
  4043e2:	48 89 c7             	mov    %rax,%rdi
  4043e5:	e8 d2 30 00 00       	callq  4074bc <_ZNKSt6vectorIcSaIcEEixEm>
  4043ea:	0f b6 00             	movzbl (%rax),%eax
  4043ed:	84 c0                	test   %al,%al
  4043ef:	74 07                	je     4043f8 <_ZN2cl6detailL10getVersionERKSt6vectorIcSaIcEE+0xbb>
  4043f1:	b8 01 00 00 00       	mov    $0x1,%eax
  4043f6:	eb 05                	jmp    4043fd <_ZN2cl6detailL10getVersionERKSt6vectorIcSaIcEE+0xc0>
  4043f8:	b8 00 00 00 00       	mov    $0x0,%eax
  4043fd:	84 c0                	test   %al,%al
  4043ff:	74 36                	je     404437 <_ZN2cl6detailL10getVersionERKSt6vectorIcSaIcEE+0xfa>
  404401:	8b 55 f8             	mov    -0x8(%rbp),%edx
  404404:	89 d0                	mov    %edx,%eax
  404406:	c1 e0 02             	shl    $0x2,%eax
  404409:	01 d0                	add    %edx,%eax
  40440b:	01 c0                	add    %eax,%eax
  40440d:	89 45 f8             	mov    %eax,-0x8(%rbp)
  404410:	8b 45 fc             	mov    -0x4(%rbp),%eax
  404413:	48 63 d0             	movslq %eax,%rdx
  404416:	48 8b 45 e8          	mov    -0x18(%rbp),%rax
  40441a:	48 89 d6             	mov    %rdx,%rsi
  40441d:	48 89 c7             	mov    %rax,%rdi
  404420:	e8 97 30 00 00       	callq  4074bc <_ZNKSt6vectorIcSaIcEEixEm>
  404425:	0f b6 00             	movzbl (%rax),%eax
  404428:	0f be c0             	movsbl %al,%eax
  40442b:	83 e8 30             	sub    $0x30,%eax
  40442e:	01 45 f8             	add    %eax,-0x8(%rbp)
  404431:	83 45 fc 01          	addl   $0x1,-0x4(%rbp)
  404435:	eb 82                	jmp    4043b9 <_ZN2cl6detailL10getVersionERKSt6vectorIcSaIcEE+0x7c>
  404437:	8b 45 f4             	mov    -0xc(%rbp),%eax
  40443a:	c1 e0 10             	shl    $0x10,%eax
  40443d:	0b 45 f8             	or     -0x8(%rbp),%eax
  404440:	c9                   	leaveq 
  404441:	c3                   	retq   

0000000000404442 <_ZN2CK16store_setup_timeEf>:
  404442:	55                   	push   %rbp
  404443:	48 89 e5             	mov    %rsp,%rbp
  404446:	48 83 ec 10          	sub    $0x10,%rsp
  40444a:	f3 0f 11 45 fc       	movss  %xmm0,-0x4(%rbp)
  40444f:	8b 45 fc             	mov    -0x4(%rbp),%eax
  404452:	89 45 f8             	mov    %eax,-0x8(%rbp)
  404455:	f3 0f 10 45 f8       	movss  -0x8(%rbp),%xmm0
  40445a:	be 98 c8 40 00       	mov    $0x40c898,%esi
  40445f:	bf 0a 00 00 00       	mov    $0xa,%edi
  404464:	e8 a1 2b 00 00       	callq  40700a <_ZN2CK13store_value_fEiPKcf>
  404469:	90                   	nop
  40446a:	c9                   	leaveq 
  40446b:	c3                   	retq   

000000000040446c <_ZN2CK15store_test_timeEf>:
  40446c:	55                   	push   %rbp
  40446d:	48 89 e5             	mov    %rsp,%rbp
  404470:	48 83 ec 10          	sub    $0x10,%rsp
  404474:	f3 0f 11 45 fc       	movss  %xmm0,-0x4(%rbp)
  404479:	8b 45 fc             	mov    -0x4(%rbp),%eax
  40447c:	89 45 f8             	mov    %eax,-0x8(%rbp)
  40447f:	f3 0f 10 45 f8       	movss  -0x8(%rbp),%xmm0
  404484:	be a3 c8 40 00       	mov    $0x40c8a3,%esi
  404489:	bf 0b 00 00 00       	mov    $0xb,%edi
  40448e:	e8 77 2b 00 00       	callq  40700a <_ZN2CK13store_value_fEiPKcf>
  404493:	90                   	nop
  404494:	c9                   	leaveq 
  404495:	c3                   	retq   

0000000000404496 <_ZZ4mainENKUlvE_clEv>:
  404496:	55                   	push   %rbp
  404497:	48 89 e5             	mov    %rsp,%rbp
  40449a:	53                   	push   %rbx
  40449b:	48 81 ec 88 01 00 00 	sub    $0x188,%rsp
  4044a2:	48 89 bd 78 fe ff ff 	mov    %rdi,-0x188(%rbp)
  4044a9:	64 48 8b 04 25 28 00 	mov    %fs:0x28,%rax
  4044b0:	00 00 
  4044b2:	48 89 45 e8          	mov    %rax,-0x18(%rbp)
  4044b6:	31 c0                	xor    %eax,%eax
  4044b8:	48 8b 85 78 fe ff ff 	mov    -0x188(%rbp),%rax
  4044bf:	48 8b 00             	mov    (%rax),%rax
  4044c2:	8b 70 04             	mov    0x4(%rax),%esi
  4044c5:	48 8d 85 90 fe ff ff 	lea    -0x170(%rbp),%rax
  4044cc:	b9 01 00 00 00       	mov    $0x1,%ecx
  4044d1:	ba 01 00 00 00       	mov    $0x1,%edx
  4044d6:	48 89 c7             	mov    %rax,%rdi
  4044d9:	e8 f2 3d 00 00       	callq  4082d0 <_ZN11arm_compute11TensorShapeC1IIiiiEEEDpT_>
  4044de:	48 8d 8d 90 fe ff ff 	lea    -0x170(%rbp),%rcx
  4044e5:	48 8d 85 d0 fe ff ff 	lea    -0x130(%rbp),%rax
  4044ec:	ba 07 00 00 00       	mov    $0x7,%edx
  4044f1:	48 89 ce             	mov    %rcx,%rsi
  4044f4:	48 89 c7             	mov    %rax,%rdi
  4044f7:	e8 44 fb ff ff       	callq  404040 <_ZN11arm_compute10TensorInfoC1ERKNS_11TensorShapeENS_6FormatE@plt>
  4044fc:	48 8b 85 78 fe ff ff 	mov    -0x188(%rbp),%rax
  404503:	48 8b 40 08          	mov    0x8(%rax),%rax
  404507:	48 89 c7             	mov    %rax,%rdi
  40450a:	e8 71 f9 ff ff       	callq  403e80 <_ZN11arm_compute8CLTensor9allocatorEv@plt>
  40450f:	48 89 c2             	mov    %rax,%rdx
  404512:	48 8d 85 d0 fe ff ff 	lea    -0x130(%rbp),%rax
  404519:	48 89 c6             	mov    %rax,%rsi
  40451c:	48 89 d7             	mov    %rdx,%rdi
  40451f:	e8 3c f9 ff ff       	callq  403e60 <_ZN11arm_compute16ITensorAllocator4initERKNS_10TensorInfoE@plt>
  404524:	48 8d 85 d0 fe ff ff 	lea    -0x130(%rbp),%rax
  40452b:	48 89 c7             	mov    %rax,%rdi
  40452e:	e8 41 7c 00 00       	callq  40c174 <_ZN11arm_compute10TensorInfoD1Ev>
  404533:	48 8d 8d 90 fe ff ff 	lea    -0x170(%rbp),%rcx
  40453a:	48 8d 85 d0 fe ff ff 	lea    -0x130(%rbp),%rax
  404541:	ba 07 00 00 00       	mov    $0x7,%edx
  404546:	48 89 ce             	mov    %rcx,%rsi
  404549:	48 89 c7             	mov    %rax,%rdi
  40454c:	e8 ef fa ff ff       	callq  404040 <_ZN11arm_compute10TensorInfoC1ERKNS_11TensorShapeENS_6FormatE@plt>
  404551:	48 8b 85 78 fe ff ff 	mov    -0x188(%rbp),%rax
  404558:	48 8b 40 10          	mov    0x10(%rax),%rax
  40455c:	48 89 c7             	mov    %rax,%rdi
  40455f:	e8 1c f9 ff ff       	callq  403e80 <_ZN11arm_compute8CLTensor9allocatorEv@plt>
  404564:	48 89 c2             	mov    %rax,%rdx
  404567:	48 8d 85 d0 fe ff ff 	lea    -0x130(%rbp),%rax
  40456e:	48 89 c6             	mov    %rax,%rsi
  404571:	48 89 d7             	mov    %rdx,%rdi
  404574:	e8 e7 f8 ff ff       	callq  403e60 <_ZN11arm_compute16ITensorAllocator4initERKNS_10TensorInfoE@plt>
  404579:	48 8d 85 d0 fe ff ff 	lea    -0x130(%rbp),%rax
  404580:	48 89 c7             	mov    %rax,%rdi
  404583:	e8 ec 7b 00 00       	callq  40c174 <_ZN11arm_compute10TensorInfoD1Ev>
  404588:	48 8b 85 78 fe ff ff 	mov    -0x188(%rbp),%rax
  40458f:	48 8b 40 10          	mov    0x10(%rax),%rax
  404593:	48 89 c2             	mov    %rax,%rdx
  404596:	48 8b 85 78 fe ff ff 	mov    -0x188(%rbp),%rax
  40459d:	48 8b 40 08          	mov    0x8(%rax),%rax
  4045a1:	48 89 c1             	mov    %rax,%rcx
  4045a4:	48 8b 85 78 fe ff ff 	mov    -0x188(%rbp),%rax
  4045ab:	48 8b 40 18          	mov    0x18(%rax),%rax
  4045af:	48 89 ce             	mov    %rcx,%rsi
  4045b2:	48 89 c7             	mov    %rax,%rdi
  4045b5:	e8 46 fa ff ff       	callq  404000 <_ZN11arm_compute14CLSoftmaxLayer9configureEPKNS_9ICLTensorEPS1_@plt>
  4045ba:	48 8b 85 78 fe ff ff 	mov    -0x188(%rbp),%rax
  4045c1:	48 8b 40 08          	mov    0x8(%rax),%rax
  4045c5:	48 89 c7             	mov    %rax,%rdi
  4045c8:	e8 b3 f8 ff ff       	callq  403e80 <_ZN11arm_compute8CLTensor9allocatorEv@plt>
  4045cd:	48 8b 10             	mov    (%rax),%rdx
  4045d0:	48 83 c2 10          	add    $0x10,%rdx
  4045d4:	48 8b 12             	mov    (%rdx),%rdx
  4045d7:	48 89 c7             	mov    %rax,%rdi
  4045da:	ff d2                	callq  *%rdx
  4045dc:	48 8b 85 78 fe ff ff 	mov    -0x188(%rbp),%rax
  4045e3:	48 8b 40 10          	mov    0x10(%rax),%rax
  4045e7:	48 89 c7             	mov    %rax,%rdi
  4045ea:	e8 91 f8 ff ff       	callq  403e80 <_ZN11arm_compute8CLTensor9allocatorEv@plt>
  4045ef:	48 8b 10             	mov    (%rax),%rdx
  4045f2:	48 83 c2 10          	add    $0x10,%rdx
  4045f6:	48 8b 12             	mov    (%rdx),%rdx
  4045f9:	48 89 c7             	mov    %rax,%rdi
  4045fc:	ff d2                	callq  *%rdx
  4045fe:	48 8b 85 78 fe ff ff 	mov    -0x188(%rbp),%rax
  404605:	48 8b 00             	mov    (%rax),%rax
  404608:	48 89 c7             	mov    %rax,%rdi
  40460b:	e8 76 3d 00 00       	callq  408386 <_ZN2CK19get_random_raw_dataIfEEPT_RKNS_5ShapeE>
  404610:	48 89 85 88 fe ff ff 	mov    %rax,-0x178(%rbp)
  404617:	48 8b 85 78 fe ff ff 	mov    -0x188(%rbp),%rax
  40461e:	48 8b 10             	mov    (%rax),%rdx
  404621:	48 8b 85 88 fe ff ff 	mov    -0x178(%rbp),%rax
  404628:	48 89 d6             	mov    %rdx,%rsi
  40462b:	48 89 c7             	mov    %rax,%rdi
  40462e:	e8 6f 3e 00 00       	callq  4084a2 <_ZN2CK20print_input_raw_dataIfEEvPT_RKNS_5ShapeE>
  404633:	48 8b 85 78 fe ff ff 	mov    -0x188(%rbp),%rax
  40463a:	48 8b 10             	mov    (%rax),%rdx
  40463d:	48 8b 85 78 fe ff ff 	mov    -0x188(%rbp),%rax
  404644:	48 8b 40 08          	mov    0x8(%rax),%rax
  404648:	48 8b 8d 88 fe ff ff 	mov    -0x178(%rbp),%rcx
  40464f:	48 89 ce             	mov    %rcx,%rsi
  404652:	48 89 c7             	mov    %rax,%rdi
  404655:	e8 ea 3e 00 00       	callq  408544 <_ZN2CK5armcl23copy_raw_data_to_tensorIfEEvPN11arm_compute8CLTensorEPT_RKNS_5ShapeE>
  40465a:	48 83 bd 88 fe ff ff 	cmpq   $0x0,-0x178(%rbp)
  404661:	00 
  404662:	74 4b                	je     4046af <_ZZ4mainENKUlvE_clEv+0x219>
  404664:	48 8b 85 88 fe ff ff 	mov    -0x178(%rbp),%rax
  40466b:	48 89 c7             	mov    %rax,%rdi
  40466e:	e8 7d f8 ff ff       	callq  403ef0 <_ZdaPv@plt>
  404673:	eb 3a                	jmp    4046af <_ZZ4mainENKUlvE_clEv+0x219>
  404675:	48 89 c3             	mov    %rax,%rbx
  404678:	48 8d 85 d0 fe ff ff 	lea    -0x130(%rbp),%rax
  40467f:	48 89 c7             	mov    %rax,%rdi
  404682:	e8 ed 7a 00 00       	callq  40c174 <_ZN11arm_compute10TensorInfoD1Ev>
  404687:	48 89 d8             	mov    %rbx,%rax
  40468a:	48 89 c7             	mov    %rax,%rdi
  40468d:	e8 de f9 ff ff       	callq  404070 <_Unwind_Resume@plt>
  404692:	48 89 c3             	mov    %rax,%rbx
  404695:	48 8d 85 d0 fe ff ff 	lea    -0x130(%rbp),%rax
  40469c:	48 89 c7             	mov    %rax,%rdi
  40469f:	e8 d0 7a 00 00       	callq  40c174 <_ZN11arm_compute10TensorInfoD1Ev>
  4046a4:	48 89 d8             	mov    %rbx,%rax
  4046a7:	48 89 c7             	mov    %rax,%rdi
  4046aa:	e8 c1 f9 ff ff       	callq  404070 <_Unwind_Resume@plt>
  4046af:	90                   	nop
  4046b0:	48 8b 45 e8          	mov    -0x18(%rbp),%rax
  4046b4:	64 48 33 04 25 28 00 	xor    %fs:0x28,%rax
  4046bb:	00 00 
  4046bd:	74 05                	je     4046c4 <_ZZ4mainENKUlvE_clEv+0x22e>
  4046bf:	e8 8c f7 ff ff       	callq  403e50 <__stack_chk_fail@plt>
  4046c4:	48 81 c4 88 01 00 00 	add    $0x188,%rsp
  4046cb:	5b                   	pop    %rbx
  4046cc:	5d                   	pop    %rbp
  4046cd:	c3                   	retq   

00000000004046ce <_ZZ4mainENKUlvE0_clEv>:
  4046ce:	55                   	push   %rbp
  4046cf:	48 89 e5             	mov    %rsp,%rbp
  4046d2:	48 83 ec 10          	sub    $0x10,%rsp
  4046d6:	48 89 7d f8          	mov    %rdi,-0x8(%rbp)
  4046da:	48 8b 45 f8          	mov    -0x8(%rbp),%rax
  4046de:	48 8b 00             	mov    (%rax),%rax
  4046e1:	48 8b 00             	mov    (%rax),%rax
  4046e4:	48 8b 00             	mov    (%rax),%rax
  4046e7:	48 8b 55 f8          	mov    -0x8(%rbp),%rdx
  4046eb:	48 8b 12             	mov    (%rdx),%rdx
  4046ee:	48 89 d7             	mov    %rdx,%rdi
  4046f1:	ff d0                	callq  *%rax
  4046f3:	e8 68 f5 ff ff       	callq  403c60 <_ZN11arm_compute11CLScheduler3getEv@plt>
  4046f8:	48 89 c7             	mov    %rax,%rdi
  4046fb:	e8 92 27 00 00       	callq  406e92 <_ZN11arm_compute11CLScheduler4syncEv>
  404700:	90                   	nop
  404701:	c9                   	leaveq 
  404702:	c3                   	retq   

0000000000404703 <main>:
  404703:	55                   	push   %rbp
  404704:	48 89 e5             	mov    %rsp,%rbp
  404707:	53                   	push   %rbx
  404708:	48 81 ec e8 08 00 00 	sub    $0x8e8,%rsp
  40470f:	64 48 8b 04 25 28 00 	mov    %fs:0x28,%rax
  404716:	00 00 
  404718:	48 89 45 e8          	mov    %rax,-0x18(%rbp)
  40471c:	31 c0                	xor    %eax,%eax
  40471e:	e8 30 2a 00 00       	callq  407153 <_ZN2CK9init_testEv>
  404723:	e8 70 2b 00 00       	callq  407298 <_ZN2CK5armcl10init_armclEv>
  404728:	e8 59 29 00 00       	callq  407086 <_ZN2CK24get_input_shape_from_envEv>
  40472d:	48 89 85 20 f7 ff ff 	mov    %rax,-0x8e0(%rbp)
  404734:	48 89 95 28 f7 ff ff 	mov    %rdx,-0x8d8(%rbp)
  40473b:	8b 85 28 f7 ff ff    	mov    -0x8d8(%rbp),%eax
  404741:	83 f8 01             	cmp    $0x1,%eax
  404744:	75 0b                	jne    404751 <main+0x4e>
  404746:	8b 85 2c f7 ff ff    	mov    -0x8d4(%rbp),%eax
  40474c:	83 f8 01             	cmp    $0x1,%eax
  40474f:	74 19                	je     40476a <main+0x67>
  404751:	b9 20 ca 40 00       	mov    $0x40ca20,%ecx
  404756:	ba 15 00 00 00       	mov    $0x15,%edx
  40475b:	be d8 c8 40 00       	mov    $0x40c8d8,%esi
  404760:	bf f0 c8 40 00       	mov    $0x40c8f0,%edi
  404765:	e8 36 f6 ff ff       	callq  403da0 <__assert_fail@plt>
  40476a:	48 8d 85 50 f7 ff ff 	lea    -0x8b0(%rbp),%rax
  404771:	48 89 c7             	mov    %rax,%rdi
  404774:	e8 67 f9 ff ff       	callq  4040e0 <_ZN11arm_compute8CLTensorC1Ev@plt>
  404779:	48 8d 85 a0 f8 ff ff 	lea    -0x760(%rbp),%rax
  404780:	48 89 c7             	mov    %rax,%rdi
  404783:	e8 58 f9 ff ff       	callq  4040e0 <_ZN11arm_compute8CLTensorC1Ev@plt>
  404788:	48 8d 85 30 f7 ff ff 	lea    -0x8d0(%rbp),%rax
  40478f:	be 00 00 00 00       	mov    $0x0,%esi
  404794:	48 89 c7             	mov    %rax,%rdi
  404797:	e8 b4 2c 00 00       	callq  407450 <_ZNSt10shared_ptrIN11arm_compute14IMemoryManagerEEC1EDn>
  40479c:	48 8d 95 30 f7 ff ff 	lea    -0x8d0(%rbp),%rdx
  4047a3:	48 8d 85 f0 f9 ff ff 	lea    -0x610(%rbp),%rax
  4047aa:	48 89 d6             	mov    %rdx,%rsi
  4047ad:	48 89 c7             	mov    %rax,%rdi
  4047b0:	e8 ab f5 ff ff       	callq  403d60 <_ZN11arm_compute14CLSoftmaxLayerC1ESt10shared_ptrINS_14IMemoryManagerEE@plt>
  4047b5:	48 8d 85 30 f7 ff ff 	lea    -0x8d0(%rbp),%rax
  4047bc:	48 89 c7             	mov    %rax,%rdi
  4047bf:	e8 70 2c 00 00       	callq  407434 <_ZNSt10shared_ptrIN11arm_compute14IMemoryManagerEED1Ev>
  4047c4:	48 8d 85 20 f7 ff ff 	lea    -0x8e0(%rbp),%rax
  4047cb:	48 89 85 30 f7 ff ff 	mov    %rax,-0x8d0(%rbp)
  4047d2:	48 8d 85 50 f7 ff ff 	lea    -0x8b0(%rbp),%rax
  4047d9:	48 89 85 38 f7 ff ff 	mov    %rax,-0x8c8(%rbp)
  4047e0:	48 8d 85 a0 f8 ff ff 	lea    -0x760(%rbp),%rax
  4047e7:	48 89 85 40 f7 ff ff 	mov    %rax,-0x8c0(%rbp)
  4047ee:	48 8d 85 f0 f9 ff ff 	lea    -0x610(%rbp),%rax
  4047f5:	48 89 85 48 f7 ff ff 	mov    %rax,-0x8b8(%rbp)
  4047fc:	48 8d 85 30 f7 ff ff 	lea    -0x8d0(%rbp),%rax
  404803:	48 89 c7             	mov    %rax,%rdi
  404806:	e8 ab 01 00 00       	callq  4049b6 <_ZN2CK13measure_setupIZ4mainEUlvE_EEvOT_>
  40480b:	48 8d 85 f0 f9 ff ff 	lea    -0x610(%rbp),%rax
  404812:	48 89 85 30 f7 ff ff 	mov    %rax,-0x8d0(%rbp)
  404819:	48 8d 85 30 f7 ff ff 	lea    -0x8d0(%rbp),%rax
  404820:	48 89 c7             	mov    %rax,%rdi
  404823:	e8 c1 01 00 00       	callq  4049e9 <_ZN2CK12measure_testIZ4mainEUlvE0_EEvOT_>
  404828:	48 8d 85 20 f7 ff ff 	lea    -0x8e0(%rbp),%rax
  40482f:	48 89 c7             	mov    %rax,%rdi
  404832:	e8 7b 26 00 00       	callq  406eb2 <_ZNK2CK5Shape10data_countEv>
  404837:	48 98                	cltq   
  404839:	48 ba 00 00 00 00 00 	movabs $0x1fc0000000000000,%rdx
  404840:	00 c0 1f 
  404843:	48 39 d0             	cmp    %rdx,%rax
  404846:	77 0e                	ja     404856 <main+0x153>
  404848:	48 c1 e0 02          	shl    $0x2,%rax
  40484c:	48 89 c7             	mov    %rax,%rdi
  40484f:	e8 dc f3 ff ff       	callq  403c30 <_Znam@plt>
  404854:	eb 05                	jmp    40485b <main+0x158>
  404856:	e8 e5 f6 ff ff       	callq  403f40 <__cxa_throw_bad_array_new_length@plt>
  40485b:	48 89 85 18 f7 ff ff 	mov    %rax,-0x8e8(%rbp)
  404862:	48 8d 95 20 f7 ff ff 	lea    -0x8e0(%rbp),%rdx
  404869:	48 8b 8d 18 f7 ff ff 	mov    -0x8e8(%rbp),%rcx
  404870:	48 8d 85 a0 f8 ff ff 	lea    -0x760(%rbp),%rax
  404877:	48 89 ce             	mov    %rcx,%rsi
  40487a:	48 89 c7             	mov    %rax,%rdi
  40487d:	e8 b5 3e 00 00       	callq  408737 <_ZN2CK5armcl25copy_raw_data_from_tensorIfEEvPN11arm_compute8CLTensorEPT_RKNS_5ShapeE>
  404882:	48 8d 95 20 f7 ff ff 	lea    -0x8e0(%rbp),%rdx
  404889:	48 8b 85 18 f7 ff ff 	mov    -0x8e8(%rbp),%rax
  404890:	48 89 d6             	mov    %rdx,%rsi
  404893:	48 89 c7             	mov    %rax,%rdi
  404896:	e8 34 40 00 00       	callq  4088cf <_ZN2CK21print_output_raw_dataIfEEvPT_RKNS_5ShapeE>
  40489b:	48 8d 95 20 f7 ff ff 	lea    -0x8e0(%rbp),%rdx
  4048a2:	48 8b 85 18 f7 ff ff 	mov    -0x8e8(%rbp),%rax
  4048a9:	48 89 d6             	mov    %rdx,%rsi
  4048ac:	48 89 c7             	mov    %rax,%rdi
  4048af:	e8 59 40 00 00       	callq  40890d <_ZN2CK20dump_output_raw_dataIfEEvPT_RKNS_5ShapeE>
  4048b4:	48 83 bd 18 f7 ff ff 	cmpq   $0x0,-0x8e8(%rbp)
  4048bb:	00 
  4048bc:	74 0f                	je     4048cd <main+0x1ca>
  4048be:	48 8b 85 18 f7 ff ff 	mov    -0x8e8(%rbp),%rax
  4048c5:	48 89 c7             	mov    %rax,%rdi
  4048c8:	e8 23 f6 ff ff       	callq  403ef0 <_ZdaPv@plt>
  4048cd:	48 8d 85 50 f7 ff ff 	lea    -0x8b0(%rbp),%rax
  4048d4:	48 89 c7             	mov    %rax,%rdi
  4048d7:	e8 a4 f5 ff ff       	callq  403e80 <_ZN11arm_compute8CLTensor9allocatorEv@plt>
  4048dc:	48 8b 10             	mov    (%rax),%rdx
  4048df:	48 83 c2 18          	add    $0x18,%rdx
  4048e3:	48 8b 12             	mov    (%rdx),%rdx
  4048e6:	48 89 c7             	mov    %rax,%rdi
  4048e9:	ff d2                	callq  *%rdx
  4048eb:	48 8d 85 a0 f8 ff ff 	lea    -0x760(%rbp),%rax
  4048f2:	48 89 c7             	mov    %rax,%rdi
  4048f5:	e8 86 f5 ff ff       	callq  403e80 <_ZN11arm_compute8CLTensor9allocatorEv@plt>
  4048fa:	48 8b 10             	mov    (%rax),%rdx
  4048fd:	48 83 c2 18          	add    $0x18,%rdx
  404901:	48 8b 12             	mov    (%rdx),%rdx
  404904:	48 89 c7             	mov    %rax,%rdi
  404907:	ff d2                	callq  *%rdx
  404909:	e8 5b 28 00 00       	callq  407169 <_ZN2CK11finish_testEv>
  40490e:	bb 00 00 00 00       	mov    $0x0,%ebx
  404913:	48 8d 85 f0 f9 ff ff 	lea    -0x610(%rbp),%rax
  40491a:	48 89 c7             	mov    %rax,%rdi
  40491d:	e8 20 77 00 00       	callq  40c042 <_ZN11arm_compute14CLSoftmaxLayerD1Ev>
  404922:	48 8d 85 a0 f8 ff ff 	lea    -0x760(%rbp),%rax
  404929:	48 89 c7             	mov    %rax,%rdi
  40492c:	e8 41 72 00 00       	callq  40bb72 <_ZN11arm_compute8CLTensorD1Ev>
  404931:	48 8d 85 50 f7 ff ff 	lea    -0x8b0(%rbp),%rax
  404938:	48 89 c7             	mov    %rax,%rdi
  40493b:	e8 32 72 00 00       	callq  40bb72 <_ZN11arm_compute8CLTensorD1Ev>
  404940:	89 d8                	mov    %ebx,%eax
  404942:	48 8b 4d e8          	mov    -0x18(%rbp),%rcx
  404946:	64 48 33 0c 25 28 00 	xor    %fs:0x28,%rcx
  40494d:	00 00 
  40494f:	74 5b                	je     4049ac <main+0x2a9>
  404951:	eb 54                	jmp    4049a7 <main+0x2a4>
  404953:	48 89 c3             	mov    %rax,%rbx
  404956:	48 8d 85 30 f7 ff ff 	lea    -0x8d0(%rbp),%rax
  40495d:	48 89 c7             	mov    %rax,%rdi
  404960:	e8 cf 2a 00 00       	callq  407434 <_ZNSt10shared_ptrIN11arm_compute14IMemoryManagerEED1Ev>
  404965:	eb 12                	jmp    404979 <main+0x276>
  404967:	48 89 c3             	mov    %rax,%rbx
  40496a:	48 8d 85 f0 f9 ff ff 	lea    -0x610(%rbp),%rax
  404971:	48 89 c7             	mov    %rax,%rdi
  404974:	e8 c9 76 00 00       	callq  40c042 <_ZN11arm_compute14CLSoftmaxLayerD1Ev>
  404979:	48 8d 85 a0 f8 ff ff 	lea    -0x760(%rbp),%rax
  404980:	48 89 c7             	mov    %rax,%rdi
  404983:	e8 ea 71 00 00       	callq  40bb72 <_ZN11arm_compute8CLTensorD1Ev>
  404988:	eb 03                	jmp    40498d <main+0x28a>
  40498a:	48 89 c3             	mov    %rax,%rbx
  40498d:	48 8d 85 50 f7 ff ff 	lea    -0x8b0(%rbp),%rax
  404994:	48 89 c7             	mov    %rax,%rdi
  404997:	e8 d6 71 00 00       	callq  40bb72 <_ZN11arm_compute8CLTensorD1Ev>
  40499c:	48 89 d8             	mov    %rbx,%rax
  40499f:	48 89 c7             	mov    %rax,%rdi
  4049a2:	e8 c9 f6 ff ff       	callq  404070 <_Unwind_Resume@plt>
  4049a7:	e8 a4 f4 ff ff       	callq  403e50 <__stack_chk_fail@plt>
  4049ac:	48 81 c4 e8 08 00 00 	add    $0x8e8,%rsp
  4049b3:	5b                   	pop    %rbx
  4049b4:	5d                   	pop    %rbp
  4049b5:	c3                   	retq   

00000000004049b6 <_ZN2CK13measure_setupIZ4mainEUlvE_EEvOT_>:
  4049b6:	55                   	push   %rbp
  4049b7:	48 89 e5             	mov    %rsp,%rbp
  4049ba:	48 83 ec 10          	sub    $0x10,%rsp
  4049be:	48 89 7d f8          	mov    %rdi,-0x8(%rbp)
  4049c2:	48 8b 45 f8          	mov    -0x8(%rbp),%rax
  4049c6:	be 00 00 00 00       	mov    $0x0,%esi
  4049cb:	48 89 c7             	mov    %rax,%rdi
  4049ce:	e8 49 00 00 00       	callq  404a1c <_ZN2CK11do_measuredIRZ4mainEUlvE_EEvOT_i>
  4049d3:	bf 00 00 00 00       	mov    $0x0,%edi
  4049d8:	e8 23 f7 ff ff       	callq  404100 <xopenme_get_timer@plt>
  4049dd:	f2 0f 5a c0          	cvtsd2ss %xmm0,%xmm0
  4049e1:	e8 5c fa ff ff       	callq  404442 <_ZN2CK16store_setup_timeEf>
  4049e6:	90                   	nop
  4049e7:	c9                   	leaveq 
  4049e8:	c3                   	retq   

00000000004049e9 <_ZN2CK12measure_testIZ4mainEUlvE0_EEvOT_>:
  4049e9:	55                   	push   %rbp
  4049ea:	48 89 e5             	mov    %rsp,%rbp
  4049ed:	48 83 ec 10          	sub    $0x10,%rsp
  4049f1:	48 89 7d f8          	mov    %rdi,-0x8(%rbp)
  4049f5:	48 8b 45 f8          	mov    -0x8(%rbp),%rax
  4049f9:	be 01 00 00 00       	mov    $0x1,%esi
  4049fe:	48 89 c7             	mov    %rax,%rdi
  404a01:	e8 48 00 00 00       	callq  404a4e <_ZN2CK11do_measuredIRZ4mainEUlvE0_EEvOT_i>
  404a06:	bf 01 00 00 00       	mov    $0x1,%edi
  404a0b:	e8 f0 f6 ff ff       	callq  404100 <xopenme_get_timer@plt>
  404a10:	f2 0f 5a c0          	cvtsd2ss %xmm0,%xmm0
  404a14:	e8 53 fa ff ff       	callq  40446c <_ZN2CK15store_test_timeEf>
  404a19:	90                   	nop
  404a1a:	c9                   	leaveq 
  404a1b:	c3                   	retq   

0000000000404a1c <_ZN2CK11do_measuredIRZ4mainEUlvE_EEvOT_i>:
  404a1c:	55                   	push   %rbp
  404a1d:	48 89 e5             	mov    %rsp,%rbp
  404a20:	48 83 ec 10          	sub    $0x10,%rsp
  404a24:	48 89 7d f8          	mov    %rdi,-0x8(%rbp)
  404a28:	89 75 f4             	mov    %esi,-0xc(%rbp)
  404a2b:	8b 45 f4             	mov    -0xc(%rbp),%eax
  404a2e:	89 c7                	mov    %eax,%edi
  404a30:	e8 4b f2 ff ff       	callq  403c80 <xopenme_clock_start@plt>
  404a35:	48 8b 45 f8          	mov    -0x8(%rbp),%rax
  404a39:	48 89 c7             	mov    %rax,%rdi
  404a3c:	e8 55 fa ff ff       	callq  404496 <_ZZ4mainENKUlvE_clEv>
  404a41:	8b 45 f4             	mov    -0xc(%rbp),%eax
  404a44:	89 c7                	mov    %eax,%edi
  404a46:	e8 c5 f4 ff ff       	callq  403f10 <xopenme_clock_end@plt>
  404a4b:	90                   	nop
  404a4c:	c9                   	leaveq 
  404a4d:	c3                   	retq   

0000000000404a4e <_ZN2CK11do_measuredIRZ4mainEUlvE0_EEvOT_i>:
  404a4e:	55                   	push   %rbp
  404a4f:	48 89 e5             	mov    %rsp,%rbp
  404a52:	48 83 ec 10          	sub    $0x10,%rsp
  404a56:	48 89 7d f8          	mov    %rdi,-0x8(%rbp)
  404a5a:	89 75 f4             	mov    %esi,-0xc(%rbp)
  404a5d:	8b 45 f4             	mov    -0xc(%rbp),%eax
  404a60:	89 c7                	mov    %eax,%edi
  404a62:	e8 19 f2 ff ff       	callq  403c80 <xopenme_clock_start@plt>
  404a67:	48 8b 45 f8          	mov    -0x8(%rbp),%rax
  404a6b:	48 89 c7             	mov    %rax,%rdi
  404a6e:	e8 5b fc ff ff       	callq  4046ce <_ZZ4mainENKUlvE0_clEv>
  404a73:	8b 45 f4             	mov    -0xc(%rbp),%eax
  404a76:	89 c7                	mov    %eax,%edi
  404a78:	e8 93 f4 ff ff       	callq  403f10 <xopenme_clock_end@plt>
  404a7d:	90                   	nop
  404a7e:	c9                   	leaveq 
  404a7f:	c3                   	retq   

0000000000404a80 <_Z41__static_initialization_and_destruction_0ii>:
  404a80:	55                   	push   %rbp
  404a81:	48 89 e5             	mov    %rsp,%rbp
  404a84:	48 83 ec 10          	sub    $0x10,%rsp
  404a88:	89 7d fc             	mov    %edi,-0x4(%rbp)
  404a8b:	89 75 f8             	mov    %esi,-0x8(%rbp)
  404a8e:	83 7d fc 01          	cmpl   $0x1,-0x4(%rbp)
  404a92:	0f 85 f3 00 00 00    	jne    404b8b <_Z41__static_initialization_and_destruction_0ii+0x10b>
  404a98:	81 7d f8 ff ff 00 00 	cmpl   $0xffff,-0x8(%rbp)
  404a9f:	0f 85 e6 00 00 00    	jne    404b8b <_Z41__static_initialization_and_destruction_0ii+0x10b>
  404aa5:	b8 38 37 61 00       	mov    $0x613738,%eax
  404aaa:	0f b6 00             	movzbl (%rax),%eax
  404aad:	84 c0                	test   %al,%al
  404aaf:	75 26                	jne    404ad7 <_Z41__static_initialization_and_destruction_0ii+0x57>
  404ab1:	b8 38 37 61 00       	mov    $0x613738,%eax
  404ab6:	c6 00 01             	movb   $0x1,(%rax)
  404ab9:	bf f0 36 61 00       	mov    $0x6136f0,%edi
  404abe:	e8 bf 05 00 00       	callq  405082 <_ZN2cl6DeviceC1Ev>
  404ac3:	ba 90 32 61 00       	mov    $0x613290,%edx
  404ac8:	be f0 36 61 00       	mov    $0x6136f0,%esi
  404acd:	bf ce 50 40 00       	mov    $0x4050ce,%edi
  404ad2:	e8 09 f3 ff ff       	callq  403de0 <__cxa_atexit@plt>
  404ad7:	b8 40 37 61 00       	mov    $0x613740,%eax
  404adc:	0f b6 00             	movzbl (%rax),%eax
  404adf:	84 c0                	test   %al,%al
  404ae1:	75 26                	jne    404b09 <_Z41__static_initialization_and_destruction_0ii+0x89>
  404ae3:	b8 40 37 61 00       	mov    $0x613740,%eax
  404ae8:	c6 00 01             	movb   $0x1,(%rax)
  404aeb:	bf 08 37 61 00       	mov    $0x613708,%edi
  404af0:	e8 17 09 00 00       	callq  40540c <_ZN2cl8PlatformC1Ev>
  404af5:	ba 90 32 61 00       	mov    $0x613290,%edx
  404afa:	be 08 37 61 00       	mov    $0x613708,%esi
  404aff:	bf 08 52 40 00       	mov    $0x405208,%edi
  404b04:	e8 d7 f2 ff ff       	callq  403de0 <__cxa_atexit@plt>
  404b09:	b8 48 37 61 00       	mov    $0x613748,%eax
  404b0e:	0f b6 00             	movzbl (%rax),%eax
  404b11:	84 c0                	test   %al,%al
  404b13:	75 26                	jne    404b3b <_Z41__static_initialization_and_destruction_0ii+0xbb>
  404b15:	b8 48 37 61 00       	mov    $0x613748,%eax
  404b1a:	c6 00 01             	movb   $0x1,(%rax)
  404b1d:	bf 18 37 61 00       	mov    $0x613718,%edi
  404b22:	e8 ad 13 00 00       	callq  405ed4 <_ZN2cl7ContextC1Ev>
  404b27:	ba 90 32 61 00       	mov    $0x613290,%edx
  404b2c:	be 18 37 61 00       	mov    $0x613718,%esi
  404b31:	bf 28 59 40 00       	mov    $0x405928,%edi
  404b36:	e8 a5 f2 ff ff       	callq  403de0 <__cxa_atexit@plt>
  404b3b:	bf 60 37 61 00       	mov    $0x613760,%edi
  404b40:	e8 d7 14 00 00       	callq  40601c <_ZN2cl7NDRangeC1Ev>
  404b45:	b8 50 37 61 00       	mov    $0x613750,%eax
  404b4a:	0f b6 00             	movzbl (%rax),%eax
  404b4d:	84 c0                	test   %al,%al
  404b4f:	75 26                	jne    404b77 <_Z41__static_initialization_and_destruction_0ii+0xf7>
  404b51:	b8 50 37 61 00       	mov    $0x613750,%eax
  404b56:	c6 00 01             	movb   $0x1,(%rax)
  404b59:	bf 28 37 61 00       	mov    $0x613728,%edi
  404b5e:	e8 c9 17 00 00       	callq  40632c <_ZN2cl12CommandQueueC1Ev>
  404b63:	ba 90 32 61 00       	mov    $0x613290,%edx
  404b68:	be 28 37 61 00       	mov    $0x613728,%esi
  404b6d:	bf b4 60 40 00       	mov    $0x4060b4,%edi
  404b72:	e8 69 f2 ff ff       	callq  403de0 <__cxa_atexit@plt>
  404b77:	ba 01 00 00 00       	mov    $0x1,%edx
  404b7c:	be 80 00 00 00       	mov    $0x80,%esi
  404b81:	bf 80 37 61 00       	mov    $0x613780,%edi
  404b86:	e8 cb 14 00 00       	callq  406056 <_ZN2cl7NDRangeC1Emm>
  404b8b:	90                   	nop
  404b8c:	c9                   	leaveq 
  404b8d:	c3                   	retq   

0000000000404b8e <_GLOBAL__sub_I__ZN2CK16store_setup_timeEf>:
  404b8e:	55                   	push   %rbp
  404b8f:	48 89 e5             	mov    %rsp,%rbp
  404b92:	be ff ff 00 00       	mov    $0xffff,%esi
  404b97:	bf 01 00 00 00       	mov    $0x1,%edi
  404b9c:	e8 df fe ff ff       	callq  404a80 <_Z41__static_initialization_and_destruction_0ii>
  404ba1:	5d                   	pop    %rbp
  404ba2:	c3                   	retq   
  404ba3:	90                   	nop

0000000000404ba4 <_ZNSt9exceptionC1Ev>:
  404ba4:	55                   	push   %rbp
  404ba5:	48 89 e5             	mov    %rsp,%rbp
  404ba8:	48 89 7d f8          	mov    %rdi,-0x8(%rbp)
  404bac:	ba d8 34 61 00       	mov    $0x6134d8,%edx
  404bb1:	48 8b 45 f8          	mov    -0x8(%rbp),%rax
  404bb5:	48 89 10             	mov    %rdx,(%rax)
  404bb8:	90                   	nop
  404bb9:	5d                   	pop    %rbp
  404bba:	c3                   	retq   

0000000000404bbb <_ZnwmPv>:
  404bbb:	55                   	push   %rbp
  404bbc:	48 89 e5             	mov    %rsp,%rbp
  404bbf:	48 89 7d f8          	mov    %rdi,-0x8(%rbp)
  404bc3:	48 89 75 f0          	mov    %rsi,-0x10(%rbp)
  404bc7:	48 8b 45 f0          	mov    -0x10(%rbp),%rax
  404bcb:	5d                   	pop    %rbp
  404bcc:	c3                   	retq   

0000000000404bcd <_ZdlPvS_>:
  404bcd:	55                   	push   %rbp
  404bce:	48 89 e5             	mov    %rsp,%rbp
  404bd1:	48 89 7d f8          	mov    %rdi,-0x8(%rbp)
  404bd5:	48 89 75 f0          	mov    %rsi,-0x10(%rbp)
  404bd9:	90                   	nop
  404bda:	5d                   	pop    %rbp
  404bdb:	c3                   	retq   

0000000000404bdc <_ZN2cl5ErrorC1EiPKc>:
  404bdc:	55                   	push   %rbp
  404bdd:	48 89 e5             	mov    %rsp,%rbp
  404be0:	48 83 ec 20          	sub    $0x20,%rsp
  404be4:	48 89 7d f8          	mov    %rdi,-0x8(%rbp)
  404be8:	89 75 f4             	mov    %esi,-0xc(%rbp)
  404beb:	48 89 55 e8          	mov    %rdx,-0x18(%rbp)
  404bef:	48 8b 45 f8          	mov    -0x8(%rbp),%rax
  404bf3:	48 89 c7             	mov    %rax,%rdi
  404bf6:	e8 a9 ff ff ff       	callq  404ba4 <_ZNSt9exceptionC1Ev>
  404bfb:	ba b8 cc 40 00       	mov    $0x40ccb8,%edx
  404c00:	48 8b 45 f8          	mov    -0x8(%rbp),%rax
  404c04:	48 89 10             	mov    %rdx,(%rax)
  404c07:	48 8b 45 f8          	mov    -0x8(%rbp),%rax
  404c0b:	8b 55 f4             	mov    -0xc(%rbp),%edx
  404c0e:	89 50 08             	mov    %edx,0x8(%rax)
  404c11:	48 8b 45 f8          	mov    -0x8(%rbp),%rax
  404c15:	48 8b 55 e8          	mov    -0x18(%rbp),%rdx
  404c19:	48 89 50 10          	mov    %rdx,0x10(%rax)
  404c1d:	90                   	nop
  404c1e:	c9                   	leaveq 
  404c1f:	c3                   	retq   

0000000000404c20 <_ZN2cl5ErrorD1Ev>:
  404c20:	55                   	push   %rbp
  404c21:	48 89 e5             	mov    %rsp,%rbp
  404c24:	48 83 ec 10          	sub    $0x10,%rsp
  404c28:	48 89 7d f8          	mov    %rdi,-0x8(%rbp)
  404c2c:	ba b8 cc 40 00       	mov    $0x40ccb8,%edx
  404c31:	48 8b 45 f8          	mov    -0x8(%rbp),%rax
  404c35:	48 89 10             	mov    %rdx,(%rax)
  404c38:	48 8b 45 f8          	mov    -0x8(%rbp),%rax
  404c3c:	48 89 c7             	mov    %rax,%rdi
  404c3f:	e8 5c f4 ff ff       	callq  4040a0 <_ZNSt9exceptionD2Ev@plt>
  404c44:	b8 00 00 00 00       	mov    $0x0,%eax
  404c49:	85 c0                	test   %eax,%eax
  404c4b:	74 0c                	je     404c59 <_ZN2cl5ErrorD1Ev+0x39>
  404c4d:	48 8b 45 f8          	mov    -0x8(%rbp),%rax
  404c51:	48 89 c7             	mov    %rax,%rdi
  404c54:	e8 97 f1 ff ff       	callq  403df0 <_ZdlPv@plt>
  404c59:	c9                   	leaveq 
  404c5a:	c3                   	retq   
  404c5b:	90                   	nop

0000000000404c5c <_ZN2cl5ErrorD0Ev>:
  404c5c:	55                   	push   %rbp
  404c5d:	48 89 e5             	mov    %rsp,%rbp
  404c60:	48 83 ec 10          	sub    $0x10,%rsp
  404c64:	48 89 7d f8          	mov    %rdi,-0x8(%rbp)
  404c68:	48 8b 45 f8          	mov    -0x8(%rbp),%rax
  404c6c:	48 89 c7             	mov    %rax,%rdi
  404c6f:	e8 ac ff ff ff       	callq  404c20 <_ZN2cl5ErrorD1Ev>
  404c74:	48 8b 45 f8          	mov    -0x8(%rbp),%rax
  404c78:	48 89 c7             	mov    %rax,%rdi
  404c7b:	e8 70 f1 ff ff       	callq  403df0 <_ZdlPv@plt>
  404c80:	c9                   	leaveq 
  404c81:	c3                   	retq   

0000000000404c82 <_ZNK2cl5Error4whatEv>:
  404c82:	55                   	push   %rbp
  404c83:	48 89 e5             	mov    %rsp,%rbp
  404c86:	48 89 7d f8          	mov    %rdi,-0x8(%rbp)
  404c8a:	48 8b 45 f8          	mov    -0x8(%rbp),%rax
  404c8e:	48 8b 40 10          	mov    0x10(%rax),%rax
  404c92:	48 85 c0             	test   %rax,%rax
  404c95:	75 07                	jne    404c9e <_ZNK2cl5Error4whatEv+0x1c>
  404c97:	b8 8e c6 40 00       	mov    $0x40c68e,%eax
  404c9c:	eb 08                	jmp    404ca6 <_ZNK2cl5Error4whatEv+0x24>
  404c9e:	48 8b 45 f8          	mov    -0x8(%rbp),%rax
  404ca2:	48 8b 40 10          	mov    0x10(%rax),%rax
  404ca6:	5d                   	pop    %rbp
  404ca7:	c3                   	retq   

0000000000404ca8 <_ZNK2cl5Error3errEv>:
  404ca8:	55                   	push   %rbp
  404ca9:	48 89 e5             	mov    %rsp,%rbp
  404cac:	48 89 7d f8          	mov    %rdi,-0x8(%rbp)
  404cb0:	48 8b 45 f8          	mov    -0x8(%rbp),%rax
  404cb4:	8b 40 08             	mov    0x8(%rax),%eax
  404cb7:	5d                   	pop    %rbp
  404cb8:	c3                   	retq   
  404cb9:	90                   	nop

0000000000404cba <_ZNSt9exceptionC1ERKS_>:
  404cba:	55                   	push   %rbp
  404cbb:	48 89 e5             	mov    %rsp,%rbp
  404cbe:	48 89 7d f8          	mov    %rdi,-0x8(%rbp)
  404cc2:	48 89 75 f0          	mov    %rsi,-0x10(%rbp)
  404cc6:	ba d8 34 61 00       	mov    $0x6134d8,%edx
  404ccb:	48 8b 45 f8          	mov    -0x8(%rbp),%rax
  404ccf:	48 89 10             	mov    %rdx,(%rax)
  404cd2:	90                   	nop
  404cd3:	5d                   	pop    %rbp
  404cd4:	c3                   	retq   
  404cd5:	90                   	nop

0000000000404cd6 <_ZN2cl5ErrorC1ERKS0_>:
  404cd6:	55                   	push   %rbp
  404cd7:	48 89 e5             	mov    %rsp,%rbp
  404cda:	48 83 ec 10          	sub    $0x10,%rsp
  404cde:	48 89 7d f8          	mov    %rdi,-0x8(%rbp)
  404ce2:	48 89 75 f0          	mov    %rsi,-0x10(%rbp)
  404ce6:	48 8b 55 f0          	mov    -0x10(%rbp),%rdx
  404cea:	48 8b 45 f8          	mov    -0x8(%rbp),%rax
  404cee:	48 89 d6             	mov    %rdx,%rsi
  404cf1:	48 89 c7             	mov    %rax,%rdi
  404cf4:	e8 c1 ff ff ff       	callq  404cba <_ZNSt9exceptionC1ERKS_>
  404cf9:	ba b8 cc 40 00       	mov    $0x40ccb8,%edx
  404cfe:	48 8b 45 f8          	mov    -0x8(%rbp),%rax
  404d02:	48 89 10             	mov    %rdx,(%rax)
  404d05:	48 8b 45 f0          	mov    -0x10(%rbp),%rax
  404d09:	8b 50 08             	mov    0x8(%rax),%edx
  404d0c:	48 8b 45 f8          	mov    -0x8(%rbp),%rax
  404d10:	89 50 08             	mov    %edx,0x8(%rax)
  404d13:	48 8b 45 f0          	mov    -0x10(%rbp),%rax
  404d17:	48 8b 50 10          	mov    0x10(%rax),%rdx
  404d1b:	48 8b 45 f8          	mov    -0x8(%rbp),%rax
  404d1f:	48 89 50 10          	mov    %rdx,0x10(%rax)
  404d23:	90                   	nop
  404d24:	c9                   	leaveq 
  404d25:	c3                   	retq   

0000000000404d26 <_ZN2cl6detail16ReferenceHandlerIP13_cl_device_idE6retainES3_>:
  404d26:	55                   	push   %rbp
  404d27:	48 89 e5             	mov    %rsp,%rbp
  404d2a:	48 89 7d f8          	mov    %rdi,-0x8(%rbp)
  404d2e:	b8 00 00 00 00       	mov    $0x0,%eax
  404d33:	5d                   	pop    %rbp
  404d34:	c3                   	retq   

0000000000404d35 <_ZN2cl6detail16ReferenceHandlerIP13_cl_device_idE7releaseES3_>:
  404d35:	55                   	push   %rbp
  404d36:	48 89 e5             	mov    %rsp,%rbp
  404d39:	48 89 7d f8          	mov    %rdi,-0x8(%rbp)
  404d3d:	b8 00 00 00 00       	mov    $0x0,%eax
  404d42:	5d                   	pop    %rbp
  404d43:	c3                   	retq   

0000000000404d44 <_ZN2cl6detail16ReferenceHandlerIP15_cl_platform_idE6retainES3_>:
  404d44:	55                   	push   %rbp
  404d45:	48 89 e5             	mov    %rsp,%rbp
  404d48:	48 89 7d f8          	mov    %rdi,-0x8(%rbp)
  404d4c:	b8 00 00 00 00       	mov    $0x0,%eax
  404d51:	5d                   	pop    %rbp
  404d52:	c3                   	retq   

0000000000404d53 <_ZN2cl6detail16ReferenceHandlerIP15_cl_platform_idE7releaseES3_>:
  404d53:	55                   	push   %rbp
  404d54:	48 89 e5             	mov    %rsp,%rbp
  404d57:	48 89 7d f8          	mov    %rdi,-0x8(%rbp)
  404d5b:	b8 00 00 00 00       	mov    $0x0,%eax
  404d60:	5d                   	pop    %rbp
  404d61:	c3                   	retq   

0000000000404d62 <_ZN2cl6detail16ReferenceHandlerIP11_cl_contextE6retainES3_>:
  404d62:	55                   	push   %rbp
  404d63:	48 89 e5             	mov    %rsp,%rbp
  404d66:	48 83 ec 10          	sub    $0x10,%rsp
  404d6a:	48 89 7d f8          	mov    %rdi,-0x8(%rbp)
  404d6e:	48 8b 45 f8          	mov    -0x8(%rbp),%rax
  404d72:	48 89 c7             	mov    %rax,%rdi
  404d75:	e8 b6 f2 ff ff       	callq  404030 <clRetainContext@plt>
  404d7a:	c9                   	leaveq 
  404d7b:	c3                   	retq   

0000000000404d7c <_ZN2cl6detail16ReferenceHandlerIP11_cl_contextE7releaseES3_>:
  404d7c:	55                   	push   %rbp
  404d7d:	48 89 e5             	mov    %rsp,%rbp
  404d80:	48 83 ec 10          	sub    $0x10,%rsp
  404d84:	48 89 7d f8          	mov    %rdi,-0x8(%rbp)
  404d88:	48 8b 45 f8          	mov    -0x8(%rbp),%rax
  404d8c:	48 89 c7             	mov    %rax,%rdi
  404d8f:	e8 ec ef ff ff       	callq  403d80 <clReleaseContext@plt>
  404d94:	c9                   	leaveq 
  404d95:	c3                   	retq   

0000000000404d96 <_ZN2cl6detail16ReferenceHandlerIP17_cl_command_queueE6retainES3_>:
  404d96:	55                   	push   %rbp
  404d97:	48 89 e5             	mov    %rsp,%rbp
  404d9a:	48 83 ec 10          	sub    $0x10,%rsp
  404d9e:	48 89 7d f8          	mov    %rdi,-0x8(%rbp)
  404da2:	48 8b 45 f8          	mov    -0x8(%rbp),%rax
  404da6:	48 89 c7             	mov    %rax,%rdi
  404da9:	e8 82 ef ff ff       	callq  403d30 <clRetainCommandQueue@plt>
  404dae:	c9                   	leaveq 
  404daf:	c3                   	retq   

0000000000404db0 <_ZN2cl6detail16ReferenceHandlerIP17_cl_command_queueE7releaseES3_>:
  404db0:	55                   	push   %rbp
  404db1:	48 89 e5             	mov    %rsp,%rbp
  404db4:	48 83 ec 10          	sub    $0x10,%rsp
  404db8:	48 89 7d f8          	mov    %rdi,-0x8(%rbp)
  404dbc:	48 8b 45 f8          	mov    -0x8(%rbp),%rax
  404dc0:	48 89 c7             	mov    %rax,%rdi
  404dc3:	e8 18 f1 ff ff       	callq  403ee0 <clReleaseCommandQueue@plt>
  404dc8:	c9                   	leaveq 
  404dc9:	c3                   	retq   

0000000000404dca <_ZN2cl6detail16ReferenceHandlerIP10_cl_kernelE7releaseES3_>:
  404dca:	55                   	push   %rbp
  404dcb:	48 89 e5             	mov    %rsp,%rbp
  404dce:	48 83 ec 10          	sub    $0x10,%rsp
  404dd2:	48 89 7d f8          	mov    %rdi,-0x8(%rbp)
  404dd6:	48 8b 45 f8          	mov    -0x8(%rbp),%rax
  404dda:	48 89 c7             	mov    %rax,%rdi
  404ddd:	e8 ce f2 ff ff       	callq  4040b0 <clReleaseKernel@plt>
  404de2:	c9                   	leaveq 
  404de3:	c3                   	retq   

0000000000404de4 <_ZN2cl6detail7WrapperIP13_cl_device_idE20isReferenceCountableES3_>:
  404de4:	55                   	push   %rbp
  404de5:	48 89 e5             	mov    %rsp,%rbp
  404de8:	48 89 7d e8          	mov    %rdi,-0x18(%rbp)
  404dec:	c6 45 ff 00          	movb   $0x0,-0x1(%rbp)
  404df0:	0f b6 45 ff          	movzbl -0x1(%rbp),%eax
  404df4:	5d                   	pop    %rbp
  404df5:	c3                   	retq   

0000000000404df6 <_ZN2cl6detail7WrapperIP13_cl_device_idEC1Ev>:
  404df6:	55                   	push   %rbp
  404df7:	48 89 e5             	mov    %rsp,%rbp
  404dfa:	48 89 7d f8          	mov    %rdi,-0x8(%rbp)
  404dfe:	48 8b 45 f8          	mov    -0x8(%rbp),%rax
  404e02:	48 c7 00 00 00 00 00 	movq   $0x0,(%rax)
  404e09:	48 8b 45 f8          	mov    -0x8(%rbp),%rax
  404e0d:	c6 40 08 00          	movb   $0x0,0x8(%rax)
  404e11:	90                   	nop
  404e12:	5d                   	pop    %rbp
  404e13:	c3                   	retq   

0000000000404e14 <_ZN2cl6detail7WrapperIP13_cl_device_idEC1ERKS3_b>:
  404e14:	55                   	push   %rbp
  404e15:	48 89 e5             	mov    %rsp,%rbp
  404e18:	48 83 ec 20          	sub    $0x20,%rsp
  404e1c:	48 89 7d f8          	mov    %rdi,-0x8(%rbp)
  404e20:	48 89 75 f0          	mov    %rsi,-0x10(%rbp)
  404e24:	89 d0                	mov    %edx,%eax
  404e26:	88 45 ec             	mov    %al,-0x14(%rbp)
  404e29:	48 8b 45 f0          	mov    -0x10(%rbp),%rax
  404e2d:	48 8b 10             	mov    (%rax),%rdx
  404e30:	48 8b 45 f8          	mov    -0x8(%rbp),%rax
  404e34:	48 89 10             	mov    %rdx,(%rax)
  404e37:	48 8b 45 f8          	mov    -0x8(%rbp),%rax
  404e3b:	c6 40 08 00          	movb   $0x0,0x8(%rax)
  404e3f:	48 8b 45 f0          	mov    -0x10(%rbp),%rax
  404e43:	48 8b 00             	mov    (%rax),%rax
  404e46:	48 89 c7             	mov    %rax,%rdi
  404e49:	e8 96 ff ff ff       	callq  404de4 <_ZN2cl6detail7WrapperIP13_cl_device_idE20isReferenceCountableES3_>
  404e4e:	89 c2                	mov    %eax,%edx
  404e50:	48 8b 45 f8          	mov    -0x8(%rbp),%rax
  404e54:	88 50 08             	mov    %dl,0x8(%rax)
  404e57:	80 7d ec 00          	cmpb   $0x0,-0x14(%rbp)
  404e5b:	74 18                	je     404e75 <_ZN2cl6detail7WrapperIP13_cl_device_idEC1ERKS3_b+0x61>
  404e5d:	48 8b 45 f8          	mov    -0x8(%rbp),%rax
  404e61:	48 89 c7             	mov    %rax,%rdi
  404e64:	e8 a1 01 00 00       	callq  40500a <_ZNK2cl6detail7WrapperIP13_cl_device_idE6retainEv>
  404e69:	be 94 c6 40 00       	mov    $0x40c694,%esi
  404e6e:	89 c7                	mov    %eax,%edi
  404e70:	e8 78 f4 ff ff       	callq  4042ed <_ZN2cl6detailL10errHandlerEiPKc>
  404e75:	90                   	nop
  404e76:	c9                   	leaveq 
  404e77:	c3                   	retq   

0000000000404e78 <_ZN2cl6detail7WrapperIP13_cl_device_idED1Ev>:
  404e78:	55                   	push   %rbp
  404e79:	48 89 e5             	mov    %rsp,%rbp
  404e7c:	48 83 ec 10          	sub    $0x10,%rsp
  404e80:	48 89 7d f8          	mov    %rdi,-0x8(%rbp)
  404e84:	48 8b 45 f8          	mov    -0x8(%rbp),%rax
  404e88:	48 89 c7             	mov    %rax,%rdi
  404e8b:	e8 b6 01 00 00       	callq  405046 <_ZNK2cl6detail7WrapperIP13_cl_device_idE7releaseEv>
  404e90:	90                   	nop
  404e91:	c9                   	leaveq 
  404e92:	c3                   	retq   
  404e93:	90                   	nop

0000000000404e94 <_ZN2cl6detail7WrapperIP13_cl_device_idEC1ERKS4_>:
  404e94:	55                   	push   %rbp
  404e95:	48 89 e5             	mov    %rsp,%rbp
  404e98:	48 83 ec 10          	sub    $0x10,%rsp
  404e9c:	48 89 7d f8          	mov    %rdi,-0x8(%rbp)
  404ea0:	48 89 75 f0          	mov    %rsi,-0x10(%rbp)
  404ea4:	48 8b 45 f0          	mov    -0x10(%rbp),%rax
  404ea8:	48 8b 10             	mov    (%rax),%rdx
  404eab:	48 8b 45 f8          	mov    -0x8(%rbp),%rax
  404eaf:	48 89 10             	mov    %rdx,(%rax)
  404eb2:	48 8b 45 f8          	mov    -0x8(%rbp),%rax
  404eb6:	48 8b 00             	mov    (%rax),%rax
  404eb9:	48 89 c7             	mov    %rax,%rdi
  404ebc:	e8 23 ff ff ff       	callq  404de4 <_ZN2cl6detail7WrapperIP13_cl_device_idE20isReferenceCountableES3_>
  404ec1:	89 c2                	mov    %eax,%edx
  404ec3:	48 8b 45 f8          	mov    -0x8(%rbp),%rax
  404ec7:	88 50 08             	mov    %dl,0x8(%rax)
  404eca:	48 8b 45 f8          	mov    -0x8(%rbp),%rax
  404ece:	48 89 c7             	mov    %rax,%rdi
  404ed1:	e8 34 01 00 00       	callq  40500a <_ZNK2cl6detail7WrapperIP13_cl_device_idE6retainEv>
  404ed6:	be 94 c6 40 00       	mov    $0x40c694,%esi
  404edb:	89 c7                	mov    %eax,%edi
  404edd:	e8 0b f4 ff ff       	callq  4042ed <_ZN2cl6detailL10errHandlerEiPKc>
  404ee2:	90                   	nop
  404ee3:	c9                   	leaveq 
  404ee4:	c3                   	retq   
  404ee5:	90                   	nop

0000000000404ee6 <_ZN2cl6detail7WrapperIP13_cl_device_idEC1EOS4_>:
  404ee6:	55                   	push   %rbp
  404ee7:	48 89 e5             	mov    %rsp,%rbp
  404eea:	48 89 7d f8          	mov    %rdi,-0x8(%rbp)
  404eee:	48 89 75 f0          	mov    %rsi,-0x10(%rbp)
  404ef2:	48 8b 45 f0          	mov    -0x10(%rbp),%rax
  404ef6:	48 8b 10             	mov    (%rax),%rdx
  404ef9:	48 8b 45 f8          	mov    -0x8(%rbp),%rax
  404efd:	48 89 10             	mov    %rdx,(%rax)
  404f00:	48 8b 45 f0          	mov    -0x10(%rbp),%rax
  404f04:	0f b6 50 08          	movzbl 0x8(%rax),%edx
  404f08:	48 8b 45 f8          	mov    -0x8(%rbp),%rax
  404f0c:	88 50 08             	mov    %dl,0x8(%rax)
  404f0f:	48 8b 45 f0          	mov    -0x10(%rbp),%rax
  404f13:	48 c7 00 00 00 00 00 	movq   $0x0,(%rax)
  404f1a:	48 8b 45 f0          	mov    -0x10(%rbp),%rax
  404f1e:	c6 40 08 00          	movb   $0x0,0x8(%rax)
  404f22:	90                   	nop
  404f23:	5d                   	pop    %rbp
  404f24:	c3                   	retq   
  404f25:	90                   	nop

0000000000404f26 <_ZN2cl6detail7WrapperIP13_cl_device_idEaSERKS4_>:
  404f26:	55                   	push   %rbp
  404f27:	48 89 e5             	mov    %rsp,%rbp
  404f2a:	48 83 ec 10          	sub    $0x10,%rsp
  404f2e:	48 89 7d f8          	mov    %rdi,-0x8(%rbp)
  404f32:	48 89 75 f0          	mov    %rsi,-0x10(%rbp)
  404f36:	48 8b 45 f8          	mov    -0x8(%rbp),%rax
  404f3a:	48 3b 45 f0          	cmp    -0x10(%rbp),%rax
  404f3e:	74 4d                	je     404f8d <_ZN2cl6detail7WrapperIP13_cl_device_idEaSERKS4_+0x67>
  404f40:	48 8b 45 f8          	mov    -0x8(%rbp),%rax
  404f44:	48 89 c7             	mov    %rax,%rdi
  404f47:	e8 fa 00 00 00       	callq  405046 <_ZNK2cl6detail7WrapperIP13_cl_device_idE7releaseEv>
  404f4c:	be a2 c6 40 00       	mov    $0x40c6a2,%esi
  404f51:	89 c7                	mov    %eax,%edi
  404f53:	e8 95 f3 ff ff       	callq  4042ed <_ZN2cl6detailL10errHandlerEiPKc>
  404f58:	48 8b 45 f0          	mov    -0x10(%rbp),%rax
  404f5c:	48 8b 10             	mov    (%rax),%rdx
  404f5f:	48 8b 45 f8          	mov    -0x8(%rbp),%rax
  404f63:	48 89 10             	mov    %rdx,(%rax)
  404f66:	48 8b 45 f0          	mov    -0x10(%rbp),%rax
  404f6a:	0f b6 50 08          	movzbl 0x8(%rax),%edx
  404f6e:	48 8b 45 f8          	mov    -0x8(%rbp),%rax
  404f72:	88 50 08             	mov    %dl,0x8(%rax)
  404f75:	48 8b 45 f8          	mov    -0x8(%rbp),%rax
  404f79:	48 89 c7             	mov    %rax,%rdi
  404f7c:	e8 89 00 00 00       	callq  40500a <_ZNK2cl6detail7WrapperIP13_cl_device_idE6retainEv>
  404f81:	be 94 c6 40 00       	mov    $0x40c694,%esi
  404f86:	89 c7                	mov    %eax,%edi
  404f88:	e8 60 f3 ff ff       	callq  4042ed <_ZN2cl6detailL10errHandlerEiPKc>
  404f8d:	48 8b 45 f8          	mov    -0x8(%rbp),%rax
  404f91:	c9                   	leaveq 
  404f92:	c3                   	retq   
  404f93:	90                   	nop

0000000000404f94 <_ZN2cl6detail7WrapperIP13_cl_device_idEaSEOS4_>:
  404f94:	55                   	push   %rbp
  404f95:	48 89 e5             	mov    %rsp,%rbp
  404f98:	48 83 ec 10          	sub    $0x10,%rsp
  404f9c:	48 89 7d f8          	mov    %rdi,-0x8(%rbp)
  404fa0:	48 89 75 f0          	mov    %rsi,-0x10(%rbp)
  404fa4:	48 8b 45 f8          	mov    -0x8(%rbp),%rax
  404fa8:	48 3b 45 f0          	cmp    -0x10(%rbp),%rax
  404fac:	74 48                	je     404ff6 <_ZN2cl6detail7WrapperIP13_cl_device_idEaSEOS4_+0x62>
  404fae:	48 8b 45 f8          	mov    -0x8(%rbp),%rax
  404fb2:	48 89 c7             	mov    %rax,%rdi
  404fb5:	e8 8c 00 00 00       	callq  405046 <_ZNK2cl6detail7WrapperIP13_cl_device_idE7releaseEv>
  404fba:	be a2 c6 40 00       	mov    $0x40c6a2,%esi
  404fbf:	89 c7                	mov    %eax,%edi
  404fc1:	e8 27 f3 ff ff       	callq  4042ed <_ZN2cl6detailL10errHandlerEiPKc>
  404fc6:	48 8b 45 f0          	mov    -0x10(%rbp),%rax
  404fca:	48 8b 10             	mov    (%rax),%rdx
  404fcd:	48 8b 45 f8          	mov    -0x8(%rbp),%rax
  404fd1:	48 89 10             	mov    %rdx,(%rax)
  404fd4:	48 8b 45 f0          	mov    -0x10(%rbp),%rax
  404fd8:	0f b6 50 08          	movzbl 0x8(%rax),%edx
  404fdc:	48 8b 45 f8          	mov    -0x8(%rbp),%rax
  404fe0:	88 50 08             	mov    %dl,0x8(%rax)
  404fe3:	48 8b 45 f0          	mov    -0x10(%rbp),%rax
  404fe7:	48 c7 00 00 00 00 00 	movq   $0x0,(%rax)
  404fee:	48 8b 45 f0          	mov    -0x10(%rbp),%rax
  404ff2:	c6 40 08 00          	movb   $0x0,0x8(%rax)
  404ff6:	48 8b 45 f8          	mov    -0x8(%rbp),%rax
  404ffa:	c9                   	leaveq 
  404ffb:	c3                   	retq   

0000000000404ffc <_ZNK2cl6detail7WrapperIP13_cl_device_idEclEv>:
  404ffc:	55                   	push   %rbp
  404ffd:	48 89 e5             	mov    %rsp,%rbp
  405000:	48 89 7d f8          	mov    %rdi,-0x8(%rbp)
  405004:	48 8b 45 f8          	mov    -0x8(%rbp),%rax
  405008:	5d                   	pop    %rbp
  405009:	c3                   	retq   

000000000040500a <_ZNK2cl6detail7WrapperIP13_cl_device_idE6retainEv>:
  40500a:	55                   	push   %rbp
  40500b:	48 89 e5             	mov    %rsp,%rbp
  40500e:	48 83 ec 10          	sub    $0x10,%rsp
  405012:	48 89 7d f8          	mov    %rdi,-0x8(%rbp)
  405016:	48 8b 45 f8          	mov    -0x8(%rbp),%rax
  40501a:	48 8b 00             	mov    (%rax),%rax
  40501d:	48 85 c0             	test   %rax,%rax
  405020:	74 1d                	je     40503f <_ZNK2cl6detail7WrapperIP13_cl_device_idE6retainEv+0x35>
  405022:	48 8b 45 f8          	mov    -0x8(%rbp),%rax
  405026:	0f b6 40 08          	movzbl 0x8(%rax),%eax
  40502a:	84 c0                	test   %al,%al
  40502c:	74 11                	je     40503f <_ZNK2cl6detail7WrapperIP13_cl_device_idE6retainEv+0x35>
  40502e:	48 8b 45 f8          	mov    -0x8(%rbp),%rax
  405032:	48 8b 00             	mov    (%rax),%rax
  405035:	48 89 c7             	mov    %rax,%rdi
  405038:	e8 e9 fc ff ff       	callq  404d26 <_ZN2cl6detail16ReferenceHandlerIP13_cl_device_idE6retainES3_>
  40503d:	eb 05                	jmp    405044 <_ZNK2cl6detail7WrapperIP13_cl_device_idE6retainEv+0x3a>
  40503f:	b8 00 00 00 00       	mov    $0x0,%eax
  405044:	c9                   	leaveq 
  405045:	c3                   	retq   

0000000000405046 <_ZNK2cl6detail7WrapperIP13_cl_device_idE7releaseEv>:
  405046:	55                   	push   %rbp
  405047:	48 89 e5             	mov    %rsp,%rbp
  40504a:	48 83 ec 10          	sub    $0x10,%rsp
  40504e:	48 89 7d f8          	mov    %rdi,-0x8(%rbp)
  405052:	48 8b 45 f8          	mov    -0x8(%rbp),%rax
  405056:	48 8b 00             	mov    (%rax),%rax
  405059:	48 85 c0             	test   %rax,%rax
  40505c:	74 1d                	je     40507b <_ZNK2cl6detail7WrapperIP13_cl_device_idE7releaseEv+0x35>
  40505e:	48 8b 45 f8          	mov    -0x8(%rbp),%rax
  405062:	0f b6 40 08          	movzbl 0x8(%rax),%eax
  405066:	84 c0                	test   %al,%al
  405068:	74 11                	je     40507b <_ZNK2cl6detail7WrapperIP13_cl_device_idE7releaseEv+0x35>
  40506a:	48 8b 45 f8          	mov    -0x8(%rbp),%rax
  40506e:	48 8b 00             	mov    (%rax),%rax
  405071:	48 89 c7             	mov    %rax,%rdi
  405074:	e8 bc fc ff ff       	callq  404d35 <_ZN2cl6detail16ReferenceHandlerIP13_cl_device_idE7releaseES3_>
  405079:	eb 05                	jmp    405080 <_ZNK2cl6detail7WrapperIP13_cl_device_idE7releaseEv+0x3a>
  40507b:	b8 00 00 00 00       	mov    $0x0,%eax
  405080:	c9                   	leaveq 
  405081:	c3                   	retq   

0000000000405082 <_ZN2cl6DeviceC1Ev>:
  405082:	55                   	push   %rbp
  405083:	48 89 e5             	mov    %rsp,%rbp
  405086:	48 83 ec 10          	sub    $0x10,%rsp
  40508a:	48 89 7d f8          	mov    %rdi,-0x8(%rbp)
  40508e:	48 8b 45 f8          	mov    -0x8(%rbp),%rax
  405092:	48 89 c7             	mov    %rax,%rdi
  405095:	e8 5c fd ff ff       	callq  404df6 <_ZN2cl6detail7WrapperIP13_cl_device_idEC1Ev>
  40509a:	90                   	nop
  40509b:	c9                   	leaveq 
  40509c:	c3                   	retq   
  40509d:	90                   	nop

000000000040509e <_ZN2cl6DeviceC1ERKP13_cl_device_idb>:
  40509e:	55                   	push   %rbp
  40509f:	48 89 e5             	mov    %rsp,%rbp
  4050a2:	48 83 ec 20          	sub    $0x20,%rsp
  4050a6:	48 89 7d f8          	mov    %rdi,-0x8(%rbp)
  4050aa:	48 89 75 f0          	mov    %rsi,-0x10(%rbp)
  4050ae:	89 d0                	mov    %edx,%eax
  4050b0:	88 45 ec             	mov    %al,-0x14(%rbp)
  4050b3:	0f b6 55 ec          	movzbl -0x14(%rbp),%edx
  4050b7:	48 8b 45 f8          	mov    -0x8(%rbp),%rax
  4050bb:	48 8b 4d f0          	mov    -0x10(%rbp),%rcx
  4050bf:	48 89 ce             	mov    %rcx,%rsi
  4050c2:	48 89 c7             	mov    %rax,%rdi
  4050c5:	e8 4a fd ff ff       	callq  404e14 <_ZN2cl6detail7WrapperIP13_cl_device_idEC1ERKS3_b>
  4050ca:	90                   	nop
  4050cb:	c9                   	leaveq 
  4050cc:	c3                   	retq   
  4050cd:	90                   	nop

00000000004050ce <_ZN2cl6DeviceD1Ev>:
  4050ce:	55                   	push   %rbp
  4050cf:	48 89 e5             	mov    %rsp,%rbp
  4050d2:	48 83 ec 10          	sub    $0x10,%rsp
  4050d6:	48 89 7d f8          	mov    %rdi,-0x8(%rbp)
  4050da:	48 8b 45 f8          	mov    -0x8(%rbp),%rax
  4050de:	48 89 c7             	mov    %rax,%rdi
  4050e1:	e8 92 fd ff ff       	callq  404e78 <_ZN2cl6detail7WrapperIP13_cl_device_idED1Ev>
  4050e6:	90                   	nop
  4050e7:	c9                   	leaveq 
  4050e8:	c3                   	retq   

00000000004050e9 <_ZN2cl6Device10getDefaultEPi>:
  4050e9:	55                   	push   %rbp
  4050ea:	48 89 e5             	mov    %rsp,%rbp
  4050ed:	48 83 ec 10          	sub    $0x10,%rsp
  4050f1:	48 89 7d f8          	mov    %rdi,-0x8(%rbp)
  4050f5:	48 89 75 f0          	mov    %rsi,-0x10(%rbp)
  4050f9:	be f0 5e 40 00       	mov    $0x405ef0,%esi
  4050fe:	bf e0 36 61 00       	mov    $0x6136e0,%edi
  405103:	e8 3d 24 00 00       	callq  407545 <_ZSt9call_onceIRFvvEIEEvRSt9once_flagOT_DpOT0_>
  405108:	8b 05 f2 e5 20 00    	mov    0x20e5f2(%rip),%eax        # 613700 <_ZN2cl6Device14default_error_E>
  40510e:	be 00 00 00 00       	mov    $0x0,%esi
  405113:	89 c7                	mov    %eax,%edi
  405115:	e8 d3 f1 ff ff       	callq  4042ed <_ZN2cl6detailL10errHandlerEiPKc>
  40511a:	48 83 7d f0 00       	cmpq   $0x0,-0x10(%rbp)
  40511f:	74 0c                	je     40512d <_ZN2cl6Device10getDefaultEPi+0x44>
  405121:	8b 15 d9 e5 20 00    	mov    0x20e5d9(%rip),%edx        # 613700 <_ZN2cl6Device14default_error_E>
  405127:	48 8b 45 f0          	mov    -0x10(%rbp),%rax
  40512b:	89 10                	mov    %edx,(%rax)
  40512d:	48 8b 45 f8          	mov    -0x8(%rbp),%rax
  405131:	be f0 36 61 00       	mov    $0x6136f0,%esi
  405136:	48 89 c7             	mov    %rax,%rdi
  405139:	e8 06 00 00 00       	callq  405144 <_ZN2cl6DeviceC1ERKS0_>
  40513e:	48 8b 45 f8          	mov    -0x8(%rbp),%rax
  405142:	c9                   	leaveq 
  405143:	c3                   	retq   

0000000000405144 <_ZN2cl6DeviceC1ERKS0_>:
  405144:	55                   	push   %rbp
  405145:	48 89 e5             	mov    %rsp,%rbp
  405148:	48 83 ec 10          	sub    $0x10,%rsp
  40514c:	48 89 7d f8          	mov    %rdi,-0x8(%rbp)
  405150:	48 89 75 f0          	mov    %rsi,-0x10(%rbp)
  405154:	48 8b 55 f0          	mov    -0x10(%rbp),%rdx
  405158:	48 8b 45 f8          	mov    -0x8(%rbp),%rax
  40515c:	48 89 d6             	mov    %rdx,%rsi
  40515f:	48 89 c7             	mov    %rax,%rdi
  405162:	e8 2d fd ff ff       	callq  404e94 <_ZN2cl6detail7WrapperIP13_cl_device_idEC1ERKS4_>
  405167:	90                   	nop
  405168:	c9                   	leaveq 
  405169:	c3                   	retq   

000000000040516a <_ZN2cl6DeviceaSERKS0_>:
  40516a:	55                   	push   %rbp
  40516b:	48 89 e5             	mov    %rsp,%rbp
  40516e:	48 83 ec 10          	sub    $0x10,%rsp
  405172:	48 89 7d f8          	mov    %rdi,-0x8(%rbp)
  405176:	48 89 75 f0          	mov    %rsi,-0x10(%rbp)
  40517a:	48 8b 55 f0          	mov    -0x10(%rbp),%rdx
  40517e:	48 8b 45 f8          	mov    -0x8(%rbp),%rax
  405182:	48 89 d6             	mov    %rdx,%rsi
  405185:	48 89 c7             	mov    %rax,%rdi
  405188:	e8 99 fd ff ff       	callq  404f26 <_ZN2cl6detail7WrapperIP13_cl_device_idEaSERKS4_>
  40518d:	48 8b 45 f8          	mov    -0x8(%rbp),%rax
  405191:	c9                   	leaveq 
  405192:	c3                   	retq   

0000000000405193 <_ZSt4moveIRN2cl6DeviceEEONSt16remove_referenceIT_E4typeEOS4_>:
  405193:	55                   	push   %rbp
  405194:	48 89 e5             	mov    %rsp,%rbp
  405197:	48 89 7d f8          	mov    %rdi,-0x8(%rbp)
  40519b:	48 8b 45 f8          	mov    -0x8(%rbp),%rax
  40519f:	5d                   	pop    %rbp
  4051a0:	c3                   	retq   
  4051a1:	90                   	nop

00000000004051a2 <_ZN2cl6DeviceC1EOS0_>:
  4051a2:	55                   	push   %rbp
  4051a3:	48 89 e5             	mov    %rsp,%rbp
  4051a6:	48 83 ec 10          	sub    $0x10,%rsp
  4051aa:	48 89 7d f8          	mov    %rdi,-0x8(%rbp)
  4051ae:	48 89 75 f0          	mov    %rsi,-0x10(%rbp)
  4051b2:	48 8b 45 f0          	mov    -0x10(%rbp),%rax
  4051b6:	48 89 c7             	mov    %rax,%rdi
  4051b9:	e8 d5 ff ff ff       	callq  405193 <_ZSt4moveIRN2cl6DeviceEEONSt16remove_referenceIT_E4typeEOS4_>
  4051be:	48 89 c2             	mov    %rax,%rdx
  4051c1:	48 8b 45 f8          	mov    -0x8(%rbp),%rax
  4051c5:	48 89 d6             	mov    %rdx,%rsi
  4051c8:	48 89 c7             	mov    %rax,%rdi
  4051cb:	e8 16 fd ff ff       	callq  404ee6 <_ZN2cl6detail7WrapperIP13_cl_device_idEC1EOS4_>
  4051d0:	90                   	nop
  4051d1:	c9                   	leaveq 
  4051d2:	c3                   	retq   
  4051d3:	90                   	nop

00000000004051d4 <_ZN2cl6DeviceaSEOS0_>:
  4051d4:	55                   	push   %rbp
  4051d5:	48 89 e5             	mov    %rsp,%rbp
  4051d8:	48 83 ec 10          	sub    $0x10,%rsp
  4051dc:	48 89 7d f8          	mov    %rdi,-0x8(%rbp)
  4051e0:	48 89 75 f0          	mov    %rsi,-0x10(%rbp)
  4051e4:	48 8b 45 f0          	mov    -0x10(%rbp),%rax
  4051e8:	48 89 c7             	mov    %rax,%rdi
  4051eb:	e8 a3 ff ff ff       	callq  405193 <_ZSt4moveIRN2cl6DeviceEEONSt16remove_referenceIT_E4typeEOS4_>
  4051f0:	48 89 c2             	mov    %rax,%rdx
  4051f3:	48 8b 45 f8          	mov    -0x8(%rbp),%rax
  4051f7:	48 89 d6             	mov    %rdx,%rsi
  4051fa:	48 89 c7             	mov    %rax,%rdi
  4051fd:	e8 92 fd ff ff       	callq  404f94 <_ZN2cl6detail7WrapperIP13_cl_device_idEaSEOS4_>
  405202:	48 8b 45 f8          	mov    -0x8(%rbp),%rax
  405206:	c9                   	leaveq 
  405207:	c3                   	retq   

0000000000405208 <_ZN2cl8PlatformD1Ev>:
  405208:	55                   	push   %rbp
  405209:	48 89 e5             	mov    %rsp,%rbp
  40520c:	48 83 ec 10          	sub    $0x10,%rsp
  405210:	48 89 7d f8          	mov    %rdi,-0x8(%rbp)
  405214:	48 8b 45 f8          	mov    -0x8(%rbp),%rax
  405218:	48 89 c7             	mov    %rax,%rdi
  40521b:	e8 e8 24 00 00       	callq  407708 <_ZN2cl6detail7WrapperIP15_cl_platform_idED1Ev>
  405220:	90                   	nop
  405221:	c9                   	leaveq 
  405222:	c3                   	retq   
  405223:	90                   	nop

0000000000405224 <_ZN2cl8PlatformaSEOS0_>:
  405224:	55                   	push   %rbp
  405225:	48 89 e5             	mov    %rsp,%rbp
  405228:	48 83 ec 10          	sub    $0x10,%rsp
  40522c:	48 89 7d f8          	mov    %rdi,-0x8(%rbp)
  405230:	48 89 75 f0          	mov    %rsi,-0x10(%rbp)
  405234:	48 8b 55 f0          	mov    -0x10(%rbp),%rdx
  405238:	48 8b 45 f8          	mov    -0x8(%rbp),%rax
  40523c:	48 89 d6             	mov    %rdx,%rsi
  40523f:	48 89 c7             	mov    %rax,%rdi
  405242:	e8 e9 24 00 00       	callq  407730 <_ZN2cl6detail7WrapperIP15_cl_platform_idEaSEOS4_>
  405247:	48 8b 45 f8          	mov    -0x8(%rbp),%rax
  40524b:	c9                   	leaveq 
  40524c:	c3                   	retq   

000000000040524d <_ZN2cl8Platform11makeDefaultEv>:
  40524d:	55                   	push   %rbp
  40524e:	48 89 e5             	mov    %rsp,%rbp
  405251:	41 54                	push   %r12
  405253:	53                   	push   %rbx
  405254:	48 83 ec 40          	sub    $0x40,%rsp
  405258:	64 48 8b 04 25 28 00 	mov    %fs:0x28,%rax
  40525f:	00 00 
  405261:	48 89 45 e8          	mov    %rax,-0x18(%rbp)
  405265:	31 c0                	xor    %eax,%eax
  405267:	c7 45 b8 00 00 00 00 	movl   $0x0,-0x48(%rbp)
  40526e:	48 8d 45 b8          	lea    -0x48(%rbp),%rax
  405272:	48 89 c2             	mov    %rax,%rdx
  405275:	be 00 00 00 00       	mov    $0x0,%esi
  40527a:	bf 00 00 00 00       	mov    $0x0,%edi
  40527f:	e8 3c eb ff ff       	callq  403dc0 <clGetPlatformIDs@plt>
  405284:	89 45 bc             	mov    %eax,-0x44(%rbp)
  405287:	83 7d bc 00          	cmpl   $0x0,-0x44(%rbp)
  40528b:	74 0e                	je     40529b <_ZN2cl8Platform11makeDefaultEv+0x4e>
  40528d:	8b 45 bc             	mov    -0x44(%rbp),%eax
  405290:	89 05 7a e4 20 00    	mov    %eax,0x20e47a(%rip)        # 613710 <_ZN2cl8Platform14default_error_E>
  405296:	e9 54 01 00 00       	jmpq   4053ef <_ZN2cl8Platform11makeDefaultEv+0x1a2>
  40529b:	8b 45 b8             	mov    -0x48(%rbp),%eax
  40529e:	85 c0                	test   %eax,%eax
  4052a0:	75 0f                	jne    4052b1 <_ZN2cl8Platform11makeDefaultEv+0x64>
  4052a2:	c7 05 64 e4 20 00 e0 	movl   $0xffffffe0,0x20e464(%rip)        # 613710 <_ZN2cl8Platform14default_error_E>
  4052a9:	ff ff ff 
  4052ac:	e9 3e 01 00 00       	jmpq   4053ef <_ZN2cl8Platform11makeDefaultEv+0x1a2>
  4052b1:	48 8d 45 c0          	lea    -0x40(%rbp),%rax
  4052b5:	48 89 c7             	mov    %rax,%rdi
  4052b8:	e8 29 23 00 00       	callq  4075e6 <_ZNSaIP15_cl_platform_idEC1Ev>
  4052bd:	8b 45 b8             	mov    -0x48(%rbp),%eax
  4052c0:	89 c1                	mov    %eax,%ecx
  4052c2:	48 8d 55 c0          	lea    -0x40(%rbp),%rdx
  4052c6:	48 8d 45 d0          	lea    -0x30(%rbp),%rax
  4052ca:	48 89 ce             	mov    %rcx,%rsi
  4052cd:	48 89 c7             	mov    %rax,%rdi
  4052d0:	e8 49 23 00 00       	callq  40761e <_ZNSt6vectorIP15_cl_platform_idSaIS1_EEC1EmRKS2_>
  4052d5:	48 8d 45 c0          	lea    -0x40(%rbp),%rax
  4052d9:	48 89 c7             	mov    %rax,%rdi
  4052dc:	e8 21 23 00 00       	callq  407602 <_ZNSaIP15_cl_platform_idED1Ev>
  4052e1:	48 8d 45 d0          	lea    -0x30(%rbp),%rax
  4052e5:	48 89 c7             	mov    %rax,%rdi
  4052e8:	e8 d7 23 00 00       	callq  4076c4 <_ZNSt6vectorIP15_cl_platform_idSaIS1_EE4dataEv>
  4052ed:	48 89 c1             	mov    %rax,%rcx
  4052f0:	8b 45 b8             	mov    -0x48(%rbp),%eax
  4052f3:	ba 00 00 00 00       	mov    $0x0,%edx
  4052f8:	48 89 ce             	mov    %rcx,%rsi
  4052fb:	89 c7                	mov    %eax,%edi
  4052fd:	e8 be ea ff ff       	callq  403dc0 <clGetPlatformIDs@plt>
  405302:	89 45 bc             	mov    %eax,-0x44(%rbp)
  405305:	83 7d bc 00          	cmpl   $0x0,-0x44(%rbp)
  405309:	74 10                	je     40531b <_ZN2cl8Platform11makeDefaultEv+0xce>
  40530b:	8b 45 bc             	mov    -0x44(%rbp),%eax
  40530e:	89 05 fc e3 20 00    	mov    %eax,0x20e3fc(%rip)        # 613710 <_ZN2cl8Platform14default_error_E>
  405314:	bb 00 00 00 00       	mov    $0x0,%ebx
  405319:	eb 4a                	jmp    405365 <_ZN2cl8Platform11makeDefaultEv+0x118>
  40531b:	48 8d 45 d0          	lea    -0x30(%rbp),%rax
  40531f:	be 00 00 00 00       	mov    $0x0,%esi
  405324:	48 89 c7             	mov    %rax,%rdi
  405327:	e8 bc 23 00 00       	callq  4076e8 <_ZNSt6vectorIP15_cl_platform_idSaIS1_EEixEm>
  40532c:	48 89 c1             	mov    %rax,%rcx
  40532f:	48 8d 45 c0          	lea    -0x40(%rbp),%rax
  405333:	ba 00 00 00 00       	mov    $0x0,%edx
  405338:	48 89 ce             	mov    %rcx,%rsi
  40533b:	48 89 c7             	mov    %rax,%rdi
  40533e:	e8 e5 00 00 00       	callq  405428 <_ZN2cl8PlatformC1ERKP15_cl_platform_idb>
  405343:	48 8d 45 c0          	lea    -0x40(%rbp),%rax
  405347:	48 89 c6             	mov    %rax,%rsi
  40534a:	bf 08 37 61 00       	mov    $0x613708,%edi
  40534f:	e8 d0 fe ff ff       	callq  405224 <_ZN2cl8PlatformaSEOS0_>
  405354:	48 8d 45 c0          	lea    -0x40(%rbp),%rax
  405358:	48 89 c7             	mov    %rax,%rdi
  40535b:	e8 a8 fe ff ff       	callq  405208 <_ZN2cl8PlatformD1Ev>
  405360:	bb 01 00 00 00       	mov    $0x1,%ebx
  405365:	48 8d 45 d0          	lea    -0x30(%rbp),%rax
  405369:	48 89 c7             	mov    %rax,%rdi
  40536c:	e8 0f 23 00 00       	callq  407680 <_ZNSt6vectorIP15_cl_platform_idSaIS1_EED1Ev>
  405371:	83 fb 01             	cmp    $0x1,%ebx
  405374:	eb 79                	jmp    4053ef <_ZN2cl8Platform11makeDefaultEv+0x1a2>
  405376:	49 89 c4             	mov    %rax,%r12
  405379:	48 89 d3             	mov    %rdx,%rbx
  40537c:	48 8d 45 c0          	lea    -0x40(%rbp),%rax
  405380:	48 89 c7             	mov    %rax,%rdi
  405383:	e8 7a 22 00 00       	callq  407602 <_ZNSaIP15_cl_platform_idED1Ev>
  405388:	4c 89 e0             	mov    %r12,%rax
  40538b:	48 89 da             	mov    %rbx,%rdx
  40538e:	eb 2e                	jmp    4053be <_ZN2cl8Platform11makeDefaultEv+0x171>
  405390:	49 89 c4             	mov    %rax,%r12
  405393:	48 89 d3             	mov    %rdx,%rbx
  405396:	48 8d 45 c0          	lea    -0x40(%rbp),%rax
  40539a:	48 89 c7             	mov    %rax,%rdi
  40539d:	e8 66 fe ff ff       	callq  405208 <_ZN2cl8PlatformD1Ev>
  4053a2:	eb 06                	jmp    4053aa <_ZN2cl8Platform11makeDefaultEv+0x15d>
  4053a4:	49 89 c4             	mov    %rax,%r12
  4053a7:	48 89 d3             	mov    %rdx,%rbx
  4053aa:	48 8d 45 d0          	lea    -0x30(%rbp),%rax
  4053ae:	48 89 c7             	mov    %rax,%rdi
  4053b1:	e8 ca 22 00 00       	callq  407680 <_ZNSt6vectorIP15_cl_platform_idSaIS1_EED1Ev>
  4053b6:	4c 89 e0             	mov    %r12,%rax
  4053b9:	48 89 da             	mov    %rbx,%rdx
  4053bc:	eb 00                	jmp    4053be <_ZN2cl8Platform11makeDefaultEv+0x171>
  4053be:	48 83 fa 01          	cmp    $0x1,%rdx
  4053c2:	74 08                	je     4053cc <_ZN2cl8Platform11makeDefaultEv+0x17f>
  4053c4:	48 89 c7             	mov    %rax,%rdi
  4053c7:	e8 a4 ec ff ff       	callq  404070 <_Unwind_Resume@plt>
  4053cc:	48 89 c7             	mov    %rax,%rdi
  4053cf:	e8 2c e9 ff ff       	callq  403d00 <__cxa_begin_catch@plt>
  4053d4:	48 89 45 c8          	mov    %rax,-0x38(%rbp)
  4053d8:	48 8b 45 c8          	mov    -0x38(%rbp),%rax
  4053dc:	48 89 c7             	mov    %rax,%rdi
  4053df:	e8 c4 f8 ff ff       	callq  404ca8 <_ZNK2cl5Error3errEv>
  4053e4:	89 05 26 e3 20 00    	mov    %eax,0x20e326(%rip)        # 613710 <_ZN2cl8Platform14default_error_E>
  4053ea:	e8 d1 eb ff ff       	callq  403fc0 <__cxa_end_catch@plt>
  4053ef:	48 8b 45 e8          	mov    -0x18(%rbp),%rax
  4053f3:	64 48 33 04 25 28 00 	xor    %fs:0x28,%rax
  4053fa:	00 00 
  4053fc:	74 05                	je     405403 <_ZN2cl8Platform11makeDefaultEv+0x1b6>
  4053fe:	e8 4d ea ff ff       	callq  403e50 <__stack_chk_fail@plt>
  405403:	48 83 c4 40          	add    $0x40,%rsp
  405407:	5b                   	pop    %rbx
  405408:	41 5c                	pop    %r12
  40540a:	5d                   	pop    %rbp
  40540b:	c3                   	retq   

000000000040540c <_ZN2cl8PlatformC1Ev>:
  40540c:	55                   	push   %rbp
  40540d:	48 89 e5             	mov    %rsp,%rbp
  405410:	48 83 ec 10          	sub    $0x10,%rsp
  405414:	48 89 7d f8          	mov    %rdi,-0x8(%rbp)
  405418:	48 8b 45 f8          	mov    -0x8(%rbp),%rax
  40541c:	48 89 c7             	mov    %rax,%rdi
  40541f:	e8 5e 23 00 00       	callq  407782 <_ZN2cl6detail7WrapperIP15_cl_platform_idEC1Ev>
  405424:	90                   	nop
  405425:	c9                   	leaveq 
  405426:	c3                   	retq   
  405427:	90                   	nop

0000000000405428 <_ZN2cl8PlatformC1ERKP15_cl_platform_idb>:
  405428:	55                   	push   %rbp
  405429:	48 89 e5             	mov    %rsp,%rbp
  40542c:	48 83 ec 20          	sub    $0x20,%rsp
  405430:	48 89 7d f8          	mov    %rdi,-0x8(%rbp)
  405434:	48 89 75 f0          	mov    %rsi,-0x10(%rbp)
  405438:	89 d0                	mov    %edx,%eax
  40543a:	88 45 ec             	mov    %al,-0x14(%rbp)
  40543d:	0f b6 55 ec          	movzbl -0x14(%rbp),%edx
  405441:	48 8b 45 f8          	mov    -0x8(%rbp),%rax
  405445:	48 8b 4d f0          	mov    -0x10(%rbp),%rcx
  405449:	48 89 ce             	mov    %rcx,%rsi
  40544c:	48 89 c7             	mov    %rax,%rdi
  40544f:	e8 44 23 00 00       	callq  407798 <_ZN2cl6detail7WrapperIP15_cl_platform_idEC1ERKS3_b>
  405454:	90                   	nop
  405455:	c9                   	leaveq 
  405456:	c3                   	retq   
  405457:	90                   	nop

0000000000405458 <_ZN2cl8PlatformC1ERKS0_>:
  405458:	55                   	push   %rbp
  405459:	48 89 e5             	mov    %rsp,%rbp
  40545c:	48 83 ec 10          	sub    $0x10,%rsp
  405460:	48 89 7d f8          	mov    %rdi,-0x8(%rbp)
  405464:	48 89 75 f0          	mov    %rsi,-0x10(%rbp)
  405468:	48 8b 55 f0          	mov    -0x10(%rbp),%rdx
  40546c:	48 8b 45 f8          	mov    -0x8(%rbp),%rax
  405470:	48 89 d6             	mov    %rdx,%rsi
  405473:	48 89 c7             	mov    %rax,%rdi
  405476:	e8 61 23 00 00       	callq  4077dc <_ZN2cl6detail7WrapperIP15_cl_platform_idEC1ERKS4_>
  40547b:	90                   	nop
  40547c:	c9                   	leaveq 
  40547d:	c3                   	retq   

000000000040547e <_ZN2cl8Platform10getDefaultEPi>:
  40547e:	55                   	push   %rbp
  40547f:	48 89 e5             	mov    %rsp,%rbp
  405482:	48 83 ec 10          	sub    $0x10,%rsp
  405486:	48 89 7d f8          	mov    %rdi,-0x8(%rbp)
  40548a:	48 89 75 f0          	mov    %rsi,-0x10(%rbp)
  40548e:	be 4d 52 40 00       	mov    $0x40524d,%esi
  405493:	bf 04 37 61 00       	mov    $0x613704,%edi
  405498:	e8 a8 20 00 00       	callq  407545 <_ZSt9call_onceIRFvvEIEEvRSt9once_flagOT_DpOT0_>
  40549d:	8b 05 6d e2 20 00    	mov    0x20e26d(%rip),%eax        # 613710 <_ZN2cl8Platform14default_error_E>
  4054a3:	be 00 00 00 00       	mov    $0x0,%esi
  4054a8:	89 c7                	mov    %eax,%edi
  4054aa:	e8 3e ee ff ff       	callq  4042ed <_ZN2cl6detailL10errHandlerEiPKc>
  4054af:	48 83 7d f0 00       	cmpq   $0x0,-0x10(%rbp)
  4054b4:	74 0c                	je     4054c2 <_ZN2cl8Platform10getDefaultEPi+0x44>
  4054b6:	8b 15 54 e2 20 00    	mov    0x20e254(%rip),%edx        # 613710 <_ZN2cl8Platform14default_error_E>
  4054bc:	48 8b 45 f0          	mov    -0x10(%rbp),%rax
  4054c0:	89 10                	mov    %edx,(%rax)
  4054c2:	48 8b 45 f8          	mov    -0x8(%rbp),%rax
  4054c6:	be 08 37 61 00       	mov    $0x613708,%esi
  4054cb:	48 89 c7             	mov    %rax,%rdi
  4054ce:	e8 85 ff ff ff       	callq  405458 <_ZN2cl8PlatformC1ERKS0_>
  4054d3:	48 8b 45 f8          	mov    -0x8(%rbp),%rax
  4054d7:	c9                   	leaveq 
  4054d8:	c3                   	retq   
  4054d9:	90                   	nop

00000000004054da <_ZNK2cl8Platform10getDevicesEmPSt6vectorINS_6DeviceESaIS2_EE>:
  4054da:	55                   	push   %rbp
  4054db:	48 89 e5             	mov    %rsp,%rbp
  4054de:	53                   	push   %rbx
  4054df:	48 83 ec 68          	sub    $0x68,%rsp
  4054e3:	48 89 7d a8          	mov    %rdi,-0x58(%rbp)
  4054e7:	48 89 75 a0          	mov    %rsi,-0x60(%rbp)
  4054eb:	48 89 55 98          	mov    %rdx,-0x68(%rbp)
  4054ef:	64 48 8b 04 25 28 00 	mov    %fs:0x28,%rax
  4054f6:	00 00 
  4054f8:	48 89 45 e8          	mov    %rax,-0x18(%rbp)
  4054fc:	31 c0                	xor    %eax,%eax
  4054fe:	c7 45 b0 00 00 00 00 	movl   $0x0,-0x50(%rbp)
  405505:	48 83 7d 98 00       	cmpq   $0x0,-0x68(%rbp)
  40550a:	75 16                	jne    405522 <_ZNK2cl8Platform10getDevicesEmPSt6vectorINS_6DeviceESaIS2_EE+0x48>
  40550c:	be b1 c6 40 00       	mov    $0x40c6b1,%esi
  405511:	bf ce ff ff ff       	mov    $0xffffffce,%edi
  405516:	e8 d2 ed ff ff       	callq  4042ed <_ZN2cl6detailL10errHandlerEiPKc>
  40551b:	89 c3                	mov    %eax,%ebx
  40551d:	e9 78 01 00 00       	jmpq   40569a <_ZNK2cl8Platform10getDevicesEmPSt6vectorINS_6DeviceESaIS2_EE+0x1c0>
  405522:	48 8b 45 a8          	mov    -0x58(%rbp),%rax
  405526:	48 8b 00             	mov    (%rax),%rax
  405529:	48 8d 55 b0          	lea    -0x50(%rbp),%rdx
  40552d:	48 8b 75 a0          	mov    -0x60(%rbp),%rsi
  405531:	49 89 d0             	mov    %rdx,%r8
  405534:	b9 00 00 00 00       	mov    $0x0,%ecx
  405539:	ba 00 00 00 00       	mov    $0x0,%edx
  40553e:	48 89 c7             	mov    %rax,%rdi
  405541:	e8 7a e9 ff ff       	callq  403ec0 <clGetDeviceIDs@plt>
  405546:	89 45 b4             	mov    %eax,-0x4c(%rbp)
  405549:	83 7d b4 00          	cmpl   $0x0,-0x4c(%rbp)
  40554d:	74 16                	je     405565 <_ZNK2cl8Platform10getDevicesEmPSt6vectorINS_6DeviceESaIS2_EE+0x8b>
  40554f:	8b 45 b4             	mov    -0x4c(%rbp),%eax
  405552:	be b1 c6 40 00       	mov    $0x40c6b1,%esi
  405557:	89 c7                	mov    %eax,%edi
  405559:	e8 8f ed ff ff       	callq  4042ed <_ZN2cl6detailL10errHandlerEiPKc>
  40555e:	89 c3                	mov    %eax,%ebx
  405560:	e9 35 01 00 00       	jmpq   40569a <_ZNK2cl8Platform10getDevicesEmPSt6vectorINS_6DeviceESaIS2_EE+0x1c0>
  405565:	48 8d 45 c0          	lea    -0x40(%rbp),%rax
  405569:	48 89 c7             	mov    %rax,%rdi
  40556c:	e8 a5 22 00 00       	callq  407816 <_ZNSaIP13_cl_device_idEC1Ev>
  405571:	8b 45 b0             	mov    -0x50(%rbp),%eax
  405574:	89 c1                	mov    %eax,%ecx
  405576:	48 8d 55 c0          	lea    -0x40(%rbp),%rdx
  40557a:	48 8d 45 d0          	lea    -0x30(%rbp),%rax
  40557e:	48 89 ce             	mov    %rcx,%rsi
  405581:	48 89 c7             	mov    %rax,%rdi
  405584:	e8 c5 22 00 00       	callq  40784e <_ZNSt6vectorIP13_cl_device_idSaIS1_EEC1EmRKS2_>
  405589:	48 8d 45 c0          	lea    -0x40(%rbp),%rax
  40558d:	48 89 c7             	mov    %rax,%rdi
  405590:	e8 9d 22 00 00       	callq  407832 <_ZNSaIP13_cl_device_idED1Ev>
  405595:	48 8d 45 d0          	lea    -0x30(%rbp),%rax
  405599:	48 89 c7             	mov    %rax,%rdi
  40559c:	e8 53 23 00 00       	callq  4078f4 <_ZNSt6vectorIP13_cl_device_idSaIS1_EE4dataEv>
  4055a1:	48 89 c1             	mov    %rax,%rcx
  4055a4:	8b 55 b0             	mov    -0x50(%rbp),%edx
  4055a7:	48 8b 45 a8          	mov    -0x58(%rbp),%rax
  4055ab:	48 8b 00             	mov    (%rax),%rax
  4055ae:	48 8b 75 a0          	mov    -0x60(%rbp),%rsi
  4055b2:	41 b8 00 00 00 00    	mov    $0x0,%r8d
  4055b8:	48 89 c7             	mov    %rax,%rdi
  4055bb:	e8 00 e9 ff ff       	callq  403ec0 <clGetDeviceIDs@plt>
  4055c0:	89 45 b4             	mov    %eax,-0x4c(%rbp)
  4055c3:	83 7d b4 00          	cmpl   $0x0,-0x4c(%rbp)
  4055c7:	74 16                	je     4055df <_ZNK2cl8Platform10getDevicesEmPSt6vectorINS_6DeviceESaIS2_EE+0x105>
  4055c9:	8b 45 b4             	mov    -0x4c(%rbp),%eax
  4055cc:	be b1 c6 40 00       	mov    $0x40c6b1,%esi
  4055d1:	89 c7                	mov    %eax,%edi
  4055d3:	e8 15 ed ff ff       	callq  4042ed <_ZN2cl6detailL10errHandlerEiPKc>
  4055d8:	89 c3                	mov    %eax,%ebx
  4055da:	e9 af 00 00 00       	jmpq   40568e <_ZNK2cl8Platform10getDevicesEmPSt6vectorINS_6DeviceESaIS2_EE+0x1b4>
  4055df:	48 83 7d 98 00       	cmpq   $0x0,-0x68(%rbp)
  4055e4:	0f 84 9f 00 00 00    	je     405689 <_ZNK2cl8Platform10getDevicesEmPSt6vectorINS_6DeviceESaIS2_EE+0x1af>
  4055ea:	48 8d 45 d0          	lea    -0x30(%rbp),%rax
  4055ee:	48 89 c7             	mov    %rax,%rdi
  4055f1:	e8 22 23 00 00       	callq  407918 <_ZNKSt6vectorIP13_cl_device_idSaIS1_EE4sizeEv>
  4055f6:	48 89 c2             	mov    %rax,%rdx
  4055f9:	48 8b 45 98          	mov    -0x68(%rbp),%rax
  4055fd:	48 89 d6             	mov    %rdx,%rsi
  405600:	48 89 c7             	mov    %rax,%rdi
  405603:	e8 36 23 00 00       	callq  40793e <_ZNSt6vectorIN2cl6DeviceESaIS1_EE6resizeEm>
  405608:	48 c7 45 b8 00 00 00 	movq   $0x0,-0x48(%rbp)
  40560f:	00 
  405610:	48 8d 45 d0          	lea    -0x30(%rbp),%rax
  405614:	48 89 c7             	mov    %rax,%rdi
  405617:	e8 fc 22 00 00       	callq  407918 <_ZNKSt6vectorIP13_cl_device_idSaIS1_EE4sizeEv>
  40561c:	48 3b 45 b8          	cmp    -0x48(%rbp),%rax
  405620:	0f 97 c0             	seta   %al
  405623:	84 c0                	test   %al,%al
  405625:	74 62                	je     405689 <_ZNK2cl8Platform10getDevicesEmPSt6vectorINS_6DeviceESaIS2_EE+0x1af>
  405627:	48 8b 55 b8          	mov    -0x48(%rbp),%rdx
  40562b:	48 8d 45 d0          	lea    -0x30(%rbp),%rax
  40562f:	48 89 d6             	mov    %rdx,%rsi
  405632:	48 89 c7             	mov    %rax,%rdi
  405635:	e8 b0 23 00 00       	callq  4079ea <_ZNSt6vectorIP13_cl_device_idSaIS1_EEixEm>
  40563a:	48 89 c1             	mov    %rax,%rcx
  40563d:	48 8d 45 c0          	lea    -0x40(%rbp),%rax
  405641:	ba 01 00 00 00       	mov    $0x1,%edx
  405646:	48 89 ce             	mov    %rcx,%rsi
  405649:	48 89 c7             	mov    %rax,%rdi
  40564c:	e8 4d fa ff ff       	callq  40509e <_ZN2cl6DeviceC1ERKP13_cl_device_idb>
  405651:	48 8b 55 b8          	mov    -0x48(%rbp),%rdx
  405655:	48 8b 45 98          	mov    -0x68(%rbp),%rax
  405659:	48 89 d6             	mov    %rdx,%rsi
  40565c:	48 89 c7             	mov    %rax,%rdi
  40565f:	e8 66 23 00 00       	callq  4079ca <_ZNSt6vectorIN2cl6DeviceESaIS1_EEixEm>
  405664:	48 89 c2             	mov    %rax,%rdx
  405667:	48 8d 45 c0          	lea    -0x40(%rbp),%rax
  40566b:	48 89 c6             	mov    %rax,%rsi
  40566e:	48 89 d7             	mov    %rdx,%rdi
  405671:	e8 5e fb ff ff       	callq  4051d4 <_ZN2cl6DeviceaSEOS0_>
  405676:	48 8d 45 c0          	lea    -0x40(%rbp),%rax
  40567a:	48 89 c7             	mov    %rax,%rdi
  40567d:	e8 4c fa ff ff       	callq  4050ce <_ZN2cl6DeviceD1Ev>
  405682:	48 83 45 b8 01       	addq   $0x1,-0x48(%rbp)
  405687:	eb 87                	jmp    405610 <_ZNK2cl8Platform10getDevicesEmPSt6vectorINS_6DeviceESaIS2_EE+0x136>
  405689:	bb 00 00 00 00       	mov    $0x0,%ebx
  40568e:	48 8d 45 d0          	lea    -0x30(%rbp),%rax
  405692:	48 89 c7             	mov    %rax,%rdi
  405695:	e8 16 22 00 00       	callq  4078b0 <_ZNSt6vectorIP13_cl_device_idSaIS1_EED1Ev>
  40569a:	89 d8                	mov    %ebx,%eax
  40569c:	48 8b 4d e8          	mov    -0x18(%rbp),%rcx
  4056a0:	64 48 33 0c 25 28 00 	xor    %fs:0x28,%rcx
  4056a7:	00 00 
  4056a9:	74 4c                	je     4056f7 <_ZNK2cl8Platform10getDevicesEmPSt6vectorINS_6DeviceESaIS2_EE+0x21d>
  4056ab:	eb 45                	jmp    4056f2 <_ZNK2cl8Platform10getDevicesEmPSt6vectorINS_6DeviceESaIS2_EE+0x218>
  4056ad:	48 89 c3             	mov    %rax,%rbx
  4056b0:	48 8d 45 c0          	lea    -0x40(%rbp),%rax
  4056b4:	48 89 c7             	mov    %rax,%rdi
  4056b7:	e8 76 21 00 00       	callq  407832 <_ZNSaIP13_cl_device_idED1Ev>
  4056bc:	48 89 d8             	mov    %rbx,%rax
  4056bf:	48 89 c7             	mov    %rax,%rdi
  4056c2:	e8 a9 e9 ff ff       	callq  404070 <_Unwind_Resume@plt>
  4056c7:	48 89 c3             	mov    %rax,%rbx
  4056ca:	48 8d 45 c0          	lea    -0x40(%rbp),%rax
  4056ce:	48 89 c7             	mov    %rax,%rdi
  4056d1:	e8 f8 f9 ff ff       	callq  4050ce <_ZN2cl6DeviceD1Ev>
  4056d6:	eb 03                	jmp    4056db <_ZNK2cl8Platform10getDevicesEmPSt6vectorINS_6DeviceESaIS2_EE+0x201>
  4056d8:	48 89 c3             	mov    %rax,%rbx
  4056db:	48 8d 45 d0          	lea    -0x30(%rbp),%rax
  4056df:	48 89 c7             	mov    %rax,%rdi
  4056e2:	e8 c9 21 00 00       	callq  4078b0 <_ZNSt6vectorIP13_cl_device_idSaIS1_EED1Ev>
  4056e7:	48 89 d8             	mov    %rbx,%rax
  4056ea:	48 89 c7             	mov    %rax,%rdi
  4056ed:	e8 7e e9 ff ff       	callq  404070 <_Unwind_Resume@plt>
  4056f2:	e8 59 e7 ff ff       	callq  403e50 <__stack_chk_fail@plt>
  4056f7:	48 83 c4 68          	add    $0x68,%rsp
  4056fb:	5b                   	pop    %rbx
  4056fc:	5d                   	pop    %rbp
  4056fd:	c3                   	retq   

00000000004056fe <_ZN2cl8Platform3getEPSt6vectorIS0_SaIS0_EE>:
  4056fe:	55                   	push   %rbp
  4056ff:	48 89 e5             	mov    %rsp,%rbp
  405702:	53                   	push   %rbx
  405703:	48 83 ec 58          	sub    $0x58,%rsp
  405707:	48 89 7d a8          	mov    %rdi,-0x58(%rbp)
  40570b:	64 48 8b 04 25 28 00 	mov    %fs:0x28,%rax
  405712:	00 00 
  405714:	48 89 45 e8          	mov    %rax,-0x18(%rbp)
  405718:	31 c0                	xor    %eax,%eax
  40571a:	c7 45 b8 00 00 00 00 	movl   $0x0,-0x48(%rbp)
  405721:	48 83 7d a8 00       	cmpq   $0x0,-0x58(%rbp)
  405726:	75 16                	jne    40573e <_ZN2cl8Platform3getEPSt6vectorIS0_SaIS0_EE+0x40>
  405728:	be c0 c6 40 00       	mov    $0x40c6c0,%esi
  40572d:	bf ce ff ff ff       	mov    $0xffffffce,%edi
  405732:	e8 b6 eb ff ff       	callq  4042ed <_ZN2cl6detailL10errHandlerEiPKc>
  405737:	89 c3                	mov    %eax,%ebx
  405739:	e9 60 01 00 00       	jmpq   40589e <_ZN2cl8Platform3getEPSt6vectorIS0_SaIS0_EE+0x1a0>
  40573e:	48 8d 45 b8          	lea    -0x48(%rbp),%rax
  405742:	48 89 c2             	mov    %rax,%rdx
  405745:	be 00 00 00 00       	mov    $0x0,%esi
  40574a:	bf 00 00 00 00       	mov    $0x0,%edi
  40574f:	e8 6c e6 ff ff       	callq  403dc0 <clGetPlatformIDs@plt>
  405754:	89 45 bc             	mov    %eax,-0x44(%rbp)
  405757:	83 7d bc 00          	cmpl   $0x0,-0x44(%rbp)
  40575b:	74 16                	je     405773 <_ZN2cl8Platform3getEPSt6vectorIS0_SaIS0_EE+0x75>
  40575d:	8b 45 bc             	mov    -0x44(%rbp),%eax
  405760:	be c0 c6 40 00       	mov    $0x40c6c0,%esi
  405765:	89 c7                	mov    %eax,%edi
  405767:	e8 81 eb ff ff       	callq  4042ed <_ZN2cl6detailL10errHandlerEiPKc>
  40576c:	89 c3                	mov    %eax,%ebx
  40576e:	e9 2b 01 00 00       	jmpq   40589e <_ZN2cl8Platform3getEPSt6vectorIS0_SaIS0_EE+0x1a0>
  405773:	48 8d 45 c0          	lea    -0x40(%rbp),%rax
  405777:	48 89 c7             	mov    %rax,%rdi
  40577a:	e8 67 1e 00 00       	callq  4075e6 <_ZNSaIP15_cl_platform_idEC1Ev>
  40577f:	8b 45 b8             	mov    -0x48(%rbp),%eax
  405782:	89 c1                	mov    %eax,%ecx
  405784:	48 8d 55 c0          	lea    -0x40(%rbp),%rdx
  405788:	48 8d 45 d0          	lea    -0x30(%rbp),%rax
  40578c:	48 89 ce             	mov    %rcx,%rsi
  40578f:	48 89 c7             	mov    %rax,%rdi
  405792:	e8 87 1e 00 00       	callq  40761e <_ZNSt6vectorIP15_cl_platform_idSaIS1_EEC1EmRKS2_>
  405797:	48 8d 45 c0          	lea    -0x40(%rbp),%rax
  40579b:	48 89 c7             	mov    %rax,%rdi
  40579e:	e8 5f 1e 00 00       	callq  407602 <_ZNSaIP15_cl_platform_idED1Ev>
  4057a3:	48 8d 45 d0          	lea    -0x30(%rbp),%rax
  4057a7:	48 89 c7             	mov    %rax,%rdi
  4057aa:	e8 15 1f 00 00       	callq  4076c4 <_ZNSt6vectorIP15_cl_platform_idSaIS1_EE4dataEv>
  4057af:	48 89 c1             	mov    %rax,%rcx
  4057b2:	8b 45 b8             	mov    -0x48(%rbp),%eax
  4057b5:	ba 00 00 00 00       	mov    $0x0,%edx
  4057ba:	48 89 ce             	mov    %rcx,%rsi
  4057bd:	89 c7                	mov    %eax,%edi
  4057bf:	e8 fc e5 ff ff       	callq  403dc0 <clGetPlatformIDs@plt>
  4057c4:	89 45 bc             	mov    %eax,-0x44(%rbp)
  4057c7:	83 7d bc 00          	cmpl   $0x0,-0x44(%rbp)
  4057cb:	74 16                	je     4057e3 <_ZN2cl8Platform3getEPSt6vectorIS0_SaIS0_EE+0xe5>
  4057cd:	8b 45 bc             	mov    -0x44(%rbp),%eax
  4057d0:	be c0 c6 40 00       	mov    $0x40c6c0,%esi
  4057d5:	89 c7                	mov    %eax,%edi
  4057d7:	e8 11 eb ff ff       	callq  4042ed <_ZN2cl6detailL10errHandlerEiPKc>
  4057dc:	89 c3                	mov    %eax,%ebx
  4057de:	e9 af 00 00 00       	jmpq   405892 <_ZN2cl8Platform3getEPSt6vectorIS0_SaIS0_EE+0x194>
  4057e3:	48 83 7d a8 00       	cmpq   $0x0,-0x58(%rbp)
  4057e8:	0f 84 9f 00 00 00    	je     40588d <_ZN2cl8Platform3getEPSt6vectorIS0_SaIS0_EE+0x18f>
  4057ee:	48 8d 45 d0          	lea    -0x30(%rbp),%rax
  4057f2:	48 89 c7             	mov    %rax,%rdi
  4057f5:	e8 10 22 00 00       	callq  407a0a <_ZNKSt6vectorIP15_cl_platform_idSaIS1_EE4sizeEv>
  4057fa:	48 89 c2             	mov    %rax,%rdx
  4057fd:	48 8b 45 a8          	mov    -0x58(%rbp),%rax
  405801:	48 89 d6             	mov    %rdx,%rsi
  405804:	48 89 c7             	mov    %rax,%rdi
  405807:	e8 24 22 00 00       	callq  407a30 <_ZNSt6vectorIN2cl8PlatformESaIS1_EE6resizeEm>
  40580c:	48 c7 45 c8 00 00 00 	movq   $0x0,-0x38(%rbp)
  405813:	00 
  405814:	48 8d 45 d0          	lea    -0x30(%rbp),%rax
  405818:	48 89 c7             	mov    %rax,%rdi
  40581b:	e8 ea 21 00 00       	callq  407a0a <_ZNKSt6vectorIP15_cl_platform_idSaIS1_EE4sizeEv>
  405820:	48 3b 45 c8          	cmp    -0x38(%rbp),%rax
  405824:	0f 97 c0             	seta   %al
  405827:	84 c0                	test   %al,%al
  405829:	74 62                	je     40588d <_ZN2cl8Platform3getEPSt6vectorIS0_SaIS0_EE+0x18f>
  40582b:	48 8b 55 c8          	mov    -0x38(%rbp),%rdx
  40582f:	48 8d 45 d0          	lea    -0x30(%rbp),%rax
  405833:	48 89 d6             	mov    %rdx,%rsi
  405836:	48 89 c7             	mov    %rax,%rdi
  405839:	e8 aa 1e 00 00       	callq  4076e8 <_ZNSt6vectorIP15_cl_platform_idSaIS1_EEixEm>
  40583e:	48 89 c1             	mov    %rax,%rcx
  405841:	48 8d 45 c0          	lea    -0x40(%rbp),%rax
  405845:	ba 00 00 00 00       	mov    $0x0,%edx
  40584a:	48 89 ce             	mov    %rcx,%rsi
  40584d:	48 89 c7             	mov    %rax,%rdi
  405850:	e8 d3 fb ff ff       	callq  405428 <_ZN2cl8PlatformC1ERKP15_cl_platform_idb>
  405855:	48 8b 55 c8          	mov    -0x38(%rbp),%rdx
  405859:	48 8b 45 a8          	mov    -0x58(%rbp),%rax
  40585d:	48 89 d6             	mov    %rdx,%rsi
  405860:	48 89 c7             	mov    %rax,%rdi
  405863:	e8 54 22 00 00       	callq  407abc <_ZNSt6vectorIN2cl8PlatformESaIS1_EEixEm>
  405868:	48 89 c2             	mov    %rax,%rdx
  40586b:	48 8d 45 c0          	lea    -0x40(%rbp),%rax
  40586f:	48 89 c6             	mov    %rax,%rsi
  405872:	48 89 d7             	mov    %rdx,%rdi
  405875:	e8 aa f9 ff ff       	callq  405224 <_ZN2cl8PlatformaSEOS0_>
  40587a:	48 8d 45 c0          	lea    -0x40(%rbp),%rax
  40587e:	48 89 c7             	mov    %rax,%rdi
  405881:	e8 82 f9 ff ff       	callq  405208 <_ZN2cl8PlatformD1Ev>
  405886:	48 83 45 c8 01       	addq   $0x1,-0x38(%rbp)
  40588b:	eb 87                	jmp    405814 <_ZN2cl8Platform3getEPSt6vectorIS0_SaIS0_EE+0x116>
  40588d:	bb 00 00 00 00       	mov    $0x0,%ebx
  405892:	48 8d 45 d0          	lea    -0x30(%rbp),%rax
  405896:	48 89 c7             	mov    %rax,%rdi
  405899:	e8 e2 1d 00 00       	callq  407680 <_ZNSt6vectorIP15_cl_platform_idSaIS1_EED1Ev>
  40589e:	89 d8                	mov    %ebx,%eax
  4058a0:	48 8b 4d e8          	mov    -0x18(%rbp),%rcx
  4058a4:	64 48 33 0c 25 28 00 	xor    %fs:0x28,%rcx
  4058ab:	00 00 
  4058ad:	74 4c                	je     4058fb <_ZN2cl8Platform3getEPSt6vectorIS0_SaIS0_EE+0x1fd>
  4058af:	eb 45                	jmp    4058f6 <_ZN2cl8Platform3getEPSt6vectorIS0_SaIS0_EE+0x1f8>
  4058b1:	48 89 c3             	mov    %rax,%rbx
  4058b4:	48 8d 45 c0          	lea    -0x40(%rbp),%rax
  4058b8:	48 89 c7             	mov    %rax,%rdi
  4058bb:	e8 42 1d 00 00       	callq  407602 <_ZNSaIP15_cl_platform_idED1Ev>
  4058c0:	48 89 d8             	mov    %rbx,%rax
  4058c3:	48 89 c7             	mov    %rax,%rdi
  4058c6:	e8 a5 e7 ff ff       	callq  404070 <_Unwind_Resume@plt>
  4058cb:	48 89 c3             	mov    %rax,%rbx
  4058ce:	48 8d 45 c0          	lea    -0x40(%rbp),%rax
  4058d2:	48 89 c7             	mov    %rax,%rdi
  4058d5:	e8 2e f9 ff ff       	callq  405208 <_ZN2cl8PlatformD1Ev>
  4058da:	eb 03                	jmp    4058df <_ZN2cl8Platform3getEPSt6vectorIS0_SaIS0_EE+0x1e1>
  4058dc:	48 89 c3             	mov    %rax,%rbx
  4058df:	48 8d 45 d0          	lea    -0x30(%rbp),%rax
  4058e3:	48 89 c7             	mov    %rax,%rdi
  4058e6:	e8 95 1d 00 00       	callq  407680 <_ZNSt6vectorIP15_cl_platform_idSaIS1_EED1Ev>
  4058eb:	48 89 d8             	mov    %rbx,%rax
  4058ee:	48 89 c7             	mov    %rax,%rdi
  4058f1:	e8 7a e7 ff ff       	callq  404070 <_Unwind_Resume@plt>
  4058f6:	e8 55 e5 ff ff       	callq  403e50 <__stack_chk_fail@plt>
  4058fb:	48 83 c4 58          	add    $0x58,%rsp
  4058ff:	5b                   	pop    %rbx
  405900:	5d                   	pop    %rbp
  405901:	c3                   	retq   

0000000000405902 <_ZN2cl8PlatformC1EOS0_>:
  405902:	55                   	push   %rbp
  405903:	48 89 e5             	mov    %rsp,%rbp
  405906:	48 83 ec 10          	sub    $0x10,%rsp
  40590a:	48 89 7d f8          	mov    %rdi,-0x8(%rbp)
  40590e:	48 89 75 f0          	mov    %rsi,-0x10(%rbp)
  405912:	48 8b 55 f0          	mov    -0x10(%rbp),%rdx
  405916:	48 8b 45 f8          	mov    -0x8(%rbp),%rax
  40591a:	48 89 d6             	mov    %rdx,%rsi
  40591d:	48 89 c7             	mov    %rax,%rdi
  405920:	e8 b7 21 00 00       	callq  407adc <_ZN2cl6detail7WrapperIP15_cl_platform_idEC1EOS4_>
  405925:	90                   	nop
  405926:	c9                   	leaveq 
  405927:	c3                   	retq   

0000000000405928 <_ZN2cl7ContextD1Ev>:
  405928:	55                   	push   %rbp
  405929:	48 89 e5             	mov    %rsp,%rbp
  40592c:	48 83 ec 10          	sub    $0x10,%rsp
  405930:	48 89 7d f8          	mov    %rdi,-0x8(%rbp)
  405934:	48 8b 45 f8          	mov    -0x8(%rbp),%rax
  405938:	48 89 c7             	mov    %rax,%rdi
  40593b:	e8 d2 21 00 00       	callq  407b12 <_ZN2cl6detail7WrapperIP11_cl_contextED1Ev>
  405940:	90                   	nop
  405941:	c9                   	leaveq 
  405942:	c3                   	retq   

0000000000405943 <_ZN2cl7Context11makeDefaultEv>:
  405943:	55                   	push   %rbp
  405944:	48 89 e5             	mov    %rsp,%rbp
  405947:	41 54                	push   %r12
  405949:	53                   	push   %rbx
  40594a:	48 83 ec 50          	sub    $0x50,%rsp
  40594e:	64 48 8b 04 25 28 00 	mov    %fs:0x28,%rax
  405955:	00 00 
  405957:	48 89 45 e8          	mov    %rax,-0x18(%rbp)
  40595b:	31 c0                	xor    %eax,%eax
  40595d:	48 8d 45 a0          	lea    -0x60(%rbp),%rax
  405961:	be 00 00 00 00       	mov    $0x0,%esi
  405966:	48 89 c7             	mov    %rax,%rdi
  405969:	e8 10 fb ff ff       	callq  40547e <_ZN2cl8Platform10getDefaultEPi>
  40596e:	48 8d 45 a0          	lea    -0x60(%rbp),%rax
  405972:	48 89 45 b8          	mov    %rax,-0x48(%rbp)
  405976:	48 8b 45 b8          	mov    -0x48(%rbp),%rax
  40597a:	48 89 c7             	mov    %rax,%rdi
  40597d:	e8 82 21 00 00       	callq  407b04 <_ZNK2cl6detail7WrapperIP15_cl_platform_idEclEv>
  405982:	48 8b 00             	mov    (%rax),%rax
  405985:	48 89 45 c0          	mov    %rax,-0x40(%rbp)
  405989:	48 c7 45 d0 00 00 00 	movq   $0x0,-0x30(%rbp)
  405990:	00 
  405991:	48 c7 45 d8 00 00 00 	movq   $0x0,-0x28(%rbp)
  405998:	00 
  405999:	48 c7 45 e0 00 00 00 	movq   $0x0,-0x20(%rbp)
  4059a0:	00 
  4059a1:	48 c7 45 d0 84 10 00 	movq   $0x1084,-0x30(%rbp)
  4059a8:	00 
  4059a9:	48 8b 45 c0          	mov    -0x40(%rbp),%rax
  4059ad:	48 89 45 d8          	mov    %rax,-0x28(%rbp)
  4059b1:	48 8d 55 d0          	lea    -0x30(%rbp),%rdx
  4059b5:	48 8d 45 b0          	lea    -0x50(%rbp),%rax
  4059b9:	41 b9 20 37 61 00    	mov    $0x613720,%r9d
  4059bf:	41 b8 00 00 00 00    	mov    $0x0,%r8d
  4059c5:	b9 00 00 00 00       	mov    $0x0,%ecx
  4059ca:	be 01 00 00 00       	mov    $0x1,%esi
  4059cf:	48 89 c7             	mov    %rax,%rdi
  4059d2:	e8 a9 00 00 00       	callq  405a80 <_ZN2cl7ContextC1EmPlPFvPKcPKvmPvES6_Pi>
  4059d7:	48 8d 45 b0          	lea    -0x50(%rbp),%rax
  4059db:	48 89 c6             	mov    %rax,%rsi
  4059de:	bf 18 37 61 00       	mov    $0x613718,%edi
  4059e3:	e8 5c 04 00 00       	callq  405e44 <_ZN2cl7ContextaSEOS0_>
  4059e8:	48 8d 45 b0          	lea    -0x50(%rbp),%rax
  4059ec:	48 89 c7             	mov    %rax,%rdi
  4059ef:	e8 34 ff ff ff       	callq  405928 <_ZN2cl7ContextD1Ev>
  4059f4:	48 8d 45 a0          	lea    -0x60(%rbp),%rax
  4059f8:	48 89 c7             	mov    %rax,%rdi
  4059fb:	e8 08 f8 ff ff       	callq  405208 <_ZN2cl8PlatformD1Ev>
  405a00:	eb 5f                	jmp    405a61 <_ZN2cl7Context11makeDefaultEv+0x11e>
  405a02:	49 89 c4             	mov    %rax,%r12
  405a05:	48 89 d3             	mov    %rdx,%rbx
  405a08:	48 8d 45 b0          	lea    -0x50(%rbp),%rax
  405a0c:	48 89 c7             	mov    %rax,%rdi
  405a0f:	e8 14 ff ff ff       	callq  405928 <_ZN2cl7ContextD1Ev>
  405a14:	eb 06                	jmp    405a1c <_ZN2cl7Context11makeDefaultEv+0xd9>
  405a16:	49 89 c4             	mov    %rax,%r12
  405a19:	48 89 d3             	mov    %rdx,%rbx
  405a1c:	48 8d 45 a0          	lea    -0x60(%rbp),%rax
  405a20:	48 89 c7             	mov    %rax,%rdi
  405a23:	e8 e0 f7 ff ff       	callq  405208 <_ZN2cl8PlatformD1Ev>
  405a28:	4c 89 e0             	mov    %r12,%rax
  405a2b:	48 89 da             	mov    %rbx,%rdx
  405a2e:	eb 00                	jmp    405a30 <_ZN2cl7Context11makeDefaultEv+0xed>
  405a30:	48 83 fa 01          	cmp    $0x1,%rdx
  405a34:	74 08                	je     405a3e <_ZN2cl7Context11makeDefaultEv+0xfb>
  405a36:	48 89 c7             	mov    %rax,%rdi
  405a39:	e8 32 e6 ff ff       	callq  404070 <_Unwind_Resume@plt>
  405a3e:	48 89 c7             	mov    %rax,%rdi
  405a41:	e8 ba e2 ff ff       	callq  403d00 <__cxa_begin_catch@plt>
  405a46:	48 89 45 c8          	mov    %rax,-0x38(%rbp)
  405a4a:	48 8b 45 c8          	mov    -0x38(%rbp),%rax
  405a4e:	48 89 c7             	mov    %rax,%rdi
  405a51:	e8 52 f2 ff ff       	callq  404ca8 <_ZNK2cl5Error3errEv>
  405a56:	89 05 c4 dc 20 00    	mov    %eax,0x20dcc4(%rip)        # 613720 <_ZN2cl7Context14default_error_E>
  405a5c:	e8 5f e5 ff ff       	callq  403fc0 <__cxa_end_catch@plt>
  405a61:	90                   	nop
  405a62:	48 8b 45 e8          	mov    -0x18(%rbp),%rax
  405a66:	64 48 33 04 25 28 00 	xor    %fs:0x28,%rax
  405a6d:	00 00 
  405a6f:	74 05                	je     405a76 <_ZN2cl7Context11makeDefaultEv+0x133>
  405a71:	e8 da e3 ff ff       	callq  403e50 <__stack_chk_fail@plt>
  405a76:	48 83 c4 50          	add    $0x50,%rsp
  405a7a:	5b                   	pop    %rbx
  405a7b:	41 5c                	pop    %r12
  405a7d:	5d                   	pop    %rbp
  405a7e:	c3                   	retq   
  405a7f:	90                   	nop

0000000000405a80 <_ZN2cl7ContextC1EmPlPFvPKcPKvmPvES6_Pi>:
  405a80:	55                   	push   %rbp
  405a81:	48 89 e5             	mov    %rsp,%rbp
  405a84:	53                   	push   %rbx
  405a85:	48 81 ec d8 00 00 00 	sub    $0xd8,%rsp
  405a8c:	48 89 bd 48 ff ff ff 	mov    %rdi,-0xb8(%rbp)
  405a93:	48 89 b5 40 ff ff ff 	mov    %rsi,-0xc0(%rbp)
  405a9a:	48 89 95 38 ff ff ff 	mov    %rdx,-0xc8(%rbp)
  405aa1:	48 89 8d 30 ff ff ff 	mov    %rcx,-0xd0(%rbp)
  405aa8:	4c 89 85 28 ff ff ff 	mov    %r8,-0xd8(%rbp)
  405aaf:	4c 89 8d 20 ff ff ff 	mov    %r9,-0xe0(%rbp)
  405ab6:	64 48 8b 04 25 28 00 	mov    %fs:0x28,%rax
  405abd:	00 00 
  405abf:	48 89 45 e8          	mov    %rax,-0x18(%rbp)
  405ac3:	31 c0                	xor    %eax,%eax
  405ac5:	48 8b 85 48 ff ff ff 	mov    -0xb8(%rbp),%rax
  405acc:	48 89 c7             	mov    %rax,%rdi
  405acf:	e8 66 20 00 00       	callq  407b3a <_ZN2cl6detail7WrapperIP11_cl_contextEC1Ev>
  405ad4:	48 c7 45 c0 84 10 00 	movq   $0x1084,-0x40(%rbp)
  405adb:	00 
  405adc:	48 c7 45 c8 00 00 00 	movq   $0x0,-0x38(%rbp)
  405ae3:	00 
  405ae4:	48 c7 45 d0 00 00 00 	movq   $0x0,-0x30(%rbp)
  405aeb:	00 
  405aec:	48 c7 45 d8 00 00 00 	movq   $0x0,-0x28(%rbp)
  405af3:	00 
  405af4:	48 83 bd 38 ff ff ff 	cmpq   $0x0,-0xc8(%rbp)
  405afb:	00 
  405afc:	0f 85 f3 01 00 00    	jne    405cf5 <_ZN2cl7ContextC1EmPlPFvPKcPKvmPvES6_Pi+0x275>
  405b02:	48 8d 85 60 ff ff ff 	lea    -0xa0(%rbp),%rax
  405b09:	48 89 c7             	mov    %rax,%rdi
  405b0c:	e8 65 20 00 00       	callq  407b76 <_ZNSt6vectorIN2cl8PlatformESaIS1_EEC1Ev>
  405b11:	48 8d 85 60 ff ff ff 	lea    -0xa0(%rbp),%rax
  405b18:	48 89 c7             	mov    %rax,%rdi
  405b1b:	e8 de fb ff ff       	callq  4056fe <_ZN2cl8Platform3getEPSt6vectorIS0_SaIS0_EE>
  405b20:	89 85 50 ff ff ff    	mov    %eax,-0xb0(%rbp)
  405b26:	8b 85 50 ff ff ff    	mov    -0xb0(%rbp),%eax
  405b2c:	85 c0                	test   %eax,%eax
  405b2e:	74 35                	je     405b65 <_ZN2cl7ContextC1EmPlPFvPKcPKvmPvES6_Pi+0xe5>
  405b30:	8b 85 50 ff ff ff    	mov    -0xb0(%rbp),%eax
  405b36:	be d1 c6 40 00       	mov    $0x40c6d1,%esi
  405b3b:	89 c7                	mov    %eax,%edi
  405b3d:	e8 ab e7 ff ff       	callq  4042ed <_ZN2cl6detailL10errHandlerEiPKc>
  405b42:	48 83 bd 20 ff ff ff 	cmpq   $0x0,-0xe0(%rbp)
  405b49:	00 
  405b4a:	74 0f                	je     405b5b <_ZN2cl7ContextC1EmPlPFvPKcPKvmPvES6_Pi+0xdb>
  405b4c:	8b 95 50 ff ff ff    	mov    -0xb0(%rbp),%edx
  405b52:	48 8b 85 20 ff ff ff 	mov    -0xe0(%rbp),%rax
  405b59:	89 10                	mov    %edx,(%rax)
  405b5b:	bb 00 00 00 00       	mov    $0x0,%ebx
  405b60:	e9 77 01 00 00       	jmpq   405cdc <_ZN2cl7ContextC1EmPlPFvPKcPKvmPvES6_Pi+0x25c>
  405b65:	48 c7 85 58 ff ff ff 	movq   $0x0,-0xa8(%rbp)
  405b6c:	00 00 00 00 
  405b70:	c7 85 54 ff ff ff 00 	movl   $0x0,-0xac(%rbp)
  405b77:	00 00 00 
  405b7a:	8b 9d 54 ff ff ff    	mov    -0xac(%rbp),%ebx
  405b80:	48 8d 85 60 ff ff ff 	lea    -0xa0(%rbp),%rax
  405b87:	48 89 c7             	mov    %rax,%rdi
  405b8a:	e8 47 20 00 00       	callq  407bd6 <_ZNKSt6vectorIN2cl8PlatformESaIS1_EE4sizeEv>
  405b8f:	48 39 c3             	cmp    %rax,%rbx
  405b92:	0f 92 c0             	setb   %al
  405b95:	84 c0                	test   %al,%al
  405b97:	0f 84 ed 00 00 00    	je     405c8a <_ZN2cl7ContextC1EmPlPFvPKcPKvmPvES6_Pi+0x20a>
  405b9d:	48 8d 45 80          	lea    -0x80(%rbp),%rax
  405ba1:	48 89 c7             	mov    %rax,%rdi
  405ba4:	e8 53 20 00 00       	callq  407bfc <_ZNSt6vectorIN2cl6DeviceESaIS1_EEC1Ev>
  405ba9:	8b 95 54 ff ff ff    	mov    -0xac(%rbp),%edx
  405baf:	48 8d 85 60 ff ff ff 	lea    -0xa0(%rbp),%rax
  405bb6:	48 89 d6             	mov    %rdx,%rsi
  405bb9:	48 89 c7             	mov    %rax,%rdi
  405bbc:	e8 fb 1e 00 00       	callq  407abc <_ZNSt6vectorIN2cl8PlatformESaIS1_EEixEm>
  405bc1:	48 89 c1             	mov    %rax,%rcx
  405bc4:	48 8d 55 80          	lea    -0x80(%rbp),%rdx
  405bc8:	48 8b 85 40 ff ff ff 	mov    -0xc0(%rbp),%rax
  405bcf:	48 89 c6             	mov    %rax,%rsi
  405bd2:	48 89 cf             	mov    %rcx,%rdi
  405bd5:	e8 00 f9 ff ff       	callq  4054da <_ZNK2cl8Platform10getDevicesEmPSt6vectorINS_6DeviceESaIS2_EE>
  405bda:	89 85 50 ff ff ff    	mov    %eax,-0xb0(%rbp)
  405be0:	8b 85 50 ff ff ff    	mov    -0xb0(%rbp),%eax
  405be6:	85 c0                	test   %eax,%eax
  405be8:	74 36                	je     405c20 <_ZN2cl7ContextC1EmPlPFvPKcPKvmPvES6_Pi+0x1a0>
  405bea:	8b 85 50 ff ff ff    	mov    -0xb0(%rbp),%eax
  405bf0:	83 f8 ff             	cmp    $0xffffffff,%eax
  405bf3:	74 2b                	je     405c20 <_ZN2cl7ContextC1EmPlPFvPKcPKvmPvES6_Pi+0x1a0>
  405bf5:	8b 85 50 ff ff ff    	mov    -0xb0(%rbp),%eax
  405bfb:	be d1 c6 40 00       	mov    $0x40c6d1,%esi
  405c00:	89 c7                	mov    %eax,%edi
  405c02:	e8 e6 e6 ff ff       	callq  4042ed <_ZN2cl6detailL10errHandlerEiPKc>
  405c07:	48 83 bd 20 ff ff ff 	cmpq   $0x0,-0xe0(%rbp)
  405c0e:	00 
  405c0f:	74 0f                	je     405c20 <_ZN2cl7ContextC1EmPlPFvPKcPKvmPvES6_Pi+0x1a0>
  405c11:	8b 95 50 ff ff ff    	mov    -0xb0(%rbp),%edx
  405c17:	48 8b 85 20 ff ff ff 	mov    -0xe0(%rbp),%rax
  405c1e:	89 10                	mov    %edx,(%rax)
  405c20:	48 8d 45 80          	lea    -0x80(%rbp),%rax
  405c24:	48 89 c7             	mov    %rax,%rdi
  405c27:	e8 24 1f 00 00       	callq  407b50 <_ZNKSt6vectorIN2cl6DeviceESaIS1_EE4sizeEv>
  405c2c:	48 85 c0             	test   %rax,%rax
  405c2f:	0f 95 c0             	setne  %al
  405c32:	84 c0                	test   %al,%al
  405c34:	74 31                	je     405c67 <_ZN2cl7ContextC1EmPlPFvPKcPKvmPvES6_Pi+0x1e7>
  405c36:	8b 95 54 ff ff ff    	mov    -0xac(%rbp),%edx
  405c3c:	48 8d 85 60 ff ff ff 	lea    -0xa0(%rbp),%rax
  405c43:	48 89 d6             	mov    %rdx,%rsi
  405c46:	48 89 c7             	mov    %rax,%rdi
  405c49:	e8 6e 1e 00 00       	callq  407abc <_ZNSt6vectorIN2cl8PlatformESaIS1_EEixEm>
  405c4e:	48 89 c7             	mov    %rax,%rdi
  405c51:	e8 06 20 00 00       	callq  407c5c <_ZN2cl6detail7WrapperIP15_cl_platform_idEclEv>
  405c56:	48 8b 00             	mov    (%rax),%rax
  405c59:	48 89 85 58 ff ff ff 	mov    %rax,-0xa8(%rbp)
  405c60:	bb 00 00 00 00       	mov    $0x0,%ebx
  405c65:	eb 05                	jmp    405c6c <_ZN2cl7ContextC1EmPlPFvPKcPKvmPvES6_Pi+0x1ec>
  405c67:	bb 01 00 00 00       	mov    $0x1,%ebx
  405c6c:	48 8d 45 80          	lea    -0x80(%rbp),%rax
  405c70:	48 89 c7             	mov    %rax,%rdi
  405c73:	e8 a0 1f 00 00       	callq  407c18 <_ZNSt6vectorIN2cl6DeviceESaIS1_EED1Ev>
  405c78:	83 fb 01             	cmp    $0x1,%ebx
  405c7b:	75 0d                	jne    405c8a <_ZN2cl7ContextC1EmPlPFvPKcPKvmPvES6_Pi+0x20a>
  405c7d:	90                   	nop
  405c7e:	83 85 54 ff ff ff 01 	addl   $0x1,-0xac(%rbp)
  405c85:	e9 f0 fe ff ff       	jmpq   405b7a <_ZN2cl7ContextC1EmPlPFvPKcPKvmPvES6_Pi+0xfa>
  405c8a:	48 83 bd 58 ff ff ff 	cmpq   $0x0,-0xa8(%rbp)
  405c91:	00 
  405c92:	75 2d                	jne    405cc1 <_ZN2cl7ContextC1EmPlPFvPKcPKvmPvES6_Pi+0x241>
  405c94:	be d1 c6 40 00       	mov    $0x40c6d1,%esi
  405c99:	bf ff ff ff ff       	mov    $0xffffffff,%edi
  405c9e:	e8 4a e6 ff ff       	callq  4042ed <_ZN2cl6detailL10errHandlerEiPKc>
  405ca3:	48 83 bd 20 ff ff ff 	cmpq   $0x0,-0xe0(%rbp)
  405caa:	00 
  405cab:	74 0d                	je     405cba <_ZN2cl7ContextC1EmPlPFvPKcPKvmPvES6_Pi+0x23a>
  405cad:	48 8b 85 20 ff ff ff 	mov    -0xe0(%rbp),%rax
  405cb4:	c7 00 ff ff ff ff    	movl   $0xffffffff,(%rax)
  405cba:	bb 00 00 00 00       	mov    $0x0,%ebx
  405cbf:	eb 1b                	jmp    405cdc <_ZN2cl7ContextC1EmPlPFvPKcPKvmPvES6_Pi+0x25c>
  405cc1:	48 8b 85 58 ff ff ff 	mov    -0xa8(%rbp),%rax
  405cc8:	48 89 45 c8          	mov    %rax,-0x38(%rbp)
  405ccc:	48 8d 45 c0          	lea    -0x40(%rbp),%rax
  405cd0:	48 89 85 38 ff ff ff 	mov    %rax,-0xc8(%rbp)
  405cd7:	bb 01 00 00 00       	mov    $0x1,%ebx
  405cdc:	48 8d 85 60 ff ff ff 	lea    -0xa0(%rbp),%rax
  405ce3:	48 89 c7             	mov    %rax,%rdi
  405ce6:	e8 a7 1e 00 00       	callq  407b92 <_ZNSt6vectorIN2cl8PlatformESaIS1_EED1Ev>
  405ceb:	83 fb 01             	cmp    $0x1,%ebx
  405cee:	0f 85 fe 00 00 00    	jne    405df2 <_ZN2cl7ContextC1EmPlPFvPKcPKvmPvES6_Pi+0x372>
  405cf4:	90                   	nop
  405cf5:	48 8d bd 50 ff ff ff 	lea    -0xb0(%rbp),%rdi
  405cfc:	48 8b 8d 28 ff ff ff 	mov    -0xd8(%rbp),%rcx
  405d03:	48 8b 95 30 ff ff ff 	mov    -0xd0(%rbp),%rdx
  405d0a:	48 8b b5 40 ff ff ff 	mov    -0xc0(%rbp),%rsi
  405d11:	48 8b 85 38 ff ff ff 	mov    -0xc8(%rbp),%rax
  405d18:	49 89 f8             	mov    %rdi,%r8
  405d1b:	48 89 c7             	mov    %rax,%rdi
  405d1e:	e8 3d e3 ff ff       	callq  404060 <clCreateContextFromType@plt>
  405d23:	48 89 c2             	mov    %rax,%rdx
  405d26:	48 8b 85 48 ff ff ff 	mov    -0xb8(%rbp),%rax
  405d2d:	48 89 10             	mov    %rdx,(%rax)
  405d30:	8b 85 50 ff ff ff    	mov    -0xb0(%rbp),%eax
  405d36:	be d1 c6 40 00       	mov    $0x40c6d1,%esi
  405d3b:	89 c7                	mov    %eax,%edi
  405d3d:	e8 ab e5 ff ff       	callq  4042ed <_ZN2cl6detailL10errHandlerEiPKc>
  405d42:	48 83 bd 20 ff ff ff 	cmpq   $0x0,-0xe0(%rbp)
  405d49:	00 
  405d4a:	0f 84 a2 00 00 00    	je     405df2 <_ZN2cl7ContextC1EmPlPFvPKcPKvmPvES6_Pi+0x372>
  405d50:	8b 95 50 ff ff ff    	mov    -0xb0(%rbp),%edx
  405d56:	48 8b 85 20 ff ff ff 	mov    -0xe0(%rbp),%rax
  405d5d:	89 10                	mov    %edx,(%rax)
  405d5f:	e9 8e 00 00 00       	jmpq   405df2 <_ZN2cl7ContextC1EmPlPFvPKcPKvmPvES6_Pi+0x372>
  405d64:	48 89 c3             	mov    %rax,%rbx
  405d67:	48 89 d0             	mov    %rdx,%rax
  405d6a:	48 83 f8 01          	cmp    $0x1,%rax
  405d6e:	74 02                	je     405d72 <_ZN2cl7ContextC1EmPlPFvPKcPKvmPvES6_Pi+0x2f2>
  405d70:	eb 41                	jmp    405db3 <_ZN2cl7ContextC1EmPlPFvPKcPKvmPvES6_Pi+0x333>
  405d72:	48 89 d8             	mov    %rbx,%rax
  405d75:	48 89 c7             	mov    %rax,%rdi
  405d78:	e8 53 e1 ff ff       	callq  403ed0 <__cxa_get_exception_ptr@plt>
  405d7d:	48 89 c2             	mov    %rax,%rdx
  405d80:	48 8d 45 a0          	lea    -0x60(%rbp),%rax
  405d84:	48 89 d6             	mov    %rdx,%rsi
  405d87:	48 89 c7             	mov    %rax,%rdi
  405d8a:	e8 47 ef ff ff       	callq  404cd6 <_ZN2cl5ErrorC1ERKS0_>
  405d8f:	48 89 d8             	mov    %rbx,%rax
  405d92:	48 89 c7             	mov    %rax,%rdi
  405d95:	e8 66 df ff ff       	callq  403d00 <__cxa_begin_catch@plt>
  405d9a:	48 8d 45 a0          	lea    -0x60(%rbp),%rax
  405d9e:	48 89 c7             	mov    %rax,%rdi
  405da1:	e8 7a ee ff ff       	callq  404c20 <_ZN2cl5ErrorD1Ev>
  405da6:	e8 15 e2 ff ff       	callq  403fc0 <__cxa_end_catch@plt>
  405dab:	e9 30 fe ff ff       	jmpq   405be0 <_ZN2cl7ContextC1EmPlPFvPKcPKvmPvES6_Pi+0x160>
  405db0:	48 89 c3             	mov    %rax,%rbx
  405db3:	48 8d 45 80          	lea    -0x80(%rbp),%rax
  405db7:	48 89 c7             	mov    %rax,%rdi
  405dba:	e8 59 1e 00 00       	callq  407c18 <_ZNSt6vectorIN2cl6DeviceESaIS1_EED1Ev>
  405dbf:	eb 03                	jmp    405dc4 <_ZN2cl7ContextC1EmPlPFvPKcPKvmPvES6_Pi+0x344>
  405dc1:	48 89 c3             	mov    %rax,%rbx
  405dc4:	48 8d 85 60 ff ff ff 	lea    -0xa0(%rbp),%rax
  405dcb:	48 89 c7             	mov    %rax,%rdi
  405dce:	e8 bf 1d 00 00       	callq  407b92 <_ZNSt6vectorIN2cl8PlatformESaIS1_EED1Ev>
  405dd3:	eb 03                	jmp    405dd8 <_ZN2cl7ContextC1EmPlPFvPKcPKvmPvES6_Pi+0x358>
  405dd5:	48 89 c3             	mov    %rax,%rbx
  405dd8:	48 8b 85 48 ff ff ff 	mov    -0xb8(%rbp),%rax
  405ddf:	48 89 c7             	mov    %rax,%rdi
  405de2:	e8 2b 1d 00 00       	callq  407b12 <_ZN2cl6detail7WrapperIP11_cl_contextED1Ev>
  405de7:	48 89 d8             	mov    %rbx,%rax
  405dea:	48 89 c7             	mov    %rax,%rdi
  405ded:	e8 7e e2 ff ff       	callq  404070 <_Unwind_Resume@plt>
  405df2:	48 8b 45 e8          	mov    -0x18(%rbp),%rax
  405df6:	64 48 33 04 25 28 00 	xor    %fs:0x28,%rax
  405dfd:	00 00 
  405dff:	74 05                	je     405e06 <_ZN2cl7ContextC1EmPlPFvPKcPKvmPvES6_Pi+0x386>
  405e01:	e8 4a e0 ff ff       	callq  403e50 <__stack_chk_fail@plt>
  405e06:	48 81 c4 d8 00 00 00 	add    $0xd8,%rsp
  405e0d:	5b                   	pop    %rbx
  405e0e:	5d                   	pop    %rbp
  405e0f:	c3                   	retq   

0000000000405e10 <_ZN2cl7ContextC1ERKS0_>:
  405e10:	55                   	push   %rbp
  405e11:	48 89 e5             	mov    %rsp,%rbp
  405e14:	48 83 ec 10          	sub    $0x10,%rsp
  405e18:	48 89 7d f8          	mov    %rdi,-0x8(%rbp)
  405e1c:	48 89 75 f0          	mov    %rsi,-0x10(%rbp)
  405e20:	48 8b 55 f0          	mov    -0x10(%rbp),%rdx
  405e24:	48 8b 45 f8          	mov    -0x8(%rbp),%rax
  405e28:	48 89 d6             	mov    %rdx,%rsi
  405e2b:	48 89 c7             	mov    %rax,%rdi
  405e2e:	e8 37 1e 00 00       	callq  407c6a <_ZN2cl6detail7WrapperIP11_cl_contextEC1ERKS4_>
  405e33:	90                   	nop
  405e34:	c9                   	leaveq 
  405e35:	c3                   	retq   

0000000000405e36 <_ZSt4moveIRN2cl7ContextEEONSt16remove_referenceIT_E4typeEOS4_>:
  405e36:	55                   	push   %rbp
  405e37:	48 89 e5             	mov    %rsp,%rbp
  405e3a:	48 89 7d f8          	mov    %rdi,-0x8(%rbp)
  405e3e:	48 8b 45 f8          	mov    -0x8(%rbp),%rax
  405e42:	5d                   	pop    %rbp
  405e43:	c3                   	retq   

0000000000405e44 <_ZN2cl7ContextaSEOS0_>:
  405e44:	55                   	push   %rbp
  405e45:	48 89 e5             	mov    %rsp,%rbp
  405e48:	48 83 ec 10          	sub    $0x10,%rsp
  405e4c:	48 89 7d f8          	mov    %rdi,-0x8(%rbp)
  405e50:	48 89 75 f0          	mov    %rsi,-0x10(%rbp)
  405e54:	48 8b 45 f0          	mov    -0x10(%rbp),%rax
  405e58:	48 89 c7             	mov    %rax,%rdi
  405e5b:	e8 d6 ff ff ff       	callq  405e36 <_ZSt4moveIRN2cl7ContextEEONSt16remove_referenceIT_E4typeEOS4_>
  405e60:	48 89 c2             	mov    %rax,%rdx
  405e63:	48 8b 45 f8          	mov    -0x8(%rbp),%rax
  405e67:	48 89 d6             	mov    %rdx,%rsi
  405e6a:	48 89 c7             	mov    %rax,%rdi
  405e6d:	e8 32 1e 00 00       	callq  407ca4 <_ZN2cl6detail7WrapperIP11_cl_contextEaSEOS4_>
  405e72:	48 8b 45 f8          	mov    -0x8(%rbp),%rax
  405e76:	c9                   	leaveq 
  405e77:	c3                   	retq   

0000000000405e78 <_ZN2cl7Context10getDefaultEPi>:
  405e78:	55                   	push   %rbp
  405e79:	48 89 e5             	mov    %rsp,%rbp
  405e7c:	48 83 ec 10          	sub    $0x10,%rsp
  405e80:	48 89 7d f8          	mov    %rdi,-0x8(%rbp)
  405e84:	48 89 75 f0          	mov    %rsi,-0x10(%rbp)
  405e88:	be 43 59 40 00       	mov    $0x405943,%esi
  405e8d:	bf 14 37 61 00       	mov    $0x613714,%edi
  405e92:	e8 ae 16 00 00       	callq  407545 <_ZSt9call_onceIRFvvEIEEvRSt9once_flagOT_DpOT0_>
  405e97:	8b 05 83 d8 20 00    	mov    0x20d883(%rip),%eax        # 613720 <_ZN2cl7Context14default_error_E>
  405e9d:	be 00 00 00 00       	mov    $0x0,%esi
  405ea2:	89 c7                	mov    %eax,%edi
  405ea4:	e8 44 e4 ff ff       	callq  4042ed <_ZN2cl6detailL10errHandlerEiPKc>
  405ea9:	48 83 7d f0 00       	cmpq   $0x0,-0x10(%rbp)
  405eae:	74 0c                	je     405ebc <_ZN2cl7Context10getDefaultEPi+0x44>
  405eb0:	8b 15 6a d8 20 00    	mov    0x20d86a(%rip),%edx        # 613720 <_ZN2cl7Context14default_error_E>
  405eb6:	48 8b 45 f0          	mov    -0x10(%rbp),%rax
  405eba:	89 10                	mov    %edx,(%rax)
  405ebc:	48 8b 45 f8          	mov    -0x8(%rbp),%rax
  405ec0:	be 18 37 61 00       	mov    $0x613718,%esi
  405ec5:	48 89 c7             	mov    %rax,%rdi
  405ec8:	e8 43 ff ff ff       	callq  405e10 <_ZN2cl7ContextC1ERKS0_>
  405ecd:	48 8b 45 f8          	mov    -0x8(%rbp),%rax
  405ed1:	c9                   	leaveq 
  405ed2:	c3                   	retq   
  405ed3:	90                   	nop

0000000000405ed4 <_ZN2cl7ContextC1Ev>:
  405ed4:	55                   	push   %rbp
  405ed5:	48 89 e5             	mov    %rsp,%rbp
  405ed8:	48 83 ec 10          	sub    $0x10,%rsp
  405edc:	48 89 7d f8          	mov    %rdi,-0x8(%rbp)
  405ee0:	48 8b 45 f8          	mov    -0x8(%rbp),%rax
  405ee4:	48 89 c7             	mov    %rax,%rdi
  405ee7:	e8 4e 1c 00 00       	callq  407b3a <_ZN2cl6detail7WrapperIP11_cl_contextEC1Ev>
  405eec:	90                   	nop
  405eed:	c9                   	leaveq 
  405eee:	c3                   	retq   
  405eef:	90                   	nop

0000000000405ef0 <_ZN2cl6Device11makeDefaultEv>:
  405ef0:	55                   	push   %rbp
  405ef1:	48 89 e5             	mov    %rsp,%rbp
  405ef4:	41 54                	push   %r12
  405ef6:	53                   	push   %rbx
  405ef7:	48 83 ec 40          	sub    $0x40,%rsp
  405efb:	64 48 8b 04 25 28 00 	mov    %fs:0x28,%rax
  405f02:	00 00 
  405f04:	48 89 45 e8          	mov    %rax,-0x18(%rbp)
  405f08:	31 c0                	xor    %eax,%eax
  405f0a:	c7 45 bc 00 00 00 00 	movl   $0x0,-0x44(%rbp)
  405f11:	48 8d 45 c0          	lea    -0x40(%rbp),%rax
  405f15:	48 8d 55 bc          	lea    -0x44(%rbp),%rdx
  405f19:	48 89 d6             	mov    %rdx,%rsi
  405f1c:	48 89 c7             	mov    %rax,%rdi
  405f1f:	e8 54 ff ff ff       	callq  405e78 <_ZN2cl7Context10getDefaultEPi>
  405f24:	8b 45 bc             	mov    -0x44(%rbp),%eax
  405f27:	be e9 c6 40 00       	mov    $0x40c6e9,%esi
  405f2c:	89 c7                	mov    %eax,%edi
  405f2e:	e8 ba e3 ff ff       	callq  4042ed <_ZN2cl6detailL10errHandlerEiPKc>
  405f33:	8b 45 bc             	mov    -0x44(%rbp),%eax
  405f36:	85 c0                	test   %eax,%eax
  405f38:	74 0b                	je     405f45 <_ZN2cl6Device11makeDefaultEv+0x55>
  405f3a:	8b 45 bc             	mov    -0x44(%rbp),%eax
  405f3d:	89 05 bd d7 20 00    	mov    %eax,0x20d7bd(%rip)        # 613700 <_ZN2cl6Device14default_error_E>
  405f43:	eb 4c                	jmp    405f91 <_ZN2cl6Device11makeDefaultEv+0xa1>
  405f45:	48 8d 45 d0          	lea    -0x30(%rbp),%rax
  405f49:	48 8d 4d c0          	lea    -0x40(%rbp),%rcx
  405f4d:	ba 00 00 00 00       	mov    $0x0,%edx
  405f52:	48 89 ce             	mov    %rcx,%rsi
  405f55:	48 89 c7             	mov    %rax,%rdi
  405f58:	e8 99 1d 00 00       	callq  407cf6 <_ZNK2cl7Context7getInfoILi4225EEENS_6detail12param_traitsINS2_15cl_context_infoEXT_EE10param_typeEPi>
  405f5d:	48 8d 45 d0          	lea    -0x30(%rbp),%rax
  405f61:	be 00 00 00 00       	mov    $0x0,%esi
  405f66:	48 89 c7             	mov    %rax,%rdi
  405f69:	e8 5c 1a 00 00       	callq  4079ca <_ZNSt6vectorIN2cl6DeviceESaIS1_EEixEm>
  405f6e:	48 89 c6             	mov    %rax,%rsi
  405f71:	bf f0 36 61 00       	mov    $0x6136f0,%edi
  405f76:	e8 ef f1 ff ff       	callq  40516a <_ZN2cl6DeviceaSERKS0_>
  405f7b:	48 8d 45 d0          	lea    -0x30(%rbp),%rax
  405f7f:	48 89 c7             	mov    %rax,%rdi
  405f82:	e8 91 1c 00 00       	callq  407c18 <_ZNSt6vectorIN2cl6DeviceESaIS1_EED1Ev>
  405f87:	c7 05 6f d7 20 00 00 	movl   $0x0,0x20d76f(%rip)        # 613700 <_ZN2cl6Device14default_error_E>
  405f8e:	00 00 00 
  405f91:	48 8d 45 c0          	lea    -0x40(%rbp),%rax
  405f95:	48 89 c7             	mov    %rax,%rdi
  405f98:	e8 8b f9 ff ff       	callq  405928 <_ZN2cl7ContextD1Ev>
  405f9d:	eb 5f                	jmp    405ffe <_ZN2cl6Device11makeDefaultEv+0x10e>
  405f9f:	49 89 c4             	mov    %rax,%r12
  405fa2:	48 89 d3             	mov    %rdx,%rbx
  405fa5:	48 8d 45 d0          	lea    -0x30(%rbp),%rax
  405fa9:	48 89 c7             	mov    %rax,%rdi
  405fac:	e8 67 1c 00 00       	callq  407c18 <_ZNSt6vectorIN2cl6DeviceESaIS1_EED1Ev>
  405fb1:	eb 06                	jmp    405fb9 <_ZN2cl6Device11makeDefaultEv+0xc9>
  405fb3:	49 89 c4             	mov    %rax,%r12
  405fb6:	48 89 d3             	mov    %rdx,%rbx
  405fb9:	48 8d 45 c0          	lea    -0x40(%rbp),%rax
  405fbd:	48 89 c7             	mov    %rax,%rdi
  405fc0:	e8 63 f9 ff ff       	callq  405928 <_ZN2cl7ContextD1Ev>
  405fc5:	4c 89 e0             	mov    %r12,%rax
  405fc8:	48 89 da             	mov    %rbx,%rdx
  405fcb:	eb 00                	jmp    405fcd <_ZN2cl6Device11makeDefaultEv+0xdd>
  405fcd:	48 83 fa 01          	cmp    $0x1,%rdx
  405fd1:	74 08                	je     405fdb <_ZN2cl6Device11makeDefaultEv+0xeb>
  405fd3:	48 89 c7             	mov    %rax,%rdi
  405fd6:	e8 95 e0 ff ff       	callq  404070 <_Unwind_Resume@plt>
  405fdb:	48 89 c7             	mov    %rax,%rdi
  405fde:	e8 1d dd ff ff       	callq  403d00 <__cxa_begin_catch@plt>
  405fe3:	48 89 45 c8          	mov    %rax,-0x38(%rbp)
  405fe7:	48 8b 45 c8          	mov    -0x38(%rbp),%rax
  405feb:	48 89 c7             	mov    %rax,%rdi
  405fee:	e8 b5 ec ff ff       	callq  404ca8 <_ZNK2cl5Error3errEv>
  405ff3:	89 05 07 d7 20 00    	mov    %eax,0x20d707(%rip)        # 613700 <_ZN2cl6Device14default_error_E>
  405ff9:	e8 c2 df ff ff       	callq  403fc0 <__cxa_end_catch@plt>
  405ffe:	90                   	nop
  405fff:	48 8b 45 e8          	mov    -0x18(%rbp),%rax
  406003:	64 48 33 04 25 28 00 	xor    %fs:0x28,%rax
  40600a:	00 00 
  40600c:	74 05                	je     406013 <_ZN2cl6Device11makeDefaultEv+0x123>
  40600e:	e8 3d de ff ff       	callq  403e50 <__stack_chk_fail@plt>
  406013:	48 83 c4 40          	add    $0x40,%rsp
  406017:	5b                   	pop    %rbx
  406018:	41 5c                	pop    %r12
  40601a:	5d                   	pop    %rbp
  40601b:	c3                   	retq   

000000000040601c <_ZN2cl7NDRangeC1Ev>:
  40601c:	55                   	push   %rbp
  40601d:	48 89 e5             	mov    %rsp,%rbp
  406020:	48 89 7d f8          	mov    %rdi,-0x8(%rbp)
  406024:	48 8b 45 f8          	mov    -0x8(%rbp),%rax
  406028:	c7 40 18 00 00 00 00 	movl   $0x0,0x18(%rax)
  40602f:	48 8b 45 f8          	mov    -0x8(%rbp),%rax
  406033:	48 c7 00 00 00 00 00 	movq   $0x0,(%rax)
  40603a:	48 8b 45 f8          	mov    -0x8(%rbp),%rax
  40603e:	48 c7 40 08 00 00 00 	movq   $0x0,0x8(%rax)
  406045:	00 
  406046:	48 8b 45 f8          	mov    -0x8(%rbp),%rax
  40604a:	48 c7 40 10 00 00 00 	movq   $0x0,0x10(%rax)
  406051:	00 
  406052:	90                   	nop
  406053:	5d                   	pop    %rbp
  406054:	c3                   	retq   
  406055:	90                   	nop

0000000000406056 <_ZN2cl7NDRangeC1Emm>:
  406056:	55                   	push   %rbp
  406057:	48 89 e5             	mov    %rsp,%rbp
  40605a:	48 89 7d f8          	mov    %rdi,-0x8(%rbp)
  40605e:	48 89 75 f0          	mov    %rsi,-0x10(%rbp)
  406062:	48 89 55 e8          	mov    %rdx,-0x18(%rbp)
  406066:	48 8b 45 f8          	mov    -0x8(%rbp),%rax
  40606a:	c7 40 18 02 00 00 00 	movl   $0x2,0x18(%rax)
  406071:	48 8b 45 f8          	mov    -0x8(%rbp),%rax
  406075:	48 8b 55 f0          	mov    -0x10(%rbp),%rdx
  406079:	48 89 10             	mov    %rdx,(%rax)
  40607c:	48 8b 45 f8          	mov    -0x8(%rbp),%rax
  406080:	48 8b 55 e8          	mov    -0x18(%rbp),%rdx
  406084:	48 89 50 08          	mov    %rdx,0x8(%rax)
  406088:	48 8b 45 f8          	mov    -0x8(%rbp),%rax
  40608c:	48 c7 40 10 01 00 00 	movq   $0x1,0x10(%rax)
  406093:	00 
  406094:	90                   	nop
  406095:	5d                   	pop    %rbp
  406096:	c3                   	retq   
  406097:	90                   	nop

0000000000406098 <_ZN2cl6KernelD1Ev>:
  406098:	55                   	push   %rbp
  406099:	48 89 e5             	mov    %rsp,%rbp
  40609c:	48 83 ec 10          	sub    $0x10,%rsp
  4060a0:	48 89 7d f8          	mov    %rdi,-0x8(%rbp)
  4060a4:	48 8b 45 f8          	mov    -0x8(%rbp),%rax
  4060a8:	48 89 c7             	mov    %rax,%rdi
  4060ab:	e8 e8 1c 00 00       	callq  407d98 <_ZN2cl6detail7WrapperIP10_cl_kernelED1Ev>
  4060b0:	90                   	nop
  4060b1:	c9                   	leaveq 
  4060b2:	c3                   	retq   
  4060b3:	90                   	nop

00000000004060b4 <_ZN2cl12CommandQueueD1Ev>:
  4060b4:	55                   	push   %rbp
  4060b5:	48 89 e5             	mov    %rsp,%rbp
  4060b8:	48 83 ec 10          	sub    $0x10,%rsp
  4060bc:	48 89 7d f8          	mov    %rdi,-0x8(%rbp)
  4060c0:	48 8b 45 f8          	mov    -0x8(%rbp),%rax
  4060c4:	48 89 c7             	mov    %rax,%rdi
  4060c7:	e8 f4 1c 00 00       	callq  407dc0 <_ZN2cl6detail7WrapperIP17_cl_command_queueED1Ev>
  4060cc:	90                   	nop
  4060cd:	c9                   	leaveq 
  4060ce:	c3                   	retq   

00000000004060cf <_ZN2cl12CommandQueue11makeDefaultEv>:
  4060cf:	55                   	push   %rbp
  4060d0:	48 89 e5             	mov    %rsp,%rbp
  4060d3:	41 54                	push   %r12
  4060d5:	53                   	push   %rbx
  4060d6:	48 83 ec 50          	sub    $0x50,%rsp
  4060da:	64 48 8b 04 25 28 00 	mov    %fs:0x28,%rax
  4060e1:	00 00 
  4060e3:	48 89 45 e8          	mov    %rax,-0x18(%rbp)
  4060e7:	31 c0                	xor    %eax,%eax
  4060e9:	48 8d 45 b0          	lea    -0x50(%rbp),%rax
  4060ed:	48 8d 55 ac          	lea    -0x54(%rbp),%rdx
  4060f1:	48 89 d6             	mov    %rdx,%rsi
  4060f4:	48 89 c7             	mov    %rax,%rdi
  4060f7:	e8 7c fd ff ff       	callq  405e78 <_ZN2cl7Context10getDefaultEPi>
  4060fc:	8b 45 ac             	mov    -0x54(%rbp),%eax
  4060ff:	85 c0                	test   %eax,%eax
  406101:	74 0b                	je     40610e <_ZN2cl12CommandQueue11makeDefaultEv+0x3f>
  406103:	8b 45 ac             	mov    -0x54(%rbp),%eax
  406106:	89 05 24 d6 20 00    	mov    %eax,0x20d624(%rip)        # 613730 <_ZN2cl12CommandQueue14default_error_E>
  40610c:	eb 59                	jmp    406167 <_ZN2cl12CommandQueue11makeDefaultEv+0x98>
  40610e:	48 8d 45 d0          	lea    -0x30(%rbp),%rax
  406112:	be 00 00 00 00       	mov    $0x0,%esi
  406117:	48 89 c7             	mov    %rax,%rdi
  40611a:	e8 ca ef ff ff       	callq  4050e9 <_ZN2cl6Device10getDefaultEPi>
  40611f:	48 8d 55 d0          	lea    -0x30(%rbp),%rdx
  406123:	48 8d 75 b0          	lea    -0x50(%rbp),%rsi
  406127:	48 8d 45 c0          	lea    -0x40(%rbp),%rax
  40612b:	41 b8 30 37 61 00    	mov    $0x613730,%r8d
  406131:	b9 00 00 00 00       	mov    $0x0,%ecx
  406136:	48 89 c7             	mov    %rax,%rdi
  406139:	e8 c8 00 00 00       	callq  406206 <_ZN2cl12CommandQueueC1ERKNS_7ContextERKNS_6DeviceEmPi>
  40613e:	48 8d 45 c0          	lea    -0x40(%rbp),%rax
  406142:	48 89 c6             	mov    %rax,%rsi
  406145:	bf 28 37 61 00       	mov    $0x613728,%edi
  40614a:	e8 2d 02 00 00       	callq  40637c <_ZN2cl12CommandQueueaSEOS0_>
  40614f:	48 8d 45 c0          	lea    -0x40(%rbp),%rax
  406153:	48 89 c7             	mov    %rax,%rdi
  406156:	e8 59 ff ff ff       	callq  4060b4 <_ZN2cl12CommandQueueD1Ev>
  40615b:	48 8d 45 d0          	lea    -0x30(%rbp),%rax
  40615f:	48 89 c7             	mov    %rax,%rdi
  406162:	e8 67 ef ff ff       	callq  4050ce <_ZN2cl6DeviceD1Ev>
  406167:	48 8d 45 b0          	lea    -0x50(%rbp),%rax
  40616b:	48 89 c7             	mov    %rax,%rdi
  40616e:	e8 b5 f7 ff ff       	callq  405928 <_ZN2cl7ContextD1Ev>
  406173:	eb 73                	jmp    4061e8 <_ZN2cl12CommandQueue11makeDefaultEv+0x119>
  406175:	49 89 c4             	mov    %rax,%r12
  406178:	48 89 d3             	mov    %rdx,%rbx
  40617b:	48 8d 45 c0          	lea    -0x40(%rbp),%rax
  40617f:	48 89 c7             	mov    %rax,%rdi
  406182:	e8 2d ff ff ff       	callq  4060b4 <_ZN2cl12CommandQueueD1Ev>
  406187:	eb 06                	jmp    40618f <_ZN2cl12CommandQueue11makeDefaultEv+0xc0>
  406189:	49 89 c4             	mov    %rax,%r12
  40618c:	48 89 d3             	mov    %rdx,%rbx
  40618f:	48 8d 45 d0          	lea    -0x30(%rbp),%rax
  406193:	48 89 c7             	mov    %rax,%rdi
  406196:	e8 33 ef ff ff       	callq  4050ce <_ZN2cl6DeviceD1Ev>
  40619b:	eb 06                	jmp    4061a3 <_ZN2cl12CommandQueue11makeDefaultEv+0xd4>
  40619d:	49 89 c4             	mov    %rax,%r12
  4061a0:	48 89 d3             	mov    %rdx,%rbx
  4061a3:	48 8d 45 b0          	lea    -0x50(%rbp),%rax
  4061a7:	48 89 c7             	mov    %rax,%rdi
  4061aa:	e8 79 f7 ff ff       	callq  405928 <_ZN2cl7ContextD1Ev>
  4061af:	4c 89 e0             	mov    %r12,%rax
  4061b2:	48 89 da             	mov    %rbx,%rdx
  4061b5:	eb 00                	jmp    4061b7 <_ZN2cl12CommandQueue11makeDefaultEv+0xe8>
  4061b7:	48 83 fa 01          	cmp    $0x1,%rdx
  4061bb:	74 08                	je     4061c5 <_ZN2cl12CommandQueue11makeDefaultEv+0xf6>
  4061bd:	48 89 c7             	mov    %rax,%rdi
  4061c0:	e8 ab de ff ff       	callq  404070 <_Unwind_Resume@plt>
  4061c5:	48 89 c7             	mov    %rax,%rdi
  4061c8:	e8 33 db ff ff       	callq  403d00 <__cxa_begin_catch@plt>
  4061cd:	48 89 45 c8          	mov    %rax,-0x38(%rbp)
  4061d1:	48 8b 45 c8          	mov    -0x38(%rbp),%rax
  4061d5:	48 89 c7             	mov    %rax,%rdi
  4061d8:	e8 cb ea ff ff       	callq  404ca8 <_ZNK2cl5Error3errEv>
  4061dd:	89 05 4d d5 20 00    	mov    %eax,0x20d54d(%rip)        # 613730 <_ZN2cl12CommandQueue14default_error_E>
  4061e3:	e8 d8 dd ff ff       	callq  403fc0 <__cxa_end_catch@plt>
  4061e8:	90                   	nop
  4061e9:	48 8b 45 e8          	mov    -0x18(%rbp),%rax
  4061ed:	64 48 33 04 25 28 00 	xor    %fs:0x28,%rax
  4061f4:	00 00 
  4061f6:	74 05                	je     4061fd <_ZN2cl12CommandQueue11makeDefaultEv+0x12e>
  4061f8:	e8 53 dc ff ff       	callq  403e50 <__stack_chk_fail@plt>
  4061fd:	48 83 c4 50          	add    $0x50,%rsp
  406201:	5b                   	pop    %rbx
  406202:	41 5c                	pop    %r12
  406204:	5d                   	pop    %rbp
  406205:	c3                   	retq   

0000000000406206 <_ZN2cl12CommandQueueC1ERKNS_7ContextERKNS_6DeviceEmPi>:
  406206:	55                   	push   %rbp
  406207:	48 89 e5             	mov    %rsp,%rbp
  40620a:	53                   	push   %rbx
  40620b:	48 83 ec 48          	sub    $0x48,%rsp
  40620f:	48 89 7d d8          	mov    %rdi,-0x28(%rbp)
  406213:	48 89 75 d0          	mov    %rsi,-0x30(%rbp)
  406217:	48 89 55 c8          	mov    %rdx,-0x38(%rbp)
  40621b:	48 89 4d c0          	mov    %rcx,-0x40(%rbp)
  40621f:	4c 89 45 b8          	mov    %r8,-0x48(%rbp)
  406223:	64 48 8b 04 25 28 00 	mov    %fs:0x28,%rax
  40622a:	00 00 
  40622c:	48 89 45 e8          	mov    %rax,-0x18(%rbp)
  406230:	31 c0                	xor    %eax,%eax
  406232:	48 8b 45 d8          	mov    -0x28(%rbp),%rax
  406236:	48 89 c7             	mov    %rax,%rdi
  406239:	e8 aa 1b 00 00       	callq  407de8 <_ZN2cl6detail7WrapperIP17_cl_command_queueEC1Ev>
  40623e:	48 8b 45 c8          	mov    -0x38(%rbp),%rax
  406242:	48 89 c7             	mov    %rax,%rdi
  406245:	e8 b2 ed ff ff       	callq  404ffc <_ZNK2cl6detail7WrapperIP13_cl_device_idEclEv>
  40624a:	48 8b 18             	mov    (%rax),%rbx
  40624d:	48 8b 45 d0          	mov    -0x30(%rbp),%rax
  406251:	48 89 c7             	mov    %rax,%rdi
  406254:	e8 31 1b 00 00       	callq  407d8a <_ZNK2cl6detail7WrapperIP11_cl_contextEclEv>
  406259:	48 8b 00             	mov    (%rax),%rax
  40625c:	48 8d 4d e4          	lea    -0x1c(%rbp),%rcx
  406260:	48 8b 55 c0          	mov    -0x40(%rbp),%rdx
  406264:	48 89 de             	mov    %rbx,%rsi
  406267:	48 89 c7             	mov    %rax,%rdi
  40626a:	e8 b1 dd ff ff       	callq  404020 <clCreateCommandQueue@plt>
  40626f:	48 89 c2             	mov    %rax,%rdx
  406272:	48 8b 45 d8          	mov    -0x28(%rbp),%rax
  406276:	48 89 10             	mov    %rdx,(%rax)
  406279:	8b 45 e4             	mov    -0x1c(%rbp),%eax
  40627c:	be f9 c6 40 00       	mov    $0x40c6f9,%esi
  406281:	89 c7                	mov    %eax,%edi
  406283:	e8 65 e0 ff ff       	callq  4042ed <_ZN2cl6detailL10errHandlerEiPKc>
  406288:	48 83 7d b8 00       	cmpq   $0x0,-0x48(%rbp)
  40628d:	74 25                	je     4062b4 <_ZN2cl12CommandQueueC1ERKNS_7ContextERKNS_6DeviceEmPi+0xae>
  40628f:	8b 55 e4             	mov    -0x1c(%rbp),%edx
  406292:	48 8b 45 b8          	mov    -0x48(%rbp),%rax
  406296:	89 10                	mov    %edx,(%rax)
  406298:	eb 1a                	jmp    4062b4 <_ZN2cl12CommandQueueC1ERKNS_7ContextERKNS_6DeviceEmPi+0xae>
  40629a:	48 89 c3             	mov    %rax,%rbx
  40629d:	48 8b 45 d8          	mov    -0x28(%rbp),%rax
  4062a1:	48 89 c7             	mov    %rax,%rdi
  4062a4:	e8 17 1b 00 00       	callq  407dc0 <_ZN2cl6detail7WrapperIP17_cl_command_queueED1Ev>
  4062a9:	48 89 d8             	mov    %rbx,%rax
  4062ac:	48 89 c7             	mov    %rax,%rdi
  4062af:	e8 bc dd ff ff       	callq  404070 <_Unwind_Resume@plt>
  4062b4:	90                   	nop
  4062b5:	48 8b 45 e8          	mov    -0x18(%rbp),%rax
  4062b9:	64 48 33 04 25 28 00 	xor    %fs:0x28,%rax
  4062c0:	00 00 
  4062c2:	74 05                	je     4062c9 <_ZN2cl12CommandQueueC1ERKNS_7ContextERKNS_6DeviceEmPi+0xc3>
  4062c4:	e8 87 db ff ff       	callq  403e50 <__stack_chk_fail@plt>
  4062c9:	48 83 c4 48          	add    $0x48,%rsp
  4062cd:	5b                   	pop    %rbx
  4062ce:	5d                   	pop    %rbp
  4062cf:	c3                   	retq   

00000000004062d0 <_ZN2cl12CommandQueue10getDefaultEPi>:
  4062d0:	55                   	push   %rbp
  4062d1:	48 89 e5             	mov    %rsp,%rbp
  4062d4:	48 83 ec 10          	sub    $0x10,%rsp
  4062d8:	48 89 7d f8          	mov    %rdi,-0x8(%rbp)
  4062dc:	48 89 75 f0          	mov    %rsi,-0x10(%rbp)
  4062e0:	be cf 60 40 00       	mov    $0x4060cf,%esi
  4062e5:	bf 24 37 61 00       	mov    $0x613724,%edi
  4062ea:	e8 56 12 00 00       	callq  407545 <_ZSt9call_onceIRFvvEIEEvRSt9once_flagOT_DpOT0_>
  4062ef:	8b 05 3b d4 20 00    	mov    0x20d43b(%rip),%eax        # 613730 <_ZN2cl12CommandQueue14default_error_E>
  4062f5:	be f9 c6 40 00       	mov    $0x40c6f9,%esi
  4062fa:	89 c7                	mov    %eax,%edi
  4062fc:	e8 ec df ff ff       	callq  4042ed <_ZN2cl6detailL10errHandlerEiPKc>
  406301:	48 83 7d f0 00       	cmpq   $0x0,-0x10(%rbp)
  406306:	74 0c                	je     406314 <_ZN2cl12CommandQueue10getDefaultEPi+0x44>
  406308:	8b 15 22 d4 20 00    	mov    0x20d422(%rip),%edx        # 613730 <_ZN2cl12CommandQueue14default_error_E>
  40630e:	48 8b 45 f0          	mov    -0x10(%rbp),%rax
  406312:	89 10                	mov    %edx,(%rax)
  406314:	48 8b 45 f8          	mov    -0x8(%rbp),%rax
  406318:	be 28 37 61 00       	mov    $0x613728,%esi
  40631d:	48 89 c7             	mov    %rax,%rdi
  406320:	e8 23 00 00 00       	callq  406348 <_ZN2cl12CommandQueueC1ERKS0_>
  406325:	48 8b 45 f8          	mov    -0x8(%rbp),%rax
  406329:	c9                   	leaveq 
  40632a:	c3                   	retq   
  40632b:	90                   	nop

000000000040632c <_ZN2cl12CommandQueueC1Ev>:
  40632c:	55                   	push   %rbp
  40632d:	48 89 e5             	mov    %rsp,%rbp
  406330:	48 83 ec 10          	sub    $0x10,%rsp
  406334:	48 89 7d f8          	mov    %rdi,-0x8(%rbp)
  406338:	48 8b 45 f8          	mov    -0x8(%rbp),%rax
  40633c:	48 89 c7             	mov    %rax,%rdi
  40633f:	e8 a4 1a 00 00       	callq  407de8 <_ZN2cl6detail7WrapperIP17_cl_command_queueEC1Ev>
  406344:	90                   	nop
  406345:	c9                   	leaveq 
  406346:	c3                   	retq   
  406347:	90                   	nop

0000000000406348 <_ZN2cl12CommandQueueC1ERKS0_>:
  406348:	55                   	push   %rbp
  406349:	48 89 e5             	mov    %rsp,%rbp
  40634c:	48 83 ec 10          	sub    $0x10,%rsp
  406350:	48 89 7d f8          	mov    %rdi,-0x8(%rbp)
  406354:	48 89 75 f0          	mov    %rsi,-0x10(%rbp)
  406358:	48 8b 55 f0          	mov    -0x10(%rbp),%rdx
  40635c:	48 8b 45 f8          	mov    -0x8(%rbp),%rax
  406360:	48 89 d6             	mov    %rdx,%rsi
  406363:	48 89 c7             	mov    %rax,%rdi
  406366:	e8 cd 1a 00 00       	callq  407e38 <_ZN2cl6detail7WrapperIP17_cl_command_queueEC1ERKS4_>
  40636b:	90                   	nop
  40636c:	c9                   	leaveq 
  40636d:	c3                   	retq   

000000000040636e <_ZSt4moveIRN2cl12CommandQueueEEONSt16remove_referenceIT_E4typeEOS4_>:
  40636e:	55                   	push   %rbp
  40636f:	48 89 e5             	mov    %rsp,%rbp
  406372:	48 89 7d f8          	mov    %rdi,-0x8(%rbp)
  406376:	48 8b 45 f8          	mov    -0x8(%rbp),%rax
  40637a:	5d                   	pop    %rbp
  40637b:	c3                   	retq   

000000000040637c <_ZN2cl12CommandQueueaSEOS0_>:
  40637c:	55                   	push   %rbp
  40637d:	48 89 e5             	mov    %rsp,%rbp
  406380:	48 83 ec 10          	sub    $0x10,%rsp
  406384:	48 89 7d f8          	mov    %rdi,-0x8(%rbp)
  406388:	48 89 75 f0          	mov    %rsi,-0x10(%rbp)
  40638c:	48 8b 45 f0          	mov    -0x10(%rbp),%rax
  406390:	48 89 c7             	mov    %rax,%rdi
  406393:	e8 d6 ff ff ff       	callq  40636e <_ZSt4moveIRN2cl12CommandQueueEEONSt16remove_referenceIT_E4typeEOS4_>
  406398:	48 89 c2             	mov    %rax,%rdx
  40639b:	48 8b 45 f8          	mov    -0x8(%rbp),%rax
  40639f:	48 89 d6             	mov    %rdx,%rsi
  4063a2:	48 89 c7             	mov    %rax,%rdi
  4063a5:	e8 c8 1a 00 00       	callq  407e72 <_ZN2cl6detail7WrapperIP17_cl_command_queueEaSEOS4_>
  4063aa:	48 8b 45 f8          	mov    -0x8(%rbp),%rax
  4063ae:	c9                   	leaveq 
  4063af:	c3                   	retq   

00000000004063b0 <_ZNK2cl12CommandQueue6finishEv>:
  4063b0:	55                   	push   %rbp
  4063b1:	48 89 e5             	mov    %rsp,%rbp
  4063b4:	48 83 ec 10          	sub    $0x10,%rsp
  4063b8:	48 89 7d f8          	mov    %rdi,-0x8(%rbp)
  4063bc:	48 8b 45 f8          	mov    -0x8(%rbp),%rax
  4063c0:	48 8b 00             	mov    (%rax),%rax
  4063c3:	48 89 c7             	mov    %rax,%rdi
  4063c6:	e8 d5 d8 ff ff       	callq  403ca0 <clFinish@plt>
  4063cb:	be 0e c7 40 00       	mov    $0x40c70e,%esi
  4063d0:	89 c7                	mov    %eax,%edi
  4063d2:	e8 16 df ff ff       	callq  4042ed <_ZN2cl6detailL10errHandlerEiPKc>
  4063d7:	c9                   	leaveq 
  4063d8:	c3                   	retq   

00000000004063d9 <_ZSt4moveIRNSt7__cxx1112basic_stringIcSt11char_traitsIcESaIcEEEEONSt16remove_referenceIT_E4typeEOS8_>:
  4063d9:	55                   	push   %rbp
  4063da:	48 89 e5             	mov    %rsp,%rbp
  4063dd:	48 89 7d f8          	mov    %rdi,-0x8(%rbp)
  4063e1:	48 8b 45 f8          	mov    -0x8(%rbp),%rax
  4063e5:	5d                   	pop    %rbp
  4063e6:	c3                   	retq   
  4063e7:	90                   	nop

00000000004063e8 <_ZN11arm_compute15CLKernelLibrary4initENSt7__cxx1112basic_stringIcSt11char_traitsIcESaIcEEEN2cl7ContextENS7_6DeviceE>:
  4063e8:	55                   	push   %rbp
  4063e9:	48 89 e5             	mov    %rsp,%rbp
  4063ec:	48 83 ec 20          	sub    $0x20,%rsp
  4063f0:	48 89 7d f8          	mov    %rdi,-0x8(%rbp)
  4063f4:	48 89 75 f0          	mov    %rsi,-0x10(%rbp)
  4063f8:	48 89 55 e8          	mov    %rdx,-0x18(%rbp)
  4063fc:	48 89 4d e0          	mov    %rcx,-0x20(%rbp)
  406400:	48 8b 45 f0          	mov    -0x10(%rbp),%rax
  406404:	48 89 c7             	mov    %rax,%rdi
  406407:	e8 cd ff ff ff       	callq  4063d9 <_ZSt4moveIRNSt7__cxx1112basic_stringIcSt11char_traitsIcESaIcEEEEONSt16remove_referenceIT_E4typeEOS8_>
  40640c:	48 89 c2             	mov    %rax,%rdx
  40640f:	48 8b 45 f8          	mov    -0x8(%rbp),%rax
  406413:	48 83 c0 18          	add    $0x18,%rax
  406417:	48 89 d6             	mov    %rdx,%rsi
  40641a:	48 89 c7             	mov    %rax,%rdi
  40641d:	e8 8e da ff ff       	callq  403eb0 <_ZNSt7__cxx1112basic_stringIcSt11char_traitsIcESaIcEEaSEOS4_@plt>
  406422:	48 8b 45 e8          	mov    -0x18(%rbp),%rax
  406426:	48 89 c7             	mov    %rax,%rdi
  406429:	e8 08 fa ff ff       	callq  405e36 <_ZSt4moveIRN2cl7ContextEEONSt16remove_referenceIT_E4typeEOS4_>
  40642e:	48 89 c2             	mov    %rax,%rdx
  406431:	48 8b 45 f8          	mov    -0x8(%rbp),%rax
  406435:	48 89 d6             	mov    %rdx,%rsi
  406438:	48 89 c7             	mov    %rax,%rdi
  40643b:	e8 04 fa ff ff       	callq  405e44 <_ZN2cl7ContextaSEOS0_>
  406440:	48 8b 45 e0          	mov    -0x20(%rbp),%rax
  406444:	48 89 c7             	mov    %rax,%rdi
  406447:	e8 47 ed ff ff       	callq  405193 <_ZSt4moveIRN2cl6DeviceEEONSt16remove_referenceIT_E4typeEOS4_>
  40644c:	48 89 c2             	mov    %rax,%rdx
  40644f:	48 8b 45 f8          	mov    -0x8(%rbp),%rax
  406453:	48 83 c0 08          	add    $0x8,%rax
  406457:	48 89 d6             	mov    %rdx,%rsi
  40645a:	48 89 c7             	mov    %rax,%rdi
  40645d:	e8 72 ed ff ff       	callq  4051d4 <_ZN2cl6DeviceaSEOS0_>
  406462:	48 8b 45 f8          	mov    -0x8(%rbp),%rax
  406466:	48 c7 80 98 00 00 00 	movq   $0x0,0x98(%rax)
  40646d:	00 00 00 00 
  406471:	48 8b 45 f8          	mov    -0x8(%rbp),%rax
  406475:	48 89 c7             	mov    %rax,%rdi
  406478:	e8 a3 d9 ff ff       	callq  403e20 <_ZN11arm_compute15CLKernelLibrary24max_local_workgroup_sizeEv@plt>
  40647d:	90                   	nop
  40647e:	c9                   	leaveq 
  40647f:	c3                   	retq   

0000000000406480 <_ZN11arm_compute15CLKernelLibrary15set_kernel_pathERKNSt7__cxx1112basic_stringIcSt11char_traitsIcESaIcEEE>:
  406480:	55                   	push   %rbp
  406481:	48 89 e5             	mov    %rsp,%rbp
  406484:	48 83 ec 10          	sub    $0x10,%rsp
  406488:	48 89 7d f8          	mov    %rdi,-0x8(%rbp)
  40648c:	48 89 75 f0          	mov    %rsi,-0x10(%rbp)
  406490:	48 8b 45 f8          	mov    -0x8(%rbp),%rax
  406494:	48 8d 50 18          	lea    0x18(%rax),%rdx
  406498:	48 8b 45 f0          	mov    -0x10(%rbp),%rax
  40649c:	48 89 c6             	mov    %rax,%rsi
  40649f:	48 89 d7             	mov    %rdx,%rdi
  4064a2:	e8 99 d7 ff ff       	callq  403c40 <_ZNSt7__cxx1112basic_stringIcSt11char_traitsIcESaIcEEaSERKS4_@plt>
  4064a7:	90                   	nop
  4064a8:	c9                   	leaveq 
  4064a9:	c3                   	retq   

00000000004064aa <_ZN11arm_compute11TensorShape3setEmm>:
  4064aa:	55                   	push   %rbp
  4064ab:	48 89 e5             	mov    %rsp,%rbp
  4064ae:	53                   	push   %rbx
  4064af:	48 83 ec 38          	sub    $0x38,%rsp
  4064b3:	48 89 7d d8          	mov    %rdi,-0x28(%rbp)
  4064b7:	48 89 75 d0          	mov    %rsi,-0x30(%rbp)
  4064bb:	48 89 55 c8          	mov    %rdx,-0x38(%rbp)
  4064bf:	64 48 8b 04 25 28 00 	mov    %fs:0x28,%rax
  4064c6:	00 00 
  4064c8:	48 89 45 e8          	mov    %rax,-0x18(%rbp)
  4064cc:	31 c0                	xor    %eax,%eax
  4064ce:	48 83 7d c8 00       	cmpq   $0x0,-0x38(%rbp)
  4064d3:	75 45                	jne    40651a <_ZN11arm_compute11TensorShape3setEmm+0x70>
  4064d5:	48 8b 45 d8          	mov    -0x28(%rbp),%rax
  4064d9:	48 c7 40 30 00 00 00 	movq   $0x0,0x30(%rax)
  4064e0:	00 
  4064e1:	c7 45 e4 00 00 00 00 	movl   $0x0,-0x1c(%rbp)
  4064e8:	48 8b 45 d8          	mov    -0x28(%rbp),%rax
  4064ec:	48 89 c7             	mov    %rax,%rdi
  4064ef:	e8 ea 19 00 00       	callq  407ede <_ZNSt5arrayImLm6EE3endEv>
  4064f4:	48 89 c3             	mov    %rax,%rbx
  4064f7:	48 8b 45 d8          	mov    -0x28(%rbp),%rax
  4064fb:	48 89 c7             	mov    %rax,%rdi
  4064fe:	e8 c1 19 00 00       	callq  407ec4 <_ZNSt5arrayImLm6EE5beginEv>
  406503:	48 89 c1             	mov    %rax,%rcx
  406506:	48 8d 45 e4          	lea    -0x1c(%rbp),%rax
  40650a:	48 89 c2             	mov    %rax,%rdx
  40650d:	48 89 de             	mov    %rbx,%rsi
  406510:	48 89 cf             	mov    %rcx,%rdi
  406513:	e8 57 0f 00 00       	callq  40746f <_ZSt4fillIPmiEvT_S1_RKT0_>
  406518:	eb 6a                	jmp    406584 <_ZN11arm_compute11TensorShape3setEmm+0xda>
  40651a:	c7 45 e4 01 00 00 00 	movl   $0x1,-0x1c(%rbp)
  406521:	48 8b 45 d8          	mov    -0x28(%rbp),%rax
  406525:	48 89 c7             	mov    %rax,%rdi
  406528:	e8 b1 19 00 00       	callq  407ede <_ZNSt5arrayImLm6EE3endEv>
  40652d:	48 89 c3             	mov    %rax,%rbx
  406530:	48 8b 45 d8          	mov    -0x28(%rbp),%rax
  406534:	48 89 c7             	mov    %rax,%rdi
  406537:	e8 88 19 00 00       	callq  407ec4 <_ZNSt5arrayImLm6EE5beginEv>
  40653c:	48 89 c2             	mov    %rax,%rdx
  40653f:	48 8b 45 d8          	mov    -0x28(%rbp),%rax
  406543:	48 8b 40 30          	mov    0x30(%rax),%rax
  406547:	48 c1 e0 03          	shl    $0x3,%rax
  40654b:	48 8d 0c 02          	lea    (%rdx,%rax,1),%rcx
  40654f:	48 8d 45 e4          	lea    -0x1c(%rbp),%rax
  406553:	48 89 c2             	mov    %rax,%rdx
  406556:	48 89 de             	mov    %rbx,%rsi
  406559:	48 89 cf             	mov    %rcx,%rdi
  40655c:	e8 0e 0f 00 00       	callq  40746f <_ZSt4fillIPmiEvT_S1_RKT0_>
  406561:	48 8b 45 d8          	mov    -0x28(%rbp),%rax
  406565:	48 8b 55 c8          	mov    -0x38(%rbp),%rdx
  406569:	48 8b 4d d0          	mov    -0x30(%rbp),%rcx
  40656d:	48 89 ce             	mov    %rcx,%rsi
  406570:	48 89 c7             	mov    %rax,%rdi
  406573:	e8 84 19 00 00       	callq  407efc <_ZN11arm_compute10DimensionsImE3setEmm>
  406578:	48 8b 45 d8          	mov    -0x28(%rbp),%rax
  40657c:	48 89 c7             	mov    %rax,%rdi
  40657f:	e8 1c 00 00 00       	callq  4065a0 <_ZN11arm_compute11TensorShape26apply_dimension_correctionEv>
  406584:	48 8b 45 e8          	mov    -0x18(%rbp),%rax
  406588:	64 48 33 04 25 28 00 	xor    %fs:0x28,%rax
  40658f:	00 00 
  406591:	74 05                	je     406598 <_ZN11arm_compute11TensorShape3setEmm+0xee>
  406593:	e8 b8 d8 ff ff       	callq  403e50 <__stack_chk_fail@plt>
  406598:	48 83 c4 38          	add    $0x38,%rsp
  40659c:	5b                   	pop    %rbx
  40659d:	5d                   	pop    %rbp
  40659e:	c3                   	retq   
  40659f:	90                   	nop

00000000004065a0 <_ZN11arm_compute11TensorShape26apply_dimension_correctionEv>:
  4065a0:	55                   	push   %rbp
  4065a1:	48 89 e5             	mov    %rsp,%rbp
  4065a4:	48 83 ec 20          	sub    $0x20,%rsp
  4065a8:	48 89 7d e8          	mov    %rdi,-0x18(%rbp)
  4065ac:	48 8b 45 e8          	mov    -0x18(%rbp),%rax
  4065b0:	48 8b 40 30          	mov    0x30(%rax),%rax
  4065b4:	83 e8 01             	sub    $0x1,%eax
  4065b7:	89 45 fc             	mov    %eax,-0x4(%rbp)
  4065ba:	83 7d fc 00          	cmpl   $0x0,-0x4(%rbp)
  4065be:	78 3e                	js     4065fe <_ZN11arm_compute11TensorShape26apply_dimension_correctionEv+0x5e>
  4065c0:	8b 45 fc             	mov    -0x4(%rbp),%eax
  4065c3:	48 63 d0             	movslq %eax,%rdx
  4065c6:	48 8b 45 e8          	mov    -0x18(%rbp),%rax
  4065ca:	48 89 d6             	mov    %rdx,%rsi
  4065cd:	48 89 c7             	mov    %rax,%rdi
  4065d0:	e8 cd 19 00 00       	callq  407fa2 <_ZNSt5arrayImLm6EEixEm>
  4065d5:	48 8b 00             	mov    (%rax),%rax
  4065d8:	48 83 f8 01          	cmp    $0x1,%rax
  4065dc:	0f 94 c0             	sete   %al
  4065df:	84 c0                	test   %al,%al
  4065e1:	74 1a                	je     4065fd <_ZN11arm_compute11TensorShape26apply_dimension_correctionEv+0x5d>
  4065e3:	48 8b 45 e8          	mov    -0x18(%rbp),%rax
  4065e7:	48 8b 40 30          	mov    0x30(%rax),%rax
  4065eb:	48 8d 50 ff          	lea    -0x1(%rax),%rdx
  4065ef:	48 8b 45 e8          	mov    -0x18(%rbp),%rax
  4065f3:	48 89 50 30          	mov    %rdx,0x30(%rax)
  4065f7:	83 6d fc 01          	subl   $0x1,-0x4(%rbp)
  4065fb:	eb bd                	jmp    4065ba <_ZN11arm_compute11TensorShape26apply_dimension_correctionEv+0x1a>
  4065fd:	90                   	nop
  4065fe:	90                   	nop
  4065ff:	c9                   	leaveq 
  406600:	c3                   	retq   
  406601:	90                   	nop

0000000000406602 <_ZN11arm_compute11CoordinatesC1IIEEEDpT_>:
  406602:	55                   	push   %rbp
  406603:	48 89 e5             	mov    %rsp,%rbp
  406606:	48 83 ec 10          	sub    $0x10,%rsp
  40660a:	48 89 7d f8          	mov    %rdi,-0x8(%rbp)
  40660e:	48 8b 45 f8          	mov    -0x8(%rbp),%rax
  406612:	48 89 c7             	mov    %rax,%rdi
  406615:	e8 ae 19 00 00       	callq  407fc8 <_ZN11arm_compute10DimensionsIiEC1IIEEEDpT_>
  40661a:	90                   	nop
  40661b:	c9                   	leaveq 
  40661c:	c3                   	retq   
  40661d:	90                   	nop

000000000040661e <_ZN11arm_compute6Window9DimensionC1Eiii>:
  40661e:	55                   	push   %rbp
  40661f:	48 89 e5             	mov    %rsp,%rbp
  406622:	48 89 7d f8          	mov    %rdi,-0x8(%rbp)
  406626:	89 75 f4             	mov    %esi,-0xc(%rbp)
  406629:	89 55 f0             	mov    %edx,-0x10(%rbp)
  40662c:	89 4d ec             	mov    %ecx,-0x14(%rbp)
  40662f:	48 8b 45 f8          	mov    -0x8(%rbp),%rax
  406633:	8b 55 f4             	mov    -0xc(%rbp),%edx
  406636:	89 10                	mov    %edx,(%rax)
  406638:	48 8b 45 f8          	mov    -0x8(%rbp),%rax
  40663c:	8b 55 f0             	mov    -0x10(%rbp),%edx
  40663f:	89 50 04             	mov    %edx,0x4(%rax)
  406642:	48 8b 45 f8          	mov    -0x8(%rbp),%rax
  406646:	8b 55 ec             	mov    -0x14(%rbp),%edx
  406649:	89 50 08             	mov    %edx,0x8(%rax)
  40664c:	90                   	nop
  40664d:	5d                   	pop    %rbp
  40664e:	c3                   	retq   
  40664f:	90                   	nop

0000000000406650 <_ZNK11arm_compute6Window9Dimension5startEv>:
  406650:	55                   	push   %rbp
  406651:	48 89 e5             	mov    %rsp,%rbp
  406654:	48 89 7d f8          	mov    %rdi,-0x8(%rbp)
  406658:	48 8b 45 f8          	mov    -0x8(%rbp),%rax
  40665c:	8b 00                	mov    (%rax),%eax
  40665e:	5d                   	pop    %rbp
  40665f:	c3                   	retq   

0000000000406660 <_ZNK11arm_compute6Window9Dimension3endEv>:
  406660:	55                   	push   %rbp
  406661:	48 89 e5             	mov    %rsp,%rbp
  406664:	48 89 7d f8          	mov    %rdi,-0x8(%rbp)
  406668:	48 8b 45 f8          	mov    -0x8(%rbp),%rax
  40666c:	8b 40 04             	mov    0x4(%rax),%eax
  40666f:	5d                   	pop    %rbp
  406670:	c3                   	retq   
  406671:	90                   	nop

0000000000406672 <_ZNK11arm_compute6Window9Dimension4stepEv>:
  406672:	55                   	push   %rbp
  406673:	48 89 e5             	mov    %rsp,%rbp
  406676:	48 89 7d f8          	mov    %rdi,-0x8(%rbp)
  40667a:	48 8b 45 f8          	mov    -0x8(%rbp),%rax
  40667e:	8b 40 08             	mov    0x8(%rax),%eax
  406681:	5d                   	pop    %rbp
  406682:	c3                   	retq   

0000000000406683 <_ZNSt14__array_traitsIN11arm_compute6Window9DimensionELm6EE6_S_refERA6_KS2_m>:
  406683:	55                   	push   %rbp
  406684:	48 89 e5             	mov    %rsp,%rbp
  406687:	48 89 7d f8          	mov    %rdi,-0x8(%rbp)
  40668b:	48 89 75 f0          	mov    %rsi,-0x10(%rbp)
  40668f:	48 8b 55 f0          	mov    -0x10(%rbp),%rdx
  406693:	48 89 d0             	mov    %rdx,%rax
  406696:	48 01 c0             	add    %rax,%rax
  406699:	48 01 d0             	add    %rdx,%rax
  40669c:	48 c1 e0 02          	shl    $0x2,%rax
  4066a0:	48 8b 55 f8          	mov    -0x8(%rbp),%rdx
  4066a4:	48 01 d0             	add    %rdx,%rax
  4066a7:	5d                   	pop    %rbp
  4066a8:	c3                   	retq   
  4066a9:	90                   	nop

00000000004066aa <_ZNKSt5arrayIN11arm_compute6Window9DimensionELm6EE2atEm>:
  4066aa:	55                   	push   %rbp
  4066ab:	48 89 e5             	mov    %rsp,%rbp
  4066ae:	48 83 ec 10          	sub    $0x10,%rsp
  4066b2:	48 89 7d f8          	mov    %rdi,-0x8(%rbp)
  4066b6:	48 89 75 f0          	mov    %rsi,-0x10(%rbp)
  4066ba:	48 83 7d f0 05       	cmpq   $0x5,-0x10(%rbp)
  4066bf:	77 15                	ja     4066d6 <_ZNKSt5arrayIN11arm_compute6Window9DimensionELm6EE2atEm+0x2c>
  4066c1:	48 8b 45 f8          	mov    -0x8(%rbp),%rax
  4066c5:	48 8b 55 f0          	mov    -0x10(%rbp),%rdx
  4066c9:	48 89 d6             	mov    %rdx,%rsi
  4066cc:	48 89 c7             	mov    %rax,%rdi
  4066cf:	e8 af ff ff ff       	callq  406683 <_ZNSt14__array_traitsIN11arm_compute6Window9DimensionELm6EE6_S_refERA6_KS2_m>
  4066d4:	eb 1b                	jmp    4066f1 <_ZNKSt5arrayIN11arm_compute6Window9DimensionELm6EE2atEm+0x47>
  4066d6:	48 8b 45 f0          	mov    -0x10(%rbp),%rax
  4066da:	ba 06 00 00 00       	mov    $0x6,%edx
  4066df:	48 89 c6             	mov    %rax,%rsi
  4066e2:	bf 30 c7 40 00       	mov    $0x40c730,%edi
  4066e7:	b8 00 00 00 00       	mov    $0x0,%eax
  4066ec:	e8 6f d8 ff ff       	callq  403f60 <_ZSt24__throw_out_of_range_fmtPKcz@plt>
  4066f1:	c9                   	leaveq 
  4066f2:	c3                   	retq   
  4066f3:	90                   	nop

00000000004066f4 <_ZNK11arm_compute6WindowixEm>:
  4066f4:	55                   	push   %rbp
  4066f5:	48 89 e5             	mov    %rsp,%rbp
  4066f8:	48 83 ec 10          	sub    $0x10,%rsp
  4066fc:	48 89 7d f8          	mov    %rdi,-0x8(%rbp)
  406700:	48 89 75 f0          	mov    %rsi,-0x10(%rbp)
  406704:	48 8b 45 f8          	mov    -0x8(%rbp),%rax
  406708:	48 8b 55 f0          	mov    -0x10(%rbp),%rdx
  40670c:	48 89 d6             	mov    %rdx,%rsi
  40670f:	48 89 c7             	mov    %rax,%rdi
  406712:	e8 93 ff ff ff       	callq  4066aa <_ZNKSt5arrayIN11arm_compute6Window9DimensionELm6EE2atEm>
  406717:	c9                   	leaveq 
  406718:	c3                   	retq   
  406719:	90                   	nop

000000000040671a <_ZN11arm_compute6Window3setEmRKNS0_9DimensionE>:
  40671a:	55                   	push   %rbp
  40671b:	48 89 e5             	mov    %rsp,%rbp
  40671e:	48 83 ec 20          	sub    $0x20,%rsp
  406722:	48 89 7d f8          	mov    %rdi,-0x8(%rbp)
  406726:	48 89 75 f0          	mov    %rsi,-0x10(%rbp)
  40672a:	48 89 55 e8          	mov    %rdx,-0x18(%rbp)
  40672e:	48 8b 45 f8          	mov    -0x8(%rbp),%rax
  406732:	48 8b 55 f0          	mov    -0x10(%rbp),%rdx
  406736:	48 89 d6             	mov    %rdx,%rsi
  406739:	48 89 c7             	mov    %rax,%rdi
  40673c:	e8 f3 19 00 00       	callq  408134 <_ZNSt5arrayIN11arm_compute6Window9DimensionELm6EEixEm>
  406741:	48 89 c2             	mov    %rax,%rdx
  406744:	48 8b 45 e8          	mov    -0x18(%rbp),%rax
  406748:	48 8b 08             	mov    (%rax),%rcx
  40674b:	48 89 0a             	mov    %rcx,(%rdx)
  40674e:	8b 40 08             	mov    0x8(%rax),%eax
  406751:	89 42 08             	mov    %eax,0x8(%rdx)
  406754:	90                   	nop
  406755:	c9                   	leaveq 
  406756:	c3                   	retq   
  406757:	90                   	nop

0000000000406758 <_ZNK11arm_compute6Window8validateEv>:
  406758:	55                   	push   %rbp
  406759:	48 89 e5             	mov    %rsp,%rbp
  40675c:	48 89 7d e8          	mov    %rdi,-0x18(%rbp)
  406760:	48 c7 45 f8 00 00 00 	movq   $0x0,-0x8(%rbp)
  406767:	00 
  406768:	48 83 7d f8 05       	cmpq   $0x5,-0x8(%rbp)
  40676d:	77 07                	ja     406776 <_ZNK11arm_compute6Window8validateEv+0x1e>
  40676f:	48 83 45 f8 01       	addq   $0x1,-0x8(%rbp)
  406774:	eb f2                	jmp    406768 <_ZNK11arm_compute6Window8validateEv+0x10>
  406776:	90                   	nop
  406777:	5d                   	pop    %rbp
  406778:	c3                   	retq   
  406779:	90                   	nop

000000000040677a <_ZN11arm_compute6Window21use_tensor_dimensionsERKNS_11TensorShapeEm>:
  40677a:	55                   	push   %rbp
  40677b:	48 89 e5             	mov    %rsp,%rbp
  40677e:	48 83 ec 60          	sub    $0x60,%rsp
  406782:	48 89 7d b8          	mov    %rdi,-0x48(%rbp)
  406786:	48 89 75 b0          	mov    %rsi,-0x50(%rbp)
  40678a:	48 89 55 a8          	mov    %rdx,-0x58(%rbp)
  40678e:	64 48 8b 04 25 28 00 	mov    %fs:0x28,%rax
  406795:	00 00 
  406797:	48 89 45 f8          	mov    %rax,-0x8(%rbp)
  40679b:	31 c0                	xor    %eax,%eax
  40679d:	48 8b 45 a8          	mov    -0x58(%rbp),%rax
  4067a1:	89 45 cc             	mov    %eax,-0x34(%rbp)
  4067a4:	48 8b 45 b0          	mov    -0x50(%rbp),%rax
  4067a8:	48 89 c7             	mov    %rax,%rdi
  4067ab:	e8 aa 19 00 00       	callq  40815a <_ZNK11arm_compute10DimensionsImE14num_dimensionsEv>
  4067b0:	3b 45 cc             	cmp    -0x34(%rbp),%eax
  4067b3:	0f 97 c0             	seta   %al
  4067b6:	84 c0                	test   %al,%al
  4067b8:	74 68                	je     406822 <_ZN11arm_compute6Window21use_tensor_dimensionsERKNS_11TensorShapeEm+0xa8>
  4067ba:	48 c7 45 d8 01 00 00 	movq   $0x1,-0x28(%rbp)
  4067c1:	00 
  4067c2:	8b 55 cc             	mov    -0x34(%rbp),%edx
  4067c5:	48 8b 45 b0          	mov    -0x50(%rbp),%rax
  4067c9:	48 89 d6             	mov    %rdx,%rsi
  4067cc:	48 89 c7             	mov    %rax,%rdi
  4067cf:	e8 38 19 00 00       	callq  40810c <_ZNK11arm_compute10DimensionsImEixEm>
  4067d4:	48 89 45 d0          	mov    %rax,-0x30(%rbp)
  4067d8:	48 8d 55 d8          	lea    -0x28(%rbp),%rdx
  4067dc:	48 8d 45 d0          	lea    -0x30(%rbp),%rax
  4067e0:	48 89 d6             	mov    %rdx,%rsi
  4067e3:	48 89 c7             	mov    %rax,%rdi
  4067e6:	e8 81 19 00 00       	callq  40816c <_ZSt3maxImERKT_S2_S2_>
  4067eb:	48 8b 00             	mov    (%rax),%rax
  4067ee:	89 c2                	mov    %eax,%edx
  4067f0:	48 8d 45 e0          	lea    -0x20(%rbp),%rax
  4067f4:	b9 01 00 00 00       	mov    $0x1,%ecx
  4067f9:	be 00 00 00 00       	mov    $0x0,%esi
  4067fe:	48 89 c7             	mov    %rax,%rdi
  406801:	e8 18 fe ff ff       	callq  40661e <_ZN11arm_compute6Window9DimensionC1Eiii>
  406806:	8b 4d cc             	mov    -0x34(%rbp),%ecx
  406809:	48 8d 55 e0          	lea    -0x20(%rbp),%rdx
  40680d:	48 8b 45 b8          	mov    -0x48(%rbp),%rax
  406811:	48 89 ce             	mov    %rcx,%rsi
  406814:	48 89 c7             	mov    %rax,%rdi
  406817:	e8 fe fe ff ff       	callq  40671a <_ZN11arm_compute6Window3setEmRKNS0_9DimensionE>
  40681c:	83 45 cc 01          	addl   $0x1,-0x34(%rbp)
  406820:	eb 82                	jmp    4067a4 <_ZN11arm_compute6Window21use_tensor_dimensionsERKNS_11TensorShapeEm+0x2a>
  406822:	90                   	nop
  406823:	48 8b 45 f8          	mov    -0x8(%rbp),%rax
  406827:	64 48 33 04 25 28 00 	xor    %fs:0x28,%rax
  40682e:	00 00 
  406830:	74 05                	je     406837 <_ZN11arm_compute6Window21use_tensor_dimensionsERKNS_11TensorShapeEm+0xbd>
  406832:	e8 19 d6 ff ff       	callq  403e50 <__stack_chk_fail@plt>
  406837:	c9                   	leaveq 
  406838:	c3                   	retq   
  406839:	90                   	nop

000000000040683a <_ZNK11arm_compute10TensorInfo9dimensionEm>:
  40683a:	55                   	push   %rbp
  40683b:	48 89 e5             	mov    %rsp,%rbp
  40683e:	48 83 ec 10          	sub    $0x10,%rsp
  406842:	48 89 7d f8          	mov    %rdi,-0x8(%rbp)
  406846:	48 89 75 f0          	mov    %rsi,-0x10(%rbp)
  40684a:	48 8b 45 f8          	mov    -0x8(%rbp),%rax
  40684e:	48 8d 50 60          	lea    0x60(%rax),%rdx
  406852:	48 8b 45 f0          	mov    -0x10(%rbp),%rax
  406856:	48 89 c6             	mov    %rax,%rsi
  406859:	48 89 d7             	mov    %rdx,%rdi
  40685c:	e8 ab 18 00 00       	callq  40810c <_ZNK11arm_compute10DimensionsImEixEm>
  406861:	c9                   	leaveq 
  406862:	c3                   	retq   
  406863:	90                   	nop

0000000000406864 <_ZNK11arm_compute10TensorInfo14num_dimensionsEv>:
  406864:	55                   	push   %rbp
  406865:	48 89 e5             	mov    %rsp,%rbp
  406868:	48 83 ec 10          	sub    $0x10,%rsp
  40686c:	48 89 7d f8          	mov    %rdi,-0x8(%rbp)
  406870:	48 8b 45 f8          	mov    -0x8(%rbp),%rax
  406874:	48 83 c0 60          	add    $0x60,%rax
  406878:	48 89 c7             	mov    %rax,%rdi
  40687b:	e8 da 18 00 00       	callq  40815a <_ZNK11arm_compute10DimensionsImE14num_dimensionsEv>
  406880:	89 c0                	mov    %eax,%eax
  406882:	c9                   	leaveq 
  406883:	c3                   	retq   

0000000000406884 <_ZNSt5arrayIN11arm_compute8Iterator9DimensionELm6EEC1Ev>:
  406884:	55                   	push   %rbp
  406885:	48 89 e5             	mov    %rsp,%rbp
  406888:	48 89 7d f8          	mov    %rdi,-0x8(%rbp)
  40688c:	48 8b 45 f8          	mov    -0x8(%rbp),%rax
  406890:	b9 30 00 00 00       	mov    $0x30,%ecx
  406895:	be 00 00 00 00       	mov    $0x0,%esi
  40689a:	48 89 30             	mov    %rsi,(%rax)
  40689d:	89 ca                	mov    %ecx,%edx
  40689f:	48 01 c2             	add    %rax,%rdx
  4068a2:	48 83 c2 08          	add    $0x8,%rdx
  4068a6:	48 89 72 f0          	mov    %rsi,-0x10(%rdx)
  4068aa:	48 8d 50 08          	lea    0x8(%rax),%rdx
  4068ae:	48 83 e2 f8          	and    $0xfffffffffffffff8,%rdx
  4068b2:	48 29 d0             	sub    %rdx,%rax
  4068b5:	01 c1                	add    %eax,%ecx
  4068b7:	83 e1 f8             	and    $0xfffffff8,%ecx
  4068ba:	89 c8                	mov    %ecx,%eax
  4068bc:	c1 e8 03             	shr    $0x3,%eax
  4068bf:	89 c1                	mov    %eax,%ecx
  4068c1:	48 89 d7             	mov    %rdx,%rdi
  4068c4:	48 89 f0             	mov    %rsi,%rax
  4068c7:	f3 48 ab             	rep stos %rax,%es:(%rdi)
  4068ca:	90                   	nop
  4068cb:	5d                   	pop    %rbp
  4068cc:	c3                   	retq   
  4068cd:	90                   	nop

00000000004068ce <_ZN11arm_compute8IteratorC1Ev>:
  4068ce:	55                   	push   %rbp
  4068cf:	48 89 e5             	mov    %rsp,%rbp
  4068d2:	48 83 ec 10          	sub    $0x10,%rsp
  4068d6:	48 89 7d f8          	mov    %rdi,-0x8(%rbp)
  4068da:	48 8b 45 f8          	mov    -0x8(%rbp),%rax
  4068de:	48 c7 00 00 00 00 00 	movq   $0x0,(%rax)
  4068e5:	48 8b 45 f8          	mov    -0x8(%rbp),%rax
  4068e9:	48 8d 50 08          	lea    0x8(%rax),%rdx
  4068ed:	b8 00 00 00 00       	mov    $0x0,%eax
  4068f2:	b9 06 00 00 00       	mov    $0x6,%ecx
  4068f7:	48 89 d7             	mov    %rdx,%rdi
  4068fa:	f3 48 ab             	rep stos %rax,%es:(%rdi)
  4068fd:	48 8b 45 f8          	mov    -0x8(%rbp),%rax
  406901:	48 83 c0 08          	add    $0x8,%rax
  406905:	48 89 c7             	mov    %rax,%rdi
  406908:	e8 77 ff ff ff       	callq  406884 <_ZNSt5arrayIN11arm_compute8Iterator9DimensionELm6EEC1Ev>
  40690d:	90                   	nop
  40690e:	c9                   	leaveq 
  40690f:	c3                   	retq   

0000000000406910 <_ZNSt14__array_traitsIN11arm_compute8Iterator9DimensionELm6EE6_S_refERA6_KS2_m>:
  406910:	55                   	push   %rbp
  406911:	48 89 e5             	mov    %rsp,%rbp
  406914:	48 89 7d f8          	mov    %rdi,-0x8(%rbp)
  406918:	48 89 75 f0          	mov    %rsi,-0x10(%rbp)
  40691c:	48 8b 45 f0          	mov    -0x10(%rbp),%rax
  406920:	48 8d 14 c5 00 00 00 	lea    0x0(,%rax,8),%rdx
  406927:	00 
  406928:	48 8b 45 f8          	mov    -0x8(%rbp),%rax
  40692c:	48 01 d0             	add    %rdx,%rax
  40692f:	5d                   	pop    %rbp
  406930:	c3                   	retq   

0000000000406931 <_ZSt3getILm0EN11arm_compute8Iterator9DimensionELm6EERT0_RSt5arrayIS3_XT1_EE>:
  406931:	55                   	push   %rbp
  406932:	48 89 e5             	mov    %rsp,%rbp
  406935:	48 83 ec 10          	sub    $0x10,%rsp
  406939:	48 89 7d f8          	mov    %rdi,-0x8(%rbp)
  40693d:	48 8b 45 f8          	mov    -0x8(%rbp),%rax
  406941:	be 00 00 00 00       	mov    $0x0,%esi
  406946:	48 89 c7             	mov    %rax,%rdi
  406949:	e8 c2 ff ff ff       	callq  406910 <_ZNSt14__array_traitsIN11arm_compute8Iterator9DimensionELm6EE6_S_refERA6_KS2_m>
  40694e:	c9                   	leaveq 
  40694f:	c3                   	retq   

0000000000406950 <_ZN11arm_compute8IteratorC1EPKNS_7ITensorERKNS_6WindowE>:
  406950:	55                   	push   %rbp
  406951:	48 89 e5             	mov    %rsp,%rbp
  406954:	41 54                	push   %r12
  406956:	53                   	push   %rbx
  406957:	48 83 ec 40          	sub    $0x40,%rsp
  40695b:	48 89 7d c8          	mov    %rdi,-0x38(%rbp)
  40695f:	48 89 75 c0          	mov    %rsi,-0x40(%rbp)
  406963:	48 89 55 b8          	mov    %rdx,-0x48(%rbp)
  406967:	48 8b 45 c8          	mov    -0x38(%rbp),%rax
  40696b:	48 89 c7             	mov    %rax,%rdi
  40696e:	e8 5b ff ff ff       	callq  4068ce <_ZN11arm_compute8IteratorC1Ev>
  406973:	48 8b 45 c0          	mov    -0x40(%rbp),%rax
  406977:	48 8b 00             	mov    (%rax),%rax
  40697a:	48 8b 00             	mov    (%rax),%rax
  40697d:	48 8b 55 c0          	mov    -0x40(%rbp),%rdx
  406981:	48 89 d7             	mov    %rdx,%rdi
  406984:	ff d0                	callq  *%rax
  406986:	48 89 45 e0          	mov    %rax,-0x20(%rbp)
  40698a:	48 8b 45 e0          	mov    -0x20(%rbp),%rax
  40698e:	48 8b 00             	mov    (%rax),%rax
  406991:	48 83 c0 50          	add    $0x50,%rax
  406995:	48 8b 00             	mov    (%rax),%rax
  406998:	48 8b 55 e0          	mov    -0x20(%rbp),%rdx
  40699c:	48 89 d7             	mov    %rdx,%rdi
  40699f:	ff d0                	callq  *%rax
  4069a1:	48 89 45 e8          	mov    %rax,-0x18(%rbp)
  4069a5:	48 8b 45 c0          	mov    -0x40(%rbp),%rax
  4069a9:	48 8b 00             	mov    (%rax),%rax
  4069ac:	48 83 c0 20          	add    $0x20,%rax
  4069b0:	48 8b 00             	mov    (%rax),%rax
  4069b3:	48 8b 55 c0          	mov    -0x40(%rbp),%rdx
  4069b7:	48 89 d7             	mov    %rdx,%rdi
  4069ba:	ff d0                	callq  *%rax
  4069bc:	48 89 c3             	mov    %rax,%rbx
  4069bf:	48 8b 45 e0          	mov    -0x20(%rbp),%rax
  4069c3:	48 8b 00             	mov    (%rax),%rax
  4069c6:	48 83 c0 58          	add    $0x58,%rax
  4069ca:	48 8b 00             	mov    (%rax),%rax
  4069cd:	48 8b 55 e0          	mov    -0x20(%rbp),%rdx
  4069d1:	48 89 d7             	mov    %rdx,%rdi
  4069d4:	ff d0                	callq  *%rax
  4069d6:	48 8d 14 03          	lea    (%rbx,%rax,1),%rdx
  4069da:	48 8b 45 c8          	mov    -0x38(%rbp),%rax
  4069de:	48 89 10             	mov    %rdx,(%rax)
  4069e1:	c7 45 d8 00 00 00 00 	movl   $0x0,-0x28(%rbp)
  4069e8:	8b 5d d8             	mov    -0x28(%rbp),%ebx
  4069eb:	48 8b 45 e0          	mov    -0x20(%rbp),%rax
  4069ef:	48 8b 00             	mov    (%rax),%rax
  4069f2:	48 83 c0 78          	add    $0x78,%rax
  4069f6:	48 8b 00             	mov    (%rax),%rax
  4069f9:	48 8b 55 e0          	mov    -0x20(%rbp),%rdx
  4069fd:	48 89 d7             	mov    %rdx,%rdi
  406a00:	ff d0                	callq  *%rax
  406a02:	48 39 c3             	cmp    %rax,%rbx
  406a05:	0f 92 c0             	setb   %al
  406a08:	84 c0                	test   %al,%al
  406a0a:	0f 84 a9 00 00 00    	je     406ab9 <_ZN11arm_compute8IteratorC1EPKNS_7ITensorERKNS_6WindowE+0x169>
  406a10:	8b 45 d8             	mov    -0x28(%rbp),%eax
  406a13:	48 8b 55 c8          	mov    -0x38(%rbp),%rdx
  406a17:	48 83 c2 08          	add    $0x8,%rdx
  406a1b:	48 89 c6             	mov    %rax,%rsi
  406a1e:	48 89 d7             	mov    %rdx,%rdi
  406a21:	e8 72 17 00 00       	callq  408198 <_ZNSt5arrayIN11arm_compute8Iterator9DimensionELm6EEixEm>
  406a26:	48 89 c3             	mov    %rax,%rbx
  406a29:	8b 55 d8             	mov    -0x28(%rbp),%edx
  406a2c:	48 8b 45 b8          	mov    -0x48(%rbp),%rax
  406a30:	48 89 d6             	mov    %rdx,%rsi
  406a33:	48 89 c7             	mov    %rax,%rdi
  406a36:	e8 b9 fc ff ff       	callq  4066f4 <_ZNK11arm_compute6WindowixEm>
  406a3b:	48 89 c7             	mov    %rax,%rdi
  406a3e:	e8 2f fc ff ff       	callq  406672 <_ZNK11arm_compute6Window9Dimension4stepEv>
  406a43:	48 98                	cltq   
  406a45:	41 89 c4             	mov    %eax,%r12d
  406a48:	8b 55 d8             	mov    -0x28(%rbp),%edx
  406a4b:	48 8b 45 e8          	mov    -0x18(%rbp),%rax
  406a4f:	48 89 d6             	mov    %rdx,%rsi
  406a52:	48 89 c7             	mov    %rax,%rdi
  406a55:	e8 b2 16 00 00       	callq  40810c <_ZNK11arm_compute10DimensionsImEixEm>
  406a5a:	41 0f af c4          	imul   %r12d,%eax
  406a5e:	89 43 04             	mov    %eax,0x4(%rbx)
  406a61:	8b 55 d8             	mov    -0x28(%rbp),%edx
  406a64:	48 8b 45 e8          	mov    -0x18(%rbp),%rax
  406a68:	48 89 d6             	mov    %rdx,%rsi
  406a6b:	48 89 c7             	mov    %rax,%rdi
  406a6e:	e8 99 16 00 00       	callq  40810c <_ZNK11arm_compute10DimensionsImEixEm>
  406a73:	48 89 c3             	mov    %rax,%rbx
  406a76:	8b 55 d8             	mov    -0x28(%rbp),%edx
  406a79:	48 8b 45 b8          	mov    -0x48(%rbp),%rax
  406a7d:	48 89 d6             	mov    %rdx,%rsi
  406a80:	48 89 c7             	mov    %rax,%rdi
  406a83:	e8 6c fc ff ff       	callq  4066f4 <_ZNK11arm_compute6WindowixEm>
  406a88:	48 89 c7             	mov    %rax,%rdi
  406a8b:	e8 c0 fb ff ff       	callq  406650 <_ZNK11arm_compute6Window9Dimension5startEv>
  406a90:	48 98                	cltq   
  406a92:	48 0f af d8          	imul   %rax,%rbx
  406a96:	48 8b 45 c8          	mov    -0x38(%rbp),%rax
  406a9a:	48 83 c0 08          	add    $0x8,%rax
  406a9e:	48 89 c7             	mov    %rax,%rdi
  406aa1:	e8 8b fe ff ff       	callq  406931 <_ZSt3getILm0EN11arm_compute8Iterator9DimensionELm6EERT0_RSt5arrayIS3_XT1_EE>
  406aa6:	8b 10                	mov    (%rax),%edx
  406aa8:	89 d1                	mov    %edx,%ecx
  406aaa:	89 da                	mov    %ebx,%edx
  406aac:	01 ca                	add    %ecx,%edx
  406aae:	89 10                	mov    %edx,(%rax)
  406ab0:	83 45 d8 01          	addl   $0x1,-0x28(%rbp)
  406ab4:	e9 2f ff ff ff       	jmpq   4069e8 <_ZN11arm_compute8IteratorC1EPKNS_7ITensorERKNS_6WindowE+0x98>
  406ab9:	c7 45 dc 01 00 00 00 	movl   $0x1,-0x24(%rbp)
  406ac0:	83 7d dc 05          	cmpl   $0x5,-0x24(%rbp)
  406ac4:	77 33                	ja     406af9 <_ZN11arm_compute8IteratorC1EPKNS_7ITensorERKNS_6WindowE+0x1a9>
  406ac6:	8b 45 dc             	mov    -0x24(%rbp),%eax
  406ac9:	48 8b 55 c8          	mov    -0x38(%rbp),%rdx
  406acd:	48 83 c2 08          	add    $0x8,%rdx
  406ad1:	48 89 c6             	mov    %rax,%rsi
  406ad4:	48 89 d7             	mov    %rdx,%rdi
  406ad7:	e8 bc 16 00 00       	callq  408198 <_ZNSt5arrayIN11arm_compute8Iterator9DimensionELm6EEixEm>
  406adc:	48 89 c3             	mov    %rax,%rbx
  406adf:	48 8b 45 c8          	mov    -0x38(%rbp),%rax
  406ae3:	48 83 c0 08          	add    $0x8,%rax
  406ae7:	48 89 c7             	mov    %rax,%rdi
  406aea:	e8 42 fe ff ff       	callq  406931 <_ZSt3getILm0EN11arm_compute8Iterator9DimensionELm6EERT0_RSt5arrayIS3_XT1_EE>
  406aef:	8b 00                	mov    (%rax),%eax
  406af1:	89 03                	mov    %eax,(%rbx)
  406af3:	83 45 dc 01          	addl   $0x1,-0x24(%rbp)
  406af7:	eb c7                	jmp    406ac0 <_ZN11arm_compute8IteratorC1EPKNS_7ITensorERKNS_6WindowE+0x170>
  406af9:	48 8b 45 e0          	mov    -0x20(%rbp),%rax
  406afd:	48 8b 00             	mov    (%rax),%rax
  406b00:	48 83 c0 78          	add    $0x78,%rax
  406b04:	48 8b 00             	mov    (%rax),%rax
  406b07:	48 8b 55 e0          	mov    -0x20(%rbp),%rdx
  406b0b:	48 89 d7             	mov    %rdx,%rdi
  406b0e:	ff d0                	callq  *%rax
  406b10:	89 c2                	mov    %eax,%edx
  406b12:	48 8b 45 b8          	mov    -0x48(%rbp),%rax
  406b16:	41 89 d0             	mov    %edx,%r8d
  406b19:	48 89 c1             	mov    %rax,%rcx
  406b1c:	ba d4 00 00 00       	mov    $0xd4,%edx
  406b21:	be 68 c7 40 00       	mov    $0x40c768,%esi
  406b26:	bf 38 ca 40 00       	mov    $0x40ca38,%edi
  406b2b:	e8 70 d3 ff ff       	callq  403ea0 <_ZN11arm_compute30error_on_window_dimensions_gteEPKcS1_iRKNS_6WindowEj@plt>
  406b30:	90                   	nop
  406b31:	48 83 c4 40          	add    $0x40,%rsp
  406b35:	5b                   	pop    %rbx
  406b36:	41 5c                	pop    %r12
  406b38:	5d                   	pop    %rbp
  406b39:	c3                   	retq   

0000000000406b3a <_ZN11arm_compute8Iterator9incrementEm>:
  406b3a:	55                   	push   %rbp
  406b3b:	48 89 e5             	mov    %rsp,%rbp
  406b3e:	53                   	push   %rbx
  406b3f:	48 83 ec 28          	sub    $0x28,%rsp
  406b43:	48 89 7d d8          	mov    %rdi,-0x28(%rbp)
  406b47:	48 89 75 d0          	mov    %rsi,-0x30(%rbp)
  406b4b:	48 8b 45 d8          	mov    -0x28(%rbp),%rax
  406b4f:	48 8d 50 08          	lea    0x8(%rax),%rdx
  406b53:	48 8b 45 d0          	mov    -0x30(%rbp),%rax
  406b57:	48 89 c6             	mov    %rax,%rsi
  406b5a:	48 89 d7             	mov    %rdx,%rdi
  406b5d:	e8 36 16 00 00       	callq  408198 <_ZNSt5arrayIN11arm_compute8Iterator9DimensionELm6EEixEm>
  406b62:	8b 58 04             	mov    0x4(%rax),%ebx
  406b65:	48 8b 45 d8          	mov    -0x28(%rbp),%rax
  406b69:	48 8d 50 08          	lea    0x8(%rax),%rdx
  406b6d:	48 8b 45 d0          	mov    -0x30(%rbp),%rax
  406b71:	48 89 c6             	mov    %rax,%rsi
  406b74:	48 89 d7             	mov    %rdx,%rdi
  406b77:	e8 1c 16 00 00       	callq  408198 <_ZNSt5arrayIN11arm_compute8Iterator9DimensionELm6EEixEm>
  406b7c:	8b 10                	mov    (%rax),%edx
  406b7e:	01 da                	add    %ebx,%edx
  406b80:	89 10                	mov    %edx,(%rax)
  406b82:	c7 45 ec 00 00 00 00 	movl   $0x0,-0x14(%rbp)
  406b89:	8b 45 ec             	mov    -0x14(%rbp),%eax
  406b8c:	48 3b 45 d0          	cmp    -0x30(%rbp),%rax
  406b90:	73 3a                	jae    406bcc <_ZN11arm_compute8Iterator9incrementEm+0x92>
  406b92:	8b 45 ec             	mov    -0x14(%rbp),%eax
  406b95:	48 8b 55 d8          	mov    -0x28(%rbp),%rdx
  406b99:	48 83 c2 08          	add    $0x8,%rdx
  406b9d:	48 89 c6             	mov    %rax,%rsi
  406ba0:	48 89 d7             	mov    %rdx,%rdi
  406ba3:	e8 f0 15 00 00       	callq  408198 <_ZNSt5arrayIN11arm_compute8Iterator9DimensionELm6EEixEm>
  406ba8:	48 89 c3             	mov    %rax,%rbx
  406bab:	48 8b 45 d8          	mov    -0x28(%rbp),%rax
  406baf:	48 8d 50 08          	lea    0x8(%rax),%rdx
  406bb3:	48 8b 45 d0          	mov    -0x30(%rbp),%rax
  406bb7:	48 89 c6             	mov    %rax,%rsi
  406bba:	48 89 d7             	mov    %rdx,%rdi
  406bbd:	e8 d6 15 00 00       	callq  408198 <_ZNSt5arrayIN11arm_compute8Iterator9DimensionELm6EEixEm>
  406bc2:	8b 00                	mov    (%rax),%eax
  406bc4:	89 03                	mov    %eax,(%rbx)
  406bc6:	83 45 ec 01          	addl   $0x1,-0x14(%rbp)
  406bca:	eb bd                	jmp    406b89 <_ZN11arm_compute8Iterator9incrementEm+0x4f>
  406bcc:	90                   	nop
  406bcd:	48 83 c4 28          	add    $0x28,%rsp
  406bd1:	5b                   	pop    %rbx
  406bd2:	5d                   	pop    %rbp
  406bd3:	c3                   	retq   

0000000000406bd4 <_ZNKSt5arrayIN11arm_compute8Iterator9DimensionELm6EE2atEm>:
  406bd4:	55                   	push   %rbp
  406bd5:	48 89 e5             	mov    %rsp,%rbp
  406bd8:	48 83 ec 10          	sub    $0x10,%rsp
  406bdc:	48 89 7d f8          	mov    %rdi,-0x8(%rbp)
  406be0:	48 89 75 f0          	mov    %rsi,-0x10(%rbp)
  406be4:	48 83 7d f0 05       	cmpq   $0x5,-0x10(%rbp)
  406be9:	77 15                	ja     406c00 <_ZNKSt5arrayIN11arm_compute8Iterator9DimensionELm6EE2atEm+0x2c>
  406beb:	48 8b 45 f8          	mov    -0x8(%rbp),%rax
  406bef:	48 8b 55 f0          	mov    -0x10(%rbp),%rdx
  406bf3:	48 89 d6             	mov    %rdx,%rsi
  406bf6:	48 89 c7             	mov    %rax,%rdi
  406bf9:	e8 12 fd ff ff       	callq  406910 <_ZNSt14__array_traitsIN11arm_compute8Iterator9DimensionELm6EE6_S_refERA6_KS2_m>
  406bfe:	eb 1b                	jmp    406c1b <_ZNKSt5arrayIN11arm_compute8Iterator9DimensionELm6EE2atEm+0x47>
  406c00:	48 8b 45 f0          	mov    -0x10(%rbp),%rax
  406c04:	ba 06 00 00 00       	mov    $0x6,%edx
  406c09:	48 89 c6             	mov    %rax,%rsi
  406c0c:	bf 30 c7 40 00       	mov    $0x40c730,%edi
  406c11:	b8 00 00 00 00       	mov    $0x0,%eax
  406c16:	e8 45 d3 ff ff       	callq  403f60 <_ZSt24__throw_out_of_range_fmtPKcz@plt>
  406c1b:	c9                   	leaveq 
  406c1c:	c3                   	retq   
  406c1d:	90                   	nop

0000000000406c1e <_ZNK11arm_compute8Iterator3ptrEv>:
  406c1e:	55                   	push   %rbp
  406c1f:	48 89 e5             	mov    %rsp,%rbp
  406c22:	53                   	push   %rbx
  406c23:	48 83 ec 18          	sub    $0x18,%rsp
  406c27:	48 89 7d e8          	mov    %rdi,-0x18(%rbp)
  406c2b:	48 8b 45 e8          	mov    -0x18(%rbp),%rax
  406c2f:	48 8b 18             	mov    (%rax),%rbx
  406c32:	48 8b 45 e8          	mov    -0x18(%rbp),%rax
  406c36:	48 83 c0 08          	add    $0x8,%rax
  406c3a:	be 00 00 00 00       	mov    $0x0,%esi
  406c3f:	48 89 c7             	mov    %rax,%rdi
  406c42:	e8 8d ff ff ff       	callq  406bd4 <_ZNKSt5arrayIN11arm_compute8Iterator9DimensionELm6EE2atEm>
  406c47:	8b 00                	mov    (%rax),%eax
  406c49:	48 98                	cltq   
  406c4b:	48 01 d8             	add    %rbx,%rax
  406c4e:	48 83 c4 18          	add    $0x18,%rsp
  406c52:	5b                   	pop    %rbx
  406c53:	5d                   	pop    %rbp
  406c54:	c3                   	retq   
  406c55:	90                   	nop

0000000000406c56 <_ZN11arm_compute11CLScheduler12default_initEv>:
  406c56:	55                   	push   %rbp
  406c57:	48 89 e5             	mov    %rsp,%rbp
  406c5a:	53                   	push   %rbx
  406c5b:	48 83 ec 78          	sub    $0x78,%rsp
  406c5f:	48 89 7d 88          	mov    %rdi,-0x78(%rbp)
  406c63:	64 48 8b 04 25 28 00 	mov    %fs:0x28,%rax
  406c6a:	00 00 
  406c6c:	48 89 45 e8          	mov    %rax,-0x18(%rbp)
  406c70:	31 c0                	xor    %eax,%eax
  406c72:	48 8d 45 b0          	lea    -0x50(%rbp),%rax
  406c76:	be 00 00 00 00       	mov    $0x0,%esi
  406c7b:	48 89 c7             	mov    %rax,%rdi
  406c7e:	e8 66 e4 ff ff       	callq  4050e9 <_ZN2cl6Device10getDefaultEPi>
  406c83:	48 8d 45 a0          	lea    -0x60(%rbp),%rax
  406c87:	be 00 00 00 00       	mov    $0x0,%esi
  406c8c:	48 89 c7             	mov    %rax,%rdi
  406c8f:	e8 e4 f1 ff ff       	callq  405e78 <_ZN2cl7Context10getDefaultEPi>
  406c94:	48 8d 45 90          	lea    -0x70(%rbp),%rax
  406c98:	48 89 c7             	mov    %rax,%rdi
  406c9b:	e8 e0 d3 ff ff       	callq  404080 <_ZNSaIcEC1Ev@plt>
  406ca0:	48 8d 55 90          	lea    -0x70(%rbp),%rdx
  406ca4:	48 8d 45 c0          	lea    -0x40(%rbp),%rax
  406ca8:	be ec c7 40 00       	mov    $0x40c7ec,%esi
  406cad:	48 89 c7             	mov    %rax,%rdi
  406cb0:	e8 6b d2 ff ff       	callq  403f20 <_ZNSt7__cxx1112basic_stringIcSt11char_traitsIcESaIcEEC1EPKcRKS3_@plt>
  406cb5:	e8 b6 d0 ff ff       	callq  403d70 <_ZN11arm_compute15CLKernelLibrary3getEv@plt>
  406cba:	48 89 c7             	mov    %rax,%rdi
  406cbd:	48 8d 4d b0          	lea    -0x50(%rbp),%rcx
  406cc1:	48 8d 55 a0          	lea    -0x60(%rbp),%rdx
  406cc5:	48 8d 45 c0          	lea    -0x40(%rbp),%rax
  406cc9:	48 89 c6             	mov    %rax,%rsi
  406ccc:	e8 17 f7 ff ff       	callq  4063e8 <_ZN11arm_compute15CLKernelLibrary4initENSt7__cxx1112basic_stringIcSt11char_traitsIcESaIcEEEN2cl7ContextENS7_6DeviceE>
  406cd1:	48 8d 45 c0          	lea    -0x40(%rbp),%rax
  406cd5:	48 89 c7             	mov    %rax,%rdi
  406cd8:	e8 b3 d0 ff ff       	callq  403d90 <_ZNSt7__cxx1112basic_stringIcSt11char_traitsIcESaIcEED1Ev@plt>
  406cdd:	48 8d 45 90          	lea    -0x70(%rbp),%rax
  406ce1:	48 89 c7             	mov    %rax,%rdi
  406ce4:	e8 47 d1 ff ff       	callq  403e30 <_ZNSaIcED1Ev@plt>
  406ce9:	48 8d 45 a0          	lea    -0x60(%rbp),%rax
  406ced:	48 89 c7             	mov    %rax,%rdi
  406cf0:	e8 33 ec ff ff       	callq  405928 <_ZN2cl7ContextD1Ev>
  406cf5:	48 8d 45 b0          	lea    -0x50(%rbp),%rax
  406cf9:	48 89 c7             	mov    %rax,%rdi
  406cfc:	e8 cd e3 ff ff       	callq  4050ce <_ZN2cl6DeviceD1Ev>
  406d01:	48 8d 45 b0          	lea    -0x50(%rbp),%rax
  406d05:	be 00 00 00 00       	mov    $0x0,%esi
  406d0a:	48 89 c7             	mov    %rax,%rdi
  406d0d:	e8 d7 e3 ff ff       	callq  4050e9 <_ZN2cl6Device10getDefaultEPi>
  406d12:	48 8d 45 a0          	lea    -0x60(%rbp),%rax
  406d16:	be 00 00 00 00       	mov    $0x0,%esi
  406d1b:	48 89 c7             	mov    %rax,%rdi
  406d1e:	e8 ad f5 ff ff       	callq  4062d0 <_ZN2cl12CommandQueue10getDefaultEPi>
  406d23:	48 8d 45 90          	lea    -0x70(%rbp),%rax
  406d27:	be 00 00 00 00       	mov    $0x0,%esi
  406d2c:	48 89 c7             	mov    %rax,%rdi
  406d2f:	e8 44 f1 ff ff       	callq  405e78 <_ZN2cl7Context10getDefaultEPi>
  406d34:	48 8d 4d b0          	lea    -0x50(%rbp),%rcx
  406d38:	48 8d 55 a0          	lea    -0x60(%rbp),%rdx
  406d3c:	48 8d 75 90          	lea    -0x70(%rbp),%rsi
  406d40:	48 8b 45 88          	mov    -0x78(%rbp),%rax
  406d44:	48 89 c7             	mov    %rax,%rdi
  406d47:	e8 ce 00 00 00       	callq  406e1a <_ZN11arm_compute11CLScheduler4initEN2cl7ContextENS1_12CommandQueueENS1_6DeviceE>
  406d4c:	48 8d 45 90          	lea    -0x70(%rbp),%rax
  406d50:	48 89 c7             	mov    %rax,%rdi
  406d53:	e8 d0 eb ff ff       	callq  405928 <_ZN2cl7ContextD1Ev>
  406d58:	48 8d 45 a0          	lea    -0x60(%rbp),%rax
  406d5c:	48 89 c7             	mov    %rax,%rdi
  406d5f:	e8 50 f3 ff ff       	callq  4060b4 <_ZN2cl12CommandQueueD1Ev>
  406d64:	48 8d 45 b0          	lea    -0x50(%rbp),%rax
  406d68:	48 89 c7             	mov    %rax,%rdi
  406d6b:	e8 5e e3 ff ff       	callq  4050ce <_ZN2cl6DeviceD1Ev>
  406d70:	90                   	nop
  406d71:	48 8b 45 e8          	mov    -0x18(%rbp),%rax
  406d75:	64 48 33 04 25 28 00 	xor    %fs:0x28,%rax
  406d7c:	00 00 
  406d7e:	0f 84 8e 00 00 00    	je     406e12 <_ZN11arm_compute11CLScheduler12default_initEv+0x1bc>
  406d84:	e9 84 00 00 00       	jmpq   406e0d <_ZN11arm_compute11CLScheduler12default_initEv+0x1b7>
  406d89:	48 89 c3             	mov    %rax,%rbx
  406d8c:	48 8d 45 c0          	lea    -0x40(%rbp),%rax
  406d90:	48 89 c7             	mov    %rax,%rdi
  406d93:	e8 f8 cf ff ff       	callq  403d90 <_ZNSt7__cxx1112basic_stringIcSt11char_traitsIcESaIcEED1Ev@plt>
  406d98:	eb 03                	jmp    406d9d <_ZN11arm_compute11CLScheduler12default_initEv+0x147>
  406d9a:	48 89 c3             	mov    %rax,%rbx
  406d9d:	48 8d 45 90          	lea    -0x70(%rbp),%rax
  406da1:	48 89 c7             	mov    %rax,%rdi
  406da4:	e8 87 d0 ff ff       	callq  403e30 <_ZNSaIcED1Ev@plt>
  406da9:	48 8d 45 a0          	lea    -0x60(%rbp),%rax
  406dad:	48 89 c7             	mov    %rax,%rdi
  406db0:	e8 73 eb ff ff       	callq  405928 <_ZN2cl7ContextD1Ev>
  406db5:	eb 03                	jmp    406dba <_ZN11arm_compute11CLScheduler12default_initEv+0x164>
  406db7:	48 89 c3             	mov    %rax,%rbx
  406dba:	48 8d 45 b0          	lea    -0x50(%rbp),%rax
  406dbe:	48 89 c7             	mov    %rax,%rdi
  406dc1:	e8 08 e3 ff ff       	callq  4050ce <_ZN2cl6DeviceD1Ev>
  406dc6:	48 89 d8             	mov    %rbx,%rax
  406dc9:	48 89 c7             	mov    %rax,%rdi
  406dcc:	e8 9f d2 ff ff       	callq  404070 <_Unwind_Resume@plt>
  406dd1:	48 89 c3             	mov    %rax,%rbx
  406dd4:	48 8d 45 90          	lea    -0x70(%rbp),%rax
  406dd8:	48 89 c7             	mov    %rax,%rdi
  406ddb:	e8 48 eb ff ff       	callq  405928 <_ZN2cl7ContextD1Ev>
  406de0:	eb 03                	jmp    406de5 <_ZN11arm_compute11CLScheduler12default_initEv+0x18f>
  406de2:	48 89 c3             	mov    %rax,%rbx
  406de5:	48 8d 45 a0          	lea    -0x60(%rbp),%rax
  406de9:	48 89 c7             	mov    %rax,%rdi
  406dec:	e8 c3 f2 ff ff       	callq  4060b4 <_ZN2cl12CommandQueueD1Ev>
  406df1:	eb 03                	jmp    406df6 <_ZN11arm_compute11CLScheduler12default_initEv+0x1a0>
  406df3:	48 89 c3             	mov    %rax,%rbx
  406df6:	48 8d 45 b0          	lea    -0x50(%rbp),%rax
  406dfa:	48 89 c7             	mov    %rax,%rdi
  406dfd:	e8 cc e2 ff ff       	callq  4050ce <_ZN2cl6DeviceD1Ev>
  406e02:	48 89 d8             	mov    %rbx,%rax
  406e05:	48 89 c7             	mov    %rax,%rdi
  406e08:	e8 63 d2 ff ff       	callq  404070 <_Unwind_Resume@plt>
  406e0d:	e8 3e d0 ff ff       	callq  403e50 <__stack_chk_fail@plt>
  406e12:	48 83 c4 78          	add    $0x78,%rsp
  406e16:	5b                   	pop    %rbx
  406e17:	5d                   	pop    %rbp
  406e18:	c3                   	retq   
  406e19:	90                   	nop

0000000000406e1a <_ZN11arm_compute11CLScheduler4initEN2cl7ContextENS1_12CommandQueueENS1_6DeviceE>:
  406e1a:	55                   	push   %rbp
  406e1b:	48 89 e5             	mov    %rsp,%rbp
  406e1e:	48 83 ec 20          	sub    $0x20,%rsp
  406e22:	48 89 7d f8          	mov    %rdi,-0x8(%rbp)
  406e26:	48 89 75 f0          	mov    %rsi,-0x10(%rbp)
  406e2a:	48 89 55 e8          	mov    %rdx,-0x18(%rbp)
  406e2e:	48 89 4d e0          	mov    %rcx,-0x20(%rbp)
  406e32:	48 8b 45 f0          	mov    -0x10(%rbp),%rax
  406e36:	48 89 c7             	mov    %rax,%rdi
  406e39:	e8 f8 ef ff ff       	callq  405e36 <_ZSt4moveIRN2cl7ContextEEONSt16remove_referenceIT_E4typeEOS4_>
  406e3e:	48 89 c2             	mov    %rax,%rdx
  406e41:	48 8b 45 f8          	mov    -0x8(%rbp),%rax
  406e45:	48 89 d6             	mov    %rdx,%rsi
  406e48:	48 89 c7             	mov    %rax,%rdi
  406e4b:	e8 f4 ef ff ff       	callq  405e44 <_ZN2cl7ContextaSEOS0_>
  406e50:	48 8b 45 e8          	mov    -0x18(%rbp),%rax
  406e54:	48 89 c7             	mov    %rax,%rdi
  406e57:	e8 12 f5 ff ff       	callq  40636e <_ZSt4moveIRN2cl12CommandQueueEEONSt16remove_referenceIT_E4typeEOS4_>
  406e5c:	48 89 c2             	mov    %rax,%rdx
  406e5f:	48 8b 45 f8          	mov    -0x8(%rbp),%rax
  406e63:	48 83 c0 08          	add    $0x8,%rax
  406e67:	48 89 d6             	mov    %rdx,%rsi
  406e6a:	48 89 c7             	mov    %rax,%rdi
  406e6d:	e8 0a f5 ff ff       	callq  40637c <_ZN2cl12CommandQueueaSEOS0_>
  406e72:	48 8b 45 e0          	mov    -0x20(%rbp),%rax
  406e76:	48 89 c7             	mov    %rax,%rdi
  406e79:	e8 82 d0 ff ff       	callq  403f00 <_ZN11arm_compute22get_target_from_deviceERN2cl6DeviceE@plt>
  406e7e:	89 c2                	mov    %eax,%edx
  406e80:	48 8b 45 f8          	mov    -0x8(%rbp),%rax
  406e84:	89 50 10             	mov    %edx,0x10(%rax)
  406e87:	48 8b 45 f8          	mov    -0x8(%rbp),%rax
  406e8b:	c6 40 14 01          	movb   $0x1,0x14(%rax)
  406e8f:	90                   	nop
  406e90:	c9                   	leaveq 
  406e91:	c3                   	retq   

0000000000406e92 <_ZN11arm_compute11CLScheduler4syncEv>:
  406e92:	55                   	push   %rbp
  406e93:	48 89 e5             	mov    %rsp,%rbp
  406e96:	48 83 ec 10          	sub    $0x10,%rsp
  406e9a:	48 89 7d f8          	mov    %rdi,-0x8(%rbp)
  406e9e:	48 8b 45 f8          	mov    -0x8(%rbp),%rax
  406ea2:	48 83 c0 08          	add    $0x8,%rax
  406ea6:	48 89 c7             	mov    %rax,%rdi
  406ea9:	e8 02 f5 ff ff       	callq  4063b0 <_ZNK2cl12CommandQueue6finishEv>
  406eae:	90                   	nop
  406eaf:	c9                   	leaveq 
  406eb0:	c3                   	retq   
  406eb1:	90                   	nop

0000000000406eb2 <_ZNK2CK5Shape10data_countEv>:
  406eb2:	55                   	push   %rbp
  406eb3:	48 89 e5             	mov    %rsp,%rbp
  406eb6:	48 89 7d f8          	mov    %rdi,-0x8(%rbp)
  406eba:	48 8b 45 f8          	mov    -0x8(%rbp),%rax
  406ebe:	8b 10                	mov    (%rax),%edx
  406ec0:	48 8b 45 f8          	mov    -0x8(%rbp),%rax
  406ec4:	8b 40 04             	mov    0x4(%rax),%eax
  406ec7:	0f af d0             	imul   %eax,%edx
  406eca:	48 8b 45 f8          	mov    -0x8(%rbp),%rax
  406ece:	8b 40 0c             	mov    0xc(%rax),%eax
  406ed1:	0f af d0             	imul   %eax,%edx
  406ed4:	48 8b 45 f8          	mov    -0x8(%rbp),%rax
  406ed8:	8b 40 08             	mov    0x8(%rax),%eax
  406edb:	0f af c2             	imul   %edx,%eax
  406ede:	5d                   	pop    %rbp
  406edf:	c3                   	retq   

0000000000406ee0 <_ZNK2CK5Shape14get_flat_indexEiiii>:
  406ee0:	55                   	push   %rbp
  406ee1:	48 89 e5             	mov    %rsp,%rbp
  406ee4:	48 83 ec 20          	sub    $0x20,%rsp
  406ee8:	48 89 7d f8          	mov    %rdi,-0x8(%rbp)
  406eec:	89 75 f4             	mov    %esi,-0xc(%rbp)
  406eef:	89 55 f0             	mov    %edx,-0x10(%rbp)
  406ef2:	89 4d ec             	mov    %ecx,-0x14(%rbp)
  406ef5:	44 89 45 e8          	mov    %r8d,-0x18(%rbp)
  406ef9:	8b 7d e8             	mov    -0x18(%rbp),%edi
  406efc:	8b 4d ec             	mov    -0x14(%rbp),%ecx
  406eff:	8b 55 f0             	mov    -0x10(%rbp),%edx
  406f02:	8b 75 f4             	mov    -0xc(%rbp),%esi
  406f05:	48 8b 45 f8          	mov    -0x8(%rbp),%rax
  406f09:	41 89 f8             	mov    %edi,%r8d
  406f0c:	48 89 c7             	mov    %rax,%rdi
  406f0f:	e8 02 00 00 00       	callq  406f16 <_ZNK2CK5Shape19get_flat_index_nchwEiiii>
  406f14:	c9                   	leaveq 
  406f15:	c3                   	retq   

0000000000406f16 <_ZNK2CK5Shape19get_flat_index_nchwEiiii>:
  406f16:	55                   	push   %rbp
  406f17:	48 89 e5             	mov    %rsp,%rbp
  406f1a:	48 89 7d f8          	mov    %rdi,-0x8(%rbp)
  406f1e:	89 75 f4             	mov    %esi,-0xc(%rbp)
  406f21:	89 55 f0             	mov    %edx,-0x10(%rbp)
  406f24:	89 4d ec             	mov    %ecx,-0x14(%rbp)
  406f27:	44 89 45 e8          	mov    %r8d,-0x18(%rbp)
  406f2b:	48 8b 45 f8          	mov    -0x8(%rbp),%rax
  406f2f:	8b 40 04             	mov    0x4(%rax),%eax
  406f32:	0f af 45 f4          	imul   -0xc(%rbp),%eax
  406f36:	89 c2                	mov    %eax,%edx
  406f38:	8b 45 f0             	mov    -0x10(%rbp),%eax
  406f3b:	01 c2                	add    %eax,%edx
  406f3d:	48 8b 45 f8          	mov    -0x8(%rbp),%rax
  406f41:	8b 40 0c             	mov    0xc(%rax),%eax
  406f44:	0f af d0             	imul   %eax,%edx
  406f47:	8b 45 ec             	mov    -0x14(%rbp),%eax
  406f4a:	01 c2                	add    %eax,%edx
  406f4c:	48 8b 45 f8          	mov    -0x8(%rbp),%rax
  406f50:	8b 40 08             	mov    0x8(%rax),%eax
  406f53:	0f af d0             	imul   %eax,%edx
  406f56:	8b 45 e8             	mov    -0x18(%rbp),%eax
  406f59:	01 d0                	add    %edx,%eax
  406f5b:	5d                   	pop    %rbp
  406f5c:	c3                   	retq   

0000000000406f5d <_ZN2CK8getenv_iEPKci>:
  406f5d:	55                   	push   %rbp
  406f5e:	48 89 e5             	mov    %rsp,%rbp
  406f61:	48 83 ec 10          	sub    $0x10,%rsp
  406f65:	48 89 7d f8          	mov    %rdi,-0x8(%rbp)
  406f69:	89 75 f4             	mov    %esi,-0xc(%rbp)
  406f6c:	48 8b 45 f8          	mov    -0x8(%rbp),%rax
  406f70:	48 89 c7             	mov    %rax,%rdi
  406f73:	e8 18 cf ff ff       	callq  403e90 <getenv@plt>
  406f78:	48 85 c0             	test   %rax,%rax
  406f7b:	74 16                	je     406f93 <_ZN2CK8getenv_iEPKci+0x36>
  406f7d:	48 8b 45 f8          	mov    -0x8(%rbp),%rax
  406f81:	48 89 c7             	mov    %rax,%rdi
  406f84:	e8 07 cf ff ff       	callq  403e90 <getenv@plt>
  406f89:	48 89 c7             	mov    %rax,%rdi
  406f8c:	e8 ff cf ff ff       	callq  403f90 <atoi@plt>
  406f91:	eb 03                	jmp    406f96 <_ZN2CK8getenv_iEPKci+0x39>
  406f93:	8b 45 f4             	mov    -0xc(%rbp),%eax
  406f96:	c9                   	leaveq 
  406f97:	c3                   	retq   

0000000000406f98 <_ZN2CK13store_value_iEiPKci>:
  406f98:	55                   	push   %rbp
  406f99:	48 89 e5             	mov    %rsp,%rbp
  406f9c:	48 83 ec 20          	sub    $0x20,%rsp
  406fa0:	89 7d ec             	mov    %edi,-0x14(%rbp)
  406fa3:	48 89 75 e0          	mov    %rsi,-0x20(%rbp)
  406fa7:	89 55 e8             	mov    %edx,-0x18(%rbp)
  406faa:	48 8b 45 e0          	mov    -0x20(%rbp),%rax
  406fae:	48 89 c7             	mov    %rax,%rdi
  406fb1:	e8 5a cd ff ff       	callq  403d10 <strlen@plt>
  406fb6:	48 83 c0 05          	add    $0x5,%rax
  406fba:	48 89 c7             	mov    %rax,%rdi
  406fbd:	e8 6e cc ff ff       	callq  403c30 <_Znam@plt>
  406fc2:	48 89 45 f8          	mov    %rax,-0x8(%rbp)
  406fc6:	48 8b 55 e0          	mov    -0x20(%rbp),%rdx
  406fca:	48 8b 45 f8          	mov    -0x8(%rbp),%rax
  406fce:	be fa c7 40 00       	mov    $0x40c7fa,%esi
  406fd3:	48 89 c7             	mov    %rax,%rdi
  406fd6:	b8 00 00 00 00       	mov    $0x0,%eax
  406fdb:	e8 90 cc ff ff       	callq  403c70 <sprintf@plt>
  406fe0:	8b 55 e8             	mov    -0x18(%rbp),%edx
  406fe3:	48 8b 4d f8          	mov    -0x8(%rbp),%rcx
  406fe7:	8b 45 ec             	mov    -0x14(%rbp),%eax
  406fea:	48 89 ce             	mov    %rcx,%rsi
  406fed:	89 c7                	mov    %eax,%edi
  406fef:	e8 7c ce ff ff       	callq  403e70 <xopenme_add_var_i@plt>
  406ff4:	48 83 7d f8 00       	cmpq   $0x0,-0x8(%rbp)
  406ff9:	74 0c                	je     407007 <_ZN2CK13store_value_iEiPKci+0x6f>
  406ffb:	48 8b 45 f8          	mov    -0x8(%rbp),%rax
  406fff:	48 89 c7             	mov    %rax,%rdi
  407002:	e8 e9 ce ff ff       	callq  403ef0 <_ZdaPv@plt>
  407007:	90                   	nop
  407008:	c9                   	leaveq 
  407009:	c3                   	retq   

000000000040700a <_ZN2CK13store_value_fEiPKcf>:
  40700a:	55                   	push   %rbp
  40700b:	48 89 e5             	mov    %rsp,%rbp
  40700e:	48 83 ec 30          	sub    $0x30,%rsp
  407012:	89 7d ec             	mov    %edi,-0x14(%rbp)
  407015:	48 89 75 e0          	mov    %rsi,-0x20(%rbp)
  407019:	f3 0f 11 45 e8       	movss  %xmm0,-0x18(%rbp)
  40701e:	48 8b 45 e0          	mov    -0x20(%rbp),%rax
  407022:	48 89 c7             	mov    %rax,%rdi
  407025:	e8 e6 cc ff ff       	callq  403d10 <strlen@plt>
  40702a:	48 83 c0 05          	add    $0x5,%rax
  40702e:	48 89 c7             	mov    %rax,%rdi
  407031:	e8 fa cb ff ff       	callq  403c30 <_Znam@plt>
  407036:	48 89 45 f8          	mov    %rax,-0x8(%rbp)
  40703a:	48 8b 55 e0          	mov    -0x20(%rbp),%rdx
  40703e:	48 8b 45 f8          	mov    -0x8(%rbp),%rax
  407042:	be 03 c8 40 00       	mov    $0x40c803,%esi
  407047:	48 89 c7             	mov    %rax,%rdi
  40704a:	b8 00 00 00 00       	mov    $0x0,%eax
  40704f:	e8 1c cc ff ff       	callq  403c70 <sprintf@plt>
  407054:	8b 4d e8             	mov    -0x18(%rbp),%ecx
  407057:	48 8b 55 f8          	mov    -0x8(%rbp),%rdx
  40705b:	8b 45 ec             	mov    -0x14(%rbp),%eax
  40705e:	89 4d dc             	mov    %ecx,-0x24(%rbp)
  407061:	f3 0f 10 45 dc       	movss  -0x24(%rbp),%xmm0
  407066:	48 89 d6             	mov    %rdx,%rsi
  407069:	89 c7                	mov    %eax,%edi
  40706b:	e8 60 d0 ff ff       	callq  4040d0 <xopenme_add_var_f@plt>
  407070:	48 83 7d f8 00       	cmpq   $0x0,-0x8(%rbp)
  407075:	74 0c                	je     407083 <_ZN2CK13store_value_fEiPKcf+0x79>
  407077:	48 8b 45 f8          	mov    -0x8(%rbp),%rax
  40707b:	48 89 c7             	mov    %rax,%rdi
  40707e:	e8 6d ce ff ff       	callq  403ef0 <_ZdaPv@plt>
  407083:	90                   	nop
  407084:	c9                   	leaveq 
  407085:	c3                   	retq   

0000000000407086 <_ZN2CK24get_input_shape_from_envEv>:
  407086:	55                   	push   %rbp
  407087:	48 89 e5             	mov    %rsp,%rbp
  40708a:	48 83 ec 20          	sub    $0x20,%rsp
  40708e:	64 48 8b 04 25 28 00 	mov    %fs:0x28,%rax
  407095:	00 00 
  407097:	48 89 45 f8          	mov    %rax,-0x8(%rbp)
  40709b:	31 c0                	xor    %eax,%eax
  40709d:	be 01 00 00 00       	mov    $0x1,%esi
  4070a2:	bf 0c c8 40 00       	mov    $0x40c80c,%edi
  4070a7:	e8 b1 fe ff ff       	callq  406f5d <_ZN2CK8getenv_iEPKci>
  4070ac:	89 45 e0             	mov    %eax,-0x20(%rbp)
  4070af:	be 03 00 00 00       	mov    $0x3,%esi
  4070b4:	bf 1a c8 40 00       	mov    $0x40c81a,%edi
  4070b9:	e8 9f fe ff ff       	callq  406f5d <_ZN2CK8getenv_iEPKci>
  4070be:	89 45 e4             	mov    %eax,-0x1c(%rbp)
  4070c1:	be 01 00 00 00       	mov    $0x1,%esi
  4070c6:	bf 28 c8 40 00       	mov    $0x40c828,%edi
  4070cb:	e8 8d fe ff ff       	callq  406f5d <_ZN2CK8getenv_iEPKci>
  4070d0:	89 45 ec             	mov    %eax,-0x14(%rbp)
  4070d3:	be 01 00 00 00       	mov    $0x1,%esi
  4070d8:	bf 36 c8 40 00       	mov    $0x40c836,%edi
  4070dd:	e8 7b fe ff ff       	callq  406f5d <_ZN2CK8getenv_iEPKci>
  4070e2:	89 45 e8             	mov    %eax,-0x18(%rbp)
  4070e5:	8b 45 e0             	mov    -0x20(%rbp),%eax
  4070e8:	89 c2                	mov    %eax,%edx
  4070ea:	be 44 c8 40 00       	mov    $0x40c844,%esi
  4070ef:	bf 04 00 00 00       	mov    $0x4,%edi
  4070f4:	e8 9f fe ff ff       	callq  406f98 <_ZN2CK13store_value_iEiPKci>
  4070f9:	8b 45 e4             	mov    -0x1c(%rbp),%eax
  4070fc:	89 c2                	mov    %eax,%edx
  4070fe:	be 4f c8 40 00       	mov    $0x40c84f,%esi
  407103:	bf 05 00 00 00       	mov    $0x5,%edi
  407108:	e8 8b fe ff ff       	callq  406f98 <_ZN2CK13store_value_iEiPKci>
  40710d:	8b 45 ec             	mov    -0x14(%rbp),%eax
  407110:	89 c2                	mov    %eax,%edx
  407112:	be 5a c8 40 00       	mov    $0x40c85a,%esi
  407117:	bf 06 00 00 00       	mov    $0x6,%edi
  40711c:	e8 77 fe ff ff       	callq  406f98 <_ZN2CK13store_value_iEiPKci>
  407121:	8b 45 e8             	mov    -0x18(%rbp),%eax
  407124:	89 c2                	mov    %eax,%edx
  407126:	be 65 c8 40 00       	mov    $0x40c865,%esi
  40712b:	bf 07 00 00 00       	mov    $0x7,%edi
  407130:	e8 63 fe ff ff       	callq  406f98 <_ZN2CK13store_value_iEiPKci>
  407135:	48 8b 45 e0          	mov    -0x20(%rbp),%rax
  407139:	48 8b 55 e8          	mov    -0x18(%rbp),%rdx
  40713d:	48 8b 4d f8          	mov    -0x8(%rbp),%rcx
  407141:	64 48 33 0c 25 28 00 	xor    %fs:0x28,%rcx
  407148:	00 00 
  40714a:	74 05                	je     407151 <_ZN2CK24get_input_shape_from_envEv+0xcb>
  40714c:	e8 ff cc ff ff       	callq  403e50 <__stack_chk_fail@plt>
  407151:	c9                   	leaveq 
  407152:	c3                   	retq   

0000000000407153 <_ZN2CK9init_testEv>:
  407153:	55                   	push   %rbp
  407154:	48 89 e5             	mov    %rsp,%rbp
  407157:	be 0c 00 00 00       	mov    $0xc,%esi
  40715c:	bf 02 00 00 00       	mov    $0x2,%edi
  407161:	e8 8a cb ff ff       	callq  403cf0 <xopenme_init@plt>
  407166:	90                   	nop
  407167:	5d                   	pop    %rbp
  407168:	c3                   	retq   

0000000000407169 <_ZN2CK11finish_testEv>:
  407169:	55                   	push   %rbp
  40716a:	48 89 e5             	mov    %rsp,%rbp
  40716d:	bf 00 00 00 00       	mov    $0x0,%edi
  407172:	e8 89 cf ff ff       	callq  404100 <xopenme_get_timer@plt>
  407177:	be 00 00 00 00       	mov    $0x0,%esi
  40717c:	bf 70 c8 40 00       	mov    $0x40c870,%edi
  407181:	b8 01 00 00 00       	mov    $0x1,%eax
  407186:	e8 c5 ca ff ff       	callq  403c50 <printf@plt>
  40718b:	bf 01 00 00 00       	mov    $0x1,%edi
  407190:	e8 6b cf ff ff       	callq  404100 <xopenme_get_timer@plt>
  407195:	be 01 00 00 00       	mov    $0x1,%esi
  40719a:	bf 84 c8 40 00       	mov    $0x40c884,%edi
  40719f:	b8 01 00 00 00       	mov    $0x1,%eax
  4071a4:	e8 a7 ca ff ff       	callq  403c50 <printf@plt>
  4071a9:	e8 e2 ca ff ff       	callq  403c90 <xopenme_dump_state@plt>
  4071ae:	e8 fd ca ff ff       	callq  403cb0 <xopenme_finish@plt>
  4071b3:	90                   	nop
  4071b4:	5d                   	pop    %rbp
  4071b5:	c3                   	retq   

00000000004071b6 <_ZN2CK5armcl15set_kernel_pathEv>:
  4071b6:	55                   	push   %rbp
  4071b7:	48 89 e5             	mov    %rsp,%rbp
  4071ba:	53                   	push   %rbx
  4071bb:	48 83 ec 48          	sub    $0x48,%rsp
  4071bf:	64 48 8b 04 25 28 00 	mov    %fs:0x28,%rax
  4071c6:	00 00 
  4071c8:	48 89 45 e8          	mov    %rax,-0x18(%rbp)
  4071cc:	31 c0                	xor    %eax,%eax
  4071ce:	bf ad c8 40 00       	mov    $0x40c8ad,%edi
  4071d3:	e8 b8 cc ff ff       	callq  403e90 <getenv@plt>
  4071d8:	48 89 45 b8          	mov    %rax,-0x48(%rbp)
  4071dc:	48 83 7d b8 00       	cmpq   $0x0,-0x48(%rbp)
  4071e1:	0f 84 95 00 00 00    	je     40727c <_ZN2CK5armcl15set_kernel_pathEv+0xc6>
  4071e7:	48 8b 45 b8          	mov    -0x48(%rbp),%rax
  4071eb:	48 89 c6             	mov    %rax,%rsi
  4071ee:	bf c7 c8 40 00       	mov    $0x40c8c7,%edi
  4071f3:	b8 00 00 00 00       	mov    $0x0,%eax
  4071f8:	e8 53 ca ff ff       	callq  403c50 <printf@plt>
  4071fd:	48 8d 45 b7          	lea    -0x49(%rbp),%rax
  407201:	48 89 c7             	mov    %rax,%rdi
  407204:	e8 77 ce ff ff       	callq  404080 <_ZNSaIcEC1Ev@plt>
  407209:	48 8d 55 b7          	lea    -0x49(%rbp),%rdx
  40720d:	48 8b 4d b8          	mov    -0x48(%rbp),%rcx
  407211:	48 8d 45 c0          	lea    -0x40(%rbp),%rax
  407215:	48 89 ce             	mov    %rcx,%rsi
  407218:	48 89 c7             	mov    %rax,%rdi
  40721b:	e8 00 cd ff ff       	callq  403f20 <_ZNSt7__cxx1112basic_stringIcSt11char_traitsIcESaIcEEC1EPKcRKS3_@plt>
  407220:	e8 4b cb ff ff       	callq  403d70 <_ZN11arm_compute15CLKernelLibrary3getEv@plt>
  407225:	48 89 c2             	mov    %rax,%rdx
  407228:	48 8d 45 c0          	lea    -0x40(%rbp),%rax
  40722c:	48 89 c6             	mov    %rax,%rsi
  40722f:	48 89 d7             	mov    %rdx,%rdi
  407232:	e8 49 f2 ff ff       	callq  406480 <_ZN11arm_compute15CLKernelLibrary15set_kernel_pathERKNSt7__cxx1112basic_stringIcSt11char_traitsIcESaIcEEE>
  407237:	48 8d 45 c0          	lea    -0x40(%rbp),%rax
  40723b:	48 89 c7             	mov    %rax,%rdi
  40723e:	e8 4d cb ff ff       	callq  403d90 <_ZNSt7__cxx1112basic_stringIcSt11char_traitsIcESaIcEED1Ev@plt>
  407243:	48 8d 45 b7          	lea    -0x49(%rbp),%rax
  407247:	48 89 c7             	mov    %rax,%rdi
  40724a:	e8 e1 cb ff ff       	callq  403e30 <_ZNSaIcED1Ev@plt>
  40724f:	eb 2b                	jmp    40727c <_ZN2CK5armcl15set_kernel_pathEv+0xc6>
  407251:	48 89 c3             	mov    %rax,%rbx
  407254:	48 8d 45 c0          	lea    -0x40(%rbp),%rax
  407258:	48 89 c7             	mov    %rax,%rdi
  40725b:	e8 30 cb ff ff       	callq  403d90 <_ZNSt7__cxx1112basic_stringIcSt11char_traitsIcESaIcEED1Ev@plt>
  407260:	eb 03                	jmp    407265 <_ZN2CK5armcl15set_kernel_pathEv+0xaf>
  407262:	48 89 c3             	mov    %rax,%rbx
  407265:	48 8d 45 b7          	lea    -0x49(%rbp),%rax
  407269:	48 89 c7             	mov    %rax,%rdi
  40726c:	e8 bf cb ff ff       	callq  403e30 <_ZNSaIcED1Ev@plt>
  407271:	48 89 d8             	mov    %rbx,%rax
  407274:	48 89 c7             	mov    %rax,%rdi
  407277:	e8 f4 cd ff ff       	callq  404070 <_Unwind_Resume@plt>
  40727c:	90                   	nop
  40727d:	48 8b 45 e8          	mov    -0x18(%rbp),%rax
  407281:	64 48 33 04 25 28 00 	xor    %fs:0x28,%rax
  407288:	00 00 
  40728a:	74 05                	je     407291 <_ZN2CK5armcl15set_kernel_pathEv+0xdb>
  40728c:	e8 bf cb ff ff       	callq  403e50 <__stack_chk_fail@plt>
  407291:	48 83 c4 48          	add    $0x48,%rsp
  407295:	5b                   	pop    %rbx
  407296:	5d                   	pop    %rbp
  407297:	c3                   	retq   

0000000000407298 <_ZN2CK5armcl10init_armclEv>:
  407298:	55                   	push   %rbp
  407299:	48 89 e5             	mov    %rsp,%rbp
  40729c:	e8 bf c9 ff ff       	callq  403c60 <_ZN11arm_compute11CLScheduler3getEv@plt>
  4072a1:	48 89 c7             	mov    %rax,%rdi
  4072a4:	e8 ad f9 ff ff       	callq  406c56 <_ZN11arm_compute11CLScheduler12default_initEv>
  4072a9:	e8 08 ff ff ff       	callq  4071b6 <_ZN2CK5armcl15set_kernel_pathEv>
  4072ae:	90                   	nop
  4072af:	5d                   	pop    %rbp
  4072b0:	c3                   	retq   

00000000004072b1 <_ZN2CK5armcl14get_flat_indexERKNS_5ShapeERKN11arm_compute11CoordinatesE>:
  4072b1:	55                   	push   %rbp
  4072b2:	48 89 e5             	mov    %rsp,%rbp
  4072b5:	53                   	push   %rbx
  4072b6:	48 83 ec 18          	sub    $0x18,%rsp
  4072ba:	48 89 7d e8          	mov    %rdi,-0x18(%rbp)
  4072be:	48 89 75 e0          	mov    %rsi,-0x20(%rbp)
  4072c2:	48 8b 45 e0          	mov    -0x20(%rbp),%rax
  4072c6:	48 89 c7             	mov    %rax,%rdi
  4072c9:	e8 72 0f 00 00       	callq  408240 <_ZNK11arm_compute10DimensionsIiE1zEv>
  4072ce:	89 c1                	mov    %eax,%ecx
  4072d0:	48 8b 45 e8          	mov    -0x18(%rbp),%rax
  4072d4:	8b 50 08             	mov    0x8(%rax),%edx
  4072d7:	48 8b 45 e8          	mov    -0x18(%rbp),%rax
  4072db:	8b 40 0c             	mov    0xc(%rax),%eax
  4072de:	0f af c2             	imul   %edx,%eax
  4072e1:	0f af c8             	imul   %eax,%ecx
  4072e4:	89 cb                	mov    %ecx,%ebx
  4072e6:	48 8b 45 e0          	mov    -0x20(%rbp),%rax
  4072ea:	48 89 c7             	mov    %rax,%rdi
  4072ed:	e8 70 0f 00 00       	callq  408262 <_ZNK11arm_compute10DimensionsIiE1yEv>
  4072f2:	89 c2                	mov    %eax,%edx
  4072f4:	48 8b 45 e8          	mov    -0x18(%rbp),%rax
  4072f8:	8b 40 08             	mov    0x8(%rax),%eax
  4072fb:	0f af c2             	imul   %edx,%eax
  4072fe:	01 c3                	add    %eax,%ebx
  407300:	48 8b 45 e0          	mov    -0x20(%rbp),%rax
  407304:	48 89 c7             	mov    %rax,%rdi
  407307:	e8 78 0f 00 00       	callq  408284 <_ZNK11arm_compute10DimensionsIiE1xEv>
  40730c:	01 d8                	add    %ebx,%eax
  40730e:	48 83 c4 18          	add    $0x18,%rsp
  407312:	5b                   	pop    %rbx
  407313:	5d                   	pop    %rbp
  407314:	c3                   	retq   

0000000000407315 <_ZN2CK5armcl20tensor_info_to_shapeEPKN11arm_compute10TensorInfoE>:
  407315:	55                   	push   %rbp
  407316:	48 89 e5             	mov    %rsp,%rbp
  407319:	53                   	push   %rbx
  40731a:	48 83 ec 28          	sub    $0x28,%rsp
  40731e:	48 89 7d d8          	mov    %rdi,-0x28(%rbp)
  407322:	48 89 75 d0          	mov    %rsi,-0x30(%rbp)
  407326:	64 48 8b 04 25 28 00 	mov    %fs:0x28,%rax
  40732d:	00 00 
  40732f:	48 89 45 e8          	mov    %rax,-0x18(%rbp)
  407333:	31 c0                	xor    %eax,%eax
  407335:	48 8b 45 d8          	mov    -0x28(%rbp),%rax
  407339:	48 89 c7             	mov    %rax,%rdi
  40733c:	e8 b9 0c 00 00       	callq  407ffa <_ZN11arm_compute11TensorShapeC1IIEEEDpT_>
  407341:	c7 45 e4 00 00 00 00 	movl   $0x0,-0x1c(%rbp)
  407348:	8b 45 e4             	mov    -0x1c(%rbp),%eax
  40734b:	48 63 d8             	movslq %eax,%rbx
  40734e:	48 8b 45 d0          	mov    -0x30(%rbp),%rax
  407352:	48 89 c7             	mov    %rax,%rdi
  407355:	e8 0a f5 ff ff       	callq  406864 <_ZNK11arm_compute10TensorInfo14num_dimensionsEv>
  40735a:	48 39 c3             	cmp    %rax,%rbx
  40735d:	0f 92 c0             	setb   %al
  407360:	84 c0                	test   %al,%al
  407362:	74 33                	je     407397 <_ZN2CK5armcl20tensor_info_to_shapeEPKN11arm_compute10TensorInfoE+0x82>
  407364:	8b 45 e4             	mov    -0x1c(%rbp),%eax
  407367:	48 63 d0             	movslq %eax,%rdx
  40736a:	48 8b 45 d0          	mov    -0x30(%rbp),%rax
  40736e:	48 89 d6             	mov    %rdx,%rsi
  407371:	48 89 c7             	mov    %rax,%rdi
  407374:	e8 c1 f4 ff ff       	callq  40683a <_ZNK11arm_compute10TensorInfo9dimensionEm>
  407379:	48 89 c2             	mov    %rax,%rdx
  40737c:	8b 45 e4             	mov    -0x1c(%rbp),%eax
  40737f:	48 63 c8             	movslq %eax,%rcx
  407382:	48 8b 45 d8          	mov    -0x28(%rbp),%rax
  407386:	48 89 ce             	mov    %rcx,%rsi
  407389:	48 89 c7             	mov    %rax,%rdi
  40738c:	e8 19 f1 ff ff       	callq  4064aa <_ZN11arm_compute11TensorShape3setEmm>
  407391:	83 45 e4 01          	addl   $0x1,-0x1c(%rbp)
  407395:	eb b1                	jmp    407348 <_ZN2CK5armcl20tensor_info_to_shapeEPKN11arm_compute10TensorInfoE+0x33>
  407397:	90                   	nop
  407398:	48 8b 45 d8          	mov    -0x28(%rbp),%rax
  40739c:	48 8b 4d e8          	mov    -0x18(%rbp),%rcx
  4073a0:	64 48 33 0c 25 28 00 	xor    %fs:0x28,%rcx
  4073a7:	00 00 
  4073a9:	74 05                	je     4073b0 <_ZN2CK5armcl20tensor_info_to_shapeEPKN11arm_compute10TensorInfoE+0x9b>
  4073ab:	e8 a0 ca ff ff       	callq  403e50 <__stack_chk_fail@plt>
  4073b0:	48 83 c4 28          	add    $0x28,%rsp
  4073b4:	5b                   	pop    %rbx
  4073b5:	5d                   	pop    %rbp
  4073b6:	c3                   	retq   
  4073b7:	90                   	nop

00000000004073b8 <_ZNSt14__shared_countILN9__gnu_cxx12_Lock_policyE2EEC1Ev>:
  4073b8:	55                   	push   %rbp
  4073b9:	48 89 e5             	mov    %rsp,%rbp
  4073bc:	48 89 7d f8          	mov    %rdi,-0x8(%rbp)
  4073c0:	48 8b 45 f8          	mov    -0x8(%rbp),%rax
  4073c4:	48 c7 00 00 00 00 00 	movq   $0x0,(%rax)
  4073cb:	90                   	nop
  4073cc:	5d                   	pop    %rbp
  4073cd:	c3                   	retq   

00000000004073ce <_ZNSt12__shared_ptrIN11arm_compute14IMemoryManagerELN9__gnu_cxx12_Lock_policyE2EEC2Ev>:
  4073ce:	55                   	push   %rbp
  4073cf:	48 89 e5             	mov    %rsp,%rbp
  4073d2:	48 83 ec 10          	sub    $0x10,%rsp
  4073d6:	48 89 7d f8          	mov    %rdi,-0x8(%rbp)
  4073da:	48 8b 45 f8          	mov    -0x8(%rbp),%rax
  4073de:	48 c7 00 00 00 00 00 	movq   $0x0,(%rax)
  4073e5:	48 8b 45 f8          	mov    -0x8(%rbp),%rax
  4073e9:	48 83 c0 08          	add    $0x8,%rax
  4073ed:	48 89 c7             	mov    %rax,%rdi
  4073f0:	e8 c3 ff ff ff       	callq  4073b8 <_ZNSt14__shared_countILN9__gnu_cxx12_Lock_policyE2EEC1Ev>
  4073f5:	90                   	nop
  4073f6:	c9                   	leaveq 
  4073f7:	c3                   	retq   

00000000004073f8 <_ZNSt12__shared_ptrIN11arm_compute14IMemoryManagerELN9__gnu_cxx12_Lock_policyE2EED1Ev>:
  4073f8:	55                   	push   %rbp
  4073f9:	48 89 e5             	mov    %rsp,%rbp
  4073fc:	48 83 ec 10          	sub    $0x10,%rsp
  407400:	48 89 7d f8          	mov    %rdi,-0x8(%rbp)
  407404:	48 8b 45 f8          	mov    -0x8(%rbp),%rax
  407408:	48 83 c0 08          	add    $0x8,%rax
  40740c:	48 89 c7             	mov    %rax,%rdi
  40740f:	e8 92 0e 00 00       	callq  4082a6 <_ZNSt14__shared_countILN9__gnu_cxx12_Lock_policyE2EED1Ev>
  407414:	90                   	nop
  407415:	c9                   	leaveq 
  407416:	c3                   	retq   
  407417:	90                   	nop

0000000000407418 <_ZNSt10shared_ptrIN11arm_compute14IMemoryManagerEEC1Ev>:
  407418:	55                   	push   %rbp
  407419:	48 89 e5             	mov    %rsp,%rbp
  40741c:	48 83 ec 10          	sub    $0x10,%rsp
  407420:	48 89 7d f8          	mov    %rdi,-0x8(%rbp)
  407424:	48 8b 45 f8          	mov    -0x8(%rbp),%rax
  407428:	48 89 c7             	mov    %rax,%rdi
  40742b:	e8 9e ff ff ff       	callq  4073ce <_ZNSt12__shared_ptrIN11arm_compute14IMemoryManagerELN9__gnu_cxx12_Lock_policyE2EEC2Ev>
  407430:	90                   	nop
  407431:	c9                   	leaveq 
  407432:	c3                   	retq   
  407433:	90                   	nop

0000000000407434 <_ZNSt10shared_ptrIN11arm_compute14IMemoryManagerEED1Ev>:
  407434:	55                   	push   %rbp
  407435:	48 89 e5             	mov    %rsp,%rbp
  407438:	48 83 ec 10          	sub    $0x10,%rsp
  40743c:	48 89 7d f8          	mov    %rdi,-0x8(%rbp)
  407440:	48 8b 45 f8          	mov    -0x8(%rbp),%rax
  407444:	48 89 c7             	mov    %rax,%rdi
  407447:	e8 ac ff ff ff       	callq  4073f8 <_ZNSt12__shared_ptrIN11arm_compute14IMemoryManagerELN9__gnu_cxx12_Lock_policyE2EED1Ev>
  40744c:	90                   	nop
  40744d:	c9                   	leaveq 
  40744e:	c3                   	retq   
  40744f:	90                   	nop

0000000000407450 <_ZNSt10shared_ptrIN11arm_compute14IMemoryManagerEEC1EDn>:
  407450:	55                   	push   %rbp
  407451:	48 89 e5             	mov    %rsp,%rbp
  407454:	48 83 ec 10          	sub    $0x10,%rsp
  407458:	48 89 7d f8          	mov    %rdi,-0x8(%rbp)
  40745c:	48 89 75 f0          	mov    %rsi,-0x10(%rbp)
  407460:	48 8b 45 f8          	mov    -0x8(%rbp),%rax
  407464:	48 89 c7             	mov    %rax,%rdi
  407467:	e8 ac ff ff ff       	callq  407418 <_ZNSt10shared_ptrIN11arm_compute14IMemoryManagerEEC1Ev>
  40746c:	90                   	nop
  40746d:	c9                   	leaveq 
  40746e:	c3                   	retq   

000000000040746f <_ZSt4fillIPmiEvT_S1_RKT0_>:
  40746f:	55                   	push   %rbp
  407470:	48 89 e5             	mov    %rsp,%rbp
  407473:	53                   	push   %rbx
  407474:	48 83 ec 28          	sub    $0x28,%rsp
  407478:	48 89 7d e8          	mov    %rdi,-0x18(%rbp)
  40747c:	48 89 75 e0          	mov    %rsi,-0x20(%rbp)
  407480:	48 89 55 d8          	mov    %rdx,-0x28(%rbp)
  407484:	48 8b 45 e0          	mov    -0x20(%rbp),%rax
  407488:	48 89 c7             	mov    %rax,%rdi
  40748b:	e8 32 15 00 00       	callq  4089c2 <_ZSt12__niter_baseIPmENSt11_Niter_baseIT_E13iterator_typeES2_>
  407490:	48 89 c3             	mov    %rax,%rbx
  407493:	48 8b 45 e8          	mov    -0x18(%rbp),%rax
  407497:	48 89 c7             	mov    %rax,%rdi
  40749a:	e8 23 15 00 00       	callq  4089c2 <_ZSt12__niter_baseIPmENSt11_Niter_baseIT_E13iterator_typeES2_>
  40749f:	48 89 c1             	mov    %rax,%rcx
  4074a2:	48 8b 45 d8          	mov    -0x28(%rbp),%rax
  4074a6:	48 89 c2             	mov    %rax,%rdx
  4074a9:	48 89 de             	mov    %rbx,%rsi
  4074ac:	48 89 cf             	mov    %rcx,%rdi
  4074af:	e8 28 15 00 00       	callq  4089dc <_ZSt8__fill_aIPmiEN9__gnu_cxx11__enable_ifIXsrSt11__is_scalarIT0_E7__valueEvE6__typeET_S8_RKS4_>
  4074b4:	90                   	nop
  4074b5:	48 83 c4 28          	add    $0x28,%rsp
  4074b9:	5b                   	pop    %rbx
  4074ba:	5d                   	pop    %rbp
  4074bb:	c3                   	retq   

00000000004074bc <_ZNKSt6vectorIcSaIcEEixEm>:
  4074bc:	55                   	push   %rbp
  4074bd:	48 89 e5             	mov    %rsp,%rbp
  4074c0:	48 89 7d f8          	mov    %rdi,-0x8(%rbp)
  4074c4:	48 89 75 f0          	mov    %rsi,-0x10(%rbp)
  4074c8:	48 8b 45 f8          	mov    -0x8(%rbp),%rax
  4074cc:	48 8b 10             	mov    (%rax),%rdx
  4074cf:	48 8b 45 f0          	mov    -0x10(%rbp),%rax
  4074d3:	48 01 d0             	add    %rdx,%rax
  4074d6:	5d                   	pop    %rbp
  4074d7:	c3                   	retq   

00000000004074d8 <_ZSt7forwardIRFvvEEOT_RNSt16remove_referenceIS2_E4typeE>:
  4074d8:	55                   	push   %rbp
  4074d9:	48 89 e5             	mov    %rsp,%rbp
  4074dc:	48 89 7d f8          	mov    %rdi,-0x8(%rbp)
  4074e0:	48 8b 45 f8          	mov    -0x8(%rbp),%rax
  4074e4:	5d                   	pop    %rbp
  4074e5:	c3                   	retq   

00000000004074e6 <_ZNSt10_Head_baseILm0EPFvvELb0EE7_M_headERS2_>:
  4074e6:	55                   	push   %rbp
  4074e7:	48 89 e5             	mov    %rsp,%rbp
  4074ea:	48 89 7d f8          	mov    %rdi,-0x8(%rbp)
  4074ee:	48 8b 45 f8          	mov    -0x8(%rbp),%rax
  4074f2:	5d                   	pop    %rbp
  4074f3:	c3                   	retq   

00000000004074f4 <_ZNSt11_Tuple_implILm0EIPFvvEEE7_M_headERS2_>:
  4074f4:	55                   	push   %rbp
  4074f5:	48 89 e5             	mov    %rsp,%rbp
  4074f8:	48 83 ec 10          	sub    $0x10,%rsp
  4074fc:	48 89 7d f8          	mov    %rdi,-0x8(%rbp)
  407500:	48 8b 45 f8          	mov    -0x8(%rbp),%rax
  407504:	48 89 c7             	mov    %rax,%rdi
  407507:	e8 da ff ff ff       	callq  4074e6 <_ZNSt10_Head_baseILm0EPFvvELb0EE7_M_headERS2_>
  40750c:	c9                   	leaveq 
  40750d:	c3                   	retq   

000000000040750e <_ZSt7forwardIPFvvEEOT_RNSt16remove_referenceIS2_E4typeE>:
  40750e:	55                   	push   %rbp
  40750f:	48 89 e5             	mov    %rsp,%rbp
  407512:	48 89 7d f8          	mov    %rdi,-0x8(%rbp)
  407516:	48 8b 45 f8          	mov    -0x8(%rbp),%rax
  40751a:	5d                   	pop    %rbp
  40751b:	c3                   	retq   

000000000040751c <_ZNSt10_Head_baseILm0EPFvvELb0EEC1IS1_EEOT_>:
  40751c:	55                   	push   %rbp
  40751d:	48 89 e5             	mov    %rsp,%rbp
  407520:	48 83 ec 10          	sub    $0x10,%rsp
  407524:	48 89 7d f8          	mov    %rdi,-0x8(%rbp)
  407528:	48 89 75 f0          	mov    %rsi,-0x10(%rbp)
  40752c:	48 8b 45 f0          	mov    -0x10(%rbp),%rax
  407530:	48 89 c7             	mov    %rax,%rdi
  407533:	e8 d6 ff ff ff       	callq  40750e <_ZSt7forwardIPFvvEEOT_RNSt16remove_referenceIS2_E4typeE>
  407538:	48 8b 10             	mov    (%rax),%rdx
  40753b:	48 8b 45 f8          	mov    -0x8(%rbp),%rax
  40753f:	48 89 10             	mov    %rdx,(%rax)
  407542:	90                   	nop
  407543:	c9                   	leaveq 
  407544:	c3                   	retq   

0000000000407545 <_ZSt9call_onceIRFvvEIEEvRSt9once_flagOT_DpOT0_>:
  407545:	55                   	push   %rbp
  407546:	48 89 e5             	mov    %rsp,%rbp
  407549:	48 83 ec 30          	sub    $0x30,%rsp
  40754d:	48 89 7d d8          	mov    %rdi,-0x28(%rbp)
  407551:	48 89 75 d0          	mov    %rsi,-0x30(%rbp)
  407555:	64 48 8b 04 25 28 00 	mov    %fs:0x28,%rax
  40755c:	00 00 
  40755e:	48 89 45 f8          	mov    %rax,-0x8(%rbp)
  407562:	31 c0                	xor    %eax,%eax
  407564:	48 8b 45 d0          	mov    -0x30(%rbp),%rax
  407568:	48 89 c7             	mov    %rax,%rdi
  40756b:	e8 68 ff ff ff       	callq  4074d8 <_ZSt7forwardIRFvvEEOT_RNSt16remove_referenceIS2_E4typeE>
  407570:	48 89 c2             	mov    %rax,%rdx
  407573:	48 8d 45 f0          	lea    -0x10(%rbp),%rax
  407577:	48 89 d6             	mov    %rdx,%rsi
  40757a:	48 89 c7             	mov    %rax,%rdi
  40757d:	e8 94 14 00 00       	callq  408a16 <_ZSt13__bind_simpleIRFvvEIEENSt19_Bind_simple_helperIT_IDpT0_EE6__typeEOS3_DpOS4_>
  407582:	48 8d 45 f0          	lea    -0x10(%rbp),%rax
  407586:	48 89 c7             	mov    %rax,%rdi
  407589:	e8 ef 14 00 00       	callq  408a7d <_ZSt11__addressofISt12_Bind_simpleIFPFvvEvEEEPT_RS5_>
  40758e:	48 89 c2             	mov    %rax,%rdx
  407591:	48 8b 05 50 ba 20 00 	mov    0x20ba50(%rip),%rax        # 612fe8 <_DYNAMIC+0x220>
  407598:	64 48 89 10          	mov    %rdx,%fs:(%rax)
  40759c:	48 8b 05 4d ba 20 00 	mov    0x20ba4d(%rip),%rax        # 612ff0 <_DYNAMIC+0x228>
  4075a3:	64 48 c7 00 8b 8a 40 	movq   $0x408a8b,%fs:(%rax)
  4075aa:	00 
  4075ab:	48 8b 45 d8          	mov    -0x28(%rbp),%rax
  4075af:	be b0 3f 40 00       	mov    $0x403fb0,%esi
  4075b4:	48 89 c7             	mov    %rax,%rdi
  4075b7:	e8 70 cc ff ff       	callq  40422c <_ZL14__gthread_oncePiPFvvE>
  4075bc:	89 45 ec             	mov    %eax,-0x14(%rbp)
  4075bf:	83 7d ec 00          	cmpl   $0x0,-0x14(%rbp)
  4075c3:	74 0a                	je     4075cf <_ZSt9call_onceIRFvvEIEEvRSt9once_flagOT_DpOT0_+0x8a>
  4075c5:	8b 45 ec             	mov    -0x14(%rbp),%eax
  4075c8:	89 c7                	mov    %eax,%edi
  4075ca:	e8 e1 c7 ff ff       	callq  403db0 <_ZSt20__throw_system_errori@plt>
  4075cf:	90                   	nop
  4075d0:	48 8b 45 f8          	mov    -0x8(%rbp),%rax
  4075d4:	64 48 33 04 25 28 00 	xor    %fs:0x28,%rax
  4075db:	00 00 
  4075dd:	74 05                	je     4075e4 <_ZSt9call_onceIRFvvEIEEvRSt9once_flagOT_DpOT0_+0x9f>
  4075df:	e8 6c c8 ff ff       	callq  403e50 <__stack_chk_fail@plt>
  4075e4:	c9                   	leaveq 
  4075e5:	c3                   	retq   

00000000004075e6 <_ZNSaIP15_cl_platform_idEC1Ev>:
  4075e6:	55                   	push   %rbp
  4075e7:	48 89 e5             	mov    %rsp,%rbp
  4075ea:	48 83 ec 10          	sub    $0x10,%rsp
  4075ee:	48 89 7d f8          	mov    %rdi,-0x8(%rbp)
  4075f2:	48 8b 45 f8          	mov    -0x8(%rbp),%rax
  4075f6:	48 89 c7             	mov    %rax,%rdi
