
softmax:     file format elf64-x86-64


Disassembly of section .init:

0000000000403bf8 <_init>:
  403bf8:	48 83 ec 08          	sub    $0x8,%rsp
  403bfc:	48 8b 05 f5 f3 20 00 	mov    0x20f3f5(%rip),%rax        # 612ff8 <_DYNAMIC+0x230>
  403c03:	48 85 c0             	test   %rax,%rax
  403c06:	74 05                	je     403c0d <_init+0x15>
  403c08:	e8 03 05 00 00       	callq  404110 <xopenme_get_timer@plt+0x10>
  403c0d:	48 83 c4 08          	add    $0x8,%rsp
  403c11:	c3                   	retq   

Disassembly of section .plt:

0000000000403c20 <_Znam@plt-0x10>:
  403c20:	ff 35 e2 f3 20 00    	pushq  0x20f3e2(%rip)        # 613008 <_GLOBAL_OFFSET_TABLE_+0x8>
  403c26:	ff 25 e4 f3 20 00    	jmpq   *0x20f3e4(%rip)        # 613010 <_GLOBAL_OFFSET_TABLE_+0x10>
  403c2c:	0f 1f 40 00          	nopl   0x0(%rax)

0000000000403c30 <_Znam@plt>:
  403c30:	ff 25 e2 f3 20 00    	jmpq   *0x20f3e2(%rip)        # 613018 <_GLOBAL_OFFSET_TABLE_+0x18>
  403c36:	68 00 00 00 00       	pushq  $0x0
  403c3b:	e9 e0 ff ff ff       	jmpq   403c20 <_init+0x28>

0000000000403c40 <_ZNSt7__cxx1112basic_stringIcSt11char_traitsIcESaIcEEaSERKS4_@plt>:
  403c40:	ff 25 da f3 20 00    	jmpq   *0x20f3da(%rip)        # 613020 <_GLOBAL_OFFSET_TABLE_+0x20>
  403c46:	68 01 00 00 00       	pushq  $0x1
  403c4b:	e9 d0 ff ff ff       	jmpq   403c20 <_init+0x28>

0000000000403c50 <printf@plt>:
  403c50:	ff 25 d2 f3 20 00    	jmpq   *0x20f3d2(%rip)        # 613028 <_GLOBAL_OFFSET_TABLE_+0x28>
  403c56:	68 02 00 00 00       	pushq  $0x2
  403c5b:	e9 c0 ff ff ff       	jmpq   403c20 <_init+0x28>

0000000000403c60 <_ZN11arm_compute11CLScheduler3getEv@plt>:
  403c60:	ff 25 ca f3 20 00    	jmpq   *0x20f3ca(%rip)        # 613030 <_GLOBAL_OFFSET_TABLE_+0x30>
  403c66:	68 03 00 00 00       	pushq  $0x3
  403c6b:	e9 b0 ff ff ff       	jmpq   403c20 <_init+0x28>

0000000000403c70 <sprintf@plt>:
  403c70:	ff 25 c2 f3 20 00    	jmpq   *0x20f3c2(%rip)        # 613038 <_GLOBAL_OFFSET_TABLE_+0x38>
  403c76:	68 04 00 00 00       	pushq  $0x4
  403c7b:	e9 a0 ff ff ff       	jmpq   403c20 <_init+0x28>

0000000000403c80 <xopenme_clock_start@plt>:
  403c80:	ff 25 ba f3 20 00    	jmpq   *0x20f3ba(%rip)        # 613040 <_GLOBAL_OFFSET_TABLE_+0x40>
  403c86:	68 05 00 00 00       	pushq  $0x5
  403c8b:	e9 90 ff ff ff       	jmpq   403c20 <_init+0x28>

0000000000403c90 <xopenme_dump_state@plt>:
  403c90:	ff 25 b2 f3 20 00    	jmpq   *0x20f3b2(%rip)        # 613048 <_GLOBAL_OFFSET_TABLE_+0x48>
  403c96:	68 06 00 00 00       	pushq  $0x6
  403c9b:	e9 80 ff ff ff       	jmpq   403c20 <_init+0x28>

0000000000403ca0 <clFinish@plt>:
  403ca0:	ff 25 aa f3 20 00    	jmpq   *0x20f3aa(%rip)        # 613050 <_GLOBAL_OFFSET_TABLE_+0x50>
  403ca6:	68 07 00 00 00       	pushq  $0x7
  403cab:	e9 70 ff ff ff       	jmpq   403c20 <_init+0x28>

0000000000403cb0 <xopenme_finish@plt>:
  403cb0:	ff 25 a2 f3 20 00    	jmpq   *0x20f3a2(%rip)        # 613058 <_GLOBAL_OFFSET_TABLE_+0x58>
  403cb6:	68 08 00 00 00       	pushq  $0x8
  403cbb:	e9 60 ff ff ff       	jmpq   403c20 <_init+0x28>

0000000000403cc0 <rand@plt>:
  403cc0:	ff 25 9a f3 20 00    	jmpq   *0x20f39a(%rip)        # 613060 <_GLOBAL_OFFSET_TABLE_+0x60>
  403cc6:	68 09 00 00 00       	pushq  $0x9
  403ccb:	e9 50 ff ff ff       	jmpq   403c20 <_init+0x28>

0000000000403cd0 <_ZN11arm_compute8CLTensor5unmapEv@plt>:
  403cd0:	ff 25 92 f3 20 00    	jmpq   *0x20f392(%rip)        # 613068 <_GLOBAL_OFFSET_TABLE_+0x68>
  403cd6:	68 0a 00 00 00       	pushq  $0xa
  403cdb:	e9 40 ff ff ff       	jmpq   403c20 <_init+0x28>

0000000000403ce0 <_ZSt17__throw_bad_allocv@plt>:
  403ce0:	ff 25 8a f3 20 00    	jmpq   *0x20f38a(%rip)        # 613070 <_GLOBAL_OFFSET_TABLE_+0x70>
  403ce6:	68 0b 00 00 00       	pushq  $0xb
  403ceb:	e9 30 ff ff ff       	jmpq   403c20 <_init+0x28>

0000000000403cf0 <xopenme_init@plt>:
  403cf0:	ff 25 82 f3 20 00    	jmpq   *0x20f382(%rip)        # 613078 <_GLOBAL_OFFSET_TABLE_+0x78>
  403cf6:	68 0c 00 00 00       	pushq  $0xc
  403cfb:	e9 20 ff ff ff       	jmpq   403c20 <_init+0x28>

0000000000403d00 <__cxa_begin_catch@plt>:
  403d00:	ff 25 7a f3 20 00    	jmpq   *0x20f37a(%rip)        # 613080 <_GLOBAL_OFFSET_TABLE_+0x80>
  403d06:	68 0d 00 00 00       	pushq  $0xd
  403d0b:	e9 10 ff ff ff       	jmpq   403c20 <_init+0x28>

0000000000403d10 <strlen@plt>:
  403d10:	ff 25 72 f3 20 00    	jmpq   *0x20f372(%rip)        # 613088 <_GLOBAL_OFFSET_TABLE_+0x88>
  403d16:	68 0e 00 00 00       	pushq  $0xe
  403d1b:	e9 00 ff ff ff       	jmpq   403c20 <_init+0x28>

0000000000403d20 <xopenme_dump_memory@plt>:
  403d20:	ff 25 6a f3 20 00    	jmpq   *0x20f36a(%rip)        # 613090 <_GLOBAL_OFFSET_TABLE_+0x90>
  403d26:	68 0f 00 00 00       	pushq  $0xf
  403d2b:	e9 f0 fe ff ff       	jmpq   403c20 <_init+0x28>

0000000000403d30 <clRetainCommandQueue@plt>:
  403d30:	ff 25 62 f3 20 00    	jmpq   *0x20f362(%rip)        # 613098 <_GLOBAL_OFFSET_TABLE_+0x98>
  403d36:	68 10 00 00 00       	pushq  $0x10
  403d3b:	e9 e0 fe ff ff       	jmpq   403c20 <_init+0x28>

0000000000403d40 <__cxa_allocate_exception@plt>:
  403d40:	ff 25 5a f3 20 00    	jmpq   *0x20f35a(%rip)        # 6130a0 <_GLOBAL_OFFSET_TABLE_+0xa0>
  403d46:	68 11 00 00 00       	pushq  $0x11
  403d4b:	e9 d0 fe ff ff       	jmpq   403c20 <_init+0x28>

0000000000403d50 <_ZSt20__throw_length_errorPKc@plt>:
  403d50:	ff 25 52 f3 20 00    	jmpq   *0x20f352(%rip)        # 6130a8 <_GLOBAL_OFFSET_TABLE_+0xa8>
  403d56:	68 12 00 00 00       	pushq  $0x12
  403d5b:	e9 c0 fe ff ff       	jmpq   403c20 <_init+0x28>

0000000000403d60 <_ZN11arm_compute14CLSoftmaxLayerC1ESt10shared_ptrINS_14IMemoryManagerEE@plt>:
  403d60:	ff 25 4a f3 20 00    	jmpq   *0x20f34a(%rip)        # 6130b0 <_GLOBAL_OFFSET_TABLE_+0xb0>
  403d66:	68 13 00 00 00       	pushq  $0x13
  403d6b:	e9 b0 fe ff ff       	jmpq   403c20 <_init+0x28>

0000000000403d70 <_ZN11arm_compute15CLKernelLibrary3getEv@plt>:
  403d70:	ff 25 42 f3 20 00    	jmpq   *0x20f342(%rip)        # 6130b8 <_GLOBAL_OFFSET_TABLE_+0xb8>
  403d76:	68 14 00 00 00       	pushq  $0x14
  403d7b:	e9 a0 fe ff ff       	jmpq   403c20 <_init+0x28>

0000000000403d80 <clReleaseContext@plt>:
  403d80:	ff 25 3a f3 20 00    	jmpq   *0x20f33a(%rip)        # 6130c0 <_GLOBAL_OFFSET_TABLE_+0xc0>
  403d86:	68 15 00 00 00       	pushq  $0x15
  403d8b:	e9 90 fe ff ff       	jmpq   403c20 <_init+0x28>

0000000000403d90 <_ZNSt7__cxx1112basic_stringIcSt11char_traitsIcESaIcEED1Ev@plt>:
  403d90:	ff 25 32 f3 20 00    	jmpq   *0x20f332(%rip)        # 6130c8 <_GLOBAL_OFFSET_TABLE_+0xc8>
  403d96:	68 16 00 00 00       	pushq  $0x16
  403d9b:	e9 80 fe ff ff       	jmpq   403c20 <_init+0x28>

0000000000403da0 <__assert_fail@plt>:
  403da0:	ff 25 2a f3 20 00    	jmpq   *0x20f32a(%rip)        # 6130d0 <_GLOBAL_OFFSET_TABLE_+0xd0>
  403da6:	68 17 00 00 00       	pushq  $0x17
  403dab:	e9 70 fe ff ff       	jmpq   403c20 <_init+0x28>

0000000000403db0 <_ZSt20__throw_system_errori@plt>:
  403db0:	ff 25 22 f3 20 00    	jmpq   *0x20f322(%rip)        # 6130d8 <_GLOBAL_OFFSET_TABLE_+0xd8>
  403db6:	68 18 00 00 00       	pushq  $0x18
  403dbb:	e9 60 fe ff ff       	jmpq   403c20 <_init+0x28>

0000000000403dc0 <clGetPlatformIDs@plt>:
  403dc0:	ff 25 1a f3 20 00    	jmpq   *0x20f31a(%rip)        # 6130e0 <_GLOBAL_OFFSET_TABLE_+0xe0>
  403dc6:	68 19 00 00 00       	pushq  $0x19
  403dcb:	e9 50 fe ff ff       	jmpq   403c20 <_init+0x28>

0000000000403dd0 <clGetContextInfo@plt>:
  403dd0:	ff 25 12 f3 20 00    	jmpq   *0x20f312(%rip)        # 6130e8 <_GLOBAL_OFFSET_TABLE_+0xe8>
  403dd6:	68 1a 00 00 00       	pushq  $0x1a
  403ddb:	e9 40 fe ff ff       	jmpq   403c20 <_init+0x28>

0000000000403de0 <__cxa_atexit@plt>:
  403de0:	ff 25 0a f3 20 00    	jmpq   *0x20f30a(%rip)        # 6130f0 <_GLOBAL_OFFSET_TABLE_+0xf0>
  403de6:	68 1b 00 00 00       	pushq  $0x1b
  403deb:	e9 30 fe ff ff       	jmpq   403c20 <_init+0x28>

0000000000403df0 <_ZdlPv@plt>:
  403df0:	ff 25 02 f3 20 00    	jmpq   *0x20f302(%rip)        # 6130f8 <_GLOBAL_OFFSET_TABLE_+0xf8>
  403df6:	68 1c 00 00 00       	pushq  $0x1c
  403dfb:	e9 20 fe ff ff       	jmpq   403c20 <_init+0x28>

0000000000403e00 <srand@plt>:
  403e00:	ff 25 fa f2 20 00    	jmpq   *0x20f2fa(%rip)        # 613100 <_GLOBAL_OFFSET_TABLE_+0x100>
  403e06:	68 1d 00 00 00       	pushq  $0x1d
  403e0b:	e9 10 fe ff ff       	jmpq   403c20 <_init+0x28>

0000000000403e10 <_Znwm@plt>:
  403e10:	ff 25 f2 f2 20 00    	jmpq   *0x20f2f2(%rip)        # 613108 <_GLOBAL_OFFSET_TABLE_+0x108>
  403e16:	68 1e 00 00 00       	pushq  $0x1e
  403e1b:	e9 00 fe ff ff       	jmpq   403c20 <_init+0x28>

0000000000403e20 <_ZN11arm_compute15CLKernelLibrary24max_local_workgroup_sizeEv@plt>:
  403e20:	ff 25 ea f2 20 00    	jmpq   *0x20f2ea(%rip)        # 613110 <_GLOBAL_OFFSET_TABLE_+0x110>
  403e26:	68 1f 00 00 00       	pushq  $0x1f
  403e2b:	e9 f0 fd ff ff       	jmpq   403c20 <_init+0x28>

0000000000403e30 <_ZNSaIcED1Ev@plt>:
  403e30:	ff 25 e2 f2 20 00    	jmpq   *0x20f2e2(%rip)        # 613118 <_GLOBAL_OFFSET_TABLE_+0x118>
  403e36:	68 20 00 00 00       	pushq  $0x20
  403e3b:	e9 e0 fd ff ff       	jmpq   403c20 <_init+0x28>

0000000000403e40 <_ZN11arm_compute17ICLSimple3DKernel3runERKNS_6WindowERN2cl12CommandQueueE@plt>:
  403e40:	ff 25 da f2 20 00    	jmpq   *0x20f2da(%rip)        # 613120 <_GLOBAL_OFFSET_TABLE_+0x120>
  403e46:	68 21 00 00 00       	pushq  $0x21
  403e4b:	e9 d0 fd ff ff       	jmpq   403c20 <_init+0x28>

0000000000403e50 <__stack_chk_fail@plt>:
  403e50:	ff 25 d2 f2 20 00    	jmpq   *0x20f2d2(%rip)        # 613128 <_GLOBAL_OFFSET_TABLE_+0x128>
  403e56:	68 22 00 00 00       	pushq  $0x22
  403e5b:	e9 c0 fd ff ff       	jmpq   403c20 <_init+0x28>

0000000000403e60 <_ZN11arm_compute16ITensorAllocator4initERKNS_10TensorInfoE@plt>:
  403e60:	ff 25 ca f2 20 00    	jmpq   *0x20f2ca(%rip)        # 613130 <_GLOBAL_OFFSET_TABLE_+0x130>
  403e66:	68 23 00 00 00       	pushq  $0x23
  403e6b:	e9 b0 fd ff ff       	jmpq   403c20 <_init+0x28>

0000000000403e70 <xopenme_add_var_i@plt>:
  403e70:	ff 25 c2 f2 20 00    	jmpq   *0x20f2c2(%rip)        # 613138 <_GLOBAL_OFFSET_TABLE_+0x138>
  403e76:	68 24 00 00 00       	pushq  $0x24
  403e7b:	e9 a0 fd ff ff       	jmpq   403c20 <_init+0x28>

0000000000403e80 <_ZN11arm_compute8CLTensor9allocatorEv@plt>:
  403e80:	ff 25 ba f2 20 00    	jmpq   *0x20f2ba(%rip)        # 613140 <_GLOBAL_OFFSET_TABLE_+0x140>
  403e86:	68 25 00 00 00       	pushq  $0x25
  403e8b:	e9 90 fd ff ff       	jmpq   403c20 <_init+0x28>

0000000000403e90 <getenv@plt>:
  403e90:	ff 25 b2 f2 20 00    	jmpq   *0x20f2b2(%rip)        # 613148 <_GLOBAL_OFFSET_TABLE_+0x148>
  403e96:	68 26 00 00 00       	pushq  $0x26
  403e9b:	e9 80 fd ff ff       	jmpq   403c20 <_init+0x28>

0000000000403ea0 <_ZN11arm_compute30error_on_window_dimensions_gteEPKcS1_iRKNS_6WindowEj@plt>:
  403ea0:	ff 25 aa f2 20 00    	jmpq   *0x20f2aa(%rip)        # 613150 <_GLOBAL_OFFSET_TABLE_+0x150>
  403ea6:	68 27 00 00 00       	pushq  $0x27
  403eab:	e9 70 fd ff ff       	jmpq   403c20 <_init+0x28>

0000000000403eb0 <_ZNSt7__cxx1112basic_stringIcSt11char_traitsIcESaIcEEaSEOS4_@plt>:
  403eb0:	ff 25 a2 f2 20 00    	jmpq   *0x20f2a2(%rip)        # 613158 <_GLOBAL_OFFSET_TABLE_+0x158>
  403eb6:	68 28 00 00 00       	pushq  $0x28
  403ebb:	e9 60 fd ff ff       	jmpq   403c20 <_init+0x28>

0000000000403ec0 <clGetDeviceIDs@plt>:
  403ec0:	ff 25 9a f2 20 00    	jmpq   *0x20f29a(%rip)        # 613160 <_GLOBAL_OFFSET_TABLE_+0x160>
  403ec6:	68 29 00 00 00       	pushq  $0x29
  403ecb:	e9 50 fd ff ff       	jmpq   403c20 <_init+0x28>

0000000000403ed0 <__cxa_get_exception_ptr@plt>:
  403ed0:	ff 25 92 f2 20 00    	jmpq   *0x20f292(%rip)        # 613168 <_GLOBAL_OFFSET_TABLE_+0x168>
  403ed6:	68 2a 00 00 00       	pushq  $0x2a
  403edb:	e9 40 fd ff ff       	jmpq   403c20 <_init+0x28>

0000000000403ee0 <clReleaseCommandQueue@plt>:
  403ee0:	ff 25 8a f2 20 00    	jmpq   *0x20f28a(%rip)        # 613170 <_GLOBAL_OFFSET_TABLE_+0x170>
  403ee6:	68 2b 00 00 00       	pushq  $0x2b
  403eeb:	e9 30 fd ff ff       	jmpq   403c20 <_init+0x28>

0000000000403ef0 <_ZdaPv@plt>:
  403ef0:	ff 25 82 f2 20 00    	jmpq   *0x20f282(%rip)        # 613178 <_GLOBAL_OFFSET_TABLE_+0x178>
  403ef6:	68 2c 00 00 00       	pushq  $0x2c
  403efb:	e9 20 fd ff ff       	jmpq   403c20 <_init+0x28>

0000000000403f00 <_ZN11arm_compute22get_target_from_deviceERN2cl6DeviceE@plt>:
  403f00:	ff 25 7a f2 20 00    	jmpq   *0x20f27a(%rip)        # 613180 <_GLOBAL_OFFSET_TABLE_+0x180>
  403f06:	68 2d 00 00 00       	pushq  $0x2d
  403f0b:	e9 10 fd ff ff       	jmpq   403c20 <_init+0x28>

0000000000403f10 <xopenme_clock_end@plt>:
  403f10:	ff 25 72 f2 20 00    	jmpq   *0x20f272(%rip)        # 613188 <_GLOBAL_OFFSET_TABLE_+0x188>
  403f16:	68 2e 00 00 00       	pushq  $0x2e
  403f1b:	e9 00 fd ff ff       	jmpq   403c20 <_init+0x28>

0000000000403f20 <_ZNSt7__cxx1112basic_stringIcSt11char_traitsIcESaIcEEC1EPKcRKS3_@plt>:
  403f20:	ff 25 6a f2 20 00    	jmpq   *0x20f26a(%rip)        # 613190 <_GLOBAL_OFFSET_TABLE_+0x190>
  403f26:	68 2f 00 00 00       	pushq  $0x2f
  403f2b:	e9 f0 fc ff ff       	jmpq   403c20 <_init+0x28>

0000000000403f30 <putchar@plt>:
  403f30:	ff 25 62 f2 20 00    	jmpq   *0x20f262(%rip)        # 613198 <_GLOBAL_OFFSET_TABLE_+0x198>
  403f36:	68 30 00 00 00       	pushq  $0x30
  403f3b:	e9 e0 fc ff ff       	jmpq   403c20 <_init+0x28>

0000000000403f40 <__cxa_throw_bad_array_new_length@plt>:
  403f40:	ff 25 5a f2 20 00    	jmpq   *0x20f25a(%rip)        # 6131a0 <_GLOBAL_OFFSET_TABLE_+0x1a0>
  403f46:	68 31 00 00 00       	pushq  $0x31
  403f4b:	e9 d0 fc ff ff       	jmpq   403c20 <_init+0x28>

0000000000403f50 <__cxa_rethrow@plt>:
  403f50:	ff 25 52 f2 20 00    	jmpq   *0x20f252(%rip)        # 6131a8 <_GLOBAL_OFFSET_TABLE_+0x1a8>
  403f56:	68 32 00 00 00       	pushq  $0x32
  403f5b:	e9 c0 fc ff ff       	jmpq   403c20 <_init+0x28>

0000000000403f60 <_ZSt24__throw_out_of_range_fmtPKcz@plt>:
  403f60:	ff 25 4a f2 20 00    	jmpq   *0x20f24a(%rip)        # 6131b0 <_GLOBAL_OFFSET_TABLE_+0x1b0>
  403f66:	68 33 00 00 00       	pushq  $0x33
  403f6b:	e9 b0 fc ff ff       	jmpq   403c20 <_init+0x28>

0000000000403f70 <_ZNK11arm_compute7IKernel17is_parallelisableEv@plt>:
  403f70:	ff 25 42 f2 20 00    	jmpq   *0x20f242(%rip)        # 6131b8 <_GLOBAL_OFFSET_TABLE_+0x1b8>
  403f76:	68 34 00 00 00       	pushq  $0x34
  403f7b:	e9 a0 fc ff ff       	jmpq   403c20 <_init+0x28>

0000000000403f80 <puts@plt>:
  403f80:	ff 25 3a f2 20 00    	jmpq   *0x20f23a(%rip)        # 6131c0 <_GLOBAL_OFFSET_TABLE_+0x1c0>
  403f86:	68 35 00 00 00       	pushq  $0x35
  403f8b:	e9 90 fc ff ff       	jmpq   403c20 <_init+0x28>

0000000000403f90 <atoi@plt>:
  403f90:	ff 25 32 f2 20 00    	jmpq   *0x20f232(%rip)        # 6131c8 <_GLOBAL_OFFSET_TABLE_+0x1c8>
  403f96:	68 36 00 00 00       	pushq  $0x36
  403f9b:	e9 80 fc ff ff       	jmpq   403c20 <_init+0x28>

0000000000403fa0 <_ZN11arm_compute17CLTensorAllocatorD1Ev@plt>:
  403fa0:	ff 25 2a f2 20 00    	jmpq   *0x20f22a(%rip)        # 6131d0 <_GLOBAL_OFFSET_TABLE_+0x1d0>
  403fa6:	68 37 00 00 00       	pushq  $0x37
  403fab:	e9 70 fc ff ff       	jmpq   403c20 <_init+0x28>

0000000000403fb0 <__once_proxy@plt>:
  403fb0:	ff 25 22 f2 20 00    	jmpq   *0x20f222(%rip)        # 6131d8 <_GLOBAL_OFFSET_TABLE_+0x1d8>
  403fb6:	68 38 00 00 00       	pushq  $0x38
  403fbb:	e9 60 fc ff ff       	jmpq   403c20 <_init+0x28>

0000000000403fc0 <__cxa_end_catch@plt>:
  403fc0:	ff 25 1a f2 20 00    	jmpq   *0x20f21a(%rip)        # 6131e0 <_GLOBAL_OFFSET_TABLE_+0x1e0>
  403fc6:	68 39 00 00 00       	pushq  $0x39
  403fcb:	e9 50 fc ff ff       	jmpq   403c20 <_init+0x28>

0000000000403fd0 <pthread_once@plt>:
  403fd0:	ff 25 12 f2 20 00    	jmpq   *0x20f212(%rip)        # 6131e8 <_GLOBAL_OFFSET_TABLE_+0x1e8>
  403fd6:	68 3a 00 00 00       	pushq  $0x3a
  403fdb:	e9 40 fc ff ff       	jmpq   403c20 <_init+0x28>

0000000000403fe0 <__gxx_personality_v0@plt>:
  403fe0:	ff 25 0a f2 20 00    	jmpq   *0x20f20a(%rip)        # 6131f0 <_GLOBAL_OFFSET_TABLE_+0x1f0>
  403fe6:	68 3b 00 00 00       	pushq  $0x3b
  403feb:	e9 30 fc ff ff       	jmpq   403c20 <_init+0x28>

0000000000403ff0 <__pthread_key_create@plt>:
  403ff0:	ff 25 02 f2 20 00    	jmpq   *0x20f202(%rip)        # 6131f8 <_GLOBAL_OFFSET_TABLE_+0x1f8>
  403ff6:	68 3c 00 00 00       	pushq  $0x3c
  403ffb:	e9 20 fc ff ff       	jmpq   403c20 <_init+0x28>

0000000000404000 <_ZN11arm_compute14CLSoftmaxLayer9configureEPKNS_9ICLTensorEPS1_@plt>:
  404000:	ff 25 fa f1 20 00    	jmpq   *0x20f1fa(%rip)        # 613200 <_GLOBAL_OFFSET_TABLE_+0x200>
  404006:	68 3d 00 00 00       	pushq  $0x3d
  40400b:	e9 10 fc ff ff       	jmpq   403c20 <_init+0x28>

0000000000404010 <_ZNK11arm_compute7IKernel11border_sizeEv@plt>:
  404010:	ff 25 f2 f1 20 00    	jmpq   *0x20f1f2(%rip)        # 613208 <_GLOBAL_OFFSET_TABLE_+0x208>
  404016:	68 3e 00 00 00       	pushq  $0x3e
  40401b:	e9 00 fc ff ff       	jmpq   403c20 <_init+0x28>

0000000000404020 <clCreateCommandQueue@plt>:
  404020:	ff 25 ea f1 20 00    	jmpq   *0x20f1ea(%rip)        # 613210 <_GLOBAL_OFFSET_TABLE_+0x210>
  404026:	68 3f 00 00 00       	pushq  $0x3f
  40402b:	e9 f0 fb ff ff       	jmpq   403c20 <_init+0x28>

0000000000404030 <clRetainContext@plt>:
  404030:	ff 25 e2 f1 20 00    	jmpq   *0x20f1e2(%rip)        # 613218 <_GLOBAL_OFFSET_TABLE_+0x218>
  404036:	68 40 00 00 00       	pushq  $0x40
  40403b:	e9 e0 fb ff ff       	jmpq   403c20 <_init+0x28>

0000000000404040 <_ZN11arm_compute10TensorInfoC1ERKNS_11TensorShapeENS_6FormatE@plt>:
  404040:	ff 25 da f1 20 00    	jmpq   *0x20f1da(%rip)        # 613220 <_GLOBAL_OFFSET_TABLE_+0x220>
  404046:	68 41 00 00 00       	pushq  $0x41
  40404b:	e9 d0 fb ff ff       	jmpq   403c20 <_init+0x28>

0000000000404050 <__cxa_throw@plt>:
  404050:	ff 25 d2 f1 20 00    	jmpq   *0x20f1d2(%rip)        # 613228 <_GLOBAL_OFFSET_TABLE_+0x228>
  404056:	68 42 00 00 00       	pushq  $0x42
  40405b:	e9 c0 fb ff ff       	jmpq   403c20 <_init+0x28>

0000000000404060 <clCreateContextFromType@plt>:
  404060:	ff 25 ca f1 20 00    	jmpq   *0x20f1ca(%rip)        # 613230 <_GLOBAL_OFFSET_TABLE_+0x230>
  404066:	68 43 00 00 00       	pushq  $0x43
  40406b:	e9 b0 fb ff ff       	jmpq   403c20 <_init+0x28>

0000000000404070 <_Unwind_Resume@plt>:
  404070:	ff 25 c2 f1 20 00    	jmpq   *0x20f1c2(%rip)        # 613238 <_GLOBAL_OFFSET_TABLE_+0x238>
  404076:	68 44 00 00 00       	pushq  $0x44
  40407b:	e9 a0 fb ff ff       	jmpq   403c20 <_init+0x28>

0000000000404080 <_ZNSaIcEC1Ev@plt>:
  404080:	ff 25 ba f1 20 00    	jmpq   *0x20f1ba(%rip)        # 613240 <_GLOBAL_OFFSET_TABLE_+0x240>
  404086:	68 45 00 00 00       	pushq  $0x45
  40408b:	e9 90 fb ff ff       	jmpq   403c20 <_init+0x28>

0000000000404090 <_ZN11arm_compute8CLTensor3mapEb@plt>:
  404090:	ff 25 b2 f1 20 00    	jmpq   *0x20f1b2(%rip)        # 613248 <_GLOBAL_OFFSET_TABLE_+0x248>
  404096:	68 46 00 00 00       	pushq  $0x46
  40409b:	e9 80 fb ff ff       	jmpq   403c20 <_init+0x28>

00000000004040a0 <_ZNSt9exceptionD2Ev@plt>:
  4040a0:	ff 25 aa f1 20 00    	jmpq   *0x20f1aa(%rip)        # 613250 <_GLOBAL_OFFSET_TABLE_+0x250>
  4040a6:	68 47 00 00 00       	pushq  $0x47
  4040ab:	e9 70 fb ff ff       	jmpq   403c20 <_init+0x28>

00000000004040b0 <clReleaseKernel@plt>:
  4040b0:	ff 25 a2 f1 20 00    	jmpq   *0x20f1a2(%rip)        # 613258 <_GLOBAL_OFFSET_TABLE_+0x258>
  4040b6:	68 48 00 00 00       	pushq  $0x48
  4040bb:	e9 60 fb ff ff       	jmpq   403c20 <_init+0x28>

00000000004040c0 <__libc_start_main@plt>:
  4040c0:	ff 25 9a f1 20 00    	jmpq   *0x20f19a(%rip)        # 613260 <_GLOBAL_OFFSET_TABLE_+0x260>
  4040c6:	68 49 00 00 00       	pushq  $0x49
  4040cb:	e9 50 fb ff ff       	jmpq   403c20 <_init+0x28>

00000000004040d0 <xopenme_add_var_f@plt>:
  4040d0:	ff 25 92 f1 20 00    	jmpq   *0x20f192(%rip)        # 613268 <_GLOBAL_OFFSET_TABLE_+0x268>
  4040d6:	68 4a 00 00 00       	pushq  $0x4a
  4040db:	e9 40 fb ff ff       	jmpq   403c20 <_init+0x28>

00000000004040e0 <_ZN11arm_compute8CLTensorC1Ev@plt>:
  4040e0:	ff 25 8a f1 20 00    	jmpq   *0x20f18a(%rip)        # 613270 <_GLOBAL_OFFSET_TABLE_+0x270>
  4040e6:	68 4b 00 00 00       	pushq  $0x4b
  4040eb:	e9 30 fb ff ff       	jmpq   403c20 <_init+0x28>

00000000004040f0 <__cxa_pure_virtual@plt>:
  4040f0:	ff 25 82 f1 20 00    	jmpq   *0x20f182(%rip)        # 613278 <_GLOBAL_OFFSET_TABLE_+0x278>
  4040f6:	68 4c 00 00 00       	pushq  $0x4c
  4040fb:	e9 20 fb ff ff       	jmpq   403c20 <_init+0x28>

0000000000404100 <xopenme_get_timer@plt>:
  404100:	ff 25 7a f1 20 00    	jmpq   *0x20f17a(%rip)        # 613280 <_GLOBAL_OFFSET_TABLE_+0x280>
  404106:	68 4d 00 00 00       	pushq  $0x4d
  40410b:	e9 10 fb ff ff       	jmpq   403c20 <_init+0x28>

Disassembly of section .plt.got:

0000000000404110 <.plt.got>:
  404110:	ff 25 e2 ee 20 00    	jmpq   *0x20eee2(%rip)        # 612ff8 <_DYNAMIC+0x230>
  404116:	66 90                	xchg   %ax,%ax

Disassembly of section .text:

0000000000404120 <_start>:
  404120:	31 ed                	xor    %ebp,%ebp
  404122:	49 89 d1             	mov    %rdx,%r9
  404125:	5e                   	pop    %rsi
  404126:	48 89 e2             	mov    %rsp,%rdx
  404129:	48 83 e4 f0          	and    $0xfffffffffffffff0,%rsp
  40412d:	50                   	push   %rax
  40412e:	54                   	push   %rsp
  40412f:	49 c7 c0 60 c6 40 00 	mov    $0x40c660,%r8
  404136:	48 c7 c1 f0 c5 40 00 	mov    $0x40c5f0,%rcx
  40413d:	48 c7 c7 03 47 40 00 	mov    $0x404703,%rdi
  404144:	e8 77 ff ff ff       	callq  4040c0 <__libc_start_main@plt>
  404149:	f4                   	hlt    
  40414a:	66 0f 1f 44 00 00    	nopw   0x0(%rax,%rax,1)

0000000000404150 <deregister_tm_clones>:
  404150:	b8 9f 32 61 00       	mov    $0x61329f,%eax
  404155:	55                   	push   %rbp
  404156:	48 2d 98 32 61 00    	sub    $0x613298,%rax
  40415c:	48 83 f8 0e          	cmp    $0xe,%rax
  404160:	48 89 e5             	mov    %rsp,%rbp
  404163:	76 1b                	jbe    404180 <deregister_tm_clones+0x30>
  404165:	b8 00 00 00 00       	mov    $0x0,%eax
  40416a:	48 85 c0             	test   %rax,%rax
  40416d:	74 11                	je     404180 <deregister_tm_clones+0x30>
  40416f:	5d                   	pop    %rbp
  404170:	bf 98 32 61 00       	mov    $0x613298,%edi
  404175:	ff e0                	jmpq   *%rax
  404177:	66 0f 1f 84 00 00 00 	nopw   0x0(%rax,%rax,1)
  40417e:	00 00 
  404180:	5d                   	pop    %rbp
  404181:	c3                   	retq   
  404182:	0f 1f 40 00          	nopl   0x0(%rax)
  404186:	66 2e 0f 1f 84 00 00 	nopw   %cs:0x0(%rax,%rax,1)
  40418d:	00 00 00 

0000000000404190 <register_tm_clones>:
  404190:	be 98 32 61 00       	mov    $0x613298,%esi
  404195:	55                   	push   %rbp
  404196:	48 81 ee 98 32 61 00 	sub    $0x613298,%rsi
  40419d:	48 c1 fe 03          	sar    $0x3,%rsi
  4041a1:	48 89 e5             	mov    %rsp,%rbp
  4041a4:	48 89 f0             	mov    %rsi,%rax
  4041a7:	48 c1 e8 3f          	shr    $0x3f,%rax
  4041ab:	48 01 c6             	add    %rax,%rsi
  4041ae:	48 d1 fe             	sar    %rsi
  4041b1:	74 15                	je     4041c8 <register_tm_clones+0x38>
  4041b3:	b8 00 00 00 00       	mov    $0x0,%eax
  4041b8:	48 85 c0             	test   %rax,%rax
  4041bb:	74 0b                	je     4041c8 <register_tm_clones+0x38>
  4041bd:	5d                   	pop    %rbp
  4041be:	bf 98 32 61 00       	mov    $0x613298,%edi
  4041c3:	ff e0                	jmpq   *%rax
  4041c5:	0f 1f 00             	nopl   (%rax)
  4041c8:	5d                   	pop    %rbp
  4041c9:	c3                   	retq   
  4041ca:	66 0f 1f 44 00 00    	nopw   0x0(%rax,%rax,1)

00000000004041d0 <__do_global_dtors_aux>:
  4041d0:	80 3d f1 f4 20 00 00 	cmpb   $0x0,0x20f4f1(%rip)        # 6136c8 <completed.7585>
  4041d7:	75 11                	jne    4041ea <__do_global_dtors_aux+0x1a>
  4041d9:	55                   	push   %rbp
  4041da:	48 89 e5             	mov    %rsp,%rbp
  4041dd:	e8 6e ff ff ff       	callq  404150 <deregister_tm_clones>
  4041e2:	5d                   	pop    %rbp
  4041e3:	c6 05 de f4 20 00 01 	movb   $0x1,0x20f4de(%rip)        # 6136c8 <completed.7585>
  4041ea:	f3 c3                	repz retq 
  4041ec:	0f 1f 40 00          	nopl   0x0(%rax)

00000000004041f0 <frame_dummy>:
  4041f0:	bf c0 2d 61 00       	mov    $0x612dc0,%edi
  4041f5:	48 83 3f 00          	cmpq   $0x0,(%rdi)
  4041f9:	75 05                	jne    404200 <frame_dummy+0x10>
  4041fb:	eb 93                	jmp    404190 <register_tm_clones>
  4041fd:	0f 1f 00             	nopl   (%rax)
  404200:	b8 00 00 00 00       	mov    $0x0,%eax
  404205:	48 85 c0             	test   %rax,%rax
  404208:	74 f1                	je     4041fb <frame_dummy+0xb>
  40420a:	55                   	push   %rbp
  40420b:	48 89 e5             	mov    %rsp,%rbp
  40420e:	ff d0                	callq  *%rax
  404210:	5d                   	pop    %rbp
  404211:	e9 7a ff ff ff       	jmpq   404190 <register_tm_clones>

0000000000404216 <_ZL18__gthread_active_pv>:
  404216:	55                   	push   %rbp
  404217:	48 89 e5             	mov    %rsp,%rbp
  40421a:	48 8b 05 0f 88 00 00 	mov    0x880f(%rip),%rax        # 40ca30 <_ZZL18__gthread_active_pvE20__gthread_active_ptr>
  404221:	48 85 c0             	test   %rax,%rax
  404224:	0f 95 c0             	setne  %al
  404227:	0f b6 c0             	movzbl %al,%eax
  40422a:	5d                   	pop    %rbp
  40422b:	c3                   	retq   

000000000040422c <_ZL14__gthread_oncePiPFvvE>:
  40422c:	55                   	push   %rbp
  40422d:	48 89 e5             	mov    %rsp,%rbp
  404230:	48 83 ec 10          	sub    $0x10,%rsp
  404234:	48 89 7d f8          	mov    %rdi,-0x8(%rbp)
  404238:	48 89 75 f0          	mov    %rsi,-0x10(%rbp)
  40423c:	e8 d5 ff ff ff       	callq  404216 <_ZL18__gthread_active_pv>
  404241:	85 c0                	test   %eax,%eax
  404243:	0f 95 c0             	setne  %al
  404246:	84 c0                	test   %al,%al
  404248:	74 15                	je     40425f <_ZL14__gthread_oncePiPFvvE+0x33>
  40424a:	48 8b 55 f0          	mov    -0x10(%rbp),%rdx
  40424e:	48 8b 45 f8          	mov    -0x8(%rbp),%rax
  404252:	48 89 d6             	mov    %rdx,%rsi
  404255:	48 89 c7             	mov    %rax,%rdi
  404258:	e8 73 fd ff ff       	callq  403fd0 <pthread_once@plt>
  40425d:	eb 05                	jmp    404264 <_ZL14__gthread_oncePiPFvvE+0x38>
  40425f:	b8 ff ff ff ff       	mov    $0xffffffff,%eax
  404264:	c9                   	leaveq 
  404265:	c3                   	retq   

0000000000404266 <_ZN9__gnu_cxxL18__exchange_and_addEPVii>:
  404266:	55                   	push   %rbp
  404267:	48 89 e5             	mov    %rsp,%rbp
  40426a:	48 89 7d f8          	mov    %rdi,-0x8(%rbp)
  40426e:	89 75 f4             	mov    %esi,-0xc(%rbp)
  404271:	8b 55 f4             	mov    -0xc(%rbp),%edx
  404274:	48 8b 45 f8          	mov    -0x8(%rbp),%rax
  404278:	f0 0f c1 10          	lock xadd %edx,(%rax)
  40427c:	89 d0                	mov    %edx,%eax
  40427e:	5d                   	pop    %rbp
  40427f:	c3                   	retq   

0000000000404280 <_ZN9__gnu_cxxL25__exchange_and_add_singleEPii>:
  404280:	55                   	push   %rbp
  404281:	48 89 e5             	mov    %rsp,%rbp
  404284:	48 89 7d e8          	mov    %rdi,-0x18(%rbp)
  404288:	89 75 e4             	mov    %esi,-0x1c(%rbp)
  40428b:	48 8b 45 e8          	mov    -0x18(%rbp),%rax
  40428f:	8b 00                	mov    (%rax),%eax
  404291:	89 45 fc             	mov    %eax,-0x4(%rbp)
  404294:	48 8b 45 e8          	mov    -0x18(%rbp),%rax
  404298:	8b 10                	mov    (%rax),%edx
  40429a:	8b 45 e4             	mov    -0x1c(%rbp),%eax
  40429d:	01 c2                	add    %eax,%edx
  40429f:	48 8b 45 e8          	mov    -0x18(%rbp),%rax
  4042a3:	89 10                	mov    %edx,(%rax)
  4042a5:	8b 45 fc             	mov    -0x4(%rbp),%eax
  4042a8:	5d                   	pop    %rbp
  4042a9:	c3                   	retq   

00000000004042aa <_ZN9__gnu_cxxL27__exchange_and_add_dispatchEPii>:
  4042aa:	55                   	push   %rbp
  4042ab:	48 89 e5             	mov    %rsp,%rbp
  4042ae:	48 83 ec 10          	sub    $0x10,%rsp
  4042b2:	48 89 7d f8          	mov    %rdi,-0x8(%rbp)
  4042b6:	89 75 f4             	mov    %esi,-0xc(%rbp)
  4042b9:	e8 58 ff ff ff       	callq  404216 <_ZL18__gthread_active_pv>
  4042be:	85 c0                	test   %eax,%eax
  4042c0:	0f 95 c0             	setne  %al
  4042c3:	84 c0                	test   %al,%al
  4042c5:	74 13                	je     4042da <_ZN9__gnu_cxxL27__exchange_and_add_dispatchEPii+0x30>
  4042c7:	8b 55 f4             	mov    -0xc(%rbp),%edx
  4042ca:	48 8b 45 f8          	mov    -0x8(%rbp),%rax
  4042ce:	89 d6                	mov    %edx,%esi
  4042d0:	48 89 c7             	mov    %rax,%rdi
  4042d3:	e8 8e ff ff ff       	callq  404266 <_ZN9__gnu_cxxL18__exchange_and_addEPVii>
  4042d8:	eb 11                	jmp    4042eb <_ZN9__gnu_cxxL27__exchange_and_add_dispatchEPii+0x41>
  4042da:	8b 55 f4             	mov    -0xc(%rbp),%edx
  4042dd:	48 8b 45 f8          	mov    -0x8(%rbp),%rax
  4042e1:	89 d6                	mov    %edx,%esi
  4042e3:	48 89 c7             	mov    %rax,%rdi
  4042e6:	e8 95 ff ff ff       	callq  404280 <_ZN9__gnu_cxxL25__exchange_and_add_singleEPii>
  4042eb:	c9                   	leaveq 
  4042ec:	c3                   	retq   

00000000004042ed <_ZN2cl6detailL10errHandlerEiPKc>:
  4042ed:	55                   	push   %rbp
  4042ee:	48 89 e5             	mov    %rsp,%rbp
  4042f1:	53                   	push   %rbx
  4042f2:	48 83 ec 18          	sub    $0x18,%rsp
  4042f6:	89 7d ec             	mov    %edi,-0x14(%rbp)
  4042f9:	48 89 75 e0          	mov    %rsi,-0x20(%rbp)
  4042fd:	83 7d ec 00          	cmpl   $0x0,-0x14(%rbp)
  404301:	74 30                	je     404333 <_ZN2cl6detailL10errHandlerEiPKc+0x46>
  404303:	bf 18 00 00 00       	mov    $0x18,%edi
  404308:	e8 33 fa ff ff       	callq  403d40 <__cxa_allocate_exception@plt>
  40430d:	48 89 c3             	mov    %rax,%rbx
  404310:	48 8b 55 e0          	mov    -0x20(%rbp),%rdx
  404314:	8b 45 ec             	mov    -0x14(%rbp),%eax
  404317:	89 c6                	mov    %eax,%esi
  404319:	48 89 df             	mov    %rbx,%rdi
  40431c:	e8 bb 08 00 00       	callq  404bdc <_ZN2cl5ErrorC1EiPKc>
  404321:	ba 20 4c 40 00       	mov    $0x404c20,%edx
  404326:	be 70 cd 40 00       	mov    $0x40cd70,%esi
  40432b:	48 89 df             	mov    %rbx,%rdi
  40432e:	e8 1d fd ff ff       	callq  404050 <__cxa_throw@plt>
  404333:	8b 45 ec             	mov    -0x14(%rbp),%eax
  404336:	48 83 c4 18          	add    $0x18,%rsp
  40433a:	5b                   	pop    %rbx
  40433b:	5d                   	pop    %rbp
  40433c:	c3                   	retq   

000000000040433d <_ZN2cl6detailL10getVersionERKSt6vectorIcSaIcEE>:
  40433d:	55                   	push   %rbp
  40433e:	48 89 e5             	mov    %rsp,%rbp
  404341:	48 83 ec 20          	sub    $0x20,%rsp
  404345:	48 89 7d e8          	mov    %rdi,-0x18(%rbp)
  404349:	c7 45 f4 00 00 00 00 	movl   $0x0,-0xc(%rbp)
  404350:	c7 45 f8 00 00 00 00 	movl   $0x0,-0x8(%rbp)
  404357:	c7 45 fc 07 00 00 00 	movl   $0x7,-0x4(%rbp)
  40435e:	8b 45 fc             	mov    -0x4(%rbp),%eax
  404361:	48 63 d0             	movslq %eax,%rdx
  404364:	48 8b 45 e8          	mov    -0x18(%rbp),%rax
  404368:	48 89 d6             	mov    %rdx,%rsi
  40436b:	48 89 c7             	mov    %rax,%rdi
  40436e:	e8 49 31 00 00       	callq  4074bc <_ZNKSt6vectorIcSaIcEEixEm>
  404373:	0f b6 00             	movzbl (%rax),%eax
  404376:	3c 2e                	cmp    $0x2e,%al
  404378:	0f 95 c0             	setne  %al
  40437b:	84 c0                	test   %al,%al
  40437d:	74 36                	je     4043b5 <_ZN2cl6detailL10getVersionERKSt6vectorIcSaIcEE+0x78>
  40437f:	8b 55 f4             	mov    -0xc(%rbp),%edx
  404382:	89 d0                	mov    %edx,%eax
  404384:	c1 e0 02             	shl    $0x2,%eax
  404387:	01 d0                	add    %edx,%eax
  404389:	01 c0                	add    %eax,%eax
  40438b:	89 45 f4             	mov    %eax,-0xc(%rbp)
  40438e:	8b 45 fc             	mov    -0x4(%rbp),%eax
  404391:	48 63 d0             	movslq %eax,%rdx
  404394:	48 8b 45 e8          	mov    -0x18(%rbp),%rax
  404398:	48 89 d6             	mov    %rdx,%rsi
  40439b:	48 89 c7             	mov    %rax,%rdi
  40439e:	e8 19 31 00 00       	callq  4074bc <_ZNKSt6vectorIcSaIcEEixEm>
  4043a3:	0f b6 00             	movzbl (%rax),%eax
  4043a6:	0f be c0             	movsbl %al,%eax
  4043a9:	83 e8 30             	sub    $0x30,%eax
  4043ac:	01 45 f4             	add    %eax,-0xc(%rbp)
  4043af:	83 45 fc 01          	addl   $0x1,-0x4(%rbp)
  4043b3:	eb a9                	jmp    40435e <_ZN2cl6detailL10getVersionERKSt6vectorIcSaIcEE+0x21>
  4043b5:	83 45 fc 01          	addl   $0x1,-0x4(%rbp)
  4043b9:	8b 45 fc             	mov    -0x4(%rbp),%eax
  4043bc:	48 63 d0             	movslq %eax,%rdx
  4043bf:	48 8b 45 e8          	mov    -0x18(%rbp),%rax
  4043c3:	48 89 d6             	mov    %rdx,%rsi
  4043c6:	48 89 c7             	mov    %rax,%rdi
  4043c9:	e8 ee 30 00 00       	callq  4074bc <_ZNKSt6vectorIcSaIcEEixEm>
  4043ce:	0f b6 00             	movzbl (%rax),%eax
  4043d1:	3c 20                	cmp    $0x20,%al
  4043d3:	74 23                	je     4043f8 <_ZN2cl6detailL10getVersionERKSt6vectorIcSaIcEE+0xbb>
  4043d5:	8b 45 fc             	mov    -0x4(%rbp),%eax
  4043d8:	48 63 d0             	movslq %eax,%rdx
  4043db:	48 8b 45 e8          	mov    -0x18(%rbp),%rax
  4043df:	48 89 d6             	mov    %rdx,%rsi
  4043e2:	48 89 c7             	mov    %rax,%rdi
  4043e5:	e8 d2 30 00 00       	callq  4074bc <_ZNKSt6vectorIcSaIcEEixEm>
  4043ea:	0f b6 00             	movzbl (%rax),%eax
  4043ed:	84 c0                	test   %al,%al
  4043ef:	74 07                	je     4043f8 <_ZN2cl6detailL10getVersionERKSt6vectorIcSaIcEE+0xbb>
  4043f1:	b8 01 00 00 00       	mov    $0x1,%eax
  4043f6:	eb 05                	jmp    4043fd <_ZN2cl6detailL10getVersionERKSt6vectorIcSaIcEE+0xc0>
  4043f8:	b8 00 00 00 00       	mov    $0x0,%eax
  4043fd:	84 c0                	test   %al,%al
  4043ff:	74 36                	je     404437 <_ZN2cl6detailL10getVersionERKSt6vectorIcSaIcEE+0xfa>
  404401:	8b 55 f8             	mov    -0x8(%rbp),%edx
  404404:	89 d0                	mov    %edx,%eax
  404406:	c1 e0 02             	shl    $0x2,%eax
  404409:	01 d0                	add    %edx,%eax
  40440b:	01 c0                	add    %eax,%eax
  40440d:	89 45 f8             	mov    %eax,-0x8(%rbp)
  404410:	8b 45 fc             	mov    -0x4(%rbp),%eax
  404413:	48 63 d0             	movslq %eax,%rdx
  404416:	48 8b 45 e8          	mov    -0x18(%rbp),%rax
  40441a:	48 89 d6             	mov    %rdx,%rsi
  40441d:	48 89 c7             	mov    %rax,%rdi
  404420:	e8 97 30 00 00       	callq  4074bc <_ZNKSt6vectorIcSaIcEEixEm>
  404425:	0f b6 00             	movzbl (%rax),%eax
  404428:	0f be c0             	movsbl %al,%eax
  40442b:	83 e8 30             	sub    $0x30,%eax
  40442e:	01 45 f8             	add    %eax,-0x8(%rbp)
  404431:	83 45 fc 01          	addl   $0x1,-0x4(%rbp)
  404435:	eb 82                	jmp    4043b9 <_ZN2cl6detailL10getVersionERKSt6vectorIcSaIcEE+0x7c>
  404437:	8b 45 f4             	mov    -0xc(%rbp),%eax
  40443a:	c1 e0 10             	shl    $0x10,%eax
  40443d:	0b 45 f8             	or     -0x8(%rbp),%eax
  404440:	c9                   	leaveq 
  404441:	c3                   	retq   

0000000000404442 <_ZN2CK16store_setup_timeEf>:
  404442:	55                   	push   %rbp
  404443:	48 89 e5             	mov    %rsp,%rbp
  404446:	48 83 ec 10          	sub    $0x10,%rsp
  40444a:	f3 0f 11 45 fc       	movss  %xmm0,-0x4(%rbp)
  40444f:	8b 45 fc             	mov    -0x4(%rbp),%eax
  404452:	89 45 f8             	mov    %eax,-0x8(%rbp)
  404455:	f3 0f 10 45 f8       	movss  -0x8(%rbp),%xmm0
  40445a:	be 98 c8 40 00       	mov    $0x40c898,%esi
  40445f:	bf 0a 00 00 00       	mov    $0xa,%edi
  404464:	e8 a1 2b 00 00       	callq  40700a <_ZN2CK13store_value_fEiPKcf>
  404469:	90                   	nop
  40446a:	c9                   	leaveq 
  40446b:	c3                   	retq   

000000000040446c <_ZN2CK15store_test_timeEf>:
  40446c:	55                   	push   %rbp
  40446d:	48 89 e5             	mov    %rsp,%rbp
  404470:	48 83 ec 10          	sub    $0x10,%rsp
  404474:	f3 0f 11 45 fc       	movss  %xmm0,-0x4(%rbp)
  404479:	8b 45 fc             	mov    -0x4(%rbp),%eax
  40447c:	89 45 f8             	mov    %eax,-0x8(%rbp)
  40447f:	f3 0f 10 45 f8       	movss  -0x8(%rbp),%xmm0
  404484:	be a3 c8 40 00       	mov    $0x40c8a3,%esi
  404489:	bf 0b 00 00 00       	mov    $0xb,%edi
  40448e:	e8 77 2b 00 00       	callq  40700a <_ZN2CK13store_value_fEiPKcf>
  404493:	90                   	nop
  404494:	c9                   	leaveq 
  404495:	c3                   	retq   

0000000000404496 <_ZZ4mainENKUlvE_clEv>:
  404496:	55                   	push   %rbp
  404497:	48 89 e5             	mov    %rsp,%rbp
  40449a:	53                   	push   %rbx
  40449b:	48 81 ec 88 01 00 00 	sub    $0x188,%rsp
  4044a2:	48 89 bd 78 fe ff ff 	mov    %rdi,-0x188(%rbp)
  4044a9:	64 48 8b 04 25 28 00 	mov    %fs:0x28,%rax
  4044b0:	00 00 
  4044b2:	48 89 45 e8          	mov    %rax,-0x18(%rbp)
  4044b6:	31 c0                	xor    %eax,%eax
  4044b8:	48 8b 85 78 fe ff ff 	mov    -0x188(%rbp),%rax
  4044bf:	48 8b 00             	mov    (%rax),%rax
  4044c2:	8b 70 04             	mov    0x4(%rax),%esi
  4044c5:	48 8d 85 90 fe ff ff 	lea    -0x170(%rbp),%rax
  4044cc:	b9 01 00 00 00       	mov    $0x1,%ecx
  4044d1:	ba 01 00 00 00       	mov    $0x1,%edx
  4044d6:	48 89 c7             	mov    %rax,%rdi
  4044d9:	e8 f2 3d 00 00       	callq  4082d0 <_ZN11arm_compute11TensorShapeC1IIiiiEEEDpT_>
  4044de:	48 8d 8d 90 fe ff ff 	lea    -0x170(%rbp),%rcx
  4044e5:	48 8d 85 d0 fe ff ff 	lea    -0x130(%rbp),%rax
  4044ec:	ba 07 00 00 00       	mov    $0x7,%edx
  4044f1:	48 89 ce             	mov    %rcx,%rsi
  4044f4:	48 89 c7             	mov    %rax,%rdi
  4044f7:	e8 44 fb ff ff       	callq  404040 <_ZN11arm_compute10TensorInfoC1ERKNS_11TensorShapeENS_6FormatE@plt>
  4044fc:	48 8b 85 78 fe ff ff 	mov    -0x188(%rbp),%rax
  404503:	48 8b 40 08          	mov    0x8(%rax),%rax
  404507:	48 89 c7             	mov    %rax,%rdi
  40450a:	e8 71 f9 ff ff       	callq  403e80 <_ZN11arm_compute8CLTensor9allocatorEv@plt>
  40450f:	48 89 c2             	mov    %rax,%rdx
  404512:	48 8d 85 d0 fe ff ff 	lea    -0x130(%rbp),%rax
  404519:	48 89 c6             	mov    %rax,%rsi
  40451c:	48 89 d7             	mov    %rdx,%rdi
  40451f:	e8 3c f9 ff ff       	callq  403e60 <_ZN11arm_compute16ITensorAllocator4initERKNS_10TensorInfoE@plt>
  404524:	48 8d 85 d0 fe ff ff 	lea    -0x130(%rbp),%rax
  40452b:	48 89 c7             	mov    %rax,%rdi
  40452e:	e8 41 7c 00 00       	callq  40c174 <_ZN11arm_compute10TensorInfoD1Ev>
  404533:	48 8d 8d 90 fe ff ff 	lea    -0x170(%rbp),%rcx
  40453a:	48 8d 85 d0 fe ff ff 	lea    -0x130(%rbp),%rax
  404541:	ba 07 00 00 00       	mov    $0x7,%edx
  404546:	48 89 ce             	mov    %rcx,%rsi
  404549:	48 89 c7             	mov    %rax,%rdi
  40454c:	e8 ef fa ff ff       	callq  404040 <_ZN11arm_compute10TensorInfoC1ERKNS_11TensorShapeENS_6FormatE@plt>
  404551:	48 8b 85 78 fe ff ff 	mov    -0x188(%rbp),%rax
  404558:	48 8b 40 10          	mov    0x10(%rax),%rax
  40455c:	48 89 c7             	mov    %rax,%rdi
  40455f:	e8 1c f9 ff ff       	callq  403e80 <_ZN11arm_compute8CLTensor9allocatorEv@plt>
  404564:	48 89 c2             	mov    %rax,%rdx
  404567:	48 8d 85 d0 fe ff ff 	lea    -0x130(%rbp),%rax
  40456e:	48 89 c6             	mov    %rax,%rsi
  404571:	48 89 d7             	mov    %rdx,%rdi
  404574:	e8 e7 f8 ff ff       	callq  403e60 <_ZN11arm_compute16ITensorAllocator4initERKNS_10TensorInfoE@plt>
  404579:	48 8d 85 d0 fe ff ff 	lea    -0x130(%rbp),%rax
  404580:	48 89 c7             	mov    %rax,%rdi
  404583:	e8 ec 7b 00 00       	callq  40c174 <_ZN11arm_compute10TensorInfoD1Ev>
  404588:	48 8b 85 78 fe ff ff 	mov    -0x188(%rbp),%rax
  40458f:	48 8b 40 10          	mov    0x10(%rax),%rax
  404593:	48 89 c2             	mov    %rax,%rdx
  404596:	48 8b 85 78 fe ff ff 	mov    -0x188(%rbp),%rax
  40459d:	48 8b 40 08          	mov    0x8(%rax),%rax
  4045a1:	48 89 c1             	mov    %rax,%rcx
  4045a4:	48 8b 85 78 fe ff ff 	mov    -0x188(%rbp),%rax
  4045ab:	48 8b 40 18          	mov    0x18(%rax),%rax
  4045af:	48 89 ce             	mov    %rcx,%rsi
  4045b2:	48 89 c7             	mov    %rax,%rdi
  4045b5:	e8 46 fa ff ff       	callq  404000 <_ZN11arm_compute14CLSoftmaxLayer9configureEPKNS_9ICLTensorEPS1_@plt>
  4045ba:	48 8b 85 78 fe ff ff 	mov    -0x188(%rbp),%rax
  4045c1:	48 8b 40 08          	mov    0x8(%rax),%rax
  4045c5:	48 89 c7             	mov    %rax,%rdi
  4045c8:	e8 b3 f8 ff ff       	callq  403e80 <_ZN11arm_compute8CLTensor9allocatorEv@plt>
  4045cd:	48 8b 10             	mov    (%rax),%rdx
  4045d0:	48 83 c2 10          	add    $0x10,%rdx
  4045d4:	48 8b 12             	mov    (%rdx),%rdx
  4045d7:	48 89 c7             	mov    %rax,%rdi
  4045da:	ff d2                	callq  *%rdx
  4045dc:	48 8b 85 78 fe ff ff 	mov    -0x188(%rbp),%rax
  4045e3:	48 8b 40 10          	mov    0x10(%rax),%rax
  4045e7:	48 89 c7             	mov    %rax,%rdi
  4045ea:	e8 91 f8 ff ff       	callq  403e80 <_ZN11arm_compute8CLTensor9allocatorEv@plt>
  4045ef:	48 8b 10             	mov    (%rax),%rdx
  4045f2:	48 83 c2 10          	add    $0x10,%rdx
  4045f6:	48 8b 12             	mov    (%rdx),%rdx
  4045f9:	48 89 c7             	mov    %rax,%rdi
  4045fc:	ff d2                	callq  *%rdx
  4045fe:	48 8b 85 78 fe ff ff 	mov    -0x188(%rbp),%rax
  404605:	48 8b 00             	mov    (%rax),%rax
  404608:	48 89 c7             	mov    %rax,%rdi
  40460b:	e8 76 3d 00 00       	callq  408386 <_ZN2CK19get_random_raw_dataIfEEPT_RKNS_5ShapeE>
  404610:	48 89 85 88 fe ff ff 	mov    %rax,-0x178(%rbp)
  404617:	48 8b 85 78 fe ff ff 	mov    -0x188(%rbp),%rax
  40461e:	48 8b 10             	mov    (%rax),%rdx
  404621:	48 8b 85 88 fe ff ff 	mov    -0x178(%rbp),%rax
  404628:	48 89 d6             	mov    %rdx,%rsi
  40462b:	48 89 c7             	mov    %rax,%rdi
  40462e:	e8 6f 3e 00 00       	callq  4084a2 <_ZN2CK20print_input_raw_dataIfEEvPT_RKNS_5ShapeE>
  404633:	48 8b 85 78 fe ff ff 	mov    -0x188(%rbp),%rax
  40463a:	48 8b 10             	mov    (%rax),%rdx
  40463d:	48 8b 85 78 fe ff ff 	mov    -0x188(%rbp),%rax
  404644:	48 8b 40 08          	mov    0x8(%rax),%rax
  404648:	48 8b 8d 88 fe ff ff 	mov    -0x178(%rbp),%rcx
  40464f:	48 89 ce             	mov    %rcx,%rsi
  404652:	48 89 c7             	mov    %rax,%rdi
  404655:	e8 ea 3e 00 00       	callq  408544 <_ZN2CK5armcl23copy_raw_data_to_tensorIfEEvPN11arm_compute8CLTensorEPT_RKNS_5ShapeE>
  40465a:	48 83 bd 88 fe ff ff 	cmpq   $0x0,-0x178(%rbp)
  404661:	00 
  404662:	74 4b                	je     4046af <_ZZ4mainENKUlvE_clEv+0x219>
  404664:	48 8b 85 88 fe ff ff 	mov    -0x178(%rbp),%rax
  40466b:	48 89 c7             	mov    %rax,%rdi
  40466e:	e8 7d f8 ff ff       	callq  403ef0 <_ZdaPv@plt>
  404673:	eb 3a                	jmp    4046af <_ZZ4mainENKUlvE_clEv+0x219>
  404675:	48 89 c3             	mov    %rax,%rbx
  404678:	48 8d 85 d0 fe ff ff 	lea    -0x130(%rbp),%rax
  40467f:	48 89 c7             	mov    %rax,%rdi
  404682:	e8 ed 7a 00 00       	callq  40c174 <_ZN11arm_compute10TensorInfoD1Ev>
  404687:	48 89 d8             	mov    %rbx,%rax
  40468a:	48 89 c7             	mov    %rax,%rdi
  40468d:	e8 de f9 ff ff       	callq  404070 <_Unwind_Resume@plt>
  404692:	48 89 c3             	mov    %rax,%rbx
  404695:	48 8d 85 d0 fe ff ff 	lea    -0x130(%rbp),%rax
  40469c:	48 89 c7             	mov    %rax,%rdi
  40469f:	e8 d0 7a 00 00       	callq  40c174 <_ZN11arm_compute10TensorInfoD1Ev>
  4046a4:	48 89 d8             	mov    %rbx,%rax
  4046a7:	48 89 c7             	mov    %rax,%rdi
  4046aa:	e8 c1 f9 ff ff       	callq  404070 <_Unwind_Resume@plt>
  4046af:	90                   	nop
  4046b0:	48 8b 45 e8          	mov    -0x18(%rbp),%rax
  4046b4:	64 48 33 04 25 28 00 	xor    %fs:0x28,%rax
  4046bb:	00 00 
  4046bd:	74 05                	je     4046c4 <_ZZ4mainENKUlvE_clEv+0x22e>
  4046bf:	e8 8c f7 ff ff       	callq  403e50 <__stack_chk_fail@plt>
  4046c4:	48 81 c4 88 01 00 00 	add    $0x188,%rsp
  4046cb:	5b                   	pop    %rbx
  4046cc:	5d                   	pop    %rbp
  4046cd:	c3                   	retq   

00000000004046ce <_ZZ4mainENKUlvE0_clEv>:
  4046ce:	55                   	push   %rbp
  4046cf:	48 89 e5             	mov    %rsp,%rbp
  4046d2:	48 83 ec 10          	sub    $0x10,%rsp
  4046d6:	48 89 7d f8          	mov    %rdi,-0x8(%rbp)
  4046da:	48 8b 45 f8          	mov    -0x8(%rbp),%rax
  4046de:	48 8b 00             	mov    (%rax),%rax
  4046e1:	48 8b 00             	mov    (%rax),%rax
  4046e4:	48 8b 00             	mov    (%rax),%rax
  4046e7:	48 8b 55 f8          	mov    -0x8(%rbp),%rdx
  4046eb:	48 8b 12             	mov    (%rdx),%rdx
  4046ee:	48 89 d7             	mov    %rdx,%rdi
  4046f1:	ff d0                	callq  *%rax
  4046f3:	e8 68 f5 ff ff       	callq  403c60 <_ZN11arm_compute11CLScheduler3getEv@plt>
  4046f8:	48 89 c7             	mov    %rax,%rdi
  4046fb:	e8 92 27 00 00       	callq  406e92 <_ZN11arm_compute11CLScheduler4syncEv>
  404700:	90                   	nop
  404701:	c9                   	leaveq 
  404702:	c3                   	retq   

0000000000404703 <main>:
  404703:	55                   	push   %rbp
  404704:	48 89 e5             	mov    %rsp,%rbp
  404707:	53                   	push   %rbx
  404708:	48 81 ec e8 08 00 00 	sub    $0x8e8,%rsp
  40470f:	64 48 8b 04 25 28 00 	mov    %fs:0x28,%rax
  404716:	00 00 
  404718:	48 89 45 e8          	mov    %rax,-0x18(%rbp)
  40471c:	31 c0                	xor    %eax,%eax
  40471e:	e8 30 2a 00 00       	callq  407153 <_ZN2CK9init_testEv>
  404723:	e8 70 2b 00 00       	callq  407298 <_ZN2CK5armcl10init_armclEv>
  404728:	e8 59 29 00 00       	callq  407086 <_ZN2CK24get_input_shape_from_envEv>
  40472d:	48 89 85 20 f7 ff ff 	mov    %rax,-0x8e0(%rbp)
  404734:	48 89 95 28 f7 ff ff 	mov    %rdx,-0x8d8(%rbp)
  40473b:	8b 85 28 f7 ff ff    	mov    -0x8d8(%rbp),%eax
  404741:	83 f8 01             	cmp    $0x1,%eax
  404744:	75 0b                	jne    404751 <main+0x4e>
  404746:	8b 85 2c f7 ff ff    	mov    -0x8d4(%rbp),%eax
  40474c:	83 f8 01             	cmp    $0x1,%eax
  40474f:	74 19                	je     40476a <main+0x67>
  404751:	b9 20 ca 40 00       	mov    $0x40ca20,%ecx
  404756:	ba 15 00 00 00       	mov    $0x15,%edx
  40475b:	be d8 c8 40 00       	mov    $0x40c8d8,%esi
  404760:	bf f0 c8 40 00       	mov    $0x40c8f0,%edi
  404765:	e8 36 f6 ff ff       	callq  403da0 <__assert_fail@plt>
  40476a:	48 8d 85 50 f7 ff ff 	lea    -0x8b0(%rbp),%rax
  404771:	48 89 c7             	mov    %rax,%rdi
  404774:	e8 67 f9 ff ff       	callq  4040e0 <_ZN11arm_compute8CLTensorC1Ev@plt>
  404779:	48 8d 85 a0 f8 ff ff 	lea    -0x760(%rbp),%rax
  404780:	48 89 c7             	mov    %rax,%rdi
  404783:	e8 58 f9 ff ff       	callq  4040e0 <_ZN11arm_compute8CLTensorC1Ev@plt>
  404788:	48 8d 85 30 f7 ff ff 	lea    -0x8d0(%rbp),%rax
  40478f:	be 00 00 00 00       	mov    $0x0,%esi
  404794:	48 89 c7             	mov    %rax,%rdi
  404797:	e8 b4 2c 00 00       	callq  407450 <_ZNSt10shared_ptrIN11arm_compute14IMemoryManagerEEC1EDn>
  40479c:	48 8d 95 30 f7 ff ff 	lea    -0x8d0(%rbp),%rdx
  4047a3:	48 8d 85 f0 f9 ff ff 	lea    -0x610(%rbp),%rax
  4047aa:	48 89 d6             	mov    %rdx,%rsi
  4047ad:	48 89 c7             	mov    %rax,%rdi
  4047b0:	e8 ab f5 ff ff       	callq  403d60 <_ZN11arm_compute14CLSoftmaxLayerC1ESt10shared_ptrINS_14IMemoryManagerEE@plt>
  4047b5:	48 8d 85 30 f7 ff ff 	lea    -0x8d0(%rbp),%rax
  4047bc:	48 89 c7             	mov    %rax,%rdi
  4047bf:	e8 70 2c 00 00       	callq  407434 <_ZNSt10shared_ptrIN11arm_compute14IMemoryManagerEED1Ev>
  4047c4:	48 8d 85 20 f7 ff ff 	lea    -0x8e0(%rbp),%rax
  4047cb:	48 89 85 30 f7 ff ff 	mov    %rax,-0x8d0(%rbp)
  4047d2:	48 8d 85 50 f7 ff ff 	lea    -0x8b0(%rbp),%rax
  4047d9:	48 89 85 38 f7 ff ff 	mov    %rax,-0x8c8(%rbp)
  4047e0:	48 8d 85 a0 f8 ff ff 	lea    -0x760(%rbp),%rax
  4047e7:	48 89 85 40 f7 ff ff 	mov    %rax,-0x8c0(%rbp)
  4047ee:	48 8d 85 f0 f9 ff ff 	lea    -0x610(%rbp),%rax
  4047f5:	48 89 85 48 f7 ff ff 	mov    %rax,-0x8b8(%rbp)
  4047fc:	48 8d 85 30 f7 ff ff 	lea    -0x8d0(%rbp),%rax
  404803:	48 89 c7             	mov    %rax,%rdi
  404806:	e8 ab 01 00 00       	callq  4049b6 <_ZN2CK13measure_setupIZ4mainEUlvE_EEvOT_>
  40480b:	48 8d 85 f0 f9 ff ff 	lea    -0x610(%rbp),%rax
  404812:	48 89 85 30 f7 ff ff 	mov    %rax,-0x8d0(%rbp)
  404819:	48 8d 85 30 f7 ff ff 	lea    -0x8d0(%rbp),%rax
  404820:	48 89 c7             	mov    %rax,%rdi
  404823:	e8 c1 01 00 00       	callq  4049e9 <_ZN2CK12measure_testIZ4mainEUlvE0_EEvOT_>
  404828:	48 8d 85 20 f7 ff ff 	lea    -0x8e0(%rbp),%rax
  40482f:	48 89 c7             	mov    %rax,%rdi
  404832:	e8 7b 26 00 00       	callq  406eb2 <_ZNK2CK5Shape10data_countEv>
  404837:	48 98                	cltq   
  404839:	48 ba 00 00 00 00 00 	movabs $0x1fc0000000000000,%rdx
  404840:	00 c0 1f 
  404843:	48 39 d0             	cmp    %rdx,%rax
  404846:	77 0e                	ja     404856 <main+0x153>
  404848:	48 c1 e0 02          	shl    $0x2,%rax
  40484c:	48 89 c7             	mov    %rax,%rdi
  40484f:	e8 dc f3 ff ff       	callq  403c30 <_Znam@plt>
  404854:	eb 05                	jmp    40485b <main+0x158>
  404856:	e8 e5 f6 ff ff       	callq  403f40 <__cxa_throw_bad_array_new_length@plt>
  40485b:	48 89 85 18 f7 ff ff 	mov    %rax,-0x8e8(%rbp)
  404862:	48 8d 95 20 f7 ff ff 	lea    -0x8e0(%rbp),%rdx
  404869:	48 8b 8d 18 f7 ff ff 	mov    -0x8e8(%rbp),%rcx
  404870:	48 8d 85 a0 f8 ff ff 	lea    -0x760(%rbp),%rax
  404877:	48 89 ce             	mov    %rcx,%rsi
  40487a:	48 89 c7             	mov    %rax,%rdi
  40487d:	e8 b5 3e 00 00       	callq  408737 <_ZN2CK5armcl25copy_raw_data_from_tensorIfEEvPN11arm_compute8CLTensorEPT_RKNS_5ShapeE>
  404882:	48 8d 95 20 f7 ff ff 	lea    -0x8e0(%rbp),%rdx
  404889:	48 8b 85 18 f7 ff ff 	mov    -0x8e8(%rbp),%rax
  404890:	48 89 d6             	mov    %rdx,%rsi
  404893:	48 89 c7             	mov    %rax,%rdi
  404896:	e8 34 40 00 00       	callq  4088cf <_ZN2CK21print_output_raw_dataIfEEvPT_RKNS_5ShapeE>
  40489b:	48 8d 95 20 f7 ff ff 	lea    -0x8e0(%rbp),%rdx
  4048a2:	48 8b 85 18 f7 ff ff 	mov    -0x8e8(%rbp),%rax
  4048a9:	48 89 d6             	mov    %rdx,%rsi
  4048ac:	48 89 c7             	mov    %rax,%rdi
  4048af:	e8 59 40 00 00       	callq  40890d <_ZN2CK20dump_output_raw_dataIfEEvPT_RKNS_5ShapeE>
  4048b4:	48 83 bd 18 f7 ff ff 	cmpq   $0x0,-0x8e8(%rbp)
  4048bb:	00 
  4048bc:	74 0f                	je     4048cd <main+0x1ca>
  4048be:	48 8b 85 18 f7 ff ff 	mov    -0x8e8(%rbp),%rax
  4048c5:	48 89 c7             	mov    %rax,%rdi
  4048c8:	e8 23 f6 ff ff       	callq  403ef0 <_ZdaPv@plt>
  4048cd:	48 8d 85 50 f7 ff ff 	lea    -0x8b0(%rbp),%rax
  4048d4:	48 89 c7             	mov    %rax,%rdi
  4048d7:	e8 a4 f5 ff ff       	callq  403e80 <_ZN11arm_compute8CLTensor9allocatorEv@plt>
  4048dc:	48 8b 10             	mov    (%rax),%rdx
  4048df:	48 83 c2 18          	add    $0x18,%rdx
  4048e3:	48 8b 12             	mov    (%rdx),%rdx
  4048e6:	48 89 c7             	mov    %rax,%rdi
  4048e9:	ff d2                	callq  *%rdx
  4048eb:	48 8d 85 a0 f8 ff ff 	lea    -0x760(%rbp),%rax
  4048f2:	48 89 c7             	mov    %rax,%rdi
  4048f5:	e8 86 f5 ff ff       	callq  403e80 <_ZN11arm_compute8CLTensor9allocatorEv@plt>
  4048fa:	48 8b 10             	mov    (%rax),%rdx
  4048fd:	48 83 c2 18          	add    $0x18,%rdx
  404901:	48 8b 12             	mov    (%rdx),%rdx
  404904:	48 89 c7             	mov    %rax,%rdi
  404907:	ff d2                	callq  *%rdx
  404909:	e8 5b 28 00 00       	callq  407169 <_ZN2CK11finish_testEv>
  40490e:	bb 00 00 00 00       	mov    $0x0,%ebx
  404913:	48 8d 85 f0 f9 ff ff 	lea    -0x610(%rbp),%rax
  40491a:	48 89 c7             	mov    %rax,%rdi
  40491d:	e8 20 77 00 00       	callq  40c042 <_ZN11arm_compute14CLSoftmaxLayerD1Ev>
  404922:	48 8d 85 a0 f8 ff ff 	lea    -0x760(%rbp),%rax
  404929:	48 89 c7             	mov    %rax,%rdi
  40492c:	e8 41 72 00 00       	callq  40bb72 <_ZN11arm_compute8CLTensorD1Ev>
  404931:	48 8d 85 50 f7 ff ff 	lea    -0x8b0(%rbp),%rax
  404938:	48 89 c7             	mov    %rax,%rdi
  40493b:	e8 32 72 00 00       	callq  40bb72 <_ZN11arm_compute8CLTensorD1Ev>
  404940:	89 d8                	mov    %ebx,%eax
  404942:	48 8b 4d e8          	mov    -0x18(%rbp),%rcx
  404946:	64 48 33 0c 25 28 00 	xor    %fs:0x28,%rcx
  40494d:	00 00 
  40494f:	74 5b                	je     4049ac <main+0x2a9>
  404951:	eb 54                	jmp    4049a7 <main+0x2a4>
  404953:	48 89 c3             	mov    %rax,%rbx
  404956:	48 8d 85 30 f7 ff ff 	lea    -0x8d0(%rbp),%rax
  40495d:	48 89 c7             	mov    %rax,%rdi
  404960:	e8 cf 2a 00 00       	callq  407434 <_ZNSt10shared_ptrIN11arm_compute14IMemoryManagerEED1Ev>
  404965:	eb 12                	jmp    404979 <main+0x276>
  404967:	48 89 c3             	mov    %rax,%rbx
  40496a:	48 8d 85 f0 f9 ff ff 	lea    -0x610(%rbp),%rax
  404971:	48 89 c7             	mov    %rax,%rdi
  404974:	e8 c9 76 00 00       	callq  40c042 <_ZN11arm_compute14CLSoftmaxLayerD1Ev>
  404979:	48 8d 85 a0 f8 ff ff 	lea    -0x760(%rbp),%rax
  404980:	48 89 c7             	mov    %rax,%rdi
  404983:	e8 ea 71 00 00       	callq  40bb72 <_ZN11arm_compute8CLTensorD1Ev>
  404988:	eb 03                	jmp    40498d <main+0x28a>
  40498a:	48 89 c3             	mov    %rax,%rbx
  40498d:	48 8d 85 50 f7 ff ff 	lea    -0x8b0(%rbp),%rax
  404994:	48 89 c7             	mov    %rax,%rdi
  404997:	e8 d6 71 00 00       	callq  40bb72 <_ZN11arm_compute8CLTensorD1Ev>
  40499c:	48 89 d8             	mov    %rbx,%rax
  40499f:	48 89 c7             	mov    %rax,%rdi
  4049a2:	e8 c9 f6 ff ff       	callq  404070 <_Unwind_Resume@plt>
  4049a7:	e8 a4 f4 ff ff       	callq  403e50 <__stack_chk_fail@plt>
  4049ac:	48 81 c4 e8 08 00 00 	add    $0x8e8,%rsp
  4049b3:	5b                   	pop    %rbx
  4049b4:	5d                   	pop    %rbp
  4049b5:	c3                   	retq   

00000000004049b6 <_ZN2CK13measure_setupIZ4mainEUlvE_EEvOT_>:
  4049b6:	55                   	push   %rbp
  4049b7:	48 89 e5             	mov    %rsp,%rbp
  4049ba:	48 83 ec 10          	sub    $0x10,%rsp
  4049be:	48 89 7d f8          	mov    %rdi,-0x8(%rbp)
  4049c2:	48 8b 45 f8          	mov    -0x8(%rbp),%rax
  4049c6:	be 00 00 00 00       	mov    $0x0,%esi
  4049cb:	48 89 c7             	mov    %rax,%rdi
  4049ce:	e8 49 00 00 00       	callq  404a1c <_ZN2CK11do_measuredIRZ4mainEUlvE_EEvOT_i>
  4049d3:	bf 00 00 00 00       	mov    $0x0,%edi
  4049d8:	e8 23 f7 ff ff       	callq  404100 <xopenme_get_timer@plt>
  4049dd:	f2 0f 5a c0          	cvtsd2ss %xmm0,%xmm0
  4049e1:	e8 5c fa ff ff       	callq  404442 <_ZN2CK16store_setup_timeEf>
  4049e6:	90                   	nop
  4049e7:	c9                   	leaveq 
  4049e8:	c3                   	retq   

00000000004049e9 <_ZN2CK12measure_testIZ4mainEUlvE0_EEvOT_>:
  4049e9:	55                   	push   %rbp
  4049ea:	48 89 e5             	mov    %rsp,%rbp
  4049ed:	48 83 ec 10          	sub    $0x10,%rsp
  4049f1:	48 89 7d f8          	mov    %rdi,-0x8(%rbp)
  4049f5:	48 8b 45 f8          	mov    -0x8(%rbp),%rax
  4049f9:	be 01 00 00 00       	mov    $0x1,%esi
  4049fe:	48 89 c7             	mov    %rax,%rdi
  404a01:	e8 48 00 00 00       	callq  404a4e <_ZN2CK11do_measuredIRZ4mainEUlvE0_EEvOT_i>
  404a06:	bf 01 00 00 00       	mov    $0x1,%edi
  404a0b:	e8 f0 f6 ff ff       	callq  404100 <xopenme_get_timer@plt>
  404a10:	f2 0f 5a c0          	cvtsd2ss %xmm0,%xmm0
  404a14:	e8 53 fa ff ff       	callq  40446c <_ZN2CK15store_test_timeEf>
  404a19:	90                   	nop
  404a1a:	c9                   	leaveq 
  404a1b:	c3                   	retq   

0000000000404a1c <_ZN2CK11do_measuredIRZ4mainEUlvE_EEvOT_i>:
  404a1c:	55                   	push   %rbp
  404a1d:	48 89 e5             	mov    %rsp,%rbp
  404a20:	48 83 ec 10          	sub    $0x10,%rsp
  404a24:	48 89 7d f8          	mov    %rdi,-0x8(%rbp)
  404a28:	89 75 f4             	mov    %esi,-0xc(%rbp)
  404a2b:	8b 45 f4             	mov    -0xc(%rbp),%eax
  404a2e:	89 c7                	mov    %eax,%edi
  404a30:	e8 4b f2 ff ff       	callq  403c80 <xopenme_clock_start@plt>
  404a35:	48 8b 45 f8          	mov    -0x8(%rbp),%rax
  404a39:	48 89 c7             	mov    %rax,%rdi
  404a3c:	e8 55 fa ff ff       	callq  404496 <_ZZ4mainENKUlvE_clEv>
  404a41:	8b 45 f4             	mov    -0xc(%rbp),%eax
  404a44:	89 c7                	mov    %eax,%edi
  404a46:	e8 c5 f4 ff ff       	callq  403f10 <xopenme_clock_end@plt>
  404a4b:	90                   	nop
  404a4c:	c9                   	leaveq 
  404a4d:	c3                   	retq   

0000000000404a4e <_ZN2CK11do_measuredIRZ4mainEUlvE0_EEvOT_i>:
  404a4e:	55                   	push   %rbp
  404a4f:	48 89 e5             	mov    %rsp,%rbp
  404a52:	48 83 ec 10          	sub    $0x10,%rsp
  404a56:	48 89 7d f8          	mov    %rdi,-0x8(%rbp)
  404a5a:	89 75 f4             	mov    %esi,-0xc(%rbp)
  404a5d:	8b 45 f4             	mov    -0xc(%rbp),%eax
  404a60:	89 c7                	mov    %eax,%edi
  404a62:	e8 19 f2 ff ff       	callq  403c80 <xopenme_clock_start@plt>
  404a67:	48 8b 45 f8          	mov    -0x8(%rbp),%rax
  404a6b:	48 89 c7             	mov    %rax,%rdi
  404a6e:	e8 5b fc ff ff       	callq  4046ce <_ZZ4mainENKUlvE0_clEv>
  404a73:	8b 45 f4             	mov    -0xc(%rbp),%eax
  404a76:	89 c7                	mov    %eax,%edi
  404a78:	e8 93 f4 ff ff       	callq  403f10 <xopenme_clock_end@plt>
  404a7d:	90                   	nop
  404a7e:	c9                   	leaveq 
  404a7f:	c3                   	retq   

0000000000404a80 <_Z41__static_initialization_and_destruction_0ii>:
  404a80:	55                   	push   %rbp
  404a81:	48 89 e5             	mov    %rsp,%rbp
  404a84:	48 83 ec 10          	sub    $0x10,%rsp
  404a88:	89 7d fc             	mov    %edi,-0x4(%rbp)
  404a8b:	89 75 f8             	mov    %esi,-0x8(%rbp)
  404a8e:	83 7d fc 01          	cmpl   $0x1,-0x4(%rbp)
  404a92:	0f 85 f3 00 00 00    	jne    404b8b <_Z41__static_initialization_and_destruction_0ii+0x10b>
  404a98:	81 7d f8 ff ff 00 00 	cmpl   $0xffff,-0x8(%rbp)
  404a9f:	0f 85 e6 00 00 00    	jne    404b8b <_Z41__static_initialization_and_destruction_0ii+0x10b>
  404aa5:	b8 38 37 61 00       	mov    $0x613738,%eax
  404aaa:	0f b6 00             	movzbl (%rax),%eax
  404aad:	84 c0                	test   %al,%al
  404aaf:	75 26                	jne    404ad7 <_Z41__static_initialization_and_destruction_0ii+0x57>
  404ab1:	b8 38 37 61 00       	mov    $0x613738,%eax
  404ab6:	c6 00 01             	movb   $0x1,(%rax)
  404ab9:	bf f0 36 61 00       	mov    $0x6136f0,%edi
  404abe:	e8 bf 05 00 00       	callq  405082 <_ZN2cl6DeviceC1Ev>
  404ac3:	ba 90 32 61 00       	mov    $0x613290,%edx
  404ac8:	be f0 36 61 00       	mov    $0x6136f0,%esi
  404acd:	bf ce 50 40 00       	mov    $0x4050ce,%edi
  404ad2:	e8 09 f3 ff ff       	callq  403de0 <__cxa_atexit@plt>
  404ad7:	b8 40 37 61 00       	mov    $0x613740,%eax
  404adc:	0f b6 00             	movzbl (%rax),%eax
  404adf:	84 c0                	test   %al,%al
  404ae1:	75 26                	jne    404b09 <_Z41__static_initialization_and_destruction_0ii+0x89>
  404ae3:	b8 40 37 61 00       	mov    $0x613740,%eax
  404ae8:	c6 00 01             	movb   $0x1,(%rax)
  404aeb:	bf 08 37 61 00       	mov    $0x613708,%edi
  404af0:	e8 17 09 00 00       	callq  40540c <_ZN2cl8PlatformC1Ev>
  404af5:	ba 90 32 61 00       	mov    $0x613290,%edx
  404afa:	be 08 37 61 00       	mov    $0x613708,%esi
  404aff:	bf 08 52 40 00       	mov    $0x405208,%edi
  404b04:	e8 d7 f2 ff ff       	callq  403de0 <__cxa_atexit@plt>
  404b09:	b8 48 37 61 00       	mov    $0x613748,%eax
  404b0e:	0f b6 00             	movzbl (%rax),%eax
  404b11:	84 c0                	test   %al,%al
  404b13:	75 26                	jne    404b3b <_Z41__static_initialization_and_destruction_0ii+0xbb>
  404b15:	b8 48 37 61 00       	mov    $0x613748,%eax
  404b1a:	c6 00 01             	movb   $0x1,(%rax)
  404b1d:	bf 18 37 61 00       	mov    $0x613718,%edi
  404b22:	e8 ad 13 00 00       	callq  405ed4 <_ZN2cl7ContextC1Ev>
  404b27:	ba 90 32 61 00       	mov    $0x613290,%edx
  404b2c:	be 18 37 61 00       	mov    $0x613718,%esi
  404b31:	bf 28 59 40 00       	mov    $0x405928,%edi
  404b36:	e8 a5 f2 ff ff       	callq  403de0 <__cxa_atexit@plt>
  404b3b:	bf 60 37 61 00       	mov    $0x613760,%edi
  404b40:	e8 d7 14 00 00       	callq  40601c <_ZN2cl7NDRangeC1Ev>
  404b45:	b8 50 37 61 00       	mov    $0x613750,%eax
  404b4a:	0f b6 00             	movzbl (%rax),%eax
  404b4d:	84 c0                	test   %al,%al
  404b4f:	75 26                	jne    404b77 <_Z41__static_initialization_and_destruction_0ii+0xf7>
  404b51:	b8 50 37 61 00       	mov    $0x613750,%eax
  404b56:	c6 00 01             	movb   $0x1,(%rax)
  404b59:	bf 28 37 61 00       	mov    $0x613728,%edi
  404b5e:	e8 c9 17 00 00       	callq  40632c <_ZN2cl12CommandQueueC1Ev>
  404b63:	ba 90 32 61 00       	mov    $0x613290,%edx
  404b68:	be 28 37 61 00       	mov    $0x613728,%esi
  404b6d:	bf b4 60 40 00       	mov    $0x4060b4,%edi
  404b72:	e8 69 f2 ff ff       	callq  403de0 <__cxa_atexit@plt>
  404b77:	ba 01 00 00 00       	mov    $0x1,%edx
  404b7c:	be 80 00 00 00       	mov    $0x80,%esi
  404b81:	bf 80 37 61 00       	mov    $0x613780,%edi
  404b86:	e8 cb 14 00 00       	callq  406056 <_ZN2cl7NDRangeC1Emm>
  404b8b:	90                   	nop
  404b8c:	c9                   	leaveq 
  404b8d:	c3                   	retq   

0000000000404b8e <_GLOBAL__sub_I__ZN2CK16store_setup_timeEf>:
  404b8e:	55                   	push   %rbp
  404b8f:	48 89 e5             	mov    %rsp,%rbp
  404b92:	be ff ff 00 00       	mov    $0xffff,%esi
  404b97:	bf 01 00 00 00       	mov    $0x1,%edi
  404b9c:	e8 df fe ff ff       	callq  404a80 <_Z41__static_initialization_and_destruction_0ii>
  404ba1:	5d                   	pop    %rbp
  404ba2:	c3                   	retq   
  404ba3:	90                   	nop

0000000000404ba4 <_ZNSt9exceptionC1Ev>:
  404ba4:	55                   	push   %rbp
  404ba5:	48 89 e5             	mov    %rsp,%rbp
  404ba8:	48 89 7d f8          	mov    %rdi,-0x8(%rbp)
  404bac:	ba d8 34 61 00       	mov    $0x6134d8,%edx
  404bb1:	48 8b 45 f8          	mov    -0x8(%rbp),%rax
  404bb5:	48 89 10             	mov    %rdx,(%rax)
  404bb8:	90                   	nop
  404bb9:	5d                   	pop    %rbp
  404bba:	c3                   	retq   

0000000000404bbb <_ZnwmPv>:
  404bbb:	55                   	push   %rbp
  404bbc:	48 89 e5             	mov    %rsp,%rbp
  404bbf:	48 89 7d f8          	mov    %rdi,-0x8(%rbp)
  404bc3:	48 89 75 f0          	mov    %rsi,-0x10(%rbp)
  404bc7:	48 8b 45 f0          	mov    -0x10(%rbp),%rax
  404bcb:	5d                   	pop    %rbp
  404bcc:	c3                   	retq   

0000000000404bcd <_ZdlPvS_>:
  404bcd:	55                   	push   %rbp
  404bce:	48 89 e5             	mov    %rsp,%rbp
  404bd1:	48 89 7d f8          	mov    %rdi,-0x8(%rbp)
  404bd5:	48 89 75 f0          	mov    %rsi,-0x10(%rbp)
  404bd9:	90                   	nop
  404bda:	5d                   	pop    %rbp
  404bdb:	c3                   	retq   

0000000000404bdc <_ZN2cl5ErrorC1EiPKc>:
  404bdc:	55                   	push   %rbp
  404bdd:	48 89 e5             	mov    %rsp,%rbp
  404be0:	48 83 ec 20          	sub    $0x20,%rsp
  404be4:	48 89 7d f8          	mov    %rdi,-0x8(%rbp)
  404be8:	89 75 f4             	mov    %esi,-0xc(%rbp)
  404beb:	48 89 55 e8          	mov    %rdx,-0x18(%rbp)
  404bef:	48 8b 45 f8          	mov    -0x8(%rbp),%rax
  404bf3:	48 89 c7             	mov    %rax,%rdi
  404bf6:	e8 a9 ff ff ff       	callq  404ba4 <_ZNSt9exceptionC1Ev>
  404bfb:	ba b8 cc 40 00       	mov    $0x40ccb8,%edx
  404c00:	48 8b 45 f8          	mov    -0x8(%rbp),%rax
  404c04:	48 89 10             	mov    %rdx,(%rax)
  404c07:	48 8b 45 f8          	mov    -0x8(%rbp),%rax
  404c0b:	8b 55 f4             	mov    -0xc(%rbp),%edx
  404c0e:	89 50 08             	mov    %edx,0x8(%rax)
  404c11:	48 8b 45 f8          	mov    -0x8(%rbp),%rax
  404c15:	48 8b 55 e8          	mov    -0x18(%rbp),%rdx
  404c19:	48 89 50 10          	mov    %rdx,0x10(%rax)
  404c1d:	90                   	nop
  404c1e:	c9                   	leaveq 
  404c1f:	c3                   	retq   

0000000000404c20 <_ZN2cl5ErrorD1Ev>:
  404c20:	55                   	push   %rbp
  404c21:	48 89 e5             	mov    %rsp,%rbp
  404c24:	48 83 ec 10          	sub    $0x10,%rsp
  404c28:	48 89 7d f8          	mov    %rdi,-0x8(%rbp)
  404c2c:	ba b8 cc 40 00       	mov    $0x40ccb8,%edx
  404c31:	48 8b 45 f8          	mov    -0x8(%rbp),%rax
  404c35:	48 89 10             	mov    %rdx,(%rax)
  404c38:	48 8b 45 f8          	mov    -0x8(%rbp),%rax
  404c3c:	48 89 c7             	mov    %rax,%rdi
  404c3f:	e8 5c f4 ff ff       	callq  4040a0 <_ZNSt9exceptionD2Ev@plt>
  404c44:	b8 00 00 00 00       	mov    $0x0,%eax
  404c49:	85 c0                	test   %eax,%eax
  404c4b:	74 0c                	je     404c59 <_ZN2cl5ErrorD1Ev+0x39>
  404c4d:	48 8b 45 f8          	mov    -0x8(%rbp),%rax
  404c51:	48 89 c7             	mov    %rax,%rdi
  404c54:	e8 97 f1 ff ff       	callq  403df0 <_ZdlPv@plt>
  404c59:	c9                   	leaveq 
  404c5a:	c3                   	retq   
  404c5b:	90                   	nop

0000000000404c5c <_ZN2cl5ErrorD0Ev>:
  404c5c:	55                   	push   %rbp
  404c5d:	48 89 e5             	mov    %rsp,%rbp
  404c60:	48 83 ec 10          	sub    $0x10,%rsp
  404c64:	48 89 7d f8          	mov    %rdi,-0x8(%rbp)
  404c68:	48 8b 45 f8          	mov    -0x8(%rbp),%rax
  404c6c:	48 89 c7             	mov    %rax,%rdi
  404c6f:	e8 ac ff ff ff       	callq  404c20 <_ZN2cl5ErrorD1Ev>
  404c74:	48 8b 45 f8          	mov    -0x8(%rbp),%rax
  404c78:	48 89 c7             	mov    %rax,%rdi
  404c7b:	e8 70 f1 ff ff       	callq  403df0 <_ZdlPv@plt>
  404c80:	c9                   	leaveq 
  404c81:	c3                   	retq   

0000000000404c82 <_ZNK2cl5Error4whatEv>:
  404c82:	55                   	push   %rbp
  404c83:	48 89 e5             	mov    %rsp,%rbp
  404c86:	48 89 7d f8          	mov    %rdi,-0x8(%rbp)
  404c8a:	48 8b 45 f8          	mov    -0x8(%rbp),%rax
  404c8e:	48 8b 40 10          	mov    0x10(%rax),%rax
  404c92:	48 85 c0             	test   %rax,%rax
  404c95:	75 07                	jne    404c9e <_ZNK2cl5Error4whatEv+0x1c>
  404c97:	b8 8e c6 40 00       	mov    $0x40c68e,%eax
  404c9c:	eb 08                	jmp    404ca6 <_ZNK2cl5Error4whatEv+0x24>
  404c9e:	48 8b 45 f8          	mov    -0x8(%rbp),%rax
  404ca2:	48 8b 40 10          	mov    0x10(%rax),%rax
  404ca6:	5d                   	pop    %rbp
  404ca7:	c3                   	retq   

0000000000404ca8 <_ZNK2cl5Error3errEv>:
  404ca8:	55                   	push   %rbp
  404ca9:	48 89 e5             	mov    %rsp,%rbp
  404cac:	48 89 7d f8          	mov    %rdi,-0x8(%rbp)
  404cb0:	48 8b 45 f8          	mov    -0x8(%rbp),%rax
  404cb4:	8b 40 08             	mov    0x8(%rax),%eax
  404cb7:	5d                   	pop    %rbp
  404cb8:	c3                   	retq   
  404cb9:	90                   	nop

0000000000404cba <_ZNSt9exceptionC1ERKS_>:
  404cba:	55                   	push   %rbp
  404cbb:	48 89 e5             	mov    %rsp,%rbp
  404cbe:	48 89 7d f8          	mov    %rdi,-0x8(%rbp)
  404cc2:	48 89 75 f0          	mov    %rsi,-0x10(%rbp)
  404cc6:	ba d8 34 61 00       	mov    $0x6134d8,%edx
  404ccb:	48 8b 45 f8          	mov    -0x8(%rbp),%rax
  404ccf:	48 89 10             	mov    %rdx,(%rax)
  404cd2:	90                   	nop
  404cd3:	5d                   	pop    %rbp
  404cd4:	c3                   	retq   
  404cd5:	90                   	nop

0000000000404cd6 <_ZN2cl5ErrorC1ERKS0_>:
  404cd6:	55                   	push   %rbp
  404cd7:	48 89 e5             	mov    %rsp,%rbp
  404cda:	48 83 ec 10          	sub    $0x10,%rsp
  404cde:	48 89 7d f8          	mov    %rdi,-0x8(%rbp)
  404ce2:	48 89 75 f0          	mov    %rsi,-0x10(%rbp)
  404ce6:	48 8b 55 f0          	mov    -0x10(%rbp),%rdx
  404cea:	48 8b 45 f8          	mov    -0x8(%rbp),%rax
  404cee:	48 89 d6             	mov    %rdx,%rsi
  404cf1:	48 89 c7             	mov    %rax,%rdi
  404cf4:	e8 c1 ff ff ff       	callq  404cba <_ZNSt9exceptionC1ERKS_>
  404cf9:	ba b8 cc 40 00       	mov    $0x40ccb8,%edx
  404cfe:	48 8b 45 f8          	mov    -0x8(%rbp),%rax
  404d02:	48 89 10             	mov    %rdx,(%rax)
  404d05:	48 8b 45 f0          	mov    -0x10(%rbp),%rax
  404d09:	8b 50 08             	mov    0x8(%rax),%edx
  404d0c:	48 8b 45 f8          	mov    -0x8(%rbp),%rax
  404d10:	89 50 08             	mov    %edx,0x8(%rax)
  404d13:	48 8b 45 f0          	mov    -0x10(%rbp),%rax
  404d17:	48 8b 50 10          	mov    0x10(%rax),%rdx
  404d1b:	48 8b 45 f8          	mov    -0x8(%rbp),%rax
  404d1f:	48 89 50 10          	mov    %rdx,0x10(%rax)
  404d23:	90                   	nop
  404d24:	c9                   	leaveq 
  404d25:	c3                   	retq   

0000000000404d26 <_ZN2cl6detail16ReferenceHandlerIP13_cl_device_idE6retainES3_>:
  404d26:	55                   	push   %rbp
  404d27:	48 89 e5             	mov    %rsp,%rbp
  404d2a:	48 89 7d f8          	mov    %rdi,-0x8(%rbp)
  404d2e:	b8 00 00 00 00       	mov    $0x0,%eax
  404d33:	5d                   	pop    %rbp
  404d34:	c3                   	retq   

0000000000404d35 <_ZN2cl6detail16ReferenceHandlerIP13_cl_device_idE7releaseES3_>:
  404d35:	55                   	push   %rbp
  404d36:	48 89 e5             	mov    %rsp,%rbp
  404d39:	48 89 7d f8          	mov    %rdi,-0x8(%rbp)
  404d3d:	b8 00 00 00 00       	mov    $0x0,%eax
  404d42:	5d                   	pop    %rbp
  404d43:	c3                   	retq   

0000000000404d44 <_ZN2cl6detail16ReferenceHandlerIP15_cl_platform_idE6retainES3_>:
  404d44:	55                   	push   %rbp
  404d45:	48 89 e5             	mov    %rsp,%rbp
  404d48:	48 89 7d f8          	mov    %rdi,-0x8(%rbp)
  404d4c:	b8 00 00 00 00       	mov    $0x0,%eax
  404d51:	5d                   	pop    %rbp
  404d52:	c3                   	retq   

0000000000404d53 <_ZN2cl6detail16ReferenceHandlerIP15_cl_platform_idE7releaseES3_>:
  404d53:	55                   	push   %rbp
  404d54:	48 89 e5             	mov    %rsp,%rbp
  404d57:	48 89 7d f8          	mov    %rdi,-0x8(%rbp)
  404d5b:	b8 00 00 00 00       	mov    $0x0,%eax
  404d60:	5d                   	pop    %rbp
  404d61:	c3                   	retq   

0000000000404d62 <_ZN2cl6detail16ReferenceHandlerIP11_cl_contextE6retainES3_>:
  404d62:	55                   	push   %rbp
  404d63:	48 89 e5             	mov    %rsp,%rbp
  404d66:	48 83 ec 10          	sub    $0x10,%rsp
  404d6a:	48 89 7d f8          	mov    %rdi,-0x8(%rbp)
  404d6e:	48 8b 45 f8          	mov    -0x8(%rbp),%rax
  404d72:	48 89 c7             	mov    %rax,%rdi
  404d75:	e8 b6 f2 ff ff       	callq  404030 <clRetainContext@plt>
  404d7a:	c9                   	leaveq 
  404d7b:	c3                   	retq   

0000000000404d7c <_ZN2cl6detail16ReferenceHandlerIP11_cl_contextE7releaseES3_>:
  404d7c:	55                   	push   %rbp
  404d7d:	48 89 e5             	mov    %rsp,%rbp
  404d80:	48 83 ec 10          	sub    $0x10,%rsp
  404d84:	48 89 7d f8          	mov    %rdi,-0x8(%rbp)
  404d88:	48 8b 45 f8          	mov    -0x8(%rbp),%rax
  404d8c:	48 89 c7             	mov    %rax,%rdi
  404d8f:	e8 ec ef ff ff       	callq  403d80 <clReleaseContext@plt>
  404d94:	c9                   	leaveq 
  404d95:	c3                   	retq   

0000000000404d96 <_ZN2cl6detail16ReferenceHandlerIP17_cl_command_queueE6retainES3_>:
  404d96:	55                   	push   %rbp
  404d97:	48 89 e5             	mov    %rsp,%rbp
  404d9a:	48 83 ec 10          	sub    $0x10,%rsp
  404d9e:	48 89 7d f8          	mov    %rdi,-0x8(%rbp)
  404da2:	48 8b 45 f8          	mov    -0x8(%rbp),%rax
  404da6:	48 89 c7             	mov    %rax,%rdi
  404da9:	e8 82 ef ff ff       	callq  403d30 <clRetainCommandQueue@plt>
  404dae:	c9                   	leaveq 
  404daf:	c3                   	retq   

0000000000404db0 <_ZN2cl6detail16ReferenceHandlerIP17_cl_command_queueE7releaseES3_>:
  404db0:	55                   	push   %rbp
  404db1:	48 89 e5             	mov    %rsp,%rbp
  404db4:	48 83 ec 10          	sub    $0x10,%rsp
  404db8:	48 89 7d f8          	mov    %rdi,-0x8(%rbp)
  404dbc:	48 8b 45 f8          	mov    -0x8(%rbp),%rax
  404dc0:	48 89 c7             	mov    %rax,%rdi
  404dc3:	e8 18 f1 ff ff       	callq  403ee0 <clReleaseCommandQueue@plt>
  404dc8:	c9                   	leaveq 
  404dc9:	c3                   	retq   

0000000000404dca <_ZN2cl6detail16ReferenceHandlerIP10_cl_kernelE7releaseES3_>:
  404dca:	55                   	push   %rbp
  404dcb:	48 89 e5             	mov    %rsp,%rbp
  404dce:	48 83 ec 10          	sub    $0x10,%rsp
  404dd2:	48 89 7d f8          	mov    %rdi,-0x8(%rbp)
  404dd6:	48 8b 45 f8          	mov    -0x8(%rbp),%rax
  404dda:	48 89 c7             	mov    %rax,%rdi
  404ddd:	e8 ce f2 ff ff       	callq  4040b0 <clReleaseKernel@plt>
  404de2:	c9                   	leaveq 
  404de3:	c3                   	retq   

0000000000404de4 <_ZN2cl6detail7WrapperIP13_cl_device_idE20isReferenceCountableES3_>:
  404de4:	55                   	push   %rbp
  404de5:	48 89 e5             	mov    %rsp,%rbp
  404de8:	48 89 7d e8          	mov    %rdi,-0x18(%rbp)
  404dec:	c6 45 ff 00          	movb   $0x0,-0x1(%rbp)
  404df0:	0f b6 45 ff          	movzbl -0x1(%rbp),%eax
  404df4:	5d                   	pop    %rbp
  404df5:	c3                   	retq   

0000000000404df6 <_ZN2cl6detail7WrapperIP13_cl_device_idEC1Ev>:
  404df6:	55                   	push   %rbp
  404df7:	48 89 e5             	mov    %rsp,%rbp
  404dfa:	48 89 7d f8          	mov    %rdi,-0x8(%rbp)
  404dfe:	48 8b 45 f8          	mov    -0x8(%rbp),%rax
  404e02:	48 c7 00 00 00 00 00 	movq   $0x0,(%rax)
  404e09:	48 8b 45 f8          	mov    -0x8(%rbp),%rax
  404e0d:	c6 40 08 00          	movb   $0x0,0x8(%rax)
  404e11:	90                   	nop
  404e12:	5d                   	pop    %rbp
  404e13:	c3                   	retq   

0000000000404e14 <_ZN2cl6detail7WrapperIP13_cl_device_idEC1ERKS3_b>:
  404e14:	55                   	push   %rbp
  404e15:	48 89 e5             	mov    %rsp,%rbp
  404e18:	48 83 ec 20          	sub    $0x20,%rsp
  404e1c:	48 89 7d f8          	mov    %rdi,-0x8(%rbp)
  404e20:	48 89 75 f0          	mov    %rsi,-0x10(%rbp)
  404e24:	89 d0                	mov    %edx,%eax
  404e26:	88 45 ec             	mov    %al,-0x14(%rbp)
  404e29:	48 8b 45 f0          	mov    -0x10(%rbp),%rax
  404e2d:	48 8b 10             	mov    (%rax),%rdx
  404e30:	48 8b 45 f8          	mov    -0x8(%rbp),%rax
  404e34:	48 89 10             	mov    %rdx,(%rax)
  404e37:	48 8b 45 f8          	mov    -0x8(%rbp),%rax
  404e3b:	c6 40 08 00          	movb   $0x0,0x8(%rax)
  404e3f:	48 8b 45 f0          	mov    -0x10(%rbp),%rax
  404e43:	48 8b 00             	mov    (%rax),%rax
  404e46:	48 89 c7             	mov    %rax,%rdi
  404e49:	e8 96 ff ff ff       	callq  404de4 <_ZN2cl6detail7WrapperIP13_cl_device_idE20isReferenceCountableES3_>
  404e4e:	89 c2                	mov    %eax,%edx
  404e50:	48 8b 45 f8          	mov    -0x8(%rbp),%rax
  404e54:	88 50 08             	mov    %dl,0x8(%rax)
  404e57:	80 7d ec 00          	cmpb   $0x0,-0x14(%rbp)
  404e5b:	74 18                	je     404e75 <_ZN2cl6detail7WrapperIP13_cl_device_idEC1ERKS3_b+0x61>
  404e5d:	48 8b 45 f8          	mov    -0x8(%rbp),%rax
  404e61:	48 89 c7             	mov    %rax,%rdi
  404e64:	e8 a1 01 00 00       	callq  40500a <_ZNK2cl6detail7WrapperIP13_cl_device_idE6retainEv>
  404e69:	be 94 c6 40 00       	mov    $0x40c694,%esi
  404e6e:	89 c7                	mov    %eax,%edi
  404e70:	e8 78 f4 ff ff       	callq  4042ed <_ZN2cl6detailL10errHandlerEiPKc>
  404e75:	90                   	nop
  404e76:	c9                   	leaveq 
  404e77:	c3                   	retq   

0000000000404e78 <_ZN2cl6detail7WrapperIP13_cl_device_idED1Ev>:
  404e78:	55                   	push   %rbp
  404e79:	48 89 e5             	mov    %rsp,%rbp
  404e7c:	48 83 ec 10          	sub    $0x10,%rsp
  404e80:	48 89 7d f8          	mov    %rdi,-0x8(%rbp)
  404e84:	48 8b 45 f8          	mov    -0x8(%rbp),%rax
  404e88:	48 89 c7             	mov    %rax,%rdi
  404e8b:	e8 b6 01 00 00       	callq  405046 <_ZNK2cl6detail7WrapperIP13_cl_device_idE7releaseEv>
  404e90:	90                   	nop
  404e91:	c9                   	leaveq 
  404e92:	c3                   	retq   
  404e93:	90                   	nop

0000000000404e94 <_ZN2cl6detail7WrapperIP13_cl_device_idEC1ERKS4_>:
  404e94:	55                   	push   %rbp
  404e95:	48 89 e5             	mov    %rsp,%rbp
  404e98:	48 83 ec 10          	sub    $0x10,%rsp
  404e9c:	48 89 7d f8          	mov    %rdi,-0x8(%rbp)
  404ea0:	48 89 75 f0          	mov    %rsi,-0x10(%rbp)
  404ea4:	48 8b 45 f0          	mov    -0x10(%rbp),%rax
  404ea8:	48 8b 10             	mov    (%rax),%rdx
  404eab:	48 8b 45 f8          	mov    -0x8(%rbp),%rax
  404eaf:	48 89 10             	mov    %rdx,(%rax)
  404eb2:	48 8b 45 f8          	mov    -0x8(%rbp),%rax
  404eb6:	48 8b 00             	mov    (%rax),%rax
  404eb9:	48 89 c7             	mov    %rax,%rdi
  404ebc:	e8 23 ff ff ff       	callq  404de4 <_ZN2cl6detail7WrapperIP13_cl_device_idE20isReferenceCountableES3_>
  404ec1:	89 c2                	mov    %eax,%edx
  404ec3:	48 8b 45 f8          	mov    -0x8(%rbp),%rax
  404ec7:	88 50 08             	mov    %dl,0x8(%rax)
  404eca:	48 8b 45 f8          	mov    -0x8(%rbp),%rax
  404ece:	48 89 c7             	mov    %rax,%rdi
  404ed1:	e8 34 01 00 00       	callq  40500a <_ZNK2cl6detail7WrapperIP13_cl_device_idE6retainEv>
  404ed6:	be 94 c6 40 00       	mov    $0x40c694,%esi
  404edb:	89 c7                	mov    %eax,%edi
  404edd:	e8 0b f4 ff ff       	callq  4042ed <_ZN2cl6detailL10errHandlerEiPKc>
  404ee2:	90                   	nop
  404ee3:	c9                   	leaveq 
  404ee4:	c3                   	retq   
  404ee5:	90                   	nop

0000000000404ee6 <_ZN2cl6detail7WrapperIP13_cl_device_idEC1EOS4_>:
  404ee6:	55                   	push   %rbp
  404ee7:	48 89 e5             	mov    %rsp,%rbp
  404eea:	48 89 7d f8          	mov    %rdi,-0x8(%rbp)
  404eee:	48 89 75 f0          	mov    %rsi,-0x10(%rbp)
  404ef2:	48 8b 45 f0          	mov    -0x10(%rbp),%rax
  404ef6:	48 8b 10             	mov    (%rax),%rdx
  404ef9:	48 8b 45 f8          	mov    -0x8(%rbp),%rax
  404efd:	48 89 10             	mov    %rdx,(%rax)
  404f00:	48 8b 45 f0          	mov    -0x10(%rbp),%rax
  404f04:	0f b6 50 08          	movzbl 0x8(%rax),%edx
  404f08:	48 8b 45 f8          	mov    -0x8(%rbp),%rax
  404f0c:	88 50 08             	mov    %dl,0x8(%rax)
  404f0f:	48 8b 45 f0          	mov    -0x10(%rbp),%rax
  404f13:	48 c7 00 00 00 00 00 	movq   $0x0,(%rax)
  404f1a:	48 8b 45 f0          	mov    -0x10(%rbp),%rax
  404f1e:	c6 40 08 00          	movb   $0x0,0x8(%rax)
  404f22:	90                   	nop
  404f23:	5d                   	pop    %rbp
  404f24:	c3                   	retq   
  404f25:	90                   	nop

0000000000404f26 <_ZN2cl6detail7WrapperIP13_cl_device_idEaSERKS4_>:
  404f26:	55                   	push   %rbp
  404f27:	48 89 e5             	mov    %rsp,%rbp
  404f2a:	48 83 ec 10          	sub    $0x10,%rsp
  404f2e:	48 89 7d f8          	mov    %rdi,-0x8(%rbp)
  404f32:	48 89 75 f0          	mov    %rsi,-0x10(%rbp)
  404f36:	48 8b 45 f8          	mov    -0x8(%rbp),%rax
  404f3a:	48 3b 45 f0          	cmp    -0x10(%rbp),%rax
  404f3e:	74 4d                	je     404f8d <_ZN2cl6detail7WrapperIP13_cl_device_idEaSERKS4_+0x67>
  404f40:	48 8b 45 f8          	mov    -0x8(%rbp),%rax
  404f44:	48 89 c7             	mov    %rax,%rdi
  404f47:	e8 fa 00 00 00       	callq  405046 <_ZNK2cl6detail7WrapperIP13_cl_device_idE7releaseEv>
  404f4c:	be a2 c6 40 00       	mov    $0x40c6a2,%esi
  404f51:	89 c7                	mov    %eax,%edi
  404f53:	e8 95 f3 ff ff       	callq  4042ed <_ZN2cl6detailL10errHandlerEiPKc>
  404f58:	48 8b 45 f0          	mov    -0x10(%rbp),%rax
  404f5c:	48 8b 10             	mov    (%rax),%rdx
  404f5f:	48 8b 45 f8          	mov    -0x8(%rbp),%rax
  404f63:	48 89 10             	mov    %rdx,(%rax)
  404f66:	48 8b 45 f0          	mov    -0x10(%rbp),%rax
  404f6a:	0f b6 50 08          	movzbl 0x8(%rax),%edx
  404f6e:	48 8b 45 f8          	mov    -0x8(%rbp),%rax
  404f72:	88 50 08             	mov    %dl,0x8(%rax)
  404f75:	48 8b 45 f8          	mov    -0x8(%rbp),%rax
  404f79:	48 89 c7             	mov    %rax,%rdi
  404f7c:	e8 89 00 00 00       	callq  40500a <_ZNK2cl6detail7WrapperIP13_cl_device_idE6retainEv>
  404f81:	be 94 c6 40 00       	mov    $0x40c694,%esi
  404f86:	89 c7                	mov    %eax,%edi
  404f88:	e8 60 f3 ff ff       	callq  4042ed <_ZN2cl6detailL10errHandlerEiPKc>
  404f8d:	48 8b 45 f8          	mov    -0x8(%rbp),%rax
  404f91:	c9                   	leaveq 
  404f92:	c3                   	retq   
  404f93:	90                   	nop

0000000000404f94 <_ZN2cl6detail7WrapperIP13_cl_device_idEaSEOS4_>:
  404f94:	55                   	push   %rbp
  404f95:	48 89 e5             	mov    %rsp,%rbp
  404f98:	48 83 ec 10          	sub    $0x10,%rsp
  404f9c:	48 89 7d f8          	mov    %rdi,-0x8(%rbp)
  404fa0:	48 89 75 f0          	mov    %rsi,-0x10(%rbp)
  404fa4:	48 8b 45 f8          	mov    -0x8(%rbp),%rax
  404fa8:	48 3b 45 f0          	cmp    -0x10(%rbp),%rax
  404fac:	74 48                	je     404ff6 <_ZN2cl6detail7WrapperIP13_cl_device_idEaSEOS4_+0x62>
  404fae:	48 8b 45 f8          	mov    -0x8(%rbp),%rax
  404fb2:	48 89 c7             	mov    %rax,%rdi
  404fb5:	e8 8c 00 00 00       	callq  405046 <_ZNK2cl6detail7WrapperIP13_cl_device_idE7releaseEv>
  404fba:	be a2 c6 40 00       	mov    $0x40c6a2,%esi
  404fbf:	89 c7                	mov    %eax,%edi
  404fc1:	e8 27 f3 ff ff       	callq  4042ed <_ZN2cl6detailL10errHandlerEiPKc>
  404fc6:	48 8b 45 f0          	mov    -0x10(%rbp),%rax
  404fca:	48 8b 10             	mov    (%rax),%rdx
  404fcd:	48 8b 45 f8          	mov    -0x8(%rbp),%rax
  404fd1:	48 89 10             	mov    %rdx,(%rax)
  404fd4:	48 8b 45 f0          	mov    -0x10(%rbp),%rax
  404fd8:	0f b6 50 08          	movzbl 0x8(%rax),%edx
  404fdc:	48 8b 45 f8          	mov    -0x8(%rbp),%rax
  404fe0:	88 50 08             	mov    %dl,0x8(%rax)
  404fe3:	48 8b 45 f0          	mov    -0x10(%rbp),%rax
  404fe7:	48 c7 00 00 00 00 00 	movq   $0x0,(%rax)
  404fee:	48 8b 45 f0          	mov    -0x10(%rbp),%rax
  404ff2:	c6 40 08 00          	movb   $0x0,0x8(%rax)
  404ff6:	48 8b 45 f8          	mov    -0x8(%rbp),%rax
  404ffa:	c9                   	leaveq 
  404ffb:	c3                   	retq   

0000000000404ffc <_ZNK2cl6detail7WrapperIP13_cl_device_idEclEv>:
  404ffc:	55                   	push   %rbp
  404ffd:	48 89 e5             	mov    %rsp,%rbp
  405000:	48 89 7d f8          	mov    %rdi,-0x8(%rbp)
  405004:	48 8b 45 f8          	mov    -0x8(%rbp),%rax
  405008:	5d                   	pop    %rbp
  405009:	c3                   	retq   

000000000040500a <_ZNK2cl6detail7WrapperIP13_cl_device_idE6retainEv>:
  40500a:	55                   	push   %rbp
  40500b:	48 89 e5             	mov    %rsp,%rbp
  40500e:	48 83 ec 10          	sub    $0x10,%rsp
  405012:	48 89 7d f8          	mov    %rdi,-0x8(%rbp)
  405016:	48 8b 45 f8          	mov    -0x8(%rbp),%rax
  40501a:	48 8b 00             	mov    (%rax),%rax
  40501d:	48 85 c0             	test   %rax,%rax
  405020:	74 1d                	je     40503f <_ZNK2cl6detail7WrapperIP13_cl_device_idE6retainEv+0x35>
  405022:	48 8b 45 f8          	mov    -0x8(%rbp),%rax
  405026:	0f b6 40 08          	movzbl 0x8(%rax),%eax
  40502a:	84 c0                	test   %al,%al
  40502c:	74 11                	je     40503f <_ZNK2cl6detail7WrapperIP13_cl_device_idE6retainEv+0x35>
  40502e:	48 8b 45 f8          	mov    -0x8(%rbp),%rax
  405032:	48 8b 00             	mov    (%rax),%rax
  405035:	48 89 c7             	mov    %rax,%rdi
  405038:	e8 e9 fc ff ff       	callq  404d26 <_ZN2cl6detail16ReferenceHandlerIP13_cl_device_idE6retainES3_>
  40503d:	eb 05                	jmp    405044 <_ZNK2cl6detail7WrapperIP13_cl_device_idE6retainEv+0x3a>
  40503f:	b8 00 00 00 00       	mov    $0x0,%eax
  405044:	c9                   	leaveq 
  405045:	c3                   	retq   

0000000000405046 <_ZNK2cl6detail7WrapperIP13_cl_device_idE7releaseEv>:
  405046:	55                   	push   %rbp
  405047:	48 89 e5             	mov    %rsp,%rbp
  40504a:	48 83 ec 10          	sub    $0x10,%rsp
  40504e:	48 89 7d f8          	mov    %rdi,-0x8(%rbp)
  405052:	48 8b 45 f8          	mov    -0x8(%rbp),%rax
  405056:	48 8b 00             	mov    (%rax),%rax
  405059:	48 85 c0             	test   %rax,%rax
  40505c:	74 1d                	je     40507b <_ZNK2cl6detail7WrapperIP13_cl_device_idE7releaseEv+0x35>
  40505e:	48 8b 45 f8          	mov    -0x8(%rbp),%rax
  405062:	0f b6 40 08          	movzbl 0x8(%rax),%eax
  405066:	84 c0                	test   %al,%al
  405068:	74 11                	je     40507b <_ZNK2cl6detail7WrapperIP13_cl_device_idE7releaseEv+0x35>
  40506a:	48 8b 45 f8          	mov    -0x8(%rbp),%rax
  40506e:	48 8b 00             	mov    (%rax),%rax
  405071:	48 89 c7             	mov    %rax,%rdi
  405074:	e8 bc fc ff ff       	callq  404d35 <_ZN2cl6detail16ReferenceHandlerIP13_cl_device_idE7releaseES3_>
  405079:	eb 05                	jmp    405080 <_ZNK2cl6detail7WrapperIP13_cl_device_idE7releaseEv+0x3a>
  40507b:	b8 00 00 00 00       	mov    $0x0,%eax
  405080:	c9                   	leaveq 
  405081:	c3                   	retq   

0000000000405082 <_ZN2cl6DeviceC1Ev>:
  405082:	55                   	push   %rbp
  405083:	48 89 e5             	mov    %rsp,%rbp
  405086:	48 83 ec 10          	sub    $0x10,%rsp
  40508a:	48 89 7d f8          	mov    %rdi,-0x8(%rbp)
  40508e:	48 8b 45 f8          	mov    -0x8(%rbp),%rax
  405092:	48 89 c7             	mov    %rax,%rdi
  405095:	e8 5c fd ff ff       	callq  404df6 <_ZN2cl6detail7WrapperIP13_cl_device_idEC1Ev>
  40509a:	90                   	nop
  40509b:	c9                   	leaveq 
  40509c:	c3                   	retq   
  40509d:	90                   	nop

000000000040509e <_ZN2cl6DeviceC1ERKP13_cl_device_idb>:
  40509e:	55                   	push   %rbp
  40509f:	48 89 e5             	mov    %rsp,%rbp
  4050a2:	48 83 ec 20          	sub    $0x20,%rsp
  4050a6:	48 89 7d f8          	mov    %rdi,-0x8(%rbp)
  4050aa:	48 89 75 f0          	mov    %rsi,-0x10(%rbp)
  4050ae:	89 d0                	mov    %edx,%eax
  4050b0:	88 45 ec             	mov    %al,-0x14(%rbp)
  4050b3:	0f b6 55 ec          	movzbl -0x14(%rbp),%edx
  4050b7:	48 8b 45 f8          	mov    -0x8(%rbp),%rax
  4050bb:	48 8b 4d f0          	mov    -0x10(%rbp),%rcx
  4050bf:	48 89 ce             	mov    %rcx,%rsi
  4050c2:	48 89 c7             	mov    %rax,%rdi
  4050c5:	e8 4a fd ff ff       	callq  404e14 <_ZN2cl6detail7WrapperIP13_cl_device_idEC1ERKS3_b>
  4050ca:	90                   	nop
  4050cb:	c9                   	leaveq 
  4050cc:	c3                   	retq   
  4050cd:	90                   	nop

00000000004050ce <_ZN2cl6DeviceD1Ev>:
  4050ce:	55                   	push   %rbp
  4050cf:	48 89 e5             	mov    %rsp,%rbp
  4050d2:	48 83 ec 10          	sub    $0x10,%rsp
  4050d6:	48 89 7d f8          	mov    %rdi,-0x8(%rbp)
  4050da:	48 8b 45 f8          	mov    -0x8(%rbp),%rax
  4050de:	48 89 c7             	mov    %rax,%rdi
  4050e1:	e8 92 fd ff ff       	callq  404e78 <_ZN2cl6detail7WrapperIP13_cl_device_idED1Ev>
  4050e6:	90                   	nop
  4050e7:	c9                   	leaveq 
  4050e8:	c3                   	retq   

00000000004050e9 <_ZN2cl6Device10getDefaultEPi>:
  4050e9:	55                   	push   %rbp
  4050ea:	48 89 e5             	mov    %rsp,%rbp
  4050ed:	48 83 ec 10          	sub    $0x10,%rsp
  4050f1:	48 89 7d f8          	mov    %rdi,-0x8(%rbp)
  4050f5:	48 89 75 f0          	mov    %rsi,-0x10(%rbp)
  4050f9:	be f0 5e 40 00       	mov    $0x405ef0,%esi
  4050fe:	bf e0 36 61 00       	mov    $0x6136e0,%edi
  405103:	e8 3d 24 00 00       	callq  407545 <_ZSt9call_onceIRFvvEIEEvRSt9once_flagOT_DpOT0_>
  405108:	8b 05 f2 e5 20 00    	mov    0x20e5f2(%rip),%eax        # 613700 <_ZN2cl6Device14default_error_E>
  40510e:	be 00 00 00 00       	mov    $0x0,%esi
  405113:	89 c7                	mov    %eax,%edi
  405115:	e8 d3 f1 ff ff       	callq  4042ed <_ZN2cl6detailL10errHandlerEiPKc>
  40511a:	48 83 7d f0 00       	cmpq   $0x0,-0x10(%rbp)
  40511f:	74 0c                	je     40512d <_ZN2cl6Device10getDefaultEPi+0x44>
  405121:	8b 15 d9 e5 20 00    	mov    0x20e5d9(%rip),%edx        # 613700 <_ZN2cl6Device14default_error_E>
  405127:	48 8b 45 f0          	mov    -0x10(%rbp),%rax
  40512b:	89 10                	mov    %edx,(%rax)
  40512d:	48 8b 45 f8          	mov    -0x8(%rbp),%rax
  405131:	be f0 36 61 00       	mov    $0x6136f0,%esi
  405136:	48 89 c7             	mov    %rax,%rdi
  405139:	e8 06 00 00 00       	callq  405144 <_ZN2cl6DeviceC1ERKS0_>
  40513e:	48 8b 45 f8          	mov    -0x8(%rbp),%rax
  405142:	c9                   	leaveq 
  405143:	c3                   	retq   

0000000000405144 <_ZN2cl6DeviceC1ERKS0_>:
  405144:	55                   	push   %rbp
  405145:	48 89 e5             	mov    %rsp,%rbp
  405148:	48 83 ec 10          	sub    $0x10,%rsp
  40514c:	48 89 7d f8          	mov    %rdi,-0x8(%rbp)
  405150:	48 89 75 f0          	mov    %rsi,-0x10(%rbp)
  405154:	48 8b 55 f0          	mov    -0x10(%rbp),%rdx
  405158:	48 8b 45 f8          	mov    -0x8(%rbp),%rax
  40515c:	48 89 d6             	mov    %rdx,%rsi
  40515f:	48 89 c7             	mov    %rax,%rdi
  405162:	e8 2d fd ff ff       	callq  404e94 <_ZN2cl6detail7WrapperIP13_cl_device_idEC1ERKS4_>
  405167:	90                   	nop
  405168:	c9                   	leaveq 
  405169:	c3                   	retq   

000000000040516a <_ZN2cl6DeviceaSERKS0_>:
  40516a:	55                   	push   %rbp
  40516b:	48 89 e5             	mov    %rsp,%rbp
  40516e:	48 83 ec 10          	sub    $0x10,%rsp
  405172:	48 89 7d f8          	mov    %rdi,-0x8(%rbp)
  405176:	48 89 75 f0          	mov    %rsi,-0x10(%rbp)
  40517a:	48 8b 55 f0          	mov    -0x10(%rbp),%rdx
  40517e:	48 8b 45 f8          	mov    -0x8(%rbp),%rax
  405182:	48 89 d6             	mov    %rdx,%rsi
  405185:	48 89 c7             	mov    %rax,%rdi
  405188:	e8 99 fd ff ff       	callq  404f26 <_ZN2cl6detail7WrapperIP13_cl_device_idEaSERKS4_>
  40518d:	48 8b 45 f8          	mov    -0x8(%rbp),%rax
  405191:	c9                   	leaveq 
  405192:	c3                   	retq   

0000000000405193 <_ZSt4moveIRN2cl6DeviceEEONSt16remove_referenceIT_E4typeEOS4_>:
  405193:	55                   	push   %rbp
  405194:	48 89 e5             	mov    %rsp,%rbp
  405197:	48 89 7d f8          	mov    %rdi,-0x8(%rbp)
  40519b:	48 8b 45 f8          	mov    -0x8(%rbp),%rax
  40519f:	5d                   	pop    %rbp
  4051a0:	c3                   	retq   
  4051a1:	90                   	nop

00000000004051a2 <_ZN2cl6DeviceC1EOS0_>:
  4051a2:	55                   	push   %rbp
  4051a3:	48 89 e5             	mov    %rsp,%rbp
  4051a6:	48 83 ec 10          	sub    $0x10,%rsp
  4051aa:	48 89 7d f8          	mov    %rdi,-0x8(%rbp)
  4051ae:	48 89 75 f0          	mov    %rsi,-0x10(%rbp)
  4051b2:	48 8b 45 f0          	mov    -0x10(%rbp),%rax
  4051b6:	48 89 c7             	mov    %rax,%rdi
  4051b9:	e8 d5 ff ff ff       	callq  405193 <_ZSt4moveIRN2cl6DeviceEEONSt16remove_referenceIT_E4typeEOS4_>
  4051be:	48 89 c2             	mov    %rax,%rdx
  4051c1:	48 8b 45 f8          	mov    -0x8(%rbp),%rax
  4051c5:	48 89 d6             	mov    %rdx,%rsi
  4051c8:	48 89 c7             	mov    %rax,%rdi
  4051cb:	e8 16 fd ff ff       	callq  404ee6 <_ZN2cl6detail7WrapperIP13_cl_device_idEC1EOS4_>
  4051d0:	90                   	nop
  4051d1:	c9                   	leaveq 
  4051d2:	c3                   	retq   
  4051d3:	90                   	nop

00000000004051d4 <_ZN2cl6DeviceaSEOS0_>:
  4051d4:	55                   	push   %rbp
  4051d5:	48 89 e5             	mov    %rsp,%rbp
  4051d8:	48 83 ec 10          	sub    $0x10,%rsp
  4051dc:	48 89 7d f8          	mov    %rdi,-0x8(%rbp)
  4051e0:	48 89 75 f0          	mov    %rsi,-0x10(%rbp)
  4051e4:	48 8b 45 f0          	mov    -0x10(%rbp),%rax
  4051e8:	48 89 c7             	mov    %rax,%rdi
  4051eb:	e8 a3 ff ff ff       	callq  405193 <_ZSt4moveIRN2cl6DeviceEEONSt16remove_referenceIT_E4typeEOS4_>
  4051f0:	48 89 c2             	mov    %rax,%rdx
  4051f3:	48 8b 45 f8          	mov    -0x8(%rbp),%rax
  4051f7:	48 89 d6             	mov    %rdx,%rsi
  4051fa:	48 89 c7             	mov    %rax,%rdi
  4051fd:	e8 92 fd ff ff       	callq  404f94 <_ZN2cl6detail7WrapperIP13_cl_device_idEaSEOS4_>
  405202:	48 8b 45 f8          	mov    -0x8(%rbp),%rax
  405206:	c9                   	leaveq 
  405207:	c3                   	retq   

0000000000405208 <_ZN2cl8PlatformD1Ev>:
  405208:	55                   	push   %rbp
  405209:	48 89 e5             	mov    %rsp,%rbp
  40520c:	48 83 ec 10          	sub    $0x10,%rsp
  405210:	48 89 7d f8          	mov    %rdi,-0x8(%rbp)
  405214:	48 8b 45 f8          	mov    -0x8(%rbp),%rax
  405218:	48 89 c7             	mov    %rax,%rdi
  40521b:	e8 e8 24 00 00       	callq  407708 <_ZN2cl6detail7WrapperIP15_cl_platform_idED1Ev>
  405220:	90                   	nop
  405221:	c9                   	leaveq 
  405222:	c3                   	retq   
  405223:	90                   	nop

0000000000405224 <_ZN2cl8PlatformaSEOS0_>:
  405224:	55                   	push   %rbp
  405225:	48 89 e5             	mov    %rsp,%rbp
  405228:	48 83 ec 10          	sub    $0x10,%rsp
  40522c:	48 89 7d f8          	mov    %rdi,-0x8(%rbp)
  405230:	48 89 75 f0          	mov    %rsi,-0x10(%rbp)
  405234:	48 8b 55 f0          	mov    -0x10(%rbp),%rdx
  405238:	48 8b 45 f8          	mov    -0x8(%rbp),%rax
  40523c:	48 89 d6             	mov    %rdx,%rsi
  40523f:	48 89 c7             	mov    %rax,%rdi
  405242:	e8 e9 24 00 00       	callq  407730 <_ZN2cl6detail7WrapperIP15_cl_platform_idEaSEOS4_>
  405247:	48 8b 45 f8          	mov    -0x8(%rbp),%rax
  40524b:	c9                   	leaveq 
  40524c:	c3                   	retq   

000000000040524d <_ZN2cl8Platform11makeDefaultEv>:
  40524d:	55                   	push   %rbp
  40524e:	48 89 e5             	mov    %rsp,%rbp
  405251:	41 54                	push   %r12
  405253:	53                   	push   %rbx
  405254:	48 83 ec 40          	sub    $0x40,%rsp
  405258:	64 48 8b 04 25 28 00 	mov    %fs:0x28,%rax
  40525f:	00 00 
  405261:	48 89 45 e8          	mov    %rax,-0x18(%rbp)
  405265:	31 c0                	xor    %eax,%eax
  405267:	c7 45 b8 00 00 00 00 	movl   $0x0,-0x48(%rbp)
  40526e:	48 8d 45 b8          	lea    -0x48(%rbp),%rax
  405272:	48 89 c2             	mov    %rax,%rdx
  405275:	be 00 00 00 00       	mov    $0x0,%esi
  40527a:	bf 00 00 00 00       	mov    $0x0,%edi
  40527f:	e8 3c eb ff ff       	callq  403dc0 <clGetPlatformIDs@plt>
  405284:	89 45 bc             	mov    %eax,-0x44(%rbp)
  405287:	83 7d bc 00          	cmpl   $0x0,-0x44(%rbp)
  40528b:	74 0e                	je     40529b <_ZN2cl8Platform11makeDefaultEv+0x4e>
  40528d:	8b 45 bc             	mov    -0x44(%rbp),%eax
  405290:	89 05 7a e4 20 00    	mov    %eax,0x20e47a(%rip)        # 613710 <_ZN2cl8Platform14default_error_E>
  405296:	e9 54 01 00 00       	jmpq   4053ef <_ZN2cl8Platform11makeDefaultEv+0x1a2>
  40529b:	8b 45 b8             	mov    -0x48(%rbp),%eax
  40529e:	85 c0                	test   %eax,%eax
  4052a0:	75 0f                	jne    4052b1 <_ZN2cl8Platform11makeDefaultEv+0x64>
  4052a2:	c7 05 64 e4 20 00 e0 	movl   $0xffffffe0,0x20e464(%rip)        # 613710 <_ZN2cl8Platform14default_error_E>
  4052a9:	ff ff ff 
  4052ac:	e9 3e 01 00 00       	jmpq   4053ef <_ZN2cl8Platform11makeDefaultEv+0x1a2>
  4052b1:	48 8d 45 c0          	lea    -0x40(%rbp),%rax
  4052b5:	48 89 c7             	mov    %rax,%rdi
  4052b8:	e8 29 23 00 00       	callq  4075e6 <_ZNSaIP15_cl_platform_idEC1Ev>
  4052bd:	8b 45 b8             	mov    -0x48(%rbp),%eax
  4052c0:	89 c1                	mov    %eax,%ecx
  4052c2:	48 8d 55 c0          	lea    -0x40(%rbp),%rdx
  4052c6:	48 8d 45 d0          	lea    -0x30(%rbp),%rax
  4052ca:	48 89 ce             	mov    %rcx,%rsi
  4052cd:	48 89 c7             	mov    %rax,%rdi
  4052d0:	e8 49 23 00 00       	callq  40761e <_ZNSt6vectorIP15_cl_platform_idSaIS1_EEC1EmRKS2_>
  4052d5:	48 8d 45 c0          	lea    -0x40(%rbp),%rax
  4052d9:	48 89 c7             	mov    %rax,%rdi
  4052dc:	e8 21 23 00 00       	callq  407602 <_ZNSaIP15_cl_platform_idED1Ev>
  4052e1:	48 8d 45 d0          	lea    -0x30(%rbp),%rax
  4052e5:	48 89 c7             	mov    %rax,%rdi
  4052e8:	e8 d7 23 00 00       	callq  4076c4 <_ZNSt6vectorIP15_cl_platform_idSaIS1_EE4dataEv>
  4052ed:	48 89 c1             	mov    %rax,%rcx
  4052f0:	8b 45 b8             	mov    -0x48(%rbp),%eax
  4052f3:	ba 00 00 00 00       	mov    $0x0,%edx
  4052f8:	48 89 ce             	mov    %rcx,%rsi
  4052fb:	89 c7                	mov    %eax,%edi
  4052fd:	e8 be ea ff ff       	callq  403dc0 <clGetPlatformIDs@plt>
  405302:	89 45 bc             	mov    %eax,-0x44(%rbp)
  405305:	83 7d bc 00          	cmpl   $0x0,-0x44(%rbp)
  405309:	74 10                	je     40531b <_ZN2cl8Platform11makeDefaultEv+0xce>
  40530b:	8b 45 bc             	mov    -0x44(%rbp),%eax
  40530e:	89 05 fc e3 20 00    	mov    %eax,0x20e3fc(%rip)        # 613710 <_ZN2cl8Platform14default_error_E>
  405314:	bb 00 00 00 00       	mov    $0x0,%ebx
  405319:	eb 4a                	jmp    405365 <_ZN2cl8Platform11makeDefaultEv+0x118>
  40531b:	48 8d 45 d0          	lea    -0x30(%rbp),%rax
  40531f:	be 00 00 00 00       	mov    $0x0,%esi
  405324:	48 89 c7             	mov    %rax,%rdi
  405327:	e8 bc 23 00 00       	callq  4076e8 <_ZNSt6vectorIP15_cl_platform_idSaIS1_EEixEm>
  40532c:	48 89 c1             	mov    %rax,%rcx
  40532f:	48 8d 45 c0          	lea    -0x40(%rbp),%rax
  405333:	ba 00 00 00 00       	mov    $0x0,%edx
  405338:	48 89 ce             	mov    %rcx,%rsi
  40533b:	48 89 c7             	mov    %rax,%rdi
  40533e:	e8 e5 00 00 00       	callq  405428 <_ZN2cl8PlatformC1ERKP15_cl_platform_idb>
  405343:	48 8d 45 c0          	lea    -0x40(%rbp),%rax
  405347:	48 89 c6             	mov    %rax,%rsi
  40534a:	bf 08 37 61 00       	mov    $0x613708,%edi
  40534f:	e8 d0 fe ff ff       	callq  405224 <_ZN2cl8PlatformaSEOS0_>
  405354:	48 8d 45 c0          	lea    -0x40(%rbp),%rax
  405358:	48 89 c7             	mov    %rax,%rdi
  40535b:	e8 a8 fe ff ff       	callq  405208 <_ZN2cl8PlatformD1Ev>
  405360:	bb 01 00 00 00       	mov    $0x1,%ebx
  405365:	48 8d 45 d0          	lea    -0x30(%rbp),%rax
  405369:	48 89 c7             	mov    %rax,%rdi
  40536c:	e8 0f 23 00 00       	callq  407680 <_ZNSt6vectorIP15_cl_platform_idSaIS1_EED1Ev>
  405371:	83 fb 01             	cmp    $0x1,%ebx
  405374:	eb 79                	jmp    4053ef <_ZN2cl8Platform11makeDefaultEv+0x1a2>
  405376:	49 89 c4             	mov    %rax,%r12
  405379:	48 89 d3             	mov    %rdx,%rbx
  40537c:	48 8d 45 c0          	lea    -0x40(%rbp),%rax
  405380:	48 89 c7             	mov    %rax,%rdi
  405383:	e8 7a 22 00 00       	callq  407602 <_ZNSaIP15_cl_platform_idED1Ev>
  405388:	4c 89 e0             	mov    %r12,%rax
  40538b:	48 89 da             	mov    %rbx,%rdx
  40538e:	eb 2e                	jmp    4053be <_ZN2cl8Platform11makeDefaultEv+0x171>
  405390:	49 89 c4             	mov    %rax,%r12
  405393:	48 89 d3             	mov    %rdx,%rbx
  405396:	48 8d 45 c0          	lea    -0x40(%rbp),%rax
  40539a:	48 89 c7             	mov    %rax,%rdi
  40539d:	e8 66 fe ff ff       	callq  405208 <_ZN2cl8PlatformD1Ev>
  4053a2:	eb 06                	jmp    4053aa <_ZN2cl8Platform11makeDefaultEv+0x15d>
  4053a4:	49 89 c4             	mov    %rax,%r12
  4053a7:	48 89 d3             	mov    %rdx,%rbx
  4053aa:	48 8d 45 d0          	lea    -0x30(%rbp),%rax
  4053ae:	48 89 c7             	mov    %rax,%rdi
  4053b1:	e8 ca 22 00 00       	callq  407680 <_ZNSt6vectorIP15_cl_platform_idSaIS1_EED1Ev>
  4053b6:	4c 89 e0             	mov    %r12,%rax
  4053b9:	48 89 da             	mov    %rbx,%rdx
  4053bc:	eb 00                	jmp    4053be <_ZN2cl8Platform11makeDefaultEv+0x171>
  4053be:	48 83 fa 01          	cmp    $0x1,%rdx
  4053c2:	74 08                	je     4053cc <_ZN2cl8Platform11makeDefaultEv+0x17f>
  4053c4:	48 89 c7             	mov    %rax,%rdi
  4053c7:	e8 a4 ec ff ff       	callq  404070 <_Unwind_Resume@plt>
  4053cc:	48 89 c7             	mov    %rax,%rdi
  4053cf:	e8 2c e9 ff ff       	callq  403d00 <__cxa_begin_catch@plt>
  4053d4:	48 89 45 c8          	mov    %rax,-0x38(%rbp)
  4053d8:	48 8b 45 c8          	mov    -0x38(%rbp),%rax
  4053dc:	48 89 c7             	mov    %rax,%rdi
  4053df:	e8 c4 f8 ff ff       	callq  404ca8 <_ZNK2cl5Error3errEv>
  4053e4:	89 05 26 e3 20 00    	mov    %eax,0x20e326(%rip)        # 613710 <_ZN2cl8Platform14default_error_E>
  4053ea:	e8 d1 eb ff ff       	callq  403fc0 <__cxa_end_catch@plt>
  4053ef:	48 8b 45 e8          	mov    -0x18(%rbp),%rax
  4053f3:	64 48 33 04 25 28 00 	xor    %fs:0x28,%rax
  4053fa:	00 00 
  4053fc:	74 05                	je     405403 <_ZN2cl8Platform11makeDefaultEv+0x1b6>
  4053fe:	e8 4d ea ff ff       	callq  403e50 <__stack_chk_fail@plt>
  405403:	48 83 c4 40          	add    $0x40,%rsp
  405407:	5b                   	pop    %rbx
  405408:	41 5c                	pop    %r12
  40540a:	5d                   	pop    %rbp
  40540b:	c3                   	retq   

000000000040540c <_ZN2cl8PlatformC1Ev>:
  40540c:	55                   	push   %rbp
  40540d:	48 89 e5             	mov    %rsp,%rbp
  405410:	48 83 ec 10          	sub    $0x10,%rsp
  405414:	48 89 7d f8          	mov    %rdi,-0x8(%rbp)
  405418:	48 8b 45 f8          	mov    -0x8(%rbp),%rax
  40541c:	48 89 c7             	mov    %rax,%rdi
  40541f:	e8 5e 23 00 00       	callq  407782 <_ZN2cl6detail7WrapperIP15_cl_platform_idEC1Ev>
  405424:	90                   	nop
  405425:	c9                   	leaveq 
  405426:	c3                   	retq   
  405427:	90                   	nop

0000000000405428 <_ZN2cl8PlatformC1ERKP15_cl_platform_idb>:
  405428:	55                   	push   %rbp
  405429:	48 89 e5             	mov    %rsp,%rbp
  40542c:	48 83 ec 20          	sub    $0x20,%rsp
  405430:	48 89 7d f8          	mov    %rdi,-0x8(%rbp)
  405434:	48 89 75 f0          	mov    %rsi,-0x10(%rbp)
  405438:	89 d0                	mov    %edx,%eax
  40543a:	88 45 ec             	mov    %al,-0x14(%rbp)
  40543d:	0f b6 55 ec          	movzbl -0x14(%rbp),%edx
  405441:	48 8b 45 f8          	mov    -0x8(%rbp),%rax
  405445:	48 8b 4d f0          	mov    -0x10(%rbp),%rcx
  405449:	48 89 ce             	mov    %rcx,%rsi
  40544c:	48 89 c7             	mov    %rax,%rdi
  40544f:	e8 44 23 00 00       	callq  407798 <_ZN2cl6detail7WrapperIP15_cl_platform_idEC1ERKS3_b>
  405454:	90                   	nop
  405455:	c9                   	leaveq 
  405456:	c3                   	retq   
  405457:	90                   	nop

0000000000405458 <_ZN2cl8PlatformC1ERKS0_>:
  405458:	55                   	push   %rbp
  405459:	48 89 e5             	mov    %rsp,%rbp
  40545c:	48 83 ec 10          	sub    $0x10,%rsp
  405460:	48 89 7d f8          	mov    %rdi,-0x8(%rbp)
  405464:	48 89 75 f0          	mov    %rsi,-0x10(%rbp)
  405468:	48 8b 55 f0          	mov    -0x10(%rbp),%rdx
  40546c:	48 8b 45 f8          	mov    -0x8(%rbp),%rax
  405470:	48 89 d6             	mov    %rdx,%rsi
  405473:	48 89 c7             	mov    %rax,%rdi
  405476:	e8 61 23 00 00       	callq  4077dc <_ZN2cl6detail7WrapperIP15_cl_platform_idEC1ERKS4_>
  40547b:	90                   	nop
  40547c:	c9                   	leaveq 
  40547d:	c3                   	retq   

000000000040547e <_ZN2cl8Platform10getDefaultEPi>:
  40547e:	55                   	push   %rbp
  40547f:	48 89 e5             	mov    %rsp,%rbp
  405482:	48 83 ec 10          	sub    $0x10,%rsp
  405486:	48 89 7d f8          	mov    %rdi,-0x8(%rbp)
  40548a:	48 89 75 f0          	mov    %rsi,-0x10(%rbp)
  40548e:	be 4d 52 40 00       	mov    $0x40524d,%esi
  405493:	bf 04 37 61 00       	mov    $0x613704,%edi
  405498:	e8 a8 20 00 00       	callq  407545 <_ZSt9call_onceIRFvvEIEEvRSt9once_flagOT_DpOT0_>
  40549d:	8b 05 6d e2 20 00    	mov    0x20e26d(%rip),%eax        # 613710 <_ZN2cl8Platform14default_error_E>
  4054a3:	be 00 00 00 00       	mov    $0x0,%esi
  4054a8:	89 c7                	mov    %eax,%edi
  4054aa:	e8 3e ee ff ff       	callq  4042ed <_ZN2cl6detailL10errHandlerEiPKc>
  4054af:	48 83 7d f0 00       	cmpq   $0x0,-0x10(%rbp)
  4054b4:	74 0c                	je     4054c2 <_ZN2cl8Platform10getDefaultEPi+0x44>
  4054b6:	8b 15 54 e2 20 00    	mov    0x20e254(%rip),%edx        # 613710 <_ZN2cl8Platform14default_error_E>
  4054bc:	48 8b 45 f0          	mov    -0x10(%rbp),%rax
  4054c0:	89 10                	mov    %edx,(%rax)
  4054c2:	48 8b 45 f8          	mov    -0x8(%rbp),%rax
  4054c6:	be 08 37 61 00       	mov    $0x613708,%esi
  4054cb:	48 89 c7             	mov    %rax,%rdi
  4054ce:	e8 85 ff ff ff       	callq  405458 <_ZN2cl8PlatformC1ERKS0_>
  4054d3:	48 8b 45 f8          	mov    -0x8(%rbp),%rax
  4054d7:	c9                   	leaveq 
  4054d8:	c3                   	retq   
  4054d9:	90                   	nop

00000000004054da <_ZNK2cl8Platform10getDevicesEmPSt6vectorINS_6DeviceESaIS2_EE>:
  4054da:	55                   	push   %rbp
  4054db:	48 89 e5             	mov    %rsp,%rbp
  4054de:	53                   	push   %rbx
  4054df:	48 83 ec 68          	sub    $0x68,%rsp
  4054e3:	48 89 7d a8          	mov    %rdi,-0x58(%rbp)
  4054e7:	48 89 75 a0          	mov    %rsi,-0x60(%rbp)
  4054eb:	48 89 55 98          	mov    %rdx,-0x68(%rbp)
  4054ef:	64 48 8b 04 25 28 00 	mov    %fs:0x28,%rax
  4054f6:	00 00 
  4054f8:	48 89 45 e8          	mov    %rax,-0x18(%rbp)
  4054fc:	31 c0                	xor    %eax,%eax
  4054fe:	c7 45 b0 00 00 00 00 	movl   $0x0,-0x50(%rbp)
  405505:	48 83 7d 98 00       	cmpq   $0x0,-0x68(%rbp)
  40550a:	75 16                	jne    405522 <_ZNK2cl8Platform10getDevicesEmPSt6vectorINS_6DeviceESaIS2_EE+0x48>
  40550c:	be b1 c6 40 00       	mov    $0x40c6b1,%esi
  405511:	bf ce ff ff ff       	mov    $0xffffffce,%edi
  405516:	e8 d2 ed ff ff       	callq  4042ed <_ZN2cl6detailL10errHandlerEiPKc>
  40551b:	89 c3                	mov    %eax,%ebx
  40551d:	e9 78 01 00 00       	jmpq   40569a <_ZNK2cl8Platform10getDevicesEmPSt6vectorINS_6DeviceESaIS2_EE+0x1c0>
  405522:	48 8b 45 a8          	mov    -0x58(%rbp),%rax
  405526:	48 8b 00             	mov    (%rax),%rax
  405529:	48 8d 55 b0          	lea    -0x50(%rbp),%rdx
  40552d:	48 8b 75 a0          	mov    -0x60(%rbp),%rsi
  405531:	49 89 d0             	mov    %rdx,%r8
  405534:	b9 00 00 00 00       	mov    $0x0,%ecx
  405539:	ba 00 00 00 00       	mov    $0x0,%edx
  40553e:	48 89 c7             	mov    %rax,%rdi
  405541:	e8 7a e9 ff ff       	callq  403ec0 <clGetDeviceIDs@plt>
  405546:	89 45 b4             	mov    %eax,-0x4c(%rbp)
  405549:	83 7d b4 00          	cmpl   $0x0,-0x4c(%rbp)
  40554d:	74 16                	je     405565 <_ZNK2cl8Platform10getDevicesEmPSt6vectorINS_6DeviceESaIS2_EE+0x8b>
  40554f:	8b 45 b4             	mov    -0x4c(%rbp),%eax
  405552:	be b1 c6 40 00       	mov    $0x40c6b1,%esi
  405557:	89 c7                	mov    %eax,%edi
  405559:	e8 8f ed ff ff       	callq  4042ed <_ZN2cl6detailL10errHandlerEiPKc>
  40555e:	89 c3                	mov    %eax,%ebx
  405560:	e9 35 01 00 00       	jmpq   40569a <_ZNK2cl8Platform10getDevicesEmPSt6vectorINS_6DeviceESaIS2_EE+0x1c0>
  405565:	48 8d 45 c0          	lea    -0x40(%rbp),%rax
  405569:	48 89 c7             	mov    %rax,%rdi
  40556c:	e8 a5 22 00 00       	callq  407816 <_ZNSaIP13_cl_device_idEC1Ev>
  405571:	8b 45 b0             	mov    -0x50(%rbp),%eax
  405574:	89 c1                	mov    %eax,%ecx
  405576:	48 8d 55 c0          	lea    -0x40(%rbp),%rdx
  40557a:	48 8d 45 d0          	lea    -0x30(%rbp),%rax
  40557e:	48 89 ce             	mov    %rcx,%rsi
  405581:	48 89 c7             	mov    %rax,%rdi
  405584:	e8 c5 22 00 00       	callq  40784e <_ZNSt6vectorIP13_cl_device_idSaIS1_EEC1EmRKS2_>
  405589:	48 8d 45 c0          	lea    -0x40(%rbp),%rax
  40558d:	48 89 c7             	mov    %rax,%rdi
  405590:	e8 9d 22 00 00       	callq  407832 <_ZNSaIP13_cl_device_idED1Ev>
  405595:	48 8d 45 d0          	lea    -0x30(%rbp),%rax
  405599:	48 89 c7             	mov    %rax,%rdi
  40559c:	e8 53 23 00 00       	callq  4078f4 <_ZNSt6vectorIP13_cl_device_idSaIS1_EE4dataEv>
  4055a1:	48 89 c1             	mov    %rax,%rcx
  4055a4:	8b 55 b0             	mov    -0x50(%rbp),%edx
  4055a7:	48 8b 45 a8          	mov    -0x58(%rbp),%rax
  4055ab:	48 8b 00             	mov    (%rax),%rax
  4055ae:	48 8b 75 a0          	mov    -0x60(%rbp),%rsi
  4055b2:	41 b8 00 00 00 00    	mov    $0x0,%r8d
  4055b8:	48 89 c7             	mov    %rax,%rdi
  4055bb:	e8 00 e9 ff ff       	callq  403ec0 <clGetDeviceIDs@plt>
  4055c0:	89 45 b4             	mov    %eax,-0x4c(%rbp)
  4055c3:	83 7d b4 00          	cmpl   $0x0,-0x4c(%rbp)
  4055c7:	74 16                	je     4055df <_ZNK2cl8Platform10getDevicesEmPSt6vectorINS_6DeviceESaIS2_EE+0x105>
  4055c9:	8b 45 b4             	mov    -0x4c(%rbp),%eax
  4055cc:	be b1 c6 40 00       	mov    $0x40c6b1,%esi
  4055d1:	89 c7                	mov    %eax,%edi
  4055d3:	e8 15 ed ff ff       	callq  4042ed <_ZN2cl6detailL10errHandlerEiPKc>
  4055d8:	89 c3                	mov    %eax,%ebx
  4055da:	e9 af 00 00 00       	jmpq   40568e <_ZNK2cl8Platform10getDevicesEmPSt6vectorINS_6DeviceESaIS2_EE+0x1b4>
  4055df:	48 83 7d 98 00       	cmpq   $0x0,-0x68(%rbp)
  4055e4:	0f 84 9f 00 00 00    	je     405689 <_ZNK2cl8Platform10getDevicesEmPSt6vectorINS_6DeviceESaIS2_EE+0x1af>
  4055ea:	48 8d 45 d0          	lea    -0x30(%rbp),%rax
  4055ee:	48 89 c7             	mov    %rax,%rdi
  4055f1:	e8 22 23 00 00       	callq  407918 <_ZNKSt6vectorIP13_cl_device_idSaIS1_EE4sizeEv>
  4055f6:	48 89 c2             	mov    %rax,%rdx
  4055f9:	48 8b 45 98          	mov    -0x68(%rbp),%rax
  4055fd:	48 89 d6             	mov    %rdx,%rsi
  405600:	48 89 c7             	mov    %rax,%rdi
  405603:	e8 36 23 00 00       	callq  40793e <_ZNSt6vectorIN2cl6DeviceESaIS1_EE6resizeEm>
  405608:	48 c7 45 b8 00 00 00 	movq   $0x0,-0x48(%rbp)
  40560f:	00 
  405610:	48 8d 45 d0          	lea    -0x30(%rbp),%rax
  405614:	48 89 c7             	mov    %rax,%rdi
  405617:	e8 fc 22 00 00       	callq  407918 <_ZNKSt6vectorIP13_cl_device_idSaIS1_EE4sizeEv>
  40561c:	48 3b 45 b8          	cmp    -0x48(%rbp),%rax
  405620:	0f 97 c0             	seta   %al
  405623:	84 c0                	test   %al,%al
  405625:	74 62                	je     405689 <_ZNK2cl8Platform10getDevicesEmPSt6vectorINS_6DeviceESaIS2_EE+0x1af>
  405627:	48 8b 55 b8          	mov    -0x48(%rbp),%rdx
  40562b:	48 8d 45 d0          	lea    -0x30(%rbp),%rax
  40562f:	48 89 d6             	mov    %rdx,%rsi
  405632:	48 89 c7             	mov    %rax,%rdi
  405635:	e8 b0 23 00 00       	callq  4079ea <_ZNSt6vectorIP13_cl_device_idSaIS1_EEixEm>
  40563a:	48 89 c1             	mov    %rax,%rcx
  40563d:	48 8d 45 c0          	lea    -0x40(%rbp),%rax
  405641:	ba 01 00 00 00       	mov    $0x1,%edx
  405646:	48 89 ce             	mov    %rcx,%rsi
  405649:	48 89 c7             	mov    %rax,%rdi
  40564c:	e8 4d fa ff ff       	callq  40509e <_ZN2cl6DeviceC1ERKP13_cl_device_idb>
  405651:	48 8b 55 b8          	mov    -0x48(%rbp),%rdx
  405655:	48 8b 45 98          	mov    -0x68(%rbp),%rax
  405659:	48 89 d6             	mov    %rdx,%rsi
  40565c:	48 89 c7             	mov    %rax,%rdi
  40565f:	e8 66 23 00 00       	callq  4079ca <_ZNSt6vectorIN2cl6DeviceESaIS1_EEixEm>
  405664:	48 89 c2             	mov    %rax,%rdx
  405667:	48 8d 45 c0          	lea    -0x40(%rbp),%rax
  40566b:	48 89 c6             	mov    %rax,%rsi
  40566e:	48 89 d7             	mov    %rdx,%rdi
  405671:	e8 5e fb ff ff       	callq  4051d4 <_ZN2cl6DeviceaSEOS0_>
  405676:	48 8d 45 c0          	lea    -0x40(%rbp),%rax
  40567a:	48 89 c7             	mov    %rax,%rdi
  40567d:	e8 4c fa ff ff       	callq  4050ce <_ZN2cl6DeviceD1Ev>
  405682:	48 83 45 b8 01       	addq   $0x1,-0x48(%rbp)
  405687:	eb 87                	jmp    405610 <_ZNK2cl8Platform10getDevicesEmPSt6vectorINS_6DeviceESaIS2_EE+0x136>
  405689:	bb 00 00 00 00       	mov    $0x0,%ebx
  40568e:	48 8d 45 d0          	lea    -0x30(%rbp),%rax
  405692:	48 89 c7             	mov    %rax,%rdi
  405695:	e8 16 22 00 00       	callq  4078b0 <_ZNSt6vectorIP13_cl_device_idSaIS1_EED1Ev>
  40569a:	89 d8                	mov    %ebx,%eax
  40569c:	48 8b 4d e8          	mov    -0x18(%rbp),%rcx
  4056a0:	64 48 33 0c 25 28 00 	xor    %fs:0x28,%rcx
  4056a7:	00 00 
  4056a9:	74 4c                	je     4056f7 <_ZNK2cl8Platform10getDevicesEmPSt6vectorINS_6DeviceESaIS2_EE+0x21d>
  4056ab:	eb 45                	jmp    4056f2 <_ZNK2cl8Platform10getDevicesEmPSt6vectorINS_6DeviceESaIS2_EE+0x218>
  4056ad:	48 89 c3             	mov    %rax,%rbx
  4056b0:	48 8d 45 c0          	lea    -0x40(%rbp),%rax
  4056b4:	48 89 c7             	mov    %rax,%rdi
  4056b7:	e8 76 21 00 00       	callq  407832 <_ZNSaIP13_cl_device_idED1Ev>
  4056bc:	48 89 d8             	mov    %rbx,%rax
  4056bf:	48 89 c7             	mov    %rax,%rdi
  4056c2:	e8 a9 e9 ff ff       	callq  404070 <_Unwind_Resume@plt>
  4056c7:	48 89 c3             	mov    %rax,%rbx
  4056ca:	48 8d 45 c0          	lea    -0x40(%rbp),%rax
  4056ce:	48 89 c7             	mov    %rax,%rdi
  4056d1:	e8 f8 f9 ff ff       	callq  4050ce <_ZN2cl6DeviceD1Ev>
  4056d6:	eb 03                	jmp    4056db <_ZNK2cl8Platform10getDevicesEmPSt6vectorINS_6DeviceESaIS2_EE+0x201>
  4056d8:	48 89 c3             	mov    %rax,%rbx
  4056db:	48 8d 45 d0          	lea    -0x30(%rbp),%rax
  4056df:	48 89 c7             	mov    %rax,%rdi
  4056e2:	e8 c9 21 00 00       	callq  4078b0 <_ZNSt6vectorIP13_cl_device_idSaIS1_EED1Ev>
  4056e7:	48 89 d8             	mov    %rbx,%rax
  4056ea:	48 89 c7             	mov    %rax,%rdi
  4056ed:	e8 7e e9 ff ff       	callq  404070 <_Unwind_Resume@plt>
  4056f2:	e8 59 e7 ff ff       	callq  403e50 <__stack_chk_fail@plt>
  4056f7:	48 83 c4 68          	add    $0x68,%rsp
  4056fb:	5b                   	pop    %rbx
  4056fc:	5d                   	pop    %rbp
  4056fd:	c3                   	retq   

00000000004056fe <_ZN2cl8Platform3getEPSt6vectorIS0_SaIS0_EE>:
  4056fe:	55                   	push   %rbp
  4056ff:	48 89 e5             	mov    %rsp,%rbp
  405702:	53                   	push   %rbx
  405703:	48 83 ec 58          	sub    $0x58,%rsp
  405707:	48 89 7d a8          	mov    %rdi,-0x58(%rbp)
  40570b:	64 48 8b 04 25 28 00 	mov    %fs:0x28,%rax
  405712:	00 00 
  405714:	48 89 45 e8          	mov    %rax,-0x18(%rbp)
  405718:	31 c0                	xor    %eax,%eax
  40571a:	c7 45 b8 00 00 00 00 	movl   $0x0,-0x48(%rbp)
  405721:	48 83 7d a8 00       	cmpq   $0x0,-0x58(%rbp)
  405726:	75 16                	jne    40573e <_ZN2cl8Platform3getEPSt6vectorIS0_SaIS0_EE+0x40>
  405728:	be c0 c6 40 00       	mov    $0x40c6c0,%esi
  40572d:	bf ce ff ff ff       	mov    $0xffffffce,%edi
  405732:	e8 b6 eb ff ff       	callq  4042ed <_ZN2cl6detailL10errHandlerEiPKc>
  405737:	89 c3                	mov    %eax,%ebx
  405739:	e9 60 01 00 00       	jmpq   40589e <_ZN2cl8Platform3getEPSt6vectorIS0_SaIS0_EE+0x1a0>
  40573e:	48 8d 45 b8          	lea    -0x48(%rbp),%rax
  405742:	48 89 c2             	mov    %rax,%rdx
  405745:	be 00 00 00 00       	mov    $0x0,%esi
  40574a:	bf 00 00 00 00       	mov    $0x0,%edi
  40574f:	e8 6c e6 ff ff       	callq  403dc0 <clGetPlatformIDs@plt>
  405754:	89 45 bc             	mov    %eax,-0x44(%rbp)
  405757:	83 7d bc 00          	cmpl   $0x0,-0x44(%rbp)
  40575b:	74 16                	je     405773 <_ZN2cl8Platform3getEPSt6vectorIS0_SaIS0_EE+0x75>
  40575d:	8b 45 bc             	mov    -0x44(%rbp),%eax
  405760:	be c0 c6 40 00       	mov    $0x40c6c0,%esi
  405765:	89 c7                	mov    %eax,%edi
  405767:	e8 81 eb ff ff       	callq  4042ed <_ZN2cl6detailL10errHandlerEiPKc>
  40576c:	89 c3                	mov    %eax,%ebx
  40576e:	e9 2b 01 00 00       	jmpq   40589e <_ZN2cl8Platform3getEPSt6vectorIS0_SaIS0_EE+0x1a0>
  405773:	48 8d 45 c0          	lea    -0x40(%rbp),%rax
  405777:	48 89 c7             	mov    %rax,%rdi
  40577a:	e8 67 1e 00 00       	callq  4075e6 <_ZNSaIP15_cl_platform_idEC1Ev>
  40577f:	8b 45 b8             	mov    -0x48(%rbp),%eax
  405782:	89 c1                	mov    %eax,%ecx
  405784:	48 8d 55 c0          	lea    -0x40(%rbp),%rdx
  405788:	48 8d 45 d0          	lea    -0x30(%rbp),%rax
  40578c:	48 89 ce             	mov    %rcx,%rsi
  40578f:	48 89 c7             	mov    %rax,%rdi
  405792:	e8 87 1e 00 00       	callq  40761e <_ZNSt6vectorIP15_cl_platform_idSaIS1_EEC1EmRKS2_>
  405797:	48 8d 45 c0          	lea    -0x40(%rbp),%rax
  40579b:	48 89 c7             	mov    %rax,%rdi
  40579e:	e8 5f 1e 00 00       	callq  407602 <_ZNSaIP15_cl_platform_idED1Ev>
  4057a3:	48 8d 45 d0          	lea    -0x30(%rbp),%rax
  4057a7:	48 89 c7             	mov    %rax,%rdi
  4057aa:	e8 15 1f 00 00       	callq  4076c4 <_ZNSt6vectorIP15_cl_platform_idSaIS1_EE4dataEv>
  4057af:	48 89 c1             	mov    %rax,%rcx
  4057b2:	8b 45 b8             	mov    -0x48(%rbp),%eax
  4057b5:	ba 00 00 00 00       	mov    $0x0,%edx
  4057ba:	48 89 ce             	mov    %rcx,%rsi
  4057bd:	89 c7                	mov    %eax,%edi
  4057bf:	e8 fc e5 ff ff       	callq  403dc0 <clGetPlatformIDs@plt>
  4057c4:	89 45 bc             	mov    %eax,-0x44(%rbp)
  4057c7:	83 7d bc 00          	cmpl   $0x0,-0x44(%rbp)
  4057cb:	74 16                	je     4057e3 <_ZN2cl8Platform3getEPSt6vectorIS0_SaIS0_EE+0xe5>
  4057cd:	8b 45 bc             	mov    -0x44(%rbp),%eax
  4057d0:	be c0 c6 40 00       	mov    $0x40c6c0,%esi
  4057d5:	89 c7                	mov    %eax,%edi
  4057d7:	e8 11 eb ff ff       	callq  4042ed <_ZN2cl6detailL10errHandlerEiPKc>
  4057dc:	89 c3                	mov    %eax,%ebx
  4057de:	e9 af 00 00 00       	jmpq   405892 <_ZN2cl8Platform3getEPSt6vectorIS0_SaIS0_EE+0x194>
  4057e3:	48 83 7d a8 00       	cmpq   $0x0,-0x58(%rbp)
  4057e8:	0f 84 9f 00 00 00    	je     40588d <_ZN2cl8Platform3getEPSt6vectorIS0_SaIS0_EE+0x18f>
  4057ee:	48 8d 45 d0          	lea    -0x30(%rbp),%rax
  4057f2:	48 89 c7             	mov    %rax,%rdi
  4057f5:	e8 10 22 00 00       	callq  407a0a <_ZNKSt6vectorIP15_cl_platform_idSaIS1_EE4sizeEv>
  4057fa:	48 89 c2             	mov    %rax,%rdx
  4057fd:	48 8b 45 a8          	mov    -0x58(%rbp),%rax
  405801:	48 89 d6             	mov    %rdx,%rsi
  405804:	48 89 c7             	mov    %rax,%rdi
  405807:	e8 24 22 00 00       	callq  407a30 <_ZNSt6vectorIN2cl8PlatformESaIS1_EE6resizeEm>
  40580c:	48 c7 45 c8 00 00 00 	movq   $0x0,-0x38(%rbp)
  405813:	00 
  405814:	48 8d 45 d0          	lea    -0x30(%rbp),%rax
  405818:	48 89 c7             	mov    %rax,%rdi
  40581b:	e8 ea 21 00 00       	callq  407a0a <_ZNKSt6vectorIP15_cl_platform_idSaIS1_EE4sizeEv>
  405820:	48 3b 45 c8          	cmp    -0x38(%rbp),%rax
  405824:	0f 97 c0             	seta   %al
  405827:	84 c0                	test   %al,%al
  405829:	74 62                	je     40588d <_ZN2cl8Platform3getEPSt6vectorIS0_SaIS0_EE+0x18f>
  40582b:	48 8b 55 c8          	mov    -0x38(%rbp),%rdx
  40582f:	48 8d 45 d0          	lea    -0x30(%rbp),%rax
  405833:	48 89 d6             	mov    %rdx,%rsi
  405836:	48 89 c7             	mov    %rax,%rdi
  405839:	e8 aa 1e 00 00       	callq  4076e8 <_ZNSt6vectorIP15_cl_platform_idSaIS1_EEixEm>
  40583e:	48 89 c1             	mov    %rax,%rcx
  405841:	48 8d 45 c0          	lea    -0x40(%rbp),%rax
  405845:	ba 00 00 00 00       	mov    $0x0,%edx
  40584a:	48 89 ce             	mov    %rcx,%rsi
  40584d:	48 89 c7             	mov    %rax,%rdi
  405850:	e8 d3 fb ff ff       	callq  405428 <_ZN2cl8PlatformC1ERKP15_cl_platform_idb>
  405855:	48 8b 55 c8          	mov    -0x38(%rbp),%rdx
  405859:	48 8b 45 a8          	mov    -0x58(%rbp),%rax
  40585d:	48 89 d6             	mov    %rdx,%rsi
  405860:	48 89 c7             	mov    %rax,%rdi
  405863:	e8 54 22 00 00       	callq  407abc <_ZNSt6vectorIN2cl8PlatformESaIS1_EEixEm>
  405868:	48 89 c2             	mov    %rax,%rdx
  40586b:	48 8d 45 c0          	lea    -0x40(%rbp),%rax
  40586f:	48 89 c6             	mov    %rax,%rsi
  405872:	48 89 d7             	mov    %rdx,%rdi
  405875:	e8 aa f9 ff ff       	callq  405224 <_ZN2cl8PlatformaSEOS0_>
  40587a:	48 8d 45 c0          	lea    -0x40(%rbp),%rax
  40587e:	48 89 c7             	mov    %rax,%rdi
  405881:	e8 82 f9 ff ff       	callq  405208 <_ZN2cl8PlatformD1Ev>
  405886:	48 83 45 c8 01       	addq   $0x1,-0x38(%rbp)
  40588b:	eb 87                	jmp    405814 <_ZN2cl8Platform3getEPSt6vectorIS0_SaIS0_EE+0x116>
  40588d:	bb 00 00 00 00       	mov    $0x0,%ebx
  405892:	48 8d 45 d0          	lea    -0x30(%rbp),%rax
  405896:	48 89 c7             	mov    %rax,%rdi
  405899:	e8 e2 1d 00 00       	callq  407680 <_ZNSt6vectorIP15_cl_platform_idSaIS1_EED1Ev>
  40589e:	89 d8                	mov    %ebx,%eax
  4058a0:	48 8b 4d e8          	mov    -0x18(%rbp),%rcx
  4058a4:	64 48 33 0c 25 28 00 	xor    %fs:0x28,%rcx
  4058ab:	00 00 
  4058ad:	74 4c                	je     4058fb <_ZN2cl8Platform3getEPSt6vectorIS0_SaIS0_EE+0x1fd>
  4058af:	eb 45                	jmp    4058f6 <_ZN2cl8Platform3getEPSt6vectorIS0_SaIS0_EE+0x1f8>
  4058b1:	48 89 c3             	mov    %rax,%rbx
  4058b4:	48 8d 45 c0          	lea    -0x40(%rbp),%rax
  4058b8:	48 89 c7             	mov    %rax,%rdi
  4058bb:	e8 42 1d 00 00       	callq  407602 <_ZNSaIP15_cl_platform_idED1Ev>
  4058c0:	48 89 d8             	mov    %rbx,%rax
  4058c3:	48 89 c7             	mov    %rax,%rdi
  4058c6:	e8 a5 e7 ff ff       	callq  404070 <_Unwind_Resume@plt>
  4058cb:	48 89 c3             	mov    %rax,%rbx
  4058ce:	48 8d 45 c0          	lea    -0x40(%rbp),%rax
  4058d2:	48 89 c7             	mov    %rax,%rdi
  4058d5:	e8 2e f9 ff ff       	callq  405208 <_ZN2cl8PlatformD1Ev>
  4058da:	eb 03                	jmp    4058df <_ZN2cl8Platform3getEPSt6vectorIS0_SaIS0_EE+0x1e1>
  4058dc:	48 89 c3             	mov    %rax,%rbx
  4058df:	48 8d 45 d0          	lea    -0x30(%rbp),%rax
  4058e3:	48 89 c7             	mov    %rax,%rdi
  4058e6:	e8 95 1d 00 00       	callq  407680 <_ZNSt6vectorIP15_cl_platform_idSaIS1_EED1Ev>
  4058eb:	48 89 d8             	mov    %rbx,%rax
  4058ee:	48 89 c7             	mov    %rax,%rdi
  4058f1:	e8 7a e7 ff ff       	callq  404070 <_Unwind_Resume@plt>
  4058f6:	e8 55 e5 ff ff       	callq  403e50 <__stack_chk_fail@plt>
  4058fb:	48 83 c4 58          	add    $0x58,%rsp
  4058ff:	5b                   	pop    %rbx
  405900:	5d                   	pop    %rbp
  405901:	c3                   	retq   

0000000000405902 <_ZN2cl8PlatformC1EOS0_>:
  405902:	55                   	push   %rbp
  405903:	48 89 e5             	mov    %rsp,%rbp
  405906:	48 83 ec 10          	sub    $0x10,%rsp
  40590a:	48 89 7d f8          	mov    %rdi,-0x8(%rbp)
  40590e:	48 89 75 f0          	mov    %rsi,-0x10(%rbp)
  405912:	48 8b 55 f0          	mov    -0x10(%rbp),%rdx
  405916:	48 8b 45 f8          	mov    -0x8(%rbp),%rax
  40591a:	48 89 d6             	mov    %rdx,%rsi
  40591d:	48 89 c7             	mov    %rax,%rdi
  405920:	e8 b7 21 00 00       	callq  407adc <_ZN2cl6detail7WrapperIP15_cl_platform_idEC1EOS4_>
  405925:	90                   	nop
  405926:	c9                   	leaveq 
  405927:	c3                   	retq   

0000000000405928 <_ZN2cl7ContextD1Ev>:
  405928:	55                   	push   %rbp
  405929:	48 89 e5             	mov    %rsp,%rbp
  40592c:	48 83 ec 10          	sub    $0x10,%rsp
  405930:	48 89 7d f8          	mov    %rdi,-0x8(%rbp)
  405934:	48 8b 45 f8          	mov    -0x8(%rbp),%rax
  405938:	48 89 c7             	mov    %rax,%rdi
  40593b:	e8 d2 21 00 00       	callq  407b12 <_ZN2cl6detail7WrapperIP11_cl_contextED1Ev>
  405940:	90                   	nop
  405941:	c9                   	leaveq 
  405942:	c3                   	retq   

0000000000405943 <_ZN2cl7Context11makeDefaultEv>:
  405943:	55                   	push   %rbp
  405944:	48 89 e5             	mov    %rsp,%rbp
  405947:	41 54                	push   %r12
  405949:	53                   	push   %rbx
  40594a:	48 83 ec 50          	sub    $0x50,%rsp
  40594e:	64 48 8b 04 25 28 00 	mov    %fs:0x28,%rax
  405955:	00 00 
  405957:	48 89 45 e8          	mov    %rax,-0x18(%rbp)
  40595b:	31 c0                	xor    %eax,%eax
  40595d:	48 8d 45 a0          	lea    -0x60(%rbp),%rax
  405961:	be 00 00 00 00       	mov    $0x0,%esi
  405966:	48 89 c7             	mov    %rax,%rdi
  405969:	e8 10 fb ff ff       	callq  40547e <_ZN2cl8Platform10getDefaultEPi>
  40596e:	48 8d 45 a0          	lea    -0x60(%rbp),%rax
  405972:	48 89 45 b8          	mov    %rax,-0x48(%rbp)
  405976:	48 8b 45 b8          	mov    -0x48(%rbp),%rax
  40597a:	48 89 c7             	mov    %rax,%rdi
  40597d:	e8 82 21 00 00       	callq  407b04 <_ZNK2cl6detail7WrapperIP15_cl_platform_idEclEv>
  405982:	48 8b 00             	mov    (%rax),%rax
  405985:	48 89 45 c0          	mov    %rax,-0x40(%rbp)
  405989:	48 c7 45 d0 00 00 00 	movq   $0x0,-0x30(%rbp)
  405990:	00 
  405991:	48 c7 45 d8 00 00 00 	movq   $0x0,-0x28(%rbp)
  405998:	00 
  405999:	48 c7 45 e0 00 00 00 	movq   $0x0,-0x20(%rbp)
  4059a0:	00 
  4059a1:	48 c7 45 d0 84 10 00 	movq   $0x1084,-0x30(%rbp)
  4059a8:	00 
  4059a9:	48 8b 45 c0          	mov    -0x40(%rbp),%rax
  4059ad:	48 89 45 d8          	mov    %rax,-0x28(%rbp)
  4059b1:	48 8d 55 d0          	lea    -0x30(%rbp),%rdx
  4059b5:	48 8d 45 b0          	lea    -0x50(%rbp),%rax
  4059b9:	41 b9 20 37 61 00    	mov    $0x613720,%r9d
  4059bf:	41 b8 00 00 00 00    	mov    $0x0,%r8d
  4059c5:	b9 00 00 00 00       	mov    $0x0,%ecx
  4059ca:	be 01 00 00 00       	mov    $0x1,%esi
  4059cf:	48 89 c7             	mov    %rax,%rdi
  4059d2:	e8 a9 00 00 00       	callq  405a80 <_ZN2cl7ContextC1EmPlPFvPKcPKvmPvES6_Pi>
  4059d7:	48 8d 45 b0          	lea    -0x50(%rbp),%rax
  4059db:	48 89 c6             	mov    %rax,%rsi
  4059de:	bf 18 37 61 00       	mov    $0x613718,%edi
  4059e3:	e8 5c 04 00 00       	callq  405e44 <_ZN2cl7ContextaSEOS0_>
  4059e8:	48 8d 45 b0          	lea    -0x50(%rbp),%rax
  4059ec:	48 89 c7             	mov    %rax,%rdi
  4059ef:	e8 34 ff ff ff       	callq  405928 <_ZN2cl7ContextD1Ev>
  4059f4:	48 8d 45 a0          	lea    -0x60(%rbp),%rax
  4059f8:	48 89 c7             	mov    %rax,%rdi
  4059fb:	e8 08 f8 ff ff       	callq  405208 <_ZN2cl8PlatformD1Ev>
  405a00:	eb 5f                	jmp    405a61 <_ZN2cl7Context11makeDefaultEv+0x11e>
  405a02:	49 89 c4             	mov    %rax,%r12
  405a05:	48 89 d3             	mov    %rdx,%rbx
  405a08:	48 8d 45 b0          	lea    -0x50(%rbp),%rax
  405a0c:	48 89 c7             	mov    %rax,%rdi
  405a0f:	e8 14 ff ff ff       	callq  405928 <_ZN2cl7ContextD1Ev>
  405a14:	eb 06                	jmp    405a1c <_ZN2cl7Context11makeDefaultEv+0xd9>
  405a16:	49 89 c4             	mov    %rax,%r12
  405a19:	48 89 d3             	mov    %rdx,%rbx
  405a1c:	48 8d 45 a0          	lea    -0x60(%rbp),%rax
  405a20:	48 89 c7             	mov    %rax,%rdi
  405a23:	e8 e0 f7 ff ff       	callq  405208 <_ZN2cl8PlatformD1Ev>
  405a28:	4c 89 e0             	mov    %r12,%rax
  405a2b:	48 89 da             	mov    %rbx,%rdx
  405a2e:	eb 00                	jmp    405a30 <_ZN2cl7Context11makeDefaultEv+0xed>
  405a30:	48 83 fa 01          	cmp    $0x1,%rdx
  405a34:	74 08                	je     405a3e <_ZN2cl7Context11makeDefaultEv+0xfb>
  405a36:	48 89 c7             	mov    %rax,%rdi
  405a39:	e8 32 e6 ff ff       	callq  404070 <_Unwind_Resume@plt>
  405a3e:	48 89 c7             	mov    %rax,%rdi
  405a41:	e8 ba e2 ff ff       	callq  403d00 <__cxa_begin_catch@plt>
  405a46:	48 89 45 c8          	mov    %rax,-0x38(%rbp)
  405a4a:	48 8b 45 c8          	mov    -0x38(%rbp),%rax
  405a4e:	48 89 c7             	mov    %rax,%rdi
  405a51:	e8 52 f2 ff ff       	callq  404ca8 <_ZNK2cl5Error3errEv>
  405a56:	89 05 c4 dc 20 00    	mov    %eax,0x20dcc4(%rip)        # 613720 <_ZN2cl7Context14default_error_E>
  405a5c:	e8 5f e5 ff ff       	callq  403fc0 <__cxa_end_catch@plt>
  405a61:	90                   	nop
  405a62:	48 8b 45 e8          	mov    -0x18(%rbp),%rax
  405a66:	64 48 33 04 25 28 00 	xor    %fs:0x28,%rax
  405a6d:	00 00 
  405a6f:	74 05                	je     405a76 <_ZN2cl7Context11makeDefaultEv+0x133>
  405a71:	e8 da e3 ff ff       	callq  403e50 <__stack_chk_fail@plt>
  405a76:	48 83 c4 50          	add    $0x50,%rsp
  405a7a:	5b                   	pop    %rbx
  405a7b:	41 5c                	pop    %r12
  405a7d:	5d                   	pop    %rbp
  405a7e:	c3                   	retq   
  405a7f:	90                   	nop

0000000000405a80 <_ZN2cl7ContextC1EmPlPFvPKcPKvmPvES6_Pi>:
  405a80:	55                   	push   %rbp
  405a81:	48 89 e5             	mov    %rsp,%rbp
  405a84:	53                   	push   %rbx
  405a85:	48 81 ec d8 00 00 00 	sub    $0xd8,%rsp
  405a8c:	48 89 bd 48 ff ff ff 	mov    %rdi,-0xb8(%rbp)
  405a93:	48 89 b5 40 ff ff ff 	mov    %rsi,-0xc0(%rbp)
  405a9a:	48 89 95 38 ff ff ff 	mov    %rdx,-0xc8(%rbp)
  405aa1:	48 89 8d 30 ff ff ff 	mov    %rcx,-0xd0(%rbp)
  405aa8:	4c 89 85 28 ff ff ff 	mov    %r8,-0xd8(%rbp)
  405aaf:	4c 89 8d 20 ff ff ff 	mov    %r9,-0xe0(%rbp)
  405ab6:	64 48 8b 04 25 28 00 	mov    %fs:0x28,%rax
  405abd:	00 00 
  405abf:	48 89 45 e8          	mov    %rax,-0x18(%rbp)
  405ac3:	31 c0                	xor    %eax,%eax
  405ac5:	48 8b 85 48 ff ff ff 	mov    -0xb8(%rbp),%rax
  405acc:	48 89 c7             	mov    %rax,%rdi
  405acf:	e8 66 20 00 00       	callq  407b3a <_ZN2cl6detail7WrapperIP11_cl_contextEC1Ev>
  405ad4:	48 c7 45 c0 84 10 00 	movq   $0x1084,-0x40(%rbp)
  405adb:	00 
  405adc:	48 c7 45 c8 00 00 00 	movq   $0x0,-0x38(%rbp)
  405ae3:	00 
  405ae4:	48 c7 45 d0 00 00 00 	movq   $0x0,-0x30(%rbp)
  405aeb:	00 
  405aec:	48 c7 45 d8 00 00 00 	movq   $0x0,-0x28(%rbp)
  405af3:	00 
  405af4:	48 83 bd 38 ff ff ff 	cmpq   $0x0,-0xc8(%rbp)
  405afb:	00 
  405afc:	0f 85 f3 01 00 00    	jne    405cf5 <_ZN2cl7ContextC1EmPlPFvPKcPKvmPvES6_Pi+0x275>
  405b02:	48 8d 85 60 ff ff ff 	lea    -0xa0(%rbp),%rax
  405b09:	48 89 c7             	mov    %rax,%rdi
  405b0c:	e8 65 20 00 00       	callq  407b76 <_ZNSt6vectorIN2cl8PlatformESaIS1_EEC1Ev>
  405b11:	48 8d 85 60 ff ff ff 	lea    -0xa0(%rbp),%rax
  405b18:	48 89 c7             	mov    %rax,%rdi
  405b1b:	e8 de fb ff ff       	callq  4056fe <_ZN2cl8Platform3getEPSt6vectorIS0_SaIS0_EE>
  405b20:	89 85 50 ff ff ff    	mov    %eax,-0xb0(%rbp)
  405b26:	8b 85 50 ff ff ff    	mov    -0xb0(%rbp),%eax
  405b2c:	85 c0                	test   %eax,%eax
  405b2e:	74 35                	je     405b65 <_ZN2cl7ContextC1EmPlPFvPKcPKvmPvES6_Pi+0xe5>
  405b30:	8b 85 50 ff ff ff    	mov    -0xb0(%rbp),%eax
  405b36:	be d1 c6 40 00       	mov    $0x40c6d1,%esi
  405b3b:	89 c7                	mov    %eax,%edi
  405b3d:	e8 ab e7 ff ff       	callq  4042ed <_ZN2cl6detailL10errHandlerEiPKc>
  405b42:	48 83 bd 20 ff ff ff 	cmpq   $0x0,-0xe0(%rbp)
  405b49:	00 
  405b4a:	74 0f                	je     405b5b <_ZN2cl7ContextC1EmPlPFvPKcPKvmPvES6_Pi+0xdb>
  405b4c:	8b 95 50 ff ff ff    	mov    -0xb0(%rbp),%edx
  405b52:	48 8b 85 20 ff ff ff 	mov    -0xe0(%rbp),%rax
  405b59:	89 10                	mov    %edx,(%rax)
  405b5b:	bb 00 00 00 00       	mov    $0x0,%ebx
  405b60:	e9 77 01 00 00       	jmpq   405cdc <_ZN2cl7ContextC1EmPlPFvPKcPKvmPvES6_Pi+0x25c>
  405b65:	48 c7 85 58 ff ff ff 	movq   $0x0,-0xa8(%rbp)
  405b6c:	00 00 00 00 
  405b70:	c7 85 54 ff ff ff 00 	movl   $0x0,-0xac(%rbp)
  405b77:	00 00 00 
  405b7a:	8b 9d 54 ff ff ff    	mov    -0xac(%rbp),%ebx
  405b80:	48 8d 85 60 ff ff ff 	lea    -0xa0(%rbp),%rax
  405b87:	48 89 c7             	mov    %rax,%rdi
  405b8a:	e8 47 20 00 00       	callq  407bd6 <_ZNKSt6vectorIN2cl8PlatformESaIS1_EE4sizeEv>
  405b8f:	48 39 c3             	cmp    %rax,%rbx
  405b92:	0f 92 c0             	setb   %al
  405b95:	84 c0                	test   %al,%al
  405b97:	0f 84 ed 00 00 00    	je     405c8a <_ZN2cl7ContextC1EmPlPFvPKcPKvmPvES6_Pi+0x20a>
  405b9d:	48 8d 45 80          	lea    -0x80(%rbp),%rax
  405ba1:	48 89 c7             	mov    %rax,%rdi
  405ba4:	e8 53 20 00 00       	callq  407bfc <_ZNSt6vectorIN2cl6DeviceESaIS1_EEC1Ev>
  405ba9:	8b 95 54 ff ff ff    	mov    -0xac(%rbp),%edx
  405baf:	48 8d 85 60 ff ff ff 	lea    -0xa0(%rbp),%rax
  405bb6:	48 89 d6             	mov    %rdx,%rsi
  405bb9:	48 89 c7             	mov    %rax,%rdi
  405bbc:	e8 fb 1e 00 00       	callq  407abc <_ZNSt6vectorIN2cl8PlatformESaIS1_EEixEm>
  405bc1:	48 89 c1             	mov    %rax,%rcx
  405bc4:	48 8d 55 80          	lea    -0x80(%rbp),%rdx
  405bc8:	48 8b 85 40 ff ff ff 	mov    -0xc0(%rbp),%rax
  405bcf:	48 89 c6             	mov    %rax,%rsi
  405bd2:	48 89 cf             	mov    %rcx,%rdi
  405bd5:	e8 00 f9 ff ff       	callq  4054da <_ZNK2cl8Platform10getDevicesEmPSt6vectorINS_6DeviceESaIS2_EE>
  405bda:	89 85 50 ff ff ff    	mov    %eax,-0xb0(%rbp)
  405be0:	8b 85 50 ff ff ff    	mov    -0xb0(%rbp),%eax
  405be6:	85 c0                	test   %eax,%eax
  405be8:	74 36                	je     405c20 <_ZN2cl7ContextC1EmPlPFvPKcPKvmPvES6_Pi+0x1a0>
  405bea:	8b 85 50 ff ff ff    	mov    -0xb0(%rbp),%eax
  405bf0:	83 f8 ff             	cmp    $0xffffffff,%eax
  405bf3:	74 2b                	je     405c20 <_ZN2cl7ContextC1EmPlPFvPKcPKvmPvES6_Pi+0x1a0>
  405bf5:	8b 85 50 ff ff ff    	mov    -0xb0(%rbp),%eax
  405bfb:	be d1 c6 40 00       	mov    $0x40c6d1,%esi
  405c00:	89 c7                	mov    %eax,%edi
  405c02:	e8 e6 e6 ff ff       	callq  4042ed <_ZN2cl6detailL10errHandlerEiPKc>
  405c07:	48 83 bd 20 ff ff ff 	cmpq   $0x0,-0xe0(%rbp)
  405c0e:	00 
  405c0f:	74 0f                	je     405c20 <_ZN2cl7ContextC1EmPlPFvPKcPKvmPvES6_Pi+0x1a0>
  405c11:	8b 95 50 ff ff ff    	mov    -0xb0(%rbp),%edx
  405c17:	48 8b 85 20 ff ff ff 	mov    -0xe0(%rbp),%rax
  405c1e:	89 10                	mov    %edx,(%rax)
  405c20:	48 8d 45 80          	lea    -0x80(%rbp),%rax
  405c24:	48 89 c7             	mov    %rax,%rdi
  405c27:	e8 24 1f 00 00       	callq  407b50 <_ZNKSt6vectorIN2cl6DeviceESaIS1_EE4sizeEv>
  405c2c:	48 85 c0             	test   %rax,%rax
  405c2f:	0f 95 c0             	setne  %al
  405c32:	84 c0                	test   %al,%al
  405c34:	74 31                	je     405c67 <_ZN2cl7ContextC1EmPlPFvPKcPKvmPvES6_Pi+0x1e7>
  405c36:	8b 95 54 ff ff ff    	mov    -0xac(%rbp),%edx
  405c3c:	48 8d 85 60 ff ff ff 	lea    -0xa0(%rbp),%rax
  405c43:	48 89 d6             	mov    %rdx,%rsi
  405c46:	48 89 c7             	mov    %rax,%rdi
  405c49:	e8 6e 1e 00 00       	callq  407abc <_ZNSt6vectorIN2cl8PlatformESaIS1_EEixEm>
  405c4e:	48 89 c7             	mov    %rax,%rdi
  405c51:	e8 06 20 00 00       	callq  407c5c <_ZN2cl6detail7WrapperIP15_cl_platform_idEclEv>
  405c56:	48 8b 00             	mov    (%rax),%rax
  405c59:	48 89 85 58 ff ff ff 	mov    %rax,-0xa8(%rbp)
  405c60:	bb 00 00 00 00       	mov    $0x0,%ebx
  405c65:	eb 05                	jmp    405c6c <_ZN2cl7ContextC1EmPlPFvPKcPKvmPvES6_Pi+0x1ec>
  405c67:	bb 01 00 00 00       	mov    $0x1,%ebx
  405c6c:	48 8d 45 80          	lea    -0x80(%rbp),%rax
  405c70:	48 89 c7             	mov    %rax,%rdi
  405c73:	e8 a0 1f 00 00       	callq  407c18 <_ZNSt6vectorIN2cl6DeviceESaIS1_EED1Ev>
  405c78:	83 fb 01             	cmp    $0x1,%ebx
  405c7b:	75 0d                	jne    405c8a <_ZN2cl7ContextC1EmPlPFvPKcPKvmPvES6_Pi+0x20a>
  405c7d:	90                   	nop
  405c7e:	83 85 54 ff ff ff 01 	addl   $0x1,-0xac(%rbp)
  405c85:	e9 f0 fe ff ff       	jmpq   405b7a <_ZN2cl7ContextC1EmPlPFvPKcPKvmPvES6_Pi+0xfa>
  405c8a:	48 83 bd 58 ff ff ff 	cmpq   $0x0,-0xa8(%rbp)
  405c91:	00 
  405c92:	75 2d                	jne    405cc1 <_ZN2cl7ContextC1EmPlPFvPKcPKvmPvES6_Pi+0x241>
  405c94:	be d1 c6 40 00       	mov    $0x40c6d1,%esi
  405c99:	bf ff ff ff ff       	mov    $0xffffffff,%edi
  405c9e:	e8 4a e6 ff ff       	callq  4042ed <_ZN2cl6detailL10errHandlerEiPKc>
  405ca3:	48 83 bd 20 ff ff ff 	cmpq   $0x0,-0xe0(%rbp)
  405caa:	00 
  405cab:	74 0d                	je     405cba <_ZN2cl7ContextC1EmPlPFvPKcPKvmPvES6_Pi+0x23a>
  405cad:	48 8b 85 20 ff ff ff 	mov    -0xe0(%rbp),%rax
  405cb4:	c7 00 ff ff ff ff    	movl   $0xffffffff,(%rax)
  405cba:	bb 00 00 00 00       	mov    $0x0,%ebx
  405cbf:	eb 1b                	jmp    405cdc <_ZN2cl7ContextC1EmPlPFvPKcPKvmPvES6_Pi+0x25c>
  405cc1:	48 8b 85 58 ff ff ff 	mov    -0xa8(%rbp),%rax
  405cc8:	48 89 45 c8          	mov    %rax,-0x38(%rbp)
  405ccc:	48 8d 45 c0          	lea    -0x40(%rbp),%rax
  405cd0:	48 89 85 38 ff ff ff 	mov    %rax,-0xc8(%rbp)
  405cd7:	bb 01 00 00 00       	mov    $0x1,%ebx
  405cdc:	48 8d 85 60 ff ff ff 	lea    -0xa0(%rbp),%rax
  405ce3:	48 89 c7             	mov    %rax,%rdi
  405ce6:	e8 a7 1e 00 00       	callq  407b92 <_ZNSt6vectorIN2cl8PlatformESaIS1_EED1Ev>
  405ceb:	83 fb 01             	cmp    $0x1,%ebx
  405cee:	0f 85 fe 00 00 00    	jne    405df2 <_ZN2cl7ContextC1EmPlPFvPKcPKvmPvES6_Pi+0x372>
  405cf4:	90                   	nop
  405cf5:	48 8d bd 50 ff ff ff 	lea    -0xb0(%rbp),%rdi
  405cfc:	48 8b 8d 28 ff ff ff 	mov    -0xd8(%rbp),%rcx
  405d03:	48 8b 95 30 ff ff ff 	mov    -0xd0(%rbp),%rdx
  405d0a:	48 8b b5 40 ff ff ff 	mov    -0xc0(%rbp),%rsi
  405d11:	48 8b 85 38 ff ff ff 	mov    -0xc8(%rbp),%rax
  405d18:	49 89 f8             	mov    %rdi,%r8
  405d1b:	48 89 c7             	mov    %rax,%rdi
  405d1e:	e8 3d e3 ff ff       	callq  404060 <clCreateContextFromType@plt>
  405d23:	48 89 c2             	mov    %rax,%rdx
  405d26:	48 8b 85 48 ff ff ff 	mov    -0xb8(%rbp),%rax
  405d2d:	48 89 10             	mov    %rdx,(%rax)
  405d30:	8b 85 50 ff ff ff    	mov    -0xb0(%rbp),%eax
  405d36:	be d1 c6 40 00       	mov    $0x40c6d1,%esi
  405d3b:	89 c7                	mov    %eax,%edi
  405d3d:	e8 ab e5 ff ff       	callq  4042ed <_ZN2cl6detailL10errHandlerEiPKc>
  405d42:	48 83 bd 20 ff ff ff 	cmpq   $0x0,-0xe0(%rbp)
  405d49:	00 
  405d4a:	0f 84 a2 00 00 00    	je     405df2 <_ZN2cl7ContextC1EmPlPFvPKcPKvmPvES6_Pi+0x372>
  405d50:	8b 95 50 ff ff ff    	mov    -0xb0(%rbp),%edx
  405d56:	48 8b 85 20 ff ff ff 	mov    -0xe0(%rbp),%rax
  405d5d:	89 10                	mov    %edx,(%rax)
  405d5f:	e9 8e 00 00 00       	jmpq   405df2 <_ZN2cl7ContextC1EmPlPFvPKcPKvmPvES6_Pi+0x372>
  405d64:	48 89 c3             	mov    %rax,%rbx
  405d67:	48 89 d0             	mov    %rdx,%rax
  405d6a:	48 83 f8 01          	cmp    $0x1,%rax
  405d6e:	74 02                	je     405d72 <_ZN2cl7ContextC1EmPlPFvPKcPKvmPvES6_Pi+0x2f2>
  405d70:	eb 41                	jmp    405db3 <_ZN2cl7ContextC1EmPlPFvPKcPKvmPvES6_Pi+0x333>
  405d72:	48 89 d8             	mov    %rbx,%rax
  405d75:	48 89 c7             	mov    %rax,%rdi
  405d78:	e8 53 e1 ff ff       	callq  403ed0 <__cxa_get_exception_ptr@plt>
  405d7d:	48 89 c2             	mov    %rax,%rdx
  405d80:	48 8d 45 a0          	lea    -0x60(%rbp),%rax
  405d84:	48 89 d6             	mov    %rdx,%rsi
  405d87:	48 89 c7             	mov    %rax,%rdi
  405d8a:	e8 47 ef ff ff       	callq  404cd6 <_ZN2cl5ErrorC1ERKS0_>
  405d8f:	48 89 d8             	mov    %rbx,%rax
  405d92:	48 89 c7             	mov    %rax,%rdi
  405d95:	e8 66 df ff ff       	callq  403d00 <__cxa_begin_catch@plt>
  405d9a:	48 8d 45 a0          	lea    -0x60(%rbp),%rax
  405d9e:	48 89 c7             	mov    %rax,%rdi
  405da1:	e8 7a ee ff ff       	callq  404c20 <_ZN2cl5ErrorD1Ev>
  405da6:	e8 15 e2 ff ff       	callq  403fc0 <__cxa_end_catch@plt>
  405dab:	e9 30 fe ff ff       	jmpq   405be0 <_ZN2cl7ContextC1EmPlPFvPKcPKvmPvES6_Pi+0x160>
  405db0:	48 89 c3             	mov    %rax,%rbx
  405db3:	48 8d 45 80          	lea    -0x80(%rbp),%rax
  405db7:	48 89 c7             	mov    %rax,%rdi
  405dba:	e8 59 1e 00 00       	callq  407c18 <_ZNSt6vectorIN2cl6DeviceESaIS1_EED1Ev>
  405dbf:	eb 03                	jmp    405dc4 <_ZN2cl7ContextC1EmPlPFvPKcPKvmPvES6_Pi+0x344>
  405dc1:	48 89 c3             	mov    %rax,%rbx
  405dc4:	48 8d 85 60 ff ff ff 	lea    -0xa0(%rbp),%rax
  405dcb:	48 89 c7             	mov    %rax,%rdi
  405dce:	e8 bf 1d 00 00       	callq  407b92 <_ZNSt6vectorIN2cl8PlatformESaIS1_EED1Ev>
  405dd3:	eb 03                	jmp    405dd8 <_ZN2cl7ContextC1EmPlPFvPKcPKvmPvES6_Pi+0x358>
  405dd5:	48 89 c3             	mov    %rax,%rbx
  405dd8:	48 8b 85 48 ff ff ff 	mov    -0xb8(%rbp),%rax
  405ddf:	48 89 c7             	mov    %rax,%rdi
  405de2:	e8 2b 1d 00 00       	callq  407b12 <_ZN2cl6detail7WrapperIP11_cl_contextED1Ev>
  405de7:	48 89 d8             	mov    %rbx,%rax
  405dea:	48 89 c7             	mov    %rax,%rdi
  405ded:	e8 7e e2 ff ff       	callq  404070 <_Unwind_Resume@plt>
  405df2:	48 8b 45 e8          	mov    -0x18(%rbp),%rax
  405df6:	64 48 33 04 25 28 00 	xor    %fs:0x28,%rax
  405dfd:	00 00 
  405dff:	74 05                	je     405e06 <_ZN2cl7ContextC1EmPlPFvPKcPKvmPvES6_Pi+0x386>
  405e01:	e8 4a e0 ff ff       	callq  403e50 <__stack_chk_fail@plt>
  405e06:	48 81 c4 d8 00 00 00 	add    $0xd8,%rsp
  405e0d:	5b                   	pop    %rbx
  405e0e:	5d                   	pop    %rbp
  405e0f:	c3                   	retq   

0000000000405e10 <_ZN2cl7ContextC1ERKS0_>:
  405e10:	55                   	push   %rbp
  405e11:	48 89 e5             	mov    %rsp,%rbp
  405e14:	48 83 ec 10          	sub    $0x10,%rsp
  405e18:	48 89 7d f8          	mov    %rdi,-0x8(%rbp)
  405e1c:	48 89 75 f0          	mov    %rsi,-0x10(%rbp)
  405e20:	48 8b 55 f0          	mov    -0x10(%rbp),%rdx
  405e24:	48 8b 45 f8          	mov    -0x8(%rbp),%rax
  405e28:	48 89 d6             	mov    %rdx,%rsi
  405e2b:	48 89 c7             	mov    %rax,%rdi
  405e2e:	e8 37 1e 00 00       	callq  407c6a <_ZN2cl6detail7WrapperIP11_cl_contextEC1ERKS4_>
  405e33:	90                   	nop
  405e34:	c9                   	leaveq 
  405e35:	c3                   	retq   

0000000000405e36 <_ZSt4moveIRN2cl7ContextEEONSt16remove_referenceIT_E4typeEOS4_>:
  405e36:	55                   	push   %rbp
  405e37:	48 89 e5             	mov    %rsp,%rbp
  405e3a:	48 89 7d f8          	mov    %rdi,-0x8(%rbp)
  405e3e:	48 8b 45 f8          	mov    -0x8(%rbp),%rax
  405e42:	5d                   	pop    %rbp
  405e43:	c3                   	retq   

0000000000405e44 <_ZN2cl7ContextaSEOS0_>:
  405e44:	55                   	push   %rbp
  405e45:	48 89 e5             	mov    %rsp,%rbp
  405e48:	48 83 ec 10          	sub    $0x10,%rsp
  405e4c:	48 89 7d f8          	mov    %rdi,-0x8(%rbp)
  405e50:	48 89 75 f0          	mov    %rsi,-0x10(%rbp)
  405e54:	48 8b 45 f0          	mov    -0x10(%rbp),%rax
  405e58:	48 89 c7             	mov    %rax,%rdi
  405e5b:	e8 d6 ff ff ff       	callq  405e36 <_ZSt4moveIRN2cl7ContextEEONSt16remove_referenceIT_E4typeEOS4_>
  405e60:	48 89 c2             	mov    %rax,%rdx
  405e63:	48 8b 45 f8          	mov    -0x8(%rbp),%rax
  405e67:	48 89 d6             	mov    %rdx,%rsi
  405e6a:	48 89 c7             	mov    %rax,%rdi
  405e6d:	e8 32 1e 00 00       	callq  407ca4 <_ZN2cl6detail7WrapperIP11_cl_contextEaSEOS4_>
  405e72:	48 8b 45 f8          	mov    -0x8(%rbp),%rax
  405e76:	c9                   	leaveq 
  405e77:	c3                   	retq   

0000000000405e78 <_ZN2cl7Context10getDefaultEPi>:
  405e78:	55                   	push   %rbp
  405e79:	48 89 e5             	mov    %rsp,%rbp
  405e7c:	48 83 ec 10          	sub    $0x10,%rsp
  405e80:	48 89 7d f8          	mov    %rdi,-0x8(%rbp)
  405e84:	48 89 75 f0          	mov    %rsi,-0x10(%rbp)
  405e88:	be 43 59 40 00       	mov    $0x405943,%esi
  405e8d:	bf 14 37 61 00       	mov    $0x613714,%edi
  405e92:	e8 ae 16 00 00       	callq  407545 <_ZSt9call_onceIRFvvEIEEvRSt9once_flagOT_DpOT0_>
  405e97:	8b 05 83 d8 20 00    	mov    0x20d883(%rip),%eax        # 613720 <_ZN2cl7Context14default_error_E>
  405e9d:	be 00 00 00 00       	mov    $0x0,%esi
  405ea2:	89 c7                	mov    %eax,%edi
  405ea4:	e8 44 e4 ff ff       	callq  4042ed <_ZN2cl6detailL10errHandlerEiPKc>
  405ea9:	48 83 7d f0 00       	cmpq   $0x0,-0x10(%rbp)
  405eae:	74 0c                	je     405ebc <_ZN2cl7Context10getDefaultEPi+0x44>
  405eb0:	8b 15 6a d8 20 00    	mov    0x20d86a(%rip),%edx        # 613720 <_ZN2cl7Context14default_error_E>
  405eb6:	48 8b 45 f0          	mov    -0x10(%rbp),%rax
  405eba:	89 10                	mov    %edx,(%rax)
  405ebc:	48 8b 45 f8          	mov    -0x8(%rbp),%rax
  405ec0:	be 18 37 61 00       	mov    $0x613718,%esi
  405ec5:	48 89 c7             	mov    %rax,%rdi
  405ec8:	e8 43 ff ff ff       	callq  405e10 <_ZN2cl7ContextC1ERKS0_>
  405ecd:	48 8b 45 f8          	mov    -0x8(%rbp),%rax
  405ed1:	c9                   	leaveq 
  405ed2:	c3                   	retq   
  405ed3:	90                   	nop

0000000000405ed4 <_ZN2cl7ContextC1Ev>:
  405ed4:	55                   	push   %rbp
  405ed5:	48 89 e5             	mov    %rsp,%rbp
  405ed8:	48 83 ec 10          	sub    $0x10,%rsp
  405edc:	48 89 7d f8          	mov    %rdi,-0x8(%rbp)
  405ee0:	48 8b 45 f8          	mov    -0x8(%rbp),%rax
  405ee4:	48 89 c7             	mov    %rax,%rdi
  405ee7:	e8 4e 1c 00 00       	callq  407b3a <_ZN2cl6detail7WrapperIP11_cl_contextEC1Ev>
  405eec:	90                   	nop
  405eed:	c9                   	leaveq 
  405eee:	c3                   	retq   
  405eef:	90                   	nop

0000000000405ef0 <_ZN2cl6Device11makeDefaultEv>:
  405ef0:	55                   	push   %rbp
  405ef1:	48 89 e5             	mov    %rsp,%rbp
  405ef4:	41 54                	push   %r12
  405ef6:	53                   	push   %rbx
  405ef7:	48 83 ec 40          	sub    $0x40,%rsp
  405efb:	64 48 8b 04 25 28 00 	mov    %fs:0x28,%rax
  405f02:	00 00 
  405f04:	48 89 45 e8          	mov    %rax,-0x18(%rbp)
  405f08:	31 c0                	xor    %eax,%eax
  405f0a:	c7 45 bc 00 00 00 00 	movl   $0x0,-0x44(%rbp)
  405f11:	48 8d 45 c0          	lea    -0x40(%rbp),%rax
  405f15:	48 8d 55 bc          	lea    -0x44(%rbp),%rdx
  405f19:	48 89 d6             	mov    %rdx,%rsi
  405f1c:	48 89 c7             	mov    %rax,%rdi
  405f1f:	e8 54 ff ff ff       	callq  405e78 <_ZN2cl7Context10getDefaultEPi>
  405f24:	8b 45 bc             	mov    -0x44(%rbp),%eax
  405f27:	be e9 c6 40 00       	mov    $0x40c6e9,%esi
  405f2c:	89 c7                	mov    %eax,%edi
  405f2e:	e8 ba e3 ff ff       	callq  4042ed <_ZN2cl6detailL10errHandlerEiPKc>
  405f33:	8b 45 bc             	mov    -0x44(%rbp),%eax
  405f36:	85 c0                	test   %eax,%eax
  405f38:	74 0b                	je     405f45 <_ZN2cl6Device11makeDefaultEv+0x55>
  405f3a:	8b 45 bc             	mov    -0x44(%rbp),%eax
  405f3d:	89 05 bd d7 20 00    	mov    %eax,0x20d7bd(%rip)        # 613700 <_ZN2cl6Device14default_error_E>
  405f43:	eb 4c                	jmp    405f91 <_ZN2cl6Device11makeDefaultEv+0xa1>
  405f45:	48 8d 45 d0          	lea    -0x30(%rbp),%rax
  405f49:	48 8d 4d c0          	lea    -0x40(%rbp),%rcx
  405f4d:	ba 00 00 00 00       	mov    $0x0,%edx
  405f52:	48 89 ce             	mov    %rcx,%rsi
  405f55:	48 89 c7             	mov    %rax,%rdi
  405f58:	e8 99 1d 00 00       	callq  407cf6 <_ZNK2cl7Context7getInfoILi4225EEENS_6detail12param_traitsINS2_15cl_context_infoEXT_EE10param_typeEPi>
  405f5d:	48 8d 45 d0          	lea    -0x30(%rbp),%rax
  405f61:	be 00 00 00 00       	mov    $0x0,%esi
  405f66:	48 89 c7             	mov    %rax,%rdi
  405f69:	e8 5c 1a 00 00       	callq  4079ca <_ZNSt6vectorIN2cl6DeviceESaIS1_EEixEm>
  405f6e:	48 89 c6             	mov    %rax,%rsi
  405f71:	bf f0 36 61 00       	mov    $0x6136f0,%edi
  405f76:	e8 ef f1 ff ff       	callq  40516a <_ZN2cl6DeviceaSERKS0_>
  405f7b:	48 8d 45 d0          	lea    -0x30(%rbp),%rax
  405f7f:	48 89 c7             	mov    %rax,%rdi
  405f82:	e8 91 1c 00 00       	callq  407c18 <_ZNSt6vectorIN2cl6DeviceESaIS1_EED1Ev>
  405f87:	c7 05 6f d7 20 00 00 	movl   $0x0,0x20d76f(%rip)        # 613700 <_ZN2cl6Device14default_error_E>
  405f8e:	00 00 00 
  405f91:	48 8d 45 c0          	lea    -0x40(%rbp),%rax
  405f95:	48 89 c7             	mov    %rax,%rdi
  405f98:	e8 8b f9 ff ff       	callq  405928 <_ZN2cl7ContextD1Ev>
  405f9d:	eb 5f                	jmp    405ffe <_ZN2cl6Device11makeDefaultEv+0x10e>
  405f9f:	49 89 c4             	mov    %rax,%r12
  405fa2:	48 89 d3             	mov    %rdx,%rbx
  405fa5:	48 8d 45 d0          	lea    -0x30(%rbp),%rax
  405fa9:	48 89 c7             	mov    %rax,%rdi
  405fac:	e8 67 1c 00 00       	callq  407c18 <_ZNSt6vectorIN2cl6DeviceESaIS1_EED1Ev>
  405fb1:	eb 06                	jmp    405fb9 <_ZN2cl6Device11makeDefaultEv+0xc9>
  405fb3:	49 89 c4             	mov    %rax,%r12
  405fb6:	48 89 d3             	mov    %rdx,%rbx
  405fb9:	48 8d 45 c0          	lea    -0x40(%rbp),%rax
  405fbd:	48 89 c7             	mov    %rax,%rdi
  405fc0:	e8 63 f9 ff ff       	callq  405928 <_ZN2cl7ContextD1Ev>
  405fc5:	4c 89 e0             	mov    %r12,%rax
  405fc8:	48 89 da             	mov    %rbx,%rdx
  405fcb:	eb 00                	jmp    405fcd <_ZN2cl6Device11makeDefaultEv+0xdd>
  405fcd:	48 83 fa 01          	cmp    $0x1,%rdx
  405fd1:	74 08                	je     405fdb <_ZN2cl6Device11makeDefaultEv+0xeb>
  405fd3:	48 89 c7             	mov    %rax,%rdi
  405fd6:	e8 95 e0 ff ff       	callq  404070 <_Unwind_Resume@plt>
  405fdb:	48 89 c7             	mov    %rax,%rdi
  405fde:	e8 1d dd ff ff       	callq  403d00 <__cxa_begin_catch@plt>
  405fe3:	48 89 45 c8          	mov    %rax,-0x38(%rbp)
  405fe7:	48 8b 45 c8          	mov    -0x38(%rbp),%rax
  405feb:	48 89 c7             	mov    %rax,%rdi
  405fee:	e8 b5 ec ff ff       	callq  404ca8 <_ZNK2cl5Error3errEv>
  405ff3:	89 05 07 d7 20 00    	mov    %eax,0x20d707(%rip)        # 613700 <_ZN2cl6Device14default_error_E>
  405ff9:	e8 c2 df ff ff       	callq  403fc0 <__cxa_end_catch@plt>
  405ffe:	90                   	nop
  405fff:	48 8b 45 e8          	mov    -0x18(%rbp),%rax
  406003:	64 48 33 04 25 28 00 	xor    %fs:0x28,%rax
  40600a:	00 00 
  40600c:	74 05                	je     406013 <_ZN2cl6Device11makeDefaultEv+0x123>
  40600e:	e8 3d de ff ff       	callq  403e50 <__stack_chk_fail@plt>
  406013:	48 83 c4 40          	add    $0x40,%rsp
  406017:	5b                   	pop    %rbx
  406018:	41 5c                	pop    %r12
  40601a:	5d                   	pop    %rbp
  40601b:	c3                   	retq   

000000000040601c <_ZN2cl7NDRangeC1Ev>:
  40601c:	55                   	push   %rbp
  40601d:	48 89 e5             	mov    %rsp,%rbp
  406020:	48 89 7d f8          	mov    %rdi,-0x8(%rbp)
  406024:	48 8b 45 f8          	mov    -0x8(%rbp),%rax
  406028:	c7 40 18 00 00 00 00 	movl   $0x0,0x18(%rax)
  40602f:	48 8b 45 f8          	mov    -0x8(%rbp),%rax
  406033:	48 c7 00 00 00 00 00 	movq   $0x0,(%rax)
  40603a:	48 8b 45 f8          	mov    -0x8(%rbp),%rax
  40603e:	48 c7 40 08 00 00 00 	movq   $0x0,0x8(%rax)
  406045:	00 
  406046:	48 8b 45 f8          	mov    -0x8(%rbp),%rax
  40604a:	48 c7 40 10 00 00 00 	movq   $0x0,0x10(%rax)
  406051:	00 
  406052:	90                   	nop
  406053:	5d                   	pop    %rbp
  406054:	c3                   	retq   
  406055:	90                   	nop

0000000000406056 <_ZN2cl7NDRangeC1Emm>:
  406056:	55                   	push   %rbp
  406057:	48 89 e5             	mov    %rsp,%rbp
  40605a:	48 89 7d f8          	mov    %rdi,-0x8(%rbp)
  40605e:	48 89 75 f0          	mov    %rsi,-0x10(%rbp)
  406062:	48 89 55 e8          	mov    %rdx,-0x18(%rbp)
  406066:	48 8b 45 f8          	mov    -0x8(%rbp),%rax
  40606a:	c7 40 18 02 00 00 00 	movl   $0x2,0x18(%rax)
  406071:	48 8b 45 f8          	mov    -0x8(%rbp),%rax
  406075:	48 8b 55 f0          	mov    -0x10(%rbp),%rdx
  406079:	48 89 10             	mov    %rdx,(%rax)
  40607c:	48 8b 45 f8          	mov    -0x8(%rbp),%rax
  406080:	48 8b 55 e8          	mov    -0x18(%rbp),%rdx
  406084:	48 89 50 08          	mov    %rdx,0x8(%rax)
  406088:	48 8b 45 f8          	mov    -0x8(%rbp),%rax
  40608c:	48 c7 40 10 01 00 00 	movq   $0x1,0x10(%rax)
  406093:	00 
  406094:	90                   	nop
  406095:	5d                   	pop    %rbp
  406096:	c3                   	retq   
  406097:	90                   	nop

0000000000406098 <_ZN2cl6KernelD1Ev>:
  406098:	55                   	push   %rbp
  406099:	48 89 e5             	mov    %rsp,%rbp
  40609c:	48 83 ec 10          	sub    $0x10,%rsp
  4060a0:	48 89 7d f8          	mov    %rdi,-0x8(%rbp)
  4060a4:	48 8b 45 f8          	mov    -0x8(%rbp),%rax
  4060a8:	48 89 c7             	mov    %rax,%rdi
  4060ab:	e8 e8 1c 00 00       	callq  407d98 <_ZN2cl6detail7WrapperIP10_cl_kernelED1Ev>
  4060b0:	90                   	nop
  4060b1:	c9                   	leaveq 
  4060b2:	c3                   	retq   
  4060b3:	90                   	nop

00000000004060b4 <_ZN2cl12CommandQueueD1Ev>:
  4060b4:	55                   	push   %rbp
  4060b5:	48 89 e5             	mov    %rsp,%rbp
  4060b8:	48 83 ec 10          	sub    $0x10,%rsp
  4060bc:	48 89 7d f8          	mov    %rdi,-0x8(%rbp)
  4060c0:	48 8b 45 f8          	mov    -0x8(%rbp),%rax
  4060c4:	48 89 c7             	mov    %rax,%rdi
  4060c7:	e8 f4 1c 00 00       	callq  407dc0 <_ZN2cl6detail7WrapperIP17_cl_command_queueED1Ev>
  4060cc:	90                   	nop
  4060cd:	c9                   	leaveq 
  4060ce:	c3                   	retq   

00000000004060cf <_ZN2cl12CommandQueue11makeDefaultEv>:
  4060cf:	55                   	push   %rbp
  4060d0:	48 89 e5             	mov    %rsp,%rbp
  4060d3:	41 54                	push   %r12
  4060d5:	53                   	push   %rbx
  4060d6:	48 83 ec 50          	sub    $0x50,%rsp
  4060da:	64 48 8b 04 25 28 00 	mov    %fs:0x28,%rax
  4060e1:	00 00 
  4060e3:	48 89 45 e8          	mov    %rax,-0x18(%rbp)
  4060e7:	31 c0                	xor    %eax,%eax
  4060e9:	48 8d 45 b0          	lea    -0x50(%rbp),%rax
  4060ed:	48 8d 55 ac          	lea    -0x54(%rbp),%rdx
  4060f1:	48 89 d6             	mov    %rdx,%rsi
  4060f4:	48 89 c7             	mov    %rax,%rdi
  4060f7:	e8 7c fd ff ff       	callq  405e78 <_ZN2cl7Context10getDefaultEPi>
  4060fc:	8b 45 ac             	mov    -0x54(%rbp),%eax
  4060ff:	85 c0                	test   %eax,%eax
  406101:	74 0b                	je     40610e <_ZN2cl12CommandQueue11makeDefaultEv+0x3f>
  406103:	8b 45 ac             	mov    -0x54(%rbp),%eax
  406106:	89 05 24 d6 20 00    	mov    %eax,0x20d624(%rip)        # 613730 <_ZN2cl12CommandQueue14default_error_E>
  40610c:	eb 59                	jmp    406167 <_ZN2cl12CommandQueue11makeDefaultEv+0x98>
  40610e:	48 8d 45 d0          	lea    -0x30(%rbp),%rax
  406112:	be 00 00 00 00       	mov    $0x0,%esi
  406117:	48 89 c7             	mov    %rax,%rdi
  40611a:	e8 ca ef ff ff       	callq  4050e9 <_ZN2cl6Device10getDefaultEPi>
  40611f:	48 8d 55 d0          	lea    -0x30(%rbp),%rdx
  406123:	48 8d 75 b0          	lea    -0x50(%rbp),%rsi
  406127:	48 8d 45 c0          	lea    -0x40(%rbp),%rax
  40612b:	41 b8 30 37 61 00    	mov    $0x613730,%r8d
  406131:	b9 00 00 00 00       	mov    $0x0,%ecx
  406136:	48 89 c7             	mov    %rax,%rdi
  406139:	e8 c8 00 00 00       	callq  406206 <_ZN2cl12CommandQueueC1ERKNS_7ContextERKNS_6DeviceEmPi>
  40613e:	48 8d 45 c0          	lea    -0x40(%rbp),%rax
  406142:	48 89 c6             	mov    %rax,%rsi
  406145:	bf 28 37 61 00       	mov    $0x613728,%edi
  40614a:	e8 2d 02 00 00       	callq  40637c <_ZN2cl12CommandQueueaSEOS0_>
  40614f:	48 8d 45 c0          	lea    -0x40(%rbp),%rax
  406153:	48 89 c7             	mov    %rax,%rdi
  406156:	e8 59 ff ff ff       	callq  4060b4 <_ZN2cl12CommandQueueD1Ev>
  40615b:	48 8d 45 d0          	lea    -0x30(%rbp),%rax
  40615f:	48 89 c7             	mov    %rax,%rdi
  406162:	e8 67 ef ff ff       	callq  4050ce <_ZN2cl6DeviceD1Ev>
  406167:	48 8d 45 b0          	lea    -0x50(%rbp),%rax
  40616b:	48 89 c7             	mov    %rax,%rdi
  40616e:	e8 b5 f7 ff ff       	callq  405928 <_ZN2cl7ContextD1Ev>
  406173:	eb 73                	jmp    4061e8 <_ZN2cl12CommandQueue11makeDefaultEv+0x119>
  406175:	49 89 c4             	mov    %rax,%r12
  406178:	48 89 d3             	mov    %rdx,%rbx
  40617b:	48 8d 45 c0          	lea    -0x40(%rbp),%rax
  40617f:	48 89 c7             	mov    %rax,%rdi
  406182:	e8 2d ff ff ff       	callq  4060b4 <_ZN2cl12CommandQueueD1Ev>
  406187:	eb 06                	jmp    40618f <_ZN2cl12CommandQueue11makeDefaultEv+0xc0>
  406189:	49 89 c4             	mov    %rax,%r12
  40618c:	48 89 d3             	mov    %rdx,%rbx
  40618f:	48 8d 45 d0          	lea    -0x30(%rbp),%rax
  406193:	48 89 c7             	mov    %rax,%rdi
  406196:	e8 33 ef ff ff       	callq  4050ce <_ZN2cl6DeviceD1Ev>
  40619b:	eb 06                	jmp    4061a3 <_ZN2cl12CommandQueue11makeDefaultEv+0xd4>
  40619d:	49 89 c4             	mov    %rax,%r12
  4061a0:	48 89 d3             	mov    %rdx,%rbx
  4061a3:	48 8d 45 b0          	lea    -0x50(%rbp),%rax
  4061a7:	48 89 c7             	mov    %rax,%rdi
  4061aa:	e8 79 f7 ff ff       	callq  405928 <_ZN2cl7ContextD1Ev>
  4061af:	4c 89 e0             	mov    %r12,%rax
  4061b2:	48 89 da             	mov    %rbx,%rdx
  4061b5:	eb 00                	jmp    4061b7 <_ZN2cl12CommandQueue11makeDefaultEv+0xe8>
  4061b7:	48 83 fa 01          	cmp    $0x1,%rdx
  4061bb:	74 08                	je     4061c5 <_ZN2cl12CommandQueue11makeDefaultEv+0xf6>
  4061bd:	48 89 c7             	mov    %rax,%rdi
  4061c0:	e8 ab de ff ff       	callq  404070 <_Unwind_Resume@plt>
  4061c5:	48 89 c7             	mov    %rax,%rdi
  4061c8:	e8 33 db ff ff       	callq  403d00 <__cxa_begin_catch@plt>
  4061cd:	48 89 45 c8          	mov    %rax,-0x38(%rbp)
  4061d1:	48 8b 45 c8          	mov    -0x38(%rbp),%rax
  4061d5:	48 89 c7             	mov    %rax,%rdi
  4061d8:	e8 cb ea ff ff       	callq  404ca8 <_ZNK2cl5Error3errEv>
  4061dd:	89 05 4d d5 20 00    	mov    %eax,0x20d54d(%rip)        # 613730 <_ZN2cl12CommandQueue14default_error_E>
  4061e3:	e8 d8 dd ff ff       	callq  403fc0 <__cxa_end_catch@plt>
  4061e8:	90                   	nop
  4061e9:	48 8b 45 e8          	mov    -0x18(%rbp),%rax
  4061ed:	64 48 33 04 25 28 00 	xor    %fs:0x28,%rax
  4061f4:	00 00 
  4061f6:	74 05                	je     4061fd <_ZN2cl12CommandQueue11makeDefaultEv+0x12e>
  4061f8:	e8 53 dc ff ff       	callq  403e50 <__stack_chk_fail@plt>
  4061fd:	48 83 c4 50          	add    $0x50,%rsp
  406201:	5b                   	pop    %rbx
  406202:	41 5c                	pop    %r12
  406204:	5d                   	pop    %rbp
  406205:	c3                   	retq   

0000000000406206 <_ZN2cl12CommandQueueC1ERKNS_7ContextERKNS_6DeviceEmPi>:
  406206:	55                   	push   %rbp
  406207:	48 89 e5             	mov    %rsp,%rbp
  40620a:	53                   	push   %rbx
  40620b:	48 83 ec 48          	sub    $0x48,%rsp
  40620f:	48 89 7d d8          	mov    %rdi,-0x28(%rbp)
  406213:	48 89 75 d0          	mov    %rsi,-0x30(%rbp)
  406217:	48 89 55 c8          	mov    %rdx,-0x38(%rbp)
  40621b:	48 89 4d c0          	mov    %rcx,-0x40(%rbp)
  40621f:	4c 89 45 b8          	mov    %r8,-0x48(%rbp)
  406223:	64 48 8b 04 25 28 00 	mov    %fs:0x28,%rax
  40622a:	00 00 
  40622c:	48 89 45 e8          	mov    %rax,-0x18(%rbp)
  406230:	31 c0                	xor    %eax,%eax
  406232:	48 8b 45 d8          	mov    -0x28(%rbp),%rax
  406236:	48 89 c7             	mov    %rax,%rdi
  406239:	e8 aa 1b 00 00       	callq  407de8 <_ZN2cl6detail7WrapperIP17_cl_command_queueEC1Ev>
  40623e:	48 8b 45 c8          	mov    -0x38(%rbp),%rax
  406242:	48 89 c7             	mov    %rax,%rdi
  406245:	e8 b2 ed ff ff       	callq  404ffc <_ZNK2cl6detail7WrapperIP13_cl_device_idEclEv>
  40624a:	48 8b 18             	mov    (%rax),%rbx
  40624d:	48 8b 45 d0          	mov    -0x30(%rbp),%rax
  406251:	48 89 c7             	mov    %rax,%rdi
  406254:	e8 31 1b 00 00       	callq  407d8a <_ZNK2cl6detail7WrapperIP11_cl_contextEclEv>
  406259:	48 8b 00             	mov    (%rax),%rax
  40625c:	48 8d 4d e4          	lea    -0x1c(%rbp),%rcx
  406260:	48 8b 55 c0          	mov    -0x40(%rbp),%rdx
  406264:	48 89 de             	mov    %rbx,%rsi
  406267:	48 89 c7             	mov    %rax,%rdi
  40626a:	e8 b1 dd ff ff       	callq  404020 <clCreateCommandQueue@plt>
  40626f:	48 89 c2             	mov    %rax,%rdx
  406272:	48 8b 45 d8          	mov    -0x28(%rbp),%rax
  406276:	48 89 10             	mov    %rdx,(%rax)
  406279:	8b 45 e4             	mov    -0x1c(%rbp),%eax
  40627c:	be f9 c6 40 00       	mov    $0x40c6f9,%esi
  406281:	89 c7                	mov    %eax,%edi
  406283:	e8 65 e0 ff ff       	callq  4042ed <_ZN2cl6detailL10errHandlerEiPKc>
  406288:	48 83 7d b8 00       	cmpq   $0x0,-0x48(%rbp)
  40628d:	74 25                	je     4062b4 <_ZN2cl12CommandQueueC1ERKNS_7ContextERKNS_6DeviceEmPi+0xae>
  40628f:	8b 55 e4             	mov    -0x1c(%rbp),%edx
  406292:	48 8b 45 b8          	mov    -0x48(%rbp),%rax
  406296:	89 10                	mov    %edx,(%rax)
  406298:	eb 1a                	jmp    4062b4 <_ZN2cl12CommandQueueC1ERKNS_7ContextERKNS_6DeviceEmPi+0xae>
  40629a:	48 89 c3             	mov    %rax,%rbx
  40629d:	48 8b 45 d8          	mov    -0x28(%rbp),%rax
  4062a1:	48 89 c7             	mov    %rax,%rdi
  4062a4:	e8 17 1b 00 00       	callq  407dc0 <_ZN2cl6detail7WrapperIP17_cl_command_queueED1Ev>
  4062a9:	48 89 d8             	mov    %rbx,%rax
  4062ac:	48 89 c7             	mov    %rax,%rdi
  4062af:	e8 bc dd ff ff       	callq  404070 <_Unwind_Resume@plt>
  4062b4:	90                   	nop
  4062b5:	48 8b 45 e8          	mov    -0x18(%rbp),%rax
  4062b9:	64 48 33 04 25 28 00 	xor    %fs:0x28,%rax
  4062c0:	00 00 
  4062c2:	74 05                	je     4062c9 <_ZN2cl12CommandQueueC1ERKNS_7ContextERKNS_6DeviceEmPi+0xc3>
  4062c4:	e8 87 db ff ff       	callq  403e50 <__stack_chk_fail@plt>
  4062c9:	48 83 c4 48          	add    $0x48,%rsp
  4062cd:	5b                   	pop    %rbx
  4062ce:	5d                   	pop    %rbp
  4062cf:	c3                   	retq   

00000000004062d0 <_ZN2cl12CommandQueue10getDefaultEPi>:
  4062d0:	55                   	push   %rbp
  4062d1:	48 89 e5             	mov    %rsp,%rbp
  4062d4:	48 83 ec 10          	sub    $0x10,%rsp
  4062d8:	48 89 7d f8          	mov    %rdi,-0x8(%rbp)
  4062dc:	48 89 75 f0          	mov    %rsi,-0x10(%rbp)
  4062e0:	be cf 60 40 00       	mov    $0x4060cf,%esi
  4062e5:	bf 24 37 61 00       	mov    $0x613724,%edi
  4062ea:	e8 56 12 00 00       	callq  407545 <_ZSt9call_onceIRFvvEIEEvRSt9once_flagOT_DpOT0_>
  4062ef:	8b 05 3b d4 20 00    	mov    0x20d43b(%rip),%eax        # 613730 <_ZN2cl12CommandQueue14default_error_E>
  4062f5:	be f9 c6 40 00       	mov    $0x40c6f9,%esi
  4062fa:	89 c7                	mov    %eax,%edi
  4062fc:	e8 ec df ff ff       	callq  4042ed <_ZN2cl6detailL10errHandlerEiPKc>
  406301:	48 83 7d f0 00       	cmpq   $0x0,-0x10(%rbp)
  406306:	74 0c                	je     406314 <_ZN2cl12CommandQueue10getDefaultEPi+0x44>
  406308:	8b 15 22 d4 20 00    	mov    0x20d422(%rip),%edx        # 613730 <_ZN2cl12CommandQueue14default_error_E>
  40630e:	48 8b 45 f0          	mov    -0x10(%rbp),%rax
  406312:	89 10                	mov    %edx,(%rax)
  406314:	48 8b 45 f8          	mov    -0x8(%rbp),%rax
  406318:	be 28 37 61 00       	mov    $0x613728,%esi
  40631d:	48 89 c7             	mov    %rax,%rdi
  406320:	e8 23 00 00 00       	callq  406348 <_ZN2cl12CommandQueueC1ERKS0_>
  406325:	48 8b 45 f8          	mov    -0x8(%rbp),%rax
  406329:	c9                   	leaveq 
  40632a:	c3                   	retq   
  40632b:	90                   	nop

000000000040632c <_ZN2cl12CommandQueueC1Ev>:
  40632c:	55                   	push   %rbp
  40632d:	48 89 e5             	mov    %rsp,%rbp
  406330:	48 83 ec 10          	sub    $0x10,%rsp
  406334:	48 89 7d f8          	mov    %rdi,-0x8(%rbp)
  406338:	48 8b 45 f8          	mov    -0x8(%rbp),%rax
  40633c:	48 89 c7             	mov    %rax,%rdi
  40633f:	e8 a4 1a 00 00       	callq  407de8 <_ZN2cl6detail7WrapperIP17_cl_command_queueEC1Ev>
  406344:	90                   	nop
  406345:	c9                   	leaveq 
  406346:	c3                   	retq   
  406347:	90                   	nop

0000000000406348 <_ZN2cl12CommandQueueC1ERKS0_>:
  406348:	55                   	push   %rbp
  406349:	48 89 e5             	mov    %rsp,%rbp
  40634c:	48 83 ec 10          	sub    $0x10,%rsp
  406350:	48 89 7d f8          	mov    %rdi,-0x8(%rbp)
  406354:	48 89 75 f0          	mov    %rsi,-0x10(%rbp)
  406358:	48 8b 55 f0          	mov    -0x10(%rbp),%rdx
  40635c:	48 8b 45 f8          	mov    -0x8(%rbp),%rax
  406360:	48 89 d6             	mov    %rdx,%rsi
  406363:	48 89 c7             	mov    %rax,%rdi
  406366:	e8 cd 1a 00 00       	callq  407e38 <_ZN2cl6detail7WrapperIP17_cl_command_queueEC1ERKS4_>
  40636b:	90                   	nop
  40636c:	c9                   	leaveq 
  40636d:	c3                   	retq   

000000000040636e <_ZSt4moveIRN2cl12CommandQueueEEONSt16remove_referenceIT_E4typeEOS4_>:
  40636e:	55                   	push   %rbp
  40636f:	48 89 e5             	mov    %rsp,%rbp
  406372:	48 89 7d f8          	mov    %rdi,-0x8(%rbp)
  406376:	48 8b 45 f8          	mov    -0x8(%rbp),%rax
  40637a:	5d                   	pop    %rbp
  40637b:	c3                   	retq   

000000000040637c <_ZN2cl12CommandQueueaSEOS0_>:
  40637c:	55                   	push   %rbp
  40637d:	48 89 e5             	mov    %rsp,%rbp
  406380:	48 83 ec 10          	sub    $0x10,%rsp
  406384:	48 89 7d f8          	mov    %rdi,-0x8(%rbp)
  406388:	48 89 75 f0          	mov    %rsi,-0x10(%rbp)
  40638c:	48 8b 45 f0          	mov    -0x10(%rbp),%rax
  406390:	48 89 c7             	mov    %rax,%rdi
  406393:	e8 d6 ff ff ff       	callq  40636e <_ZSt4moveIRN2cl12CommandQueueEEONSt16remove_referenceIT_E4typeEOS4_>
  406398:	48 89 c2             	mov    %rax,%rdx
  40639b:	48 8b 45 f8          	mov    -0x8(%rbp),%rax
  40639f:	48 89 d6             	mov    %rdx,%rsi
  4063a2:	48 89 c7             	mov    %rax,%rdi
  4063a5:	e8 c8 1a 00 00       	callq  407e72 <_ZN2cl6detail7WrapperIP17_cl_command_queueEaSEOS4_>
  4063aa:	48 8b 45 f8          	mov    -0x8(%rbp),%rax
  4063ae:	c9                   	leaveq 
  4063af:	c3                   	retq   

00000000004063b0 <_ZNK2cl12CommandQueue6finishEv>:
  4063b0:	55                   	push   %rbp
  4063b1:	48 89 e5             	mov    %rsp,%rbp
  4063b4:	48 83 ec 10          	sub    $0x10,%rsp
  4063b8:	48 89 7d f8          	mov    %rdi,-0x8(%rbp)
  4063bc:	48 8b 45 f8          	mov    -0x8(%rbp),%rax
  4063c0:	48 8b 00             	mov    (%rax),%rax
  4063c3:	48 89 c7             	mov    %rax,%rdi
  4063c6:	e8 d5 d8 ff ff       	callq  403ca0 <clFinish@plt>
  4063cb:	be 0e c7 40 00       	mov    $0x40c70e,%esi
  4063d0:	89 c7                	mov    %eax,%edi
  4063d2:	e8 16 df ff ff       	callq  4042ed <_ZN2cl6detailL10errHandlerEiPKc>
  4063d7:	c9                   	leaveq 
  4063d8:	c3                   	retq   

00000000004063d9 <_ZSt4moveIRNSt7__cxx1112basic_stringIcSt11char_traitsIcESaIcEEEEONSt16remove_referenceIT_E4typeEOS8_>:
  4063d9:	55                   	push   %rbp
  4063da:	48 89 e5             	mov    %rsp,%rbp
  4063dd:	48 89 7d f8          	mov    %rdi,-0x8(%rbp)
  4063e1:	48 8b 45 f8          	mov    -0x8(%rbp),%rax
  4063e5:	5d                   	pop    %rbp
  4063e6:	c3                   	retq   
  4063e7:	90                   	nop

00000000004063e8 <_ZN11arm_compute15CLKernelLibrary4initENSt7__cxx1112basic_stringIcSt11char_traitsIcESaIcEEEN2cl7ContextENS7_6DeviceE>:
  4063e8:	55                   	push   %rbp
  4063e9:	48 89 e5             	mov    %rsp,%rbp
  4063ec:	48 83 ec 20          	sub    $0x20,%rsp
  4063f0:	48 89 7d f8          	mov    %rdi,-0x8(%rbp)
  4063f4:	48 89 75 f0          	mov    %rsi,-0x10(%rbp)
  4063f8:	48 89 55 e8          	mov    %rdx,-0x18(%rbp)
  4063fc:	48 89 4d e0          	mov    %rcx,-0x20(%rbp)
  406400:	48 8b 45 f0          	mov    -0x10(%rbp),%rax
  406404:	48 89 c7             	mov    %rax,%rdi
  406407:	e8 cd ff ff ff       	callq  4063d9 <_ZSt4moveIRNSt7__cxx1112basic_stringIcSt11char_traitsIcESaIcEEEEONSt16remove_referenceIT_E4typeEOS8_>
  40640c:	48 89 c2             	mov    %rax,%rdx
  40640f:	48 8b 45 f8          	mov    -0x8(%rbp),%rax
  406413:	48 83 c0 18          	add    $0x18,%rax
  406417:	48 89 d6             	mov    %rdx,%rsi
  40641a:	48 89 c7             	mov    %rax,%rdi
  40641d:	e8 8e da ff ff       	callq  403eb0 <_ZNSt7__cxx1112basic_stringIcSt11char_traitsIcESaIcEEaSEOS4_@plt>
  406422:	48 8b 45 e8          	mov    -0x18(%rbp),%rax
  406426:	48 89 c7             	mov    %rax,%rdi
  406429:	e8 08 fa ff ff       	callq  405e36 <_ZSt4moveIRN2cl7ContextEEONSt16remove_referenceIT_E4typeEOS4_>
  40642e:	48 89 c2             	mov    %rax,%rdx
  406431:	48 8b 45 f8          	mov    -0x8(%rbp),%rax
  406435:	48 89 d6             	mov    %rdx,%rsi
  406438:	48 89 c7             	mov    %rax,%rdi
  40643b:	e8 04 fa ff ff       	callq  405e44 <_ZN2cl7ContextaSEOS0_>
  406440:	48 8b 45 e0          	mov    -0x20(%rbp),%rax
  406444:	48 89 c7             	mov    %rax,%rdi
  406447:	e8 47 ed ff ff       	callq  405193 <_ZSt4moveIRN2cl6DeviceEEONSt16remove_referenceIT_E4typeEOS4_>
  40644c:	48 89 c2             	mov    %rax,%rdx
  40644f:	48 8b 45 f8          	mov    -0x8(%rbp),%rax
  406453:	48 83 c0 08          	add    $0x8,%rax
  406457:	48 89 d6             	mov    %rdx,%rsi
  40645a:	48 89 c7             	mov    %rax,%rdi
  40645d:	e8 72 ed ff ff       	callq  4051d4 <_ZN2cl6DeviceaSEOS0_>
  406462:	48 8b 45 f8          	mov    -0x8(%rbp),%rax
  406466:	48 c7 80 98 00 00 00 	movq   $0x0,0x98(%rax)
  40646d:	00 00 00 00 
  406471:	48 8b 45 f8          	mov    -0x8(%rbp),%rax
  406475:	48 89 c7             	mov    %rax,%rdi
  406478:	e8 a3 d9 ff ff       	callq  403e20 <_ZN11arm_compute15CLKernelLibrary24max_local_workgroup_sizeEv@plt>
  40647d:	90                   	nop
  40647e:	c9                   	leaveq 
  40647f:	c3                   	retq   

0000000000406480 <_ZN11arm_compute15CLKernelLibrary15set_kernel_pathERKNSt7__cxx1112basic_stringIcSt11char_traitsIcESaIcEEE>:
  406480:	55                   	push   %rbp
  406481:	48 89 e5             	mov    %rsp,%rbp
  406484:	48 83 ec 10          	sub    $0x10,%rsp
  406488:	48 89 7d f8          	mov    %rdi,-0x8(%rbp)
  40648c:	48 89 75 f0          	mov    %rsi,-0x10(%rbp)
  406490:	48 8b 45 f8          	mov    -0x8(%rbp),%rax
  406494:	48 8d 50 18          	lea    0x18(%rax),%rdx
  406498:	48 8b 45 f0          	mov    -0x10(%rbp),%rax
  40649c:	48 89 c6             	mov    %rax,%rsi
  40649f:	48 89 d7             	mov    %rdx,%rdi
  4064a2:	e8 99 d7 ff ff       	callq  403c40 <_ZNSt7__cxx1112basic_stringIcSt11char_traitsIcESaIcEEaSERKS4_@plt>
  4064a7:	90                   	nop
  4064a8:	c9                   	leaveq 
  4064a9:	c3                   	retq   

00000000004064aa <_ZN11arm_compute11TensorShape3setEmm>:
  4064aa:	55                   	push   %rbp
  4064ab:	48 89 e5             	mov    %rsp,%rbp
  4064ae:	53                   	push   %rbx
  4064af:	48 83 ec 38          	sub    $0x38,%rsp
  4064b3:	48 89 7d d8          	mov    %rdi,-0x28(%rbp)
  4064b7:	48 89 75 d0          	mov    %rsi,-0x30(%rbp)
  4064bb:	48 89 55 c8          	mov    %rdx,-0x38(%rbp)
  4064bf:	64 48 8b 04 25 28 00 	mov    %fs:0x28,%rax
  4064c6:	00 00 
  4064c8:	48 89 45 e8          	mov    %rax,-0x18(%rbp)
  4064cc:	31 c0                	xor    %eax,%eax
  4064ce:	48 83 7d c8 00       	cmpq   $0x0,-0x38(%rbp)
  4064d3:	75 45                	jne    40651a <_ZN11arm_compute11TensorShape3setEmm+0x70>
  4064d5:	48 8b 45 d8          	mov    -0x28(%rbp),%rax
  4064d9:	48 c7 40 30 00 00 00 	movq   $0x0,0x30(%rax)
  4064e0:	00 
  4064e1:	c7 45 e4 00 00 00 00 	movl   $0x0,-0x1c(%rbp)
  4064e8:	48 8b 45 d8          	mov    -0x28(%rbp),%rax
  4064ec:	48 89 c7             	mov    %rax,%rdi
  4064ef:	e8 ea 19 00 00       	callq  407ede <_ZNSt5arrayImLm6EE3endEv>
  4064f4:	48 89 c3             	mov    %rax,%rbx
  4064f7:	48 8b 45 d8          	mov    -0x28(%rbp),%rax
  4064fb:	48 89 c7             	mov    %rax,%rdi
  4064fe:	e8 c1 19 00 00       	callq  407ec4 <_ZNSt5arrayImLm6EE5beginEv>
  406503:	48 89 c1             	mov    %rax,%rcx
  406506:	48 8d 45 e4          	lea    -0x1c(%rbp),%rax
  40650a:	48 89 c2             	mov    %rax,%rdx
  40650d:	48 89 de             	mov    %rbx,%rsi
  406510:	48 89 cf             	mov    %rcx,%rdi
  406513:	e8 57 0f 00 00       	callq  40746f <_ZSt4fillIPmiEvT_S1_RKT0_>
  406518:	eb 6a                	jmp    406584 <_ZN11arm_compute11TensorShape3setEmm+0xda>
  40651a:	c7 45 e4 01 00 00 00 	movl   $0x1,-0x1c(%rbp)
  406521:	48 8b 45 d8          	mov    -0x28(%rbp),%rax
  406525:	48 89 c7             	mov    %rax,%rdi
  406528:	e8 b1 19 00 00       	callq  407ede <_ZNSt5arrayImLm6EE3endEv>
  40652d:	48 89 c3             	mov    %rax,%rbx
  406530:	48 8b 45 d8          	mov    -0x28(%rbp),%rax
  406534:	48 89 c7             	mov    %rax,%rdi
  406537:	e8 88 19 00 00       	callq  407ec4 <_ZNSt5arrayImLm6EE5beginEv>
  40653c:	48 89 c2             	mov    %rax,%rdx
  40653f:	48 8b 45 d8          	mov    -0x28(%rbp),%rax
  406543:	48 8b 40 30          	mov    0x30(%rax),%rax
  406547:	48 c1 e0 03          	shl    $0x3,%rax
  40654b:	48 8d 0c 02          	lea    (%rdx,%rax,1),%rcx
  40654f:	48 8d 45 e4          	lea    -0x1c(%rbp),%rax
  406553:	48 89 c2             	mov    %rax,%rdx
  406556:	48 89 de             	mov    %rbx,%rsi
  406559:	48 89 cf             	mov    %rcx,%rdi
  40655c:	e8 0e 0f 00 00       	callq  40746f <_ZSt4fillIPmiEvT_S1_RKT0_>
  406561:	48 8b 45 d8          	mov    -0x28(%rbp),%rax
  406565:	48 8b 55 c8          	mov    -0x38(%rbp),%rdx
  406569:	48 8b 4d d0          	mov    -0x30(%rbp),%rcx
  40656d:	48 89 ce             	mov    %rcx,%rsi
  406570:	48 89 c7             	mov    %rax,%rdi
  406573:	e8 84 19 00 00       	callq  407efc <_ZN11arm_compute10DimensionsImE3setEmm>
  406578:	48 8b 45 d8          	mov    -0x28(%rbp),%rax
  40657c:	48 89 c7             	mov    %rax,%rdi
  40657f:	e8 1c 00 00 00       	callq  4065a0 <_ZN11arm_compute11TensorShape26apply_dimension_correctionEv>
  406584:	48 8b 45 e8          	mov    -0x18(%rbp),%rax
  406588:	64 48 33 04 25 28 00 	xor    %fs:0x28,%rax
  40658f:	00 00 
  406591:	74 05                	je     406598 <_ZN11arm_compute11TensorShape3setEmm+0xee>
  406593:	e8 b8 d8 ff ff       	callq  403e50 <__stack_chk_fail@plt>
  406598:	48 83 c4 38          	add    $0x38,%rsp
  40659c:	5b                   	pop    %rbx
  40659d:	5d                   	pop    %rbp
  40659e:	c3                   	retq   
  40659f:	90                   	nop

00000000004065a0 <_ZN11arm_compute11TensorShape26apply_dimension_correctionEv>:
  4065a0:	55                   	push   %rbp
  4065a1:	48 89 e5             	mov    %rsp,%rbp
  4065a4:	48 83 ec 20          	sub    $0x20,%rsp
  4065a8:	48 89 7d e8          	mov    %rdi,-0x18(%rbp)
  4065ac:	48 8b 45 e8          	mov    -0x18(%rbp),%rax
  4065b0:	48 8b 40 30          	mov    0x30(%rax),%rax
  4065b4:	83 e8 01             	sub    $0x1,%eax
  4065b7:	89 45 fc             	mov    %eax,-0x4(%rbp)
  4065ba:	83 7d fc 00          	cmpl   $0x0,-0x4(%rbp)
  4065be:	78 3e                	js     4065fe <_ZN11arm_compute11TensorShape26apply_dimension_correctionEv+0x5e>
  4065c0:	8b 45 fc             	mov    -0x4(%rbp),%eax
  4065c3:	48 63 d0             	movslq %eax,%rdx
  4065c6:	48 8b 45 e8          	mov    -0x18(%rbp),%rax
  4065ca:	48 89 d6             	mov    %rdx,%rsi
  4065cd:	48 89 c7             	mov    %rax,%rdi
  4065d0:	e8 cd 19 00 00       	callq  407fa2 <_ZNSt5arrayImLm6EEixEm>
  4065d5:	48 8b 00             	mov    (%rax),%rax
  4065d8:	48 83 f8 01          	cmp    $0x1,%rax
  4065dc:	0f 94 c0             	sete   %al
  4065df:	84 c0                	test   %al,%al
  4065e1:	74 1a                	je     4065fd <_ZN11arm_compute11TensorShape26apply_dimension_correctionEv+0x5d>
  4065e3:	48 8b 45 e8          	mov    -0x18(%rbp),%rax
  4065e7:	48 8b 40 30          	mov    0x30(%rax),%rax
  4065eb:	48 8d 50 ff          	lea    -0x1(%rax),%rdx
  4065ef:	48 8b 45 e8          	mov    -0x18(%rbp),%rax
  4065f3:	48 89 50 30          	mov    %rdx,0x30(%rax)
  4065f7:	83 6d fc 01          	subl   $0x1,-0x4(%rbp)
  4065fb:	eb bd                	jmp    4065ba <_ZN11arm_compute11TensorShape26apply_dimension_correctionEv+0x1a>
  4065fd:	90                   	nop
  4065fe:	90                   	nop
  4065ff:	c9                   	leaveq 
  406600:	c3                   	retq   
  406601:	90                   	nop

0000000000406602 <_ZN11arm_compute11CoordinatesC1IIEEEDpT_>:
  406602:	55                   	push   %rbp
  406603:	48 89 e5             	mov    %rsp,%rbp
  406606:	48 83 ec 10          	sub    $0x10,%rsp
  40660a:	48 89 7d f8          	mov    %rdi,-0x8(%rbp)
  40660e:	48 8b 45 f8          	mov    -0x8(%rbp),%rax
  406612:	48 89 c7             	mov    %rax,%rdi
  406615:	e8 ae 19 00 00       	callq  407fc8 <_ZN11arm_compute10DimensionsIiEC1IIEEEDpT_>
  40661a:	90                   	nop
  40661b:	c9                   	leaveq 
  40661c:	c3                   	retq   
  40661d:	90                   	nop

000000000040661e <_ZN11arm_compute6Window9DimensionC1Eiii>:
  40661e:	55                   	push   %rbp
  40661f:	48 89 e5             	mov    %rsp,%rbp
  406622:	48 89 7d f8          	mov    %rdi,-0x8(%rbp)
  406626:	89 75 f4             	mov    %esi,-0xc(%rbp)
  406629:	89 55 f0             	mov    %edx,-0x10(%rbp)
  40662c:	89 4d ec             	mov    %ecx,-0x14(%rbp)
  40662f:	48 8b 45 f8          	mov    -0x8(%rbp),%rax
  406633:	8b 55 f4             	mov    -0xc(%rbp),%edx
  406636:	89 10                	mov    %edx,(%rax)
  406638:	48 8b 45 f8          	mov    -0x8(%rbp),%rax
  40663c:	8b 55 f0             	mov    -0x10(%rbp),%edx
  40663f:	89 50 04             	mov    %edx,0x4(%rax)
  406642:	48 8b 45 f8          	mov    -0x8(%rbp),%rax
  406646:	8b 55 ec             	mov    -0x14(%rbp),%edx
  406649:	89 50 08             	mov    %edx,0x8(%rax)
  40664c:	90                   	nop
  40664d:	5d                   	pop    %rbp
  40664e:	c3                   	retq   
  40664f:	90                   	nop

0000000000406650 <_ZNK11arm_compute6Window9Dimension5startEv>:
  406650:	55                   	push   %rbp
  406651:	48 89 e5             	mov    %rsp,%rbp
  406654:	48 89 7d f8          	mov    %rdi,-0x8(%rbp)
  406658:	48 8b 45 f8          	mov    -0x8(%rbp),%rax
  40665c:	8b 00                	mov    (%rax),%eax
  40665e:	5d                   	pop    %rbp
  40665f:	c3                   	retq   

0000000000406660 <_ZNK11arm_compute6Window9Dimension3endEv>:
  406660:	55                   	push   %rbp
  406661:	48 89 e5             	mov    %rsp,%rbp
  406664:	48 89 7d f8          	mov    %rdi,-0x8(%rbp)
  406668:	48 8b 45 f8          	mov    -0x8(%rbp),%rax
  40666c:	8b 40 04             	mov    0x4(%rax),%eax
  40666f:	5d                   	pop    %rbp
  406670:	c3                   	retq   
  406671:	90                   	nop

0000000000406672 <_ZNK11arm_compute6Window9Dimension4stepEv>:
  406672:	55                   	push   %rbp
  406673:	48 89 e5             	mov    %rsp,%rbp
  406676:	48 89 7d f8          	mov    %rdi,-0x8(%rbp)
  40667a:	48 8b 45 f8          	mov    -0x8(%rbp),%rax
  40667e:	8b 40 08             	mov    0x8(%rax),%eax
  406681:	5d                   	pop    %rbp
  406682:	c3                   	retq   

0000000000406683 <_ZNSt14__array_traitsIN11arm_compute6Window9DimensionELm6EE6_S_refERA6_KS2_m>:
  406683:	55                   	push   %rbp
  406684:	48 89 e5             	mov    %rsp,%rbp
  406687:	48 89 7d f8          	mov    %rdi,-0x8(%rbp)
  40668b:	48 89 75 f0          	mov    %rsi,-0x10(%rbp)
  40668f:	48 8b 55 f0          	mov    -0x10(%rbp),%rdx
  406693:	48 89 d0             	mov    %rdx,%rax
  406696:	48 01 c0             	add    %rax,%rax
  406699:	48 01 d0             	add    %rdx,%rax
  40669c:	48 c1 e0 02          	shl    $0x2,%rax
  4066a0:	48 8b 55 f8          	mov    -0x8(%rbp),%rdx
  4066a4:	48 01 d0             	add    %rdx,%rax
  4066a7:	5d                   	pop    %rbp
  4066a8:	c3                   	retq   
  4066a9:	90                   	nop

00000000004066aa <_ZNKSt5arrayIN11arm_compute6Window9DimensionELm6EE2atEm>:
  4066aa:	55                   	push   %rbp
  4066ab:	48 89 e5             	mov    %rsp,%rbp
  4066ae:	48 83 ec 10          	sub    $0x10,%rsp
  4066b2:	48 89 7d f8          	mov    %rdi,-0x8(%rbp)
  4066b6:	48 89 75 f0          	mov    %rsi,-0x10(%rbp)
  4066ba:	48 83 7d f0 05       	cmpq   $0x5,-0x10(%rbp)
  4066bf:	77 15                	ja     4066d6 <_ZNKSt5arrayIN11arm_compute6Window9DimensionELm6EE2atEm+0x2c>
  4066c1:	48 8b 45 f8          	mov    -0x8(%rbp),%rax
  4066c5:	48 8b 55 f0          	mov    -0x10(%rbp),%rdx
  4066c9:	48 89 d6             	mov    %rdx,%rsi
  4066cc:	48 89 c7             	mov    %rax,%rdi
  4066cf:	e8 af ff ff ff       	callq  406683 <_ZNSt14__array_traitsIN11arm_compute6Window9DimensionELm6EE6_S_refERA6_KS2_m>
  4066d4:	eb 1b                	jmp    4066f1 <_ZNKSt5arrayIN11arm_compute6Window9DimensionELm6EE2atEm+0x47>
  4066d6:	48 8b 45 f0          	mov    -0x10(%rbp),%rax
  4066da:	ba 06 00 00 00       	mov    $0x6,%edx
  4066df:	48 89 c6             	mov    %rax,%rsi
  4066e2:	bf 30 c7 40 00       	mov    $0x40c730,%edi
  4066e7:	b8 00 00 00 00       	mov    $0x0,%eax
  4066ec:	e8 6f d8 ff ff       	callq  403f60 <_ZSt24__throw_out_of_range_fmtPKcz@plt>
  4066f1:	c9                   	leaveq 
  4066f2:	c3                   	retq   
  4066f3:	90                   	nop

00000000004066f4 <_ZNK11arm_compute6WindowixEm>:
  4066f4:	55                   	push   %rbp
  4066f5:	48 89 e5             	mov    %rsp,%rbp
  4066f8:	48 83 ec 10          	sub    $0x10,%rsp
  4066fc:	48 89 7d f8          	mov    %rdi,-0x8(%rbp)
  406700:	48 89 75 f0          	mov    %rsi,-0x10(%rbp)
  406704:	48 8b 45 f8          	mov    -0x8(%rbp),%rax
  406708:	48 8b 55 f0          	mov    -0x10(%rbp),%rdx
  40670c:	48 89 d6             	mov    %rdx,%rsi
  40670f:	48 89 c7             	mov    %rax,%rdi
  406712:	e8 93 ff ff ff       	callq  4066aa <_ZNKSt5arrayIN11arm_compute6Window9DimensionELm6EE2atEm>
  406717:	c9                   	leaveq 
  406718:	c3                   	retq   
  406719:	90                   	nop

000000000040671a <_ZN11arm_compute6Window3setEmRKNS0_9DimensionE>:
  40671a:	55                   	push   %rbp
  40671b:	48 89 e5             	mov    %rsp,%rbp
  40671e:	48 83 ec 20          	sub    $0x20,%rsp
  406722:	48 89 7d f8          	mov    %rdi,-0x8(%rbp)
  406726:	48 89 75 f0          	mov    %rsi,-0x10(%rbp)
  40672a:	48 89 55 e8          	mov    %rdx,-0x18(%rbp)
  40672e:	48 8b 45 f8          	mov    -0x8(%rbp),%rax
  406732:	48 8b 55 f0          	mov    -0x10(%rbp),%rdx
  406736:	48 89 d6             	mov    %rdx,%rsi
  406739:	48 89 c7             	mov    %rax,%rdi
  40673c:	e8 f3 19 00 00       	callq  408134 <_ZNSt5arrayIN11arm_compute6Window9DimensionELm6EEixEm>
  406741:	48 89 c2             	mov    %rax,%rdx
  406744:	48 8b 45 e8          	mov    -0x18(%rbp),%rax
  406748:	48 8b 08             	mov    (%rax),%rcx
  40674b:	48 89 0a             	mov    %rcx,(%rdx)
  40674e:	8b 40 08             	mov    0x8(%rax),%eax
  406751:	89 42 08             	mov    %eax,0x8(%rdx)
  406754:	90                   	nop
  406755:	c9                   	leaveq 
  406756:	c3                   	retq   
  406757:	90                   	nop

0000000000406758 <_ZNK11arm_compute6Window8validateEv>:
  406758:	55                   	push   %rbp
  406759:	48 89 e5             	mov    %rsp,%rbp
  40675c:	48 89 7d e8          	mov    %rdi,-0x18(%rbp)
  406760:	48 c7 45 f8 00 00 00 	movq   $0x0,-0x8(%rbp)
  406767:	00 
  406768:	48 83 7d f8 05       	cmpq   $0x5,-0x8(%rbp)
  40676d:	77 07                	ja     406776 <_ZNK11arm_compute6Window8validateEv+0x1e>
  40676f:	48 83 45 f8 01       	addq   $0x1,-0x8(%rbp)
  406774:	eb f2                	jmp    406768 <_ZNK11arm_compute6Window8validateEv+0x10>
  406776:	90                   	nop
  406777:	5d                   	pop    %rbp
  406778:	c3                   	retq   
  406779:	90                   	nop

000000000040677a <_ZN11arm_compute6Window21use_tensor_dimensionsERKNS_11TensorShapeEm>:
  40677a:	55                   	push   %rbp
  40677b:	48 89 e5             	mov    %rsp,%rbp
  40677e:	48 83 ec 60          	sub    $0x60,%rsp
  406782:	48 89 7d b8          	mov    %rdi,-0x48(%rbp)
  406786:	48 89 75 b0          	mov    %rsi,-0x50(%rbp)
  40678a:	48 89 55 a8          	mov    %rdx,-0x58(%rbp)
  40678e:	64 48 8b 04 25 28 00 	mov    %fs:0x28,%rax
  406795:	00 00 
  406797:	48 89 45 f8          	mov    %rax,-0x8(%rbp)
  40679b:	31 c0                	xor    %eax,%eax
  40679d:	48 8b 45 a8          	mov    -0x58(%rbp),%rax
  4067a1:	89 45 cc             	mov    %eax,-0x34(%rbp)
  4067a4:	48 8b 45 b0          	mov    -0x50(%rbp),%rax
  4067a8:	48 89 c7             	mov    %rax,%rdi
  4067ab:	e8 aa 19 00 00       	callq  40815a <_ZNK11arm_compute10DimensionsImE14num_dimensionsEv>
  4067b0:	3b 45 cc             	cmp    -0x34(%rbp),%eax
  4067b3:	0f 97 c0             	seta   %al
  4067b6:	84 c0                	test   %al,%al
  4067b8:	74 68                	je     406822 <_ZN11arm_compute6Window21use_tensor_dimensionsERKNS_11TensorShapeEm+0xa8>
  4067ba:	48 c7 45 d8 01 00 00 	movq   $0x1,-0x28(%rbp)
  4067c1:	00 
  4067c2:	8b 55 cc             	mov    -0x34(%rbp),%edx
  4067c5:	48 8b 45 b0          	mov    -0x50(%rbp),%rax
  4067c9:	48 89 d6             	mov    %rdx,%rsi
  4067cc:	48 89 c7             	mov    %rax,%rdi
  4067cf:	e8 38 19 00 00       	callq  40810c <_ZNK11arm_compute10DimensionsImEixEm>
  4067d4:	48 89 45 d0          	mov    %rax,-0x30(%rbp)
  4067d8:	48 8d 55 d8          	lea    -0x28(%rbp),%rdx
  4067dc:	48 8d 45 d0          	lea    -0x30(%rbp),%rax
  4067e0:	48 89 d6             	mov    %rdx,%rsi
  4067e3:	48 89 c7             	mov    %rax,%rdi
  4067e6:	e8 81 19 00 00       	callq  40816c <_ZSt3maxImERKT_S2_S2_>
  4067eb:	48 8b 00             	mov    (%rax),%rax
  4067ee:	89 c2                	mov    %eax,%edx
  4067f0:	48 8d 45 e0          	lea    -0x20(%rbp),%rax
  4067f4:	b9 01 00 00 00       	mov    $0x1,%ecx
  4067f9:	be 00 00 00 00       	mov    $0x0,%esi
  4067fe:	48 89 c7             	mov    %rax,%rdi
  406801:	e8 18 fe ff ff       	callq  40661e <_ZN11arm_compute6Window9DimensionC1Eiii>
  406806:	8b 4d cc             	mov    -0x34(%rbp),%ecx
  406809:	48 8d 55 e0          	lea    -0x20(%rbp),%rdx
  40680d:	48 8b 45 b8          	mov    -0x48(%rbp),%rax
  406811:	48 89 ce             	mov    %rcx,%rsi
  406814:	48 89 c7             	mov    %rax,%rdi
  406817:	e8 fe fe ff ff       	callq  40671a <_ZN11arm_compute6Window3setEmRKNS0_9DimensionE>
  40681c:	83 45 cc 01          	addl   $0x1,-0x34(%rbp)
  406820:	eb 82                	jmp    4067a4 <_ZN11arm_compute6Window21use_tensor_dimensionsERKNS_11TensorShapeEm+0x2a>
  406822:	90                   	nop
  406823:	48 8b 45 f8          	mov    -0x8(%rbp),%rax
  406827:	64 48 33 04 25 28 00 	xor    %fs:0x28,%rax
  40682e:	00 00 
  406830:	74 05                	je     406837 <_ZN11arm_compute6Window21use_tensor_dimensionsERKNS_11TensorShapeEm+0xbd>
  406832:	e8 19 d6 ff ff       	callq  403e50 <__stack_chk_fail@plt>
  406837:	c9                   	leaveq 
  406838:	c3                   	retq   
  406839:	90                   	nop

000000000040683a <_ZNK11arm_compute10TensorInfo9dimensionEm>:
  40683a:	55                   	push   %rbp
  40683b:	48 89 e5             	mov    %rsp,%rbp
  40683e:	48 83 ec 10          	sub    $0x10,%rsp
  406842:	48 89 7d f8          	mov    %rdi,-0x8(%rbp)
  406846:	48 89 75 f0          	mov    %rsi,-0x10(%rbp)
  40684a:	48 8b 45 f8          	mov    -0x8(%rbp),%rax
  40684e:	48 8d 50 60          	lea    0x60(%rax),%rdx
  406852:	48 8b 45 f0          	mov    -0x10(%rbp),%rax
  406856:	48 89 c6             	mov    %rax,%rsi
  406859:	48 89 d7             	mov    %rdx,%rdi
  40685c:	e8 ab 18 00 00       	callq  40810c <_ZNK11arm_compute10DimensionsImEixEm>
  406861:	c9                   	leaveq 
  406862:	c3                   	retq   
  406863:	90                   	nop

0000000000406864 <_ZNK11arm_compute10TensorInfo14num_dimensionsEv>:
  406864:	55                   	push   %rbp
  406865:	48 89 e5             	mov    %rsp,%rbp
  406868:	48 83 ec 10          	sub    $0x10,%rsp
  40686c:	48 89 7d f8          	mov    %rdi,-0x8(%rbp)
  406870:	48 8b 45 f8          	mov    -0x8(%rbp),%rax
  406874:	48 83 c0 60          	add    $0x60,%rax
  406878:	48 89 c7             	mov    %rax,%rdi
  40687b:	e8 da 18 00 00       	callq  40815a <_ZNK11arm_compute10DimensionsImE14num_dimensionsEv>
  406880:	89 c0                	mov    %eax,%eax
  406882:	c9                   	leaveq 
  406883:	c3                   	retq   

0000000000406884 <_ZNSt5arrayIN11arm_compute8Iterator9DimensionELm6EEC1Ev>:
  406884:	55                   	push   %rbp
  406885:	48 89 e5             	mov    %rsp,%rbp
  406888:	48 89 7d f8          	mov    %rdi,-0x8(%rbp)
  40688c:	48 8b 45 f8          	mov    -0x8(%rbp),%rax
  406890:	b9 30 00 00 00       	mov    $0x30,%ecx
  406895:	be 00 00 00 00       	mov    $0x0,%esi
  40689a:	48 89 30             	mov    %rsi,(%rax)
  40689d:	89 ca                	mov    %ecx,%edx
  40689f:	48 01 c2             	add    %rax,%rdx
  4068a2:	48 83 c2 08          	add    $0x8,%rdx
  4068a6:	48 89 72 f0          	mov    %rsi,-0x10(%rdx)
  4068aa:	48 8d 50 08          	lea    0x8(%rax),%rdx
  4068ae:	48 83 e2 f8          	and    $0xfffffffffffffff8,%rdx
  4068b2:	48 29 d0             	sub    %rdx,%rax
  4068b5:	01 c1                	add    %eax,%ecx
  4068b7:	83 e1 f8             	and    $0xfffffff8,%ecx
  4068ba:	89 c8                	mov    %ecx,%eax
  4068bc:	c1 e8 03             	shr    $0x3,%eax
  4068bf:	89 c1                	mov    %eax,%ecx
  4068c1:	48 89 d7             	mov    %rdx,%rdi
  4068c4:	48 89 f0             	mov    %rsi,%rax
  4068c7:	f3 48 ab             	rep stos %rax,%es:(%rdi)
  4068ca:	90                   	nop
  4068cb:	5d                   	pop    %rbp
  4068cc:	c3                   	retq   
  4068cd:	90                   	nop

00000000004068ce <_ZN11arm_compute8IteratorC1Ev>:
  4068ce:	55                   	push   %rbp
  4068cf:	48 89 e5             	mov    %rsp,%rbp
  4068d2:	48 83 ec 10          	sub    $0x10,%rsp
  4068d6:	48 89 7d f8          	mov    %rdi,-0x8(%rbp)
  4068da:	48 8b 45 f8          	mov    -0x8(%rbp),%rax
  4068de:	48 c7 00 00 00 00 00 	movq   $0x0,(%rax)
  4068e5:	48 8b 45 f8          	mov    -0x8(%rbp),%rax
  4068e9:	48 8d 50 08          	lea    0x8(%rax),%rdx
  4068ed:	b8 00 00 00 00       	mov    $0x0,%eax
  4068f2:	b9 06 00 00 00       	mov    $0x6,%ecx
  4068f7:	48 89 d7             	mov    %rdx,%rdi
  4068fa:	f3 48 ab             	rep stos %rax,%es:(%rdi)
  4068fd:	48 8b 45 f8          	mov    -0x8(%rbp),%rax
  406901:	48 83 c0 08          	add    $0x8,%rax
  406905:	48 89 c7             	mov    %rax,%rdi
  406908:	e8 77 ff ff ff       	callq  406884 <_ZNSt5arrayIN11arm_compute8Iterator9DimensionELm6EEC1Ev>
  40690d:	90                   	nop
  40690e:	c9                   	leaveq 
  40690f:	c3                   	retq   

0000000000406910 <_ZNSt14__array_traitsIN11arm_compute8Iterator9DimensionELm6EE6_S_refERA6_KS2_m>:
  406910:	55                   	push   %rbp
  406911:	48 89 e5             	mov    %rsp,%rbp
  406914:	48 89 7d f8          	mov    %rdi,-0x8(%rbp)
  406918:	48 89 75 f0          	mov    %rsi,-0x10(%rbp)
  40691c:	48 8b 45 f0          	mov    -0x10(%rbp),%rax
  406920:	48 8d 14 c5 00 00 00 	lea    0x0(,%rax,8),%rdx
  406927:	00 
  406928:	48 8b 45 f8          	mov    -0x8(%rbp),%rax
  40692c:	48 01 d0             	add    %rdx,%rax
  40692f:	5d                   	pop    %rbp
  406930:	c3                   	retq   

0000000000406931 <_ZSt3getILm0EN11arm_compute8Iterator9DimensionELm6EERT0_RSt5arrayIS3_XT1_EE>:
  406931:	55                   	push   %rbp
  406932:	48 89 e5             	mov    %rsp,%rbp
  406935:	48 83 ec 10          	sub    $0x10,%rsp
  406939:	48 89 7d f8          	mov    %rdi,-0x8(%rbp)
  40693d:	48 8b 45 f8          	mov    -0x8(%rbp),%rax
  406941:	be 00 00 00 00       	mov    $0x0,%esi
  406946:	48 89 c7             	mov    %rax,%rdi
  406949:	e8 c2 ff ff ff       	callq  406910 <_ZNSt14__array_traitsIN11arm_compute8Iterator9DimensionELm6EE6_S_refERA6_KS2_m>
  40694e:	c9                   	leaveq 
  40694f:	c3                   	retq   

0000000000406950 <_ZN11arm_compute8IteratorC1EPKNS_7ITensorERKNS_6WindowE>:
  406950:	55                   	push   %rbp
  406951:	48 89 e5             	mov    %rsp,%rbp
  406954:	41 54                	push   %r12
  406956:	53                   	push   %rbx
  406957:	48 83 ec 40          	sub    $0x40,%rsp
  40695b:	48 89 7d c8          	mov    %rdi,-0x38(%rbp)
  40695f:	48 89 75 c0          	mov    %rsi,-0x40(%rbp)
  406963:	48 89 55 b8          	mov    %rdx,-0x48(%rbp)
  406967:	48 8b 45 c8          	mov    -0x38(%rbp),%rax
  40696b:	48 89 c7             	mov    %rax,%rdi
  40696e:	e8 5b ff ff ff       	callq  4068ce <_ZN11arm_compute8IteratorC1Ev>
  406973:	48 8b 45 c0          	mov    -0x40(%rbp),%rax
  406977:	48 8b 00             	mov    (%rax),%rax
  40697a:	48 8b 00             	mov    (%rax),%rax
  40697d:	48 8b 55 c0          	mov    -0x40(%rbp),%rdx
  406981:	48 89 d7             	mov    %rdx,%rdi
  406984:	ff d0                	callq  *%rax
  406986:	48 89 45 e0          	mov    %rax,-0x20(%rbp)
  40698a:	48 8b 45 e0          	mov    -0x20(%rbp),%rax
  40698e:	48 8b 00             	mov    (%rax),%rax
  406991:	48 83 c0 50          	add    $0x50,%rax
  406995:	48 8b 00             	mov    (%rax),%rax
  406998:	48 8b 55 e0          	mov    -0x20(%rbp),%rdx
  40699c:	48 89 d7             	mov    %rdx,%rdi
  40699f:	ff d0                	callq  *%rax
  4069a1:	48 89 45 e8          	mov    %rax,-0x18(%rbp)
  4069a5:	48 8b 45 c0          	mov    -0x40(%rbp),%rax
  4069a9:	48 8b 00             	mov    (%rax),%rax
  4069ac:	48 83 c0 20          	add    $0x20,%rax
  4069b0:	48 8b 00             	mov    (%rax),%rax
  4069b3:	48 8b 55 c0          	mov    -0x40(%rbp),%rdx
  4069b7:	48 89 d7             	mov    %rdx,%rdi
  4069ba:	ff d0                	callq  *%rax
  4069bc:	48 89 c3             	mov    %rax,%rbx
  4069bf:	48 8b 45 e0          	mov    -0x20(%rbp),%rax
  4069c3:	48 8b 00             	mov    (%rax),%rax
  4069c6:	48 83 c0 58          	add    $0x58,%rax
  4069ca:	48 8b 00             	mov    (%rax),%rax
  4069cd:	48 8b 55 e0          	mov    -0x20(%rbp),%rdx
  4069d1:	48 89 d7             	mov    %rdx,%rdi
  4069d4:	ff d0                	callq  *%rax
  4069d6:	48 8d 14 03          	lea    (%rbx,%rax,1),%rdx
  4069da:	48 8b 45 c8          	mov    -0x38(%rbp),%rax
  4069de:	48 89 10             	mov    %rdx,(%rax)
  4069e1:	c7 45 d8 00 00 00 00 	movl   $0x0,-0x28(%rbp)
  4069e8:	8b 5d d8             	mov    -0x28(%rbp),%ebx
  4069eb:	48 8b 45 e0          	mov    -0x20(%rbp),%rax
  4069ef:	48 8b 00             	mov    (%rax),%rax
  4069f2:	48 83 c0 78          	add    $0x78,%rax
  4069f6:	48 8b 00             	mov    (%rax),%rax
  4069f9:	48 8b 55 e0          	mov    -0x20(%rbp),%rdx
  4069fd:	48 89 d7             	mov    %rdx,%rdi
  406a00:	ff d0                	callq  *%rax
  406a02:	48 39 c3             	cmp    %rax,%rbx
  406a05:	0f 92 c0             	setb   %al
  406a08:	84 c0                	test   %al,%al
  406a0a:	0f 84 a9 00 00 00    	je     406ab9 <_ZN11arm_compute8IteratorC1EPKNS_7ITensorERKNS_6WindowE+0x169>
  406a10:	8b 45 d8             	mov    -0x28(%rbp),%eax
  406a13:	48 8b 55 c8          	mov    -0x38(%rbp),%rdx
  406a17:	48 83 c2 08          	add    $0x8,%rdx
  406a1b:	48 89 c6             	mov    %rax,%rsi
  406a1e:	48 89 d7             	mov    %rdx,%rdi
  406a21:	e8 72 17 00 00       	callq  408198 <_ZNSt5arrayIN11arm_compute8Iterator9DimensionELm6EEixEm>
  406a26:	48 89 c3             	mov    %rax,%rbx
  406a29:	8b 55 d8             	mov    -0x28(%rbp),%edx
  406a2c:	48 8b 45 b8          	mov    -0x48(%rbp),%rax
  406a30:	48 89 d6             	mov    %rdx,%rsi
  406a33:	48 89 c7             	mov    %rax,%rdi
  406a36:	e8 b9 fc ff ff       	callq  4066f4 <_ZNK11arm_compute6WindowixEm>
  406a3b:	48 89 c7             	mov    %rax,%rdi
  406a3e:	e8 2f fc ff ff       	callq  406672 <_ZNK11arm_compute6Window9Dimension4stepEv>
  406a43:	48 98                	cltq   
  406a45:	41 89 c4             	mov    %eax,%r12d
  406a48:	8b 55 d8             	mov    -0x28(%rbp),%edx
  406a4b:	48 8b 45 e8          	mov    -0x18(%rbp),%rax
  406a4f:	48 89 d6             	mov    %rdx,%rsi
  406a52:	48 89 c7             	mov    %rax,%rdi
  406a55:	e8 b2 16 00 00       	callq  40810c <_ZNK11arm_compute10DimensionsImEixEm>
  406a5a:	41 0f af c4          	imul   %r12d,%eax
  406a5e:	89 43 04             	mov    %eax,0x4(%rbx)
  406a61:	8b 55 d8             	mov    -0x28(%rbp),%edx
  406a64:	48 8b 45 e8          	mov    -0x18(%rbp),%rax
  406a68:	48 89 d6             	mov    %rdx,%rsi
  406a6b:	48 89 c7             	mov    %rax,%rdi
  406a6e:	e8 99 16 00 00       	callq  40810c <_ZNK11arm_compute10DimensionsImEixEm>
  406a73:	48 89 c3             	mov    %rax,%rbx
  406a76:	8b 55 d8             	mov    -0x28(%rbp),%edx
  406a79:	48 8b 45 b8          	mov    -0x48(%rbp),%rax
  406a7d:	48 89 d6             	mov    %rdx,%rsi
  406a80:	48 89 c7             	mov    %rax,%rdi
  406a83:	e8 6c fc ff ff       	callq  4066f4 <_ZNK11arm_compute6WindowixEm>
  406a88:	48 89 c7             	mov    %rax,%rdi
  406a8b:	e8 c0 fb ff ff       	callq  406650 <_ZNK11arm_compute6Window9Dimension5startEv>
  406a90:	48 98                	cltq   
  406a92:	48 0f af d8          	imul   %rax,%rbx
  406a96:	48 8b 45 c8          	mov    -0x38(%rbp),%rax
  406a9a:	48 83 c0 08          	add    $0x8,%rax
  406a9e:	48 89 c7             	mov    %rax,%rdi
  406aa1:	e8 8b fe ff ff       	callq  406931 <_ZSt3getILm0EN11arm_compute8Iterator9DimensionELm6EERT0_RSt5arrayIS3_XT1_EE>
  406aa6:	8b 10                	mov    (%rax),%edx
  406aa8:	89 d1                	mov    %edx,%ecx
  406aaa:	89 da                	mov    %ebx,%edx
  406aac:	01 ca                	add    %ecx,%edx
  406aae:	89 10                	mov    %edx,(%rax)
  406ab0:	83 45 d8 01          	addl   $0x1,-0x28(%rbp)
  406ab4:	e9 2f ff ff ff       	jmpq   4069e8 <_ZN11arm_compute8IteratorC1EPKNS_7ITensorERKNS_6WindowE+0x98>
  406ab9:	c7 45 dc 01 00 00 00 	movl   $0x1,-0x24(%rbp)
  406ac0:	83 7d dc 05          	cmpl   $0x5,-0x24(%rbp)
  406ac4:	77 33                	ja     406af9 <_ZN11arm_compute8IteratorC1EPKNS_7ITensorERKNS_6WindowE+0x1a9>
  406ac6:	8b 45 dc             	mov    -0x24(%rbp),%eax
  406ac9:	48 8b 55 c8          	mov    -0x38(%rbp),%rdx
  406acd:	48 83 c2 08          	add    $0x8,%rdx
  406ad1:	48 89 c6             	mov    %rax,%rsi
  406ad4:	48 89 d7             	mov    %rdx,%rdi
  406ad7:	e8 bc 16 00 00       	callq  408198 <_ZNSt5arrayIN11arm_compute8Iterator9DimensionELm6EEixEm>
  406adc:	48 89 c3             	mov    %rax,%rbx
  406adf:	48 8b 45 c8          	mov    -0x38(%rbp),%rax
  406ae3:	48 83 c0 08          	add    $0x8,%rax
  406ae7:	48 89 c7             	mov    %rax,%rdi
  406aea:	e8 42 fe ff ff       	callq  406931 <_ZSt3getILm0EN11arm_compute8Iterator9DimensionELm6EERT0_RSt5arrayIS3_XT1_EE>
  406aef:	8b 00                	mov    (%rax),%eax
  406af1:	89 03                	mov    %eax,(%rbx)
  406af3:	83 45 dc 01          	addl   $0x1,-0x24(%rbp)
  406af7:	eb c7                	jmp    406ac0 <_ZN11arm_compute8IteratorC1EPKNS_7ITensorERKNS_6WindowE+0x170>
  406af9:	48 8b 45 e0          	mov    -0x20(%rbp),%rax
  406afd:	48 8b 00             	mov    (%rax),%rax
  406b00:	48 83 c0 78          	add    $0x78,%rax
  406b04:	48 8b 00             	mov    (%rax),%rax
  406b07:	48 8b 55 e0          	mov    -0x20(%rbp),%rdx
  406b0b:	48 89 d7             	mov    %rdx,%rdi
  406b0e:	ff d0                	callq  *%rax
  406b10:	89 c2                	mov    %eax,%edx
  406b12:	48 8b 45 b8          	mov    -0x48(%rbp),%rax
  406b16:	41 89 d0             	mov    %edx,%r8d
  406b19:	48 89 c1             	mov    %rax,%rcx
  406b1c:	ba d4 00 00 00       	mov    $0xd4,%edx
  406b21:	be 68 c7 40 00       	mov    $0x40c768,%esi
  406b26:	bf 38 ca 40 00       	mov    $0x40ca38,%edi
  406b2b:	e8 70 d3 ff ff       	callq  403ea0 <_ZN11arm_compute30error_on_window_dimensions_gteEPKcS1_iRKNS_6WindowEj@plt>
  406b30:	90                   	nop
  406b31:	48 83 c4 40          	add    $0x40,%rsp
  406b35:	5b                   	pop    %rbx
  406b36:	41 5c                	pop    %r12
  406b38:	5d                   	pop    %rbp
  406b39:	c3                   	retq   

0000000000406b3a <_ZN11arm_compute8Iterator9incrementEm>:
  406b3a:	55                   	push   %rbp
  406b3b:	48 89 e5             	mov    %rsp,%rbp
  406b3e:	53                   	push   %rbx
  406b3f:	48 83 ec 28          	sub    $0x28,%rsp
  406b43:	48 89 7d d8          	mov    %rdi,-0x28(%rbp)
  406b47:	48 89 75 d0          	mov    %rsi,-0x30(%rbp)
  406b4b:	48 8b 45 d8          	mov    -0x28(%rbp),%rax
  406b4f:	48 8d 50 08          	lea    0x8(%rax),%rdx
  406b53:	48 8b 45 d0          	mov    -0x30(%rbp),%rax
  406b57:	48 89 c6             	mov    %rax,%rsi
  406b5a:	48 89 d7             	mov    %rdx,%rdi
  406b5d:	e8 36 16 00 00       	callq  408198 <_ZNSt5arrayIN11arm_compute8Iterator9DimensionELm6EEixEm>
  406b62:	8b 58 04             	mov    0x4(%rax),%ebx
  406b65:	48 8b 45 d8          	mov    -0x28(%rbp),%rax
  406b69:	48 8d 50 08          	lea    0x8(%rax),%rdx
  406b6d:	48 8b 45 d0          	mov    -0x30(%rbp),%rax
  406b71:	48 89 c6             	mov    %rax,%rsi
  406b74:	48 89 d7             	mov    %rdx,%rdi
  406b77:	e8 1c 16 00 00       	callq  408198 <_ZNSt5arrayIN11arm_compute8Iterator9DimensionELm6EEixEm>
  406b7c:	8b 10                	mov    (%rax),%edx
  406b7e:	01 da                	add    %ebx,%edx
  406b80:	89 10                	mov    %edx,(%rax)
  406b82:	c7 45 ec 00 00 00 00 	movl   $0x0,-0x14(%rbp)
  406b89:	8b 45 ec             	mov    -0x14(%rbp),%eax
  406b8c:	48 3b 45 d0          	cmp    -0x30(%rbp),%rax
  406b90:	73 3a                	jae    406bcc <_ZN11arm_compute8Iterator9incrementEm+0x92>
  406b92:	8b 45 ec             	mov    -0x14(%rbp),%eax
  406b95:	48 8b 55 d8          	mov    -0x28(%rbp),%rdx
  406b99:	48 83 c2 08          	add    $0x8,%rdx
  406b9d:	48 89 c6             	mov    %rax,%rsi
  406ba0:	48 89 d7             	mov    %rdx,%rdi
  406ba3:	e8 f0 15 00 00       	callq  408198 <_ZNSt5arrayIN11arm_compute8Iterator9DimensionELm6EEixEm>
  406ba8:	48 89 c3             	mov    %rax,%rbx
  406bab:	48 8b 45 d8          	mov    -0x28(%rbp),%rax
  406baf:	48 8d 50 08          	lea    0x8(%rax),%rdx
  406bb3:	48 8b 45 d0          	mov    -0x30(%rbp),%rax
  406bb7:	48 89 c6             	mov    %rax,%rsi
  406bba:	48 89 d7             	mov    %rdx,%rdi
  406bbd:	e8 d6 15 00 00       	callq  408198 <_ZNSt5arrayIN11arm_compute8Iterator9DimensionELm6EEixEm>
  406bc2:	8b 00                	mov    (%rax),%eax
  406bc4:	89 03                	mov    %eax,(%rbx)
  406bc6:	83 45 ec 01          	addl   $0x1,-0x14(%rbp)
  406bca:	eb bd                	jmp    406b89 <_ZN11arm_compute8Iterator9incrementEm+0x4f>
  406bcc:	90                   	nop
  406bcd:	48 83 c4 28          	add    $0x28,%rsp
  406bd1:	5b                   	pop    %rbx
  406bd2:	5d                   	pop    %rbp
  406bd3:	c3                   	retq   

0000000000406bd4 <_ZNKSt5arrayIN11arm_compute8Iterator9DimensionELm6EE2atEm>:
  406bd4:	55                   	push   %rbp
  406bd5:	48 89 e5             	mov    %rsp,%rbp
  406bd8:	48 83 ec 10          	sub    $0x10,%rsp
  406bdc:	48 89 7d f8          	mov    %rdi,-0x8(%rbp)
  406be0:	48 89 75 f0          	mov    %rsi,-0x10(%rbp)
  406be4:	48 83 7d f0 05       	cmpq   $0x5,-0x10(%rbp)
  406be9:	77 15                	ja     406c00 <_ZNKSt5arrayIN11arm_compute8Iterator9DimensionELm6EE2atEm+0x2c>
  406beb:	48 8b 45 f8          	mov    -0x8(%rbp),%rax
  406bef:	48 8b 55 f0          	mov    -0x10(%rbp),%rdx
  406bf3:	48 89 d6             	mov    %rdx,%rsi
  406bf6:	48 89 c7             	mov    %rax,%rdi
  406bf9:	e8 12 fd ff ff       	callq  406910 <_ZNSt14__array_traitsIN11arm_compute8Iterator9DimensionELm6EE6_S_refERA6_KS2_m>
  406bfe:	eb 1b                	jmp    406c1b <_ZNKSt5arrayIN11arm_compute8Iterator9DimensionELm6EE2atEm+0x47>
  406c00:	48 8b 45 f0          	mov    -0x10(%rbp),%rax
  406c04:	ba 06 00 00 00       	mov    $0x6,%edx
  406c09:	48 89 c6             	mov    %rax,%rsi
  406c0c:	bf 30 c7 40 00       	mov    $0x40c730,%edi
  406c11:	b8 00 00 00 00       	mov    $0x0,%eax
  406c16:	e8 45 d3 ff ff       	callq  403f60 <_ZSt24__throw_out_of_range_fmtPKcz@plt>
  406c1b:	c9                   	leaveq 
  406c1c:	c3                   	retq   
  406c1d:	90                   	nop

0000000000406c1e <_ZNK11arm_compute8Iterator3ptrEv>:
  406c1e:	55                   	push   %rbp
  406c1f:	48 89 e5             	mov    %rsp,%rbp
  406c22:	53                   	push   %rbx
  406c23:	48 83 ec 18          	sub    $0x18,%rsp
  406c27:	48 89 7d e8          	mov    %rdi,-0x18(%rbp)
  406c2b:	48 8b 45 e8          	mov    -0x18(%rbp),%rax
  406c2f:	48 8b 18             	mov    (%rax),%rbx
  406c32:	48 8b 45 e8          	mov    -0x18(%rbp),%rax
  406c36:	48 83 c0 08          	add    $0x8,%rax
  406c3a:	be 00 00 00 00       	mov    $0x0,%esi
  406c3f:	48 89 c7             	mov    %rax,%rdi
  406c42:	e8 8d ff ff ff       	callq  406bd4 <_ZNKSt5arrayIN11arm_compute8Iterator9DimensionELm6EE2atEm>
  406c47:	8b 00                	mov    (%rax),%eax
  406c49:	48 98                	cltq   
  406c4b:	48 01 d8             	add    %rbx,%rax
  406c4e:	48 83 c4 18          	add    $0x18,%rsp
  406c52:	5b                   	pop    %rbx
  406c53:	5d                   	pop    %rbp
  406c54:	c3                   	retq   
  406c55:	90                   	nop

0000000000406c56 <_ZN11arm_compute11CLScheduler12default_initEv>:
  406c56:	55                   	push   %rbp
  406c57:	48 89 e5             	mov    %rsp,%rbp
  406c5a:	53                   	push   %rbx
  406c5b:	48 83 ec 78          	sub    $0x78,%rsp
  406c5f:	48 89 7d 88          	mov    %rdi,-0x78(%rbp)
  406c63:	64 48 8b 04 25 28 00 	mov    %fs:0x28,%rax
  406c6a:	00 00 
  406c6c:	48 89 45 e8          	mov    %rax,-0x18(%rbp)
  406c70:	31 c0                	xor    %eax,%eax
  406c72:	48 8d 45 b0          	lea    -0x50(%rbp),%rax
  406c76:	be 00 00 00 00       	mov    $0x0,%esi
  406c7b:	48 89 c7             	mov    %rax,%rdi
  406c7e:	e8 66 e4 ff ff       	callq  4050e9 <_ZN2cl6Device10getDefaultEPi>
  406c83:	48 8d 45 a0          	lea    -0x60(%rbp),%rax
  406c87:	be 00 00 00 00       	mov    $0x0,%esi
  406c8c:	48 89 c7             	mov    %rax,%rdi
  406c8f:	e8 e4 f1 ff ff       	callq  405e78 <_ZN2cl7Context10getDefaultEPi>
  406c94:	48 8d 45 90          	lea    -0x70(%rbp),%rax
  406c98:	48 89 c7             	mov    %rax,%rdi
  406c9b:	e8 e0 d3 ff ff       	callq  404080 <_ZNSaIcEC1Ev@plt>
  406ca0:	48 8d 55 90          	lea    -0x70(%rbp),%rdx
  406ca4:	48 8d 45 c0          	lea    -0x40(%rbp),%rax
  406ca8:	be ec c7 40 00       	mov    $0x40c7ec,%esi
  406cad:	48 89 c7             	mov    %rax,%rdi
  406cb0:	e8 6b d2 ff ff       	callq  403f20 <_ZNSt7__cxx1112basic_stringIcSt11char_traitsIcESaIcEEC1EPKcRKS3_@plt>
  406cb5:	e8 b6 d0 ff ff       	callq  403d70 <_ZN11arm_compute15CLKernelLibrary3getEv@plt>
  406cba:	48 89 c7             	mov    %rax,%rdi
  406cbd:	48 8d 4d b0          	lea    -0x50(%rbp),%rcx
  406cc1:	48 8d 55 a0          	lea    -0x60(%rbp),%rdx
  406cc5:	48 8d 45 c0          	lea    -0x40(%rbp),%rax
  406cc9:	48 89 c6             	mov    %rax,%rsi
  406ccc:	e8 17 f7 ff ff       	callq  4063e8 <_ZN11arm_compute15CLKernelLibrary4initENSt7__cxx1112basic_stringIcSt11char_traitsIcESaIcEEEN2cl7ContextENS7_6DeviceE>
  406cd1:	48 8d 45 c0          	lea    -0x40(%rbp),%rax
  406cd5:	48 89 c7             	mov    %rax,%rdi
  406cd8:	e8 b3 d0 ff ff       	callq  403d90 <_ZNSt7__cxx1112basic_stringIcSt11char_traitsIcESaIcEED1Ev@plt>
  406cdd:	48 8d 45 90          	lea    -0x70(%rbp),%rax
  406ce1:	48 89 c7             	mov    %rax,%rdi
  406ce4:	e8 47 d1 ff ff       	callq  403e30 <_ZNSaIcED1Ev@plt>
  406ce9:	48 8d 45 a0          	lea    -0x60(%rbp),%rax
  406ced:	48 89 c7             	mov    %rax,%rdi
  406cf0:	e8 33 ec ff ff       	callq  405928 <_ZN2cl7ContextD1Ev>
  406cf5:	48 8d 45 b0          	lea    -0x50(%rbp),%rax
  406cf9:	48 89 c7             	mov    %rax,%rdi
  406cfc:	e8 cd e3 ff ff       	callq  4050ce <_ZN2cl6DeviceD1Ev>
  406d01:	48 8d 45 b0          	lea    -0x50(%rbp),%rax
  406d05:	be 00 00 00 00       	mov    $0x0,%esi
  406d0a:	48 89 c7             	mov    %rax,%rdi
  406d0d:	e8 d7 e3 ff ff       	callq  4050e9 <_ZN2cl6Device10getDefaultEPi>
  406d12:	48 8d 45 a0          	lea    -0x60(%rbp),%rax
  406d16:	be 00 00 00 00       	mov    $0x0,%esi
  406d1b:	48 89 c7             	mov    %rax,%rdi
  406d1e:	e8 ad f5 ff ff       	callq  4062d0 <_ZN2cl12CommandQueue10getDefaultEPi>
  406d23:	48 8d 45 90          	lea    -0x70(%rbp),%rax
  406d27:	be 00 00 00 00       	mov    $0x0,%esi
  406d2c:	48 89 c7             	mov    %rax,%rdi
  406d2f:	e8 44 f1 ff ff       	callq  405e78 <_ZN2cl7Context10getDefaultEPi>
  406d34:	48 8d 4d b0          	lea    -0x50(%rbp),%rcx
  406d38:	48 8d 55 a0          	lea    -0x60(%rbp),%rdx
  406d3c:	48 8d 75 90          	lea    -0x70(%rbp),%rsi
  406d40:	48 8b 45 88          	mov    -0x78(%rbp),%rax
  406d44:	48 89 c7             	mov    %rax,%rdi
  406d47:	e8 ce 00 00 00       	callq  406e1a <_ZN11arm_compute11CLScheduler4initEN2cl7ContextENS1_12CommandQueueENS1_6DeviceE>
  406d4c:	48 8d 45 90          	lea    -0x70(%rbp),%rax
  406d50:	48 89 c7             	mov    %rax,%rdi
  406d53:	e8 d0 eb ff ff       	callq  405928 <_ZN2cl7ContextD1Ev>
  406d58:	48 8d 45 a0          	lea    -0x60(%rbp),%rax
  406d5c:	48 89 c7             	mov    %rax,%rdi
  406d5f:	e8 50 f3 ff ff       	callq  4060b4 <_ZN2cl12CommandQueueD1Ev>
  406d64:	48 8d 45 b0          	lea    -0x50(%rbp),%rax
  406d68:	48 89 c7             	mov    %rax,%rdi
  406d6b:	e8 5e e3 ff ff       	callq  4050ce <_ZN2cl6DeviceD1Ev>
  406d70:	90                   	nop
  406d71:	48 8b 45 e8          	mov    -0x18(%rbp),%rax
  406d75:	64 48 33 04 25 28 00 	xor    %fs:0x28,%rax
  406d7c:	00 00 
  406d7e:	0f 84 8e 00 00 00    	je     406e12 <_ZN11arm_compute11CLScheduler12default_initEv+0x1bc>
  406d84:	e9 84 00 00 00       	jmpq   406e0d <_ZN11arm_compute11CLScheduler12default_initEv+0x1b7>
  406d89:	48 89 c3             	mov    %rax,%rbx
  406d8c:	48 8d 45 c0          	lea    -0x40(%rbp),%rax
  406d90:	48 89 c7             	mov    %rax,%rdi
  406d93:	e8 f8 cf ff ff       	callq  403d90 <_ZNSt7__cxx1112basic_stringIcSt11char_traitsIcESaIcEED1Ev@plt>
  406d98:	eb 03                	jmp    406d9d <_ZN11arm_compute11CLScheduler12default_initEv+0x147>
  406d9a:	48 89 c3             	mov    %rax,%rbx
  406d9d:	48 8d 45 90          	lea    -0x70(%rbp),%rax
  406da1:	48 89 c7             	mov    %rax,%rdi
  406da4:	e8 87 d0 ff ff       	callq  403e30 <_ZNSaIcED1Ev@plt>
  406da9:	48 8d 45 a0          	lea    -0x60(%rbp),%rax
  406dad:	48 89 c7             	mov    %rax,%rdi
  406db0:	e8 73 eb ff ff       	callq  405928 <_ZN2cl7ContextD1Ev>
  406db5:	eb 03                	jmp    406dba <_ZN11arm_compute11CLScheduler12default_initEv+0x164>
  406db7:	48 89 c3             	mov    %rax,%rbx
  406dba:	48 8d 45 b0          	lea    -0x50(%rbp),%rax
  406dbe:	48 89 c7             	mov    %rax,%rdi
  406dc1:	e8 08 e3 ff ff       	callq  4050ce <_ZN2cl6DeviceD1Ev>
  406dc6:	48 89 d8             	mov    %rbx,%rax
  406dc9:	48 89 c7             	mov    %rax,%rdi
  406dcc:	e8 9f d2 ff ff       	callq  404070 <_Unwind_Resume@plt>
  406dd1:	48 89 c3             	mov    %rax,%rbx
  406dd4:	48 8d 45 90          	lea    -0x70(%rbp),%rax
  406dd8:	48 89 c7             	mov    %rax,%rdi
  406ddb:	e8 48 eb ff ff       	callq  405928 <_ZN2cl7ContextD1Ev>
  406de0:	eb 03                	jmp    406de5 <_ZN11arm_compute11CLScheduler12default_initEv+0x18f>
  406de2:	48 89 c3             	mov    %rax,%rbx
  406de5:	48 8d 45 a0          	lea    -0x60(%rbp),%rax
  406de9:	48 89 c7             	mov    %rax,%rdi
  406dec:	e8 c3 f2 ff ff       	callq  4060b4 <_ZN2cl12CommandQueueD1Ev>
  406df1:	eb 03                	jmp    406df6 <_ZN11arm_compute11CLScheduler12default_initEv+0x1a0>
  406df3:	48 89 c3             	mov    %rax,%rbx
  406df6:	48 8d 45 b0          	lea    -0x50(%rbp),%rax
  406dfa:	48 89 c7             	mov    %rax,%rdi
  406dfd:	e8 cc e2 ff ff       	callq  4050ce <_ZN2cl6DeviceD1Ev>
  406e02:	48 89 d8             	mov    %rbx,%rax
  406e05:	48 89 c7             	mov    %rax,%rdi
  406e08:	e8 63 d2 ff ff       	callq  404070 <_Unwind_Resume@plt>
  406e0d:	e8 3e d0 ff ff       	callq  403e50 <__stack_chk_fail@plt>
  406e12:	48 83 c4 78          	add    $0x78,%rsp
  406e16:	5b                   	pop    %rbx
  406e17:	5d                   	pop    %rbp
  406e18:	c3                   	retq   
  406e19:	90                   	nop

0000000000406e1a <_ZN11arm_compute11CLScheduler4initEN2cl7ContextENS1_12CommandQueueENS1_6DeviceE>:
  406e1a:	55                   	push   %rbp
  406e1b:	48 89 e5             	mov    %rsp,%rbp
  406e1e:	48 83 ec 20          	sub    $0x20,%rsp
  406e22:	48 89 7d f8          	mov    %rdi,-0x8(%rbp)
  406e26:	48 89 75 f0          	mov    %rsi,-0x10(%rbp)
  406e2a:	48 89 55 e8          	mov    %rdx,-0x18(%rbp)
  406e2e:	48 89 4d e0          	mov    %rcx,-0x20(%rbp)
  406e32:	48 8b 45 f0          	mov    -0x10(%rbp),%rax
  406e36:	48 89 c7             	mov    %rax,%rdi
  406e39:	e8 f8 ef ff ff       	callq  405e36 <_ZSt4moveIRN2cl7ContextEEONSt16remove_referenceIT_E4typeEOS4_>
  406e3e:	48 89 c2             	mov    %rax,%rdx
  406e41:	48 8b 45 f8          	mov    -0x8(%rbp),%rax
  406e45:	48 89 d6             	mov    %rdx,%rsi
  406e48:	48 89 c7             	mov    %rax,%rdi
  406e4b:	e8 f4 ef ff ff       	callq  405e44 <_ZN2cl7ContextaSEOS0_>
  406e50:	48 8b 45 e8          	mov    -0x18(%rbp),%rax
  406e54:	48 89 c7             	mov    %rax,%rdi
  406e57:	e8 12 f5 ff ff       	callq  40636e <_ZSt4moveIRN2cl12CommandQueueEEONSt16remove_referenceIT_E4typeEOS4_>
  406e5c:	48 89 c2             	mov    %rax,%rdx
  406e5f:	48 8b 45 f8          	mov    -0x8(%rbp),%rax
  406e63:	48 83 c0 08          	add    $0x8,%rax
  406e67:	48 89 d6             	mov    %rdx,%rsi
  406e6a:	48 89 c7             	mov    %rax,%rdi
  406e6d:	e8 0a f5 ff ff       	callq  40637c <_ZN2cl12CommandQueueaSEOS0_>
  406e72:	48 8b 45 e0          	mov    -0x20(%rbp),%rax
  406e76:	48 89 c7             	mov    %rax,%rdi
  406e79:	e8 82 d0 ff ff       	callq  403f00 <_ZN11arm_compute22get_target_from_deviceERN2cl6DeviceE@plt>
  406e7e:	89 c2                	mov    %eax,%edx
  406e80:	48 8b 45 f8          	mov    -0x8(%rbp),%rax
  406e84:	89 50 10             	mov    %edx,0x10(%rax)
  406e87:	48 8b 45 f8          	mov    -0x8(%rbp),%rax
  406e8b:	c6 40 14 01          	movb   $0x1,0x14(%rax)
  406e8f:	90                   	nop
  406e90:	c9                   	leaveq 
  406e91:	c3                   	retq   

0000000000406e92 <_ZN11arm_compute11CLScheduler4syncEv>:
  406e92:	55                   	push   %rbp
  406e93:	48 89 e5             	mov    %rsp,%rbp
  406e96:	48 83 ec 10          	sub    $0x10,%rsp
  406e9a:	48 89 7d f8          	mov    %rdi,-0x8(%rbp)
  406e9e:	48 8b 45 f8          	mov    -0x8(%rbp),%rax
  406ea2:	48 83 c0 08          	add    $0x8,%rax
  406ea6:	48 89 c7             	mov    %rax,%rdi
  406ea9:	e8 02 f5 ff ff       	callq  4063b0 <_ZNK2cl12CommandQueue6finishEv>
  406eae:	90                   	nop
  406eaf:	c9                   	leaveq 
  406eb0:	c3                   	retq   
  406eb1:	90                   	nop

0000000000406eb2 <_ZNK2CK5Shape10data_countEv>:
  406eb2:	55                   	push   %rbp
  406eb3:	48 89 e5             	mov    %rsp,%rbp
  406eb6:	48 89 7d f8          	mov    %rdi,-0x8(%rbp)
  406eba:	48 8b 45 f8          	mov    -0x8(%rbp),%rax
  406ebe:	8b 10                	mov    (%rax),%edx
  406ec0:	48 8b 45 f8          	mov    -0x8(%rbp),%rax
  406ec4:	8b 40 04             	mov    0x4(%rax),%eax
  406ec7:	0f af d0             	imul   %eax,%edx
  406eca:	48 8b 45 f8          	mov    -0x8(%rbp),%rax
  406ece:	8b 40 0c             	mov    0xc(%rax),%eax
  406ed1:	0f af d0             	imul   %eax,%edx
  406ed4:	48 8b 45 f8          	mov    -0x8(%rbp),%rax
  406ed8:	8b 40 08             	mov    0x8(%rax),%eax
  406edb:	0f af c2             	imul   %edx,%eax
  406ede:	5d                   	pop    %rbp
  406edf:	c3                   	retq   

0000000000406ee0 <_ZNK2CK5Shape14get_flat_indexEiiii>:
  406ee0:	55                   	push   %rbp
  406ee1:	48 89 e5             	mov    %rsp,%rbp
  406ee4:	48 83 ec 20          	sub    $0x20,%rsp
  406ee8:	48 89 7d f8          	mov    %rdi,-0x8(%rbp)
  406eec:	89 75 f4             	mov    %esi,-0xc(%rbp)
  406eef:	89 55 f0             	mov    %edx,-0x10(%rbp)
  406ef2:	89 4d ec             	mov    %ecx,-0x14(%rbp)
  406ef5:	44 89 45 e8          	mov    %r8d,-0x18(%rbp)
  406ef9:	8b 7d e8             	mov    -0x18(%rbp),%edi
  406efc:	8b 4d ec             	mov    -0x14(%rbp),%ecx
  406eff:	8b 55 f0             	mov    -0x10(%rbp),%edx
  406f02:	8b 75 f4             	mov    -0xc(%rbp),%esi
  406f05:	48 8b 45 f8          	mov    -0x8(%rbp),%rax
  406f09:	41 89 f8             	mov    %edi,%r8d
  406f0c:	48 89 c7             	mov    %rax,%rdi
  406f0f:	e8 02 00 00 00       	callq  406f16 <_ZNK2CK5Shape19get_flat_index_nchwEiiii>
  406f14:	c9                   	leaveq 
  406f15:	c3                   	retq   

0000000000406f16 <_ZNK2CK5Shape19get_flat_index_nchwEiiii>:
  406f16:	55                   	push   %rbp
  406f17:	48 89 e5             	mov    %rsp,%rbp
  406f1a:	48 89 7d f8          	mov    %rdi,-0x8(%rbp)
  406f1e:	89 75 f4             	mov    %esi,-0xc(%rbp)
  406f21:	89 55 f0             	mov    %edx,-0x10(%rbp)
  406f24:	89 4d ec             	mov    %ecx,-0x14(%rbp)
  406f27:	44 89 45 e8          	mov    %r8d,-0x18(%rbp)
  406f2b:	48 8b 45 f8          	mov    -0x8(%rbp),%rax
  406f2f:	8b 40 04             	mov    0x4(%rax),%eax
  406f32:	0f af 45 f4          	imul   -0xc(%rbp),%eax
  406f36:	89 c2                	mov    %eax,%edx
  406f38:	8b 45 f0             	mov    -0x10(%rbp),%eax
  406f3b:	01 c2                	add    %eax,%edx
  406f3d:	48 8b 45 f8          	mov    -0x8(%rbp),%rax
  406f41:	8b 40 0c             	mov    0xc(%rax),%eax
  406f44:	0f af d0             	imul   %eax,%edx
  406f47:	8b 45 ec             	mov    -0x14(%rbp),%eax
  406f4a:	01 c2                	add    %eax,%edx
  406f4c:	48 8b 45 f8          	mov    -0x8(%rbp),%rax
  406f50:	8b 40 08             	mov    0x8(%rax),%eax
  406f53:	0f af d0             	imul   %eax,%edx
  406f56:	8b 45 e8             	mov    -0x18(%rbp),%eax
  406f59:	01 d0                	add    %edx,%eax
  406f5b:	5d                   	pop    %rbp
  406f5c:	c3                   	retq   

0000000000406f5d <_ZN2CK8getenv_iEPKci>:
  406f5d:	55                   	push   %rbp
  406f5e:	48 89 e5             	mov    %rsp,%rbp
  406f61:	48 83 ec 10          	sub    $0x10,%rsp
  406f65:	48 89 7d f8          	mov    %rdi,-0x8(%rbp)
  406f69:	89 75 f4             	mov    %esi,-0xc(%rbp)
  406f6c:	48 8b 45 f8          	mov    -0x8(%rbp),%rax
  406f70:	48 89 c7             	mov    %rax,%rdi
  406f73:	e8 18 cf ff ff       	callq  403e90 <getenv@plt>
  406f78:	48 85 c0             	test   %rax,%rax
  406f7b:	74 16                	je     406f93 <_ZN2CK8getenv_iEPKci+0x36>
  406f7d:	48 8b 45 f8          	mov    -0x8(%rbp),%rax
  406f81:	48 89 c7             	mov    %rax,%rdi
  406f84:	e8 07 cf ff ff       	callq  403e90 <getenv@plt>
  406f89:	48 89 c7             	mov    %rax,%rdi
  406f8c:	e8 ff cf ff ff       	callq  403f90 <atoi@plt>
  406f91:	eb 03                	jmp    406f96 <_ZN2CK8getenv_iEPKci+0x39>
  406f93:	8b 45 f4             	mov    -0xc(%rbp),%eax
  406f96:	c9                   	leaveq 
  406f97:	c3                   	retq   

0000000000406f98 <_ZN2CK13store_value_iEiPKci>:
  406f98:	55                   	push   %rbp
  406f99:	48 89 e5             	mov    %rsp,%rbp
  406f9c:	48 83 ec 20          	sub    $0x20,%rsp
  406fa0:	89 7d ec             	mov    %edi,-0x14(%rbp)
  406fa3:	48 89 75 e0          	mov    %rsi,-0x20(%rbp)
  406fa7:	89 55 e8             	mov    %edx,-0x18(%rbp)
  406faa:	48 8b 45 e0          	mov    -0x20(%rbp),%rax
  406fae:	48 89 c7             	mov    %rax,%rdi
  406fb1:	e8 5a cd ff ff       	callq  403d10 <strlen@plt>
  406fb6:	48 83 c0 05          	add    $0x5,%rax
  406fba:	48 89 c7             	mov    %rax,%rdi
  406fbd:	e8 6e cc ff ff       	callq  403c30 <_Znam@plt>
  406fc2:	48 89 45 f8          	mov    %rax,-0x8(%rbp)
  406fc6:	48 8b 55 e0          	mov    -0x20(%rbp),%rdx
  406fca:	48 8b 45 f8          	mov    -0x8(%rbp),%rax
  406fce:	be fa c7 40 00       	mov    $0x40c7fa,%esi
  406fd3:	48 89 c7             	mov    %rax,%rdi
  406fd6:	b8 00 00 00 00       	mov    $0x0,%eax
  406fdb:	e8 90 cc ff ff       	callq  403c70 <sprintf@plt>
  406fe0:	8b 55 e8             	mov    -0x18(%rbp),%edx
  406fe3:	48 8b 4d f8          	mov    -0x8(%rbp),%rcx
  406fe7:	8b 45 ec             	mov    -0x14(%rbp),%eax
  406fea:	48 89 ce             	mov    %rcx,%rsi
  406fed:	89 c7                	mov    %eax,%edi
  406fef:	e8 7c ce ff ff       	callq  403e70 <xopenme_add_var_i@plt>
  406ff4:	48 83 7d f8 00       	cmpq   $0x0,-0x8(%rbp)
  406ff9:	74 0c                	je     407007 <_ZN2CK13store_value_iEiPKci+0x6f>
  406ffb:	48 8b 45 f8          	mov    -0x8(%rbp),%rax
  406fff:	48 89 c7             	mov    %rax,%rdi
  407002:	e8 e9 ce ff ff       	callq  403ef0 <_ZdaPv@plt>
  407007:	90                   	nop
  407008:	c9                   	leaveq 
  407009:	c3                   	retq   

000000000040700a <_ZN2CK13store_value_fEiPKcf>:
  40700a:	55                   	push   %rbp
  40700b:	48 89 e5             	mov    %rsp,%rbp
  40700e:	48 83 ec 30          	sub    $0x30,%rsp
  407012:	89 7d ec             	mov    %edi,-0x14(%rbp)
  407015:	48 89 75 e0          	mov    %rsi,-0x20(%rbp)
  407019:	f3 0f 11 45 e8       	movss  %xmm0,-0x18(%rbp)
  40701e:	48 8b 45 e0          	mov    -0x20(%rbp),%rax
  407022:	48 89 c7             	mov    %rax,%rdi
  407025:	e8 e6 cc ff ff       	callq  403d10 <strlen@plt>
  40702a:	48 83 c0 05          	add    $0x5,%rax
  40702e:	48 89 c7             	mov    %rax,%rdi
  407031:	e8 fa cb ff ff       	callq  403c30 <_Znam@plt>
  407036:	48 89 45 f8          	mov    %rax,-0x8(%rbp)
  40703a:	48 8b 55 e0          	mov    -0x20(%rbp),%rdx
  40703e:	48 8b 45 f8          	mov    -0x8(%rbp),%rax
  407042:	be 03 c8 40 00       	mov    $0x40c803,%esi
  407047:	48 89 c7             	mov    %rax,%rdi
  40704a:	b8 00 00 00 00       	mov    $0x0,%eax
  40704f:	e8 1c cc ff ff       	callq  403c70 <sprintf@plt>
  407054:	8b 4d e8             	mov    -0x18(%rbp),%ecx
  407057:	48 8b 55 f8          	mov    -0x8(%rbp),%rdx
  40705b:	8b 45 ec             	mov    -0x14(%rbp),%eax
  40705e:	89 4d dc             	mov    %ecx,-0x24(%rbp)
  407061:	f3 0f 10 45 dc       	movss  -0x24(%rbp),%xmm0
  407066:	48 89 d6             	mov    %rdx,%rsi
  407069:	89 c7                	mov    %eax,%edi
  40706b:	e8 60 d0 ff ff       	callq  4040d0 <xopenme_add_var_f@plt>
  407070:	48 83 7d f8 00       	cmpq   $0x0,-0x8(%rbp)
  407075:	74 0c                	je     407083 <_ZN2CK13store_value_fEiPKcf+0x79>
  407077:	48 8b 45 f8          	mov    -0x8(%rbp),%rax
  40707b:	48 89 c7             	mov    %rax,%rdi
  40707e:	e8 6d ce ff ff       	callq  403ef0 <_ZdaPv@plt>
  407083:	90                   	nop
  407084:	c9                   	leaveq 
  407085:	c3                   	retq   

0000000000407086 <_ZN2CK24get_input_shape_from_envEv>:
  407086:	55                   	push   %rbp
  407087:	48 89 e5             	mov    %rsp,%rbp
  40708a:	48 83 ec 20          	sub    $0x20,%rsp
  40708e:	64 48 8b 04 25 28 00 	mov    %fs:0x28,%rax
  407095:	00 00 
  407097:	48 89 45 f8          	mov    %rax,-0x8(%rbp)
  40709b:	31 c0                	xor    %eax,%eax
  40709d:	be 01 00 00 00       	mov    $0x1,%esi
  4070a2:	bf 0c c8 40 00       	mov    $0x40c80c,%edi
  4070a7:	e8 b1 fe ff ff       	callq  406f5d <_ZN2CK8getenv_iEPKci>
  4070ac:	89 45 e0             	mov    %eax,-0x20(%rbp)
  4070af:	be 03 00 00 00       	mov    $0x3,%esi
  4070b4:	bf 1a c8 40 00       	mov    $0x40c81a,%edi
  4070b9:	e8 9f fe ff ff       	callq  406f5d <_ZN2CK8getenv_iEPKci>
  4070be:	89 45 e4             	mov    %eax,-0x1c(%rbp)
  4070c1:	be 01 00 00 00       	mov    $0x1,%esi
  4070c6:	bf 28 c8 40 00       	mov    $0x40c828,%edi
  4070cb:	e8 8d fe ff ff       	callq  406f5d <_ZN2CK8getenv_iEPKci>
  4070d0:	89 45 ec             	mov    %eax,-0x14(%rbp)
  4070d3:	be 01 00 00 00       	mov    $0x1,%esi
  4070d8:	bf 36 c8 40 00       	mov    $0x40c836,%edi
  4070dd:	e8 7b fe ff ff       	callq  406f5d <_ZN2CK8getenv_iEPKci>
  4070e2:	89 45 e8             	mov    %eax,-0x18(%rbp)
  4070e5:	8b 45 e0             	mov    -0x20(%rbp),%eax
  4070e8:	89 c2                	mov    %eax,%edx
  4070ea:	be 44 c8 40 00       	mov    $0x40c844,%esi
  4070ef:	bf 04 00 00 00       	mov    $0x4,%edi
  4070f4:	e8 9f fe ff ff       	callq  406f98 <_ZN2CK13store_value_iEiPKci>
  4070f9:	8b 45 e4             	mov    -0x1c(%rbp),%eax
  4070fc:	89 c2                	mov    %eax,%edx
  4070fe:	be 4f c8 40 00       	mov    $0x40c84f,%esi
  407103:	bf 05 00 00 00       	mov    $0x5,%edi
  407108:	e8 8b fe ff ff       	callq  406f98 <_ZN2CK13store_value_iEiPKci>
  40710d:	8b 45 ec             	mov    -0x14(%rbp),%eax
  407110:	89 c2                	mov    %eax,%edx
  407112:	be 5a c8 40 00       	mov    $0x40c85a,%esi
  407117:	bf 06 00 00 00       	mov    $0x6,%edi
  40711c:	e8 77 fe ff ff       	callq  406f98 <_ZN2CK13store_value_iEiPKci>
  407121:	8b 45 e8             	mov    -0x18(%rbp),%eax
  407124:	89 c2                	mov    %eax,%edx
  407126:	be 65 c8 40 00       	mov    $0x40c865,%esi
  40712b:	bf 07 00 00 00       	mov    $0x7,%edi
  407130:	e8 63 fe ff ff       	callq  406f98 <_ZN2CK13store_value_iEiPKci>
  407135:	48 8b 45 e0          	mov    -0x20(%rbp),%rax
  407139:	48 8b 55 e8          	mov    -0x18(%rbp),%rdx
  40713d:	48 8b 4d f8          	mov    -0x8(%rbp),%rcx
  407141:	64 48 33 0c 25 28 00 	xor    %fs:0x28,%rcx
  407148:	00 00 
  40714a:	74 05                	je     407151 <_ZN2CK24get_input_shape_from_envEv+0xcb>
  40714c:	e8 ff cc ff ff       	callq  403e50 <__stack_chk_fail@plt>
  407151:	c9                   	leaveq 
  407152:	c3                   	retq   

0000000000407153 <_ZN2CK9init_testEv>:
  407153:	55                   	push   %rbp
  407154:	48 89 e5             	mov    %rsp,%rbp
  407157:	be 0c 00 00 00       	mov    $0xc,%esi
  40715c:	bf 02 00 00 00       	mov    $0x2,%edi
  407161:	e8 8a cb ff ff       	callq  403cf0 <xopenme_init@plt>
  407166:	90                   	nop
  407167:	5d                   	pop    %rbp
  407168:	c3                   	retq   

0000000000407169 <_ZN2CK11finish_testEv>:
  407169:	55                   	push   %rbp
  40716a:	48 89 e5             	mov    %rsp,%rbp
  40716d:	bf 00 00 00 00       	mov    $0x0,%edi
  407172:	e8 89 cf ff ff       	callq  404100 <xopenme_get_timer@plt>
  407177:	be 00 00 00 00       	mov    $0x0,%esi
  40717c:	bf 70 c8 40 00       	mov    $0x40c870,%edi
  407181:	b8 01 00 00 00       	mov    $0x1,%eax
  407186:	e8 c5 ca ff ff       	callq  403c50 <printf@plt>
  40718b:	bf 01 00 00 00       	mov    $0x1,%edi
  407190:	e8 6b cf ff ff       	callq  404100 <xopenme_get_timer@plt>
  407195:	be 01 00 00 00       	mov    $0x1,%esi
  40719a:	bf 84 c8 40 00       	mov    $0x40c884,%edi
  40719f:	b8 01 00 00 00       	mov    $0x1,%eax
  4071a4:	e8 a7 ca ff ff       	callq  403c50 <printf@plt>
  4071a9:	e8 e2 ca ff ff       	callq  403c90 <xopenme_dump_state@plt>
  4071ae:	e8 fd ca ff ff       	callq  403cb0 <xopenme_finish@plt>
  4071b3:	90                   	nop
  4071b4:	5d                   	pop    %rbp
  4071b5:	c3                   	retq   

00000000004071b6 <_ZN2CK5armcl15set_kernel_pathEv>:
  4071b6:	55                   	push   %rbp
  4071b7:	48 89 e5             	mov    %rsp,%rbp
  4071ba:	53                   	push   %rbx
  4071bb:	48 83 ec 48          	sub    $0x48,%rsp
  4071bf:	64 48 8b 04 25 28 00 	mov    %fs:0x28,%rax
  4071c6:	00 00 
  4071c8:	48 89 45 e8          	mov    %rax,-0x18(%rbp)
  4071cc:	31 c0                	xor    %eax,%eax
  4071ce:	bf ad c8 40 00       	mov    $0x40c8ad,%edi
  4071d3:	e8 b8 cc ff ff       	callq  403e90 <getenv@plt>
  4071d8:	48 89 45 b8          	mov    %rax,-0x48(%rbp)
  4071dc:	48 83 7d b8 00       	cmpq   $0x0,-0x48(%rbp)
  4071e1:	0f 84 95 00 00 00    	je     40727c <_ZN2CK5armcl15set_kernel_pathEv+0xc6>
  4071e7:	48 8b 45 b8          	mov    -0x48(%rbp),%rax
  4071eb:	48 89 c6             	mov    %rax,%rsi
  4071ee:	bf c7 c8 40 00       	mov    $0x40c8c7,%edi
  4071f3:	b8 00 00 00 00       	mov    $0x0,%eax
  4071f8:	e8 53 ca ff ff       	callq  403c50 <printf@plt>
  4071fd:	48 8d 45 b7          	lea    -0x49(%rbp),%rax
  407201:	48 89 c7             	mov    %rax,%rdi
  407204:	e8 77 ce ff ff       	callq  404080 <_ZNSaIcEC1Ev@plt>
  407209:	48 8d 55 b7          	lea    -0x49(%rbp),%rdx
  40720d:	48 8b 4d b8          	mov    -0x48(%rbp),%rcx
  407211:	48 8d 45 c0          	lea    -0x40(%rbp),%rax
  407215:	48 89 ce             	mov    %rcx,%rsi
  407218:	48 89 c7             	mov    %rax,%rdi
  40721b:	e8 00 cd ff ff       	callq  403f20 <_ZNSt7__cxx1112basic_stringIcSt11char_traitsIcESaIcEEC1EPKcRKS3_@plt>
  407220:	e8 4b cb ff ff       	callq  403d70 <_ZN11arm_compute15CLKernelLibrary3getEv@plt>
  407225:	48 89 c2             	mov    %rax,%rdx
  407228:	48 8d 45 c0          	lea    -0x40(%rbp),%rax
  40722c:	48 89 c6             	mov    %rax,%rsi
  40722f:	48 89 d7             	mov    %rdx,%rdi
  407232:	e8 49 f2 ff ff       	callq  406480 <_ZN11arm_compute15CLKernelLibrary15set_kernel_pathERKNSt7__cxx1112basic_stringIcSt11char_traitsIcESaIcEEE>
  407237:	48 8d 45 c0          	lea    -0x40(%rbp),%rax
  40723b:	48 89 c7             	mov    %rax,%rdi
  40723e:	e8 4d cb ff ff       	callq  403d90 <_ZNSt7__cxx1112basic_stringIcSt11char_traitsIcESaIcEED1Ev@plt>
  407243:	48 8d 45 b7          	lea    -0x49(%rbp),%rax
  407247:	48 89 c7             	mov    %rax,%rdi
  40724a:	e8 e1 cb ff ff       	callq  403e30 <_ZNSaIcED1Ev@plt>
  40724f:	eb 2b                	jmp    40727c <_ZN2CK5armcl15set_kernel_pathEv+0xc6>
  407251:	48 89 c3             	mov    %rax,%rbx
  407254:	48 8d 45 c0          	lea    -0x40(%rbp),%rax
  407258:	48 89 c7             	mov    %rax,%rdi
  40725b:	e8 30 cb ff ff       	callq  403d90 <_ZNSt7__cxx1112basic_stringIcSt11char_traitsIcESaIcEED1Ev@plt>
  407260:	eb 03                	jmp    407265 <_ZN2CK5armcl15set_kernel_pathEv+0xaf>
  407262:	48 89 c3             	mov    %rax,%rbx
  407265:	48 8d 45 b7          	lea    -0x49(%rbp),%rax
  407269:	48 89 c7             	mov    %rax,%rdi
  40726c:	e8 bf cb ff ff       	callq  403e30 <_ZNSaIcED1Ev@plt>
  407271:	48 89 d8             	mov    %rbx,%rax
  407274:	48 89 c7             	mov    %rax,%rdi
  407277:	e8 f4 cd ff ff       	callq  404070 <_Unwind_Resume@plt>
  40727c:	90                   	nop
  40727d:	48 8b 45 e8          	mov    -0x18(%rbp),%rax
  407281:	64 48 33 04 25 28 00 	xor    %fs:0x28,%rax
  407288:	00 00 
  40728a:	74 05                	je     407291 <_ZN2CK5armcl15set_kernel_pathEv+0xdb>
  40728c:	e8 bf cb ff ff       	callq  403e50 <__stack_chk_fail@plt>
  407291:	48 83 c4 48          	add    $0x48,%rsp
  407295:	5b                   	pop    %rbx
  407296:	5d                   	pop    %rbp
  407297:	c3                   	retq   

0000000000407298 <_ZN2CK5armcl10init_armclEv>:
  407298:	55                   	push   %rbp
  407299:	48 89 e5             	mov    %rsp,%rbp
  40729c:	e8 bf c9 ff ff       	callq  403c60 <_ZN11arm_compute11CLScheduler3getEv@plt>
  4072a1:	48 89 c7             	mov    %rax,%rdi
  4072a4:	e8 ad f9 ff ff       	callq  406c56 <_ZN11arm_compute11CLScheduler12default_initEv>
  4072a9:	e8 08 ff ff ff       	callq  4071b6 <_ZN2CK5armcl15set_kernel_pathEv>
  4072ae:	90                   	nop
  4072af:	5d                   	pop    %rbp
  4072b0:	c3                   	retq   

00000000004072b1 <_ZN2CK5armcl14get_flat_indexERKNS_5ShapeERKN11arm_compute11CoordinatesE>:
  4072b1:	55                   	push   %rbp
  4072b2:	48 89 e5             	mov    %rsp,%rbp
  4072b5:	53                   	push   %rbx
  4072b6:	48 83 ec 18          	sub    $0x18,%rsp
  4072ba:	48 89 7d e8          	mov    %rdi,-0x18(%rbp)
  4072be:	48 89 75 e0          	mov    %rsi,-0x20(%rbp)
  4072c2:	48 8b 45 e0          	mov    -0x20(%rbp),%rax
  4072c6:	48 89 c7             	mov    %rax,%rdi
  4072c9:	e8 72 0f 00 00       	callq  408240 <_ZNK11arm_compute10DimensionsIiE1zEv>
  4072ce:	89 c1                	mov    %eax,%ecx
  4072d0:	48 8b 45 e8          	mov    -0x18(%rbp),%rax
  4072d4:	8b 50 08             	mov    0x8(%rax),%edx
  4072d7:	48 8b 45 e8          	mov    -0x18(%rbp),%rax
  4072db:	8b 40 0c             	mov    0xc(%rax),%eax
  4072de:	0f af c2             	imul   %edx,%eax
  4072e1:	0f af c8             	imul   %eax,%ecx
  4072e4:	89 cb                	mov    %ecx,%ebx
  4072e6:	48 8b 45 e0          	mov    -0x20(%rbp),%rax
  4072ea:	48 89 c7             	mov    %rax,%rdi
  4072ed:	e8 70 0f 00 00       	callq  408262 <_ZNK11arm_compute10DimensionsIiE1yEv>
  4072f2:	89 c2                	mov    %eax,%edx
  4072f4:	48 8b 45 e8          	mov    -0x18(%rbp),%rax
  4072f8:	8b 40 08             	mov    0x8(%rax),%eax
  4072fb:	0f af c2             	imul   %edx,%eax
  4072fe:	01 c3                	add    %eax,%ebx
  407300:	48 8b 45 e0          	mov    -0x20(%rbp),%rax
  407304:	48 89 c7             	mov    %rax,%rdi
  407307:	e8 78 0f 00 00       	callq  408284 <_ZNK11arm_compute10DimensionsIiE1xEv>
  40730c:	01 d8                	add    %ebx,%eax
  40730e:	48 83 c4 18          	add    $0x18,%rsp
  407312:	5b                   	pop    %rbx
  407313:	5d                   	pop    %rbp
  407314:	c3                   	retq   

0000000000407315 <_ZN2CK5armcl20tensor_info_to_shapeEPKN11arm_compute10TensorInfoE>:
  407315:	55                   	push   %rbp
  407316:	48 89 e5             	mov    %rsp,%rbp
  407319:	53                   	push   %rbx
  40731a:	48 83 ec 28          	sub    $0x28,%rsp
  40731e:	48 89 7d d8          	mov    %rdi,-0x28(%rbp)
  407322:	48 89 75 d0          	mov    %rsi,-0x30(%rbp)
  407326:	64 48 8b 04 25 28 00 	mov    %fs:0x28,%rax
  40732d:	00 00 
  40732f:	48 89 45 e8          	mov    %rax,-0x18(%rbp)
  407333:	31 c0                	xor    %eax,%eax
  407335:	48 8b 45 d8          	mov    -0x28(%rbp),%rax
  407339:	48 89 c7             	mov    %rax,%rdi
  40733c:	e8 b9 0c 00 00       	callq  407ffa <_ZN11arm_compute11TensorShapeC1IIEEEDpT_>
  407341:	c7 45 e4 00 00 00 00 	movl   $0x0,-0x1c(%rbp)
  407348:	8b 45 e4             	mov    -0x1c(%rbp),%eax
  40734b:	48 63 d8             	movslq %eax,%rbx
  40734e:	48 8b 45 d0          	mov    -0x30(%rbp),%rax
  407352:	48 89 c7             	mov    %rax,%rdi
  407355:	e8 0a f5 ff ff       	callq  406864 <_ZNK11arm_compute10TensorInfo14num_dimensionsEv>
  40735a:	48 39 c3             	cmp    %rax,%rbx
  40735d:	0f 92 c0             	setb   %al
  407360:	84 c0                	test   %al,%al
  407362:	74 33                	je     407397 <_ZN2CK5armcl20tensor_info_to_shapeEPKN11arm_compute10TensorInfoE+0x82>
  407364:	8b 45 e4             	mov    -0x1c(%rbp),%eax
  407367:	48 63 d0             	movslq %eax,%rdx
  40736a:	48 8b 45 d0          	mov    -0x30(%rbp),%rax
  40736e:	48 89 d6             	mov    %rdx,%rsi
  407371:	48 89 c7             	mov    %rax,%rdi
  407374:	e8 c1 f4 ff ff       	callq  40683a <_ZNK11arm_compute10TensorInfo9dimensionEm>
  407379:	48 89 c2             	mov    %rax,%rdx
  40737c:	8b 45 e4             	mov    -0x1c(%rbp),%eax
  40737f:	48 63 c8             	movslq %eax,%rcx
  407382:	48 8b 45 d8          	mov    -0x28(%rbp),%rax
  407386:	48 89 ce             	mov    %rcx,%rsi
  407389:	48 89 c7             	mov    %rax,%rdi
  40738c:	e8 19 f1 ff ff       	callq  4064aa <_ZN11arm_compute11TensorShape3setEmm>
  407391:	83 45 e4 01          	addl   $0x1,-0x1c(%rbp)
  407395:	eb b1                	jmp    407348 <_ZN2CK5armcl20tensor_info_to_shapeEPKN11arm_compute10TensorInfoE+0x33>
  407397:	90                   	nop
  407398:	48 8b 45 d8          	mov    -0x28(%rbp),%rax
  40739c:	48 8b 4d e8          	mov    -0x18(%rbp),%rcx
  4073a0:	64 48 33 0c 25 28 00 	xor    %fs:0x28,%rcx
  4073a7:	00 00 
  4073a9:	74 05                	je     4073b0 <_ZN2CK5armcl20tensor_info_to_shapeEPKN11arm_compute10TensorInfoE+0x9b>
  4073ab:	e8 a0 ca ff ff       	callq  403e50 <__stack_chk_fail@plt>
  4073b0:	48 83 c4 28          	add    $0x28,%rsp
  4073b4:	5b                   	pop    %rbx
  4073b5:	5d                   	pop    %rbp
  4073b6:	c3                   	retq   
  4073b7:	90                   	nop

00000000004073b8 <_ZNSt14__shared_countILN9__gnu_cxx12_Lock_policyE2EEC1Ev>:
  4073b8:	55                   	push   %rbp
  4073b9:	48 89 e5             	mov    %rsp,%rbp
  4073bc:	48 89 7d f8          	mov    %rdi,-0x8(%rbp)
  4073c0:	48 8b 45 f8          	mov    -0x8(%rbp),%rax
  4073c4:	48 c7 00 00 00 00 00 	movq   $0x0,(%rax)
  4073cb:	90                   	nop
  4073cc:	5d                   	pop    %rbp
  4073cd:	c3                   	retq   

00000000004073ce <_ZNSt12__shared_ptrIN11arm_compute14IMemoryManagerELN9__gnu_cxx12_Lock_policyE2EEC2Ev>:
  4073ce:	55                   	push   %rbp
  4073cf:	48 89 e5             	mov    %rsp,%rbp
  4073d2:	48 83 ec 10          	sub    $0x10,%rsp
  4073d6:	48 89 7d f8          	mov    %rdi,-0x8(%rbp)
  4073da:	48 8b 45 f8          	mov    -0x8(%rbp),%rax
  4073de:	48 c7 00 00 00 00 00 	movq   $0x0,(%rax)
  4073e5:	48 8b 45 f8          	mov    -0x8(%rbp),%rax
  4073e9:	48 83 c0 08          	add    $0x8,%rax
  4073ed:	48 89 c7             	mov    %rax,%rdi
  4073f0:	e8 c3 ff ff ff       	callq  4073b8 <_ZNSt14__shared_countILN9__gnu_cxx12_Lock_policyE2EEC1Ev>
  4073f5:	90                   	nop
  4073f6:	c9                   	leaveq 
  4073f7:	c3                   	retq   

00000000004073f8 <_ZNSt12__shared_ptrIN11arm_compute14IMemoryManagerELN9__gnu_cxx12_Lock_policyE2EED1Ev>:
  4073f8:	55                   	push   %rbp
  4073f9:	48 89 e5             	mov    %rsp,%rbp
  4073fc:	48 83 ec 10          	sub    $0x10,%rsp
  407400:	48 89 7d f8          	mov    %rdi,-0x8(%rbp)
  407404:	48 8b 45 f8          	mov    -0x8(%rbp),%rax
  407408:	48 83 c0 08          	add    $0x8,%rax
  40740c:	48 89 c7             	mov    %rax,%rdi
  40740f:	e8 92 0e 00 00       	callq  4082a6 <_ZNSt14__shared_countILN9__gnu_cxx12_Lock_policyE2EED1Ev>
  407414:	90                   	nop
  407415:	c9                   	leaveq 
  407416:	c3                   	retq   
  407417:	90                   	nop

0000000000407418 <_ZNSt10shared_ptrIN11arm_compute14IMemoryManagerEEC1Ev>:
  407418:	55                   	push   %rbp
  407419:	48 89 e5             	mov    %rsp,%rbp
  40741c:	48 83 ec 10          	sub    $0x10,%rsp
  407420:	48 89 7d f8          	mov    %rdi,-0x8(%rbp)
  407424:	48 8b 45 f8          	mov    -0x8(%rbp),%rax
  407428:	48 89 c7             	mov    %rax,%rdi
  40742b:	e8 9e ff ff ff       	callq  4073ce <_ZNSt12__shared_ptrIN11arm_compute14IMemoryManagerELN9__gnu_cxx12_Lock_policyE2EEC2Ev>
  407430:	90                   	nop
  407431:	c9                   	leaveq 
  407432:	c3                   	retq   
  407433:	90                   	nop

0000000000407434 <_ZNSt10shared_ptrIN11arm_compute14IMemoryManagerEED1Ev>:
  407434:	55                   	push   %rbp
  407435:	48 89 e5             	mov    %rsp,%rbp
  407438:	48 83 ec 10          	sub    $0x10,%rsp
  40743c:	48 89 7d f8          	mov    %rdi,-0x8(%rbp)
  407440:	48 8b 45 f8          	mov    -0x8(%rbp),%rax
  407444:	48 89 c7             	mov    %rax,%rdi
  407447:	e8 ac ff ff ff       	callq  4073f8 <_ZNSt12__shared_ptrIN11arm_compute14IMemoryManagerELN9__gnu_cxx12_Lock_policyE2EED1Ev>
  40744c:	90                   	nop
  40744d:	c9                   	leaveq 
  40744e:	c3                   	retq   
  40744f:	90                   	nop

0000000000407450 <_ZNSt10shared_ptrIN11arm_compute14IMemoryManagerEEC1EDn>:
  407450:	55                   	push   %rbp
  407451:	48 89 e5             	mov    %rsp,%rbp
  407454:	48 83 ec 10          	sub    $0x10,%rsp
  407458:	48 89 7d f8          	mov    %rdi,-0x8(%rbp)
  40745c:	48 89 75 f0          	mov    %rsi,-0x10(%rbp)
  407460:	48 8b 45 f8          	mov    -0x8(%rbp),%rax
  407464:	48 89 c7             	mov    %rax,%rdi
  407467:	e8 ac ff ff ff       	callq  407418 <_ZNSt10shared_ptrIN11arm_compute14IMemoryManagerEEC1Ev>
  40746c:	90                   	nop
  40746d:	c9                   	leaveq 
  40746e:	c3                   	retq   

000000000040746f <_ZSt4fillIPmiEvT_S1_RKT0_>:
  40746f:	55                   	push   %rbp
  407470:	48 89 e5             	mov    %rsp,%rbp
  407473:	53                   	push   %rbx
  407474:	48 83 ec 28          	sub    $0x28,%rsp
  407478:	48 89 7d e8          	mov    %rdi,-0x18(%rbp)
  40747c:	48 89 75 e0          	mov    %rsi,-0x20(%rbp)
  407480:	48 89 55 d8          	mov    %rdx,-0x28(%rbp)
  407484:	48 8b 45 e0          	mov    -0x20(%rbp),%rax
  407488:	48 89 c7             	mov    %rax,%rdi
  40748b:	e8 32 15 00 00       	callq  4089c2 <_ZSt12__niter_baseIPmENSt11_Niter_baseIT_E13iterator_typeES2_>
  407490:	48 89 c3             	mov    %rax,%rbx
  407493:	48 8b 45 e8          	mov    -0x18(%rbp),%rax
  407497:	48 89 c7             	mov    %rax,%rdi
  40749a:	e8 23 15 00 00       	callq  4089c2 <_ZSt12__niter_baseIPmENSt11_Niter_baseIT_E13iterator_typeES2_>
  40749f:	48 89 c1             	mov    %rax,%rcx
  4074a2:	48 8b 45 d8          	mov    -0x28(%rbp),%rax
  4074a6:	48 89 c2             	mov    %rax,%rdx
  4074a9:	48 89 de             	mov    %rbx,%rsi
  4074ac:	48 89 cf             	mov    %rcx,%rdi
  4074af:	e8 28 15 00 00       	callq  4089dc <_ZSt8__fill_aIPmiEN9__gnu_cxx11__enable_ifIXsrSt11__is_scalarIT0_E7__valueEvE6__typeET_S8_RKS4_>
  4074b4:	90                   	nop
  4074b5:	48 83 c4 28          	add    $0x28,%rsp
  4074b9:	5b                   	pop    %rbx
  4074ba:	5d                   	pop    %rbp
  4074bb:	c3                   	retq   

00000000004074bc <_ZNKSt6vectorIcSaIcEEixEm>:
  4074bc:	55                   	push   %rbp
  4074bd:	48 89 e5             	mov    %rsp,%rbp
  4074c0:	48 89 7d f8          	mov    %rdi,-0x8(%rbp)
  4074c4:	48 89 75 f0          	mov    %rsi,-0x10(%rbp)
  4074c8:	48 8b 45 f8          	mov    -0x8(%rbp),%rax
  4074cc:	48 8b 10             	mov    (%rax),%rdx
  4074cf:	48 8b 45 f0          	mov    -0x10(%rbp),%rax
  4074d3:	48 01 d0             	add    %rdx,%rax
  4074d6:	5d                   	pop    %rbp
  4074d7:	c3                   	retq   

00000000004074d8 <_ZSt7forwardIRFvvEEOT_RNSt16remove_referenceIS2_E4typeE>:
  4074d8:	55                   	push   %rbp
  4074d9:	48 89 e5             	mov    %rsp,%rbp
  4074dc:	48 89 7d f8          	mov    %rdi,-0x8(%rbp)
  4074e0:	48 8b 45 f8          	mov    -0x8(%rbp),%rax
  4074e4:	5d                   	pop    %rbp
  4074e5:	c3                   	retq   

00000000004074e6 <_ZNSt10_Head_baseILm0EPFvvELb0EE7_M_headERS2_>:
  4074e6:	55                   	push   %rbp
  4074e7:	48 89 e5             	mov    %rsp,%rbp
  4074ea:	48 89 7d f8          	mov    %rdi,-0x8(%rbp)
  4074ee:	48 8b 45 f8          	mov    -0x8(%rbp),%rax
  4074f2:	5d                   	pop    %rbp
  4074f3:	c3                   	retq   

00000000004074f4 <_ZNSt11_Tuple_implILm0EIPFvvEEE7_M_headERS2_>:
  4074f4:	55                   	push   %rbp
  4074f5:	48 89 e5             	mov    %rsp,%rbp
  4074f8:	48 83 ec 10          	sub    $0x10,%rsp
  4074fc:	48 89 7d f8          	mov    %rdi,-0x8(%rbp)
  407500:	48 8b 45 f8          	mov    -0x8(%rbp),%rax
  407504:	48 89 c7             	mov    %rax,%rdi
  407507:	e8 da ff ff ff       	callq  4074e6 <_ZNSt10_Head_baseILm0EPFvvELb0EE7_M_headERS2_>
  40750c:	c9                   	leaveq 
  40750d:	c3                   	retq   

000000000040750e <_ZSt7forwardIPFvvEEOT_RNSt16remove_referenceIS2_E4typeE>:
  40750e:	55                   	push   %rbp
  40750f:	48 89 e5             	mov    %rsp,%rbp
  407512:	48 89 7d f8          	mov    %rdi,-0x8(%rbp)
  407516:	48 8b 45 f8          	mov    -0x8(%rbp),%rax
  40751a:	5d                   	pop    %rbp
  40751b:	c3                   	retq   

000000000040751c <_ZNSt10_Head_baseILm0EPFvvELb0EEC1IS1_EEOT_>:
  40751c:	55                   	push   %rbp
  40751d:	48 89 e5             	mov    %rsp,%rbp
  407520:	48 83 ec 10          	sub    $0x10,%rsp
  407524:	48 89 7d f8          	mov    %rdi,-0x8(%rbp)
  407528:	48 89 75 f0          	mov    %rsi,-0x10(%rbp)
  40752c:	48 8b 45 f0          	mov    -0x10(%rbp),%rax
  407530:	48 89 c7             	mov    %rax,%rdi
  407533:	e8 d6 ff ff ff       	callq  40750e <_ZSt7forwardIPFvvEEOT_RNSt16remove_referenceIS2_E4typeE>
  407538:	48 8b 10             	mov    (%rax),%rdx
  40753b:	48 8b 45 f8          	mov    -0x8(%rbp),%rax
  40753f:	48 89 10             	mov    %rdx,(%rax)
  407542:	90                   	nop
  407543:	c9                   	leaveq 
  407544:	c3                   	retq   

0000000000407545 <_ZSt9call_onceIRFvvEIEEvRSt9once_flagOT_DpOT0_>:
  407545:	55                   	push   %rbp
  407546:	48 89 e5             	mov    %rsp,%rbp
  407549:	48 83 ec 30          	sub    $0x30,%rsp
  40754d:	48 89 7d d8          	mov    %rdi,-0x28(%rbp)
  407551:	48 89 75 d0          	mov    %rsi,-0x30(%rbp)
  407555:	64 48 8b 04 25 28 00 	mov    %fs:0x28,%rax
  40755c:	00 00 
  40755e:	48 89 45 f8          	mov    %rax,-0x8(%rbp)
  407562:	31 c0                	xor    %eax,%eax
  407564:	48 8b 45 d0          	mov    -0x30(%rbp),%rax
  407568:	48 89 c7             	mov    %rax,%rdi
  40756b:	e8 68 ff ff ff       	callq  4074d8 <_ZSt7forwardIRFvvEEOT_RNSt16remove_referenceIS2_E4typeE>
  407570:	48 89 c2             	mov    %rax,%rdx
  407573:	48 8d 45 f0          	lea    -0x10(%rbp),%rax
  407577:	48 89 d6             	mov    %rdx,%rsi
  40757a:	48 89 c7             	mov    %rax,%rdi
  40757d:	e8 94 14 00 00       	callq  408a16 <_ZSt13__bind_simpleIRFvvEIEENSt19_Bind_simple_helperIT_IDpT0_EE6__typeEOS3_DpOS4_>
  407582:	48 8d 45 f0          	lea    -0x10(%rbp),%rax
  407586:	48 89 c7             	mov    %rax,%rdi
  407589:	e8 ef 14 00 00       	callq  408a7d <_ZSt11__addressofISt12_Bind_simpleIFPFvvEvEEEPT_RS5_>
  40758e:	48 89 c2             	mov    %rax,%rdx
  407591:	48 8b 05 50 ba 20 00 	mov    0x20ba50(%rip),%rax        # 612fe8 <_DYNAMIC+0x220>
  407598:	64 48 89 10          	mov    %rdx,%fs:(%rax)
  40759c:	48 8b 05 4d ba 20 00 	mov    0x20ba4d(%rip),%rax        # 612ff0 <_DYNAMIC+0x228>
  4075a3:	64 48 c7 00 8b 8a 40 	movq   $0x408a8b,%fs:(%rax)
  4075aa:	00 
  4075ab:	48 8b 45 d8          	mov    -0x28(%rbp),%rax
  4075af:	be b0 3f 40 00       	mov    $0x403fb0,%esi
  4075b4:	48 89 c7             	mov    %rax,%rdi
  4075b7:	e8 70 cc ff ff       	callq  40422c <_ZL14__gthread_oncePiPFvvE>
  4075bc:	89 45 ec             	mov    %eax,-0x14(%rbp)
  4075bf:	83 7d ec 00          	cmpl   $0x0,-0x14(%rbp)
  4075c3:	74 0a                	je     4075cf <_ZSt9call_onceIRFvvEIEEvRSt9once_flagOT_DpOT0_+0x8a>
  4075c5:	8b 45 ec             	mov    -0x14(%rbp),%eax
  4075c8:	89 c7                	mov    %eax,%edi
  4075ca:	e8 e1 c7 ff ff       	callq  403db0 <_ZSt20__throw_system_errori@plt>
  4075cf:	90                   	nop
  4075d0:	48 8b 45 f8          	mov    -0x8(%rbp),%rax
  4075d4:	64 48 33 04 25 28 00 	xor    %fs:0x28,%rax
  4075db:	00 00 
  4075dd:	74 05                	je     4075e4 <_ZSt9call_onceIRFvvEIEEvRSt9once_flagOT_DpOT0_+0x9f>
  4075df:	e8 6c c8 ff ff       	callq  403e50 <__stack_chk_fail@plt>
  4075e4:	c9                   	leaveq 
  4075e5:	c3                   	retq   

00000000004075e6 <_ZNSaIP15_cl_platform_idEC1Ev>:
  4075e6:	55                   	push   %rbp
  4075e7:	48 89 e5             	mov    %rsp,%rbp
  4075ea:	48 83 ec 10          	sub    $0x10,%rsp
  4075ee:	48 89 7d f8          	mov    %rdi,-0x8(%rbp)
  4075f2:	48 8b 45 f8          	mov    -0x8(%rbp),%rax
  4075f6:	48 89 c7             	mov    %rax,%rdi
  4075f9:	e8 a8 14 00 00       	callq  408aa6 <_ZN9__gnu_cxx13new_allocatorIP15_cl_platform_idEC1Ev>
  4075fe:	90                   	nop
  4075ff:	c9                   	leaveq 
  407600:	c3                   	retq   
  407601:	90                   	nop

0000000000407602 <_ZNSaIP15_cl_platform_idED1Ev>:
  407602:	55                   	push   %rbp
  407603:	48 89 e5             	mov    %rsp,%rbp
  407606:	48 83 ec 10          	sub    $0x10,%rsp
  40760a:	48 89 7d f8          	mov    %rdi,-0x8(%rbp)
  40760e:	48 8b 45 f8          	mov    -0x8(%rbp),%rax
  407612:	48 89 c7             	mov    %rax,%rdi
  407615:	e8 98 14 00 00       	callq  408ab2 <_ZN9__gnu_cxx13new_allocatorIP15_cl_platform_idED1Ev>
  40761a:	90                   	nop
  40761b:	c9                   	leaveq 
  40761c:	c3                   	retq   
  40761d:	90                   	nop

000000000040761e <_ZNSt6vectorIP15_cl_platform_idSaIS1_EEC1EmRKS2_>:
  40761e:	55                   	push   %rbp
  40761f:	48 89 e5             	mov    %rsp,%rbp
  407622:	53                   	push   %rbx
  407623:	48 83 ec 28          	sub    $0x28,%rsp
  407627:	48 89 7d e8          	mov    %rdi,-0x18(%rbp)
  40762b:	48 89 75 e0          	mov    %rsi,-0x20(%rbp)
  40762f:	48 89 55 d8          	mov    %rdx,-0x28(%rbp)
  407633:	48 8b 45 e8          	mov    -0x18(%rbp),%rax
  407637:	48 8b 55 d8          	mov    -0x28(%rbp),%rdx
  40763b:	48 8b 4d e0          	mov    -0x20(%rbp),%rcx
  40763f:	48 89 ce             	mov    %rcx,%rsi
  407642:	48 89 c7             	mov    %rax,%rdi
  407645:	e8 90 14 00 00       	callq  408ada <_ZNSt12_Vector_baseIP15_cl_platform_idSaIS1_EEC1EmRKS2_>
  40764a:	48 8b 55 e0          	mov    -0x20(%rbp),%rdx
  40764e:	48 8b 45 e8          	mov    -0x18(%rbp),%rax
  407652:	48 89 d6             	mov    %rdx,%rsi
  407655:	48 89 c7             	mov    %rax,%rdi
  407658:	e8 2b 15 00 00       	callq  408b88 <_ZNSt6vectorIP15_cl_platform_idSaIS1_EE21_M_default_initializeEm>
  40765d:	eb 1a                	jmp    407679 <_ZNSt6vectorIP15_cl_platform_idSaIS1_EEC1EmRKS2_+0x5b>
  40765f:	48 89 c3             	mov    %rax,%rbx
  407662:	48 8b 45 e8          	mov    -0x18(%rbp),%rax
  407666:	48 89 c7             	mov    %rax,%rdi
  407669:	e8 ca 14 00 00       	callq  408b38 <_ZNSt12_Vector_baseIP15_cl_platform_idSaIS1_EED1Ev>
  40766e:	48 89 d8             	mov    %rbx,%rax
  407671:	48 89 c7             	mov    %rax,%rdi
  407674:	e8 f7 c9 ff ff       	callq  404070 <_Unwind_Resume@plt>
  407679:	48 83 c4 28          	add    $0x28,%rsp
  40767d:	5b                   	pop    %rbx
  40767e:	5d                   	pop    %rbp
  40767f:	c3                   	retq   

0000000000407680 <_ZNSt6vectorIP15_cl_platform_idSaIS1_EED1Ev>:
  407680:	55                   	push   %rbp
  407681:	48 89 e5             	mov    %rsp,%rbp
  407684:	48 83 ec 10          	sub    $0x10,%rsp
  407688:	48 89 7d f8          	mov    %rdi,-0x8(%rbp)
  40768c:	48 8b 45 f8          	mov    -0x8(%rbp),%rax
  407690:	48 89 c7             	mov    %rax,%rdi
  407693:	e8 34 15 00 00       	callq  408bcc <_ZNSt12_Vector_baseIP15_cl_platform_idSaIS1_EE19_M_get_Tp_allocatorEv>
  407698:	48 89 c2             	mov    %rax,%rdx
  40769b:	48 8b 45 f8          	mov    -0x8(%rbp),%rax
  40769f:	48 8b 48 08          	mov    0x8(%rax),%rcx
  4076a3:	48 8b 45 f8          	mov    -0x8(%rbp),%rax
  4076a7:	48 8b 00             	mov    (%rax),%rax
  4076aa:	48 89 ce             	mov    %rcx,%rsi
  4076ad:	48 89 c7             	mov    %rax,%rdi
  4076b0:	e8 25 15 00 00       	callq  408bda <_ZSt8_DestroyIPP15_cl_platform_idS1_EvT_S3_RSaIT0_E>
  4076b5:	48 8b 45 f8          	mov    -0x8(%rbp),%rax
  4076b9:	48 89 c7             	mov    %rax,%rdi
  4076bc:	e8 77 14 00 00       	callq  408b38 <_ZNSt12_Vector_baseIP15_cl_platform_idSaIS1_EED1Ev>
  4076c1:	90                   	nop
  4076c2:	c9                   	leaveq 
  4076c3:	c3                   	retq   

00000000004076c4 <_ZNSt6vectorIP15_cl_platform_idSaIS1_EE4dataEv>:
  4076c4:	55                   	push   %rbp
  4076c5:	48 89 e5             	mov    %rsp,%rbp
  4076c8:	48 83 ec 10          	sub    $0x10,%rsp
  4076cc:	48 89 7d f8          	mov    %rdi,-0x8(%rbp)
  4076d0:	48 8b 45 f8          	mov    -0x8(%rbp),%rax
  4076d4:	48 8b 10             	mov    (%rax),%rdx
  4076d7:	48 8b 45 f8          	mov    -0x8(%rbp),%rax
  4076db:	48 89 d6             	mov    %rdx,%rsi
  4076de:	48 89 c7             	mov    %rax,%rdi
  4076e1:	e8 1e 15 00 00       	callq  408c04 <_ZNKSt6vectorIP15_cl_platform_idSaIS1_EE11_M_data_ptrIS1_EEPT_S6_>
  4076e6:	c9                   	leaveq 
  4076e7:	c3                   	retq   

00000000004076e8 <_ZNSt6vectorIP15_cl_platform_idSaIS1_EEixEm>:
  4076e8:	55                   	push   %rbp
  4076e9:	48 89 e5             	mov    %rsp,%rbp
  4076ec:	48 89 7d f8          	mov    %rdi,-0x8(%rbp)
  4076f0:	48 89 75 f0          	mov    %rsi,-0x10(%rbp)
  4076f4:	48 8b 45 f8          	mov    -0x8(%rbp),%rax
  4076f8:	48 8b 00             	mov    (%rax),%rax
  4076fb:	48 8b 55 f0          	mov    -0x10(%rbp),%rdx
  4076ff:	48 c1 e2 03          	shl    $0x3,%rdx
  407703:	48 01 d0             	add    %rdx,%rax
  407706:	5d                   	pop    %rbp
  407707:	c3                   	retq   

0000000000407708 <_ZN2cl6detail7WrapperIP15_cl_platform_idED1Ev>:
  407708:	55                   	push   %rbp
  407709:	48 89 e5             	mov    %rsp,%rbp
  40770c:	48 83 ec 10          	sub    $0x10,%rsp
  407710:	48 89 7d f8          	mov    %rdi,-0x8(%rbp)
  407714:	48 8b 45 f8          	mov    -0x8(%rbp),%rax
  407718:	48 8b 00             	mov    (%rax),%rax
  40771b:	48 85 c0             	test   %rax,%rax
  40771e:	74 0c                	je     40772c <_ZN2cl6detail7WrapperIP15_cl_platform_idED1Ev+0x24>
  407720:	48 8b 45 f8          	mov    -0x8(%rbp),%rax
  407724:	48 89 c7             	mov    %rax,%rdi
  407727:	e8 ea 14 00 00       	callq  408c16 <_ZNK2cl6detail7WrapperIP15_cl_platform_idE7releaseEv>
  40772c:	90                   	nop
  40772d:	c9                   	leaveq 
  40772e:	c3                   	retq   
  40772f:	90                   	nop

0000000000407730 <_ZN2cl6detail7WrapperIP15_cl_platform_idEaSEOS4_>:
  407730:	55                   	push   %rbp
  407731:	48 89 e5             	mov    %rsp,%rbp
  407734:	48 83 ec 10          	sub    $0x10,%rsp
  407738:	48 89 7d f8          	mov    %rdi,-0x8(%rbp)
  40773c:	48 89 75 f0          	mov    %rsi,-0x10(%rbp)
  407740:	48 8b 45 f8          	mov    -0x8(%rbp),%rax
  407744:	48 3b 45 f0          	cmp    -0x10(%rbp),%rax
  407748:	74 31                	je     40777b <_ZN2cl6detail7WrapperIP15_cl_platform_idEaSEOS4_+0x4b>
  40774a:	48 8b 45 f8          	mov    -0x8(%rbp),%rax
  40774e:	48 89 c7             	mov    %rax,%rdi
  407751:	e8 c0 14 00 00       	callq  408c16 <_ZNK2cl6detail7WrapperIP15_cl_platform_idE7releaseEv>
  407756:	be a2 c6 40 00       	mov    $0x40c6a2,%esi
  40775b:	89 c7                	mov    %eax,%edi
  40775d:	e8 8b cb ff ff       	callq  4042ed <_ZN2cl6detailL10errHandlerEiPKc>
  407762:	48 8b 45 f0          	mov    -0x10(%rbp),%rax
  407766:	48 8b 10             	mov    (%rax),%rdx
  407769:	48 8b 45 f8          	mov    -0x8(%rbp),%rax
  40776d:	48 89 10             	mov    %rdx,(%rax)
  407770:	48 8b 45 f0          	mov    -0x10(%rbp),%rax
  407774:	48 c7 00 00 00 00 00 	movq   $0x0,(%rax)
  40777b:	48 8b 45 f8          	mov    -0x8(%rbp),%rax
  40777f:	c9                   	leaveq 
  407780:	c3                   	retq   
  407781:	90                   	nop

0000000000407782 <_ZN2cl6detail7WrapperIP15_cl_platform_idEC1Ev>:
  407782:	55                   	push   %rbp
  407783:	48 89 e5             	mov    %rsp,%rbp
  407786:	48 89 7d f8          	mov    %rdi,-0x8(%rbp)
  40778a:	48 8b 45 f8          	mov    -0x8(%rbp),%rax
  40778e:	48 c7 00 00 00 00 00 	movq   $0x0,(%rax)
  407795:	90                   	nop
  407796:	5d                   	pop    %rbp
  407797:	c3                   	retq   

0000000000407798 <_ZN2cl6detail7WrapperIP15_cl_platform_idEC1ERKS3_b>:
  407798:	55                   	push   %rbp
  407799:	48 89 e5             	mov    %rsp,%rbp
  40779c:	48 83 ec 20          	sub    $0x20,%rsp
  4077a0:	48 89 7d f8          	mov    %rdi,-0x8(%rbp)
  4077a4:	48 89 75 f0          	mov    %rsi,-0x10(%rbp)
  4077a8:	89 d0                	mov    %edx,%eax
  4077aa:	88 45 ec             	mov    %al,-0x14(%rbp)
  4077ad:	48 8b 45 f0          	mov    -0x10(%rbp),%rax
  4077b1:	48 8b 10             	mov    (%rax),%rdx
  4077b4:	48 8b 45 f8          	mov    -0x8(%rbp),%rax
  4077b8:	48 89 10             	mov    %rdx,(%rax)
  4077bb:	80 7d ec 00          	cmpb   $0x0,-0x14(%rbp)
  4077bf:	74 18                	je     4077d9 <_ZN2cl6detail7WrapperIP15_cl_platform_idEC1ERKS3_b+0x41>
  4077c1:	48 8b 45 f8          	mov    -0x8(%rbp),%rax
  4077c5:	48 89 c7             	mov    %rax,%rdi
  4077c8:	e8 79 14 00 00       	callq  408c46 <_ZNK2cl6detail7WrapperIP15_cl_platform_idE6retainEv>
  4077cd:	be 94 c6 40 00       	mov    $0x40c694,%esi
  4077d2:	89 c7                	mov    %eax,%edi
  4077d4:	e8 14 cb ff ff       	callq  4042ed <_ZN2cl6detailL10errHandlerEiPKc>
  4077d9:	90                   	nop
  4077da:	c9                   	leaveq 
  4077db:	c3                   	retq   

00000000004077dc <_ZN2cl6detail7WrapperIP15_cl_platform_idEC1ERKS4_>:
  4077dc:	55                   	push   %rbp
  4077dd:	48 89 e5             	mov    %rsp,%rbp
  4077e0:	48 83 ec 10          	sub    $0x10,%rsp
  4077e4:	48 89 7d f8          	mov    %rdi,-0x8(%rbp)
  4077e8:	48 89 75 f0          	mov    %rsi,-0x10(%rbp)
  4077ec:	48 8b 45 f0          	mov    -0x10(%rbp),%rax
  4077f0:	48 8b 10             	mov    (%rax),%rdx
  4077f3:	48 8b 45 f8          	mov    -0x8(%rbp),%rax
  4077f7:	48 89 10             	mov    %rdx,(%rax)
  4077fa:	48 8b 45 f8          	mov    -0x8(%rbp),%rax
  4077fe:	48 89 c7             	mov    %rax,%rdi
  407801:	e8 40 14 00 00       	callq  408c46 <_ZNK2cl6detail7WrapperIP15_cl_platform_idE6retainEv>
  407806:	be 94 c6 40 00       	mov    $0x40c694,%esi
  40780b:	89 c7                	mov    %eax,%edi
  40780d:	e8 db ca ff ff       	callq  4042ed <_ZN2cl6detailL10errHandlerEiPKc>
  407812:	90                   	nop
  407813:	c9                   	leaveq 
  407814:	c3                   	retq   
  407815:	90                   	nop

0000000000407816 <_ZNSaIP13_cl_device_idEC1Ev>:
  407816:	55                   	push   %rbp
  407817:	48 89 e5             	mov    %rsp,%rbp
  40781a:	48 83 ec 10          	sub    $0x10,%rsp
  40781e:	48 89 7d f8          	mov    %rdi,-0x8(%rbp)
  407822:	48 8b 45 f8          	mov    -0x8(%rbp),%rax
  407826:	48 89 c7             	mov    %rax,%rdi
  407829:	e8 48 14 00 00       	callq  408c76 <_ZN9__gnu_cxx13new_allocatorIP13_cl_device_idEC1Ev>
  40782e:	90                   	nop
  40782f:	c9                   	leaveq 
  407830:	c3                   	retq   
  407831:	90                   	nop

0000000000407832 <_ZNSaIP13_cl_device_idED1Ev>:
  407832:	55                   	push   %rbp
  407833:	48 89 e5             	mov    %rsp,%rbp
  407836:	48 83 ec 10          	sub    $0x10,%rsp
  40783a:	48 89 7d f8          	mov    %rdi,-0x8(%rbp)
  40783e:	48 8b 45 f8          	mov    -0x8(%rbp),%rax
  407842:	48 89 c7             	mov    %rax,%rdi
  407845:	e8 38 14 00 00       	callq  408c82 <_ZN9__gnu_cxx13new_allocatorIP13_cl_device_idED1Ev>
  40784a:	90                   	nop
  40784b:	c9                   	leaveq 
  40784c:	c3                   	retq   
  40784d:	90                   	nop

000000000040784e <_ZNSt6vectorIP13_cl_device_idSaIS1_EEC1EmRKS2_>:
  40784e:	55                   	push   %rbp
  40784f:	48 89 e5             	mov    %rsp,%rbp
  407852:	53                   	push   %rbx
  407853:	48 83 ec 28          	sub    $0x28,%rsp
  407857:	48 89 7d e8          	mov    %rdi,-0x18(%rbp)
  40785b:	48 89 75 e0          	mov    %rsi,-0x20(%rbp)
  40785f:	48 89 55 d8          	mov    %rdx,-0x28(%rbp)
  407863:	48 8b 45 e8          	mov    -0x18(%rbp),%rax
  407867:	48 8b 55 d8          	mov    -0x28(%rbp),%rdx
  40786b:	48 8b 4d e0          	mov    -0x20(%rbp),%rcx
  40786f:	48 89 ce             	mov    %rcx,%rsi
  407872:	48 89 c7             	mov    %rax,%rdi
  407875:	e8 30 14 00 00       	callq  408caa <_ZNSt12_Vector_baseIP13_cl_device_idSaIS1_EEC1EmRKS2_>
  40787a:	48 8b 55 e0          	mov    -0x20(%rbp),%rdx
  40787e:	48 8b 45 e8          	mov    -0x18(%rbp),%rax
  407882:	48 89 d6             	mov    %rdx,%rsi
  407885:	48 89 c7             	mov    %rax,%rdi
  407888:	e8 cb 14 00 00       	callq  408d58 <_ZNSt6vectorIP13_cl_device_idSaIS1_EE21_M_default_initializeEm>
  40788d:	eb 1a                	jmp    4078a9 <_ZNSt6vectorIP13_cl_device_idSaIS1_EEC1EmRKS2_+0x5b>
  40788f:	48 89 c3             	mov    %rax,%rbx
  407892:	48 8b 45 e8          	mov    -0x18(%rbp),%rax
  407896:	48 89 c7             	mov    %rax,%rdi
  407899:	e8 6a 14 00 00       	callq  408d08 <_ZNSt12_Vector_baseIP13_cl_device_idSaIS1_EED1Ev>
  40789e:	48 89 d8             	mov    %rbx,%rax
  4078a1:	48 89 c7             	mov    %rax,%rdi
  4078a4:	e8 c7 c7 ff ff       	callq  404070 <_Unwind_Resume@plt>
  4078a9:	48 83 c4 28          	add    $0x28,%rsp
  4078ad:	5b                   	pop    %rbx
  4078ae:	5d                   	pop    %rbp
  4078af:	c3                   	retq   

00000000004078b0 <_ZNSt6vectorIP13_cl_device_idSaIS1_EED1Ev>:
  4078b0:	55                   	push   %rbp
  4078b1:	48 89 e5             	mov    %rsp,%rbp
  4078b4:	48 83 ec 10          	sub    $0x10,%rsp
  4078b8:	48 89 7d f8          	mov    %rdi,-0x8(%rbp)
  4078bc:	48 8b 45 f8          	mov    -0x8(%rbp),%rax
  4078c0:	48 89 c7             	mov    %rax,%rdi
  4078c3:	e8 d4 14 00 00       	callq  408d9c <_ZNSt12_Vector_baseIP13_cl_device_idSaIS1_EE19_M_get_Tp_allocatorEv>
  4078c8:	48 89 c2             	mov    %rax,%rdx
  4078cb:	48 8b 45 f8          	mov    -0x8(%rbp),%rax
  4078cf:	48 8b 48 08          	mov    0x8(%rax),%rcx
  4078d3:	48 8b 45 f8          	mov    -0x8(%rbp),%rax
  4078d7:	48 8b 00             	mov    (%rax),%rax
  4078da:	48 89 ce             	mov    %rcx,%rsi
  4078dd:	48 89 c7             	mov    %rax,%rdi
  4078e0:	e8 c5 14 00 00       	callq  408daa <_ZSt8_DestroyIPP13_cl_device_idS1_EvT_S3_RSaIT0_E>
  4078e5:	48 8b 45 f8          	mov    -0x8(%rbp),%rax
  4078e9:	48 89 c7             	mov    %rax,%rdi
  4078ec:	e8 17 14 00 00       	callq  408d08 <_ZNSt12_Vector_baseIP13_cl_device_idSaIS1_EED1Ev>
  4078f1:	90                   	nop
  4078f2:	c9                   	leaveq 
  4078f3:	c3                   	retq   

00000000004078f4 <_ZNSt6vectorIP13_cl_device_idSaIS1_EE4dataEv>:
  4078f4:	55                   	push   %rbp
  4078f5:	48 89 e5             	mov    %rsp,%rbp
  4078f8:	48 83 ec 10          	sub    $0x10,%rsp
  4078fc:	48 89 7d f8          	mov    %rdi,-0x8(%rbp)
  407900:	48 8b 45 f8          	mov    -0x8(%rbp),%rax
  407904:	48 8b 10             	mov    (%rax),%rdx
  407907:	48 8b 45 f8          	mov    -0x8(%rbp),%rax
  40790b:	48 89 d6             	mov    %rdx,%rsi
  40790e:	48 89 c7             	mov    %rax,%rdi
  407911:	e8 be 14 00 00       	callq  408dd4 <_ZNKSt6vectorIP13_cl_device_idSaIS1_EE11_M_data_ptrIS1_EEPT_S6_>
  407916:	c9                   	leaveq 
  407917:	c3                   	retq   

0000000000407918 <_ZNKSt6vectorIP13_cl_device_idSaIS1_EE4sizeEv>:
  407918:	55                   	push   %rbp
  407919:	48 89 e5             	mov    %rsp,%rbp
  40791c:	48 89 7d f8          	mov    %rdi,-0x8(%rbp)
  407920:	48 8b 45 f8          	mov    -0x8(%rbp),%rax
  407924:	48 8b 40 08          	mov    0x8(%rax),%rax
  407928:	48 89 c2             	mov    %rax,%rdx
  40792b:	48 8b 45 f8          	mov    -0x8(%rbp),%rax
  40792f:	48 8b 00             	mov    (%rax),%rax
  407932:	48 29 c2             	sub    %rax,%rdx
  407935:	48 89 d0             	mov    %rdx,%rax
  407938:	48 c1 f8 03          	sar    $0x3,%rax
  40793c:	5d                   	pop    %rbp
  40793d:	c3                   	retq   

000000000040793e <_ZNSt6vectorIN2cl6DeviceESaIS1_EE6resizeEm>:
  40793e:	55                   	push   %rbp
  40793f:	48 89 e5             	mov    %rsp,%rbp
  407942:	48 83 ec 10          	sub    $0x10,%rsp
  407946:	48 89 7d f8          	mov    %rdi,-0x8(%rbp)
  40794a:	48 89 75 f0          	mov    %rsi,-0x10(%rbp)
  40794e:	48 8b 45 f8          	mov    -0x8(%rbp),%rax
  407952:	48 89 c7             	mov    %rax,%rdi
  407955:	e8 f6 01 00 00       	callq  407b50 <_ZNKSt6vectorIN2cl6DeviceESaIS1_EE4sizeEv>
  40795a:	48 3b 45 f0          	cmp    -0x10(%rbp),%rax
  40795e:	0f 92 c0             	setb   %al
  407961:	84 c0                	test   %al,%al
  407963:	74 2a                	je     40798f <_ZNSt6vectorIN2cl6DeviceESaIS1_EE6resizeEm+0x51>
  407965:	48 8b 45 f8          	mov    -0x8(%rbp),%rax
  407969:	48 89 c7             	mov    %rax,%rdi
  40796c:	e8 df 01 00 00       	callq  407b50 <_ZNKSt6vectorIN2cl6DeviceESaIS1_EE4sizeEv>
  407971:	48 89 c2             	mov    %rax,%rdx
  407974:	48 8b 45 f0          	mov    -0x10(%rbp),%rax
  407978:	48 29 d0             	sub    %rdx,%rax
  40797b:	48 89 c2             	mov    %rax,%rdx
  40797e:	48 8b 45 f8          	mov    -0x8(%rbp),%rax
  407982:	48 89 d6             	mov    %rdx,%rsi
  407985:	48 89 c7             	mov    %rax,%rdi
  407988:	e8 59 14 00 00       	callq  408de6 <_ZNSt6vectorIN2cl6DeviceESaIS1_EE17_M_default_appendEm>
  40798d:	eb 38                	jmp    4079c7 <_ZNSt6vectorIN2cl6DeviceESaIS1_EE6resizeEm+0x89>
  40798f:	48 8b 45 f8          	mov    -0x8(%rbp),%rax
  407993:	48 89 c7             	mov    %rax,%rdi
  407996:	e8 b5 01 00 00       	callq  407b50 <_ZNKSt6vectorIN2cl6DeviceESaIS1_EE4sizeEv>
  40799b:	48 3b 45 f0          	cmp    -0x10(%rbp),%rax
  40799f:	0f 97 c0             	seta   %al
  4079a2:	84 c0                	test   %al,%al
  4079a4:	74 21                	je     4079c7 <_ZNSt6vectorIN2cl6DeviceESaIS1_EE6resizeEm+0x89>
  4079a6:	48 8b 45 f8          	mov    -0x8(%rbp),%rax
  4079aa:	48 8b 00             	mov    (%rax),%rax
  4079ad:	48 8b 55 f0          	mov    -0x10(%rbp),%rdx
  4079b1:	48 c1 e2 04          	shl    $0x4,%rdx
  4079b5:	48 01 c2             	add    %rax,%rdx
  4079b8:	48 8b 45 f8          	mov    -0x8(%rbp),%rax
  4079bc:	48 89 d6             	mov    %rdx,%rsi
  4079bf:	48 89 c7             	mov    %rax,%rdi
  4079c2:	e8 25 16 00 00       	callq  408fec <_ZNSt6vectorIN2cl6DeviceESaIS1_EE15_M_erase_at_endEPS1_>
  4079c7:	90                   	nop
  4079c8:	c9                   	leaveq 
  4079c9:	c3                   	retq   

00000000004079ca <_ZNSt6vectorIN2cl6DeviceESaIS1_EEixEm>:
  4079ca:	55                   	push   %rbp
  4079cb:	48 89 e5             	mov    %rsp,%rbp
  4079ce:	48 89 7d f8          	mov    %rdi,-0x8(%rbp)
  4079d2:	48 89 75 f0          	mov    %rsi,-0x10(%rbp)
  4079d6:	48 8b 45 f8          	mov    -0x8(%rbp),%rax
  4079da:	48 8b 00             	mov    (%rax),%rax
  4079dd:	48 8b 55 f0          	mov    -0x10(%rbp),%rdx
  4079e1:	48 c1 e2 04          	shl    $0x4,%rdx
  4079e5:	48 01 d0             	add    %rdx,%rax
  4079e8:	5d                   	pop    %rbp
  4079e9:	c3                   	retq   

00000000004079ea <_ZNSt6vectorIP13_cl_device_idSaIS1_EEixEm>:
  4079ea:	55                   	push   %rbp
  4079eb:	48 89 e5             	mov    %rsp,%rbp
  4079ee:	48 89 7d f8          	mov    %rdi,-0x8(%rbp)
  4079f2:	48 89 75 f0          	mov    %rsi,-0x10(%rbp)
  4079f6:	48 8b 45 f8          	mov    -0x8(%rbp),%rax
  4079fa:	48 8b 00             	mov    (%rax),%rax
  4079fd:	48 8b 55 f0          	mov    -0x10(%rbp),%rdx
  407a01:	48 c1 e2 03          	shl    $0x3,%rdx
  407a05:	48 01 d0             	add    %rdx,%rax
  407a08:	5d                   	pop    %rbp
  407a09:	c3                   	retq   

0000000000407a0a <_ZNKSt6vectorIP15_cl_platform_idSaIS1_EE4sizeEv>:
  407a0a:	55                   	push   %rbp
  407a0b:	48 89 e5             	mov    %rsp,%rbp
  407a0e:	48 89 7d f8          	mov    %rdi,-0x8(%rbp)
  407a12:	48 8b 45 f8          	mov    -0x8(%rbp),%rax
  407a16:	48 8b 40 08          	mov    0x8(%rax),%rax
  407a1a:	48 89 c2             	mov    %rax,%rdx
  407a1d:	48 8b 45 f8          	mov    -0x8(%rbp),%rax
  407a21:	48 8b 00             	mov    (%rax),%rax
  407a24:	48 29 c2             	sub    %rax,%rdx
  407a27:	48 89 d0             	mov    %rdx,%rax
  407a2a:	48 c1 f8 03          	sar    $0x3,%rax
  407a2e:	5d                   	pop    %rbp
  407a2f:	c3                   	retq   

0000000000407a30 <_ZNSt6vectorIN2cl8PlatformESaIS1_EE6resizeEm>:
  407a30:	55                   	push   %rbp
  407a31:	48 89 e5             	mov    %rsp,%rbp
  407a34:	48 83 ec 10          	sub    $0x10,%rsp
  407a38:	48 89 7d f8          	mov    %rdi,-0x8(%rbp)
  407a3c:	48 89 75 f0          	mov    %rsi,-0x10(%rbp)
  407a40:	48 8b 45 f8          	mov    -0x8(%rbp),%rax
  407a44:	48 89 c7             	mov    %rax,%rdi
  407a47:	e8 8a 01 00 00       	callq  407bd6 <_ZNKSt6vectorIN2cl8PlatformESaIS1_EE4sizeEv>
  407a4c:	48 3b 45 f0          	cmp    -0x10(%rbp),%rax
  407a50:	0f 92 c0             	setb   %al
  407a53:	84 c0                	test   %al,%al
  407a55:	74 2a                	je     407a81 <_ZNSt6vectorIN2cl8PlatformESaIS1_EE6resizeEm+0x51>
  407a57:	48 8b 45 f8          	mov    -0x8(%rbp),%rax
  407a5b:	48 89 c7             	mov    %rax,%rdi
  407a5e:	e8 73 01 00 00       	callq  407bd6 <_ZNKSt6vectorIN2cl8PlatformESaIS1_EE4sizeEv>
  407a63:	48 89 c2             	mov    %rax,%rdx
  407a66:	48 8b 45 f0          	mov    -0x10(%rbp),%rax
  407a6a:	48 29 d0             	sub    %rdx,%rax
  407a6d:	48 89 c2             	mov    %rax,%rdx
  407a70:	48 8b 45 f8          	mov    -0x8(%rbp),%rax
  407a74:	48 89 d6             	mov    %rdx,%rsi
  407a77:	48 89 c7             	mov    %rax,%rdi
  407a7a:	e8 b3 15 00 00       	callq  409032 <_ZNSt6vectorIN2cl8PlatformESaIS1_EE17_M_default_appendEm>
  407a7f:	eb 38                	jmp    407ab9 <_ZNSt6vectorIN2cl8PlatformESaIS1_EE6resizeEm+0x89>
  407a81:	48 8b 45 f8          	mov    -0x8(%rbp),%rax
  407a85:	48 89 c7             	mov    %rax,%rdi
  407a88:	e8 49 01 00 00       	callq  407bd6 <_ZNKSt6vectorIN2cl8PlatformESaIS1_EE4sizeEv>
  407a8d:	48 3b 45 f0          	cmp    -0x10(%rbp),%rax
  407a91:	0f 97 c0             	seta   %al
  407a94:	84 c0                	test   %al,%al
  407a96:	74 21                	je     407ab9 <_ZNSt6vectorIN2cl8PlatformESaIS1_EE6resizeEm+0x89>
  407a98:	48 8b 45 f8          	mov    -0x8(%rbp),%rax
  407a9c:	48 8b 00             	mov    (%rax),%rax
  407a9f:	48 8b 55 f0          	mov    -0x10(%rbp),%rdx
  407aa3:	48 c1 e2 03          	shl    $0x3,%rdx
  407aa7:	48 01 c2             	add    %rax,%rdx
  407aaa:	48 8b 45 f8          	mov    -0x8(%rbp),%rax
  407aae:	48 89 d6             	mov    %rdx,%rsi
  407ab1:	48 89 c7             	mov    %rax,%rdi
  407ab4:	e8 81 17 00 00       	callq  40923a <_ZNSt6vectorIN2cl8PlatformESaIS1_EE15_M_erase_at_endEPS1_>
  407ab9:	90                   	nop
  407aba:	c9                   	leaveq 
  407abb:	c3                   	retq   

0000000000407abc <_ZNSt6vectorIN2cl8PlatformESaIS1_EEixEm>:
  407abc:	55                   	push   %rbp
  407abd:	48 89 e5             	mov    %rsp,%rbp
  407ac0:	48 89 7d f8          	mov    %rdi,-0x8(%rbp)
  407ac4:	48 89 75 f0          	mov    %rsi,-0x10(%rbp)
  407ac8:	48 8b 45 f8          	mov    -0x8(%rbp),%rax
  407acc:	48 8b 00             	mov    (%rax),%rax
  407acf:	48 8b 55 f0          	mov    -0x10(%rbp),%rdx
  407ad3:	48 c1 e2 03          	shl    $0x3,%rdx
  407ad7:	48 01 d0             	add    %rdx,%rax
  407ada:	5d                   	pop    %rbp
  407adb:	c3                   	retq   

0000000000407adc <_ZN2cl6detail7WrapperIP15_cl_platform_idEC1EOS4_>:
  407adc:	55                   	push   %rbp
  407add:	48 89 e5             	mov    %rsp,%rbp
  407ae0:	48 89 7d f8          	mov    %rdi,-0x8(%rbp)
  407ae4:	48 89 75 f0          	mov    %rsi,-0x10(%rbp)
  407ae8:	48 8b 45 f0          	mov    -0x10(%rbp),%rax
  407aec:	48 8b 10             	mov    (%rax),%rdx
  407aef:	48 8b 45 f8          	mov    -0x8(%rbp),%rax
  407af3:	48 89 10             	mov    %rdx,(%rax)
  407af6:	48 8b 45 f0          	mov    -0x10(%rbp),%rax
  407afa:	48 c7 00 00 00 00 00 	movq   $0x0,(%rax)
  407b01:	90                   	nop
  407b02:	5d                   	pop    %rbp
  407b03:	c3                   	retq   

0000000000407b04 <_ZNK2cl6detail7WrapperIP15_cl_platform_idEclEv>:
  407b04:	55                   	push   %rbp
  407b05:	48 89 e5             	mov    %rsp,%rbp
  407b08:	48 89 7d f8          	mov    %rdi,-0x8(%rbp)
  407b0c:	48 8b 45 f8          	mov    -0x8(%rbp),%rax
  407b10:	5d                   	pop    %rbp
  407b11:	c3                   	retq   

0000000000407b12 <_ZN2cl6detail7WrapperIP11_cl_contextED1Ev>:
  407b12:	55                   	push   %rbp
  407b13:	48 89 e5             	mov    %rsp,%rbp
  407b16:	48 83 ec 10          	sub    $0x10,%rsp
  407b1a:	48 89 7d f8          	mov    %rdi,-0x8(%rbp)
  407b1e:	48 8b 45 f8          	mov    -0x8(%rbp),%rax
  407b22:	48 8b 00             	mov    (%rax),%rax
  407b25:	48 85 c0             	test   %rax,%rax
  407b28:	74 0c                	je     407b36 <_ZN2cl6detail7WrapperIP11_cl_contextED1Ev+0x24>
  407b2a:	48 8b 45 f8          	mov    -0x8(%rbp),%rax
  407b2e:	48 89 c7             	mov    %rax,%rdi
  407b31:	e8 4a 17 00 00       	callq  409280 <_ZNK2cl6detail7WrapperIP11_cl_contextE7releaseEv>
  407b36:	90                   	nop
  407b37:	c9                   	leaveq 
  407b38:	c3                   	retq   
  407b39:	90                   	nop

0000000000407b3a <_ZN2cl6detail7WrapperIP11_cl_contextEC1Ev>:
  407b3a:	55                   	push   %rbp
  407b3b:	48 89 e5             	mov    %rsp,%rbp
  407b3e:	48 89 7d f8          	mov    %rdi,-0x8(%rbp)
  407b42:	48 8b 45 f8          	mov    -0x8(%rbp),%rax
  407b46:	48 c7 00 00 00 00 00 	movq   $0x0,(%rax)
  407b4d:	90                   	nop
  407b4e:	5d                   	pop    %rbp
  407b4f:	c3                   	retq   

0000000000407b50 <_ZNKSt6vectorIN2cl6DeviceESaIS1_EE4sizeEv>:
  407b50:	55                   	push   %rbp
  407b51:	48 89 e5             	mov    %rsp,%rbp
  407b54:	48 89 7d f8          	mov    %rdi,-0x8(%rbp)
  407b58:	48 8b 45 f8          	mov    -0x8(%rbp),%rax
  407b5c:	48 8b 40 08          	mov    0x8(%rax),%rax
  407b60:	48 89 c2             	mov    %rax,%rdx
  407b63:	48 8b 45 f8          	mov    -0x8(%rbp),%rax
  407b67:	48 8b 00             	mov    (%rax),%rax
  407b6a:	48 29 c2             	sub    %rax,%rdx
  407b6d:	48 89 d0             	mov    %rdx,%rax
  407b70:	48 c1 f8 04          	sar    $0x4,%rax
  407b74:	5d                   	pop    %rbp
  407b75:	c3                   	retq   

0000000000407b76 <_ZNSt6vectorIN2cl8PlatformESaIS1_EEC1Ev>:
  407b76:	55                   	push   %rbp
  407b77:	48 89 e5             	mov    %rsp,%rbp
  407b7a:	48 83 ec 10          	sub    $0x10,%rsp
  407b7e:	48 89 7d f8          	mov    %rdi,-0x8(%rbp)
  407b82:	48 8b 45 f8          	mov    -0x8(%rbp),%rax
  407b86:	48 89 c7             	mov    %rax,%rdi
  407b89:	e8 3e 17 00 00       	callq  4092cc <_ZNSt12_Vector_baseIN2cl8PlatformESaIS1_EEC1Ev>
  407b8e:	90                   	nop
  407b8f:	c9                   	leaveq 
  407b90:	c3                   	retq   
  407b91:	90                   	nop

0000000000407b92 <_ZNSt6vectorIN2cl8PlatformESaIS1_EED1Ev>:
  407b92:	55                   	push   %rbp
  407b93:	48 89 e5             	mov    %rsp,%rbp
  407b96:	48 83 ec 10          	sub    $0x10,%rsp
  407b9a:	48 89 7d f8          	mov    %rdi,-0x8(%rbp)
  407b9e:	48 8b 45 f8          	mov    -0x8(%rbp),%rax
  407ba2:	48 89 c7             	mov    %rax,%rdi
  407ba5:	e8 8e 17 00 00       	callq  409338 <_ZNSt12_Vector_baseIN2cl8PlatformESaIS1_EE19_M_get_Tp_allocatorEv>
  407baa:	48 89 c2             	mov    %rax,%rdx
  407bad:	48 8b 45 f8          	mov    -0x8(%rbp),%rax
  407bb1:	48 8b 48 08          	mov    0x8(%rax),%rcx
  407bb5:	48 8b 45 f8          	mov    -0x8(%rbp),%rax
  407bb9:	48 8b 00             	mov    (%rax),%rax
  407bbc:	48 89 ce             	mov    %rcx,%rsi
  407bbf:	48 89 c7             	mov    %rax,%rdi
  407bc2:	e8 7f 17 00 00       	callq  409346 <_ZSt8_DestroyIPN2cl8PlatformES1_EvT_S3_RSaIT0_E>
  407bc7:	48 8b 45 f8          	mov    -0x8(%rbp),%rax
  407bcb:	48 89 c7             	mov    %rax,%rdi
  407bce:	e8 15 17 00 00       	callq  4092e8 <_ZNSt12_Vector_baseIN2cl8PlatformESaIS1_EED1Ev>
  407bd3:	90                   	nop
  407bd4:	c9                   	leaveq 
  407bd5:	c3                   	retq   

0000000000407bd6 <_ZNKSt6vectorIN2cl8PlatformESaIS1_EE4sizeEv>:
  407bd6:	55                   	push   %rbp
  407bd7:	48 89 e5             	mov    %rsp,%rbp
  407bda:	48 89 7d f8          	mov    %rdi,-0x8(%rbp)
  407bde:	48 8b 45 f8          	mov    -0x8(%rbp),%rax
  407be2:	48 8b 40 08          	mov    0x8(%rax),%rax
  407be6:	48 89 c2             	mov    %rax,%rdx
  407be9:	48 8b 45 f8          	mov    -0x8(%rbp),%rax
  407bed:	48 8b 00             	mov    (%rax),%rax
  407bf0:	48 29 c2             	sub    %rax,%rdx
  407bf3:	48 89 d0             	mov    %rdx,%rax
  407bf6:	48 c1 f8 03          	sar    $0x3,%rax
  407bfa:	5d                   	pop    %rbp
  407bfb:	c3                   	retq   

0000000000407bfc <_ZNSt6vectorIN2cl6DeviceESaIS1_EEC1Ev>:
  407bfc:	55                   	push   %rbp
  407bfd:	48 89 e5             	mov    %rsp,%rbp
  407c00:	48 83 ec 10          	sub    $0x10,%rsp
  407c04:	48 89 7d f8          	mov    %rdi,-0x8(%rbp)
  407c08:	48 8b 45 f8          	mov    -0x8(%rbp),%rax
  407c0c:	48 89 c7             	mov    %rax,%rdi
  407c0f:	e8 78 17 00 00       	callq  40938c <_ZNSt12_Vector_baseIN2cl6DeviceESaIS1_EEC1Ev>
  407c14:	90                   	nop
  407c15:	c9                   	leaveq 
  407c16:	c3                   	retq   
  407c17:	90                   	nop

0000000000407c18 <_ZNSt6vectorIN2cl6DeviceESaIS1_EED1Ev>:
  407c18:	55                   	push   %rbp
  407c19:	48 89 e5             	mov    %rsp,%rbp
  407c1c:	48 83 ec 10          	sub    $0x10,%rsp
  407c20:	48 89 7d f8          	mov    %rdi,-0x8(%rbp)
  407c24:	48 8b 45 f8          	mov    -0x8(%rbp),%rax
  407c28:	48 89 c7             	mov    %rax,%rdi
  407c2b:	e8 c8 17 00 00       	callq  4093f8 <_ZNSt12_Vector_baseIN2cl6DeviceESaIS1_EE19_M_get_Tp_allocatorEv>
  407c30:	48 89 c2             	mov    %rax,%rdx
  407c33:	48 8b 45 f8          	mov    -0x8(%rbp),%rax
  407c37:	48 8b 48 08          	mov    0x8(%rax),%rcx
  407c3b:	48 8b 45 f8          	mov    -0x8(%rbp),%rax
  407c3f:	48 8b 00             	mov    (%rax),%rax
  407c42:	48 89 ce             	mov    %rcx,%rsi
  407c45:	48 89 c7             	mov    %rax,%rdi
  407c48:	e8 b9 17 00 00       	callq  409406 <_ZSt8_DestroyIPN2cl6DeviceES1_EvT_S3_RSaIT0_E>
  407c4d:	48 8b 45 f8          	mov    -0x8(%rbp),%rax
  407c51:	48 89 c7             	mov    %rax,%rdi
  407c54:	e8 4f 17 00 00       	callq  4093a8 <_ZNSt12_Vector_baseIN2cl6DeviceESaIS1_EED1Ev>
  407c59:	90                   	nop
  407c5a:	c9                   	leaveq 
  407c5b:	c3                   	retq   

0000000000407c5c <_ZN2cl6detail7WrapperIP15_cl_platform_idEclEv>:
  407c5c:	55                   	push   %rbp
  407c5d:	48 89 e5             	mov    %rsp,%rbp
  407c60:	48 89 7d f8          	mov    %rdi,-0x8(%rbp)
  407c64:	48 8b 45 f8          	mov    -0x8(%rbp),%rax
  407c68:	5d                   	pop    %rbp
  407c69:	c3                   	retq   

0000000000407c6a <_ZN2cl6detail7WrapperIP11_cl_contextEC1ERKS4_>:
  407c6a:	55                   	push   %rbp
  407c6b:	48 89 e5             	mov    %rsp,%rbp
  407c6e:	48 83 ec 10          	sub    $0x10,%rsp
  407c72:	48 89 7d f8          	mov    %rdi,-0x8(%rbp)
  407c76:	48 89 75 f0          	mov    %rsi,-0x10(%rbp)
  407c7a:	48 8b 45 f0          	mov    -0x10(%rbp),%rax
  407c7e:	48 8b 10             	mov    (%rax),%rdx
  407c81:	48 8b 45 f8          	mov    -0x8(%rbp),%rax
  407c85:	48 89 10             	mov    %rdx,(%rax)
  407c88:	48 8b 45 f8          	mov    -0x8(%rbp),%rax
  407c8c:	48 89 c7             	mov    %rax,%rdi
  407c8f:	e8 9c 17 00 00       	callq  409430 <_ZNK2cl6detail7WrapperIP11_cl_contextE6retainEv>
  407c94:	be 94 c6 40 00       	mov    $0x40c694,%esi
  407c99:	89 c7                	mov    %eax,%edi
  407c9b:	e8 4d c6 ff ff       	callq  4042ed <_ZN2cl6detailL10errHandlerEiPKc>
  407ca0:	90                   	nop
  407ca1:	c9                   	leaveq 
  407ca2:	c3                   	retq   
  407ca3:	90                   	nop

0000000000407ca4 <_ZN2cl6detail7WrapperIP11_cl_contextEaSEOS4_>:
  407ca4:	55                   	push   %rbp
  407ca5:	48 89 e5             	mov    %rsp,%rbp
  407ca8:	48 83 ec 10          	sub    $0x10,%rsp
  407cac:	48 89 7d f8          	mov    %rdi,-0x8(%rbp)
  407cb0:	48 89 75 f0          	mov    %rsi,-0x10(%rbp)
  407cb4:	48 8b 45 f8          	mov    -0x8(%rbp),%rax
  407cb8:	48 3b 45 f0          	cmp    -0x10(%rbp),%rax
  407cbc:	74 31                	je     407cef <_ZN2cl6detail7WrapperIP11_cl_contextEaSEOS4_+0x4b>
  407cbe:	48 8b 45 f8          	mov    -0x8(%rbp),%rax
  407cc2:	48 89 c7             	mov    %rax,%rdi
  407cc5:	e8 b6 15 00 00       	callq  409280 <_ZNK2cl6detail7WrapperIP11_cl_contextE7releaseEv>
  407cca:	be a2 c6 40 00       	mov    $0x40c6a2,%esi
  407ccf:	89 c7                	mov    %eax,%edi
  407cd1:	e8 17 c6 ff ff       	callq  4042ed <_ZN2cl6detailL10errHandlerEiPKc>
  407cd6:	48 8b 45 f0          	mov    -0x10(%rbp),%rax
  407cda:	48 8b 10             	mov    (%rax),%rdx
  407cdd:	48 8b 45 f8          	mov    -0x8(%rbp),%rax
  407ce1:	48 89 10             	mov    %rdx,(%rax)
  407ce4:	48 8b 45 f0          	mov    -0x10(%rbp),%rax
  407ce8:	48 c7 00 00 00 00 00 	movq   $0x0,(%rax)
  407cef:	48 8b 45 f8          	mov    -0x8(%rbp),%rax
  407cf3:	c9                   	leaveq 
  407cf4:	c3                   	retq   
  407cf5:	90                   	nop

0000000000407cf6 <_ZNK2cl7Context7getInfoILi4225EEENS_6detail12param_traitsINS2_15cl_context_infoEXT_EE10param_typeEPi>:
  407cf6:	55                   	push   %rbp
  407cf7:	48 89 e5             	mov    %rsp,%rbp
  407cfa:	53                   	push   %rbx
  407cfb:	48 83 ec 38          	sub    $0x38,%rsp
  407cff:	48 89 7d d8          	mov    %rdi,-0x28(%rbp)
  407d03:	48 89 75 d0          	mov    %rsi,-0x30(%rbp)
  407d07:	48 89 55 c8          	mov    %rdx,-0x38(%rbp)
  407d0b:	64 48 8b 04 25 28 00 	mov    %fs:0x28,%rax
  407d12:	00 00 
  407d14:	48 89 45 e8          	mov    %rax,-0x18(%rbp)
  407d18:	31 c0                	xor    %eax,%eax
  407d1a:	48 8b 45 d8          	mov    -0x28(%rbp),%rax
  407d1e:	48 89 c7             	mov    %rax,%rdi
  407d21:	e8 d6 fe ff ff       	callq  407bfc <_ZNSt6vectorIN2cl6DeviceESaIS1_EEC1Ev>
  407d26:	48 8b 55 d8          	mov    -0x28(%rbp),%rdx
  407d2a:	48 8b 45 d0          	mov    -0x30(%rbp),%rax
  407d2e:	be 81 10 00 00       	mov    $0x1081,%esi
  407d33:	48 89 c7             	mov    %rax,%rdi
  407d36:	e8 c3 00 00 00       	callq  407dfe <_ZNK2cl7Context7getInfoISt6vectorINS_6DeviceESaIS3_EEEEijPT_>
  407d3b:	89 45 e4             	mov    %eax,-0x1c(%rbp)
  407d3e:	48 83 7d c8 00       	cmpq   $0x0,-0x38(%rbp)
  407d43:	74 25                	je     407d6a <_ZNK2cl7Context7getInfoILi4225EEENS_6detail12param_traitsINS2_15cl_context_infoEXT_EE10param_typeEPi+0x74>
  407d45:	48 8b 45 c8          	mov    -0x38(%rbp),%rax
  407d49:	8b 55 e4             	mov    -0x1c(%rbp),%edx
  407d4c:	89 10                	mov    %edx,(%rax)
  407d4e:	eb 1a                	jmp    407d6a <_ZNK2cl7Context7getInfoILi4225EEENS_6detail12param_traitsINS2_15cl_context_infoEXT_EE10param_typeEPi+0x74>
  407d50:	48 89 c3             	mov    %rax,%rbx
  407d53:	48 8b 45 d8          	mov    -0x28(%rbp),%rax
  407d57:	48 89 c7             	mov    %rax,%rdi
  407d5a:	e8 b9 fe ff ff       	callq  407c18 <_ZNSt6vectorIN2cl6DeviceESaIS1_EED1Ev>
  407d5f:	48 89 d8             	mov    %rbx,%rax
  407d62:	48 89 c7             	mov    %rax,%rdi
  407d65:	e8 06 c3 ff ff       	callq  404070 <_Unwind_Resume@plt>
  407d6a:	90                   	nop
  407d6b:	48 8b 45 d8          	mov    -0x28(%rbp),%rax
  407d6f:	48 8b 4d e8          	mov    -0x18(%rbp),%rcx
  407d73:	64 48 33 0c 25 28 00 	xor    %fs:0x28,%rcx
  407d7a:	00 00 
  407d7c:	74 05                	je     407d83 <_ZNK2cl7Context7getInfoILi4225EEENS_6detail12param_traitsINS2_15cl_context_infoEXT_EE10param_typeEPi+0x8d>
  407d7e:	e8 cd c0 ff ff       	callq  403e50 <__stack_chk_fail@plt>
  407d83:	48 83 c4 38          	add    $0x38,%rsp
  407d87:	5b                   	pop    %rbx
  407d88:	5d                   	pop    %rbp
  407d89:	c3                   	retq   

0000000000407d8a <_ZNK2cl6detail7WrapperIP11_cl_contextEclEv>:
  407d8a:	55                   	push   %rbp
  407d8b:	48 89 e5             	mov    %rsp,%rbp
  407d8e:	48 89 7d f8          	mov    %rdi,-0x8(%rbp)
  407d92:	48 8b 45 f8          	mov    -0x8(%rbp),%rax
  407d96:	5d                   	pop    %rbp
  407d97:	c3                   	retq   

0000000000407d98 <_ZN2cl6detail7WrapperIP10_cl_kernelED1Ev>:
  407d98:	55                   	push   %rbp
  407d99:	48 89 e5             	mov    %rsp,%rbp
  407d9c:	48 83 ec 10          	sub    $0x10,%rsp
  407da0:	48 89 7d f8          	mov    %rdi,-0x8(%rbp)
  407da4:	48 8b 45 f8          	mov    -0x8(%rbp),%rax
  407da8:	48 8b 00             	mov    (%rax),%rax
  407dab:	48 85 c0             	test   %rax,%rax
  407dae:	74 0c                	je     407dbc <_ZN2cl6detail7WrapperIP10_cl_kernelED1Ev+0x24>
  407db0:	48 8b 45 f8          	mov    -0x8(%rbp),%rax
  407db4:	48 89 c7             	mov    %rax,%rdi
  407db7:	e8 a4 16 00 00       	callq  409460 <_ZNK2cl6detail7WrapperIP10_cl_kernelE7releaseEv>
  407dbc:	90                   	nop
  407dbd:	c9                   	leaveq 
  407dbe:	c3                   	retq   
  407dbf:	90                   	nop

0000000000407dc0 <_ZN2cl6detail7WrapperIP17_cl_command_queueED1Ev>:
  407dc0:	55                   	push   %rbp
  407dc1:	48 89 e5             	mov    %rsp,%rbp
  407dc4:	48 83 ec 10          	sub    $0x10,%rsp
  407dc8:	48 89 7d f8          	mov    %rdi,-0x8(%rbp)
  407dcc:	48 8b 45 f8          	mov    -0x8(%rbp),%rax
  407dd0:	48 8b 00             	mov    (%rax),%rax
  407dd3:	48 85 c0             	test   %rax,%rax
  407dd6:	74 0c                	je     407de4 <_ZN2cl6detail7WrapperIP17_cl_command_queueED1Ev+0x24>
  407dd8:	48 8b 45 f8          	mov    -0x8(%rbp),%rax
  407ddc:	48 89 c7             	mov    %rax,%rdi
  407ddf:	e8 ac 16 00 00       	callq  409490 <_ZNK2cl6detail7WrapperIP17_cl_command_queueE7releaseEv>
  407de4:	90                   	nop
  407de5:	c9                   	leaveq 
  407de6:	c3                   	retq   
  407de7:	90                   	nop

0000000000407de8 <_ZN2cl6detail7WrapperIP17_cl_command_queueEC1Ev>:
  407de8:	55                   	push   %rbp
  407de9:	48 89 e5             	mov    %rsp,%rbp
  407dec:	48 89 7d f8          	mov    %rdi,-0x8(%rbp)
  407df0:	48 8b 45 f8          	mov    -0x8(%rbp),%rax
  407df4:	48 c7 00 00 00 00 00 	movq   $0x0,(%rax)
  407dfb:	90                   	nop
  407dfc:	5d                   	pop    %rbp
  407dfd:	c3                   	retq   

0000000000407dfe <_ZNK2cl7Context7getInfoISt6vectorINS_6DeviceESaIS3_EEEEijPT_>:
  407dfe:	55                   	push   %rbp
  407dff:	48 89 e5             	mov    %rsp,%rbp
  407e02:	48 83 ec 20          	sub    $0x20,%rsp
  407e06:	48 89 7d f8          	mov    %rdi,-0x8(%rbp)
  407e0a:	89 75 f4             	mov    %esi,-0xc(%rbp)
  407e0d:	48 89 55 e8          	mov    %rdx,-0x18(%rbp)
  407e11:	48 8b 45 f8          	mov    -0x8(%rbp),%rax
  407e15:	48 8b 4d e8          	mov    -0x18(%rbp),%rcx
  407e19:	8b 55 f4             	mov    -0xc(%rbp),%edx
  407e1c:	48 89 c6             	mov    %rax,%rsi
  407e1f:	bf d0 3d 40 00       	mov    $0x403dd0,%edi
  407e24:	e8 97 16 00 00       	callq  4094c0 <_ZN2cl6detail7getInfoIPFiP11_cl_contextjmPvPmES3_St6vectorINS_6DeviceESaIS9_EEEEiT_RKT0_jPT1_>
  407e29:	be 16 c9 40 00       	mov    $0x40c916,%esi
  407e2e:	89 c7                	mov    %eax,%edi
  407e30:	e8 b8 c4 ff ff       	callq  4042ed <_ZN2cl6detailL10errHandlerEiPKc>
  407e35:	c9                   	leaveq 
  407e36:	c3                   	retq   
  407e37:	90                   	nop

0000000000407e38 <_ZN2cl6detail7WrapperIP17_cl_command_queueEC1ERKS4_>:
  407e38:	55                   	push   %rbp
  407e39:	48 89 e5             	mov    %rsp,%rbp
  407e3c:	48 83 ec 10          	sub    $0x10,%rsp
  407e40:	48 89 7d f8          	mov    %rdi,-0x8(%rbp)
  407e44:	48 89 75 f0          	mov    %rsi,-0x10(%rbp)
  407e48:	48 8b 45 f0          	mov    -0x10(%rbp),%rax
  407e4c:	48 8b 10             	mov    (%rax),%rdx
  407e4f:	48 8b 45 f8          	mov    -0x8(%rbp),%rax
  407e53:	48 89 10             	mov    %rdx,(%rax)
  407e56:	48 8b 45 f8          	mov    -0x8(%rbp),%rax
  407e5a:	48 89 c7             	mov    %rax,%rdi
  407e5d:	e8 d0 16 00 00       	callq  409532 <_ZNK2cl6detail7WrapperIP17_cl_command_queueE6retainEv>
  407e62:	be 94 c6 40 00       	mov    $0x40c694,%esi
  407e67:	89 c7                	mov    %eax,%edi
  407e69:	e8 7f c4 ff ff       	callq  4042ed <_ZN2cl6detailL10errHandlerEiPKc>
  407e6e:	90                   	nop
  407e6f:	c9                   	leaveq 
  407e70:	c3                   	retq   
  407e71:	90                   	nop

0000000000407e72 <_ZN2cl6detail7WrapperIP17_cl_command_queueEaSEOS4_>:
  407e72:	55                   	push   %rbp
  407e73:	48 89 e5             	mov    %rsp,%rbp
  407e76:	48 83 ec 10          	sub    $0x10,%rsp
  407e7a:	48 89 7d f8          	mov    %rdi,-0x8(%rbp)
  407e7e:	48 89 75 f0          	mov    %rsi,-0x10(%rbp)
  407e82:	48 8b 45 f8          	mov    -0x8(%rbp),%rax
  407e86:	48 3b 45 f0          	cmp    -0x10(%rbp),%rax
  407e8a:	74 31                	je     407ebd <_ZN2cl6detail7WrapperIP17_cl_command_queueEaSEOS4_+0x4b>
  407e8c:	48 8b 45 f8          	mov    -0x8(%rbp),%rax
  407e90:	48 89 c7             	mov    %rax,%rdi
  407e93:	e8 f8 15 00 00       	callq  409490 <_ZNK2cl6detail7WrapperIP17_cl_command_queueE7releaseEv>
  407e98:	be a2 c6 40 00       	mov    $0x40c6a2,%esi
  407e9d:	89 c7                	mov    %eax,%edi
  407e9f:	e8 49 c4 ff ff       	callq  4042ed <_ZN2cl6detailL10errHandlerEiPKc>
  407ea4:	48 8b 45 f0          	mov    -0x10(%rbp),%rax
  407ea8:	48 8b 10             	mov    (%rax),%rdx
  407eab:	48 8b 45 f8          	mov    -0x8(%rbp),%rax
  407eaf:	48 89 10             	mov    %rdx,(%rax)
  407eb2:	48 8b 45 f0          	mov    -0x10(%rbp),%rax
  407eb6:	48 c7 00 00 00 00 00 	movq   $0x0,(%rax)
  407ebd:	48 8b 45 f8          	mov    -0x8(%rbp),%rax
  407ec1:	c9                   	leaveq 
  407ec2:	c3                   	retq   
  407ec3:	90                   	nop

0000000000407ec4 <_ZNSt5arrayImLm6EE5beginEv>:
  407ec4:	55                   	push   %rbp
  407ec5:	48 89 e5             	mov    %rsp,%rbp
  407ec8:	48 83 ec 10          	sub    $0x10,%rsp
  407ecc:	48 89 7d f8          	mov    %rdi,-0x8(%rbp)
  407ed0:	48 8b 45 f8          	mov    -0x8(%rbp),%rax
  407ed4:	48 89 c7             	mov    %rax,%rdi
  407ed7:	e8 94 16 00 00       	callq  409570 <_ZNSt5arrayImLm6EE4dataEv>
  407edc:	c9                   	leaveq 
  407edd:	c3                   	retq   

0000000000407ede <_ZNSt5arrayImLm6EE3endEv>:
  407ede:	55                   	push   %rbp
  407edf:	48 89 e5             	mov    %rsp,%rbp
  407ee2:	48 83 ec 10          	sub    $0x10,%rsp
  407ee6:	48 89 7d f8          	mov    %rdi,-0x8(%rbp)
  407eea:	48 8b 45 f8          	mov    -0x8(%rbp),%rax
  407eee:	48 89 c7             	mov    %rax,%rdi
  407ef1:	e8 7a 16 00 00       	callq  409570 <_ZNSt5arrayImLm6EE4dataEv>
  407ef6:	48 83 c0 30          	add    $0x30,%rax
  407efa:	c9                   	leaveq 
  407efb:	c3                   	retq   

0000000000407efc <_ZN11arm_compute10DimensionsImE3setEmm>:
  407efc:	55                   	push   %rbp
  407efd:	48 89 e5             	mov    %rsp,%rbp
  407f00:	48 83 ec 30          	sub    $0x30,%rsp
  407f04:	48 89 7d e8          	mov    %rdi,-0x18(%rbp)
  407f08:	48 89 75 e0          	mov    %rsi,-0x20(%rbp)
  407f0c:	48 89 55 d8          	mov    %rdx,-0x28(%rbp)
  407f10:	64 48 8b 04 25 28 00 	mov    %fs:0x28,%rax
  407f17:	00 00 
  407f19:	48 89 45 f8          	mov    %rax,-0x8(%rbp)
  407f1d:	31 c0                	xor    %eax,%eax
  407f1f:	48 8b 45 e8          	mov    -0x18(%rbp),%rax
  407f23:	48 8b 55 e0          	mov    -0x20(%rbp),%rdx
  407f27:	48 89 d6             	mov    %rdx,%rsi
  407f2a:	48 89 c7             	mov    %rax,%rdi
  407f2d:	e8 70 00 00 00       	callq  407fa2 <_ZNSt5arrayImLm6EEixEm>
  407f32:	48 89 c2             	mov    %rax,%rdx
  407f35:	48 8b 45 d8          	mov    -0x28(%rbp),%rax
  407f39:	48 89 02             	mov    %rax,(%rdx)
  407f3c:	48 8b 45 e0          	mov    -0x20(%rbp),%rax
  407f40:	48 83 c0 01          	add    $0x1,%rax
  407f44:	48 89 45 f0          	mov    %rax,-0x10(%rbp)
  407f48:	48 8b 45 e8          	mov    -0x18(%rbp),%rax
  407f4c:	48 8d 50 30          	lea    0x30(%rax),%rdx
  407f50:	48 8d 45 f0          	lea    -0x10(%rbp),%rax
  407f54:	48 89 c6             	mov    %rax,%rsi
  407f57:	48 89 d7             	mov    %rdx,%rdi
  407f5a:	e8 0d 02 00 00       	callq  40816c <_ZSt3maxImERKT_S2_S2_>
  407f5f:	48 8b 10             	mov    (%rax),%rdx
  407f62:	48 8b 45 e8          	mov    -0x18(%rbp),%rax
  407f66:	48 89 50 30          	mov    %rdx,0x30(%rax)
  407f6a:	90                   	nop
  407f6b:	48 8b 45 f8          	mov    -0x8(%rbp),%rax
  407f6f:	64 48 33 04 25 28 00 	xor    %fs:0x28,%rax
  407f76:	00 00 
  407f78:	74 05                	je     407f7f <_ZN11arm_compute10DimensionsImE3setEmm+0x83>
  407f7a:	e8 d1 be ff ff       	callq  403e50 <__stack_chk_fail@plt>
  407f7f:	c9                   	leaveq 
  407f80:	c3                   	retq   

0000000000407f81 <_ZNSt14__array_traitsImLm6EE6_S_refERA6_Kmm>:
  407f81:	55                   	push   %rbp
  407f82:	48 89 e5             	mov    %rsp,%rbp
  407f85:	48 89 7d f8          	mov    %rdi,-0x8(%rbp)
  407f89:	48 89 75 f0          	mov    %rsi,-0x10(%rbp)
  407f8d:	48 8b 45 f0          	mov    -0x10(%rbp),%rax
  407f91:	48 8d 14 c5 00 00 00 	lea    0x0(,%rax,8),%rdx
  407f98:	00 
  407f99:	48 8b 45 f8          	mov    -0x8(%rbp),%rax
  407f9d:	48 01 d0             	add    %rdx,%rax
  407fa0:	5d                   	pop    %rbp
  407fa1:	c3                   	retq   

0000000000407fa2 <_ZNSt5arrayImLm6EEixEm>:
  407fa2:	55                   	push   %rbp
  407fa3:	48 89 e5             	mov    %rsp,%rbp
  407fa6:	48 83 ec 10          	sub    $0x10,%rsp
  407faa:	48 89 7d f8          	mov    %rdi,-0x8(%rbp)
  407fae:	48 89 75 f0          	mov    %rsi,-0x10(%rbp)
  407fb2:	48 8b 45 f8          	mov    -0x8(%rbp),%rax
  407fb6:	48 8b 55 f0          	mov    -0x10(%rbp),%rdx
  407fba:	48 89 d6             	mov    %rdx,%rsi
  407fbd:	48 89 c7             	mov    %rax,%rdi
  407fc0:	e8 bc ff ff ff       	callq  407f81 <_ZNSt14__array_traitsImLm6EE6_S_refERA6_Kmm>
  407fc5:	c9                   	leaveq 
  407fc6:	c3                   	retq   
  407fc7:	90                   	nop

0000000000407fc8 <_ZN11arm_compute10DimensionsIiEC1IIEEEDpT_>:
  407fc8:	55                   	push   %rbp
  407fc9:	48 89 e5             	mov    %rsp,%rbp
  407fcc:	48 89 7d f8          	mov    %rdi,-0x8(%rbp)
  407fd0:	48 8b 45 f8          	mov    -0x8(%rbp),%rax
  407fd4:	48 c7 00 00 00 00 00 	movq   $0x0,(%rax)
  407fdb:	48 c7 40 08 00 00 00 	movq   $0x0,0x8(%rax)
  407fe2:	00 
  407fe3:	48 c7 40 10 00 00 00 	movq   $0x0,0x10(%rax)
  407fea:	00 
  407feb:	48 8b 45 f8          	mov    -0x8(%rbp),%rax
  407fef:	48 c7 40 18 00 00 00 	movq   $0x0,0x18(%rax)
  407ff6:	00 
  407ff7:	90                   	nop
  407ff8:	5d                   	pop    %rbp
  407ff9:	c3                   	retq   

0000000000407ffa <_ZN11arm_compute11TensorShapeC1IIEEEDpT_>:
  407ffa:	55                   	push   %rbp
  407ffb:	48 89 e5             	mov    %rsp,%rbp
  407ffe:	53                   	push   %rbx
  407fff:	48 83 ec 28          	sub    $0x28,%rsp
  408003:	48 89 7d d8          	mov    %rdi,-0x28(%rbp)
  408007:	64 48 8b 04 25 28 00 	mov    %fs:0x28,%rax
  40800e:	00 00 
  408010:	48 89 45 e8          	mov    %rax,-0x18(%rbp)
  408014:	31 c0                	xor    %eax,%eax
  408016:	48 8b 45 d8          	mov    -0x28(%rbp),%rax
  40801a:	48 89 c7             	mov    %rax,%rdi
  40801d:	e8 68 15 00 00       	callq  40958a <_ZN11arm_compute10DimensionsImEC1IIEEEDpT_>
  408022:	48 8b 45 d8          	mov    -0x28(%rbp),%rax
  408026:	48 8b 40 30          	mov    0x30(%rax),%rax
  40802a:	48 85 c0             	test   %rax,%rax
  40802d:	74 47                	je     408076 <_ZN11arm_compute11TensorShapeC1IIEEEDpT_+0x7c>
  40802f:	c7 45 e4 01 00 00 00 	movl   $0x1,-0x1c(%rbp)
  408036:	48 8b 45 d8          	mov    -0x28(%rbp),%rax
  40803a:	48 89 c7             	mov    %rax,%rdi
  40803d:	e8 9c fe ff ff       	callq  407ede <_ZNSt5arrayImLm6EE3endEv>
  408042:	48 89 c3             	mov    %rax,%rbx
  408045:	48 8b 45 d8          	mov    -0x28(%rbp),%rax
  408049:	48 89 c7             	mov    %rax,%rdi
  40804c:	e8 73 fe ff ff       	callq  407ec4 <_ZNSt5arrayImLm6EE5beginEv>
  408051:	48 89 c2             	mov    %rax,%rdx
  408054:	48 8b 45 d8          	mov    -0x28(%rbp),%rax
  408058:	48 8b 40 30          	mov    0x30(%rax),%rax
  40805c:	48 c1 e0 03          	shl    $0x3,%rax
  408060:	48 8d 0c 02          	lea    (%rdx,%rax,1),%rcx
  408064:	48 8d 45 e4          	lea    -0x1c(%rbp),%rax
  408068:	48 89 c2             	mov    %rax,%rdx
  40806b:	48 89 de             	mov    %rbx,%rsi
  40806e:	48 89 cf             	mov    %rcx,%rdi
  408071:	e8 f9 f3 ff ff       	callq  40746f <_ZSt4fillIPmiEvT_S1_RKT0_>
  408076:	48 8b 45 d8          	mov    -0x28(%rbp),%rax
  40807a:	48 89 c7             	mov    %rax,%rdi
  40807d:	e8 1e e5 ff ff       	callq  4065a0 <_ZN11arm_compute11TensorShape26apply_dimension_correctionEv>
  408082:	90                   	nop
  408083:	48 8b 45 e8          	mov    -0x18(%rbp),%rax
  408087:	64 48 33 04 25 28 00 	xor    %fs:0x28,%rax
  40808e:	00 00 
  408090:	74 05                	je     408097 <_ZN11arm_compute11TensorShapeC1IIEEEDpT_+0x9d>
  408092:	e8 b9 bd ff ff       	callq  403e50 <__stack_chk_fail@plt>
  408097:	48 83 c4 28          	add    $0x28,%rsp
  40809b:	5b                   	pop    %rbx
  40809c:	5d                   	pop    %rbp
  40809d:	c3                   	retq   

000000000040809e <_ZNSt14__array_traitsIiLm6EE6_S_refERA6_Kim>:
  40809e:	55                   	push   %rbp
  40809f:	48 89 e5             	mov    %rsp,%rbp
  4080a2:	48 89 7d f8          	mov    %rdi,-0x8(%rbp)
  4080a6:	48 89 75 f0          	mov    %rsi,-0x10(%rbp)
  4080aa:	48 8b 45 f0          	mov    -0x10(%rbp),%rax
  4080ae:	48 8d 14 85 00 00 00 	lea    0x0(,%rax,4),%rdx
  4080b5:	00 
  4080b6:	48 8b 45 f8          	mov    -0x8(%rbp),%rax
  4080ba:	48 01 d0             	add    %rdx,%rax
  4080bd:	5d                   	pop    %rbp
  4080be:	c3                   	retq   
  4080bf:	90                   	nop

00000000004080c0 <_ZNKSt5arrayIiLm6EEixEm>:
  4080c0:	55                   	push   %rbp
  4080c1:	48 89 e5             	mov    %rsp,%rbp
  4080c4:	48 83 ec 10          	sub    $0x10,%rsp
  4080c8:	48 89 7d f8          	mov    %rdi,-0x8(%rbp)
  4080cc:	48 89 75 f0          	mov    %rsi,-0x10(%rbp)
  4080d0:	48 8b 45 f8          	mov    -0x8(%rbp),%rax
  4080d4:	48 8b 55 f0          	mov    -0x10(%rbp),%rdx
  4080d8:	48 89 d6             	mov    %rdx,%rsi
  4080db:	48 89 c7             	mov    %rax,%rdi
  4080de:	e8 bb ff ff ff       	callq  40809e <_ZNSt14__array_traitsIiLm6EE6_S_refERA6_Kim>
  4080e3:	c9                   	leaveq 
  4080e4:	c3                   	retq   
  4080e5:	90                   	nop

00000000004080e6 <_ZNKSt5arrayImLm6EEixEm>:
  4080e6:	55                   	push   %rbp
  4080e7:	48 89 e5             	mov    %rsp,%rbp
  4080ea:	48 83 ec 10          	sub    $0x10,%rsp
  4080ee:	48 89 7d f8          	mov    %rdi,-0x8(%rbp)
  4080f2:	48 89 75 f0          	mov    %rsi,-0x10(%rbp)
  4080f6:	48 8b 45 f8          	mov    -0x8(%rbp),%rax
  4080fa:	48 8b 55 f0          	mov    -0x10(%rbp),%rdx
  4080fe:	48 89 d6             	mov    %rdx,%rsi
  408101:	48 89 c7             	mov    %rax,%rdi
  408104:	e8 78 fe ff ff       	callq  407f81 <_ZNSt14__array_traitsImLm6EE6_S_refERA6_Kmm>
  408109:	c9                   	leaveq 
  40810a:	c3                   	retq   
  40810b:	90                   	nop

000000000040810c <_ZNK11arm_compute10DimensionsImEixEm>:
  40810c:	55                   	push   %rbp
  40810d:	48 89 e5             	mov    %rsp,%rbp
  408110:	48 83 ec 10          	sub    $0x10,%rsp
  408114:	48 89 7d f8          	mov    %rdi,-0x8(%rbp)
  408118:	48 89 75 f0          	mov    %rsi,-0x10(%rbp)
  40811c:	48 8b 45 f8          	mov    -0x8(%rbp),%rax
  408120:	48 8b 55 f0          	mov    -0x10(%rbp),%rdx
  408124:	48 89 d6             	mov    %rdx,%rsi
  408127:	48 89 c7             	mov    %rax,%rdi
  40812a:	e8 b7 ff ff ff       	callq  4080e6 <_ZNKSt5arrayImLm6EEixEm>
  40812f:	48 8b 00             	mov    (%rax),%rax
  408132:	c9                   	leaveq 
  408133:	c3                   	retq   

0000000000408134 <_ZNSt5arrayIN11arm_compute6Window9DimensionELm6EEixEm>:
  408134:	55                   	push   %rbp
  408135:	48 89 e5             	mov    %rsp,%rbp
  408138:	48 83 ec 10          	sub    $0x10,%rsp
  40813c:	48 89 7d f8          	mov    %rdi,-0x8(%rbp)
  408140:	48 89 75 f0          	mov    %rsi,-0x10(%rbp)
  408144:	48 8b 45 f8          	mov    -0x8(%rbp),%rax
  408148:	48 8b 55 f0          	mov    -0x10(%rbp),%rdx
  40814c:	48 89 d6             	mov    %rdx,%rsi
  40814f:	48 89 c7             	mov    %rax,%rdi
  408152:	e8 2c e5 ff ff       	callq  406683 <_ZNSt14__array_traitsIN11arm_compute6Window9DimensionELm6EE6_S_refERA6_KS2_m>
  408157:	c9                   	leaveq 
  408158:	c3                   	retq   
  408159:	90                   	nop

000000000040815a <_ZNK11arm_compute10DimensionsImE14num_dimensionsEv>:
  40815a:	55                   	push   %rbp
  40815b:	48 89 e5             	mov    %rsp,%rbp
  40815e:	48 89 7d f8          	mov    %rdi,-0x8(%rbp)
  408162:	48 8b 45 f8          	mov    -0x8(%rbp),%rax
  408166:	48 8b 40 30          	mov    0x30(%rax),%rax
  40816a:	5d                   	pop    %rbp
  40816b:	c3                   	retq   

000000000040816c <_ZSt3maxImERKT_S2_S2_>:
  40816c:	55                   	push   %rbp
  40816d:	48 89 e5             	mov    %rsp,%rbp
  408170:	48 89 7d f8          	mov    %rdi,-0x8(%rbp)
  408174:	48 89 75 f0          	mov    %rsi,-0x10(%rbp)
  408178:	48 8b 45 f8          	mov    -0x8(%rbp),%rax
  40817c:	48 8b 10             	mov    (%rax),%rdx
  40817f:	48 8b 45 f0          	mov    -0x10(%rbp),%rax
  408183:	48 8b 00             	mov    (%rax),%rax
  408186:	48 39 c2             	cmp    %rax,%rdx
  408189:	73 06                	jae    408191 <_ZSt3maxImERKT_S2_S2_+0x25>
  40818b:	48 8b 45 f0          	mov    -0x10(%rbp),%rax
  40818f:	eb 04                	jmp    408195 <_ZSt3maxImERKT_S2_S2_+0x29>
  408191:	48 8b 45 f8          	mov    -0x8(%rbp),%rax
  408195:	5d                   	pop    %rbp
  408196:	c3                   	retq   
  408197:	90                   	nop

0000000000408198 <_ZNSt5arrayIN11arm_compute8Iterator9DimensionELm6EEixEm>:
  408198:	55                   	push   %rbp
  408199:	48 89 e5             	mov    %rsp,%rbp
  40819c:	48 83 ec 10          	sub    $0x10,%rsp
  4081a0:	48 89 7d f8          	mov    %rdi,-0x8(%rbp)
  4081a4:	48 89 75 f0          	mov    %rsi,-0x10(%rbp)
  4081a8:	48 8b 45 f8          	mov    -0x8(%rbp),%rax
  4081ac:	48 8b 55 f0          	mov    -0x10(%rbp),%rdx
  4081b0:	48 89 d6             	mov    %rdx,%rsi
  4081b3:	48 89 c7             	mov    %rax,%rdi
  4081b6:	e8 55 e7 ff ff       	callq  406910 <_ZNSt14__array_traitsIN11arm_compute8Iterator9DimensionELm6EE6_S_refERA6_KS2_m>
  4081bb:	c9                   	leaveq 
  4081bc:	c3                   	retq   
  4081bd:	90                   	nop

00000000004081be <_ZN11arm_compute10DimensionsIiE3setEmi>:
  4081be:	55                   	push   %rbp
  4081bf:	48 89 e5             	mov    %rsp,%rbp
  4081c2:	48 83 ec 30          	sub    $0x30,%rsp
  4081c6:	48 89 7d e8          	mov    %rdi,-0x18(%rbp)
  4081ca:	48 89 75 e0          	mov    %rsi,-0x20(%rbp)
  4081ce:	89 55 dc             	mov    %edx,-0x24(%rbp)
  4081d1:	64 48 8b 04 25 28 00 	mov    %fs:0x28,%rax
  4081d8:	00 00 
  4081da:	48 89 45 f8          	mov    %rax,-0x8(%rbp)
  4081de:	31 c0                	xor    %eax,%eax
  4081e0:	48 8b 45 e8          	mov    -0x18(%rbp),%rax
  4081e4:	48 8b 55 e0          	mov    -0x20(%rbp),%rdx
  4081e8:	48 89 d6             	mov    %rdx,%rsi
  4081eb:	48 89 c7             	mov    %rax,%rdi
  4081ee:	e8 c9 13 00 00       	callq  4095bc <_ZNSt5arrayIiLm6EEixEm>
  4081f3:	48 89 c2             	mov    %rax,%rdx
  4081f6:	8b 45 dc             	mov    -0x24(%rbp),%eax
  4081f9:	89 02                	mov    %eax,(%rdx)
  4081fb:	48 8b 45 e0          	mov    -0x20(%rbp),%rax
  4081ff:	48 83 c0 01          	add    $0x1,%rax
  408203:	48 89 45 f0          	mov    %rax,-0x10(%rbp)
  408207:	48 8b 45 e8          	mov    -0x18(%rbp),%rax
  40820b:	48 8d 50 18          	lea    0x18(%rax),%rdx
  40820f:	48 8d 45 f0          	lea    -0x10(%rbp),%rax
  408213:	48 89 c6             	mov    %rax,%rsi
  408216:	48 89 d7             	mov    %rdx,%rdi
  408219:	e8 4e ff ff ff       	callq  40816c <_ZSt3maxImERKT_S2_S2_>
  40821e:	48 8b 10             	mov    (%rax),%rdx
  408221:	48 8b 45 e8          	mov    -0x18(%rbp),%rax
  408225:	48 89 50 18          	mov    %rdx,0x18(%rax)
  408229:	90                   	nop
  40822a:	48 8b 45 f8          	mov    -0x8(%rbp),%rax
  40822e:	64 48 33 04 25 28 00 	xor    %fs:0x28,%rax
  408235:	00 00 
  408237:	74 05                	je     40823e <_ZN11arm_compute10DimensionsIiE3setEmi+0x80>
  408239:	e8 12 bc ff ff       	callq  403e50 <__stack_chk_fail@plt>
  40823e:	c9                   	leaveq 
  40823f:	c3                   	retq   

0000000000408240 <_ZNK11arm_compute10DimensionsIiE1zEv>:
  408240:	55                   	push   %rbp
  408241:	48 89 e5             	mov    %rsp,%rbp
  408244:	48 83 ec 10          	sub    $0x10,%rsp
  408248:	48 89 7d f8          	mov    %rdi,-0x8(%rbp)
  40824c:	48 8b 45 f8          	mov    -0x8(%rbp),%rax
  408250:	be 02 00 00 00       	mov    $0x2,%esi
  408255:	48 89 c7             	mov    %rax,%rdi
  408258:	e8 63 fe ff ff       	callq  4080c0 <_ZNKSt5arrayIiLm6EEixEm>
  40825d:	8b 00                	mov    (%rax),%eax
  40825f:	c9                   	leaveq 
  408260:	c3                   	retq   
  408261:	90                   	nop

0000000000408262 <_ZNK11arm_compute10DimensionsIiE1yEv>:
  408262:	55                   	push   %rbp
  408263:	48 89 e5             	mov    %rsp,%rbp
  408266:	48 83 ec 10          	sub    $0x10,%rsp
  40826a:	48 89 7d f8          	mov    %rdi,-0x8(%rbp)
  40826e:	48 8b 45 f8          	mov    -0x8(%rbp),%rax
  408272:	be 01 00 00 00       	mov    $0x1,%esi
  408277:	48 89 c7             	mov    %rax,%rdi
  40827a:	e8 41 fe ff ff       	callq  4080c0 <_ZNKSt5arrayIiLm6EEixEm>
  40827f:	8b 00                	mov    (%rax),%eax
  408281:	c9                   	leaveq 
  408282:	c3                   	retq   
  408283:	90                   	nop

0000000000408284 <_ZNK11arm_compute10DimensionsIiE1xEv>:
  408284:	55                   	push   %rbp
  408285:	48 89 e5             	mov    %rsp,%rbp
  408288:	48 83 ec 10          	sub    $0x10,%rsp
  40828c:	48 89 7d f8          	mov    %rdi,-0x8(%rbp)
  408290:	48 8b 45 f8          	mov    -0x8(%rbp),%rax
  408294:	be 00 00 00 00       	mov    $0x0,%esi
  408299:	48 89 c7             	mov    %rax,%rdi
  40829c:	e8 1f fe ff ff       	callq  4080c0 <_ZNKSt5arrayIiLm6EEixEm>
  4082a1:	8b 00                	mov    (%rax),%eax
  4082a3:	c9                   	leaveq 
  4082a4:	c3                   	retq   
  4082a5:	90                   	nop

00000000004082a6 <_ZNSt14__shared_countILN9__gnu_cxx12_Lock_policyE2EED1Ev>:
  4082a6:	55                   	push   %rbp
  4082a7:	48 89 e5             	mov    %rsp,%rbp
  4082aa:	48 83 ec 10          	sub    $0x10,%rsp
  4082ae:	48 89 7d f8          	mov    %rdi,-0x8(%rbp)
  4082b2:	48 8b 45 f8          	mov    -0x8(%rbp),%rax
  4082b6:	48 8b 00             	mov    (%rax),%rax
  4082b9:	48 85 c0             	test   %rax,%rax
  4082bc:	74 0f                	je     4082cd <_ZNSt14__shared_countILN9__gnu_cxx12_Lock_policyE2EED1Ev+0x27>
  4082be:	48 8b 45 f8          	mov    -0x8(%rbp),%rax
  4082c2:	48 8b 00             	mov    (%rax),%rax
  4082c5:	48 89 c7             	mov    %rax,%rdi
  4082c8:	e8 15 13 00 00       	callq  4095e2 <_ZNSt16_Sp_counted_baseILN9__gnu_cxx12_Lock_policyE2EE10_M_releaseEv>
  4082cd:	90                   	nop
  4082ce:	c9                   	leaveq 
  4082cf:	c3                   	retq   

00000000004082d0 <_ZN11arm_compute11TensorShapeC1IIiiiEEEDpT_>:
  4082d0:	55                   	push   %rbp
  4082d1:	48 89 e5             	mov    %rsp,%rbp
  4082d4:	53                   	push   %rbx
  4082d5:	48 83 ec 38          	sub    $0x38,%rsp
  4082d9:	48 89 7d d8          	mov    %rdi,-0x28(%rbp)
  4082dd:	89 75 d4             	mov    %esi,-0x2c(%rbp)
  4082e0:	89 55 d0             	mov    %edx,-0x30(%rbp)
  4082e3:	89 4d cc             	mov    %ecx,-0x34(%rbp)
  4082e6:	64 48 8b 04 25 28 00 	mov    %fs:0x28,%rax
  4082ed:	00 00 
  4082ef:	48 89 45 e8          	mov    %rax,-0x18(%rbp)
  4082f3:	31 c0                	xor    %eax,%eax
  4082f5:	48 8b 45 d8          	mov    -0x28(%rbp),%rax
  4082f9:	8b 4d cc             	mov    -0x34(%rbp),%ecx
  4082fc:	8b 55 d0             	mov    -0x30(%rbp),%edx
  4082ff:	8b 75 d4             	mov    -0x2c(%rbp),%esi
  408302:	48 89 c7             	mov    %rax,%rdi
  408305:	e8 54 13 00 00       	callq  40965e <_ZN11arm_compute10DimensionsImEC1IIiiiEEEDpT_>
  40830a:	48 8b 45 d8          	mov    -0x28(%rbp),%rax
  40830e:	48 8b 40 30          	mov    0x30(%rax),%rax
  408312:	48 85 c0             	test   %rax,%rax
  408315:	74 47                	je     40835e <_ZN11arm_compute11TensorShapeC1IIiiiEEEDpT_+0x8e>
  408317:	c7 45 e4 01 00 00 00 	movl   $0x1,-0x1c(%rbp)
  40831e:	48 8b 45 d8          	mov    -0x28(%rbp),%rax
  408322:	48 89 c7             	mov    %rax,%rdi
  408325:	e8 b4 fb ff ff       	callq  407ede <_ZNSt5arrayImLm6EE3endEv>
  40832a:	48 89 c3             	mov    %rax,%rbx
  40832d:	48 8b 45 d8          	mov    -0x28(%rbp),%rax
  408331:	48 89 c7             	mov    %rax,%rdi
  408334:	e8 8b fb ff ff       	callq  407ec4 <_ZNSt5arrayImLm6EE5beginEv>
  408339:	48 89 c2             	mov    %rax,%rdx
  40833c:	48 8b 45 d8          	mov    -0x28(%rbp),%rax
  408340:	48 8b 40 30          	mov    0x30(%rax),%rax
  408344:	48 c1 e0 03          	shl    $0x3,%rax
  408348:	48 8d 0c 02          	lea    (%rdx,%rax,1),%rcx
  40834c:	48 8d 45 e4          	lea    -0x1c(%rbp),%rax
  408350:	48 89 c2             	mov    %rax,%rdx
  408353:	48 89 de             	mov    %rbx,%rsi
  408356:	48 89 cf             	mov    %rcx,%rdi
  408359:	e8 11 f1 ff ff       	callq  40746f <_ZSt4fillIPmiEvT_S1_RKT0_>
  40835e:	48 8b 45 d8          	mov    -0x28(%rbp),%rax
  408362:	48 89 c7             	mov    %rax,%rdi
  408365:	e8 36 e2 ff ff       	callq  4065a0 <_ZN11arm_compute11TensorShape26apply_dimension_correctionEv>
  40836a:	90                   	nop
  40836b:	48 8b 45 e8          	mov    -0x18(%rbp),%rax
  40836f:	64 48 33 04 25 28 00 	xor    %fs:0x28,%rax
  408376:	00 00 
  408378:	74 05                	je     40837f <_ZN11arm_compute11TensorShapeC1IIiiiEEEDpT_+0xaf>
  40837a:	e8 d1 ba ff ff       	callq  403e50 <__stack_chk_fail@plt>
  40837f:	48 83 c4 38          	add    $0x38,%rsp
  408383:	5b                   	pop    %rbx
  408384:	5d                   	pop    %rbp
  408385:	c3                   	retq   

0000000000408386 <_ZN2CK19get_random_raw_dataIfEEPT_RKNS_5ShapeE>:
  408386:	55                   	push   %rbp
  408387:	48 89 e5             	mov    %rsp,%rbp
  40838a:	53                   	push   %rbx
  40838b:	48 83 ec 38          	sub    $0x38,%rsp
  40838f:	48 89 7d c8          	mov    %rdi,-0x38(%rbp)
  408393:	be 2a 00 00 00       	mov    $0x2a,%esi
  408398:	bf 27 c9 40 00       	mov    $0x40c927,%edi
  40839d:	e8 bb eb ff ff       	callq  406f5d <_ZN2CK8getenv_iEPKci>
  4083a2:	89 45 d8             	mov    %eax,-0x28(%rbp)
  4083a5:	8b 45 d8             	mov    -0x28(%rbp),%eax
  4083a8:	89 c2                	mov    %eax,%edx
  4083aa:	be 2f c9 40 00       	mov    $0x40c92f,%esi
  4083af:	bf 08 00 00 00       	mov    $0x8,%edi
  4083b4:	e8 df eb ff ff       	callq  406f98 <_ZN2CK13store_value_iEiPKci>
  4083b9:	b8 04 00 00 00       	mov    $0x4,%eax
  4083be:	c1 e0 03             	shl    $0x3,%eax
  4083c1:	89 c2                	mov    %eax,%edx
  4083c3:	be 38 c9 40 00       	mov    $0x40c938,%esi
  4083c8:	bf 09 00 00 00       	mov    $0x9,%edi
  4083cd:	e8 c6 eb ff ff       	callq  406f98 <_ZN2CK13store_value_iEiPKci>
  4083d2:	8b 45 d8             	mov    -0x28(%rbp),%eax
  4083d5:	89 c7                	mov    %eax,%edi
  4083d7:	e8 24 ba ff ff       	callq  403e00 <srand@plt>
  4083dc:	c7 45 dc 40 42 0f 00 	movl   $0xf4240,-0x24(%rbp)
  4083e3:	c7 45 e0 81 84 1e 00 	movl   $0x1e8481,-0x20(%rbp)
  4083ea:	48 8b 45 c8          	mov    -0x38(%rbp),%rax
  4083ee:	48 89 c7             	mov    %rax,%rdi
  4083f1:	e8 bc ea ff ff       	callq  406eb2 <_ZNK2CK5Shape10data_countEv>
  4083f6:	89 45 e4             	mov    %eax,-0x1c(%rbp)
  4083f9:	8b 45 e4             	mov    -0x1c(%rbp),%eax
  4083fc:	48 63 d0             	movslq %eax,%rdx
  4083ff:	48 b8 00 00 00 00 00 	movabs $0x1fc0000000000000,%rax
  408406:	00 c0 1f 
  408409:	48 39 c2             	cmp    %rax,%rdx
  40840c:	77 1e                	ja     40842c <_ZN2CK19get_random_raw_dataIfEEPT_RKNS_5ShapeE+0xa6>
  40840e:	8b 45 e4             	mov    -0x1c(%rbp),%eax
  408411:	48 98                	cltq   
  408413:	48 c1 e0 02          	shl    $0x2,%rax
  408417:	48 89 c7             	mov    %rax,%rdi
  40841a:	e8 11 b8 ff ff       	callq  403c30 <_Znam@plt>
  40841f:	48 89 45 e8          	mov    %rax,-0x18(%rbp)
  408423:	c7 45 d4 00 00 00 00 	movl   $0x0,-0x2c(%rbp)
  40842a:	eb 05                	jmp    408431 <_ZN2CK19get_random_raw_dataIfEEPT_RKNS_5ShapeE+0xab>
  40842c:	e8 0f bb ff ff       	callq  403f40 <__cxa_throw_bad_array_new_length@plt>
  408431:	8b 45 d4             	mov    -0x2c(%rbp),%eax
  408434:	3b 45 e4             	cmp    -0x1c(%rbp),%eax
  408437:	7d 5e                	jge    408497 <_ZN2CK19get_random_raw_dataIfEEPT_RKNS_5ShapeE+0x111>
  408439:	8b 45 d4             	mov    -0x2c(%rbp),%eax
  40843c:	48 98                	cltq   
  40843e:	48 8d 14 85 00 00 00 	lea    0x0(,%rax,4),%rdx
  408445:	00 
  408446:	48 8b 45 e8          	mov    -0x18(%rbp),%rax
  40844a:	48 8d 1c 02          	lea    (%rdx,%rax,1),%rbx
  40844e:	e8 6d b8 ff ff       	callq  403cc0 <rand@plt>
  408453:	89 c1                	mov    %eax,%ecx
  408455:	ba c5 bd 31 04       	mov    $0x431bdc5,%edx
  40845a:	89 c8                	mov    %ecx,%eax
  40845c:	f7 ea                	imul   %edx
  40845e:	c1 fa 0f             	sar    $0xf,%edx
  408461:	89 c8                	mov    %ecx,%eax
  408463:	c1 f8 1f             	sar    $0x1f,%eax
  408466:	29 c2                	sub    %eax,%edx
  408468:	89 d0                	mov    %edx,%eax
  40846a:	69 c0 81 84 1e 00    	imul   $0x1e8481,%eax,%eax
  408470:	29 c1                	sub    %eax,%ecx
  408472:	89 c8                	mov    %ecx,%eax
  408474:	2d 40 42 0f 00       	sub    $0xf4240,%eax
  408479:	66 0f ef c0          	pxor   %xmm0,%xmm0
  40847d:	f3 0f 2a c0          	cvtsi2ss %eax,%xmm0
  408481:	f3 0f 10 0d bb 45 00 	movss  0x45bb(%rip),%xmm1        # 40ca44 <_ZZN11arm_compute8IteratorC4EPKNS_7ITensorERKNS_6WindowEE8__func__+0xc>
  408488:	00 
  408489:	f3 0f 5e c1          	divss  %xmm1,%xmm0
  40848d:	f3 0f 11 03          	movss  %xmm0,(%rbx)
  408491:	83 45 d4 01          	addl   $0x1,-0x2c(%rbp)
  408495:	eb 9a                	jmp    408431 <_ZN2CK19get_random_raw_dataIfEEPT_RKNS_5ShapeE+0xab>
  408497:	48 8b 45 e8          	mov    -0x18(%rbp),%rax
  40849b:	48 83 c4 38          	add    $0x38,%rsp
  40849f:	5b                   	pop    %rbx
  4084a0:	5d                   	pop    %rbp
  4084a1:	c3                   	retq   

00000000004084a2 <_ZN2CK20print_input_raw_dataIfEEvPT_RKNS_5ShapeE>:
  4084a2:	55                   	push   %rbp
  4084a3:	48 89 e5             	mov    %rsp,%rbp
  4084a6:	48 83 ec 10          	sub    $0x10,%rsp
  4084aa:	48 89 7d f8          	mov    %rdi,-0x8(%rbp)
  4084ae:	48 89 75 f0          	mov    %rsi,-0x10(%rbp)
  4084b2:	be 00 00 00 00       	mov    $0x0,%esi
  4084b7:	bf 42 c9 40 00       	mov    $0x40c942,%edi
  4084bc:	e8 9c ea ff ff       	callq  406f5d <_ZN2CK8getenv_iEPKci>
  4084c1:	85 c0                	test   %eax,%eax
  4084c3:	0f 95 c0             	setne  %al
  4084c6:	84 c0                	test   %al,%al
  4084c8:	74 13                	je     4084dd <_ZN2CK20print_input_raw_dataIfEEvPT_RKNS_5ShapeE+0x3b>
  4084ca:	48 8b 55 f0          	mov    -0x10(%rbp),%rdx
  4084ce:	48 8b 45 f8          	mov    -0x8(%rbp),%rax
  4084d2:	48 89 d6             	mov    %rdx,%rsi
  4084d5:	48 89 c7             	mov    %rax,%rdi
  4084d8:	e8 e4 11 00 00       	callq  4096c1 <_ZN2CK14print_raw_dataIfEEvPT_RKNS_5ShapeE>
  4084dd:	90                   	nop
  4084de:	c9                   	leaveq 
  4084df:	c3                   	retq   

00000000004084e0 <_ZZN2CK5armcl23copy_raw_data_to_tensorIfEEvPN11arm_compute8CLTensorEPT_RKNS_5ShapeEENKUlRKNS2_11CoordinatesEE_clESC_>:
  4084e0:	55                   	push   %rbp
  4084e1:	48 89 e5             	mov    %rsp,%rbp
  4084e4:	41 54                	push   %r12
  4084e6:	53                   	push   %rbx
  4084e7:	48 83 ec 10          	sub    $0x10,%rsp
  4084eb:	48 89 7d e8          	mov    %rdi,-0x18(%rbp)
  4084ef:	48 89 75 e0          	mov    %rsi,-0x20(%rbp)
  4084f3:	48 8b 45 e8          	mov    -0x18(%rbp),%rax
  4084f7:	48 8b 00             	mov    (%rax),%rax
  4084fa:	48 89 c7             	mov    %rax,%rdi
  4084fd:	e8 1c e7 ff ff       	callq  406c1e <_ZNK11arm_compute8Iterator3ptrEv>
  408502:	49 89 c4             	mov    %rax,%r12
  408505:	48 8b 45 e8          	mov    -0x18(%rbp),%rax
  408509:	48 8b 40 08          	mov    0x8(%rax),%rax
  40850d:	48 8b 18             	mov    (%rax),%rbx
  408510:	48 8b 45 e8          	mov    -0x18(%rbp),%rax
  408514:	48 8b 40 10          	mov    0x10(%rax),%rax
  408518:	48 8b 55 e0          	mov    -0x20(%rbp),%rdx
  40851c:	48 89 d6             	mov    %rdx,%rsi
  40851f:	48 89 c7             	mov    %rax,%rdi
  408522:	e8 8a ed ff ff       	callq  4072b1 <_ZN2CK5armcl14get_flat_indexERKNS_5ShapeERKN11arm_compute11CoordinatesE>
  408527:	48 98                	cltq   
  408529:	48 c1 e0 02          	shl    $0x2,%rax
  40852d:	48 01 d8             	add    %rbx,%rax
  408530:	f3 0f 10 00          	movss  (%rax),%xmm0
  408534:	f3 41 0f 11 04 24    	movss  %xmm0,(%r12)
  40853a:	90                   	nop
  40853b:	48 83 c4 10          	add    $0x10,%rsp
  40853f:	5b                   	pop    %rbx
  408540:	41 5c                	pop    %r12
  408542:	5d                   	pop    %rbp
  408543:	c3                   	retq   

0000000000408544 <_ZN2CK5armcl23copy_raw_data_to_tensorIfEEvPN11arm_compute8CLTensorEPT_RKNS_5ShapeE>:
  408544:	55                   	push   %rbp
  408545:	48 89 e5             	mov    %rsp,%rbp
  408548:	48 81 ec d0 00 00 00 	sub    $0xd0,%rsp
  40854f:	48 89 bd 48 ff ff ff 	mov    %rdi,-0xb8(%rbp)
  408556:	48 89 b5 40 ff ff ff 	mov    %rsi,-0xc0(%rbp)
  40855d:	48 89 95 38 ff ff ff 	mov    %rdx,-0xc8(%rbp)
  408564:	64 48 8b 04 25 28 00 	mov    %fs:0x28,%rax
  40856b:	00 00 
  40856d:	48 89 45 f8          	mov    %rax,-0x8(%rbp)
  408571:	31 c0                	xor    %eax,%eax
  408573:	c7 45 b0 00 00 00 00 	movl   $0x0,-0x50(%rbp)
  40857a:	c7 45 b4 01 00 00 00 	movl   $0x1,-0x4c(%rbp)
  408581:	c7 45 b8 01 00 00 00 	movl   $0x1,-0x48(%rbp)
  408588:	c7 45 bc 00 00 00 00 	movl   $0x0,-0x44(%rbp)
  40858f:	c7 45 c0 01 00 00 00 	movl   $0x1,-0x40(%rbp)
  408596:	c7 45 c4 01 00 00 00 	movl   $0x1,-0x3c(%rbp)
  40859d:	c7 45 c8 00 00 00 00 	movl   $0x0,-0x38(%rbp)
  4085a4:	c7 45 cc 01 00 00 00 	movl   $0x1,-0x34(%rbp)
  4085ab:	c7 45 d0 01 00 00 00 	movl   $0x1,-0x30(%rbp)
  4085b2:	c7 45 d4 00 00 00 00 	movl   $0x0,-0x2c(%rbp)
  4085b9:	c7 45 d8 01 00 00 00 	movl   $0x1,-0x28(%rbp)
  4085c0:	c7 45 dc 01 00 00 00 	movl   $0x1,-0x24(%rbp)
  4085c7:	c7 45 e0 00 00 00 00 	movl   $0x0,-0x20(%rbp)
  4085ce:	c7 45 e4 01 00 00 00 	movl   $0x1,-0x1c(%rbp)
  4085d5:	c7 45 e8 01 00 00 00 	movl   $0x1,-0x18(%rbp)
  4085dc:	c7 45 ec 00 00 00 00 	movl   $0x0,-0x14(%rbp)
  4085e3:	c7 45 f0 01 00 00 00 	movl   $0x1,-0x10(%rbp)
  4085ea:	c7 45 f4 01 00 00 00 	movl   $0x1,-0xc(%rbp)
  4085f1:	48 8b 85 48 ff ff ff 	mov    -0xb8(%rbp),%rax
  4085f8:	48 8b 00             	mov    (%rax),%rax
  4085fb:	48 83 c0 08          	add    $0x8,%rax
  4085ff:	48 8b 00             	mov    (%rax),%rax
  408602:	48 8b 95 48 ff ff ff 	mov    -0xb8(%rbp),%rdx
  408609:	48 89 d7             	mov    %rdx,%rdi
  40860c:	ff d0                	callq  *%rax
  40860e:	48 89 c2             	mov    %rax,%rdx
  408611:	48 8d 85 70 ff ff ff 	lea    -0x90(%rbp),%rax
  408618:	48 89 d6             	mov    %rdx,%rsi
  40861b:	48 89 c7             	mov    %rax,%rdi
  40861e:	e8 f2 ec ff ff       	callq  407315 <_ZN2CK5armcl20tensor_info_to_shapeEPKN11arm_compute10TensorInfoE>
  408623:	48 8d 8d 70 ff ff ff 	lea    -0x90(%rbp),%rcx
  40862a:	48 8d 45 b0          	lea    -0x50(%rbp),%rax
  40862e:	ba 00 00 00 00       	mov    $0x0,%edx
  408633:	48 89 ce             	mov    %rcx,%rsi
  408636:	48 89 c7             	mov    %rax,%rdi
  408639:	e8 3c e1 ff ff       	callq  40677a <_ZN11arm_compute6Window21use_tensor_dimensionsERKNS_11TensorShapeEm>
  40863e:	48 8b 85 48 ff ff ff 	mov    -0xb8(%rbp),%rax
  408645:	be 01 00 00 00       	mov    $0x1,%esi
  40864a:	48 89 c7             	mov    %rax,%rdi
  40864d:	e8 3e ba ff ff       	callq  404090 <_ZN11arm_compute8CLTensor3mapEb@plt>
  408652:	48 8d 55 b0          	lea    -0x50(%rbp),%rdx
  408656:	48 8b 8d 48 ff ff ff 	mov    -0xb8(%rbp),%rcx
  40865d:	48 8d 85 70 ff ff ff 	lea    -0x90(%rbp),%rax
  408664:	48 89 ce             	mov    %rcx,%rsi
  408667:	48 89 c7             	mov    %rax,%rdi
  40866a:	e8 e1 e2 ff ff       	callq  406950 <_ZN11arm_compute8IteratorC1EPKNS_7ITensorERKNS_6WindowE>
  40866f:	48 8d 85 70 ff ff ff 	lea    -0x90(%rbp),%rax
  408676:	48 89 85 50 ff ff ff 	mov    %rax,-0xb0(%rbp)
  40867d:	48 8d 85 40 ff ff ff 	lea    -0xc0(%rbp),%rax
  408684:	48 89 85 58 ff ff ff 	mov    %rax,-0xa8(%rbp)
  40868b:	48 8b 85 38 ff ff ff 	mov    -0xc8(%rbp),%rax
  408692:	48 89 85 60 ff ff ff 	mov    %rax,-0xa0(%rbp)
  408699:	48 8d 95 70 ff ff ff 	lea    -0x90(%rbp),%rdx
  4086a0:	48 8d 8d 50 ff ff ff 	lea    -0xb0(%rbp),%rcx
  4086a7:	48 8d 45 b0          	lea    -0x50(%rbp),%rax
  4086ab:	48 89 ce             	mov    %rcx,%rsi
  4086ae:	48 89 c7             	mov    %rax,%rdi
  4086b1:	e8 58 11 00 00       	callq  40980e <_ZN11arm_compute19execute_window_loopIZN2CK5armcl23copy_raw_data_to_tensorIfEEvPNS_8CLTensorEPT_RKNS1_5ShapeEEUlRKNS_11CoordinatesEE_IRNS_8IteratorEEEEvRKNS_6WindowEOS6_DpOT0_>
  4086b6:	48 8b 85 48 ff ff ff 	mov    -0xb8(%rbp),%rax
  4086bd:	48 89 c7             	mov    %rax,%rdi
  4086c0:	e8 0b b6 ff ff       	callq  403cd0 <_ZN11arm_compute8CLTensor5unmapEv@plt>
  4086c5:	90                   	nop
  4086c6:	48 8b 45 f8          	mov    -0x8(%rbp),%rax
  4086ca:	64 48 33 04 25 28 00 	xor    %fs:0x28,%rax
  4086d1:	00 00 
  4086d3:	74 05                	je     4086da <_ZN2CK5armcl23copy_raw_data_to_tensorIfEEvPN11arm_compute8CLTensorEPT_RKNS_5ShapeE+0x196>
  4086d5:	e8 76 b7 ff ff       	callq  403e50 <__stack_chk_fail@plt>
  4086da:	c9                   	leaveq 
  4086db:	c3                   	retq   

00000000004086dc <_ZZN2CK5armcl25copy_raw_data_from_tensorIfEEvPN11arm_compute8CLTensorEPT_RKNS_5ShapeEENKUlRKNS2_11CoordinatesEE_clESC_>:
  4086dc:	55                   	push   %rbp
  4086dd:	48 89 e5             	mov    %rsp,%rbp
  4086e0:	53                   	push   %rbx
  4086e1:	48 83 ec 18          	sub    $0x18,%rsp
  4086e5:	48 89 7d e8          	mov    %rdi,-0x18(%rbp)
  4086e9:	48 89 75 e0          	mov    %rsi,-0x20(%rbp)
  4086ed:	48 8b 45 e8          	mov    -0x18(%rbp),%rax
  4086f1:	48 8b 00             	mov    (%rax),%rax
  4086f4:	48 8b 18             	mov    (%rax),%rbx
  4086f7:	48 8b 45 e8          	mov    -0x18(%rbp),%rax
  4086fb:	48 8b 40 08          	mov    0x8(%rax),%rax
  4086ff:	48 8b 55 e0          	mov    -0x20(%rbp),%rdx
  408703:	48 89 d6             	mov    %rdx,%rsi
  408706:	48 89 c7             	mov    %rax,%rdi
  408709:	e8 a3 eb ff ff       	callq  4072b1 <_ZN2CK5armcl14get_flat_indexERKNS_5ShapeERKN11arm_compute11CoordinatesE>
  40870e:	48 98                	cltq   
  408710:	48 c1 e0 02          	shl    $0x2,%rax
  408714:	48 01 c3             	add    %rax,%rbx
  408717:	48 8b 45 e8          	mov    -0x18(%rbp),%rax
  40871b:	48 8b 40 10          	mov    0x10(%rax),%rax
  40871f:	48 89 c7             	mov    %rax,%rdi
  408722:	e8 f7 e4 ff ff       	callq  406c1e <_ZNK11arm_compute8Iterator3ptrEv>
  408727:	f3 0f 10 00          	movss  (%rax),%xmm0
  40872b:	f3 0f 11 03          	movss  %xmm0,(%rbx)
  40872f:	90                   	nop
  408730:	48 83 c4 18          	add    $0x18,%rsp
  408734:	5b                   	pop    %rbx
  408735:	5d                   	pop    %rbp
  408736:	c3                   	retq   

0000000000408737 <_ZN2CK5armcl25copy_raw_data_from_tensorIfEEvPN11arm_compute8CLTensorEPT_RKNS_5ShapeE>:
  408737:	55                   	push   %rbp
  408738:	48 89 e5             	mov    %rsp,%rbp
  40873b:	48 81 ec d0 00 00 00 	sub    $0xd0,%rsp
  408742:	48 89 bd 48 ff ff ff 	mov    %rdi,-0xb8(%rbp)
  408749:	48 89 b5 40 ff ff ff 	mov    %rsi,-0xc0(%rbp)
  408750:	48 89 95 38 ff ff ff 	mov    %rdx,-0xc8(%rbp)
  408757:	64 48 8b 04 25 28 00 	mov    %fs:0x28,%rax
  40875e:	00 00 
  408760:	48 89 45 f8          	mov    %rax,-0x8(%rbp)
  408764:	31 c0                	xor    %eax,%eax
  408766:	c7 45 b0 00 00 00 00 	movl   $0x0,-0x50(%rbp)
  40876d:	c7 45 b4 01 00 00 00 	movl   $0x1,-0x4c(%rbp)
  408774:	c7 45 b8 01 00 00 00 	movl   $0x1,-0x48(%rbp)
  40877b:	c7 45 bc 00 00 00 00 	movl   $0x0,-0x44(%rbp)
  408782:	c7 45 c0 01 00 00 00 	movl   $0x1,-0x40(%rbp)
  408789:	c7 45 c4 01 00 00 00 	movl   $0x1,-0x3c(%rbp)
  408790:	c7 45 c8 00 00 00 00 	movl   $0x0,-0x38(%rbp)
  408797:	c7 45 cc 01 00 00 00 	movl   $0x1,-0x34(%rbp)
  40879e:	c7 45 d0 01 00 00 00 	movl   $0x1,-0x30(%rbp)
  4087a5:	c7 45 d4 00 00 00 00 	movl   $0x0,-0x2c(%rbp)
  4087ac:	c7 45 d8 01 00 00 00 	movl   $0x1,-0x28(%rbp)
  4087b3:	c7 45 dc 01 00 00 00 	movl   $0x1,-0x24(%rbp)
  4087ba:	c7 45 e0 00 00 00 00 	movl   $0x0,-0x20(%rbp)
  4087c1:	c7 45 e4 01 00 00 00 	movl   $0x1,-0x1c(%rbp)
  4087c8:	c7 45 e8 01 00 00 00 	movl   $0x1,-0x18(%rbp)
  4087cf:	c7 45 ec 00 00 00 00 	movl   $0x0,-0x14(%rbp)
  4087d6:	c7 45 f0 01 00 00 00 	movl   $0x1,-0x10(%rbp)
  4087dd:	c7 45 f4 01 00 00 00 	movl   $0x1,-0xc(%rbp)
  4087e4:	48 8b 85 48 ff ff ff 	mov    -0xb8(%rbp),%rax
  4087eb:	48 8b 00             	mov    (%rax),%rax
  4087ee:	48 83 c0 08          	add    $0x8,%rax
  4087f2:	48 8b 00             	mov    (%rax),%rax
  4087f5:	48 8b 95 48 ff ff ff 	mov    -0xb8(%rbp),%rdx
  4087fc:	48 89 d7             	mov    %rdx,%rdi
  4087ff:	ff d0                	callq  *%rax
  408801:	48 89 c2             	mov    %rax,%rdx
  408804:	48 8d 85 70 ff ff ff 	lea    -0x90(%rbp),%rax
  40880b:	48 89 d6             	mov    %rdx,%rsi
  40880e:	48 89 c7             	mov    %rax,%rdi
  408811:	e8 ff ea ff ff       	callq  407315 <_ZN2CK5armcl20tensor_info_to_shapeEPKN11arm_compute10TensorInfoE>
  408816:	48 8d 8d 70 ff ff ff 	lea    -0x90(%rbp),%rcx
  40881d:	48 8d 45 b0          	lea    -0x50(%rbp),%rax
  408821:	ba 00 00 00 00       	mov    $0x0,%edx
  408826:	48 89 ce             	mov    %rcx,%rsi
  408829:	48 89 c7             	mov    %rax,%rdi
  40882c:	e8 49 df ff ff       	callq  40677a <_ZN11arm_compute6Window21use_tensor_dimensionsERKNS_11TensorShapeEm>
  408831:	48 8b 85 48 ff ff ff 	mov    -0xb8(%rbp),%rax
  408838:	be 01 00 00 00       	mov    $0x1,%esi
  40883d:	48 89 c7             	mov    %rax,%rdi
  408840:	e8 4b b8 ff ff       	callq  404090 <_ZN11arm_compute8CLTensor3mapEb@plt>
  408845:	48 8d 55 b0          	lea    -0x50(%rbp),%rdx
  408849:	48 8b 8d 48 ff ff ff 	mov    -0xb8(%rbp),%rcx
  408850:	48 8d 85 70 ff ff ff 	lea    -0x90(%rbp),%rax
  408857:	48 89 ce             	mov    %rcx,%rsi
  40885a:	48 89 c7             	mov    %rax,%rdi
  40885d:	e8 ee e0 ff ff       	callq  406950 <_ZN11arm_compute8IteratorC1EPKNS_7ITensorERKNS_6WindowE>
  408862:	48 8d 85 40 ff ff ff 	lea    -0xc0(%rbp),%rax
  408869:	48 89 85 50 ff ff ff 	mov    %rax,-0xb0(%rbp)
  408870:	48 8b 85 38 ff ff ff 	mov    -0xc8(%rbp),%rax
  408877:	48 89 85 58 ff ff ff 	mov    %rax,-0xa8(%rbp)
  40887e:	48 8d 85 70 ff ff ff 	lea    -0x90(%rbp),%rax
  408885:	48 89 85 60 ff ff ff 	mov    %rax,-0xa0(%rbp)
  40888c:	48 8d 95 70 ff ff ff 	lea    -0x90(%rbp),%rdx
  408893:	48 8d 8d 50 ff ff ff 	lea    -0xb0(%rbp),%rcx
  40889a:	48 8d 45 b0          	lea    -0x50(%rbp),%rax
  40889e:	48 89 ce             	mov    %rcx,%rsi
  4088a1:	48 89 c7             	mov    %rax,%rdi
  4088a4:	e8 fc 0f 00 00       	callq  4098a5 <_ZN11arm_compute19execute_window_loopIZN2CK5armcl25copy_raw_data_from_tensorIfEEvPNS_8CLTensorEPT_RKNS1_5ShapeEEUlRKNS_11CoordinatesEE_IRNS_8IteratorEEEEvRKNS_6WindowEOS6_DpOT0_>
  4088a9:	48 8b 85 48 ff ff ff 	mov    -0xb8(%rbp),%rax
  4088b0:	48 89 c7             	mov    %rax,%rdi
  4088b3:	e8 18 b4 ff ff       	callq  403cd0 <_ZN11arm_compute8CLTensor5unmapEv@plt>
  4088b8:	90                   	nop
  4088b9:	48 8b 45 f8          	mov    -0x8(%rbp),%rax
  4088bd:	64 48 33 04 25 28 00 	xor    %fs:0x28,%rax
  4088c4:	00 00 
  4088c6:	74 05                	je     4088cd <_ZN2CK5armcl25copy_raw_data_from_tensorIfEEvPN11arm_compute8CLTensorEPT_RKNS_5ShapeE+0x196>
  4088c8:	e8 83 b5 ff ff       	callq  403e50 <__stack_chk_fail@plt>
  4088cd:	c9                   	leaveq 
  4088ce:	c3                   	retq   

00000000004088cf <_ZN2CK21print_output_raw_dataIfEEvPT_RKNS_5ShapeE>:
  4088cf:	55                   	push   %rbp
  4088d0:	48 89 e5             	mov    %rsp,%rbp
  4088d3:	48 83 ec 10          	sub    $0x10,%rsp
  4088d7:	48 89 7d f8          	mov    %rdi,-0x8(%rbp)
  4088db:	48 89 75 f0          	mov    %rsi,-0x10(%rbp)
  4088df:	be 00 00 00 00       	mov    $0x0,%esi
  4088e4:	bf 55 c9 40 00       	mov    $0x40c955,%edi
  4088e9:	e8 6f e6 ff ff       	callq  406f5d <_ZN2CK8getenv_iEPKci>
  4088ee:	85 c0                	test   %eax,%eax
  4088f0:	0f 95 c0             	setne  %al
  4088f3:	84 c0                	test   %al,%al
  4088f5:	74 13                	je     40890a <_ZN2CK21print_output_raw_dataIfEEvPT_RKNS_5ShapeE+0x3b>
  4088f7:	48 8b 55 f0          	mov    -0x10(%rbp),%rdx
  4088fb:	48 8b 45 f8          	mov    -0x8(%rbp),%rax
  4088ff:	48 89 d6             	mov    %rdx,%rsi
  408902:	48 89 c7             	mov    %rax,%rdi
  408905:	e8 b7 0d 00 00       	callq  4096c1 <_ZN2CK14print_raw_dataIfEEvPT_RKNS_5ShapeE>
  40890a:	90                   	nop
  40890b:	c9                   	leaveq 
  40890c:	c3                   	retq   

000000000040890d <_ZN2CK20dump_output_raw_dataIfEEvPT_RKNS_5ShapeE>:
  40890d:	55                   	push   %rbp
  40890e:	48 89 e5             	mov    %rsp,%rbp
  408911:	48 83 ec 20          	sub    $0x20,%rsp
  408915:	48 89 7d e8          	mov    %rdi,-0x18(%rbp)
  408919:	48 89 75 e0          	mov    %rsi,-0x20(%rbp)
  40891d:	bf 69 c9 40 00       	mov    $0x40c969,%edi
  408922:	e8 69 b5 ff ff       	callq  403e90 <getenv@plt>
  408927:	48 89 45 f8          	mov    %rax,-0x8(%rbp)
  40892b:	48 83 7d f8 00       	cmpq   $0x0,-0x8(%rbp)
  408930:	0f 84 89 00 00 00    	je     4089bf <_ZN2CK20dump_output_raw_dataIfEEvPT_RKNS_5ShapeE+0xb2>
  408936:	48 8b 45 e0          	mov    -0x20(%rbp),%rax
  40893a:	48 89 c7             	mov    %rax,%rdi
  40893d:	e8 70 e5 ff ff       	callq  406eb2 <_ZNK2CK5Shape10data_countEv>
  408942:	48 98                	cltq   
  408944:	48 c1 e0 02          	shl    $0x2,%rax
  408948:	48 89 c2             	mov    %rax,%rdx
  40894b:	48 8b 4d e8          	mov    -0x18(%rbp),%rcx
  40894f:	48 8b 45 f8          	mov    -0x8(%rbp),%rax
  408953:	48 89 ce             	mov    %rcx,%rsi
  408956:	48 89 c7             	mov    %rax,%rdi
  408959:	e8 c2 b3 ff ff       	callq  403d20 <xopenme_dump_memory@plt>
  40895e:	48 8b 45 e0          	mov    -0x20(%rbp),%rax
  408962:	8b 00                	mov    (%rax),%eax
  408964:	89 c2                	mov    %eax,%edx
  408966:	be 79 c9 40 00       	mov    $0x40c979,%esi
  40896b:	bf 00 00 00 00       	mov    $0x0,%edi
  408970:	e8 23 e6 ff ff       	callq  406f98 <_ZN2CK13store_value_iEiPKci>
  408975:	48 8b 45 e0          	mov    -0x20(%rbp),%rax
  408979:	8b 40 04             	mov    0x4(%rax),%eax
  40897c:	89 c2                	mov    %eax,%edx
  40897e:	be 85 c9 40 00       	mov    $0x40c985,%esi
  408983:	bf 01 00 00 00       	mov    $0x1,%edi
  408988:	e8 0b e6 ff ff       	callq  406f98 <_ZN2CK13store_value_iEiPKci>
  40898d:	48 8b 45 e0          	mov    -0x20(%rbp),%rax
  408991:	8b 40 0c             	mov    0xc(%rax),%eax
  408994:	89 c2                	mov    %eax,%edx
  408996:	be 91 c9 40 00       	mov    $0x40c991,%esi
  40899b:	bf 02 00 00 00       	mov    $0x2,%edi
  4089a0:	e8 f3 e5 ff ff       	callq  406f98 <_ZN2CK13store_value_iEiPKci>
  4089a5:	48 8b 45 e0          	mov    -0x20(%rbp),%rax
  4089a9:	8b 40 08             	mov    0x8(%rax),%eax
  4089ac:	89 c2                	mov    %eax,%edx
  4089ae:	be 9d c9 40 00       	mov    $0x40c99d,%esi
  4089b3:	bf 03 00 00 00       	mov    $0x3,%edi
  4089b8:	e8 db e5 ff ff       	callq  406f98 <_ZN2CK13store_value_iEiPKci>
  4089bd:	eb 01                	jmp    4089c0 <_ZN2CK20dump_output_raw_dataIfEEvPT_RKNS_5ShapeE+0xb3>
  4089bf:	90                   	nop
  4089c0:	c9                   	leaveq 
  4089c1:	c3                   	retq   

00000000004089c2 <_ZSt12__niter_baseIPmENSt11_Niter_baseIT_E13iterator_typeES2_>:
  4089c2:	55                   	push   %rbp
  4089c3:	48 89 e5             	mov    %rsp,%rbp
  4089c6:	48 83 ec 10          	sub    $0x10,%rsp
  4089ca:	48 89 7d f8          	mov    %rdi,-0x8(%rbp)
  4089ce:	48 8b 45 f8          	mov    -0x8(%rbp),%rax
  4089d2:	48 89 c7             	mov    %rax,%rdi
  4089d5:	e8 54 0f 00 00       	callq  40992e <_ZNSt10_Iter_baseIPmLb0EE7_S_baseES0_>
  4089da:	c9                   	leaveq 
  4089db:	c3                   	retq   

00000000004089dc <_ZSt8__fill_aIPmiEN9__gnu_cxx11__enable_ifIXsrSt11__is_scalarIT0_E7__valueEvE6__typeET_S8_RKS4_>:
  4089dc:	55                   	push   %rbp
  4089dd:	48 89 e5             	mov    %rsp,%rbp
  4089e0:	48 89 7d e8          	mov    %rdi,-0x18(%rbp)
  4089e4:	48 89 75 e0          	mov    %rsi,-0x20(%rbp)
  4089e8:	48 89 55 d8          	mov    %rdx,-0x28(%rbp)
  4089ec:	48 8b 45 d8          	mov    -0x28(%rbp),%rax
  4089f0:	8b 00                	mov    (%rax),%eax
  4089f2:	89 45 fc             	mov    %eax,-0x4(%rbp)
  4089f5:	48 8b 45 e8          	mov    -0x18(%rbp),%rax
  4089f9:	48 3b 45 e0          	cmp    -0x20(%rbp),%rax
  4089fd:	74 14                	je     408a13 <_ZSt8__fill_aIPmiEN9__gnu_cxx11__enable_ifIXsrSt11__is_scalarIT0_E7__valueEvE6__typeET_S8_RKS4_+0x37>
  4089ff:	8b 45 fc             	mov    -0x4(%rbp),%eax
  408a02:	48 63 d0             	movslq %eax,%rdx
  408a05:	48 8b 45 e8          	mov    -0x18(%rbp),%rax
  408a09:	48 89 10             	mov    %rdx,(%rax)
  408a0c:	48 83 45 e8 08       	addq   $0x8,-0x18(%rbp)
  408a11:	eb e2                	jmp    4089f5 <_ZSt8__fill_aIPmiEN9__gnu_cxx11__enable_ifIXsrSt11__is_scalarIT0_E7__valueEvE6__typeET_S8_RKS4_+0x19>
  408a13:	90                   	nop
  408a14:	5d                   	pop    %rbp
  408a15:	c3                   	retq   

0000000000408a16 <_ZSt13__bind_simpleIRFvvEIEENSt19_Bind_simple_helperIT_IDpT0_EE6__typeEOS3_DpOS4_>:
  408a16:	55                   	push   %rbp
  408a17:	48 89 e5             	mov    %rsp,%rbp
  408a1a:	48 83 ec 20          	sub    $0x20,%rsp
  408a1e:	48 89 7d e8          	mov    %rdi,-0x18(%rbp)
  408a22:	48 89 75 e0          	mov    %rsi,-0x20(%rbp)
  408a26:	64 48 8b 04 25 28 00 	mov    %fs:0x28,%rax
  408a2d:	00 00 
  408a2f:	48 89 45 f8          	mov    %rax,-0x8(%rbp)
  408a33:	31 c0                	xor    %eax,%eax
  408a35:	48 8b 45 e0          	mov    -0x20(%rbp),%rax
  408a39:	48 89 c7             	mov    %rax,%rdi
  408a3c:	e8 97 ea ff ff       	callq  4074d8 <_ZSt7forwardIRFvvEEOT_RNSt16remove_referenceIS2_E4typeE>
  408a41:	48 89 45 f0          	mov    %rax,-0x10(%rbp)
  408a45:	48 8d 45 f0          	lea    -0x10(%rbp),%rax
  408a49:	48 89 c7             	mov    %rax,%rdi
  408a4c:	e8 eb 0e 00 00       	callq  40993c <_ZNSt26_Maybe_wrap_member_pointerIPFvvEE9__do_wrapEOS1_>
  408a51:	48 89 c2             	mov    %rax,%rdx
  408a54:	48 8b 45 e8          	mov    -0x18(%rbp),%rax
  408a58:	48 89 d6             	mov    %rdx,%rsi
  408a5b:	48 89 c7             	mov    %rax,%rdi
  408a5e:	e8 4b 0f 00 00       	callq  4099ae <_ZNSt12_Bind_simpleIFPFvvEvEEC1IS1_IEEEOT_DpOT0_>
  408a63:	48 8b 45 e8          	mov    -0x18(%rbp),%rax
  408a67:	48 8b 4d f8          	mov    -0x8(%rbp),%rcx
  408a6b:	64 48 33 0c 25 28 00 	xor    %fs:0x28,%rcx
  408a72:	00 00 
  408a74:	74 05                	je     408a7b <_ZSt13__bind_simpleIRFvvEIEENSt19_Bind_simple_helperIT_IDpT0_EE6__typeEOS3_DpOS4_+0x65>
  408a76:	e8 d5 b3 ff ff       	callq  403e50 <__stack_chk_fail@plt>
  408a7b:	c9                   	leaveq 
  408a7c:	c3                   	retq   

0000000000408a7d <_ZSt11__addressofISt12_Bind_simpleIFPFvvEvEEEPT_RS5_>:
  408a7d:	55                   	push   %rbp
  408a7e:	48 89 e5             	mov    %rsp,%rbp
  408a81:	48 89 7d f8          	mov    %rdi,-0x8(%rbp)
  408a85:	48 8b 45 f8          	mov    -0x8(%rbp),%rax
  408a89:	5d                   	pop    %rbp
  408a8a:	c3                   	retq   

0000000000408a8b <_ZSt16__once_call_implISt12_Bind_simpleIFPFvvEvEEEvv>:
  408a8b:	55                   	push   %rbp
  408a8c:	48 89 e5             	mov    %rsp,%rbp
  408a8f:	48 8b 05 52 a5 20 00 	mov    0x20a552(%rip),%rax        # 612fe8 <_DYNAMIC+0x220>
  408a96:	64 48 8b 00          	mov    %fs:(%rax),%rax
  408a9a:	48 89 c7             	mov    %rax,%rdi
  408a9d:	e8 3e 0f 00 00       	callq  4099e0 <_ZNSt12_Bind_simpleIFPFvvEvEEclEv>
  408aa2:	90                   	nop
  408aa3:	5d                   	pop    %rbp
  408aa4:	c3                   	retq   
  408aa5:	90                   	nop

0000000000408aa6 <_ZN9__gnu_cxx13new_allocatorIP15_cl_platform_idEC1Ev>:
  408aa6:	55                   	push   %rbp
  408aa7:	48 89 e5             	mov    %rsp,%rbp
  408aaa:	48 89 7d f8          	mov    %rdi,-0x8(%rbp)
  408aae:	90                   	nop
  408aaf:	5d                   	pop    %rbp
  408ab0:	c3                   	retq   
  408ab1:	90                   	nop

0000000000408ab2 <_ZN9__gnu_cxx13new_allocatorIP15_cl_platform_idED1Ev>:
  408ab2:	55                   	push   %rbp
  408ab3:	48 89 e5             	mov    %rsp,%rbp
  408ab6:	48 89 7d f8          	mov    %rdi,-0x8(%rbp)
  408aba:	90                   	nop
  408abb:	5d                   	pop    %rbp
  408abc:	c3                   	retq   
  408abd:	90                   	nop

0000000000408abe <_ZNSt12_Vector_baseIP15_cl_platform_idSaIS1_EE12_Vector_implD1Ev>:
  408abe:	55                   	push   %rbp
  408abf:	48 89 e5             	mov    %rsp,%rbp
  408ac2:	48 83 ec 10          	sub    $0x10,%rsp
  408ac6:	48 89 7d f8          	mov    %rdi,-0x8(%rbp)
  408aca:	48 8b 45 f8          	mov    -0x8(%rbp),%rax
  408ace:	48 89 c7             	mov    %rax,%rdi
  408ad1:	e8 2c eb ff ff       	callq  407602 <_ZNSaIP15_cl_platform_idED1Ev>
  408ad6:	90                   	nop
  408ad7:	c9                   	leaveq 
  408ad8:	c3                   	retq   
  408ad9:	90                   	nop

0000000000408ada <_ZNSt12_Vector_baseIP15_cl_platform_idSaIS1_EEC1EmRKS2_>:
  408ada:	55                   	push   %rbp
  408adb:	48 89 e5             	mov    %rsp,%rbp
  408ade:	53                   	push   %rbx
  408adf:	48 83 ec 28          	sub    $0x28,%rsp
  408ae3:	48 89 7d e8          	mov    %rdi,-0x18(%rbp)
  408ae7:	48 89 75 e0          	mov    %rsi,-0x20(%rbp)
  408aeb:	48 89 55 d8          	mov    %rdx,-0x28(%rbp)
  408aef:	48 8b 45 e8          	mov    -0x18(%rbp),%rax
  408af3:	48 8b 55 d8          	mov    -0x28(%rbp),%rdx
  408af7:	48 89 d6             	mov    %rdx,%rsi
  408afa:	48 89 c7             	mov    %rax,%rdi
  408afd:	e8 24 0f 00 00       	callq  409a26 <_ZNSt12_Vector_baseIP15_cl_platform_idSaIS1_EE12_Vector_implC1ERKS2_>
  408b02:	48 8b 55 e0          	mov    -0x20(%rbp),%rdx
  408b06:	48 8b 45 e8          	mov    -0x18(%rbp),%rax
  408b0a:	48 89 d6             	mov    %rdx,%rsi
  408b0d:	48 89 c7             	mov    %rax,%rdi
  408b10:	e8 5b 0f 00 00       	callq  409a70 <_ZNSt12_Vector_baseIP15_cl_platform_idSaIS1_EE17_M_create_storageEm>
  408b15:	eb 1a                	jmp    408b31 <_ZNSt12_Vector_baseIP15_cl_platform_idSaIS1_EEC1EmRKS2_+0x57>
  408b17:	48 89 c3             	mov    %rax,%rbx
  408b1a:	48 8b 45 e8          	mov    -0x18(%rbp),%rax
  408b1e:	48 89 c7             	mov    %rax,%rdi
  408b21:	e8 98 ff ff ff       	callq  408abe <_ZNSt12_Vector_baseIP15_cl_platform_idSaIS1_EE12_Vector_implD1Ev>
  408b26:	48 89 d8             	mov    %rbx,%rax
  408b29:	48 89 c7             	mov    %rax,%rdi
  408b2c:	e8 3f b5 ff ff       	callq  404070 <_Unwind_Resume@plt>
  408b31:	48 83 c4 28          	add    $0x28,%rsp
  408b35:	5b                   	pop    %rbx
  408b36:	5d                   	pop    %rbp
  408b37:	c3                   	retq   

0000000000408b38 <_ZNSt12_Vector_baseIP15_cl_platform_idSaIS1_EED1Ev>:
  408b38:	55                   	push   %rbp
  408b39:	48 89 e5             	mov    %rsp,%rbp
  408b3c:	48 83 ec 10          	sub    $0x10,%rsp
  408b40:	48 89 7d f8          	mov    %rdi,-0x8(%rbp)
  408b44:	48 8b 45 f8          	mov    -0x8(%rbp),%rax
  408b48:	48 8b 40 10          	mov    0x10(%rax),%rax
  408b4c:	48 89 c2             	mov    %rax,%rdx
  408b4f:	48 8b 45 f8          	mov    -0x8(%rbp),%rax
  408b53:	48 8b 00             	mov    (%rax),%rax
  408b56:	48 29 c2             	sub    %rax,%rdx
  408b59:	48 89 d0             	mov    %rdx,%rax
  408b5c:	48 c1 f8 03          	sar    $0x3,%rax
  408b60:	48 89 c2             	mov    %rax,%rdx
  408b63:	48 8b 45 f8          	mov    -0x8(%rbp),%rax
  408b67:	48 8b 08             	mov    (%rax),%rcx
  408b6a:	48 8b 45 f8          	mov    -0x8(%rbp),%rax
  408b6e:	48 89 ce             	mov    %rcx,%rsi
  408b71:	48 89 c7             	mov    %rax,%rdi
  408b74:	e8 51 0f 00 00       	callq  409aca <_ZNSt12_Vector_baseIP15_cl_platform_idSaIS1_EE13_M_deallocateEPS1_m>
  408b79:	48 8b 45 f8          	mov    -0x8(%rbp),%rax
  408b7d:	48 89 c7             	mov    %rax,%rdi
  408b80:	e8 39 ff ff ff       	callq  408abe <_ZNSt12_Vector_baseIP15_cl_platform_idSaIS1_EE12_Vector_implD1Ev>
  408b85:	90                   	nop
  408b86:	c9                   	leaveq 
  408b87:	c3                   	retq   

0000000000408b88 <_ZNSt6vectorIP15_cl_platform_idSaIS1_EE21_M_default_initializeEm>:
  408b88:	55                   	push   %rbp
  408b89:	48 89 e5             	mov    %rsp,%rbp
  408b8c:	48 83 ec 10          	sub    $0x10,%rsp
  408b90:	48 89 7d f8          	mov    %rdi,-0x8(%rbp)
  408b94:	48 89 75 f0          	mov    %rsi,-0x10(%rbp)
  408b98:	48 8b 45 f8          	mov    -0x8(%rbp),%rax
  408b9c:	48 89 c7             	mov    %rax,%rdi
  408b9f:	e8 28 00 00 00       	callq  408bcc <_ZNSt12_Vector_baseIP15_cl_platform_idSaIS1_EE19_M_get_Tp_allocatorEv>
  408ba4:	48 89 c2             	mov    %rax,%rdx
  408ba7:	48 8b 45 f8          	mov    -0x8(%rbp),%rax
  408bab:	48 8b 00             	mov    (%rax),%rax
  408bae:	48 8b 4d f0          	mov    -0x10(%rbp),%rcx
  408bb2:	48 89 ce             	mov    %rcx,%rsi
  408bb5:	48 89 c7             	mov    %rax,%rdi
  408bb8:	e8 42 0f 00 00       	callq  409aff <_ZSt27__uninitialized_default_n_aIPP15_cl_platform_idmS1_ET_S3_T0_RSaIT1_E>
  408bbd:	48 89 c2             	mov    %rax,%rdx
  408bc0:	48 8b 45 f8          	mov    -0x8(%rbp),%rax
  408bc4:	48 89 50 08          	mov    %rdx,0x8(%rax)
  408bc8:	90                   	nop
  408bc9:	c9                   	leaveq 
  408bca:	c3                   	retq   
  408bcb:	90                   	nop

0000000000408bcc <_ZNSt12_Vector_baseIP15_cl_platform_idSaIS1_EE19_M_get_Tp_allocatorEv>:
  408bcc:	55                   	push   %rbp
  408bcd:	48 89 e5             	mov    %rsp,%rbp
  408bd0:	48 89 7d f8          	mov    %rdi,-0x8(%rbp)
  408bd4:	48 8b 45 f8          	mov    -0x8(%rbp),%rax
  408bd8:	5d                   	pop    %rbp
  408bd9:	c3                   	retq   

0000000000408bda <_ZSt8_DestroyIPP15_cl_platform_idS1_EvT_S3_RSaIT0_E>:
  408bda:	55                   	push   %rbp
  408bdb:	48 89 e5             	mov    %rsp,%rbp
  408bde:	48 83 ec 20          	sub    $0x20,%rsp
  408be2:	48 89 7d f8          	mov    %rdi,-0x8(%rbp)
  408be6:	48 89 75 f0          	mov    %rsi,-0x10(%rbp)
  408bea:	48 89 55 e8          	mov    %rdx,-0x18(%rbp)
  408bee:	48 8b 55 f0          	mov    -0x10(%rbp),%rdx
  408bf2:	48 8b 45 f8          	mov    -0x8(%rbp),%rax
  408bf6:	48 89 d6             	mov    %rdx,%rsi
  408bf9:	48 89 c7             	mov    %rax,%rdi
  408bfc:	e8 27 0f 00 00       	callq  409b28 <_ZSt8_DestroyIPP15_cl_platform_idEvT_S3_>
  408c01:	90                   	nop
  408c02:	c9                   	leaveq 
  408c03:	c3                   	retq   

0000000000408c04 <_ZNKSt6vectorIP15_cl_platform_idSaIS1_EE11_M_data_ptrIS1_EEPT_S6_>:
  408c04:	55                   	push   %rbp
  408c05:	48 89 e5             	mov    %rsp,%rbp
  408c08:	48 89 7d f8          	mov    %rdi,-0x8(%rbp)
  408c0c:	48 89 75 f0          	mov    %rsi,-0x10(%rbp)
  408c10:	48 8b 45 f0          	mov    -0x10(%rbp),%rax
  408c14:	5d                   	pop    %rbp
  408c15:	c3                   	retq   

0000000000408c16 <_ZNK2cl6detail7WrapperIP15_cl_platform_idE7releaseEv>:
  408c16:	55                   	push   %rbp
  408c17:	48 89 e5             	mov    %rsp,%rbp
  408c1a:	48 83 ec 10          	sub    $0x10,%rsp
  408c1e:	48 89 7d f8          	mov    %rdi,-0x8(%rbp)
  408c22:	48 8b 45 f8          	mov    -0x8(%rbp),%rax
  408c26:	48 8b 00             	mov    (%rax),%rax
  408c29:	48 85 c0             	test   %rax,%rax
  408c2c:	74 11                	je     408c3f <_ZNK2cl6detail7WrapperIP15_cl_platform_idE7releaseEv+0x29>
  408c2e:	48 8b 45 f8          	mov    -0x8(%rbp),%rax
  408c32:	48 8b 00             	mov    (%rax),%rax
  408c35:	48 89 c7             	mov    %rax,%rdi
  408c38:	e8 16 c1 ff ff       	callq  404d53 <_ZN2cl6detail16ReferenceHandlerIP15_cl_platform_idE7releaseES3_>
  408c3d:	eb 05                	jmp    408c44 <_ZNK2cl6detail7WrapperIP15_cl_platform_idE7releaseEv+0x2e>
  408c3f:	b8 00 00 00 00       	mov    $0x0,%eax
  408c44:	c9                   	leaveq 
  408c45:	c3                   	retq   

0000000000408c46 <_ZNK2cl6detail7WrapperIP15_cl_platform_idE6retainEv>:
  408c46:	55                   	push   %rbp
  408c47:	48 89 e5             	mov    %rsp,%rbp
  408c4a:	48 83 ec 10          	sub    $0x10,%rsp
  408c4e:	48 89 7d f8          	mov    %rdi,-0x8(%rbp)
  408c52:	48 8b 45 f8          	mov    -0x8(%rbp),%rax
  408c56:	48 8b 00             	mov    (%rax),%rax
  408c59:	48 85 c0             	test   %rax,%rax
  408c5c:	74 11                	je     408c6f <_ZNK2cl6detail7WrapperIP15_cl_platform_idE6retainEv+0x29>
  408c5e:	48 8b 45 f8          	mov    -0x8(%rbp),%rax
  408c62:	48 8b 00             	mov    (%rax),%rax
  408c65:	48 89 c7             	mov    %rax,%rdi
  408c68:	e8 d7 c0 ff ff       	callq  404d44 <_ZN2cl6detail16ReferenceHandlerIP15_cl_platform_idE6retainES3_>
  408c6d:	eb 05                	jmp    408c74 <_ZNK2cl6detail7WrapperIP15_cl_platform_idE6retainEv+0x2e>
  408c6f:	b8 00 00 00 00       	mov    $0x0,%eax
  408c74:	c9                   	leaveq 
  408c75:	c3                   	retq   

0000000000408c76 <_ZN9__gnu_cxx13new_allocatorIP13_cl_device_idEC1Ev>:
  408c76:	55                   	push   %rbp
  408c77:	48 89 e5             	mov    %rsp,%rbp
  408c7a:	48 89 7d f8          	mov    %rdi,-0x8(%rbp)
  408c7e:	90                   	nop
  408c7f:	5d                   	pop    %rbp
  408c80:	c3                   	retq   
  408c81:	90                   	nop

0000000000408c82 <_ZN9__gnu_cxx13new_allocatorIP13_cl_device_idED1Ev>:
  408c82:	55                   	push   %rbp
  408c83:	48 89 e5             	mov    %rsp,%rbp
  408c86:	48 89 7d f8          	mov    %rdi,-0x8(%rbp)
  408c8a:	90                   	nop
  408c8b:	5d                   	pop    %rbp
  408c8c:	c3                   	retq   
  408c8d:	90                   	nop

0000000000408c8e <_ZNSt12_Vector_baseIP13_cl_device_idSaIS1_EE12_Vector_implD1Ev>:
  408c8e:	55                   	push   %rbp
  408c8f:	48 89 e5             	mov    %rsp,%rbp
  408c92:	48 83 ec 10          	sub    $0x10,%rsp
  408c96:	48 89 7d f8          	mov    %rdi,-0x8(%rbp)
  408c9a:	48 8b 45 f8          	mov    -0x8(%rbp),%rax
  408c9e:	48 89 c7             	mov    %rax,%rdi
  408ca1:	e8 8c eb ff ff       	callq  407832 <_ZNSaIP13_cl_device_idED1Ev>
  408ca6:	90                   	nop
  408ca7:	c9                   	leaveq 
  408ca8:	c3                   	retq   
  408ca9:	90                   	nop

0000000000408caa <_ZNSt12_Vector_baseIP13_cl_device_idSaIS1_EEC1EmRKS2_>:
  408caa:	55                   	push   %rbp
  408cab:	48 89 e5             	mov    %rsp,%rbp
  408cae:	53                   	push   %rbx
  408caf:	48 83 ec 28          	sub    $0x28,%rsp
  408cb3:	48 89 7d e8          	mov    %rdi,-0x18(%rbp)
  408cb7:	48 89 75 e0          	mov    %rsi,-0x20(%rbp)
  408cbb:	48 89 55 d8          	mov    %rdx,-0x28(%rbp)
  408cbf:	48 8b 45 e8          	mov    -0x18(%rbp),%rax
  408cc3:	48 8b 55 d8          	mov    -0x28(%rbp),%rdx
  408cc7:	48 89 d6             	mov    %rdx,%rsi
  408cca:	48 89 c7             	mov    %rax,%rdi
  408ccd:	e8 7c 0e 00 00       	callq  409b4e <_ZNSt12_Vector_baseIP13_cl_device_idSaIS1_EE12_Vector_implC1ERKS2_>
  408cd2:	48 8b 55 e0          	mov    -0x20(%rbp),%rdx
  408cd6:	48 8b 45 e8          	mov    -0x18(%rbp),%rax
  408cda:	48 89 d6             	mov    %rdx,%rsi
  408cdd:	48 89 c7             	mov    %rax,%rdi
  408ce0:	e8 b3 0e 00 00       	callq  409b98 <_ZNSt12_Vector_baseIP13_cl_device_idSaIS1_EE17_M_create_storageEm>
  408ce5:	eb 1a                	jmp    408d01 <_ZNSt12_Vector_baseIP13_cl_device_idSaIS1_EEC1EmRKS2_+0x57>
  408ce7:	48 89 c3             	mov    %rax,%rbx
  408cea:	48 8b 45 e8          	mov    -0x18(%rbp),%rax
  408cee:	48 89 c7             	mov    %rax,%rdi
  408cf1:	e8 98 ff ff ff       	callq  408c8e <_ZNSt12_Vector_baseIP13_cl_device_idSaIS1_EE12_Vector_implD1Ev>
  408cf6:	48 89 d8             	mov    %rbx,%rax
  408cf9:	48 89 c7             	mov    %rax,%rdi
  408cfc:	e8 6f b3 ff ff       	callq  404070 <_Unwind_Resume@plt>
  408d01:	48 83 c4 28          	add    $0x28,%rsp
  408d05:	5b                   	pop    %rbx
  408d06:	5d                   	pop    %rbp
  408d07:	c3                   	retq   

0000000000408d08 <_ZNSt12_Vector_baseIP13_cl_device_idSaIS1_EED1Ev>:
  408d08:	55                   	push   %rbp
  408d09:	48 89 e5             	mov    %rsp,%rbp
  408d0c:	48 83 ec 10          	sub    $0x10,%rsp
  408d10:	48 89 7d f8          	mov    %rdi,-0x8(%rbp)
  408d14:	48 8b 45 f8          	mov    -0x8(%rbp),%rax
  408d18:	48 8b 40 10          	mov    0x10(%rax),%rax
  408d1c:	48 89 c2             	mov    %rax,%rdx
  408d1f:	48 8b 45 f8          	mov    -0x8(%rbp),%rax
  408d23:	48 8b 00             	mov    (%rax),%rax
  408d26:	48 29 c2             	sub    %rax,%rdx
  408d29:	48 89 d0             	mov    %rdx,%rax
  408d2c:	48 c1 f8 03          	sar    $0x3,%rax
  408d30:	48 89 c2             	mov    %rax,%rdx
  408d33:	48 8b 45 f8          	mov    -0x8(%rbp),%rax
  408d37:	48 8b 08             	mov    (%rax),%rcx
  408d3a:	48 8b 45 f8          	mov    -0x8(%rbp),%rax
  408d3e:	48 89 ce             	mov    %rcx,%rsi
  408d41:	48 89 c7             	mov    %rax,%rdi
  408d44:	e8 a9 0e 00 00       	callq  409bf2 <_ZNSt12_Vector_baseIP13_cl_device_idSaIS1_EE13_M_deallocateEPS1_m>
  408d49:	48 8b 45 f8          	mov    -0x8(%rbp),%rax
  408d4d:	48 89 c7             	mov    %rax,%rdi
  408d50:	e8 39 ff ff ff       	callq  408c8e <_ZNSt12_Vector_baseIP13_cl_device_idSaIS1_EE12_Vector_implD1Ev>
  408d55:	90                   	nop
  408d56:	c9                   	leaveq 
  408d57:	c3                   	retq   

0000000000408d58 <_ZNSt6vectorIP13_cl_device_idSaIS1_EE21_M_default_initializeEm>:
  408d58:	55                   	push   %rbp
  408d59:	48 89 e5             	mov    %rsp,%rbp
  408d5c:	48 83 ec 10          	sub    $0x10,%rsp
  408d60:	48 89 7d f8          	mov    %rdi,-0x8(%rbp)
  408d64:	48 89 75 f0          	mov    %rsi,-0x10(%rbp)
  408d68:	48 8b 45 f8          	mov    -0x8(%rbp),%rax
  408d6c:	48 89 c7             	mov    %rax,%rdi
  408d6f:	e8 28 00 00 00       	callq  408d9c <_ZNSt12_Vector_baseIP13_cl_device_idSaIS1_EE19_M_get_Tp_allocatorEv>
  408d74:	48 89 c2             	mov    %rax,%rdx
  408d77:	48 8b 45 f8          	mov    -0x8(%rbp),%rax
  408d7b:	48 8b 00             	mov    (%rax),%rax
  408d7e:	48 8b 4d f0          	mov    -0x10(%rbp),%rcx
  408d82:	48 89 ce             	mov    %rcx,%rsi
  408d85:	48 89 c7             	mov    %rax,%rdi
  408d88:	e8 9a 0e 00 00       	callq  409c27 <_ZSt27__uninitialized_default_n_aIPP13_cl_device_idmS1_ET_S3_T0_RSaIT1_E>
  408d8d:	48 89 c2             	mov    %rax,%rdx
  408d90:	48 8b 45 f8          	mov    -0x8(%rbp),%rax
  408d94:	48 89 50 08          	mov    %rdx,0x8(%rax)
  408d98:	90                   	nop
  408d99:	c9                   	leaveq 
  408d9a:	c3                   	retq   
  408d9b:	90                   	nop

0000000000408d9c <_ZNSt12_Vector_baseIP13_cl_device_idSaIS1_EE19_M_get_Tp_allocatorEv>:
  408d9c:	55                   	push   %rbp
  408d9d:	48 89 e5             	mov    %rsp,%rbp
  408da0:	48 89 7d f8          	mov    %rdi,-0x8(%rbp)
  408da4:	48 8b 45 f8          	mov    -0x8(%rbp),%rax
  408da8:	5d                   	pop    %rbp
  408da9:	c3                   	retq   

0000000000408daa <_ZSt8_DestroyIPP13_cl_device_idS1_EvT_S3_RSaIT0_E>:
  408daa:	55                   	push   %rbp
  408dab:	48 89 e5             	mov    %rsp,%rbp
  408dae:	48 83 ec 20          	sub    $0x20,%rsp
  408db2:	48 89 7d f8          	mov    %rdi,-0x8(%rbp)
  408db6:	48 89 75 f0          	mov    %rsi,-0x10(%rbp)
  408dba:	48 89 55 e8          	mov    %rdx,-0x18(%rbp)
  408dbe:	48 8b 55 f0          	mov    -0x10(%rbp),%rdx
  408dc2:	48 8b 45 f8          	mov    -0x8(%rbp),%rax
  408dc6:	48 89 d6             	mov    %rdx,%rsi
  408dc9:	48 89 c7             	mov    %rax,%rdi
  408dcc:	e8 7f 0e 00 00       	callq  409c50 <_ZSt8_DestroyIPP13_cl_device_idEvT_S3_>
  408dd1:	90                   	nop
  408dd2:	c9                   	leaveq 
  408dd3:	c3                   	retq   

0000000000408dd4 <_ZNKSt6vectorIP13_cl_device_idSaIS1_EE11_M_data_ptrIS1_EEPT_S6_>:
  408dd4:	55                   	push   %rbp
  408dd5:	48 89 e5             	mov    %rsp,%rbp
  408dd8:	48 89 7d f8          	mov    %rdi,-0x8(%rbp)
  408ddc:	48 89 75 f0          	mov    %rsi,-0x10(%rbp)
  408de0:	48 8b 45 f0          	mov    -0x10(%rbp),%rax
  408de4:	5d                   	pop    %rbp
  408de5:	c3                   	retq   

0000000000408de6 <_ZNSt6vectorIN2cl6DeviceESaIS1_EE17_M_default_appendEm>:
  408de6:	55                   	push   %rbp
  408de7:	48 89 e5             	mov    %rsp,%rbp
  408dea:	53                   	push   %rbx
  408deb:	48 83 ec 38          	sub    $0x38,%rsp
  408def:	48 89 7d c8          	mov    %rdi,-0x38(%rbp)
  408df3:	48 89 75 c0          	mov    %rsi,-0x40(%rbp)
  408df7:	48 83 7d c0 00       	cmpq   $0x0,-0x40(%rbp)
  408dfc:	0f 84 e2 01 00 00    	je     408fe4 <_ZNSt6vectorIN2cl6DeviceESaIS1_EE17_M_default_appendEm+0x1fe>
  408e02:	48 8b 45 c8          	mov    -0x38(%rbp),%rax
  408e06:	48 8b 40 10          	mov    0x10(%rax),%rax
  408e0a:	48 89 c2             	mov    %rax,%rdx
  408e0d:	48 8b 45 c8          	mov    -0x38(%rbp),%rax
  408e11:	48 8b 40 08          	mov    0x8(%rax),%rax
  408e15:	48 29 c2             	sub    %rax,%rdx
  408e18:	48 89 d0             	mov    %rdx,%rax
  408e1b:	48 c1 f8 04          	sar    $0x4,%rax
  408e1f:	48 3b 45 c0          	cmp    -0x40(%rbp),%rax
  408e23:	72 36                	jb     408e5b <_ZNSt6vectorIN2cl6DeviceESaIS1_EE17_M_default_appendEm+0x75>
  408e25:	48 8b 45 c8          	mov    -0x38(%rbp),%rax
  408e29:	48 89 c7             	mov    %rax,%rdi
  408e2c:	e8 c7 05 00 00       	callq  4093f8 <_ZNSt12_Vector_baseIN2cl6DeviceESaIS1_EE19_M_get_Tp_allocatorEv>
  408e31:	48 89 c2             	mov    %rax,%rdx
  408e34:	48 8b 45 c8          	mov    -0x38(%rbp),%rax
  408e38:	48 8b 40 08          	mov    0x8(%rax),%rax
  408e3c:	48 8b 4d c0          	mov    -0x40(%rbp),%rcx
  408e40:	48 89 ce             	mov    %rcx,%rsi
  408e43:	48 89 c7             	mov    %rax,%rdi
  408e46:	e8 2b 0e 00 00       	callq  409c76 <_ZSt27__uninitialized_default_n_aIPN2cl6DeviceEmS1_ET_S3_T0_RSaIT1_E>
  408e4b:	48 89 c2             	mov    %rax,%rdx
  408e4e:	48 8b 45 c8          	mov    -0x38(%rbp),%rax
  408e52:	48 89 50 08          	mov    %rdx,0x8(%rax)
  408e56:	e9 89 01 00 00       	jmpq   408fe4 <_ZNSt6vectorIN2cl6DeviceESaIS1_EE17_M_default_appendEm+0x1fe>
  408e5b:	48 8b 4d c0          	mov    -0x40(%rbp),%rcx
  408e5f:	48 8b 45 c8          	mov    -0x38(%rbp),%rax
  408e63:	ba a9 c9 40 00       	mov    $0x40c9a9,%edx
  408e68:	48 89 ce             	mov    %rcx,%rsi
  408e6b:	48 89 c7             	mov    %rax,%rdi
  408e6e:	e8 2d 0e 00 00       	callq  409ca0 <_ZNKSt6vectorIN2cl6DeviceESaIS1_EE12_M_check_lenEmPKc>
  408e73:	48 89 45 d8          	mov    %rax,-0x28(%rbp)
  408e77:	48 8b 45 c8          	mov    -0x38(%rbp),%rax
  408e7b:	48 89 c7             	mov    %rax,%rdi
  408e7e:	e8 cd ec ff ff       	callq  407b50 <_ZNKSt6vectorIN2cl6DeviceESaIS1_EE4sizeEv>
  408e83:	48 89 45 e0          	mov    %rax,-0x20(%rbp)
  408e87:	48 8b 45 c8          	mov    -0x38(%rbp),%rax
  408e8b:	48 8b 55 d8          	mov    -0x28(%rbp),%rdx
  408e8f:	48 89 d6             	mov    %rdx,%rsi
  408e92:	48 89 c7             	mov    %rax,%rdi
  408e95:	e8 f2 0e 00 00       	callq  409d8c <_ZNSt12_Vector_baseIN2cl6DeviceESaIS1_EE11_M_allocateEm>
  408e9a:	48 89 45 e8          	mov    %rax,-0x18(%rbp)
  408e9e:	48 8b 45 e8          	mov    -0x18(%rbp),%rax
  408ea2:	48 89 45 d0          	mov    %rax,-0x30(%rbp)
  408ea6:	48 8b 45 c8          	mov    -0x38(%rbp),%rax
  408eaa:	48 89 c7             	mov    %rax,%rdi
  408ead:	e8 46 05 00 00       	callq  4093f8 <_ZNSt12_Vector_baseIN2cl6DeviceESaIS1_EE19_M_get_Tp_allocatorEv>
  408eb2:	48 89 c1             	mov    %rax,%rcx
  408eb5:	48 8b 45 c8          	mov    -0x38(%rbp),%rax
  408eb9:	48 8b 70 08          	mov    0x8(%rax),%rsi
  408ebd:	48 8b 45 c8          	mov    -0x38(%rbp),%rax
  408ec1:	48 8b 00             	mov    (%rax),%rax
  408ec4:	48 8b 55 e8          	mov    -0x18(%rbp),%rdx
  408ec8:	48 89 c7             	mov    %rax,%rdi
  408ecb:	e8 ef 0e 00 00       	callq  409dbf <_ZSt34__uninitialized_move_if_noexcept_aIPN2cl6DeviceES2_SaIS1_EET0_T_S5_S4_RT1_>
  408ed0:	48 89 45 d0          	mov    %rax,-0x30(%rbp)
  408ed4:	48 8b 45 c8          	mov    -0x38(%rbp),%rax
  408ed8:	48 89 c7             	mov    %rax,%rdi
  408edb:	e8 18 05 00 00       	callq  4093f8 <_ZNSt12_Vector_baseIN2cl6DeviceESaIS1_EE19_M_get_Tp_allocatorEv>
  408ee0:	48 89 c2             	mov    %rax,%rdx
  408ee3:	48 8b 4d c0          	mov    -0x40(%rbp),%rcx
  408ee7:	48 8b 45 d0          	mov    -0x30(%rbp),%rax
  408eeb:	48 89 ce             	mov    %rcx,%rsi
  408eee:	48 89 c7             	mov    %rax,%rdi
  408ef1:	e8 80 0d 00 00       	callq  409c76 <_ZSt27__uninitialized_default_n_aIPN2cl6DeviceEmS1_ET_S3_T0_RSaIT1_E>
  408ef6:	48 89 45 d0          	mov    %rax,-0x30(%rbp)
  408efa:	48 8b 45 c8          	mov    -0x38(%rbp),%rax
  408efe:	48 89 c7             	mov    %rax,%rdi
  408f01:	e8 f2 04 00 00       	callq  4093f8 <_ZNSt12_Vector_baseIN2cl6DeviceESaIS1_EE19_M_get_Tp_allocatorEv>
  408f06:	48 89 c2             	mov    %rax,%rdx
  408f09:	48 8b 45 c8          	mov    -0x38(%rbp),%rax
  408f0d:	48 8b 48 08          	mov    0x8(%rax),%rcx
  408f11:	48 8b 45 c8          	mov    -0x38(%rbp),%rax
  408f15:	48 8b 00             	mov    (%rax),%rax
  408f18:	48 89 ce             	mov    %rcx,%rsi
  408f1b:	48 89 c7             	mov    %rax,%rdi
  408f1e:	e8 e3 04 00 00       	callq  409406 <_ZSt8_DestroyIPN2cl6DeviceES1_EvT_S3_RSaIT0_E>
  408f23:	48 8b 45 c8          	mov    -0x38(%rbp),%rax
  408f27:	48 8b 40 10          	mov    0x10(%rax),%rax
  408f2b:	48 89 c2             	mov    %rax,%rdx
  408f2e:	48 8b 45 c8          	mov    -0x38(%rbp),%rax
  408f32:	48 8b 00             	mov    (%rax),%rax
  408f35:	48 29 c2             	sub    %rax,%rdx
  408f38:	48 89 d0             	mov    %rdx,%rax
  408f3b:	48 c1 f8 04          	sar    $0x4,%rax
  408f3f:	48 89 c2             	mov    %rax,%rdx
  408f42:	48 8b 45 c8          	mov    -0x38(%rbp),%rax
  408f46:	48 8b 08             	mov    (%rax),%rcx
  408f49:	48 8b 45 c8          	mov    -0x38(%rbp),%rax
  408f4d:	48 89 ce             	mov    %rcx,%rsi
  408f50:	48 89 c7             	mov    %rax,%rdi
  408f53:	e8 bc 0e 00 00       	callq  409e14 <_ZNSt12_Vector_baseIN2cl6DeviceESaIS1_EE13_M_deallocateEPS1_m>
  408f58:	48 8b 45 c8          	mov    -0x38(%rbp),%rax
  408f5c:	48 8b 55 e8          	mov    -0x18(%rbp),%rdx
  408f60:	48 89 10             	mov    %rdx,(%rax)
  408f63:	48 8b 45 c8          	mov    -0x38(%rbp),%rax
  408f67:	48 8b 55 d0          	mov    -0x30(%rbp),%rdx
  408f6b:	48 89 50 08          	mov    %rdx,0x8(%rax)
  408f6f:	48 8b 45 d8          	mov    -0x28(%rbp),%rax
  408f73:	48 c1 e0 04          	shl    $0x4,%rax
  408f77:	48 89 c2             	mov    %rax,%rdx
  408f7a:	48 8b 45 e8          	mov    -0x18(%rbp),%rax
  408f7e:	48 01 c2             	add    %rax,%rdx
  408f81:	48 8b 45 c8          	mov    -0x38(%rbp),%rax
  408f85:	48 89 50 10          	mov    %rdx,0x10(%rax)
  408f89:	eb 59                	jmp    408fe4 <_ZNSt6vectorIN2cl6DeviceESaIS1_EE17_M_default_appendEm+0x1fe>
  408f8b:	48 89 c7             	mov    %rax,%rdi
  408f8e:	e8 6d ad ff ff       	callq  403d00 <__cxa_begin_catch@plt>
  408f93:	48 8b 45 c8          	mov    -0x38(%rbp),%rax
  408f97:	48 89 c7             	mov    %rax,%rdi
  408f9a:	e8 59 04 00 00       	callq  4093f8 <_ZNSt12_Vector_baseIN2cl6DeviceESaIS1_EE19_M_get_Tp_allocatorEv>
  408f9f:	48 89 c2             	mov    %rax,%rdx
  408fa2:	48 8b 4d d0          	mov    -0x30(%rbp),%rcx
  408fa6:	48 8b 45 e8          	mov    -0x18(%rbp),%rax
  408faa:	48 89 ce             	mov    %rcx,%rsi
  408fad:	48 89 c7             	mov    %rax,%rdi
  408fb0:	e8 51 04 00 00       	callq  409406 <_ZSt8_DestroyIPN2cl6DeviceES1_EvT_S3_RSaIT0_E>
  408fb5:	48 8b 45 c8          	mov    -0x38(%rbp),%rax
  408fb9:	48 8b 55 d8          	mov    -0x28(%rbp),%rdx
  408fbd:	48 8b 4d e8          	mov    -0x18(%rbp),%rcx
  408fc1:	48 89 ce             	mov    %rcx,%rsi
  408fc4:	48 89 c7             	mov    %rax,%rdi
  408fc7:	e8 48 0e 00 00       	callq  409e14 <_ZNSt12_Vector_baseIN2cl6DeviceESaIS1_EE13_M_deallocateEPS1_m>
  408fcc:	e8 7f af ff ff       	callq  403f50 <__cxa_rethrow@plt>
  408fd1:	48 89 c3             	mov    %rax,%rbx
  408fd4:	e8 e7 af ff ff       	callq  403fc0 <__cxa_end_catch@plt>
  408fd9:	48 89 d8             	mov    %rbx,%rax
  408fdc:	48 89 c7             	mov    %rax,%rdi
  408fdf:	e8 8c b0 ff ff       	callq  404070 <_Unwind_Resume@plt>
  408fe4:	90                   	nop
  408fe5:	48 83 c4 38          	add    $0x38,%rsp
  408fe9:	5b                   	pop    %rbx
  408fea:	5d                   	pop    %rbp
  408feb:	c3                   	retq   

0000000000408fec <_ZNSt6vectorIN2cl6DeviceESaIS1_EE15_M_erase_at_endEPS1_>:
  408fec:	55                   	push   %rbp
  408fed:	48 89 e5             	mov    %rsp,%rbp
  408ff0:	48 83 ec 10          	sub    $0x10,%rsp
  408ff4:	48 89 7d f8          	mov    %rdi,-0x8(%rbp)
  408ff8:	48 89 75 f0          	mov    %rsi,-0x10(%rbp)
  408ffc:	48 8b 45 f8          	mov    -0x8(%rbp),%rax
  409000:	48 89 c7             	mov    %rax,%rdi
  409003:	e8 f0 03 00 00       	callq  4093f8 <_ZNSt12_Vector_baseIN2cl6DeviceESaIS1_EE19_M_get_Tp_allocatorEv>
  409008:	48 89 c2             	mov    %rax,%rdx
  40900b:	48 8b 45 f8          	mov    -0x8(%rbp),%rax
  40900f:	48 8b 48 08          	mov    0x8(%rax),%rcx
  409013:	48 8b 45 f0          	mov    -0x10(%rbp),%rax
  409017:	48 89 ce             	mov    %rcx,%rsi
  40901a:	48 89 c7             	mov    %rax,%rdi
  40901d:	e8 e4 03 00 00       	callq  409406 <_ZSt8_DestroyIPN2cl6DeviceES1_EvT_S3_RSaIT0_E>
  409022:	48 8b 45 f8          	mov    -0x8(%rbp),%rax
  409026:	48 8b 55 f0          	mov    -0x10(%rbp),%rdx
  40902a:	48 89 50 08          	mov    %rdx,0x8(%rax)
  40902e:	90                   	nop
  40902f:	c9                   	leaveq 
  409030:	c3                   	retq   
  409031:	90                   	nop

0000000000409032 <_ZNSt6vectorIN2cl8PlatformESaIS1_EE17_M_default_appendEm>:
  409032:	55                   	push   %rbp
  409033:	48 89 e5             	mov    %rsp,%rbp
  409036:	53                   	push   %rbx
  409037:	48 83 ec 38          	sub    $0x38,%rsp
  40903b:	48 89 7d c8          	mov    %rdi,-0x38(%rbp)
  40903f:	48 89 75 c0          	mov    %rsi,-0x40(%rbp)
  409043:	48 83 7d c0 00       	cmpq   $0x0,-0x40(%rbp)
  409048:	0f 84 e3 01 00 00    	je     409231 <_ZNSt6vectorIN2cl8PlatformESaIS1_EE17_M_default_appendEm+0x1ff>
  40904e:	48 8b 45 c8          	mov    -0x38(%rbp),%rax
  409052:	48 8b 40 10          	mov    0x10(%rax),%rax
  409056:	48 89 c2             	mov    %rax,%rdx
  409059:	48 8b 45 c8          	mov    -0x38(%rbp),%rax
  40905d:	48 8b 40 08          	mov    0x8(%rax),%rax
  409061:	48 29 c2             	sub    %rax,%rdx
  409064:	48 89 d0             	mov    %rdx,%rax
  409067:	48 c1 f8 03          	sar    $0x3,%rax
  40906b:	48 3b 45 c0          	cmp    -0x40(%rbp),%rax
  40906f:	72 36                	jb     4090a7 <_ZNSt6vectorIN2cl8PlatformESaIS1_EE17_M_default_appendEm+0x75>
  409071:	48 8b 45 c8          	mov    -0x38(%rbp),%rax
  409075:	48 89 c7             	mov    %rax,%rdi
  409078:	e8 bb 02 00 00       	callq  409338 <_ZNSt12_Vector_baseIN2cl8PlatformESaIS1_EE19_M_get_Tp_allocatorEv>
  40907d:	48 89 c2             	mov    %rax,%rdx
  409080:	48 8b 45 c8          	mov    -0x38(%rbp),%rax
  409084:	48 8b 40 08          	mov    0x8(%rax),%rax
  409088:	48 8b 4d c0          	mov    -0x40(%rbp),%rcx
  40908c:	48 89 ce             	mov    %rcx,%rsi
  40908f:	48 89 c7             	mov    %rax,%rdi
  409092:	e8 b2 0d 00 00       	callq  409e49 <_ZSt27__uninitialized_default_n_aIPN2cl8PlatformEmS1_ET_S3_T0_RSaIT1_E>
  409097:	48 89 c2             	mov    %rax,%rdx
  40909a:	48 8b 45 c8          	mov    -0x38(%rbp),%rax
  40909e:	48 89 50 08          	mov    %rdx,0x8(%rax)
  4090a2:	e9 8a 01 00 00       	jmpq   409231 <_ZNSt6vectorIN2cl8PlatformESaIS1_EE17_M_default_appendEm+0x1ff>
  4090a7:	48 8b 4d c0          	mov    -0x40(%rbp),%rcx
  4090ab:	48 8b 45 c8          	mov    -0x38(%rbp),%rax
  4090af:	ba a9 c9 40 00       	mov    $0x40c9a9,%edx
  4090b4:	48 89 ce             	mov    %rcx,%rsi
  4090b7:	48 89 c7             	mov    %rax,%rdi
  4090ba:	e8 b3 0d 00 00       	callq  409e72 <_ZNKSt6vectorIN2cl8PlatformESaIS1_EE12_M_check_lenEmPKc>
  4090bf:	48 89 45 d8          	mov    %rax,-0x28(%rbp)
  4090c3:	48 8b 45 c8          	mov    -0x38(%rbp),%rax
  4090c7:	48 89 c7             	mov    %rax,%rdi
  4090ca:	e8 07 eb ff ff       	callq  407bd6 <_ZNKSt6vectorIN2cl8PlatformESaIS1_EE4sizeEv>
  4090cf:	48 89 45 e0          	mov    %rax,-0x20(%rbp)
  4090d3:	48 8b 45 c8          	mov    -0x38(%rbp),%rax
  4090d7:	48 8b 55 d8          	mov    -0x28(%rbp),%rdx
  4090db:	48 89 d6             	mov    %rdx,%rsi
  4090de:	48 89 c7             	mov    %rax,%rdi
  4090e1:	e8 78 0e 00 00       	callq  409f5e <_ZNSt12_Vector_baseIN2cl8PlatformESaIS1_EE11_M_allocateEm>
  4090e6:	48 89 45 e8          	mov    %rax,-0x18(%rbp)
  4090ea:	48 8b 45 e8          	mov    -0x18(%rbp),%rax
  4090ee:	48 89 45 d0          	mov    %rax,-0x30(%rbp)
  4090f2:	48 8b 45 c8          	mov    -0x38(%rbp),%rax
  4090f6:	48 89 c7             	mov    %rax,%rdi
  4090f9:	e8 3a 02 00 00       	callq  409338 <_ZNSt12_Vector_baseIN2cl8PlatformESaIS1_EE19_M_get_Tp_allocatorEv>
  4090fe:	48 89 c1             	mov    %rax,%rcx
  409101:	48 8b 45 c8          	mov    -0x38(%rbp),%rax
  409105:	48 8b 70 08          	mov    0x8(%rax),%rsi
  409109:	48 8b 45 c8          	mov    -0x38(%rbp),%rax
  40910d:	48 8b 00             	mov    (%rax),%rax
  409110:	48 8b 55 e8          	mov    -0x18(%rbp),%rdx
  409114:	48 89 c7             	mov    %rax,%rdi
  409117:	e8 75 0e 00 00       	callq  409f91 <_ZSt34__uninitialized_move_if_noexcept_aIPN2cl8PlatformES2_SaIS1_EET0_T_S5_S4_RT1_>
  40911c:	48 89 45 d0          	mov    %rax,-0x30(%rbp)
  409120:	48 8b 45 c8          	mov    -0x38(%rbp),%rax
  409124:	48 89 c7             	mov    %rax,%rdi
  409127:	e8 0c 02 00 00       	callq  409338 <_ZNSt12_Vector_baseIN2cl8PlatformESaIS1_EE19_M_get_Tp_allocatorEv>
  40912c:	48 89 c2             	mov    %rax,%rdx
  40912f:	48 8b 4d c0          	mov    -0x40(%rbp),%rcx
  409133:	48 8b 45 d0          	mov    -0x30(%rbp),%rax
  409137:	48 89 ce             	mov    %rcx,%rsi
  40913a:	48 89 c7             	mov    %rax,%rdi
  40913d:	e8 07 0d 00 00       	callq  409e49 <_ZSt27__uninitialized_default_n_aIPN2cl8PlatformEmS1_ET_S3_T0_RSaIT1_E>
  409142:	48 89 45 d0          	mov    %rax,-0x30(%rbp)
  409146:	48 8b 45 c8          	mov    -0x38(%rbp),%rax
  40914a:	48 89 c7             	mov    %rax,%rdi
  40914d:	e8 e6 01 00 00       	callq  409338 <_ZNSt12_Vector_baseIN2cl8PlatformESaIS1_EE19_M_get_Tp_allocatorEv>
  409152:	48 89 c2             	mov    %rax,%rdx
  409155:	48 8b 45 c8          	mov    -0x38(%rbp),%rax
  409159:	48 8b 48 08          	mov    0x8(%rax),%rcx
  40915d:	48 8b 45 c8          	mov    -0x38(%rbp),%rax
  409161:	48 8b 00             	mov    (%rax),%rax
  409164:	48 89 ce             	mov    %rcx,%rsi
  409167:	48 89 c7             	mov    %rax,%rdi
  40916a:	e8 d7 01 00 00       	callq  409346 <_ZSt8_DestroyIPN2cl8PlatformES1_EvT_S3_RSaIT0_E>
  40916f:	48 8b 45 c8          	mov    -0x38(%rbp),%rax
  409173:	48 8b 40 10          	mov    0x10(%rax),%rax
  409177:	48 89 c2             	mov    %rax,%rdx
  40917a:	48 8b 45 c8          	mov    -0x38(%rbp),%rax
  40917e:	48 8b 00             	mov    (%rax),%rax
  409181:	48 29 c2             	sub    %rax,%rdx
  409184:	48 89 d0             	mov    %rdx,%rax
  409187:	48 c1 f8 03          	sar    $0x3,%rax
  40918b:	48 89 c2             	mov    %rax,%rdx
  40918e:	48 8b 45 c8          	mov    -0x38(%rbp),%rax
  409192:	48 8b 08             	mov    (%rax),%rcx
  409195:	48 8b 45 c8          	mov    -0x38(%rbp),%rax
  409199:	48 89 ce             	mov    %rcx,%rsi
  40919c:	48 89 c7             	mov    %rax,%rdi
  40919f:	e8 42 0e 00 00       	callq  409fe6 <_ZNSt12_Vector_baseIN2cl8PlatformESaIS1_EE13_M_deallocateEPS1_m>
  4091a4:	48 8b 45 c8          	mov    -0x38(%rbp),%rax
  4091a8:	48 8b 55 e8          	mov    -0x18(%rbp),%rdx
  4091ac:	48 89 10             	mov    %rdx,(%rax)
  4091af:	48 8b 45 c8          	mov    -0x38(%rbp),%rax
  4091b3:	48 8b 55 d0          	mov    -0x30(%rbp),%rdx
  4091b7:	48 89 50 08          	mov    %rdx,0x8(%rax)
  4091bb:	48 8b 45 d8          	mov    -0x28(%rbp),%rax
  4091bf:	48 8d 14 c5 00 00 00 	lea    0x0(,%rax,8),%rdx
  4091c6:	00 
  4091c7:	48 8b 45 e8          	mov    -0x18(%rbp),%rax
  4091cb:	48 01 c2             	add    %rax,%rdx
  4091ce:	48 8b 45 c8          	mov    -0x38(%rbp),%rax
  4091d2:	48 89 50 10          	mov    %rdx,0x10(%rax)
  4091d6:	eb 59                	jmp    409231 <_ZNSt6vectorIN2cl8PlatformESaIS1_EE17_M_default_appendEm+0x1ff>
  4091d8:	48 89 c7             	mov    %rax,%rdi
  4091db:	e8 20 ab ff ff       	callq  403d00 <__cxa_begin_catch@plt>
  4091e0:	48 8b 45 c8          	mov    -0x38(%rbp),%rax
  4091e4:	48 89 c7             	mov    %rax,%rdi
  4091e7:	e8 4c 01 00 00       	callq  409338 <_ZNSt12_Vector_baseIN2cl8PlatformESaIS1_EE19_M_get_Tp_allocatorEv>
  4091ec:	48 89 c2             	mov    %rax,%rdx
  4091ef:	48 8b 4d d0          	mov    -0x30(%rbp),%rcx
  4091f3:	48 8b 45 e8          	mov    -0x18(%rbp),%rax
  4091f7:	48 89 ce             	mov    %rcx,%rsi
  4091fa:	48 89 c7             	mov    %rax,%rdi
  4091fd:	e8 44 01 00 00       	callq  409346 <_ZSt8_DestroyIPN2cl8PlatformES1_EvT_S3_RSaIT0_E>
  409202:	48 8b 45 c8          	mov    -0x38(%rbp),%rax
  409206:	48 8b 55 d8          	mov    -0x28(%rbp),%rdx
  40920a:	48 8b 4d e8          	mov    -0x18(%rbp),%rcx
  40920e:	48 89 ce             	mov    %rcx,%rsi
  409211:	48 89 c7             	mov    %rax,%rdi
  409214:	e8 cd 0d 00 00       	callq  409fe6 <_ZNSt12_Vector_baseIN2cl8PlatformESaIS1_EE13_M_deallocateEPS1_m>
  409219:	e8 32 ad ff ff       	callq  403f50 <__cxa_rethrow@plt>
  40921e:	48 89 c3             	mov    %rax,%rbx
  409221:	e8 9a ad ff ff       	callq  403fc0 <__cxa_end_catch@plt>
  409226:	48 89 d8             	mov    %rbx,%rax
  409229:	48 89 c7             	mov    %rax,%rdi
  40922c:	e8 3f ae ff ff       	callq  404070 <_Unwind_Resume@plt>
  409231:	90                   	nop
  409232:	48 83 c4 38          	add    $0x38,%rsp
  409236:	5b                   	pop    %rbx
  409237:	5d                   	pop    %rbp
  409238:	c3                   	retq   
  409239:	90                   	nop

000000000040923a <_ZNSt6vectorIN2cl8PlatformESaIS1_EE15_M_erase_at_endEPS1_>:
  40923a:	55                   	push   %rbp
  40923b:	48 89 e5             	mov    %rsp,%rbp
  40923e:	48 83 ec 10          	sub    $0x10,%rsp
  409242:	48 89 7d f8          	mov    %rdi,-0x8(%rbp)
  409246:	48 89 75 f0          	mov    %rsi,-0x10(%rbp)
  40924a:	48 8b 45 f8          	mov    -0x8(%rbp),%rax
  40924e:	48 89 c7             	mov    %rax,%rdi
  409251:	e8 e2 00 00 00       	callq  409338 <_ZNSt12_Vector_baseIN2cl8PlatformESaIS1_EE19_M_get_Tp_allocatorEv>
  409256:	48 89 c2             	mov    %rax,%rdx
  409259:	48 8b 45 f8          	mov    -0x8(%rbp),%rax
  40925d:	48 8b 48 08          	mov    0x8(%rax),%rcx
  409261:	48 8b 45 f0          	mov    -0x10(%rbp),%rax
  409265:	48 89 ce             	mov    %rcx,%rsi
  409268:	48 89 c7             	mov    %rax,%rdi
  40926b:	e8 d6 00 00 00       	callq  409346 <_ZSt8_DestroyIPN2cl8PlatformES1_EvT_S3_RSaIT0_E>
  409270:	48 8b 45 f8          	mov    -0x8(%rbp),%rax
  409274:	48 8b 55 f0          	mov    -0x10(%rbp),%rdx
  409278:	48 89 50 08          	mov    %rdx,0x8(%rax)
  40927c:	90                   	nop
  40927d:	c9                   	leaveq 
  40927e:	c3                   	retq   
  40927f:	90                   	nop

0000000000409280 <_ZNK2cl6detail7WrapperIP11_cl_contextE7releaseEv>:
  409280:	55                   	push   %rbp
  409281:	48 89 e5             	mov    %rsp,%rbp
  409284:	48 83 ec 10          	sub    $0x10,%rsp
  409288:	48 89 7d f8          	mov    %rdi,-0x8(%rbp)
  40928c:	48 8b 45 f8          	mov    -0x8(%rbp),%rax
  409290:	48 8b 00             	mov    (%rax),%rax
  409293:	48 85 c0             	test   %rax,%rax
  409296:	74 11                	je     4092a9 <_ZNK2cl6detail7WrapperIP11_cl_contextE7releaseEv+0x29>
  409298:	48 8b 45 f8          	mov    -0x8(%rbp),%rax
  40929c:	48 8b 00             	mov    (%rax),%rax
  40929f:	48 89 c7             	mov    %rax,%rdi
  4092a2:	e8 d5 ba ff ff       	callq  404d7c <_ZN2cl6detail16ReferenceHandlerIP11_cl_contextE7releaseES3_>
  4092a7:	eb 05                	jmp    4092ae <_ZNK2cl6detail7WrapperIP11_cl_contextE7releaseEv+0x2e>
  4092a9:	b8 00 00 00 00       	mov    $0x0,%eax
  4092ae:	c9                   	leaveq 
  4092af:	c3                   	retq   

00000000004092b0 <_ZNSt12_Vector_baseIN2cl8PlatformESaIS1_EE12_Vector_implD1Ev>:
  4092b0:	55                   	push   %rbp
  4092b1:	48 89 e5             	mov    %rsp,%rbp
  4092b4:	48 83 ec 10          	sub    $0x10,%rsp
  4092b8:	48 89 7d f8          	mov    %rdi,-0x8(%rbp)
  4092bc:	48 8b 45 f8          	mov    -0x8(%rbp),%rax
  4092c0:	48 89 c7             	mov    %rax,%rdi
  4092c3:	e8 92 0d 00 00       	callq  40a05a <_ZNSaIN2cl8PlatformEED1Ev>
  4092c8:	90                   	nop
  4092c9:	c9                   	leaveq 
  4092ca:	c3                   	retq   
  4092cb:	90                   	nop

00000000004092cc <_ZNSt12_Vector_baseIN2cl8PlatformESaIS1_EEC1Ev>:
  4092cc:	55                   	push   %rbp
  4092cd:	48 89 e5             	mov    %rsp,%rbp
  4092d0:	48 83 ec 10          	sub    $0x10,%rsp
  4092d4:	48 89 7d f8          	mov    %rdi,-0x8(%rbp)
  4092d8:	48 8b 45 f8          	mov    -0x8(%rbp),%rax
  4092dc:	48 89 c7             	mov    %rax,%rdi
  4092df:	e8 38 0d 00 00       	callq  40a01c <_ZNSt12_Vector_baseIN2cl8PlatformESaIS1_EE12_Vector_implC1Ev>
  4092e4:	90                   	nop
  4092e5:	c9                   	leaveq 
  4092e6:	c3                   	retq   
  4092e7:	90                   	nop

00000000004092e8 <_ZNSt12_Vector_baseIN2cl8PlatformESaIS1_EED1Ev>:
  4092e8:	55                   	push   %rbp
  4092e9:	48 89 e5             	mov    %rsp,%rbp
  4092ec:	48 83 ec 10          	sub    $0x10,%rsp
  4092f0:	48 89 7d f8          	mov    %rdi,-0x8(%rbp)
  4092f4:	48 8b 45 f8          	mov    -0x8(%rbp),%rax
  4092f8:	48 8b 40 10          	mov    0x10(%rax),%rax
  4092fc:	48 89 c2             	mov    %rax,%rdx
  4092ff:	48 8b 45 f8          	mov    -0x8(%rbp),%rax
  409303:	48 8b 00             	mov    (%rax),%rax
  409306:	48 29 c2             	sub    %rax,%rdx
  409309:	48 89 d0             	mov    %rdx,%rax
  40930c:	48 c1 f8 03          	sar    $0x3,%rax
  409310:	48 89 c2             	mov    %rax,%rdx
  409313:	48 8b 45 f8          	mov    -0x8(%rbp),%rax
  409317:	48 8b 08             	mov    (%rax),%rcx
  40931a:	48 8b 45 f8          	mov    -0x8(%rbp),%rax
  40931e:	48 89 ce             	mov    %rcx,%rsi
  409321:	48 89 c7             	mov    %rax,%rdi
  409324:	e8 bd 0c 00 00       	callq  409fe6 <_ZNSt12_Vector_baseIN2cl8PlatformESaIS1_EE13_M_deallocateEPS1_m>
  409329:	48 8b 45 f8          	mov    -0x8(%rbp),%rax
  40932d:	48 89 c7             	mov    %rax,%rdi
  409330:	e8 7b ff ff ff       	callq  4092b0 <_ZNSt12_Vector_baseIN2cl8PlatformESaIS1_EE12_Vector_implD1Ev>
  409335:	90                   	nop
  409336:	c9                   	leaveq 
  409337:	c3                   	retq   

0000000000409338 <_ZNSt12_Vector_baseIN2cl8PlatformESaIS1_EE19_M_get_Tp_allocatorEv>:
  409338:	55                   	push   %rbp
  409339:	48 89 e5             	mov    %rsp,%rbp
  40933c:	48 89 7d f8          	mov    %rdi,-0x8(%rbp)
  409340:	48 8b 45 f8          	mov    -0x8(%rbp),%rax
  409344:	5d                   	pop    %rbp
  409345:	c3                   	retq   

0000000000409346 <_ZSt8_DestroyIPN2cl8PlatformES1_EvT_S3_RSaIT0_E>:
  409346:	55                   	push   %rbp
  409347:	48 89 e5             	mov    %rsp,%rbp
  40934a:	48 83 ec 20          	sub    $0x20,%rsp
  40934e:	48 89 7d f8          	mov    %rdi,-0x8(%rbp)
  409352:	48 89 75 f0          	mov    %rsi,-0x10(%rbp)
  409356:	48 89 55 e8          	mov    %rdx,-0x18(%rbp)
  40935a:	48 8b 55 f0          	mov    -0x10(%rbp),%rdx
  40935e:	48 8b 45 f8          	mov    -0x8(%rbp),%rax
  409362:	48 89 d6             	mov    %rdx,%rsi
  409365:	48 89 c7             	mov    %rax,%rdi
  409368:	e8 08 0d 00 00       	callq  40a075 <_ZSt8_DestroyIPN2cl8PlatformEEvT_S3_>
  40936d:	90                   	nop
  40936e:	c9                   	leaveq 
  40936f:	c3                   	retq   

0000000000409370 <_ZNSt12_Vector_baseIN2cl6DeviceESaIS1_EE12_Vector_implD1Ev>:
  409370:	55                   	push   %rbp
  409371:	48 89 e5             	mov    %rsp,%rbp
  409374:	48 83 ec 10          	sub    $0x10,%rsp
  409378:	48 89 7d f8          	mov    %rdi,-0x8(%rbp)
  40937c:	48 8b 45 f8          	mov    -0x8(%rbp),%rax
  409380:	48 89 c7             	mov    %rax,%rdi
  409383:	e8 52 0d 00 00       	callq  40a0da <_ZNSaIN2cl6DeviceEED1Ev>
  409388:	90                   	nop
  409389:	c9                   	leaveq 
  40938a:	c3                   	retq   
  40938b:	90                   	nop

000000000040938c <_ZNSt12_Vector_baseIN2cl6DeviceESaIS1_EEC1Ev>:
  40938c:	55                   	push   %rbp
  40938d:	48 89 e5             	mov    %rsp,%rbp
  409390:	48 83 ec 10          	sub    $0x10,%rsp
  409394:	48 89 7d f8          	mov    %rdi,-0x8(%rbp)
  409398:	48 8b 45 f8          	mov    -0x8(%rbp),%rax
  40939c:	48 89 c7             	mov    %rax,%rdi
  40939f:	e8 f8 0c 00 00       	callq  40a09c <_ZNSt12_Vector_baseIN2cl6DeviceESaIS1_EE12_Vector_implC1Ev>
  4093a4:	90                   	nop
  4093a5:	c9                   	leaveq 
  4093a6:	c3                   	retq   
  4093a7:	90                   	nop

00000000004093a8 <_ZNSt12_Vector_baseIN2cl6DeviceESaIS1_EED1Ev>:
  4093a8:	55                   	push   %rbp
  4093a9:	48 89 e5             	mov    %rsp,%rbp
  4093ac:	48 83 ec 10          	sub    $0x10,%rsp
  4093b0:	48 89 7d f8          	mov    %rdi,-0x8(%rbp)
  4093b4:	48 8b 45 f8          	mov    -0x8(%rbp),%rax
  4093b8:	48 8b 40 10          	mov    0x10(%rax),%rax
  4093bc:	48 89 c2             	mov    %rax,%rdx
  4093bf:	48 8b 45 f8          	mov    -0x8(%rbp),%rax
  4093c3:	48 8b 00             	mov    (%rax),%rax
  4093c6:	48 29 c2             	sub    %rax,%rdx
  4093c9:	48 89 d0             	mov    %rdx,%rax
  4093cc:	48 c1 f8 04          	sar    $0x4,%rax
  4093d0:	48 89 c2             	mov    %rax,%rdx
  4093d3:	48 8b 45 f8          	mov    -0x8(%rbp),%rax
  4093d7:	48 8b 08             	mov    (%rax),%rcx
  4093da:	48 8b 45 f8          	mov    -0x8(%rbp),%rax
  4093de:	48 89 ce             	mov    %rcx,%rsi
  4093e1:	48 89 c7             	mov    %rax,%rdi
  4093e4:	e8 2b 0a 00 00       	callq  409e14 <_ZNSt12_Vector_baseIN2cl6DeviceESaIS1_EE13_M_deallocateEPS1_m>
  4093e9:	48 8b 45 f8          	mov    -0x8(%rbp),%rax
  4093ed:	48 89 c7             	mov    %rax,%rdi
  4093f0:	e8 7b ff ff ff       	callq  409370 <_ZNSt12_Vector_baseIN2cl6DeviceESaIS1_EE12_Vector_implD1Ev>
  4093f5:	90                   	nop
  4093f6:	c9                   	leaveq 
  4093f7:	c3                   	retq   

00000000004093f8 <_ZNSt12_Vector_baseIN2cl6DeviceESaIS1_EE19_M_get_Tp_allocatorEv>:
  4093f8:	55                   	push   %rbp
  4093f9:	48 89 e5             	mov    %rsp,%rbp
  4093fc:	48 89 7d f8          	mov    %rdi,-0x8(%rbp)
  409400:	48 8b 45 f8          	mov    -0x8(%rbp),%rax
  409404:	5d                   	pop    %rbp
  409405:	c3                   	retq   

0000000000409406 <_ZSt8_DestroyIPN2cl6DeviceES1_EvT_S3_RSaIT0_E>:
  409406:	55                   	push   %rbp
  409407:	48 89 e5             	mov    %rsp,%rbp
  40940a:	48 83 ec 20          	sub    $0x20,%rsp
  40940e:	48 89 7d f8          	mov    %rdi,-0x8(%rbp)
  409412:	48 89 75 f0          	mov    %rsi,-0x10(%rbp)
  409416:	48 89 55 e8          	mov    %rdx,-0x18(%rbp)
  40941a:	48 8b 55 f0          	mov    -0x10(%rbp),%rdx
  40941e:	48 8b 45 f8          	mov    -0x8(%rbp),%rax
  409422:	48 89 d6             	mov    %rdx,%rsi
  409425:	48 89 c7             	mov    %rax,%rdi
  409428:	e8 c8 0c 00 00       	callq  40a0f5 <_ZSt8_DestroyIPN2cl6DeviceEEvT_S3_>
  40942d:	90                   	nop
  40942e:	c9                   	leaveq 
  40942f:	c3                   	retq   

0000000000409430 <_ZNK2cl6detail7WrapperIP11_cl_contextE6retainEv>:
  409430:	55                   	push   %rbp
  409431:	48 89 e5             	mov    %rsp,%rbp
  409434:	48 83 ec 10          	sub    $0x10,%rsp
  409438:	48 89 7d f8          	mov    %rdi,-0x8(%rbp)
  40943c:	48 8b 45 f8          	mov    -0x8(%rbp),%rax
  409440:	48 8b 00             	mov    (%rax),%rax
  409443:	48 85 c0             	test   %rax,%rax
  409446:	74 11                	je     409459 <_ZNK2cl6detail7WrapperIP11_cl_contextE6retainEv+0x29>
  409448:	48 8b 45 f8          	mov    -0x8(%rbp),%rax
  40944c:	48 8b 00             	mov    (%rax),%rax
  40944f:	48 89 c7             	mov    %rax,%rdi
  409452:	e8 0b b9 ff ff       	callq  404d62 <_ZN2cl6detail16ReferenceHandlerIP11_cl_contextE6retainES3_>
  409457:	eb 05                	jmp    40945e <_ZNK2cl6detail7WrapperIP11_cl_contextE6retainEv+0x2e>
  409459:	b8 00 00 00 00       	mov    $0x0,%eax
  40945e:	c9                   	leaveq 
  40945f:	c3                   	retq   

0000000000409460 <_ZNK2cl6detail7WrapperIP10_cl_kernelE7releaseEv>:
  409460:	55                   	push   %rbp
  409461:	48 89 e5             	mov    %rsp,%rbp
  409464:	48 83 ec 10          	sub    $0x10,%rsp
  409468:	48 89 7d f8          	mov    %rdi,-0x8(%rbp)
  40946c:	48 8b 45 f8          	mov    -0x8(%rbp),%rax
  409470:	48 8b 00             	mov    (%rax),%rax
  409473:	48 85 c0             	test   %rax,%rax
  409476:	74 11                	je     409489 <_ZNK2cl6detail7WrapperIP10_cl_kernelE7releaseEv+0x29>
  409478:	48 8b 45 f8          	mov    -0x8(%rbp),%rax
  40947c:	48 8b 00             	mov    (%rax),%rax
  40947f:	48 89 c7             	mov    %rax,%rdi
  409482:	e8 43 b9 ff ff       	callq  404dca <_ZN2cl6detail16ReferenceHandlerIP10_cl_kernelE7releaseES3_>
  409487:	eb 05                	jmp    40948e <_ZNK2cl6detail7WrapperIP10_cl_kernelE7releaseEv+0x2e>
  409489:	b8 00 00 00 00       	mov    $0x0,%eax
  40948e:	c9                   	leaveq 
  40948f:	c3                   	retq   

0000000000409490 <_ZNK2cl6detail7WrapperIP17_cl_command_queueE7releaseEv>:
  409490:	55                   	push   %rbp
  409491:	48 89 e5             	mov    %rsp,%rbp
  409494:	48 83 ec 10          	sub    $0x10,%rsp
  409498:	48 89 7d f8          	mov    %rdi,-0x8(%rbp)
  40949c:	48 8b 45 f8          	mov    -0x8(%rbp),%rax
  4094a0:	48 8b 00             	mov    (%rax),%rax
  4094a3:	48 85 c0             	test   %rax,%rax
  4094a6:	74 11                	je     4094b9 <_ZNK2cl6detail7WrapperIP17_cl_command_queueE7releaseEv+0x29>
  4094a8:	48 8b 45 f8          	mov    -0x8(%rbp),%rax
  4094ac:	48 8b 00             	mov    (%rax),%rax
  4094af:	48 89 c7             	mov    %rax,%rdi
  4094b2:	e8 f9 b8 ff ff       	callq  404db0 <_ZN2cl6detail16ReferenceHandlerIP17_cl_command_queueE7releaseES3_>
  4094b7:	eb 05                	jmp    4094be <_ZNK2cl6detail7WrapperIP17_cl_command_queueE7releaseEv+0x2e>
  4094b9:	b8 00 00 00 00       	mov    $0x0,%eax
  4094be:	c9                   	leaveq 
  4094bf:	c3                   	retq   

00000000004094c0 <_ZN2cl6detail7getInfoIPFiP11_cl_contextjmPvPmES3_St6vectorINS_6DeviceESaIS9_EEEEiT_RKT0_jPT1_>:
  4094c0:	55                   	push   %rbp
  4094c1:	48 89 e5             	mov    %rsp,%rbp
  4094c4:	48 83 ec 40          	sub    $0x40,%rsp
  4094c8:	48 89 7d d8          	mov    %rdi,-0x28(%rbp)
  4094cc:	48 89 75 d0          	mov    %rsi,-0x30(%rbp)
  4094d0:	89 55 cc             	mov    %edx,-0x34(%rbp)
  4094d3:	48 89 4d c0          	mov    %rcx,-0x40(%rbp)
  4094d7:	64 48 8b 04 25 28 00 	mov    %fs:0x28,%rax
  4094de:	00 00 
  4094e0:	48 89 45 f8          	mov    %rax,-0x8(%rbp)
  4094e4:	31 c0                	xor    %eax,%eax
  4094e6:	48 8b 45 d8          	mov    -0x28(%rbp),%rax
  4094ea:	48 89 45 e0          	mov    %rax,-0x20(%rbp)
  4094ee:	48 8b 45 d0          	mov    -0x30(%rbp),%rax
  4094f2:	48 89 45 e8          	mov    %rax,-0x18(%rbp)
  4094f6:	48 8b 4d c0          	mov    -0x40(%rbp),%rcx
  4094fa:	8b 55 cc             	mov    -0x34(%rbp),%edx
  4094fd:	48 8b 75 e0          	mov    -0x20(%rbp),%rsi
  409501:	48 8b 45 e8          	mov    -0x18(%rbp),%rax
  409505:	41 b9 00 00 00 00    	mov    $0x0,%r9d
  40950b:	41 b8 00 00 00 00    	mov    $0x0,%r8d
  409511:	48 89 f7             	mov    %rsi,%rdi
  409514:	48 89 c6             	mov    %rax,%rsi
  409517:	e8 ff 0b 00 00       	callq  40a11b <_ZN2cl6detail13getInfoHelperINS0_15GetInfoFunctor0IPFiP11_cl_contextjmPvPmES4_EENS_6DeviceEEEiT_jPSt6vectorIT0_SaISD_EEiNSD_7cl_typeE>
  40951c:	48 8b 7d f8          	mov    -0x8(%rbp),%rdi
  409520:	64 48 33 3c 25 28 00 	xor    %fs:0x28,%rdi
  409527:	00 00 
  409529:	74 05                	je     409530 <_ZN2cl6detail7getInfoIPFiP11_cl_contextjmPvPmES3_St6vectorINS_6DeviceESaIS9_EEEEiT_RKT0_jPT1_+0x70>
  40952b:	e8 20 a9 ff ff       	callq  403e50 <__stack_chk_fail@plt>
  409530:	c9                   	leaveq 
  409531:	c3                   	retq   

0000000000409532 <_ZNK2cl6detail7WrapperIP17_cl_command_queueE6retainEv>:
  409532:	55                   	push   %rbp
  409533:	48 89 e5             	mov    %rsp,%rbp
  409536:	48 83 ec 10          	sub    $0x10,%rsp
  40953a:	48 89 7d f8          	mov    %rdi,-0x8(%rbp)
  40953e:	48 8b 45 f8          	mov    -0x8(%rbp),%rax
  409542:	48 8b 00             	mov    (%rax),%rax
  409545:	48 85 c0             	test   %rax,%rax
  409548:	74 11                	je     40955b <_ZNK2cl6detail7WrapperIP17_cl_command_queueE6retainEv+0x29>
  40954a:	48 8b 45 f8          	mov    -0x8(%rbp),%rax
  40954e:	48 8b 00             	mov    (%rax),%rax
  409551:	48 89 c7             	mov    %rax,%rdi
  409554:	e8 3d b8 ff ff       	callq  404d96 <_ZN2cl6detail16ReferenceHandlerIP17_cl_command_queueE6retainES3_>
  409559:	eb 05                	jmp    409560 <_ZNK2cl6detail7WrapperIP17_cl_command_queueE6retainEv+0x2e>
  40955b:	b8 00 00 00 00       	mov    $0x0,%eax
  409560:	c9                   	leaveq 
  409561:	c3                   	retq   

0000000000409562 <_ZNSt14__array_traitsImLm6EE6_S_ptrERA6_Km>:
  409562:	55                   	push   %rbp
  409563:	48 89 e5             	mov    %rsp,%rbp
  409566:	48 89 7d f8          	mov    %rdi,-0x8(%rbp)
  40956a:	48 8b 45 f8          	mov    -0x8(%rbp),%rax
  40956e:	5d                   	pop    %rbp
  40956f:	c3                   	retq   

0000000000409570 <_ZNSt5arrayImLm6EE4dataEv>:
  409570:	55                   	push   %rbp
  409571:	48 89 e5             	mov    %rsp,%rbp
  409574:	48 83 ec 10          	sub    $0x10,%rsp
  409578:	48 89 7d f8          	mov    %rdi,-0x8(%rbp)
  40957c:	48 8b 45 f8          	mov    -0x8(%rbp),%rax
  409580:	48 89 c7             	mov    %rax,%rdi
  409583:	e8 da ff ff ff       	callq  409562 <_ZNSt14__array_traitsImLm6EE6_S_ptrERA6_Km>
  409588:	c9                   	leaveq 
  409589:	c3                   	retq   

000000000040958a <_ZN11arm_compute10DimensionsImEC1IIEEEDpT_>:
  40958a:	55                   	push   %rbp
  40958b:	48 89 e5             	mov    %rsp,%rbp
  40958e:	48 89 7d f8          	mov    %rdi,-0x8(%rbp)
  409592:	48 8b 45 f8          	mov    -0x8(%rbp),%rax
  409596:	48 89 c6             	mov    %rax,%rsi
  409599:	b8 00 00 00 00       	mov    $0x0,%eax
  40959e:	ba 06 00 00 00       	mov    $0x6,%edx
  4095a3:	48 89 f7             	mov    %rsi,%rdi
  4095a6:	48 89 d1             	mov    %rdx,%rcx
  4095a9:	f3 48 ab             	rep stos %rax,%es:(%rdi)
  4095ac:	48 8b 45 f8          	mov    -0x8(%rbp),%rax
  4095b0:	48 c7 40 30 00 00 00 	movq   $0x0,0x30(%rax)
  4095b7:	00 
  4095b8:	90                   	nop
  4095b9:	5d                   	pop    %rbp
  4095ba:	c3                   	retq   
  4095bb:	90                   	nop

00000000004095bc <_ZNSt5arrayIiLm6EEixEm>:
  4095bc:	55                   	push   %rbp
  4095bd:	48 89 e5             	mov    %rsp,%rbp
  4095c0:	48 83 ec 10          	sub    $0x10,%rsp
  4095c4:	48 89 7d f8          	mov    %rdi,-0x8(%rbp)
  4095c8:	48 89 75 f0          	mov    %rsi,-0x10(%rbp)
  4095cc:	48 8b 45 f8          	mov    -0x8(%rbp),%rax
  4095d0:	48 8b 55 f0          	mov    -0x10(%rbp),%rdx
  4095d4:	48 89 d6             	mov    %rdx,%rsi
  4095d7:	48 89 c7             	mov    %rax,%rdi
  4095da:	e8 bf ea ff ff       	callq  40809e <_ZNSt14__array_traitsIiLm6EE6_S_refERA6_Kim>
  4095df:	c9                   	leaveq 
  4095e0:	c3                   	retq   
  4095e1:	90                   	nop

00000000004095e2 <_ZNSt16_Sp_counted_baseILN9__gnu_cxx12_Lock_policyE2EE10_M_releaseEv>:
  4095e2:	55                   	push   %rbp
  4095e3:	48 89 e5             	mov    %rsp,%rbp
  4095e6:	48 83 ec 10          	sub    $0x10,%rsp
  4095ea:	48 89 7d f8          	mov    %rdi,-0x8(%rbp)
  4095ee:	48 8b 45 f8          	mov    -0x8(%rbp),%rax
  4095f2:	48 83 c0 08          	add    $0x8,%rax
  4095f6:	be ff ff ff ff       	mov    $0xffffffff,%esi
  4095fb:	48 89 c7             	mov    %rax,%rdi
  4095fe:	e8 a7 ac ff ff       	callq  4042aa <_ZN9__gnu_cxxL27__exchange_and_add_dispatchEPii>
  409603:	83 f8 01             	cmp    $0x1,%eax
  409606:	0f 94 c0             	sete   %al
  409609:	84 c0                	test   %al,%al
  40960b:	74 4d                	je     40965a <_ZNSt16_Sp_counted_baseILN9__gnu_cxx12_Lock_policyE2EE10_M_releaseEv+0x78>
  40960d:	48 8b 45 f8          	mov    -0x8(%rbp),%rax
  409611:	48 8b 00             	mov    (%rax),%rax
  409614:	48 83 c0 10          	add    $0x10,%rax
  409618:	48 8b 00             	mov    (%rax),%rax
  40961b:	48 8b 55 f8          	mov    -0x8(%rbp),%rdx
  40961f:	48 89 d7             	mov    %rdx,%rdi
  409622:	ff d0                	callq  *%rax
  409624:	48 8b 45 f8          	mov    -0x8(%rbp),%rax
  409628:	48 83 c0 0c          	add    $0xc,%rax
  40962c:	be ff ff ff ff       	mov    $0xffffffff,%esi
  409631:	48 89 c7             	mov    %rax,%rdi
  409634:	e8 71 ac ff ff       	callq  4042aa <_ZN9__gnu_cxxL27__exchange_and_add_dispatchEPii>
  409639:	83 f8 01             	cmp    $0x1,%eax
  40963c:	0f 94 c0             	sete   %al
  40963f:	84 c0                	test   %al,%al
  409641:	74 17                	je     40965a <_ZNSt16_Sp_counted_baseILN9__gnu_cxx12_Lock_policyE2EE10_M_releaseEv+0x78>
  409643:	48 8b 45 f8          	mov    -0x8(%rbp),%rax
  409647:	48 8b 00             	mov    (%rax),%rax
  40964a:	48 83 c0 18          	add    $0x18,%rax
  40964e:	48 8b 00             	mov    (%rax),%rax
  409651:	48 8b 55 f8          	mov    -0x8(%rbp),%rdx
  409655:	48 89 d7             	mov    %rdx,%rdi
  409658:	ff d0                	callq  *%rax
  40965a:	90                   	nop
  40965b:	c9                   	leaveq 
  40965c:	c3                   	retq   
  40965d:	90                   	nop

000000000040965e <_ZN11arm_compute10DimensionsImEC1IIiiiEEEDpT_>:
  40965e:	55                   	push   %rbp
  40965f:	48 89 e5             	mov    %rsp,%rbp
  409662:	48 89 7d f8          	mov    %rdi,-0x8(%rbp)
  409666:	89 75 f4             	mov    %esi,-0xc(%rbp)
  409669:	89 55 f0             	mov    %edx,-0x10(%rbp)
  40966c:	89 4d ec             	mov    %ecx,-0x14(%rbp)
  40966f:	48 8b 45 f8          	mov    -0x8(%rbp),%rax
  409673:	48 89 c6             	mov    %rax,%rsi
  409676:	b8 00 00 00 00       	mov    $0x0,%eax
  40967b:	ba 06 00 00 00       	mov    $0x6,%edx
  409680:	48 89 f7             	mov    %rsi,%rdi
  409683:	48 89 d1             	mov    %rdx,%rcx
  409686:	f3 48 ab             	rep stos %rax,%es:(%rdi)
  409689:	8b 45 f4             	mov    -0xc(%rbp),%eax
  40968c:	48 63 d0             	movslq %eax,%rdx
  40968f:	48 8b 45 f8          	mov    -0x8(%rbp),%rax
  409693:	48 89 10             	mov    %rdx,(%rax)
  409696:	8b 45 f0             	mov    -0x10(%rbp),%eax
  409699:	48 63 d0             	movslq %eax,%rdx
  40969c:	48 8b 45 f8          	mov    -0x8(%rbp),%rax
  4096a0:	48 89 50 08          	mov    %rdx,0x8(%rax)
  4096a4:	8b 45 ec             	mov    -0x14(%rbp),%eax
  4096a7:	48 63 d0             	movslq %eax,%rdx
  4096aa:	48 8b 45 f8          	mov    -0x8(%rbp),%rax
  4096ae:	48 89 50 10          	mov    %rdx,0x10(%rax)
  4096b2:	48 8b 45 f8          	mov    -0x8(%rbp),%rax
  4096b6:	48 c7 40 30 03 00 00 	movq   $0x3,0x30(%rax)
  4096bd:	00 
  4096be:	90                   	nop
  4096bf:	5d                   	pop    %rbp
  4096c0:	c3                   	retq   

00000000004096c1 <_ZN2CK14print_raw_dataIfEEvPT_RKNS_5ShapeE>:
  4096c1:	55                   	push   %rbp
  4096c2:	48 89 e5             	mov    %rsp,%rbp
  4096c5:	48 83 ec 30          	sub    $0x30,%rsp
  4096c9:	48 89 7d d8          	mov    %rdi,-0x28(%rbp)
  4096cd:	48 89 75 d0          	mov    %rsi,-0x30(%rbp)
  4096d1:	bf c8 c9 40 00       	mov    $0x40c9c8,%edi
  4096d6:	e8 a5 a8 ff ff       	callq  403f80 <puts@plt>
  4096db:	48 8b 45 d0          	mov    -0x30(%rbp),%rax
  4096df:	8b 70 08             	mov    0x8(%rax),%esi
  4096e2:	48 8b 45 d0          	mov    -0x30(%rbp),%rax
  4096e6:	8b 48 0c             	mov    0xc(%rax),%ecx
  4096e9:	48 8b 45 d0          	mov    -0x30(%rbp),%rax
  4096ed:	8b 50 04             	mov    0x4(%rax),%edx
  4096f0:	48 8b 45 d0          	mov    -0x30(%rbp),%rax
  4096f4:	8b 00                	mov    (%rax),%eax
  4096f6:	41 89 f0             	mov    %esi,%r8d
  4096f9:	89 c6                	mov    %eax,%esi
  4096fb:	bf ec c9 40 00       	mov    $0x40c9ec,%edi
  409700:	b8 00 00 00 00       	mov    $0x0,%eax
  409705:	e8 46 a5 ff ff       	callq  403c50 <printf@plt>
  40970a:	c7 45 ec 00 00 00 00 	movl   $0x0,-0x14(%rbp)
  409711:	48 8b 45 d0          	mov    -0x30(%rbp),%rax
  409715:	8b 00                	mov    (%rax),%eax
  409717:	3b 45 ec             	cmp    -0x14(%rbp),%eax
  40971a:	0f 8e c5 00 00 00    	jle    4097e5 <_ZN2CK14print_raw_dataIfEEvPT_RKNS_5ShapeE+0x124>
  409720:	c7 45 f0 00 00 00 00 	movl   $0x0,-0x10(%rbp)
  409727:	48 8b 45 d0          	mov    -0x30(%rbp),%rax
  40972b:	8b 40 04             	mov    0x4(%rax),%eax
  40972e:	3b 45 f0             	cmp    -0x10(%rbp),%eax
  409731:	0f 8e a5 00 00 00    	jle    4097dc <_ZN2CK14print_raw_dataIfEEvPT_RKNS_5ShapeE+0x11b>
  409737:	8b 55 f0             	mov    -0x10(%rbp),%edx
  40973a:	8b 45 ec             	mov    -0x14(%rbp),%eax
  40973d:	89 c6                	mov    %eax,%esi
  40973f:	bf 0a ca 40 00       	mov    $0x40ca0a,%edi
  409744:	b8 00 00 00 00       	mov    $0x0,%eax
  409749:	e8 02 a5 ff ff       	callq  403c50 <printf@plt>
  40974e:	c7 45 f4 00 00 00 00 	movl   $0x0,-0xc(%rbp)
  409755:	48 8b 45 d0          	mov    -0x30(%rbp),%rax
  409759:	8b 40 0c             	mov    0xc(%rax),%eax
  40975c:	3b 45 f4             	cmp    -0xc(%rbp),%eax
  40975f:	7e 72                	jle    4097d3 <_ZN2CK14print_raw_dataIfEEvPT_RKNS_5ShapeE+0x112>
  409761:	c7 45 f8 00 00 00 00 	movl   $0x0,-0x8(%rbp)
  409768:	48 8b 45 d0          	mov    -0x30(%rbp),%rax
  40976c:	8b 40 08             	mov    0x8(%rax),%eax
  40976f:	3b 45 f8             	cmp    -0x8(%rbp),%eax
  409772:	7e 4f                	jle    4097c3 <_ZN2CK14print_raw_dataIfEEvPT_RKNS_5ShapeE+0x102>
  409774:	8b 7d f8             	mov    -0x8(%rbp),%edi
  409777:	8b 4d f4             	mov    -0xc(%rbp),%ecx
  40977a:	8b 55 f0             	mov    -0x10(%rbp),%edx
  40977d:	8b 75 ec             	mov    -0x14(%rbp),%esi
  409780:	48 8b 45 d0          	mov    -0x30(%rbp),%rax
  409784:	41 89 f8             	mov    %edi,%r8d
  409787:	48 89 c7             	mov    %rax,%rdi
  40978a:	e8 51 d7 ff ff       	callq  406ee0 <_ZNK2CK5Shape14get_flat_indexEiiii>
  40978f:	89 45 fc             	mov    %eax,-0x4(%rbp)
  409792:	8b 45 fc             	mov    -0x4(%rbp),%eax
  409795:	48 98                	cltq   
  409797:	48 8d 14 85 00 00 00 	lea    0x0(,%rax,4),%rdx
  40979e:	00 
  40979f:	48 8b 45 d8          	mov    -0x28(%rbp),%rax
  4097a3:	48 01 d0             	add    %rdx,%rax
  4097a6:	f3 0f 10 00          	movss  (%rax),%xmm0
  4097aa:	f3 0f 5a c0          	cvtss2sd %xmm0,%xmm0
  4097ae:	bf 17 ca 40 00       	mov    $0x40ca17,%edi
  4097b3:	b8 01 00 00 00       	mov    $0x1,%eax
  4097b8:	e8 93 a4 ff ff       	callq  403c50 <printf@plt>
  4097bd:	83 45 f8 01          	addl   $0x1,-0x8(%rbp)
  4097c1:	eb a5                	jmp    409768 <_ZN2CK14print_raw_dataIfEEvPT_RKNS_5ShapeE+0xa7>
  4097c3:	bf 0a 00 00 00       	mov    $0xa,%edi
  4097c8:	e8 63 a7 ff ff       	callq  403f30 <putchar@plt>
  4097cd:	83 45 f4 01          	addl   $0x1,-0xc(%rbp)
  4097d1:	eb 82                	jmp    409755 <_ZN2CK14print_raw_dataIfEEvPT_RKNS_5ShapeE+0x94>
  4097d3:	83 45 f0 01          	addl   $0x1,-0x10(%rbp)
  4097d7:	e9 4b ff ff ff       	jmpq   409727 <_ZN2CK14print_raw_dataIfEEvPT_RKNS_5ShapeE+0x66>
  4097dc:	83 45 ec 01          	addl   $0x1,-0x14(%rbp)
  4097e0:	e9 2c ff ff ff       	jmpq   409711 <_ZN2CK14print_raw_dataIfEEvPT_RKNS_5ShapeE+0x50>
  4097e5:	bf c8 c9 40 00       	mov    $0x40c9c8,%edi
  4097ea:	e8 91 a7 ff ff       	callq  403f80 <puts@plt>
  4097ef:	90                   	nop
  4097f0:	c9                   	leaveq 
  4097f1:	c3                   	retq   

00000000004097f2 <_ZSt7forwardIZN2CK5armcl23copy_raw_data_to_tensorIfEEvPN11arm_compute8CLTensorEPT_RKNS0_5ShapeEEUlRKNS3_11CoordinatesEE_EOS6_RNSt16remove_referenceIS6_E4typeE>:
  4097f2:	55                   	push   %rbp
  4097f3:	48 89 e5             	mov    %rsp,%rbp
  4097f6:	48 89 7d f8          	mov    %rdi,-0x8(%rbp)
  4097fa:	48 8b 45 f8          	mov    -0x8(%rbp),%rax
  4097fe:	5d                   	pop    %rbp
  4097ff:	c3                   	retq   

0000000000409800 <_ZSt7forwardIRN11arm_compute8IteratorEEOT_RNSt16remove_referenceIS3_E4typeE>:
  409800:	55                   	push   %rbp
  409801:	48 89 e5             	mov    %rsp,%rbp
  409804:	48 89 7d f8          	mov    %rdi,-0x8(%rbp)
  409808:	48 8b 45 f8          	mov    -0x8(%rbp),%rax
  40980c:	5d                   	pop    %rbp
  40980d:	c3                   	retq   

000000000040980e <_ZN11arm_compute19execute_window_loopIZN2CK5armcl23copy_raw_data_to_tensorIfEEvPNS_8CLTensorEPT_RKNS1_5ShapeEEUlRKNS_11CoordinatesEE_IRNS_8IteratorEEEEvRKNS_6WindowEOS6_DpOT0_>:
  40980e:	55                   	push   %rbp
  40980f:	48 89 e5             	mov    %rsp,%rbp
  409812:	53                   	push   %rbx
  409813:	48 83 ec 58          	sub    $0x58,%rsp
  409817:	48 89 7d b8          	mov    %rdi,-0x48(%rbp)
  40981b:	48 89 75 b0          	mov    %rsi,-0x50(%rbp)
  40981f:	48 89 55 a8          	mov    %rdx,-0x58(%rbp)
  409823:	64 48 8b 04 25 28 00 	mov    %fs:0x28,%rax
  40982a:	00 00 
  40982c:	48 89 45 e8          	mov    %rax,-0x18(%rbp)
  409830:	31 c0                	xor    %eax,%eax
  409832:	48 8b 45 b8          	mov    -0x48(%rbp),%rax
  409836:	48 89 c7             	mov    %rax,%rdi
  409839:	e8 1a cf ff ff       	callq  406758 <_ZNK11arm_compute6Window8validateEv>
  40983e:	48 8d 45 c0          	lea    -0x40(%rbp),%rax
  409842:	48 89 c7             	mov    %rax,%rdi
  409845:	e8 b8 cd ff ff       	callq  406602 <_ZN11arm_compute11CoordinatesC1IIEEEDpT_>
  40984a:	48 8b 45 a8          	mov    -0x58(%rbp),%rax
  40984e:	48 89 c7             	mov    %rax,%rdi
  409851:	e8 aa ff ff ff       	callq  409800 <_ZSt7forwardIRN11arm_compute8IteratorEEOT_RNSt16remove_referenceIS3_E4typeE>
  409856:	48 89 c3             	mov    %rax,%rbx
  409859:	48 8b 45 b0          	mov    -0x50(%rbp),%rax
  40985d:	48 89 c7             	mov    %rax,%rdi
  409860:	e8 8d ff ff ff       	callq  4097f2 <_ZSt7forwardIZN2CK5armcl23copy_raw_data_to_tensorIfEEvPN11arm_compute8CLTensorEPT_RKNS0_5ShapeEEUlRKNS3_11CoordinatesEE_EOS6_RNSt16remove_referenceIS6_E4typeE>
  409865:	48 89 c2             	mov    %rax,%rdx
  409868:	48 8d 75 c0          	lea    -0x40(%rbp),%rsi
  40986c:	48 8b 45 b8          	mov    -0x48(%rbp),%rax
  409870:	48 89 d9             	mov    %rbx,%rcx
  409873:	48 89 c7             	mov    %rax,%rdi
  409876:	e8 93 0a 00 00       	callq  40a30e <_ZN11arm_compute16ForEachDimensionILm6EE6unrollIZN2CK5armcl23copy_raw_data_to_tensorIfEEvPNS_8CLTensorEPT_RKNS3_5ShapeEEUlRKNS_11CoordinatesEE_IRNS_8IteratorEEEEvRKNS_6WindowERSD_OS8_DpOT0_>
  40987b:	90                   	nop
  40987c:	48 8b 45 e8          	mov    -0x18(%rbp),%rax
  409880:	64 48 33 04 25 28 00 	xor    %fs:0x28,%rax
  409887:	00 00 
  409889:	74 05                	je     409890 <_ZN11arm_compute19execute_window_loopIZN2CK5armcl23copy_raw_data_to_tensorIfEEvPNS_8CLTensorEPT_RKNS1_5ShapeEEUlRKNS_11CoordinatesEE_IRNS_8IteratorEEEEvRKNS_6WindowEOS6_DpOT0_+0x82>
  40988b:	e8 c0 a5 ff ff       	callq  403e50 <__stack_chk_fail@plt>
  409890:	48 83 c4 58          	add    $0x58,%rsp
  409894:	5b                   	pop    %rbx
  409895:	5d                   	pop    %rbp
  409896:	c3                   	retq   

0000000000409897 <_ZSt7forwardIZN2CK5armcl25copy_raw_data_from_tensorIfEEvPN11arm_compute8CLTensorEPT_RKNS0_5ShapeEEUlRKNS3_11CoordinatesEE_EOS6_RNSt16remove_referenceIS6_E4typeE>:
  409897:	55                   	push   %rbp
  409898:	48 89 e5             	mov    %rsp,%rbp
  40989b:	48 89 7d f8          	mov    %rdi,-0x8(%rbp)
  40989f:	48 8b 45 f8          	mov    -0x8(%rbp),%rax
  4098a3:	5d                   	pop    %rbp
  4098a4:	c3                   	retq   

00000000004098a5 <_ZN11arm_compute19execute_window_loopIZN2CK5armcl25copy_raw_data_from_tensorIfEEvPNS_8CLTensorEPT_RKNS1_5ShapeEEUlRKNS_11CoordinatesEE_IRNS_8IteratorEEEEvRKNS_6WindowEOS6_DpOT0_>:
  4098a5:	55                   	push   %rbp
  4098a6:	48 89 e5             	mov    %rsp,%rbp
  4098a9:	53                   	push   %rbx
  4098aa:	48 83 ec 58          	sub    $0x58,%rsp
  4098ae:	48 89 7d b8          	mov    %rdi,-0x48(%rbp)
  4098b2:	48 89 75 b0          	mov    %rsi,-0x50(%rbp)
  4098b6:	48 89 55 a8          	mov    %rdx,-0x58(%rbp)
  4098ba:	64 48 8b 04 25 28 00 	mov    %fs:0x28,%rax
  4098c1:	00 00 
  4098c3:	48 89 45 e8          	mov    %rax,-0x18(%rbp)
  4098c7:	31 c0                	xor    %eax,%eax
  4098c9:	48 8b 45 b8          	mov    -0x48(%rbp),%rax
  4098cd:	48 89 c7             	mov    %rax,%rdi
  4098d0:	e8 83 ce ff ff       	callq  406758 <_ZNK11arm_compute6Window8validateEv>
  4098d5:	48 8d 45 c0          	lea    -0x40(%rbp),%rax
  4098d9:	48 89 c7             	mov    %rax,%rdi
  4098dc:	e8 21 cd ff ff       	callq  406602 <_ZN11arm_compute11CoordinatesC1IIEEEDpT_>
  4098e1:	48 8b 45 a8          	mov    -0x58(%rbp),%rax
  4098e5:	48 89 c7             	mov    %rax,%rdi
  4098e8:	e8 13 ff ff ff       	callq  409800 <_ZSt7forwardIRN11arm_compute8IteratorEEOT_RNSt16remove_referenceIS3_E4typeE>
  4098ed:	48 89 c3             	mov    %rax,%rbx
  4098f0:	48 8b 45 b0          	mov    -0x50(%rbp),%rax
  4098f4:	48 89 c7             	mov    %rax,%rdi
  4098f7:	e8 9b ff ff ff       	callq  409897 <_ZSt7forwardIZN2CK5armcl25copy_raw_data_from_tensorIfEEvPN11arm_compute8CLTensorEPT_RKNS0_5ShapeEEUlRKNS3_11CoordinatesEE_EOS6_RNSt16remove_referenceIS6_E4typeE>
  4098fc:	48 89 c2             	mov    %rax,%rdx
  4098ff:	48 8d 75 c0          	lea    -0x40(%rbp),%rsi
  409903:	48 8b 45 b8          	mov    -0x48(%rbp),%rax
  409907:	48 89 d9             	mov    %rbx,%rcx
  40990a:	48 89 c7             	mov    %rax,%rdi
  40990d:	e8 9a 0a 00 00       	callq  40a3ac <_ZN11arm_compute16ForEachDimensionILm6EE6unrollIZN2CK5armcl25copy_raw_data_from_tensorIfEEvPNS_8CLTensorEPT_RKNS3_5ShapeEEUlRKNS_11CoordinatesEE_IRNS_8IteratorEEEEvRKNS_6WindowERSD_OS8_DpOT0_>
  409912:	90                   	nop
  409913:	48 8b 45 e8          	mov    -0x18(%rbp),%rax
  409917:	64 48 33 04 25 28 00 	xor    %fs:0x28,%rax
  40991e:	00 00 
  409920:	74 05                	je     409927 <_ZN11arm_compute19execute_window_loopIZN2CK5armcl25copy_raw_data_from_tensorIfEEvPNS_8CLTensorEPT_RKNS1_5ShapeEEUlRKNS_11CoordinatesEE_IRNS_8IteratorEEEEvRKNS_6WindowEOS6_DpOT0_+0x82>
  409922:	e8 29 a5 ff ff       	callq  403e50 <__stack_chk_fail@plt>
  409927:	48 83 c4 58          	add    $0x58,%rsp
  40992b:	5b                   	pop    %rbx
  40992c:	5d                   	pop    %rbp
  40992d:	c3                   	retq   

000000000040992e <_ZNSt10_Iter_baseIPmLb0EE7_S_baseES0_>:
  40992e:	55                   	push   %rbp
  40992f:	48 89 e5             	mov    %rsp,%rbp
  409932:	48 89 7d f8          	mov    %rdi,-0x8(%rbp)
  409936:	48 8b 45 f8          	mov    -0x8(%rbp),%rax
  40993a:	5d                   	pop    %rbp
  40993b:	c3                   	retq   

000000000040993c <_ZNSt26_Maybe_wrap_member_pointerIPFvvEE9__do_wrapEOS1_>:
  40993c:	55                   	push   %rbp
  40993d:	48 89 e5             	mov    %rsp,%rbp
  409940:	48 89 7d f8          	mov    %rdi,-0x8(%rbp)
  409944:	48 8b 45 f8          	mov    -0x8(%rbp),%rax
  409948:	5d                   	pop    %rbp
  409949:	c3                   	retq   

000000000040994a <_ZNSt11_Tuple_implILm0EIPFvvEEEC1IS1_EEOT_>:
  40994a:	55                   	push   %rbp
  40994b:	48 89 e5             	mov    %rsp,%rbp
  40994e:	48 83 ec 10          	sub    $0x10,%rsp
  409952:	48 89 7d f8          	mov    %rdi,-0x8(%rbp)
  409956:	48 89 75 f0          	mov    %rsi,-0x10(%rbp)
  40995a:	48 8b 45 f0          	mov    -0x10(%rbp),%rax
  40995e:	48 89 c7             	mov    %rax,%rdi
  409961:	e8 a8 db ff ff       	callq  40750e <_ZSt7forwardIPFvvEEOT_RNSt16remove_referenceIS2_E4typeE>
  409966:	48 89 c2             	mov    %rax,%rdx
  409969:	48 8b 45 f8          	mov    -0x8(%rbp),%rax
  40996d:	48 89 d6             	mov    %rdx,%rsi
  409970:	48 89 c7             	mov    %rax,%rdi
  409973:	e8 a4 db ff ff       	callq  40751c <_ZNSt10_Head_baseILm0EPFvvELb0EEC1IS1_EEOT_>
  409978:	90                   	nop
  409979:	c9                   	leaveq 
  40997a:	c3                   	retq   
  40997b:	90                   	nop

000000000040997c <_ZNSt5tupleIIPFvvEEEC1IIS1_EvEEDpOT_>:
  40997c:	55                   	push   %rbp
  40997d:	48 89 e5             	mov    %rsp,%rbp
  409980:	48 83 ec 10          	sub    $0x10,%rsp
  409984:	48 89 7d f8          	mov    %rdi,-0x8(%rbp)
  409988:	48 89 75 f0          	mov    %rsi,-0x10(%rbp)
  40998c:	48 8b 45 f0          	mov    -0x10(%rbp),%rax
  409990:	48 89 c7             	mov    %rax,%rdi
  409993:	e8 76 db ff ff       	callq  40750e <_ZSt7forwardIPFvvEEOT_RNSt16remove_referenceIS2_E4typeE>
  409998:	48 89 c2             	mov    %rax,%rdx
  40999b:	48 8b 45 f8          	mov    -0x8(%rbp),%rax
  40999f:	48 89 d6             	mov    %rdx,%rsi
  4099a2:	48 89 c7             	mov    %rax,%rdi
  4099a5:	e8 a0 ff ff ff       	callq  40994a <_ZNSt11_Tuple_implILm0EIPFvvEEEC1IS1_EEOT_>
  4099aa:	90                   	nop
  4099ab:	c9                   	leaveq 
  4099ac:	c3                   	retq   
  4099ad:	90                   	nop

00000000004099ae <_ZNSt12_Bind_simpleIFPFvvEvEEC1IS1_IEEEOT_DpOT0_>:
  4099ae:	55                   	push   %rbp
  4099af:	48 89 e5             	mov    %rsp,%rbp
  4099b2:	48 83 ec 10          	sub    $0x10,%rsp
  4099b6:	48 89 7d f8          	mov    %rdi,-0x8(%rbp)
  4099ba:	48 89 75 f0          	mov    %rsi,-0x10(%rbp)
  4099be:	48 8b 45 f0          	mov    -0x10(%rbp),%rax
  4099c2:	48 89 c7             	mov    %rax,%rdi
  4099c5:	e8 44 db ff ff       	callq  40750e <_ZSt7forwardIPFvvEEOT_RNSt16remove_referenceIS2_E4typeE>
  4099ca:	48 89 c2             	mov    %rax,%rdx
  4099cd:	48 8b 45 f8          	mov    -0x8(%rbp),%rax
  4099d1:	48 89 d6             	mov    %rdx,%rsi
  4099d4:	48 89 c7             	mov    %rax,%rdi
  4099d7:	e8 a0 ff ff ff       	callq  40997c <_ZNSt5tupleIIPFvvEEEC1IIS1_EvEEDpOT_>
  4099dc:	90                   	nop
  4099dd:	c9                   	leaveq 
  4099de:	c3                   	retq   
  4099df:	90                   	nop

00000000004099e0 <_ZNSt12_Bind_simpleIFPFvvEvEEclEv>:
  4099e0:	55                   	push   %rbp
  4099e1:	48 89 e5             	mov    %rsp,%rbp
  4099e4:	48 83 ec 20          	sub    $0x20,%rsp
  4099e8:	48 89 7d e8          	mov    %rdi,-0x18(%rbp)
  4099ec:	64 48 8b 04 25 28 00 	mov    %fs:0x28,%rax
  4099f3:	00 00 
  4099f5:	48 89 45 f8          	mov    %rax,-0x8(%rbp)
  4099f9:	31 c0                	xor    %eax,%eax
  4099fb:	48 8b 45 e8          	mov    -0x18(%rbp),%rax
  4099ff:	48 83 ec 08          	sub    $0x8,%rsp
  409a03:	52                   	push   %rdx
  409a04:	48 89 c7             	mov    %rax,%rdi
  409a07:	e8 72 0a 00 00       	callq  40a47e <_ZNSt12_Bind_simpleIFPFvvEvEE9_M_invokeIIEEEvSt12_Index_tupleIIXspT_EEE>
  409a0c:	48 83 c4 10          	add    $0x10,%rsp
  409a10:	48 8b 45 f8          	mov    -0x8(%rbp),%rax
  409a14:	64 48 33 04 25 28 00 	xor    %fs:0x28,%rax
  409a1b:	00 00 
  409a1d:	74 05                	je     409a24 <_ZNSt12_Bind_simpleIFPFvvEvEEclEv+0x44>
  409a1f:	e8 2c a4 ff ff       	callq  403e50 <__stack_chk_fail@plt>
  409a24:	c9                   	leaveq 
  409a25:	c3                   	retq   

0000000000409a26 <_ZNSt12_Vector_baseIP15_cl_platform_idSaIS1_EE12_Vector_implC1ERKS2_>:
  409a26:	55                   	push   %rbp
  409a27:	48 89 e5             	mov    %rsp,%rbp
  409a2a:	48 83 ec 10          	sub    $0x10,%rsp
  409a2e:	48 89 7d f8          	mov    %rdi,-0x8(%rbp)
  409a32:	48 89 75 f0          	mov    %rsi,-0x10(%rbp)
  409a36:	48 8b 55 f0          	mov    -0x10(%rbp),%rdx
  409a3a:	48 8b 45 f8          	mov    -0x8(%rbp),%rax
  409a3e:	48 89 d6             	mov    %rdx,%rsi
  409a41:	48 89 c7             	mov    %rax,%rdi
  409a44:	e8 5d 0a 00 00       	callq  40a4a6 <_ZNSaIP15_cl_platform_idEC1ERKS1_>
  409a49:	48 8b 45 f8          	mov    -0x8(%rbp),%rax
  409a4d:	48 c7 00 00 00 00 00 	movq   $0x0,(%rax)
  409a54:	48 8b 45 f8          	mov    -0x8(%rbp),%rax
  409a58:	48 c7 40 08 00 00 00 	movq   $0x0,0x8(%rax)
  409a5f:	00 
  409a60:	48 8b 45 f8          	mov    -0x8(%rbp),%rax
  409a64:	48 c7 40 10 00 00 00 	movq   $0x0,0x10(%rax)
  409a6b:	00 
  409a6c:	90                   	nop
  409a6d:	c9                   	leaveq 
  409a6e:	c3                   	retq   
  409a6f:	90                   	nop

0000000000409a70 <_ZNSt12_Vector_baseIP15_cl_platform_idSaIS1_EE17_M_create_storageEm>:
  409a70:	55                   	push   %rbp
  409a71:	48 89 e5             	mov    %rsp,%rbp
  409a74:	48 83 ec 10          	sub    $0x10,%rsp
  409a78:	48 89 7d f8          	mov    %rdi,-0x8(%rbp)
  409a7c:	48 89 75 f0          	mov    %rsi,-0x10(%rbp)
  409a80:	48 8b 55 f0          	mov    -0x10(%rbp),%rdx
  409a84:	48 8b 45 f8          	mov    -0x8(%rbp),%rax
  409a88:	48 89 d6             	mov    %rdx,%rsi
  409a8b:	48 89 c7             	mov    %rax,%rdi
  409a8e:	e8 39 0a 00 00       	callq  40a4cc <_ZNSt12_Vector_baseIP15_cl_platform_idSaIS1_EE11_M_allocateEm>
  409a93:	48 89 c2             	mov    %rax,%rdx
  409a96:	48 8b 45 f8          	mov    -0x8(%rbp),%rax
  409a9a:	48 89 10             	mov    %rdx,(%rax)
  409a9d:	48 8b 45 f8          	mov    -0x8(%rbp),%rax
  409aa1:	48 8b 10             	mov    (%rax),%rdx
  409aa4:	48 8b 45 f8          	mov    -0x8(%rbp),%rax
  409aa8:	48 89 50 08          	mov    %rdx,0x8(%rax)
  409aac:	48 8b 45 f8          	mov    -0x8(%rbp),%rax
  409ab0:	48 8b 00             	mov    (%rax),%rax
  409ab3:	48 8b 55 f0          	mov    -0x10(%rbp),%rdx
  409ab7:	48 c1 e2 03          	shl    $0x3,%rdx
  409abb:	48 01 c2             	add    %rax,%rdx
  409abe:	48 8b 45 f8          	mov    -0x8(%rbp),%rax
  409ac2:	48 89 50 10          	mov    %rdx,0x10(%rax)
  409ac6:	90                   	nop
  409ac7:	c9                   	leaveq 
  409ac8:	c3                   	retq   
  409ac9:	90                   	nop

0000000000409aca <_ZNSt12_Vector_baseIP15_cl_platform_idSaIS1_EE13_M_deallocateEPS1_m>:
  409aca:	55                   	push   %rbp
  409acb:	48 89 e5             	mov    %rsp,%rbp
  409ace:	48 83 ec 20          	sub    $0x20,%rsp
  409ad2:	48 89 7d f8          	mov    %rdi,-0x8(%rbp)
  409ad6:	48 89 75 f0          	mov    %rsi,-0x10(%rbp)
  409ada:	48 89 55 e8          	mov    %rdx,-0x18(%rbp)
  409ade:	48 83 7d f0 00       	cmpq   $0x0,-0x10(%rbp)
  409ae3:	74 17                	je     409afc <_ZNSt12_Vector_baseIP15_cl_platform_idSaIS1_EE13_M_deallocateEPS1_m+0x32>
  409ae5:	48 8b 45 f8          	mov    -0x8(%rbp),%rax
  409ae9:	48 8b 55 e8          	mov    -0x18(%rbp),%rdx
  409aed:	48 8b 4d f0          	mov    -0x10(%rbp),%rcx
  409af1:	48 89 ce             	mov    %rcx,%rsi
  409af4:	48 89 c7             	mov    %rax,%rdi
  409af7:	e8 03 0a 00 00       	callq  40a4ff <_ZNSt16allocator_traitsISaIP15_cl_platform_idEE10deallocateERS2_PS1_m>
  409afc:	90                   	nop
  409afd:	c9                   	leaveq 
  409afe:	c3                   	retq   

0000000000409aff <_ZSt27__uninitialized_default_n_aIPP15_cl_platform_idmS1_ET_S3_T0_RSaIT1_E>:
  409aff:	55                   	push   %rbp
  409b00:	48 89 e5             	mov    %rsp,%rbp
  409b03:	48 83 ec 20          	sub    $0x20,%rsp
  409b07:	48 89 7d f8          	mov    %rdi,-0x8(%rbp)
  409b0b:	48 89 75 f0          	mov    %rsi,-0x10(%rbp)
  409b0f:	48 89 55 e8          	mov    %rdx,-0x18(%rbp)
  409b13:	48 8b 55 f0          	mov    -0x10(%rbp),%rdx
  409b17:	48 8b 45 f8          	mov    -0x8(%rbp),%rax
  409b1b:	48 89 d6             	mov    %rdx,%rsi
  409b1e:	48 89 c7             	mov    %rax,%rdi
  409b21:	e8 07 0a 00 00       	callq  40a52d <_ZSt25__uninitialized_default_nIPP15_cl_platform_idmET_S3_T0_>
  409b26:	c9                   	leaveq 
  409b27:	c3                   	retq   

0000000000409b28 <_ZSt8_DestroyIPP15_cl_platform_idEvT_S3_>:
  409b28:	55                   	push   %rbp
  409b29:	48 89 e5             	mov    %rsp,%rbp
  409b2c:	48 83 ec 10          	sub    $0x10,%rsp
  409b30:	48 89 7d f8          	mov    %rdi,-0x8(%rbp)
  409b34:	48 89 75 f0          	mov    %rsi,-0x10(%rbp)
  409b38:	48 8b 55 f0          	mov    -0x10(%rbp),%rdx
  409b3c:	48 8b 45 f8          	mov    -0x8(%rbp),%rax
  409b40:	48 89 d6             	mov    %rdx,%rsi
  409b43:	48 89 c7             	mov    %rax,%rdi
  409b46:	e8 0b 0a 00 00       	callq  40a556 <_ZNSt12_Destroy_auxILb1EE9__destroyIPP15_cl_platform_idEEvT_S5_>
  409b4b:	90                   	nop
  409b4c:	c9                   	leaveq 
  409b4d:	c3                   	retq   

0000000000409b4e <_ZNSt12_Vector_baseIP13_cl_device_idSaIS1_EE12_Vector_implC1ERKS2_>:
  409b4e:	55                   	push   %rbp
  409b4f:	48 89 e5             	mov    %rsp,%rbp
  409b52:	48 83 ec 10          	sub    $0x10,%rsp
  409b56:	48 89 7d f8          	mov    %rdi,-0x8(%rbp)
  409b5a:	48 89 75 f0          	mov    %rsi,-0x10(%rbp)
  409b5e:	48 8b 55 f0          	mov    -0x10(%rbp),%rdx
  409b62:	48 8b 45 f8          	mov    -0x8(%rbp),%rax
  409b66:	48 89 d6             	mov    %rdx,%rsi
  409b69:	48 89 c7             	mov    %rax,%rdi
  409b6c:	e8 f5 09 00 00       	callq  40a566 <_ZNSaIP13_cl_device_idEC1ERKS1_>
  409b71:	48 8b 45 f8          	mov    -0x8(%rbp),%rax
  409b75:	48 c7 00 00 00 00 00 	movq   $0x0,(%rax)
  409b7c:	48 8b 45 f8          	mov    -0x8(%rbp),%rax
  409b80:	48 c7 40 08 00 00 00 	movq   $0x0,0x8(%rax)
  409b87:	00 
  409b88:	48 8b 45 f8          	mov    -0x8(%rbp),%rax
  409b8c:	48 c7 40 10 00 00 00 	movq   $0x0,0x10(%rax)
  409b93:	00 
  409b94:	90                   	nop
  409b95:	c9                   	leaveq 
  409b96:	c3                   	retq   
  409b97:	90                   	nop

0000000000409b98 <_ZNSt12_Vector_baseIP13_cl_device_idSaIS1_EE17_M_create_storageEm>:
  409b98:	55                   	push   %rbp
  409b99:	48 89 e5             	mov    %rsp,%rbp
  409b9c:	48 83 ec 10          	sub    $0x10,%rsp
  409ba0:	48 89 7d f8          	mov    %rdi,-0x8(%rbp)
  409ba4:	48 89 75 f0          	mov    %rsi,-0x10(%rbp)
  409ba8:	48 8b 55 f0          	mov    -0x10(%rbp),%rdx
  409bac:	48 8b 45 f8          	mov    -0x8(%rbp),%rax
  409bb0:	48 89 d6             	mov    %rdx,%rsi
  409bb3:	48 89 c7             	mov    %rax,%rdi
  409bb6:	e8 d1 09 00 00       	callq  40a58c <_ZNSt12_Vector_baseIP13_cl_device_idSaIS1_EE11_M_allocateEm>
  409bbb:	48 89 c2             	mov    %rax,%rdx
  409bbe:	48 8b 45 f8          	mov    -0x8(%rbp),%rax
  409bc2:	48 89 10             	mov    %rdx,(%rax)
  409bc5:	48 8b 45 f8          	mov    -0x8(%rbp),%rax
  409bc9:	48 8b 10             	mov    (%rax),%rdx
  409bcc:	48 8b 45 f8          	mov    -0x8(%rbp),%rax
  409bd0:	48 89 50 08          	mov    %rdx,0x8(%rax)
  409bd4:	48 8b 45 f8          	mov    -0x8(%rbp),%rax
  409bd8:	48 8b 00             	mov    (%rax),%rax
  409bdb:	48 8b 55 f0          	mov    -0x10(%rbp),%rdx
  409bdf:	48 c1 e2 03          	shl    $0x3,%rdx
  409be3:	48 01 c2             	add    %rax,%rdx
  409be6:	48 8b 45 f8          	mov    -0x8(%rbp),%rax
  409bea:	48 89 50 10          	mov    %rdx,0x10(%rax)
  409bee:	90                   	nop
  409bef:	c9                   	leaveq 
  409bf0:	c3                   	retq   
  409bf1:	90                   	nop

0000000000409bf2 <_ZNSt12_Vector_baseIP13_cl_device_idSaIS1_EE13_M_deallocateEPS1_m>:
  409bf2:	55                   	push   %rbp
  409bf3:	48 89 e5             	mov    %rsp,%rbp
  409bf6:	48 83 ec 20          	sub    $0x20,%rsp
  409bfa:	48 89 7d f8          	mov    %rdi,-0x8(%rbp)
  409bfe:	48 89 75 f0          	mov    %rsi,-0x10(%rbp)
  409c02:	48 89 55 e8          	mov    %rdx,-0x18(%rbp)
  409c06:	48 83 7d f0 00       	cmpq   $0x0,-0x10(%rbp)
  409c0b:	74 17                	je     409c24 <_ZNSt12_Vector_baseIP13_cl_device_idSaIS1_EE13_M_deallocateEPS1_m+0x32>
  409c0d:	48 8b 45 f8          	mov    -0x8(%rbp),%rax
  409c11:	48 8b 55 e8          	mov    -0x18(%rbp),%rdx
  409c15:	48 8b 4d f0          	mov    -0x10(%rbp),%rcx
  409c19:	48 89 ce             	mov    %rcx,%rsi
  409c1c:	48 89 c7             	mov    %rax,%rdi
  409c1f:	e8 9b 09 00 00       	callq  40a5bf <_ZNSt16allocator_traitsISaIP13_cl_device_idEE10deallocateERS2_PS1_m>
  409c24:	90                   	nop
  409c25:	c9                   	leaveq 
  409c26:	c3                   	retq   

0000000000409c27 <_ZSt27__uninitialized_default_n_aIPP13_cl_device_idmS1_ET_S3_T0_RSaIT1_E>:
  409c27:	55                   	push   %rbp
  409c28:	48 89 e5             	mov    %rsp,%rbp
  409c2b:	48 83 ec 20          	sub    $0x20,%rsp
  409c2f:	48 89 7d f8          	mov    %rdi,-0x8(%rbp)
  409c33:	48 89 75 f0          	mov    %rsi,-0x10(%rbp)
  409c37:	48 89 55 e8          	mov    %rdx,-0x18(%rbp)
  409c3b:	48 8b 55 f0          	mov    -0x10(%rbp),%rdx
  409c3f:	48 8b 45 f8          	mov    -0x8(%rbp),%rax
  409c43:	48 89 d6             	mov    %rdx,%rsi
  409c46:	48 89 c7             	mov    %rax,%rdi
  409c49:	e8 9f 09 00 00       	callq  40a5ed <_ZSt25__uninitialized_default_nIPP13_cl_device_idmET_S3_T0_>
  409c4e:	c9                   	leaveq 
  409c4f:	c3                   	retq   

0000000000409c50 <_ZSt8_DestroyIPP13_cl_device_idEvT_S3_>:
  409c50:	55                   	push   %rbp
  409c51:	48 89 e5             	mov    %rsp,%rbp
  409c54:	48 83 ec 10          	sub    $0x10,%rsp
  409c58:	48 89 7d f8          	mov    %rdi,-0x8(%rbp)
  409c5c:	48 89 75 f0          	mov    %rsi,-0x10(%rbp)
  409c60:	48 8b 55 f0          	mov    -0x10(%rbp),%rdx
  409c64:	48 8b 45 f8          	mov    -0x8(%rbp),%rax
  409c68:	48 89 d6             	mov    %rdx,%rsi
  409c6b:	48 89 c7             	mov    %rax,%rdi
  409c6e:	e8 a3 09 00 00       	callq  40a616 <_ZNSt12_Destroy_auxILb1EE9__destroyIPP13_cl_device_idEEvT_S5_>
  409c73:	90                   	nop
  409c74:	c9                   	leaveq 
  409c75:	c3                   	retq   

0000000000409c76 <_ZSt27__uninitialized_default_n_aIPN2cl6DeviceEmS1_ET_S3_T0_RSaIT1_E>:
  409c76:	55                   	push   %rbp
  409c77:	48 89 e5             	mov    %rsp,%rbp
  409c7a:	48 83 ec 20          	sub    $0x20,%rsp
  409c7e:	48 89 7d f8          	mov    %rdi,-0x8(%rbp)
  409c82:	48 89 75 f0          	mov    %rsi,-0x10(%rbp)
  409c86:	48 89 55 e8          	mov    %rdx,-0x18(%rbp)
  409c8a:	48 8b 55 f0          	mov    -0x10(%rbp),%rdx
  409c8e:	48 8b 45 f8          	mov    -0x8(%rbp),%rax
  409c92:	48 89 d6             	mov    %rdx,%rsi
  409c95:	48 89 c7             	mov    %rax,%rdi
  409c98:	e8 88 09 00 00       	callq  40a625 <_ZSt25__uninitialized_default_nIPN2cl6DeviceEmET_S3_T0_>
  409c9d:	c9                   	leaveq 
  409c9e:	c3                   	retq   
  409c9f:	90                   	nop

0000000000409ca0 <_ZNKSt6vectorIN2cl6DeviceESaIS1_EE12_M_check_lenEmPKc>:
  409ca0:	55                   	push   %rbp
  409ca1:	48 89 e5             	mov    %rsp,%rbp
  409ca4:	53                   	push   %rbx
  409ca5:	48 83 ec 48          	sub    $0x48,%rsp
  409ca9:	48 89 7d c8          	mov    %rdi,-0x38(%rbp)
  409cad:	48 89 75 c0          	mov    %rsi,-0x40(%rbp)
  409cb1:	48 89 55 b8          	mov    %rdx,-0x48(%rbp)
  409cb5:	64 48 8b 04 25 28 00 	mov    %fs:0x28,%rax
  409cbc:	00 00 
  409cbe:	48 89 45 e8          	mov    %rax,-0x18(%rbp)
  409cc2:	31 c0                	xor    %eax,%eax
  409cc4:	48 8b 45 c8          	mov    -0x38(%rbp),%rax
  409cc8:	48 89 c7             	mov    %rax,%rdi
  409ccb:	e8 7e 09 00 00       	callq  40a64e <_ZNKSt6vectorIN2cl6DeviceESaIS1_EE8max_sizeEv>
  409cd0:	48 89 c3             	mov    %rax,%rbx
  409cd3:	48 8b 45 c8          	mov    -0x38(%rbp),%rax
  409cd7:	48 89 c7             	mov    %rax,%rdi
  409cda:	e8 71 de ff ff       	callq  407b50 <_ZNKSt6vectorIN2cl6DeviceESaIS1_EE4sizeEv>
  409cdf:	48 29 c3             	sub    %rax,%rbx
  409ce2:	48 89 da             	mov    %rbx,%rdx
  409ce5:	48 8b 45 c0          	mov    -0x40(%rbp),%rax
  409ce9:	48 39 c2             	cmp    %rax,%rdx
  409cec:	0f 92 c0             	setb   %al
  409cef:	84 c0                	test   %al,%al
  409cf1:	74 0c                	je     409cff <_ZNKSt6vectorIN2cl6DeviceESaIS1_EE12_M_check_lenEmPKc+0x5f>
  409cf3:	48 8b 45 b8          	mov    -0x48(%rbp),%rax
  409cf7:	48 89 c7             	mov    %rax,%rdi
  409cfa:	e8 51 a0 ff ff       	callq  403d50 <_ZSt20__throw_length_errorPKc@plt>
  409cff:	48 8b 45 c8          	mov    -0x38(%rbp),%rax
  409d03:	48 89 c7             	mov    %rax,%rdi
  409d06:	e8 45 de ff ff       	callq  407b50 <_ZNKSt6vectorIN2cl6DeviceESaIS1_EE4sizeEv>
  409d0b:	48 89 c3             	mov    %rax,%rbx
  409d0e:	48 8b 45 c8          	mov    -0x38(%rbp),%rax
  409d12:	48 89 c7             	mov    %rax,%rdi
  409d15:	e8 36 de ff ff       	callq  407b50 <_ZNKSt6vectorIN2cl6DeviceESaIS1_EE4sizeEv>
  409d1a:	48 89 45 d8          	mov    %rax,-0x28(%rbp)
  409d1e:	48 8d 55 c0          	lea    -0x40(%rbp),%rdx
  409d22:	48 8d 45 d8          	lea    -0x28(%rbp),%rax
  409d26:	48 89 d6             	mov    %rdx,%rsi
  409d29:	48 89 c7             	mov    %rax,%rdi
  409d2c:	e8 3b e4 ff ff       	callq  40816c <_ZSt3maxImERKT_S2_S2_>
  409d31:	48 8b 00             	mov    (%rax),%rax
  409d34:	48 01 d8             	add    %rbx,%rax
  409d37:	48 89 45 e0          	mov    %rax,-0x20(%rbp)
  409d3b:	48 8b 45 c8          	mov    -0x38(%rbp),%rax
  409d3f:	48 89 c7             	mov    %rax,%rdi
  409d42:	e8 09 de ff ff       	callq  407b50 <_ZNKSt6vectorIN2cl6DeviceESaIS1_EE4sizeEv>
  409d47:	48 3b 45 e0          	cmp    -0x20(%rbp),%rax
  409d4b:	77 12                	ja     409d5f <_ZNKSt6vectorIN2cl6DeviceESaIS1_EE12_M_check_lenEmPKc+0xbf>
  409d4d:	48 8b 45 c8          	mov    -0x38(%rbp),%rax
  409d51:	48 89 c7             	mov    %rax,%rdi
  409d54:	e8 f5 08 00 00       	callq  40a64e <_ZNKSt6vectorIN2cl6DeviceESaIS1_EE8max_sizeEv>
  409d59:	48 3b 45 e0          	cmp    -0x20(%rbp),%rax
  409d5d:	73 0e                	jae    409d6d <_ZNKSt6vectorIN2cl6DeviceESaIS1_EE12_M_check_lenEmPKc+0xcd>
  409d5f:	48 8b 45 c8          	mov    -0x38(%rbp),%rax
  409d63:	48 89 c7             	mov    %rax,%rdi
  409d66:	e8 e3 08 00 00       	callq  40a64e <_ZNKSt6vectorIN2cl6DeviceESaIS1_EE8max_sizeEv>
  409d6b:	eb 04                	jmp    409d71 <_ZNKSt6vectorIN2cl6DeviceESaIS1_EE12_M_check_lenEmPKc+0xd1>
  409d6d:	48 8b 45 e0          	mov    -0x20(%rbp),%rax
  409d71:	48 8b 4d e8          	mov    -0x18(%rbp),%rcx
  409d75:	64 48 33 0c 25 28 00 	xor    %fs:0x28,%rcx
  409d7c:	00 00 
  409d7e:	74 05                	je     409d85 <_ZNKSt6vectorIN2cl6DeviceESaIS1_EE12_M_check_lenEmPKc+0xe5>
  409d80:	e8 cb a0 ff ff       	callq  403e50 <__stack_chk_fail@plt>
  409d85:	48 83 c4 48          	add    $0x48,%rsp
  409d89:	5b                   	pop    %rbx
  409d8a:	5d                   	pop    %rbp
  409d8b:	c3                   	retq   

0000000000409d8c <_ZNSt12_Vector_baseIN2cl6DeviceESaIS1_EE11_M_allocateEm>:
  409d8c:	55                   	push   %rbp
  409d8d:	48 89 e5             	mov    %rsp,%rbp
  409d90:	48 83 ec 10          	sub    $0x10,%rsp
  409d94:	48 89 7d f8          	mov    %rdi,-0x8(%rbp)
  409d98:	48 89 75 f0          	mov    %rsi,-0x10(%rbp)
  409d9c:	48 83 7d f0 00       	cmpq   $0x0,-0x10(%rbp)
  409da1:	74 15                	je     409db8 <_ZNSt12_Vector_baseIN2cl6DeviceESaIS1_EE11_M_allocateEm+0x2c>
  409da3:	48 8b 45 f8          	mov    -0x8(%rbp),%rax
  409da7:	48 8b 55 f0          	mov    -0x10(%rbp),%rdx
  409dab:	48 89 d6             	mov    %rdx,%rsi
  409dae:	48 89 c7             	mov    %rax,%rdi
  409db1:	e8 ba 08 00 00       	callq  40a670 <_ZNSt16allocator_traitsISaIN2cl6DeviceEEE8allocateERS2_m>
  409db6:	eb 05                	jmp    409dbd <_ZNSt12_Vector_baseIN2cl6DeviceESaIS1_EE11_M_allocateEm+0x31>
  409db8:	b8 00 00 00 00       	mov    $0x0,%eax
  409dbd:	c9                   	leaveq 
  409dbe:	c3                   	retq   

0000000000409dbf <_ZSt34__uninitialized_move_if_noexcept_aIPN2cl6DeviceES2_SaIS1_EET0_T_S5_S4_RT1_>:
  409dbf:	55                   	push   %rbp
  409dc0:	48 89 e5             	mov    %rsp,%rbp
  409dc3:	53                   	push   %rbx
  409dc4:	48 83 ec 28          	sub    $0x28,%rsp
  409dc8:	48 89 7d e8          	mov    %rdi,-0x18(%rbp)
  409dcc:	48 89 75 e0          	mov    %rsi,-0x20(%rbp)
  409dd0:	48 89 55 d8          	mov    %rdx,-0x28(%rbp)
  409dd4:	48 89 4d d0          	mov    %rcx,-0x30(%rbp)
  409dd8:	48 8b 45 e0          	mov    -0x20(%rbp),%rax
  409ddc:	48 89 c7             	mov    %rax,%rdi
  409ddf:	e8 b6 08 00 00       	callq  40a69a <_ZSt32__make_move_if_noexcept_iteratorIPN2cl6DeviceESt13move_iteratorIS2_EET0_T_>
  409de4:	48 89 c3             	mov    %rax,%rbx
  409de7:	48 8b 45 e8          	mov    -0x18(%rbp),%rax
  409deb:	48 89 c7             	mov    %rax,%rdi
  409dee:	e8 a7 08 00 00       	callq  40a69a <_ZSt32__make_move_if_noexcept_iteratorIPN2cl6DeviceESt13move_iteratorIS2_EET0_T_>
  409df3:	48 89 c7             	mov    %rax,%rdi
  409df6:	48 8b 55 d0          	mov    -0x30(%rbp),%rdx
  409dfa:	48 8b 45 d8          	mov    -0x28(%rbp),%rax
  409dfe:	48 89 d1             	mov    %rdx,%rcx
  409e01:	48 89 c2             	mov    %rax,%rdx
  409e04:	48 89 de             	mov    %rbx,%rsi
  409e07:	e8 d6 08 00 00       	callq  40a6e2 <_ZSt22__uninitialized_copy_aISt13move_iteratorIPN2cl6DeviceEES3_S2_ET0_T_S6_S5_RSaIT1_E>
  409e0c:	48 83 c4 28          	add    $0x28,%rsp
  409e10:	5b                   	pop    %rbx
  409e11:	5d                   	pop    %rbp
  409e12:	c3                   	retq   
  409e13:	90                   	nop

0000000000409e14 <_ZNSt12_Vector_baseIN2cl6DeviceESaIS1_EE13_M_deallocateEPS1_m>:
  409e14:	55                   	push   %rbp
  409e15:	48 89 e5             	mov    %rsp,%rbp
  409e18:	48 83 ec 20          	sub    $0x20,%rsp
  409e1c:	48 89 7d f8          	mov    %rdi,-0x8(%rbp)
  409e20:	48 89 75 f0          	mov    %rsi,-0x10(%rbp)
  409e24:	48 89 55 e8          	mov    %rdx,-0x18(%rbp)
  409e28:	48 83 7d f0 00       	cmpq   $0x0,-0x10(%rbp)
  409e2d:	74 17                	je     409e46 <_ZNSt12_Vector_baseIN2cl6DeviceESaIS1_EE13_M_deallocateEPS1_m+0x32>
  409e2f:	48 8b 45 f8          	mov    -0x8(%rbp),%rax
  409e33:	48 8b 55 e8          	mov    -0x18(%rbp),%rdx
  409e37:	48 8b 4d f0          	mov    -0x10(%rbp),%rcx
  409e3b:	48 89 ce             	mov    %rcx,%rsi
  409e3e:	48 89 c7             	mov    %rax,%rdi
  409e41:	e8 cd 08 00 00       	callq  40a713 <_ZNSt16allocator_traitsISaIN2cl6DeviceEEE10deallocateERS2_PS1_m>
  409e46:	90                   	nop
  409e47:	c9                   	leaveq 
  409e48:	c3                   	retq   

0000000000409e49 <_ZSt27__uninitialized_default_n_aIPN2cl8PlatformEmS1_ET_S3_T0_RSaIT1_E>:
  409e49:	55                   	push   %rbp
  409e4a:	48 89 e5             	mov    %rsp,%rbp
  409e4d:	48 83 ec 20          	sub    $0x20,%rsp
  409e51:	48 89 7d f8          	mov    %rdi,-0x8(%rbp)
  409e55:	48 89 75 f0          	mov    %rsi,-0x10(%rbp)
  409e59:	48 89 55 e8          	mov    %rdx,-0x18(%rbp)
  409e5d:	48 8b 55 f0          	mov    -0x10(%rbp),%rdx
  409e61:	48 8b 45 f8          	mov    -0x8(%rbp),%rax
  409e65:	48 89 d6             	mov    %rdx,%rsi
  409e68:	48 89 c7             	mov    %rax,%rdi
  409e6b:	e8 d1 08 00 00       	callq  40a741 <_ZSt25__uninitialized_default_nIPN2cl8PlatformEmET_S3_T0_>
  409e70:	c9                   	leaveq 
  409e71:	c3                   	retq   

0000000000409e72 <_ZNKSt6vectorIN2cl8PlatformESaIS1_EE12_M_check_lenEmPKc>:
  409e72:	55                   	push   %rbp
  409e73:	48 89 e5             	mov    %rsp,%rbp
  409e76:	53                   	push   %rbx
  409e77:	48 83 ec 48          	sub    $0x48,%rsp
  409e7b:	48 89 7d c8          	mov    %rdi,-0x38(%rbp)
  409e7f:	48 89 75 c0          	mov    %rsi,-0x40(%rbp)
  409e83:	48 89 55 b8          	mov    %rdx,-0x48(%rbp)
  409e87:	64 48 8b 04 25 28 00 	mov    %fs:0x28,%rax
  409e8e:	00 00 
  409e90:	48 89 45 e8          	mov    %rax,-0x18(%rbp)
  409e94:	31 c0                	xor    %eax,%eax
  409e96:	48 8b 45 c8          	mov    -0x38(%rbp),%rax
  409e9a:	48 89 c7             	mov    %rax,%rdi
  409e9d:	e8 c8 08 00 00       	callq  40a76a <_ZNKSt6vectorIN2cl8PlatformESaIS1_EE8max_sizeEv>
  409ea2:	48 89 c3             	mov    %rax,%rbx
  409ea5:	48 8b 45 c8          	mov    -0x38(%rbp),%rax
  409ea9:	48 89 c7             	mov    %rax,%rdi
  409eac:	e8 25 dd ff ff       	callq  407bd6 <_ZNKSt6vectorIN2cl8PlatformESaIS1_EE4sizeEv>
  409eb1:	48 29 c3             	sub    %rax,%rbx
  409eb4:	48 89 da             	mov    %rbx,%rdx
  409eb7:	48 8b 45 c0          	mov    -0x40(%rbp),%rax
  409ebb:	48 39 c2             	cmp    %rax,%rdx
  409ebe:	0f 92 c0             	setb   %al
  409ec1:	84 c0                	test   %al,%al
  409ec3:	74 0c                	je     409ed1 <_ZNKSt6vectorIN2cl8PlatformESaIS1_EE12_M_check_lenEmPKc+0x5f>
  409ec5:	48 8b 45 b8          	mov    -0x48(%rbp),%rax
  409ec9:	48 89 c7             	mov    %rax,%rdi
  409ecc:	e8 7f 9e ff ff       	callq  403d50 <_ZSt20__throw_length_errorPKc@plt>
  409ed1:	48 8b 45 c8          	mov    -0x38(%rbp),%rax
  409ed5:	48 89 c7             	mov    %rax,%rdi
  409ed8:	e8 f9 dc ff ff       	callq  407bd6 <_ZNKSt6vectorIN2cl8PlatformESaIS1_EE4sizeEv>
  409edd:	48 89 c3             	mov    %rax,%rbx
  409ee0:	48 8b 45 c8          	mov    -0x38(%rbp),%rax
  409ee4:	48 89 c7             	mov    %rax,%rdi
  409ee7:	e8 ea dc ff ff       	callq  407bd6 <_ZNKSt6vectorIN2cl8PlatformESaIS1_EE4sizeEv>
  409eec:	48 89 45 d8          	mov    %rax,-0x28(%rbp)
  409ef0:	48 8d 55 c0          	lea    -0x40(%rbp),%rdx
  409ef4:	48 8d 45 d8          	lea    -0x28(%rbp),%rax
  409ef8:	48 89 d6             	mov    %rdx,%rsi
  409efb:	48 89 c7             	mov    %rax,%rdi
  409efe:	e8 69 e2 ff ff       	callq  40816c <_ZSt3maxImERKT_S2_S2_>
  409f03:	48 8b 00             	mov    (%rax),%rax
  409f06:	48 01 d8             	add    %rbx,%rax
  409f09:	48 89 45 e0          	mov    %rax,-0x20(%rbp)
  409f0d:	48 8b 45 c8          	mov    -0x38(%rbp),%rax
  409f11:	48 89 c7             	mov    %rax,%rdi
  409f14:	e8 bd dc ff ff       	callq  407bd6 <_ZNKSt6vectorIN2cl8PlatformESaIS1_EE4sizeEv>
  409f19:	48 3b 45 e0          	cmp    -0x20(%rbp),%rax
  409f1d:	77 12                	ja     409f31 <_ZNKSt6vectorIN2cl8PlatformESaIS1_EE12_M_check_lenEmPKc+0xbf>
  409f1f:	48 8b 45 c8          	mov    -0x38(%rbp),%rax
  409f23:	48 89 c7             	mov    %rax,%rdi
  409f26:	e8 3f 08 00 00       	callq  40a76a <_ZNKSt6vectorIN2cl8PlatformESaIS1_EE8max_sizeEv>
  409f2b:	48 3b 45 e0          	cmp    -0x20(%rbp),%rax
  409f2f:	73 0e                	jae    409f3f <_ZNKSt6vectorIN2cl8PlatformESaIS1_EE12_M_check_lenEmPKc+0xcd>
  409f31:	48 8b 45 c8          	mov    -0x38(%rbp),%rax
  409f35:	48 89 c7             	mov    %rax,%rdi
  409f38:	e8 2d 08 00 00       	callq  40a76a <_ZNKSt6vectorIN2cl8PlatformESaIS1_EE8max_sizeEv>
  409f3d:	eb 04                	jmp    409f43 <_ZNKSt6vectorIN2cl8PlatformESaIS1_EE12_M_check_lenEmPKc+0xd1>
  409f3f:	48 8b 45 e0          	mov    -0x20(%rbp),%rax
  409f43:	48 8b 4d e8          	mov    -0x18(%rbp),%rcx
  409f47:	64 48 33 0c 25 28 00 	xor    %fs:0x28,%rcx
  409f4e:	00 00 
  409f50:	74 05                	je     409f57 <_ZNKSt6vectorIN2cl8PlatformESaIS1_EE12_M_check_lenEmPKc+0xe5>
  409f52:	e8 f9 9e ff ff       	callq  403e50 <__stack_chk_fail@plt>
  409f57:	48 83 c4 48          	add    $0x48,%rsp
  409f5b:	5b                   	pop    %rbx
  409f5c:	5d                   	pop    %rbp
  409f5d:	c3                   	retq   

0000000000409f5e <_ZNSt12_Vector_baseIN2cl8PlatformESaIS1_EE11_M_allocateEm>:
  409f5e:	55                   	push   %rbp
  409f5f:	48 89 e5             	mov    %rsp,%rbp
  409f62:	48 83 ec 10          	sub    $0x10,%rsp
  409f66:	48 89 7d f8          	mov    %rdi,-0x8(%rbp)
  409f6a:	48 89 75 f0          	mov    %rsi,-0x10(%rbp)
  409f6e:	48 83 7d f0 00       	cmpq   $0x0,-0x10(%rbp)
  409f73:	74 15                	je     409f8a <_ZNSt12_Vector_baseIN2cl8PlatformESaIS1_EE11_M_allocateEm+0x2c>
  409f75:	48 8b 45 f8          	mov    -0x8(%rbp),%rax
  409f79:	48 8b 55 f0          	mov    -0x10(%rbp),%rdx
  409f7d:	48 89 d6             	mov    %rdx,%rsi
  409f80:	48 89 c7             	mov    %rax,%rdi
  409f83:	e8 04 08 00 00       	callq  40a78c <_ZNSt16allocator_traitsISaIN2cl8PlatformEEE8allocateERS2_m>
  409f88:	eb 05                	jmp    409f8f <_ZNSt12_Vector_baseIN2cl8PlatformESaIS1_EE11_M_allocateEm+0x31>
  409f8a:	b8 00 00 00 00       	mov    $0x0,%eax
  409f8f:	c9                   	leaveq 
  409f90:	c3                   	retq   

0000000000409f91 <_ZSt34__uninitialized_move_if_noexcept_aIPN2cl8PlatformES2_SaIS1_EET0_T_S5_S4_RT1_>:
  409f91:	55                   	push   %rbp
  409f92:	48 89 e5             	mov    %rsp,%rbp
  409f95:	53                   	push   %rbx
  409f96:	48 83 ec 28          	sub    $0x28,%rsp
  409f9a:	48 89 7d e8          	mov    %rdi,-0x18(%rbp)
  409f9e:	48 89 75 e0          	mov    %rsi,-0x20(%rbp)
  409fa2:	48 89 55 d8          	mov    %rdx,-0x28(%rbp)
  409fa6:	48 89 4d d0          	mov    %rcx,-0x30(%rbp)
  409faa:	48 8b 45 e0          	mov    -0x20(%rbp),%rax
  409fae:	48 89 c7             	mov    %rax,%rdi
  409fb1:	e8 00 08 00 00       	callq  40a7b6 <_ZSt32__make_move_if_noexcept_iteratorIPN2cl8PlatformESt13move_iteratorIS2_EET0_T_>
  409fb6:	48 89 c3             	mov    %rax,%rbx
  409fb9:	48 8b 45 e8          	mov    -0x18(%rbp),%rax
  409fbd:	48 89 c7             	mov    %rax,%rdi
  409fc0:	e8 f1 07 00 00       	callq  40a7b6 <_ZSt32__make_move_if_noexcept_iteratorIPN2cl8PlatformESt13move_iteratorIS2_EET0_T_>
  409fc5:	48 89 c7             	mov    %rax,%rdi
  409fc8:	48 8b 55 d0          	mov    -0x30(%rbp),%rdx
  409fcc:	48 8b 45 d8          	mov    -0x28(%rbp),%rax
  409fd0:	48 89 d1             	mov    %rdx,%rcx
  409fd3:	48 89 c2             	mov    %rax,%rdx
  409fd6:	48 89 de             	mov    %rbx,%rsi
  409fd9:	e8 20 08 00 00       	callq  40a7fe <_ZSt22__uninitialized_copy_aISt13move_iteratorIPN2cl8PlatformEES3_S2_ET0_T_S6_S5_RSaIT1_E>
  409fde:	48 83 c4 28          	add    $0x28,%rsp
  409fe2:	5b                   	pop    %rbx
  409fe3:	5d                   	pop    %rbp
  409fe4:	c3                   	retq   
  409fe5:	90                   	nop

0000000000409fe6 <_ZNSt12_Vector_baseIN2cl8PlatformESaIS1_EE13_M_deallocateEPS1_m>:
  409fe6:	55                   	push   %rbp
  409fe7:	48 89 e5             	mov    %rsp,%rbp
  409fea:	48 83 ec 20          	sub    $0x20,%rsp
  409fee:	48 89 7d f8          	mov    %rdi,-0x8(%rbp)
  409ff2:	48 89 75 f0          	mov    %rsi,-0x10(%rbp)
  409ff6:	48 89 55 e8          	mov    %rdx,-0x18(%rbp)
  409ffa:	48 83 7d f0 00       	cmpq   $0x0,-0x10(%rbp)
  409fff:	74 17                	je     40a018 <_ZNSt12_Vector_baseIN2cl8PlatformESaIS1_EE13_M_deallocateEPS1_m+0x32>
  40a001:	48 8b 45 f8          	mov    -0x8(%rbp),%rax
  40a005:	48 8b 55 e8          	mov    -0x18(%rbp),%rdx
  40a009:	48 8b 4d f0          	mov    -0x10(%rbp),%rcx
  40a00d:	48 89 ce             	mov    %rcx,%rsi
  40a010:	48 89 c7             	mov    %rax,%rdi
  40a013:	e8 17 08 00 00       	callq  40a82f <_ZNSt16allocator_traitsISaIN2cl8PlatformEEE10deallocateERS2_PS1_m>
  40a018:	90                   	nop
  40a019:	c9                   	leaveq 
  40a01a:	c3                   	retq   
  40a01b:	90                   	nop

000000000040a01c <_ZNSt12_Vector_baseIN2cl8PlatformESaIS1_EE12_Vector_implC1Ev>:
  40a01c:	55                   	push   %rbp
  40a01d:	48 89 e5             	mov    %rsp,%rbp
  40a020:	48 83 ec 10          	sub    $0x10,%rsp
  40a024:	48 89 7d f8          	mov    %rdi,-0x8(%rbp)
  40a028:	48 8b 45 f8          	mov    -0x8(%rbp),%rax
  40a02c:	48 89 c7             	mov    %rax,%rdi
  40a02f:	e8 2a 08 00 00       	callq  40a85e <_ZNSaIN2cl8PlatformEEC1Ev>
  40a034:	48 8b 45 f8          	mov    -0x8(%rbp),%rax
  40a038:	48 c7 00 00 00 00 00 	movq   $0x0,(%rax)
  40a03f:	48 8b 45 f8          	mov    -0x8(%rbp),%rax
  40a043:	48 c7 40 08 00 00 00 	movq   $0x0,0x8(%rax)
  40a04a:	00 
  40a04b:	48 8b 45 f8          	mov    -0x8(%rbp),%rax
  40a04f:	48 c7 40 10 00 00 00 	movq   $0x0,0x10(%rax)
  40a056:	00 
  40a057:	90                   	nop
  40a058:	c9                   	leaveq 
  40a059:	c3                   	retq   

000000000040a05a <_ZNSaIN2cl8PlatformEED1Ev>:
  40a05a:	55                   	push   %rbp
  40a05b:	48 89 e5             	mov    %rsp,%rbp
  40a05e:	48 83 ec 10          	sub    $0x10,%rsp
  40a062:	48 89 7d f8          	mov    %rdi,-0x8(%rbp)
  40a066:	48 8b 45 f8          	mov    -0x8(%rbp),%rax
  40a06a:	48 89 c7             	mov    %rax,%rdi
  40a06d:	e8 08 08 00 00       	callq  40a87a <_ZN9__gnu_cxx13new_allocatorIN2cl8PlatformEED1Ev>
  40a072:	90                   	nop
  40a073:	c9                   	leaveq 
  40a074:	c3                   	retq   

000000000040a075 <_ZSt8_DestroyIPN2cl8PlatformEEvT_S3_>:
  40a075:	55                   	push   %rbp
  40a076:	48 89 e5             	mov    %rsp,%rbp
  40a079:	48 83 ec 10          	sub    $0x10,%rsp
  40a07d:	48 89 7d f8          	mov    %rdi,-0x8(%rbp)
  40a081:	48 89 75 f0          	mov    %rsi,-0x10(%rbp)
  40a085:	48 8b 55 f0          	mov    -0x10(%rbp),%rdx
  40a089:	48 8b 45 f8          	mov    -0x8(%rbp),%rax
  40a08d:	48 89 d6             	mov    %rdx,%rsi
  40a090:	48 89 c7             	mov    %rax,%rdi
  40a093:	e8 ed 07 00 00       	callq  40a885 <_ZNSt12_Destroy_auxILb0EE9__destroyIPN2cl8PlatformEEEvT_S5_>
  40a098:	90                   	nop
  40a099:	c9                   	leaveq 
  40a09a:	c3                   	retq   
  40a09b:	90                   	nop

000000000040a09c <_ZNSt12_Vector_baseIN2cl6DeviceESaIS1_EE12_Vector_implC1Ev>:
  40a09c:	55                   	push   %rbp
  40a09d:	48 89 e5             	mov    %rsp,%rbp
  40a0a0:	48 83 ec 10          	sub    $0x10,%rsp
  40a0a4:	48 89 7d f8          	mov    %rdi,-0x8(%rbp)
  40a0a8:	48 8b 45 f8          	mov    -0x8(%rbp),%rax
  40a0ac:	48 89 c7             	mov    %rax,%rdi
  40a0af:	e8 0a 08 00 00       	callq  40a8be <_ZNSaIN2cl6DeviceEEC1Ev>
  40a0b4:	48 8b 45 f8          	mov    -0x8(%rbp),%rax
  40a0b8:	48 c7 00 00 00 00 00 	movq   $0x0,(%rax)
  40a0bf:	48 8b 45 f8          	mov    -0x8(%rbp),%rax
  40a0c3:	48 c7 40 08 00 00 00 	movq   $0x0,0x8(%rax)
  40a0ca:	00 
  40a0cb:	48 8b 45 f8          	mov    -0x8(%rbp),%rax
  40a0cf:	48 c7 40 10 00 00 00 	movq   $0x0,0x10(%rax)
  40a0d6:	00 
  40a0d7:	90                   	nop
  40a0d8:	c9                   	leaveq 
  40a0d9:	c3                   	retq   

000000000040a0da <_ZNSaIN2cl6DeviceEED1Ev>:
  40a0da:	55                   	push   %rbp
  40a0db:	48 89 e5             	mov    %rsp,%rbp
  40a0de:	48 83 ec 10          	sub    $0x10,%rsp
  40a0e2:	48 89 7d f8          	mov    %rdi,-0x8(%rbp)
  40a0e6:	48 8b 45 f8          	mov    -0x8(%rbp),%rax
  40a0ea:	48 89 c7             	mov    %rax,%rdi
  40a0ed:	e8 e8 07 00 00       	callq  40a8da <_ZN9__gnu_cxx13new_allocatorIN2cl6DeviceEED1Ev>
  40a0f2:	90                   	nop
  40a0f3:	c9                   	leaveq 
  40a0f4:	c3                   	retq   

000000000040a0f5 <_ZSt8_DestroyIPN2cl6DeviceEEvT_S3_>:
  40a0f5:	55                   	push   %rbp
  40a0f6:	48 89 e5             	mov    %rsp,%rbp
  40a0f9:	48 83 ec 10          	sub    $0x10,%rsp
  40a0fd:	48 89 7d f8          	mov    %rdi,-0x8(%rbp)
  40a101:	48 89 75 f0          	mov    %rsi,-0x10(%rbp)
  40a105:	48 8b 55 f0          	mov    -0x10(%rbp),%rdx
  40a109:	48 8b 45 f8          	mov    -0x8(%rbp),%rax
  40a10d:	48 89 d6             	mov    %rdx,%rsi
  40a110:	48 89 c7             	mov    %rax,%rdi
  40a113:	e8 cd 07 00 00       	callq  40a8e5 <_ZNSt12_Destroy_auxILb0EE9__destroyIPN2cl6DeviceEEEvT_S5_>
  40a118:	90                   	nop
  40a119:	c9                   	leaveq 
  40a11a:	c3                   	retq   

000000000040a11b <_ZN2cl6detail13getInfoHelperINS0_15GetInfoFunctor0IPFiP11_cl_contextjmPvPmES4_EENS_6DeviceEEEiT_jPSt6vectorIT0_SaISD_EEiNSD_7cl_typeE>:
  40a11b:	55                   	push   %rbp
  40a11c:	48 89 e5             	mov    %rsp,%rbp
  40a11f:	53                   	push   %rbx
  40a120:	48 81 ec 88 00 00 00 	sub    $0x88,%rsp
  40a127:	48 89 f8             	mov    %rdi,%rax
  40a12a:	49 89 f2             	mov    %rsi,%r10
  40a12d:	48 89 c6             	mov    %rax,%rsi
  40a130:	48 89 d7             	mov    %rdx,%rdi
  40a133:	4c 89 d7             	mov    %r10,%rdi
  40a136:	48 89 75 90          	mov    %rsi,-0x70(%rbp)
  40a13a:	48 89 7d 98          	mov    %rdi,-0x68(%rbp)
  40a13e:	89 55 8c             	mov    %edx,-0x74(%rbp)
  40a141:	48 89 4d 80          	mov    %rcx,-0x80(%rbp)
  40a145:	44 89 45 88          	mov    %r8d,-0x78(%rbp)
  40a149:	4c 89 8d 78 ff ff ff 	mov    %r9,-0x88(%rbp)
  40a150:	64 48 8b 04 25 28 00 	mov    %fs:0x28,%rax
  40a157:	00 00 
  40a159:	48 89 45 e8          	mov    %rax,-0x18(%rbp)
  40a15d:	31 c0                	xor    %eax,%eax
  40a15f:	48 8d 55 a8          	lea    -0x58(%rbp),%rdx
  40a163:	8b 75 8c             	mov    -0x74(%rbp),%esi
  40a166:	48 8d 45 90          	lea    -0x70(%rbp),%rax
  40a16a:	49 89 d0             	mov    %rdx,%r8
  40a16d:	b9 00 00 00 00       	mov    $0x0,%ecx
  40a172:	ba 00 00 00 00       	mov    $0x0,%edx
  40a177:	48 89 c7             	mov    %rax,%rdi
  40a17a:	e8 9f 07 00 00       	callq  40a91e <_ZN2cl6detail15GetInfoFunctor0IPFiP11_cl_contextjmPvPmES3_EclEjmS4_S5_>
  40a17f:	89 45 a4             	mov    %eax,-0x5c(%rbp)
  40a182:	83 7d a4 00          	cmpl   $0x0,-0x5c(%rbp)
  40a186:	74 08                	je     40a190 <_ZN2cl6detail13getInfoHelperINS0_15GetInfoFunctor0IPFiP11_cl_contextjmPvPmES4_EENS_6DeviceEEEiT_jPSt6vectorIT0_SaISD_EEiNSD_7cl_typeE+0x75>
  40a188:	8b 5d a4             	mov    -0x5c(%rbp),%ebx
  40a18b:	e9 17 01 00 00       	jmpq   40a2a7 <_ZN2cl6detail13getInfoHelperINS0_15GetInfoFunctor0IPFiP11_cl_contextjmPvPmES4_EENS_6DeviceEEEiT_jPSt6vectorIT0_SaISD_EEiNSD_7cl_typeE+0x18c>
  40a190:	48 8b 45 a8          	mov    -0x58(%rbp),%rax
  40a194:	48 c1 e8 03          	shr    $0x3,%rax
  40a198:	48 89 45 b8          	mov    %rax,-0x48(%rbp)
  40a19c:	48 8d 45 c0          	lea    -0x40(%rbp),%rax
  40a1a0:	48 89 c7             	mov    %rax,%rdi
  40a1a3:	e8 6e d6 ff ff       	callq  407816 <_ZNSaIP13_cl_device_idEC1Ev>
  40a1a8:	48 8d 55 c0          	lea    -0x40(%rbp),%rdx
  40a1ac:	48 8b 4d b8          	mov    -0x48(%rbp),%rcx
  40a1b0:	48 8d 45 d0          	lea    -0x30(%rbp),%rax
  40a1b4:	48 89 ce             	mov    %rcx,%rsi
  40a1b7:	48 89 c7             	mov    %rax,%rdi
  40a1ba:	e8 8f d6 ff ff       	callq  40784e <_ZNSt6vectorIP13_cl_device_idSaIS1_EEC1EmRKS2_>
  40a1bf:	48 8d 45 c0          	lea    -0x40(%rbp),%rax
  40a1c3:	48 89 c7             	mov    %rax,%rdi
  40a1c6:	e8 67 d6 ff ff       	callq  407832 <_ZNSaIP13_cl_device_idED1Ev>
  40a1cb:	48 8d 45 d0          	lea    -0x30(%rbp),%rax
  40a1cf:	48 89 c7             	mov    %rax,%rdi
  40a1d2:	e8 1d d7 ff ff       	callq  4078f4 <_ZNSt6vectorIP13_cl_device_idSaIS1_EE4dataEv>
  40a1d7:	48 89 c1             	mov    %rax,%rcx
  40a1da:	48 8b 55 a8          	mov    -0x58(%rbp),%rdx
  40a1de:	8b 75 8c             	mov    -0x74(%rbp),%esi
  40a1e1:	48 8d 45 90          	lea    -0x70(%rbp),%rax
  40a1e5:	41 b8 00 00 00 00    	mov    $0x0,%r8d
  40a1eb:	48 89 c7             	mov    %rax,%rdi
  40a1ee:	e8 2b 07 00 00       	callq  40a91e <_ZN2cl6detail15GetInfoFunctor0IPFiP11_cl_contextjmPvPmES3_EclEjmS4_S5_>
  40a1f3:	89 45 a4             	mov    %eax,-0x5c(%rbp)
  40a1f6:	83 7d a4 00          	cmpl   $0x0,-0x5c(%rbp)
  40a1fa:	74 08                	je     40a204 <_ZN2cl6detail13getInfoHelperINS0_15GetInfoFunctor0IPFiP11_cl_contextjmPvPmES4_EENS_6DeviceEEEiT_jPSt6vectorIT0_SaISD_EEiNSD_7cl_typeE+0xe9>
  40a1fc:	8b 5d a4             	mov    -0x5c(%rbp),%ebx
  40a1ff:	e9 97 00 00 00       	jmpq   40a29b <_ZN2cl6detail13getInfoHelperINS0_15GetInfoFunctor0IPFiP11_cl_contextjmPvPmES4_EENS_6DeviceEEEiT_jPSt6vectorIT0_SaISD_EEiNSD_7cl_typeE+0x180>
  40a204:	48 83 7d 80 00       	cmpq   $0x0,-0x80(%rbp)
  40a209:	0f 84 87 00 00 00    	je     40a296 <_ZN2cl6detail13getInfoHelperINS0_15GetInfoFunctor0IPFiP11_cl_contextjmPvPmES4_EENS_6DeviceEEEiT_jPSt6vectorIT0_SaISD_EEiNSD_7cl_typeE+0x17b>
  40a20f:	48 8b 55 b8          	mov    -0x48(%rbp),%rdx
  40a213:	48 8b 45 80          	mov    -0x80(%rbp),%rax
  40a217:	48 89 d6             	mov    %rdx,%rsi
  40a21a:	48 89 c7             	mov    %rax,%rdi
  40a21d:	e8 1c d7 ff ff       	callq  40793e <_ZNSt6vectorIN2cl6DeviceESaIS1_EE6resizeEm>
  40a222:	48 c7 45 b0 00 00 00 	movq   $0x0,-0x50(%rbp)
  40a229:	00 
  40a22a:	48 8b 45 b0          	mov    -0x50(%rbp),%rax
  40a22e:	48 3b 45 b8          	cmp    -0x48(%rbp),%rax
  40a232:	73 62                	jae    40a296 <_ZN2cl6detail13getInfoHelperINS0_15GetInfoFunctor0IPFiP11_cl_contextjmPvPmES4_EENS_6DeviceEEEiT_jPSt6vectorIT0_SaISD_EEiNSD_7cl_typeE+0x17b>
  40a234:	48 8b 55 b0          	mov    -0x50(%rbp),%rdx
  40a238:	48 8d 45 d0          	lea    -0x30(%rbp),%rax
  40a23c:	48 89 d6             	mov    %rdx,%rsi
  40a23f:	48 89 c7             	mov    %rax,%rdi
  40a242:	e8 a3 d7 ff ff       	callq  4079ea <_ZNSt6vectorIP13_cl_device_idSaIS1_EEixEm>
  40a247:	48 89 c1             	mov    %rax,%rcx
  40a24a:	48 8d 45 c0          	lea    -0x40(%rbp),%rax
  40a24e:	ba 01 00 00 00       	mov    $0x1,%edx
  40a253:	48 89 ce             	mov    %rcx,%rsi
  40a256:	48 89 c7             	mov    %rax,%rdi
  40a259:	e8 40 ae ff ff       	callq  40509e <_ZN2cl6DeviceC1ERKP13_cl_device_idb>
  40a25e:	48 8b 55 b0          	mov    -0x50(%rbp),%rdx
  40a262:	48 8b 45 80          	mov    -0x80(%rbp),%rax
  40a266:	48 89 d6             	mov    %rdx,%rsi
  40a269:	48 89 c7             	mov    %rax,%rdi
  40a26c:	e8 59 d7 ff ff       	callq  4079ca <_ZNSt6vectorIN2cl6DeviceESaIS1_EEixEm>
  40a271:	48 89 c2             	mov    %rax,%rdx
  40a274:	48 8d 45 c0          	lea    -0x40(%rbp),%rax
  40a278:	48 89 c6             	mov    %rax,%rsi
  40a27b:	48 89 d7             	mov    %rdx,%rdi
  40a27e:	e8 51 af ff ff       	callq  4051d4 <_ZN2cl6DeviceaSEOS0_>
  40a283:	48 8d 45 c0          	lea    -0x40(%rbp),%rax
  40a287:	48 89 c7             	mov    %rax,%rdi
  40a28a:	e8 3f ae ff ff       	callq  4050ce <_ZN2cl6DeviceD1Ev>
  40a28f:	48 83 45 b0 01       	addq   $0x1,-0x50(%rbp)
  40a294:	eb 94                	jmp    40a22a <_ZN2cl6detail13getInfoHelperINS0_15GetInfoFunctor0IPFiP11_cl_contextjmPvPmES4_EENS_6DeviceEEEiT_jPSt6vectorIT0_SaISD_EEiNSD_7cl_typeE+0x10f>
  40a296:	bb 00 00 00 00       	mov    $0x0,%ebx
  40a29b:	48 8d 45 d0          	lea    -0x30(%rbp),%rax
  40a29f:	48 89 c7             	mov    %rax,%rdi
  40a2a2:	e8 09 d6 ff ff       	callq  4078b0 <_ZNSt6vectorIP13_cl_device_idSaIS1_EED1Ev>
  40a2a7:	89 d8                	mov    %ebx,%eax
  40a2a9:	48 8b 4d e8          	mov    -0x18(%rbp),%rcx
  40a2ad:	64 48 33 0c 25 28 00 	xor    %fs:0x28,%rcx
  40a2b4:	00 00 
  40a2b6:	74 4c                	je     40a304 <_ZN2cl6detail13getInfoHelperINS0_15GetInfoFunctor0IPFiP11_cl_contextjmPvPmES4_EENS_6DeviceEEEiT_jPSt6vectorIT0_SaISD_EEiNSD_7cl_typeE+0x1e9>
  40a2b8:	eb 45                	jmp    40a2ff <_ZN2cl6detail13getInfoHelperINS0_15GetInfoFunctor0IPFiP11_cl_contextjmPvPmES4_EENS_6DeviceEEEiT_jPSt6vectorIT0_SaISD_EEiNSD_7cl_typeE+0x1e4>
  40a2ba:	48 89 c3             	mov    %rax,%rbx
  40a2bd:	48 8d 45 c0          	lea    -0x40(%rbp),%rax
  40a2c1:	48 89 c7             	mov    %rax,%rdi
  40a2c4:	e8 69 d5 ff ff       	callq  407832 <_ZNSaIP13_cl_device_idED1Ev>
  40a2c9:	48 89 d8             	mov    %rbx,%rax
  40a2cc:	48 89 c7             	mov    %rax,%rdi
  40a2cf:	e8 9c 9d ff ff       	callq  404070 <_Unwind_Resume@plt>
  40a2d4:	48 89 c3             	mov    %rax,%rbx
  40a2d7:	48 8d 45 c0          	lea    -0x40(%rbp),%rax
  40a2db:	48 89 c7             	mov    %rax,%rdi
  40a2de:	e8 eb ad ff ff       	callq  4050ce <_ZN2cl6DeviceD1Ev>
  40a2e3:	eb 03                	jmp    40a2e8 <_ZN2cl6detail13getInfoHelperINS0_15GetInfoFunctor0IPFiP11_cl_contextjmPvPmES4_EENS_6DeviceEEEiT_jPSt6vectorIT0_SaISD_EEiNSD_7cl_typeE+0x1cd>
  40a2e5:	48 89 c3             	mov    %rax,%rbx
  40a2e8:	48 8d 45 d0          	lea    -0x30(%rbp),%rax
  40a2ec:	48 89 c7             	mov    %rax,%rdi
  40a2ef:	e8 bc d5 ff ff       	callq  4078b0 <_ZNSt6vectorIP13_cl_device_idSaIS1_EED1Ev>
  40a2f4:	48 89 d8             	mov    %rbx,%rax
  40a2f7:	48 89 c7             	mov    %rax,%rdi
  40a2fa:	e8 71 9d ff ff       	callq  404070 <_Unwind_Resume@plt>
  40a2ff:	e8 4c 9b ff ff       	callq  403e50 <__stack_chk_fail@plt>
  40a304:	48 81 c4 88 00 00 00 	add    $0x88,%rsp
  40a30b:	5b                   	pop    %rbx
  40a30c:	5d                   	pop    %rbp
  40a30d:	c3                   	retq   

000000000040a30e <_ZN11arm_compute16ForEachDimensionILm6EE6unrollIZN2CK5armcl23copy_raw_data_to_tensorIfEEvPNS_8CLTensorEPT_RKNS3_5ShapeEEUlRKNS_11CoordinatesEE_IRNS_8IteratorEEEEvRKNS_6WindowERSD_OS8_DpOT0_>:
  40a30e:	55                   	push   %rbp
  40a30f:	48 89 e5             	mov    %rsp,%rbp
  40a312:	48 83 ec 30          	sub    $0x30,%rsp
  40a316:	48 89 7d e8          	mov    %rdi,-0x18(%rbp)
  40a31a:	48 89 75 e0          	mov    %rsi,-0x20(%rbp)
  40a31e:	48 89 55 d8          	mov    %rdx,-0x28(%rbp)
  40a322:	48 89 4d d0          	mov    %rcx,-0x30(%rbp)
  40a326:	48 8b 45 e8          	mov    -0x18(%rbp),%rax
  40a32a:	be 05 00 00 00       	mov    $0x5,%esi
  40a32f:	48 89 c7             	mov    %rax,%rdi
  40a332:	e8 bd c3 ff ff       	callq  4066f4 <_ZNK11arm_compute6WindowixEm>
  40a337:	48 89 45 f8          	mov    %rax,-0x8(%rbp)
  40a33b:	48 8b 45 f8          	mov    -0x8(%rbp),%rax
  40a33f:	48 89 c7             	mov    %rax,%rdi
  40a342:	e8 09 c3 ff ff       	callq  406650 <_ZNK11arm_compute6Window9Dimension5startEv>
  40a347:	89 45 f4             	mov    %eax,-0xc(%rbp)
  40a34a:	48 8b 45 f8          	mov    -0x8(%rbp),%rax
  40a34e:	48 89 c7             	mov    %rax,%rdi
  40a351:	e8 0a c3 ff ff       	callq  406660 <_ZNK11arm_compute6Window9Dimension3endEv>
  40a356:	3b 45 f4             	cmp    -0xc(%rbp),%eax
  40a359:	0f 9f c0             	setg   %al
  40a35c:	84 c0                	test   %al,%al
  40a35e:	74 49                	je     40a3a9 <_ZN11arm_compute16ForEachDimensionILm6EE6unrollIZN2CK5armcl23copy_raw_data_to_tensorIfEEvPNS_8CLTensorEPT_RKNS3_5ShapeEEUlRKNS_11CoordinatesEE_IRNS_8IteratorEEEEvRKNS_6WindowERSD_OS8_DpOT0_+0x9b>
  40a360:	48 8b 45 e0          	mov    -0x20(%rbp),%rax
  40a364:	8b 55 f4             	mov    -0xc(%rbp),%edx
  40a367:	be 05 00 00 00       	mov    $0x5,%esi
  40a36c:	48 89 c7             	mov    %rax,%rdi
  40a36f:	e8 4a de ff ff       	callq  4081be <_ZN11arm_compute10DimensionsIiE3setEmi>
  40a374:	48 8b 4d d0          	mov    -0x30(%rbp),%rcx
  40a378:	48 8b 55 d8          	mov    -0x28(%rbp),%rdx
  40a37c:	48 8b 75 e0          	mov    -0x20(%rbp),%rsi
  40a380:	48 8b 45 e8          	mov    -0x18(%rbp),%rax
  40a384:	48 89 c7             	mov    %rax,%rdi
  40a387:	e8 f2 05 00 00       	callq  40a97e <_ZN11arm_compute16ForEachDimensionILm5EE6unrollIRZN2CK5armcl23copy_raw_data_to_tensorIfEEvPNS_8CLTensorEPT_RKNS3_5ShapeEEUlRKNS_11CoordinatesEE_IRNS_8IteratorEEEEvRKNS_6WindowERSD_OS8_DpOT0_>
  40a38c:	48 8b 45 f8          	mov    -0x8(%rbp),%rax
  40a390:	48 89 c7             	mov    %rax,%rdi
  40a393:	e8 da c2 ff ff       	callq  406672 <_ZNK11arm_compute6Window9Dimension4stepEv>
  40a398:	01 45 f4             	add    %eax,-0xc(%rbp)
  40a39b:	48 8b 45 d0          	mov    -0x30(%rbp),%rax
  40a39f:	48 89 c7             	mov    %rax,%rdi
  40a3a2:	e8 b7 05 00 00       	callq  40a95e <_ZN11arm_compute18IncrementIteratorsILm5EE6unrollIRNS_8IteratorEEEvOT_>
  40a3a7:	eb a1                	jmp    40a34a <_ZN11arm_compute16ForEachDimensionILm6EE6unrollIZN2CK5armcl23copy_raw_data_to_tensorIfEEvPNS_8CLTensorEPT_RKNS3_5ShapeEEUlRKNS_11CoordinatesEE_IRNS_8IteratorEEEEvRKNS_6WindowERSD_OS8_DpOT0_+0x3c>
  40a3a9:	90                   	nop
  40a3aa:	c9                   	leaveq 
  40a3ab:	c3                   	retq   

000000000040a3ac <_ZN11arm_compute16ForEachDimensionILm6EE6unrollIZN2CK5armcl25copy_raw_data_from_tensorIfEEvPNS_8CLTensorEPT_RKNS3_5ShapeEEUlRKNS_11CoordinatesEE_IRNS_8IteratorEEEEvRKNS_6WindowERSD_OS8_DpOT0_>:
  40a3ac:	55                   	push   %rbp
  40a3ad:	48 89 e5             	mov    %rsp,%rbp
  40a3b0:	48 83 ec 30          	sub    $0x30,%rsp
  40a3b4:	48 89 7d e8          	mov    %rdi,-0x18(%rbp)
  40a3b8:	48 89 75 e0          	mov    %rsi,-0x20(%rbp)
  40a3bc:	48 89 55 d8          	mov    %rdx,-0x28(%rbp)
  40a3c0:	48 89 4d d0          	mov    %rcx,-0x30(%rbp)
  40a3c4:	48 8b 45 e8          	mov    -0x18(%rbp),%rax
  40a3c8:	be 05 00 00 00       	mov    $0x5,%esi
  40a3cd:	48 89 c7             	mov    %rax,%rdi
  40a3d0:	e8 1f c3 ff ff       	callq  4066f4 <_ZNK11arm_compute6WindowixEm>
  40a3d5:	48 89 45 f8          	mov    %rax,-0x8(%rbp)
  40a3d9:	48 8b 45 f8          	mov    -0x8(%rbp),%rax
  40a3dd:	48 89 c7             	mov    %rax,%rdi
  40a3e0:	e8 6b c2 ff ff       	callq  406650 <_ZNK11arm_compute6Window9Dimension5startEv>
  40a3e5:	89 45 f4             	mov    %eax,-0xc(%rbp)
  40a3e8:	48 8b 45 f8          	mov    -0x8(%rbp),%rax
  40a3ec:	48 89 c7             	mov    %rax,%rdi
  40a3ef:	e8 6c c2 ff ff       	callq  406660 <_ZNK11arm_compute6Window9Dimension3endEv>
  40a3f4:	3b 45 f4             	cmp    -0xc(%rbp),%eax
  40a3f7:	0f 9f c0             	setg   %al
  40a3fa:	84 c0                	test   %al,%al
  40a3fc:	74 49                	je     40a447 <_ZN11arm_compute16ForEachDimensionILm6EE6unrollIZN2CK5armcl25copy_raw_data_from_tensorIfEEvPNS_8CLTensorEPT_RKNS3_5ShapeEEUlRKNS_11CoordinatesEE_IRNS_8IteratorEEEEvRKNS_6WindowERSD_OS8_DpOT0_+0x9b>
  40a3fe:	48 8b 45 e0          	mov    -0x20(%rbp),%rax
  40a402:	8b 55 f4             	mov    -0xc(%rbp),%edx
  40a405:	be 05 00 00 00       	mov    $0x5,%esi
  40a40a:	48 89 c7             	mov    %rax,%rdi
  40a40d:	e8 ac dd ff ff       	callq  4081be <_ZN11arm_compute10DimensionsIiE3setEmi>
  40a412:	48 8b 4d d0          	mov    -0x30(%rbp),%rcx
  40a416:	48 8b 55 d8          	mov    -0x28(%rbp),%rdx
  40a41a:	48 8b 75 e0          	mov    -0x20(%rbp),%rsi
  40a41e:	48 8b 45 e8          	mov    -0x18(%rbp),%rax
  40a422:	48 89 c7             	mov    %rax,%rdi
  40a425:	e8 f2 05 00 00       	callq  40aa1c <_ZN11arm_compute16ForEachDimensionILm5EE6unrollIRZN2CK5armcl25copy_raw_data_from_tensorIfEEvPNS_8CLTensorEPT_RKNS3_5ShapeEEUlRKNS_11CoordinatesEE_IRNS_8IteratorEEEEvRKNS_6WindowERSD_OS8_DpOT0_>
  40a42a:	48 8b 45 f8          	mov    -0x8(%rbp),%rax
  40a42e:	48 89 c7             	mov    %rax,%rdi
  40a431:	e8 3c c2 ff ff       	callq  406672 <_ZNK11arm_compute6Window9Dimension4stepEv>
  40a436:	01 45 f4             	add    %eax,-0xc(%rbp)
  40a439:	48 8b 45 d0          	mov    -0x30(%rbp),%rax
  40a43d:	48 89 c7             	mov    %rax,%rdi
  40a440:	e8 19 05 00 00       	callq  40a95e <_ZN11arm_compute18IncrementIteratorsILm5EE6unrollIRNS_8IteratorEEEvOT_>
  40a445:	eb a1                	jmp    40a3e8 <_ZN11arm_compute16ForEachDimensionILm6EE6unrollIZN2CK5armcl25copy_raw_data_from_tensorIfEEvPNS_8CLTensorEPT_RKNS3_5ShapeEEUlRKNS_11CoordinatesEE_IRNS_8IteratorEEEEvRKNS_6WindowERSD_OS8_DpOT0_+0x3c>
  40a447:	90                   	nop
  40a448:	c9                   	leaveq 
  40a449:	c3                   	retq   

000000000040a44a <_ZSt12__get_helperILm0EPFvvEIEERT0_RSt11_Tuple_implIXT_EIS2_DpT1_EE>:
  40a44a:	55                   	push   %rbp
  40a44b:	48 89 e5             	mov    %rsp,%rbp
  40a44e:	48 83 ec 10          	sub    $0x10,%rsp
  40a452:	48 89 7d f8          	mov    %rdi,-0x8(%rbp)
  40a456:	48 8b 45 f8          	mov    -0x8(%rbp),%rax
  40a45a:	48 89 c7             	mov    %rax,%rdi
  40a45d:	e8 92 d0 ff ff       	callq  4074f4 <_ZNSt11_Tuple_implILm0EIPFvvEEE7_M_headERS2_>
  40a462:	c9                   	leaveq 
  40a463:	c3                   	retq   

000000000040a464 <_ZSt3getILm0EIPFvvEEERNSt13tuple_elementIXT_ESt5tupleIIDpT0_EEE4typeERS6_>:
  40a464:	55                   	push   %rbp
  40a465:	48 89 e5             	mov    %rsp,%rbp
  40a468:	48 83 ec 10          	sub    $0x10,%rsp
  40a46c:	48 89 7d f8          	mov    %rdi,-0x8(%rbp)
  40a470:	48 8b 45 f8          	mov    -0x8(%rbp),%rax
  40a474:	48 89 c7             	mov    %rax,%rdi
  40a477:	e8 ce ff ff ff       	callq  40a44a <_ZSt12__get_helperILm0EPFvvEIEERT0_RSt11_Tuple_implIXT_EIS2_DpT1_EE>
  40a47c:	c9                   	leaveq 
  40a47d:	c3                   	retq   

000000000040a47e <_ZNSt12_Bind_simpleIFPFvvEvEE9_M_invokeIIEEEvSt12_Index_tupleIIXspT_EEE>:
  40a47e:	55                   	push   %rbp
  40a47f:	48 89 e5             	mov    %rsp,%rbp
  40a482:	48 83 ec 10          	sub    $0x10,%rsp
  40a486:	48 89 7d f8          	mov    %rdi,-0x8(%rbp)
  40a48a:	48 8b 45 f8          	mov    -0x8(%rbp),%rax
  40a48e:	48 89 c7             	mov    %rax,%rdi
  40a491:	e8 ce ff ff ff       	callq  40a464 <_ZSt3getILm0EIPFvvEEERNSt13tuple_elementIXT_ESt5tupleIIDpT0_EEE4typeERS6_>
  40a496:	48 89 c7             	mov    %rax,%rdi
  40a499:	e8 70 d0 ff ff       	callq  40750e <_ZSt7forwardIPFvvEEOT_RNSt16remove_referenceIS2_E4typeE>
  40a49e:	48 8b 00             	mov    (%rax),%rax
  40a4a1:	ff d0                	callq  *%rax
  40a4a3:	c9                   	leaveq 
  40a4a4:	c3                   	retq   
  40a4a5:	90                   	nop

000000000040a4a6 <_ZNSaIP15_cl_platform_idEC1ERKS1_>:
  40a4a6:	55                   	push   %rbp
  40a4a7:	48 89 e5             	mov    %rsp,%rbp
  40a4aa:	48 83 ec 10          	sub    $0x10,%rsp
  40a4ae:	48 89 7d f8          	mov    %rdi,-0x8(%rbp)
  40a4b2:	48 89 75 f0          	mov    %rsi,-0x10(%rbp)
  40a4b6:	48 8b 55 f0          	mov    -0x10(%rbp),%rdx
  40a4ba:	48 8b 45 f8          	mov    -0x8(%rbp),%rax
  40a4be:	48 89 d6             	mov    %rdx,%rsi
  40a4c1:	48 89 c7             	mov    %rax,%rdi
  40a4c4:	e8 f1 05 00 00       	callq  40aaba <_ZN9__gnu_cxx13new_allocatorIP15_cl_platform_idEC1ERKS3_>
  40a4c9:	90                   	nop
  40a4ca:	c9                   	leaveq 
  40a4cb:	c3                   	retq   

000000000040a4cc <_ZNSt12_Vector_baseIP15_cl_platform_idSaIS1_EE11_M_allocateEm>:
  40a4cc:	55                   	push   %rbp
  40a4cd:	48 89 e5             	mov    %rsp,%rbp
  40a4d0:	48 83 ec 10          	sub    $0x10,%rsp
  40a4d4:	48 89 7d f8          	mov    %rdi,-0x8(%rbp)
  40a4d8:	48 89 75 f0          	mov    %rsi,-0x10(%rbp)
  40a4dc:	48 83 7d f0 00       	cmpq   $0x0,-0x10(%rbp)
  40a4e1:	74 15                	je     40a4f8 <_ZNSt12_Vector_baseIP15_cl_platform_idSaIS1_EE11_M_allocateEm+0x2c>
  40a4e3:	48 8b 45 f8          	mov    -0x8(%rbp),%rax
  40a4e7:	48 8b 55 f0          	mov    -0x10(%rbp),%rdx
  40a4eb:	48 89 d6             	mov    %rdx,%rsi
  40a4ee:	48 89 c7             	mov    %rax,%rdi
  40a4f1:	e8 d3 05 00 00       	callq  40aac9 <_ZNSt16allocator_traitsISaIP15_cl_platform_idEE8allocateERS2_m>
  40a4f6:	eb 05                	jmp    40a4fd <_ZNSt12_Vector_baseIP15_cl_platform_idSaIS1_EE11_M_allocateEm+0x31>
  40a4f8:	b8 00 00 00 00       	mov    $0x0,%eax
  40a4fd:	c9                   	leaveq 
  40a4fe:	c3                   	retq   

000000000040a4ff <_ZNSt16allocator_traitsISaIP15_cl_platform_idEE10deallocateERS2_PS1_m>:
  40a4ff:	55                   	push   %rbp
  40a500:	48 89 e5             	mov    %rsp,%rbp
  40a503:	48 83 ec 20          	sub    $0x20,%rsp
  40a507:	48 89 7d f8          	mov    %rdi,-0x8(%rbp)
  40a50b:	48 89 75 f0          	mov    %rsi,-0x10(%rbp)
  40a50f:	48 89 55 e8          	mov    %rdx,-0x18(%rbp)
  40a513:	48 8b 55 e8          	mov    -0x18(%rbp),%rdx
  40a517:	48 8b 4d f0          	mov    -0x10(%rbp),%rcx
  40a51b:	48 8b 45 f8          	mov    -0x8(%rbp),%rax
  40a51f:	48 89 ce             	mov    %rcx,%rsi
  40a522:	48 89 c7             	mov    %rax,%rdi
  40a525:	e8 ca 05 00 00       	callq  40aaf4 <_ZN9__gnu_cxx13new_allocatorIP15_cl_platform_idE10deallocateEPS2_m>
  40a52a:	90                   	nop
  40a52b:	c9                   	leaveq 
  40a52c:	c3                   	retq   

000000000040a52d <_ZSt25__uninitialized_default_nIPP15_cl_platform_idmET_S3_T0_>:
  40a52d:	55                   	push   %rbp
  40a52e:	48 89 e5             	mov    %rsp,%rbp
  40a531:	48 83 ec 20          	sub    $0x20,%rsp
  40a535:	48 89 7d e8          	mov    %rdi,-0x18(%rbp)
  40a539:	48 89 75 e0          	mov    %rsi,-0x20(%rbp)
  40a53d:	c6 45 ff 01          	movb   $0x1,-0x1(%rbp)
  40a541:	48 8b 55 e0          	mov    -0x20(%rbp),%rdx
  40a545:	48 8b 45 e8          	mov    -0x18(%rbp),%rax
  40a549:	48 89 d6             	mov    %rdx,%rsi
  40a54c:	48 89 c7             	mov    %rax,%rdi
  40a54f:	e8 c3 05 00 00       	callq  40ab17 <_ZNSt27__uninitialized_default_n_1ILb1EE18__uninit_default_nIPP15_cl_platform_idmEET_S5_T0_>
  40a554:	c9                   	leaveq 
  40a555:	c3                   	retq   

000000000040a556 <_ZNSt12_Destroy_auxILb1EE9__destroyIPP15_cl_platform_idEEvT_S5_>:
  40a556:	55                   	push   %rbp
  40a557:	48 89 e5             	mov    %rsp,%rbp
  40a55a:	48 89 7d f8          	mov    %rdi,-0x8(%rbp)
  40a55e:	48 89 75 f0          	mov    %rsi,-0x10(%rbp)
  40a562:	90                   	nop
  40a563:	5d                   	pop    %rbp
  40a564:	c3                   	retq   
  40a565:	90                   	nop

000000000040a566 <_ZNSaIP13_cl_device_idEC1ERKS1_>:
  40a566:	55                   	push   %rbp
  40a567:	48 89 e5             	mov    %rsp,%rbp
  40a56a:	48 83 ec 10          	sub    $0x10,%rsp
  40a56e:	48 89 7d f8          	mov    %rdi,-0x8(%rbp)
  40a572:	48 89 75 f0          	mov    %rsi,-0x10(%rbp)
  40a576:	48 8b 55 f0          	mov    -0x10(%rbp),%rdx
  40a57a:	48 8b 45 f8          	mov    -0x8(%rbp),%rax
  40a57e:	48 89 d6             	mov    %rdx,%rsi
  40a581:	48 89 c7             	mov    %rax,%rdi
  40a584:	e8 e3 05 00 00       	callq  40ab6c <_ZN9__gnu_cxx13new_allocatorIP13_cl_device_idEC1ERKS3_>
  40a589:	90                   	nop
  40a58a:	c9                   	leaveq 
  40a58b:	c3                   	retq   

000000000040a58c <_ZNSt12_Vector_baseIP13_cl_device_idSaIS1_EE11_M_allocateEm>:
  40a58c:	55                   	push   %rbp
  40a58d:	48 89 e5             	mov    %rsp,%rbp
  40a590:	48 83 ec 10          	sub    $0x10,%rsp
  40a594:	48 89 7d f8          	mov    %rdi,-0x8(%rbp)
  40a598:	48 89 75 f0          	mov    %rsi,-0x10(%rbp)
  40a59c:	48 83 7d f0 00       	cmpq   $0x0,-0x10(%rbp)
  40a5a1:	74 15                	je     40a5b8 <_ZNSt12_Vector_baseIP13_cl_device_idSaIS1_EE11_M_allocateEm+0x2c>
  40a5a3:	48 8b 45 f8          	mov    -0x8(%rbp),%rax
  40a5a7:	48 8b 55 f0          	mov    -0x10(%rbp),%rdx
  40a5ab:	48 89 d6             	mov    %rdx,%rsi
  40a5ae:	48 89 c7             	mov    %rax,%rdi
  40a5b1:	e8 c5 05 00 00       	callq  40ab7b <_ZNSt16allocator_traitsISaIP13_cl_device_idEE8allocateERS2_m>
  40a5b6:	eb 05                	jmp    40a5bd <_ZNSt12_Vector_baseIP13_cl_device_idSaIS1_EE11_M_allocateEm+0x31>
  40a5b8:	b8 00 00 00 00       	mov    $0x0,%eax
  40a5bd:	c9                   	leaveq 
  40a5be:	c3                   	retq   

000000000040a5bf <_ZNSt16allocator_traitsISaIP13_cl_device_idEE10deallocateERS2_PS1_m>:
  40a5bf:	55                   	push   %rbp
  40a5c0:	48 89 e5             	mov    %rsp,%rbp
  40a5c3:	48 83 ec 20          	sub    $0x20,%rsp
  40a5c7:	48 89 7d f8          	mov    %rdi,-0x8(%rbp)
  40a5cb:	48 89 75 f0          	mov    %rsi,-0x10(%rbp)
  40a5cf:	48 89 55 e8          	mov    %rdx,-0x18(%rbp)
  40a5d3:	48 8b 55 e8          	mov    -0x18(%rbp),%rdx
  40a5d7:	48 8b 4d f0          	mov    -0x10(%rbp),%rcx
  40a5db:	48 8b 45 f8          	mov    -0x8(%rbp),%rax
  40a5df:	48 89 ce             	mov    %rcx,%rsi
  40a5e2:	48 89 c7             	mov    %rax,%rdi
  40a5e5:	e8 bc 05 00 00       	callq  40aba6 <_ZN9__gnu_cxx13new_allocatorIP13_cl_device_idE10deallocateEPS2_m>
  40a5ea:	90                   	nop
  40a5eb:	c9                   	leaveq 
  40a5ec:	c3                   	retq   

000000000040a5ed <_ZSt25__uninitialized_default_nIPP13_cl_device_idmET_S3_T0_>:
  40a5ed:	55                   	push   %rbp
  40a5ee:	48 89 e5             	mov    %rsp,%rbp
  40a5f1:	48 83 ec 20          	sub    $0x20,%rsp
  40a5f5:	48 89 7d e8          	mov    %rdi,-0x18(%rbp)
  40a5f9:	48 89 75 e0          	mov    %rsi,-0x20(%rbp)
  40a5fd:	c6 45 ff 01          	movb   $0x1,-0x1(%rbp)
  40a601:	48 8b 55 e0          	mov    -0x20(%rbp),%rdx
  40a605:	48 8b 45 e8          	mov    -0x18(%rbp),%rax
  40a609:	48 89 d6             	mov    %rdx,%rsi
  40a60c:	48 89 c7             	mov    %rax,%rdi
  40a60f:	e8 b5 05 00 00       	callq  40abc9 <_ZNSt27__uninitialized_default_n_1ILb1EE18__uninit_default_nIPP13_cl_device_idmEET_S5_T0_>
  40a614:	c9                   	leaveq 
  40a615:	c3                   	retq   

000000000040a616 <_ZNSt12_Destroy_auxILb1EE9__destroyIPP13_cl_device_idEEvT_S5_>:
  40a616:	55                   	push   %rbp
  40a617:	48 89 e5             	mov    %rsp,%rbp
  40a61a:	48 89 7d f8          	mov    %rdi,-0x8(%rbp)
  40a61e:	48 89 75 f0          	mov    %rsi,-0x10(%rbp)
  40a622:	90                   	nop
  40a623:	5d                   	pop    %rbp
  40a624:	c3                   	retq   

000000000040a625 <_ZSt25__uninitialized_default_nIPN2cl6DeviceEmET_S3_T0_>:
  40a625:	55                   	push   %rbp
  40a626:	48 89 e5             	mov    %rsp,%rbp
  40a629:	48 83 ec 20          	sub    $0x20,%rsp
  40a62d:	48 89 7d e8          	mov    %rdi,-0x18(%rbp)
  40a631:	48 89 75 e0          	mov    %rsi,-0x20(%rbp)
  40a635:	c6 45 ff 01          	movb   $0x1,-0x1(%rbp)
  40a639:	48 8b 55 e0          	mov    -0x20(%rbp),%rdx
  40a63d:	48 8b 45 e8          	mov    -0x18(%rbp),%rax
  40a641:	48 89 d6             	mov    %rdx,%rsi
  40a644:	48 89 c7             	mov    %rax,%rdi
  40a647:	e8 d1 05 00 00       	callq  40ac1d <_ZNSt27__uninitialized_default_n_1ILb0EE18__uninit_default_nIPN2cl6DeviceEmEET_S5_T0_>
  40a64c:	c9                   	leaveq 
  40a64d:	c3                   	retq   

000000000040a64e <_ZNKSt6vectorIN2cl6DeviceESaIS1_EE8max_sizeEv>:
  40a64e:	55                   	push   %rbp
  40a64f:	48 89 e5             	mov    %rsp,%rbp
  40a652:	48 83 ec 10          	sub    $0x10,%rsp
  40a656:	48 89 7d f8          	mov    %rdi,-0x8(%rbp)
  40a65a:	48 8b 45 f8          	mov    -0x8(%rbp),%rax
  40a65e:	48 89 c7             	mov    %rax,%rdi
  40a661:	e8 16 06 00 00       	callq  40ac7c <_ZNKSt12_Vector_baseIN2cl6DeviceESaIS1_EE19_M_get_Tp_allocatorEv>
  40a666:	48 89 c7             	mov    %rax,%rdi
  40a669:	e8 f4 05 00 00       	callq  40ac62 <_ZNSt16allocator_traitsISaIN2cl6DeviceEEE8max_sizeERKS2_>
  40a66e:	c9                   	leaveq 
  40a66f:	c3                   	retq   

000000000040a670 <_ZNSt16allocator_traitsISaIN2cl6DeviceEEE8allocateERS2_m>:
  40a670:	55                   	push   %rbp
  40a671:	48 89 e5             	mov    %rsp,%rbp
  40a674:	48 83 ec 10          	sub    $0x10,%rsp
  40a678:	48 89 7d f8          	mov    %rdi,-0x8(%rbp)
  40a67c:	48 89 75 f0          	mov    %rsi,-0x10(%rbp)
  40a680:	48 8b 4d f0          	mov    -0x10(%rbp),%rcx
  40a684:	48 8b 45 f8          	mov    -0x8(%rbp),%rax
  40a688:	ba 00 00 00 00       	mov    $0x0,%edx
  40a68d:	48 89 ce             	mov    %rcx,%rsi
  40a690:	48 89 c7             	mov    %rax,%rdi
  40a693:	e8 f2 05 00 00       	callq  40ac8a <_ZN9__gnu_cxx13new_allocatorIN2cl6DeviceEE8allocateEmPKv>
  40a698:	c9                   	leaveq 
  40a699:	c3                   	retq   

000000000040a69a <_ZSt32__make_move_if_noexcept_iteratorIPN2cl6DeviceESt13move_iteratorIS2_EET0_T_>:
  40a69a:	55                   	push   %rbp
  40a69b:	48 89 e5             	mov    %rsp,%rbp
  40a69e:	48 83 ec 20          	sub    $0x20,%rsp
  40a6a2:	48 89 7d e8          	mov    %rdi,-0x18(%rbp)
  40a6a6:	64 48 8b 04 25 28 00 	mov    %fs:0x28,%rax
  40a6ad:	00 00 
  40a6af:	48 89 45 f8          	mov    %rax,-0x8(%rbp)
  40a6b3:	31 c0                	xor    %eax,%eax
  40a6b5:	48 8b 55 e8          	mov    -0x18(%rbp),%rdx
  40a6b9:	48 8d 45 f0          	lea    -0x10(%rbp),%rax
  40a6bd:	48 89 d6             	mov    %rdx,%rsi
  40a6c0:	48 89 c7             	mov    %rax,%rdi
  40a6c3:	e8 04 06 00 00       	callq  40accc <_ZNSt13move_iteratorIPN2cl6DeviceEEC1ES2_>
  40a6c8:	48 8b 45 f0          	mov    -0x10(%rbp),%rax
  40a6cc:	48 8b 4d f8          	mov    -0x8(%rbp),%rcx
  40a6d0:	64 48 33 0c 25 28 00 	xor    %fs:0x28,%rcx
  40a6d7:	00 00 
  40a6d9:	74 05                	je     40a6e0 <_ZSt32__make_move_if_noexcept_iteratorIPN2cl6DeviceESt13move_iteratorIS2_EET0_T_+0x46>
  40a6db:	e8 70 97 ff ff       	callq  403e50 <__stack_chk_fail@plt>
  40a6e0:	c9                   	leaveq 
  40a6e1:	c3                   	retq   

000000000040a6e2 <_ZSt22__uninitialized_copy_aISt13move_iteratorIPN2cl6DeviceEES3_S2_ET0_T_S6_S5_RSaIT1_E>:
  40a6e2:	55                   	push   %rbp
  40a6e3:	48 89 e5             	mov    %rsp,%rbp
  40a6e6:	48 83 ec 20          	sub    $0x20,%rsp
  40a6ea:	48 89 7d f0          	mov    %rdi,-0x10(%rbp)
  40a6ee:	48 89 75 e0          	mov    %rsi,-0x20(%rbp)
  40a6f2:	48 89 55 e8          	mov    %rdx,-0x18(%rbp)
  40a6f6:	48 89 4d f8          	mov    %rcx,-0x8(%rbp)
  40a6fa:	48 8b 55 e8          	mov    -0x18(%rbp),%rdx
  40a6fe:	48 8b 4d e0          	mov    -0x20(%rbp),%rcx
  40a702:	48 8b 45 f0          	mov    -0x10(%rbp),%rax
  40a706:	48 89 ce             	mov    %rcx,%rsi
  40a709:	48 89 c7             	mov    %rax,%rdi
  40a70c:	e8 d5 05 00 00       	callq  40ace6 <_ZSt18uninitialized_copyISt13move_iteratorIPN2cl6DeviceEES3_ET0_T_S6_S5_>
  40a711:	c9                   	leaveq 
  40a712:	c3                   	retq   

000000000040a713 <_ZNSt16allocator_traitsISaIN2cl6DeviceEEE10deallocateERS2_PS1_m>:
  40a713:	55                   	push   %rbp
  40a714:	48 89 e5             	mov    %rsp,%rbp
  40a717:	48 83 ec 20          	sub    $0x20,%rsp
  40a71b:	48 89 7d f8          	mov    %rdi,-0x8(%rbp)
  40a71f:	48 89 75 f0          	mov    %rsi,-0x10(%rbp)
  40a723:	48 89 55 e8          	mov    %rdx,-0x18(%rbp)
  40a727:	48 8b 55 e8          	mov    -0x18(%rbp),%rdx
  40a72b:	48 8b 4d f0          	mov    -0x10(%rbp),%rcx
  40a72f:	48 8b 45 f8          	mov    -0x8(%rbp),%rax
  40a733:	48 89 ce             	mov    %rcx,%rsi
  40a736:	48 89 c7             	mov    %rax,%rdi
  40a739:	e8 da 05 00 00       	callq  40ad18 <_ZN9__gnu_cxx13new_allocatorIN2cl6DeviceEE10deallocateEPS2_m>
  40a73e:	90                   	nop
  40a73f:	c9                   	leaveq 
  40a740:	c3                   	retq   

000000000040a741 <_ZSt25__uninitialized_default_nIPN2cl8PlatformEmET_S3_T0_>:
  40a741:	55                   	push   %rbp
  40a742:	48 89 e5             	mov    %rsp,%rbp
  40a745:	48 83 ec 20          	sub    $0x20,%rsp
  40a749:	48 89 7d e8          	mov    %rdi,-0x18(%rbp)
  40a74d:	48 89 75 e0          	mov    %rsi,-0x20(%rbp)
  40a751:	c6 45 ff 01          	movb   $0x1,-0x1(%rbp)
  40a755:	48 8b 55 e0          	mov    -0x20(%rbp),%rdx
  40a759:	48 8b 45 e8          	mov    -0x18(%rbp),%rax
  40a75d:	48 89 d6             	mov    %rdx,%rsi
  40a760:	48 89 c7             	mov    %rax,%rdi
  40a763:	e8 d3 05 00 00       	callq  40ad3b <_ZNSt27__uninitialized_default_n_1ILb0EE18__uninit_default_nIPN2cl8PlatformEmEET_S5_T0_>
  40a768:	c9                   	leaveq 
  40a769:	c3                   	retq   

000000000040a76a <_ZNKSt6vectorIN2cl8PlatformESaIS1_EE8max_sizeEv>:
  40a76a:	55                   	push   %rbp
  40a76b:	48 89 e5             	mov    %rsp,%rbp
  40a76e:	48 83 ec 10          	sub    $0x10,%rsp
  40a772:	48 89 7d f8          	mov    %rdi,-0x8(%rbp)
  40a776:	48 8b 45 f8          	mov    -0x8(%rbp),%rax
  40a77a:	48 89 c7             	mov    %rax,%rdi
  40a77d:	e8 54 06 00 00       	callq  40add6 <_ZNKSt12_Vector_baseIN2cl8PlatformESaIS1_EE19_M_get_Tp_allocatorEv>
  40a782:	48 89 c7             	mov    %rax,%rdi
  40a785:	e8 31 06 00 00       	callq  40adbb <_ZNSt16allocator_traitsISaIN2cl8PlatformEEE8max_sizeERKS2_>
  40a78a:	c9                   	leaveq 
  40a78b:	c3                   	retq   

000000000040a78c <_ZNSt16allocator_traitsISaIN2cl8PlatformEEE8allocateERS2_m>:
  40a78c:	55                   	push   %rbp
  40a78d:	48 89 e5             	mov    %rsp,%rbp
  40a790:	48 83 ec 10          	sub    $0x10,%rsp
  40a794:	48 89 7d f8          	mov    %rdi,-0x8(%rbp)
  40a798:	48 89 75 f0          	mov    %rsi,-0x10(%rbp)
  40a79c:	48 8b 4d f0          	mov    -0x10(%rbp),%rcx
  40a7a0:	48 8b 45 f8          	mov    -0x8(%rbp),%rax
  40a7a4:	ba 00 00 00 00       	mov    $0x0,%edx
  40a7a9:	48 89 ce             	mov    %rcx,%rsi
  40a7ac:	48 89 c7             	mov    %rax,%rdi
  40a7af:	e8 30 06 00 00       	callq  40ade4 <_ZN9__gnu_cxx13new_allocatorIN2cl8PlatformEE8allocateEmPKv>
  40a7b4:	c9                   	leaveq 
  40a7b5:	c3                   	retq   

000000000040a7b6 <_ZSt32__make_move_if_noexcept_iteratorIPN2cl8PlatformESt13move_iteratorIS2_EET0_T_>:
  40a7b6:	55                   	push   %rbp
  40a7b7:	48 89 e5             	mov    %rsp,%rbp
  40a7ba:	48 83 ec 20          	sub    $0x20,%rsp
  40a7be:	48 89 7d e8          	mov    %rdi,-0x18(%rbp)
  40a7c2:	64 48 8b 04 25 28 00 	mov    %fs:0x28,%rax
  40a7c9:	00 00 
  40a7cb:	48 89 45 f8          	mov    %rax,-0x8(%rbp)
  40a7cf:	31 c0                	xor    %eax,%eax
  40a7d1:	48 8b 55 e8          	mov    -0x18(%rbp),%rdx
  40a7d5:	48 8d 45 f0          	lea    -0x10(%rbp),%rax
  40a7d9:	48 89 d6             	mov    %rdx,%rsi
  40a7dc:	48 89 c7             	mov    %rax,%rdi
  40a7df:	e8 42 06 00 00       	callq  40ae26 <_ZNSt13move_iteratorIPN2cl8PlatformEEC1ES2_>
  40a7e4:	48 8b 45 f0          	mov    -0x10(%rbp),%rax
  40a7e8:	48 8b 4d f8          	mov    -0x8(%rbp),%rcx
  40a7ec:	64 48 33 0c 25 28 00 	xor    %fs:0x28,%rcx
  40a7f3:	00 00 
  40a7f5:	74 05                	je     40a7fc <_ZSt32__make_move_if_noexcept_iteratorIPN2cl8PlatformESt13move_iteratorIS2_EET0_T_+0x46>
  40a7f7:	e8 54 96 ff ff       	callq  403e50 <__stack_chk_fail@plt>
  40a7fc:	c9                   	leaveq 
  40a7fd:	c3                   	retq   

000000000040a7fe <_ZSt22__uninitialized_copy_aISt13move_iteratorIPN2cl8PlatformEES3_S2_ET0_T_S6_S5_RSaIT1_E>:
  40a7fe:	55                   	push   %rbp
  40a7ff:	48 89 e5             	mov    %rsp,%rbp
  40a802:	48 83 ec 20          	sub    $0x20,%rsp
  40a806:	48 89 7d f0          	mov    %rdi,-0x10(%rbp)
  40a80a:	48 89 75 e0          	mov    %rsi,-0x20(%rbp)
  40a80e:	48 89 55 e8          	mov    %rdx,-0x18(%rbp)
  40a812:	48 89 4d f8          	mov    %rcx,-0x8(%rbp)
  40a816:	48 8b 55 e8          	mov    -0x18(%rbp),%rdx
  40a81a:	48 8b 4d e0          	mov    -0x20(%rbp),%rcx
  40a81e:	48 8b 45 f0          	mov    -0x10(%rbp),%rax
  40a822:	48 89 ce             	mov    %rcx,%rsi
  40a825:	48 89 c7             	mov    %rax,%rdi
  40a828:	e8 13 06 00 00       	callq  40ae40 <_ZSt18uninitialized_copyISt13move_iteratorIPN2cl8PlatformEES3_ET0_T_S6_S5_>
  40a82d:	c9                   	leaveq 
  40a82e:	c3                   	retq   

000000000040a82f <_ZNSt16allocator_traitsISaIN2cl8PlatformEEE10deallocateERS2_PS1_m>:
  40a82f:	55                   	push   %rbp
  40a830:	48 89 e5             	mov    %rsp,%rbp
  40a833:	48 83 ec 20          	sub    $0x20,%rsp
  40a837:	48 89 7d f8          	mov    %rdi,-0x8(%rbp)
  40a83b:	48 89 75 f0          	mov    %rsi,-0x10(%rbp)
  40a83f:	48 89 55 e8          	mov    %rdx,-0x18(%rbp)
  40a843:	48 8b 55 e8          	mov    -0x18(%rbp),%rdx
  40a847:	48 8b 4d f0          	mov    -0x10(%rbp),%rcx
  40a84b:	48 8b 45 f8          	mov    -0x8(%rbp),%rax
  40a84f:	48 89 ce             	mov    %rcx,%rsi
  40a852:	48 89 c7             	mov    %rax,%rdi
  40a855:	e8 18 06 00 00       	callq  40ae72 <_ZN9__gnu_cxx13new_allocatorIN2cl8PlatformEE10deallocateEPS2_m>
  40a85a:	90                   	nop
  40a85b:	c9                   	leaveq 
  40a85c:	c3                   	retq   
  40a85d:	90                   	nop

000000000040a85e <_ZNSaIN2cl8PlatformEEC1Ev>:
  40a85e:	55                   	push   %rbp
  40a85f:	48 89 e5             	mov    %rsp,%rbp
  40a862:	48 83 ec 10          	sub    $0x10,%rsp
  40a866:	48 89 7d f8          	mov    %rdi,-0x8(%rbp)
  40a86a:	48 8b 45 f8          	mov    -0x8(%rbp),%rax
  40a86e:	48 89 c7             	mov    %rax,%rdi
  40a871:	e8 20 06 00 00       	callq  40ae96 <_ZN9__gnu_cxx13new_allocatorIN2cl8PlatformEEC1Ev>
  40a876:	90                   	nop
  40a877:	c9                   	leaveq 
  40a878:	c3                   	retq   
  40a879:	90                   	nop

000000000040a87a <_ZN9__gnu_cxx13new_allocatorIN2cl8PlatformEED1Ev>:
  40a87a:	55                   	push   %rbp
  40a87b:	48 89 e5             	mov    %rsp,%rbp
  40a87e:	48 89 7d f8          	mov    %rdi,-0x8(%rbp)
  40a882:	90                   	nop
  40a883:	5d                   	pop    %rbp
  40a884:	c3                   	retq   

000000000040a885 <_ZNSt12_Destroy_auxILb0EE9__destroyIPN2cl8PlatformEEEvT_S5_>:
  40a885:	55                   	push   %rbp
  40a886:	48 89 e5             	mov    %rsp,%rbp
  40a889:	48 83 ec 10          	sub    $0x10,%rsp
  40a88d:	48 89 7d f8          	mov    %rdi,-0x8(%rbp)
  40a891:	48 89 75 f0          	mov    %rsi,-0x10(%rbp)
  40a895:	48 8b 45 f8          	mov    -0x8(%rbp),%rax
  40a899:	48 3b 45 f0          	cmp    -0x10(%rbp),%rax
  40a89d:	74 1b                	je     40a8ba <_ZNSt12_Destroy_auxILb0EE9__destroyIPN2cl8PlatformEEEvT_S5_+0x35>
  40a89f:	48 8b 45 f8          	mov    -0x8(%rbp),%rax
  40a8a3:	48 89 c7             	mov    %rax,%rdi
  40a8a6:	e8 f6 05 00 00       	callq  40aea1 <_ZSt11__addressofIN2cl8PlatformEEPT_RS2_>
  40a8ab:	48 89 c7             	mov    %rax,%rdi
  40a8ae:	e8 fc 05 00 00       	callq  40aeaf <_ZSt8_DestroyIN2cl8PlatformEEvPT_>
  40a8b3:	48 83 45 f8 08       	addq   $0x8,-0x8(%rbp)
  40a8b8:	eb db                	jmp    40a895 <_ZNSt12_Destroy_auxILb0EE9__destroyIPN2cl8PlatformEEEvT_S5_+0x10>
  40a8ba:	90                   	nop
  40a8bb:	c9                   	leaveq 
  40a8bc:	c3                   	retq   
  40a8bd:	90                   	nop

000000000040a8be <_ZNSaIN2cl6DeviceEEC1Ev>:
  40a8be:	55                   	push   %rbp
  40a8bf:	48 89 e5             	mov    %rsp,%rbp
  40a8c2:	48 83 ec 10          	sub    $0x10,%rsp
  40a8c6:	48 89 7d f8          	mov    %rdi,-0x8(%rbp)
  40a8ca:	48 8b 45 f8          	mov    -0x8(%rbp),%rax
  40a8ce:	48 89 c7             	mov    %rax,%rdi
  40a8d1:	e8 f4 05 00 00       	callq  40aeca <_ZN9__gnu_cxx13new_allocatorIN2cl6DeviceEEC1Ev>
  40a8d6:	90                   	nop
  40a8d7:	c9                   	leaveq 
  40a8d8:	c3                   	retq   
  40a8d9:	90                   	nop

000000000040a8da <_ZN9__gnu_cxx13new_allocatorIN2cl6DeviceEED1Ev>:
  40a8da:	55                   	push   %rbp
  40a8db:	48 89 e5             	mov    %rsp,%rbp
  40a8de:	48 89 7d f8          	mov    %rdi,-0x8(%rbp)
  40a8e2:	90                   	nop
  40a8e3:	5d                   	pop    %rbp
  40a8e4:	c3                   	retq   

000000000040a8e5 <_ZNSt12_Destroy_auxILb0EE9__destroyIPN2cl6DeviceEEEvT_S5_>:
  40a8e5:	55                   	push   %rbp
  40a8e6:	48 89 e5             	mov    %rsp,%rbp
  40a8e9:	48 83 ec 10          	sub    $0x10,%rsp
  40a8ed:	48 89 7d f8          	mov    %rdi,-0x8(%rbp)
  40a8f1:	48 89 75 f0          	mov    %rsi,-0x10(%rbp)
  40a8f5:	48 8b 45 f8          	mov    -0x8(%rbp),%rax
  40a8f9:	48 3b 45 f0          	cmp    -0x10(%rbp),%rax
  40a8fd:	74 1b                	je     40a91a <_ZNSt12_Destroy_auxILb0EE9__destroyIPN2cl6DeviceEEEvT_S5_+0x35>
  40a8ff:	48 8b 45 f8          	mov    -0x8(%rbp),%rax
  40a903:	48 89 c7             	mov    %rax,%rdi
  40a906:	e8 ca 05 00 00       	callq  40aed5 <_ZSt11__addressofIN2cl6DeviceEEPT_RS2_>
  40a90b:	48 89 c7             	mov    %rax,%rdi
  40a90e:	e8 d0 05 00 00       	callq  40aee3 <_ZSt8_DestroyIN2cl6DeviceEEvPT_>
  40a913:	48 83 45 f8 10       	addq   $0x10,-0x8(%rbp)
  40a918:	eb db                	jmp    40a8f5 <_ZNSt12_Destroy_auxILb0EE9__destroyIPN2cl6DeviceEEEvT_S5_+0x10>
  40a91a:	90                   	nop
  40a91b:	c9                   	leaveq 
  40a91c:	c3                   	retq   
  40a91d:	90                   	nop

000000000040a91e <_ZN2cl6detail15GetInfoFunctor0IPFiP11_cl_contextjmPvPmES3_EclEjmS4_S5_>:
  40a91e:	55                   	push   %rbp
  40a91f:	48 89 e5             	mov    %rsp,%rbp
  40a922:	48 83 ec 30          	sub    $0x30,%rsp
  40a926:	48 89 7d f8          	mov    %rdi,-0x8(%rbp)
  40a92a:	89 75 f4             	mov    %esi,-0xc(%rbp)
  40a92d:	48 89 55 e8          	mov    %rdx,-0x18(%rbp)
  40a931:	48 89 4d e0          	mov    %rcx,-0x20(%rbp)
  40a935:	4c 89 45 d8          	mov    %r8,-0x28(%rbp)
  40a939:	48 8b 45 f8          	mov    -0x8(%rbp),%rax
  40a93d:	48 8b 00             	mov    (%rax),%rax
  40a940:	48 8b 55 f8          	mov    -0x8(%rbp),%rdx
  40a944:	48 8b 52 08          	mov    0x8(%rdx),%rdx
  40a948:	48 8b 3a             	mov    (%rdx),%rdi
  40a94b:	4c 8b 45 d8          	mov    -0x28(%rbp),%r8
  40a94f:	48 8b 4d e0          	mov    -0x20(%rbp),%rcx
  40a953:	48 8b 55 e8          	mov    -0x18(%rbp),%rdx
  40a957:	8b 75 f4             	mov    -0xc(%rbp),%esi
  40a95a:	ff d0                	callq  *%rax
  40a95c:	c9                   	leaveq 
  40a95d:	c3                   	retq   

000000000040a95e <_ZN11arm_compute18IncrementIteratorsILm5EE6unrollIRNS_8IteratorEEEvOT_>:
  40a95e:	55                   	push   %rbp
  40a95f:	48 89 e5             	mov    %rsp,%rbp
  40a962:	48 83 ec 10          	sub    $0x10,%rsp
  40a966:	48 89 7d f8          	mov    %rdi,-0x8(%rbp)
  40a96a:	48 8b 45 f8          	mov    -0x8(%rbp),%rax
  40a96e:	be 05 00 00 00       	mov    $0x5,%esi
  40a973:	48 89 c7             	mov    %rax,%rdi
  40a976:	e8 bf c1 ff ff       	callq  406b3a <_ZN11arm_compute8Iterator9incrementEm>
  40a97b:	90                   	nop
  40a97c:	c9                   	leaveq 
  40a97d:	c3                   	retq   

000000000040a97e <_ZN11arm_compute16ForEachDimensionILm5EE6unrollIRZN2CK5armcl23copy_raw_data_to_tensorIfEEvPNS_8CLTensorEPT_RKNS3_5ShapeEEUlRKNS_11CoordinatesEE_IRNS_8IteratorEEEEvRKNS_6WindowERSD_OS8_DpOT0_>:
  40a97e:	55                   	push   %rbp
  40a97f:	48 89 e5             	mov    %rsp,%rbp
  40a982:	48 83 ec 30          	sub    $0x30,%rsp
  40a986:	48 89 7d e8          	mov    %rdi,-0x18(%rbp)
  40a98a:	48 89 75 e0          	mov    %rsi,-0x20(%rbp)
  40a98e:	48 89 55 d8          	mov    %rdx,-0x28(%rbp)
  40a992:	48 89 4d d0          	mov    %rcx,-0x30(%rbp)
  40a996:	48 8b 45 e8          	mov    -0x18(%rbp),%rax
  40a99a:	be 04 00 00 00       	mov    $0x4,%esi
  40a99f:	48 89 c7             	mov    %rax,%rdi
  40a9a2:	e8 4d bd ff ff       	callq  4066f4 <_ZNK11arm_compute6WindowixEm>
  40a9a7:	48 89 45 f8          	mov    %rax,-0x8(%rbp)
  40a9ab:	48 8b 45 f8          	mov    -0x8(%rbp),%rax
  40a9af:	48 89 c7             	mov    %rax,%rdi
  40a9b2:	e8 99 bc ff ff       	callq  406650 <_ZNK11arm_compute6Window9Dimension5startEv>
  40a9b7:	89 45 f4             	mov    %eax,-0xc(%rbp)
  40a9ba:	48 8b 45 f8          	mov    -0x8(%rbp),%rax
  40a9be:	48 89 c7             	mov    %rax,%rdi
  40a9c1:	e8 9a bc ff ff       	callq  406660 <_ZNK11arm_compute6Window9Dimension3endEv>
  40a9c6:	3b 45 f4             	cmp    -0xc(%rbp),%eax
  40a9c9:	0f 9f c0             	setg   %al
  40a9cc:	84 c0                	test   %al,%al
  40a9ce:	74 49                	je     40aa19 <_ZN11arm_compute16ForEachDimensionILm5EE6unrollIRZN2CK5armcl23copy_raw_data_to_tensorIfEEvPNS_8CLTensorEPT_RKNS3_5ShapeEEUlRKNS_11CoordinatesEE_IRNS_8IteratorEEEEvRKNS_6WindowERSD_OS8_DpOT0_+0x9b>
  40a9d0:	48 8b 45 e0          	mov    -0x20(%rbp),%rax
  40a9d4:	8b 55 f4             	mov    -0xc(%rbp),%edx
  40a9d7:	be 04 00 00 00       	mov    $0x4,%esi
  40a9dc:	48 89 c7             	mov    %rax,%rdi
  40a9df:	e8 da d7 ff ff       	callq  4081be <_ZN11arm_compute10DimensionsIiE3setEmi>
  40a9e4:	48 8b 4d d0          	mov    -0x30(%rbp),%rcx
  40a9e8:	48 8b 55 d8          	mov    -0x28(%rbp),%rdx
  40a9ec:	48 8b 75 e0          	mov    -0x20(%rbp),%rsi
  40a9f0:	48 8b 45 e8          	mov    -0x18(%rbp),%rax
  40a9f4:	48 89 c7             	mov    %rax,%rdi
  40a9f7:	e8 22 05 00 00       	callq  40af1e <_ZN11arm_compute16ForEachDimensionILm4EE6unrollIRZN2CK5armcl23copy_raw_data_to_tensorIfEEvPNS_8CLTensorEPT_RKNS3_5ShapeEEUlRKNS_11CoordinatesEE_IRNS_8IteratorEEEEvRKNS_6WindowERSD_OS8_DpOT0_>
  40a9fc:	48 8b 45 f8          	mov    -0x8(%rbp),%rax
  40aa00:	48 89 c7             	mov    %rax,%rdi
  40aa03:	e8 6a bc ff ff       	callq  406672 <_ZNK11arm_compute6Window9Dimension4stepEv>
  40aa08:	01 45 f4             	add    %eax,-0xc(%rbp)
  40aa0b:	48 8b 45 d0          	mov    -0x30(%rbp),%rax
  40aa0f:	48 89 c7             	mov    %rax,%rdi
  40aa12:	e8 e7 04 00 00       	callq  40aefe <_ZN11arm_compute18IncrementIteratorsILm4EE6unrollIRNS_8IteratorEEEvOT_>
  40aa17:	eb a1                	jmp    40a9ba <_ZN11arm_compute16ForEachDimensionILm5EE6unrollIRZN2CK5armcl23copy_raw_data_to_tensorIfEEvPNS_8CLTensorEPT_RKNS3_5ShapeEEUlRKNS_11CoordinatesEE_IRNS_8IteratorEEEEvRKNS_6WindowERSD_OS8_DpOT0_+0x3c>
  40aa19:	90                   	nop
  40aa1a:	c9                   	leaveq 
  40aa1b:	c3                   	retq   

000000000040aa1c <_ZN11arm_compute16ForEachDimensionILm5EE6unrollIRZN2CK5armcl25copy_raw_data_from_tensorIfEEvPNS_8CLTensorEPT_RKNS3_5ShapeEEUlRKNS_11CoordinatesEE_IRNS_8IteratorEEEEvRKNS_6WindowERSD_OS8_DpOT0_>:
  40aa1c:	55                   	push   %rbp
  40aa1d:	48 89 e5             	mov    %rsp,%rbp
  40aa20:	48 83 ec 30          	sub    $0x30,%rsp
  40aa24:	48 89 7d e8          	mov    %rdi,-0x18(%rbp)
  40aa28:	48 89 75 e0          	mov    %rsi,-0x20(%rbp)
  40aa2c:	48 89 55 d8          	mov    %rdx,-0x28(%rbp)
  40aa30:	48 89 4d d0          	mov    %rcx,-0x30(%rbp)
  40aa34:	48 8b 45 e8          	mov    -0x18(%rbp),%rax
  40aa38:	be 04 00 00 00       	mov    $0x4,%esi
  40aa3d:	48 89 c7             	mov    %rax,%rdi
  40aa40:	e8 af bc ff ff       	callq  4066f4 <_ZNK11arm_compute6WindowixEm>
  40aa45:	48 89 45 f8          	mov    %rax,-0x8(%rbp)
  40aa49:	48 8b 45 f8          	mov    -0x8(%rbp),%rax
  40aa4d:	48 89 c7             	mov    %rax,%rdi
  40aa50:	e8 fb bb ff ff       	callq  406650 <_ZNK11arm_compute6Window9Dimension5startEv>
  40aa55:	89 45 f4             	mov    %eax,-0xc(%rbp)
  40aa58:	48 8b 45 f8          	mov    -0x8(%rbp),%rax
  40aa5c:	48 89 c7             	mov    %rax,%rdi
  40aa5f:	e8 fc bb ff ff       	callq  406660 <_ZNK11arm_compute6Window9Dimension3endEv>
  40aa64:	3b 45 f4             	cmp    -0xc(%rbp),%eax
  40aa67:	0f 9f c0             	setg   %al
  40aa6a:	84 c0                	test   %al,%al
  40aa6c:	74 49                	je     40aab7 <_ZN11arm_compute16ForEachDimensionILm5EE6unrollIRZN2CK5armcl25copy_raw_data_from_tensorIfEEvPNS_8CLTensorEPT_RKNS3_5ShapeEEUlRKNS_11CoordinatesEE_IRNS_8IteratorEEEEvRKNS_6WindowERSD_OS8_DpOT0_+0x9b>
  40aa6e:	48 8b 45 e0          	mov    -0x20(%rbp),%rax
  40aa72:	8b 55 f4             	mov    -0xc(%rbp),%edx
  40aa75:	be 04 00 00 00       	mov    $0x4,%esi
  40aa7a:	48 89 c7             	mov    %rax,%rdi
  40aa7d:	e8 3c d7 ff ff       	callq  4081be <_ZN11arm_compute10DimensionsIiE3setEmi>
  40aa82:	48 8b 4d d0          	mov    -0x30(%rbp),%rcx
  40aa86:	48 8b 55 d8          	mov    -0x28(%rbp),%rdx
  40aa8a:	48 8b 75 e0          	mov    -0x20(%rbp),%rsi
  40aa8e:	48 8b 45 e8          	mov    -0x18(%rbp),%rax
  40aa92:	48 89 c7             	mov    %rax,%rdi
  40aa95:	e8 22 05 00 00       	callq  40afbc <_ZN11arm_compute16ForEachDimensionILm4EE6unrollIRZN2CK5armcl25copy_raw_data_from_tensorIfEEvPNS_8CLTensorEPT_RKNS3_5ShapeEEUlRKNS_11CoordinatesEE_IRNS_8IteratorEEEEvRKNS_6WindowERSD_OS8_DpOT0_>
  40aa9a:	48 8b 45 f8          	mov    -0x8(%rbp),%rax
  40aa9e:	48 89 c7             	mov    %rax,%rdi
  40aaa1:	e8 cc bb ff ff       	callq  406672 <_ZNK11arm_compute6Window9Dimension4stepEv>
  40aaa6:	01 45 f4             	add    %eax,-0xc(%rbp)
  40aaa9:	48 8b 45 d0          	mov    -0x30(%rbp),%rax
  40aaad:	48 89 c7             	mov    %rax,%rdi
  40aab0:	e8 49 04 00 00       	callq  40aefe <_ZN11arm_compute18IncrementIteratorsILm4EE6unrollIRNS_8IteratorEEEvOT_>
  40aab5:	eb a1                	jmp    40aa58 <_ZN11arm_compute16ForEachDimensionILm5EE6unrollIRZN2CK5armcl25copy_raw_data_from_tensorIfEEvPNS_8CLTensorEPT_RKNS3_5ShapeEEUlRKNS_11CoordinatesEE_IRNS_8IteratorEEEEvRKNS_6WindowERSD_OS8_DpOT0_+0x3c>
  40aab7:	90                   	nop
  40aab8:	c9                   	leaveq 
  40aab9:	c3                   	retq   

000000000040aaba <_ZN9__gnu_cxx13new_allocatorIP15_cl_platform_idEC1ERKS3_>:
  40aaba:	55                   	push   %rbp
  40aabb:	48 89 e5             	mov    %rsp,%rbp
  40aabe:	48 89 7d f8          	mov    %rdi,-0x8(%rbp)
  40aac2:	48 89 75 f0          	mov    %rsi,-0x10(%rbp)
  40aac6:	90                   	nop
  40aac7:	5d                   	pop    %rbp
  40aac8:	c3                   	retq   

000000000040aac9 <_ZNSt16allocator_traitsISaIP15_cl_platform_idEE8allocateERS2_m>:
  40aac9:	55                   	push   %rbp
  40aaca:	48 89 e5             	mov    %rsp,%rbp
  40aacd:	48 83 ec 10          	sub    $0x10,%rsp
  40aad1:	48 89 7d f8          	mov    %rdi,-0x8(%rbp)
  40aad5:	48 89 75 f0          	mov    %rsi,-0x10(%rbp)
  40aad9:	48 8b 4d f0          	mov    -0x10(%rbp),%rcx
  40aadd:	48 8b 45 f8          	mov    -0x8(%rbp),%rax
  40aae1:	ba 00 00 00 00       	mov    $0x0,%edx
  40aae6:	48 89 ce             	mov    %rcx,%rsi
  40aae9:	48 89 c7             	mov    %rax,%rdi
  40aaec:	e8 69 05 00 00       	callq  40b05a <_ZN9__gnu_cxx13new_allocatorIP15_cl_platform_idE8allocateEmPKv>
  40aaf1:	c9                   	leaveq 
  40aaf2:	c3                   	retq   
  40aaf3:	90                   	nop

000000000040aaf4 <_ZN9__gnu_cxx13new_allocatorIP15_cl_platform_idE10deallocateEPS2_m>:
  40aaf4:	55                   	push   %rbp
  40aaf5:	48 89 e5             	mov    %rsp,%rbp
  40aaf8:	48 83 ec 20          	sub    $0x20,%rsp
  40aafc:	48 89 7d f8          	mov    %rdi,-0x8(%rbp)
  40ab00:	48 89 75 f0          	mov    %rsi,-0x10(%rbp)
  40ab04:	48 89 55 e8          	mov    %rdx,-0x18(%rbp)
  40ab08:	48 8b 45 f0          	mov    -0x10(%rbp),%rax
  40ab0c:	48 89 c7             	mov    %rax,%rdi
  40ab0f:	e8 dc 92 ff ff       	callq  403df0 <_ZdlPv@plt>
  40ab14:	90                   	nop
  40ab15:	c9                   	leaveq 
  40ab16:	c3                   	retq   

000000000040ab17 <_ZNSt27__uninitialized_default_n_1ILb1EE18__uninit_default_nIPP15_cl_platform_idmEET_S5_T0_>:
  40ab17:	55                   	push   %rbp
  40ab18:	48 89 e5             	mov    %rsp,%rbp
  40ab1b:	48 83 ec 20          	sub    $0x20,%rsp
  40ab1f:	48 89 7d e8          	mov    %rdi,-0x18(%rbp)
  40ab23:	48 89 75 e0          	mov    %rsi,-0x20(%rbp)
  40ab27:	64 48 8b 04 25 28 00 	mov    %fs:0x28,%rax
  40ab2e:	00 00 
  40ab30:	48 89 45 f8          	mov    %rax,-0x8(%rbp)
  40ab34:	31 c0                	xor    %eax,%eax
  40ab36:	48 c7 45 f0 00 00 00 	movq   $0x0,-0x10(%rbp)
  40ab3d:	00 
  40ab3e:	48 8d 55 f0          	lea    -0x10(%rbp),%rdx
  40ab42:	48 8b 4d e0          	mov    -0x20(%rbp),%rcx
  40ab46:	48 8b 45 e8          	mov    -0x18(%rbp),%rax
  40ab4a:	48 89 ce             	mov    %rcx,%rsi
  40ab4d:	48 89 c7             	mov    %rax,%rdi
  40ab50:	e8 47 05 00 00       	callq  40b09c <_ZSt6fill_nIPP15_cl_platform_idmS1_ET_S3_T0_RKT1_>
  40ab55:	48 8b 4d f8          	mov    -0x8(%rbp),%rcx
  40ab59:	64 48 33 0c 25 28 00 	xor    %fs:0x28,%rcx
  40ab60:	00 00 
  40ab62:	74 05                	je     40ab69 <_ZNSt27__uninitialized_default_n_1ILb1EE18__uninit_default_nIPP15_cl_platform_idmEET_S5_T0_+0x52>
  40ab64:	e8 e7 92 ff ff       	callq  403e50 <__stack_chk_fail@plt>
  40ab69:	c9                   	leaveq 
  40ab6a:	c3                   	retq   
  40ab6b:	90                   	nop

000000000040ab6c <_ZN9__gnu_cxx13new_allocatorIP13_cl_device_idEC1ERKS3_>:
  40ab6c:	55                   	push   %rbp
  40ab6d:	48 89 e5             	mov    %rsp,%rbp
  40ab70:	48 89 7d f8          	mov    %rdi,-0x8(%rbp)
  40ab74:	48 89 75 f0          	mov    %rsi,-0x10(%rbp)
  40ab78:	90                   	nop
  40ab79:	5d                   	pop    %rbp
  40ab7a:	c3                   	retq   

000000000040ab7b <_ZNSt16allocator_traitsISaIP13_cl_device_idEE8allocateERS2_m>:
  40ab7b:	55                   	push   %rbp
  40ab7c:	48 89 e5             	mov    %rsp,%rbp
  40ab7f:	48 83 ec 10          	sub    $0x10,%rsp
  40ab83:	48 89 7d f8          	mov    %rdi,-0x8(%rbp)
  40ab87:	48 89 75 f0          	mov    %rsi,-0x10(%rbp)
  40ab8b:	48 8b 4d f0          	mov    -0x10(%rbp),%rcx
  40ab8f:	48 8b 45 f8          	mov    -0x8(%rbp),%rax
  40ab93:	ba 00 00 00 00       	mov    $0x0,%edx
  40ab98:	48 89 ce             	mov    %rcx,%rsi
  40ab9b:	48 89 c7             	mov    %rax,%rdi
  40ab9e:	e8 31 05 00 00       	callq  40b0d4 <_ZN9__gnu_cxx13new_allocatorIP13_cl_device_idE8allocateEmPKv>
  40aba3:	c9                   	leaveq 
  40aba4:	c3                   	retq   
  40aba5:	90                   	nop

000000000040aba6 <_ZN9__gnu_cxx13new_allocatorIP13_cl_device_idE10deallocateEPS2_m>:
  40aba6:	55                   	push   %rbp
  40aba7:	48 89 e5             	mov    %rsp,%rbp
  40abaa:	48 83 ec 20          	sub    $0x20,%rsp
  40abae:	48 89 7d f8          	mov    %rdi,-0x8(%rbp)
  40abb2:	48 89 75 f0          	mov    %rsi,-0x10(%rbp)
  40abb6:	48 89 55 e8          	mov    %rdx,-0x18(%rbp)
  40abba:	48 8b 45 f0          	mov    -0x10(%rbp),%rax
  40abbe:	48 89 c7             	mov    %rax,%rdi
  40abc1:	e8 2a 92 ff ff       	callq  403df0 <_ZdlPv@plt>
  40abc6:	90                   	nop
  40abc7:	c9                   	leaveq 
  40abc8:	c3                   	retq   

000000000040abc9 <_ZNSt27__uninitialized_default_n_1ILb1EE18__uninit_default_nIPP13_cl_device_idmEET_S5_T0_>:
  40abc9:	55                   	push   %rbp
  40abca:	48 89 e5             	mov    %rsp,%rbp
  40abcd:	48 83 ec 20          	sub    $0x20,%rsp
  40abd1:	48 89 7d e8          	mov    %rdi,-0x18(%rbp)
  40abd5:	48 89 75 e0          	mov    %rsi,-0x20(%rbp)
  40abd9:	64 48 8b 04 25 28 00 	mov    %fs:0x28,%rax
  40abe0:	00 00 
  40abe2:	48 89 45 f8          	mov    %rax,-0x8(%rbp)
  40abe6:	31 c0                	xor    %eax,%eax
  40abe8:	48 c7 45 f0 00 00 00 	movq   $0x0,-0x10(%rbp)
  40abef:	00 
  40abf0:	48 8d 55 f0          	lea    -0x10(%rbp),%rdx
  40abf4:	48 8b 4d e0          	mov    -0x20(%rbp),%rcx
  40abf8:	48 8b 45 e8          	mov    -0x18(%rbp),%rax
  40abfc:	48 89 ce             	mov    %rcx,%rsi
  40abff:	48 89 c7             	mov    %rax,%rdi
  40ac02:	e8 0f 05 00 00       	callq  40b116 <_ZSt6fill_nIPP13_cl_device_idmS1_ET_S3_T0_RKT1_>
  40ac07:	48 8b 4d f8          	mov    -0x8(%rbp),%rcx
  40ac0b:	64 48 33 0c 25 28 00 	xor    %fs:0x28,%rcx
  40ac12:	00 00 
  40ac14:	74 05                	je     40ac1b <_ZNSt27__uninitialized_default_n_1ILb1EE18__uninit_default_nIPP13_cl_device_idmEET_S5_T0_+0x52>
  40ac16:	e8 35 92 ff ff       	callq  403e50 <__stack_chk_fail@plt>
  40ac1b:	c9                   	leaveq 
  40ac1c:	c3                   	retq   

000000000040ac1d <_ZNSt27__uninitialized_default_n_1ILb0EE18__uninit_default_nIPN2cl6DeviceEmEET_S5_T0_>:
  40ac1d:	55                   	push   %rbp
  40ac1e:	48 89 e5             	mov    %rsp,%rbp
  40ac21:	48 83 ec 20          	sub    $0x20,%rsp
  40ac25:	48 89 7d e8          	mov    %rdi,-0x18(%rbp)
  40ac29:	48 89 75 e0          	mov    %rsi,-0x20(%rbp)
  40ac2d:	48 8b 45 e8          	mov    -0x18(%rbp),%rax
  40ac31:	48 89 45 f8          	mov    %rax,-0x8(%rbp)
  40ac35:	48 83 7d e0 00       	cmpq   $0x0,-0x20(%rbp)
  40ac3a:	74 20                	je     40ac5c <_ZNSt27__uninitialized_default_n_1ILb0EE18__uninit_default_nIPN2cl6DeviceEmEET_S5_T0_+0x3f>
  40ac3c:	48 8b 45 f8          	mov    -0x8(%rbp),%rax
  40ac40:	48 89 c7             	mov    %rax,%rdi
  40ac43:	e8 8d 02 00 00       	callq  40aed5 <_ZSt11__addressofIN2cl6DeviceEEPT_RS2_>
  40ac48:	48 89 c7             	mov    %rax,%rdi
  40ac4b:	e8 fe 04 00 00       	callq  40b14e <_ZSt10_ConstructIN2cl6DeviceEIEEvPT_DpOT0_>
  40ac50:	48 83 6d e0 01       	subq   $0x1,-0x20(%rbp)
  40ac55:	48 83 45 f8 10       	addq   $0x10,-0x8(%rbp)
  40ac5a:	eb d9                	jmp    40ac35 <_ZNSt27__uninitialized_default_n_1ILb0EE18__uninit_default_nIPN2cl6DeviceEmEET_S5_T0_+0x18>
  40ac5c:	48 8b 45 f8          	mov    -0x8(%rbp),%rax
  40ac60:	c9                   	leaveq 
  40ac61:	c3                   	retq   

000000000040ac62 <_ZNSt16allocator_traitsISaIN2cl6DeviceEEE8max_sizeERKS2_>:
  40ac62:	55                   	push   %rbp
  40ac63:	48 89 e5             	mov    %rsp,%rbp
  40ac66:	48 83 ec 10          	sub    $0x10,%rsp
  40ac6a:	48 89 7d f8          	mov    %rdi,-0x8(%rbp)
  40ac6e:	48 8b 45 f8          	mov    -0x8(%rbp),%rax
  40ac72:	48 89 c7             	mov    %rax,%rdi
  40ac75:	e8 02 05 00 00       	callq  40b17c <_ZNK9__gnu_cxx13new_allocatorIN2cl6DeviceEE8max_sizeEv>
  40ac7a:	c9                   	leaveq 
  40ac7b:	c3                   	retq   

000000000040ac7c <_ZNKSt12_Vector_baseIN2cl6DeviceESaIS1_EE19_M_get_Tp_allocatorEv>:
  40ac7c:	55                   	push   %rbp
  40ac7d:	48 89 e5             	mov    %rsp,%rbp
  40ac80:	48 89 7d f8          	mov    %rdi,-0x8(%rbp)
  40ac84:	48 8b 45 f8          	mov    -0x8(%rbp),%rax
  40ac88:	5d                   	pop    %rbp
  40ac89:	c3                   	retq   

000000000040ac8a <_ZN9__gnu_cxx13new_allocatorIN2cl6DeviceEE8allocateEmPKv>:
  40ac8a:	55                   	push   %rbp
  40ac8b:	48 89 e5             	mov    %rsp,%rbp
  40ac8e:	48 83 ec 20          	sub    $0x20,%rsp
  40ac92:	48 89 7d f8          	mov    %rdi,-0x8(%rbp)
  40ac96:	48 89 75 f0          	mov    %rsi,-0x10(%rbp)
  40ac9a:	48 89 55 e8          	mov    %rdx,-0x18(%rbp)
  40ac9e:	48 8b 45 f8          	mov    -0x8(%rbp),%rax
  40aca2:	48 89 c7             	mov    %rax,%rdi
  40aca5:	e8 d2 04 00 00       	callq  40b17c <_ZNK9__gnu_cxx13new_allocatorIN2cl6DeviceEE8max_sizeEv>
  40acaa:	48 3b 45 f0          	cmp    -0x10(%rbp),%rax
  40acae:	0f 92 c0             	setb   %al
  40acb1:	84 c0                	test   %al,%al
  40acb3:	74 05                	je     40acba <_ZN9__gnu_cxx13new_allocatorIN2cl6DeviceEE8allocateEmPKv+0x30>
  40acb5:	e8 26 90 ff ff       	callq  403ce0 <_ZSt17__throw_bad_allocv@plt>
  40acba:	48 8b 45 f0          	mov    -0x10(%rbp),%rax
  40acbe:	48 c1 e0 04          	shl    $0x4,%rax
  40acc2:	48 89 c7             	mov    %rax,%rdi
  40acc5:	e8 46 91 ff ff       	callq  403e10 <_Znwm@plt>
  40acca:	c9                   	leaveq 
  40accb:	c3                   	retq   

000000000040accc <_ZNSt13move_iteratorIPN2cl6DeviceEEC1ES2_>:
  40accc:	55                   	push   %rbp
  40accd:	48 89 e5             	mov    %rsp,%rbp
  40acd0:	48 89 7d f8          	mov    %rdi,-0x8(%rbp)
  40acd4:	48 89 75 f0          	mov    %rsi,-0x10(%rbp)
  40acd8:	48 8b 45 f8          	mov    -0x8(%rbp),%rax
  40acdc:	48 8b 55 f0          	mov    -0x10(%rbp),%rdx
  40ace0:	48 89 10             	mov    %rdx,(%rax)
  40ace3:	90                   	nop
  40ace4:	5d                   	pop    %rbp
  40ace5:	c3                   	retq   

000000000040ace6 <_ZSt18uninitialized_copyISt13move_iteratorIPN2cl6DeviceEES3_ET0_T_S6_S5_>:
  40ace6:	55                   	push   %rbp
  40ace7:	48 89 e5             	mov    %rsp,%rbp
  40acea:	48 83 ec 30          	sub    $0x30,%rsp
  40acee:	48 89 7d e0          	mov    %rdi,-0x20(%rbp)
  40acf2:	48 89 75 d0          	mov    %rsi,-0x30(%rbp)
  40acf6:	48 89 55 d8          	mov    %rdx,-0x28(%rbp)
  40acfa:	c6 45 ff 01          	movb   $0x1,-0x1(%rbp)
  40acfe:	48 8b 55 d8          	mov    -0x28(%rbp),%rdx
  40ad02:	48 8b 4d d0          	mov    -0x30(%rbp),%rcx
  40ad06:	48 8b 45 e0          	mov    -0x20(%rbp),%rax
  40ad0a:	48 89 ce             	mov    %rcx,%rsi
  40ad0d:	48 89 c7             	mov    %rax,%rdi
  40ad10:	e8 7b 04 00 00       	callq  40b190 <_ZNSt20__uninitialized_copyILb0EE13__uninit_copyISt13move_iteratorIPN2cl6DeviceEES5_EET0_T_S8_S7_>
  40ad15:	c9                   	leaveq 
  40ad16:	c3                   	retq   
  40ad17:	90                   	nop

000000000040ad18 <_ZN9__gnu_cxx13new_allocatorIN2cl6DeviceEE10deallocateEPS2_m>:
  40ad18:	55                   	push   %rbp
  40ad19:	48 89 e5             	mov    %rsp,%rbp
  40ad1c:	48 83 ec 20          	sub    $0x20,%rsp
  40ad20:	48 89 7d f8          	mov    %rdi,-0x8(%rbp)
  40ad24:	48 89 75 f0          	mov    %rsi,-0x10(%rbp)
  40ad28:	48 89 55 e8          	mov    %rdx,-0x18(%rbp)
  40ad2c:	48 8b 45 f0          	mov    -0x10(%rbp),%rax
  40ad30:	48 89 c7             	mov    %rax,%rdi
  40ad33:	e8 b8 90 ff ff       	callq  403df0 <_ZdlPv@plt>
  40ad38:	90                   	nop
  40ad39:	c9                   	leaveq 
  40ad3a:	c3                   	retq   

000000000040ad3b <_ZNSt27__uninitialized_default_n_1ILb0EE18__uninit_default_nIPN2cl8PlatformEmEET_S5_T0_>:
  40ad3b:	55                   	push   %rbp
  40ad3c:	48 89 e5             	mov    %rsp,%rbp
  40ad3f:	53                   	push   %rbx
  40ad40:	48 83 ec 28          	sub    $0x28,%rsp
  40ad44:	48 89 7d d8          	mov    %rdi,-0x28(%rbp)
  40ad48:	48 89 75 d0          	mov    %rsi,-0x30(%rbp)
  40ad4c:	48 8b 45 d8          	mov    -0x28(%rbp),%rax
  40ad50:	48 89 45 e8          	mov    %rax,-0x18(%rbp)
  40ad54:	48 83 7d d0 00       	cmpq   $0x0,-0x30(%rbp)
  40ad59:	74 20                	je     40ad7b <_ZNSt27__uninitialized_default_n_1ILb0EE18__uninit_default_nIPN2cl8PlatformEmEET_S5_T0_+0x40>
  40ad5b:	48 8b 45 e8          	mov    -0x18(%rbp),%rax
  40ad5f:	48 89 c7             	mov    %rax,%rdi
  40ad62:	e8 3a 01 00 00       	callq  40aea1 <_ZSt11__addressofIN2cl8PlatformEEPT_RS2_>
  40ad67:	48 89 c7             	mov    %rax,%rdi
  40ad6a:	e8 ce 04 00 00       	callq  40b23d <_ZSt10_ConstructIN2cl8PlatformEIEEvPT_DpOT0_>
  40ad6f:	48 83 6d d0 01       	subq   $0x1,-0x30(%rbp)
  40ad74:	48 83 45 e8 08       	addq   $0x8,-0x18(%rbp)
  40ad79:	eb d9                	jmp    40ad54 <_ZNSt27__uninitialized_default_n_1ILb0EE18__uninit_default_nIPN2cl8PlatformEmEET_S5_T0_+0x19>
  40ad7b:	48 8b 45 e8          	mov    -0x18(%rbp),%rax
  40ad7f:	eb 33                	jmp    40adb4 <_ZNSt27__uninitialized_default_n_1ILb0EE18__uninit_default_nIPN2cl8PlatformEmEET_S5_T0_+0x79>
  40ad81:	48 89 c7             	mov    %rax,%rdi
  40ad84:	e8 77 8f ff ff       	callq  403d00 <__cxa_begin_catch@plt>
  40ad89:	48 8b 55 e8          	mov    -0x18(%rbp),%rdx
  40ad8d:	48 8b 45 d8          	mov    -0x28(%rbp),%rax
  40ad91:	48 89 d6             	mov    %rdx,%rsi
  40ad94:	48 89 c7             	mov    %rax,%rdi
  40ad97:	e8 d9 f2 ff ff       	callq  40a075 <_ZSt8_DestroyIPN2cl8PlatformEEvT_S3_>
  40ad9c:	e8 af 91 ff ff       	callq  403f50 <__cxa_rethrow@plt>
  40ada1:	48 89 c3             	mov    %rax,%rbx
  40ada4:	e8 17 92 ff ff       	callq  403fc0 <__cxa_end_catch@plt>
  40ada9:	48 89 d8             	mov    %rbx,%rax
  40adac:	48 89 c7             	mov    %rax,%rdi
  40adaf:	e8 bc 92 ff ff       	callq  404070 <_Unwind_Resume@plt>
  40adb4:	48 83 c4 28          	add    $0x28,%rsp
  40adb8:	5b                   	pop    %rbx
  40adb9:	5d                   	pop    %rbp
  40adba:	c3                   	retq   

000000000040adbb <_ZNSt16allocator_traitsISaIN2cl8PlatformEEE8max_sizeERKS2_>:
  40adbb:	55                   	push   %rbp
  40adbc:	48 89 e5             	mov    %rsp,%rbp
  40adbf:	48 83 ec 10          	sub    $0x10,%rsp
  40adc3:	48 89 7d f8          	mov    %rdi,-0x8(%rbp)
  40adc7:	48 8b 45 f8          	mov    -0x8(%rbp),%rax
  40adcb:	48 89 c7             	mov    %rax,%rdi
  40adce:	e8 97 04 00 00       	callq  40b26a <_ZNK9__gnu_cxx13new_allocatorIN2cl8PlatformEE8max_sizeEv>
  40add3:	c9                   	leaveq 
  40add4:	c3                   	retq   
  40add5:	90                   	nop

000000000040add6 <_ZNKSt12_Vector_baseIN2cl8PlatformESaIS1_EE19_M_get_Tp_allocatorEv>:
  40add6:	55                   	push   %rbp
  40add7:	48 89 e5             	mov    %rsp,%rbp
  40adda:	48 89 7d f8          	mov    %rdi,-0x8(%rbp)
  40adde:	48 8b 45 f8          	mov    -0x8(%rbp),%rax
  40ade2:	5d                   	pop    %rbp
  40ade3:	c3                   	retq   

000000000040ade4 <_ZN9__gnu_cxx13new_allocatorIN2cl8PlatformEE8allocateEmPKv>:
  40ade4:	55                   	push   %rbp
  40ade5:	48 89 e5             	mov    %rsp,%rbp
  40ade8:	48 83 ec 20          	sub    $0x20,%rsp
  40adec:	48 89 7d f8          	mov    %rdi,-0x8(%rbp)
  40adf0:	48 89 75 f0          	mov    %rsi,-0x10(%rbp)
  40adf4:	48 89 55 e8          	mov    %rdx,-0x18(%rbp)
  40adf8:	48 8b 45 f8          	mov    -0x8(%rbp),%rax
  40adfc:	48 89 c7             	mov    %rax,%rdi
  40adff:	e8 66 04 00 00       	callq  40b26a <_ZNK9__gnu_cxx13new_allocatorIN2cl8PlatformEE8max_sizeEv>
  40ae04:	48 3b 45 f0          	cmp    -0x10(%rbp),%rax
  40ae08:	0f 92 c0             	setb   %al
  40ae0b:	84 c0                	test   %al,%al
  40ae0d:	74 05                	je     40ae14 <_ZN9__gnu_cxx13new_allocatorIN2cl8PlatformEE8allocateEmPKv+0x30>
  40ae0f:	e8 cc 8e ff ff       	callq  403ce0 <_ZSt17__throw_bad_allocv@plt>
  40ae14:	48 8b 45 f0          	mov    -0x10(%rbp),%rax
  40ae18:	48 c1 e0 03          	shl    $0x3,%rax
  40ae1c:	48 89 c7             	mov    %rax,%rdi
  40ae1f:	e8 ec 8f ff ff       	callq  403e10 <_Znwm@plt>
  40ae24:	c9                   	leaveq 
  40ae25:	c3                   	retq   

000000000040ae26 <_ZNSt13move_iteratorIPN2cl8PlatformEEC1ES2_>:
  40ae26:	55                   	push   %rbp
  40ae27:	48 89 e5             	mov    %rsp,%rbp
  40ae2a:	48 89 7d f8          	mov    %rdi,-0x8(%rbp)
  40ae2e:	48 89 75 f0          	mov    %rsi,-0x10(%rbp)
  40ae32:	48 8b 45 f8          	mov    -0x8(%rbp),%rax
  40ae36:	48 8b 55 f0          	mov    -0x10(%rbp),%rdx
  40ae3a:	48 89 10             	mov    %rdx,(%rax)
  40ae3d:	90                   	nop
  40ae3e:	5d                   	pop    %rbp
  40ae3f:	c3                   	retq   

000000000040ae40 <_ZSt18uninitialized_copyISt13move_iteratorIPN2cl8PlatformEES3_ET0_T_S6_S5_>:
  40ae40:	55                   	push   %rbp
  40ae41:	48 89 e5             	mov    %rsp,%rbp
  40ae44:	48 83 ec 30          	sub    $0x30,%rsp
  40ae48:	48 89 7d e0          	mov    %rdi,-0x20(%rbp)
  40ae4c:	48 89 75 d0          	mov    %rsi,-0x30(%rbp)
  40ae50:	48 89 55 d8          	mov    %rdx,-0x28(%rbp)
  40ae54:	c6 45 ff 01          	movb   $0x1,-0x1(%rbp)
  40ae58:	48 8b 55 d8          	mov    -0x28(%rbp),%rdx
  40ae5c:	48 8b 4d d0          	mov    -0x30(%rbp),%rcx
  40ae60:	48 8b 45 e0          	mov    -0x20(%rbp),%rax
  40ae64:	48 89 ce             	mov    %rcx,%rsi
  40ae67:	48 89 c7             	mov    %rax,%rdi
  40ae6a:	e8 0f 04 00 00       	callq  40b27e <_ZNSt20__uninitialized_copyILb0EE13__uninit_copyISt13move_iteratorIPN2cl8PlatformEES5_EET0_T_S8_S7_>
  40ae6f:	c9                   	leaveq 
  40ae70:	c3                   	retq   
  40ae71:	90                   	nop

000000000040ae72 <_ZN9__gnu_cxx13new_allocatorIN2cl8PlatformEE10deallocateEPS2_m>:
  40ae72:	55                   	push   %rbp
  40ae73:	48 89 e5             	mov    %rsp,%rbp
  40ae76:	48 83 ec 20          	sub    $0x20,%rsp
  40ae7a:	48 89 7d f8          	mov    %rdi,-0x8(%rbp)
  40ae7e:	48 89 75 f0          	mov    %rsi,-0x10(%rbp)
  40ae82:	48 89 55 e8          	mov    %rdx,-0x18(%rbp)
  40ae86:	48 8b 45 f0          	mov    -0x10(%rbp),%rax
  40ae8a:	48 89 c7             	mov    %rax,%rdi
  40ae8d:	e8 5e 8f ff ff       	callq  403df0 <_ZdlPv@plt>
  40ae92:	90                   	nop
  40ae93:	c9                   	leaveq 
  40ae94:	c3                   	retq   
  40ae95:	90                   	nop

000000000040ae96 <_ZN9__gnu_cxx13new_allocatorIN2cl8PlatformEEC1Ev>:
  40ae96:	55                   	push   %rbp
  40ae97:	48 89 e5             	mov    %rsp,%rbp
  40ae9a:	48 89 7d f8          	mov    %rdi,-0x8(%rbp)
  40ae9e:	90                   	nop
  40ae9f:	5d                   	pop    %rbp
  40aea0:	c3                   	retq   

000000000040aea1 <_ZSt11__addressofIN2cl8PlatformEEPT_RS2_>:
  40aea1:	55                   	push   %rbp
  40aea2:	48 89 e5             	mov    %rsp,%rbp
  40aea5:	48 89 7d f8          	mov    %rdi,-0x8(%rbp)
  40aea9:	48 8b 45 f8          	mov    -0x8(%rbp),%rax
  40aead:	5d                   	pop    %rbp
  40aeae:	c3                   	retq   

000000000040aeaf <_ZSt8_DestroyIN2cl8PlatformEEvPT_>:
  40aeaf:	55                   	push   %rbp
  40aeb0:	48 89 e5             	mov    %rsp,%rbp
  40aeb3:	48 83 ec 10          	sub    $0x10,%rsp
  40aeb7:	48 89 7d f8          	mov    %rdi,-0x8(%rbp)
  40aebb:	48 8b 45 f8          	mov    -0x8(%rbp),%rax
  40aebf:	48 89 c7             	mov    %rax,%rdi
  40aec2:	e8 41 a3 ff ff       	callq  405208 <_ZN2cl8PlatformD1Ev>
  40aec7:	90                   	nop
  40aec8:	c9                   	leaveq 
  40aec9:	c3                   	retq   

000000000040aeca <_ZN9__gnu_cxx13new_allocatorIN2cl6DeviceEEC1Ev>:
  40aeca:	55                   	push   %rbp
  40aecb:	48 89 e5             	mov    %rsp,%rbp
  40aece:	48 89 7d f8          	mov    %rdi,-0x8(%rbp)
  40aed2:	90                   	nop
  40aed3:	5d                   	pop    %rbp
  40aed4:	c3                   	retq   

000000000040aed5 <_ZSt11__addressofIN2cl6DeviceEEPT_RS2_>:
  40aed5:	55                   	push   %rbp
  40aed6:	48 89 e5             	mov    %rsp,%rbp
  40aed9:	48 89 7d f8          	mov    %rdi,-0x8(%rbp)
  40aedd:	48 8b 45 f8          	mov    -0x8(%rbp),%rax
  40aee1:	5d                   	pop    %rbp
  40aee2:	c3                   	retq   

000000000040aee3 <_ZSt8_DestroyIN2cl6DeviceEEvPT_>:
  40aee3:	55                   	push   %rbp
  40aee4:	48 89 e5             	mov    %rsp,%rbp
  40aee7:	48 83 ec 10          	sub    $0x10,%rsp
  40aeeb:	48 89 7d f8          	mov    %rdi,-0x8(%rbp)
  40aeef:	48 8b 45 f8          	mov    -0x8(%rbp),%rax
  40aef3:	48 89 c7             	mov    %rax,%rdi
  40aef6:	e8 d3 a1 ff ff       	callq  4050ce <_ZN2cl6DeviceD1Ev>
  40aefb:	90                   	nop
  40aefc:	c9                   	leaveq 
  40aefd:	c3                   	retq   

000000000040aefe <_ZN11arm_compute18IncrementIteratorsILm4EE6unrollIRNS_8IteratorEEEvOT_>:
  40aefe:	55                   	push   %rbp
  40aeff:	48 89 e5             	mov    %rsp,%rbp
  40af02:	48 83 ec 10          	sub    $0x10,%rsp
  40af06:	48 89 7d f8          	mov    %rdi,-0x8(%rbp)
  40af0a:	48 8b 45 f8          	mov    -0x8(%rbp),%rax
  40af0e:	be 04 00 00 00       	mov    $0x4,%esi
  40af13:	48 89 c7             	mov    %rax,%rdi
  40af16:	e8 1f bc ff ff       	callq  406b3a <_ZN11arm_compute8Iterator9incrementEm>
  40af1b:	90                   	nop
  40af1c:	c9                   	leaveq 
  40af1d:	c3                   	retq   

000000000040af1e <_ZN11arm_compute16ForEachDimensionILm4EE6unrollIRZN2CK5armcl23copy_raw_data_to_tensorIfEEvPNS_8CLTensorEPT_RKNS3_5ShapeEEUlRKNS_11CoordinatesEE_IRNS_8IteratorEEEEvRKNS_6WindowERSD_OS8_DpOT0_>:
  40af1e:	55                   	push   %rbp
  40af1f:	48 89 e5             	mov    %rsp,%rbp
  40af22:	48 83 ec 30          	sub    $0x30,%rsp
  40af26:	48 89 7d e8          	mov    %rdi,-0x18(%rbp)
  40af2a:	48 89 75 e0          	mov    %rsi,-0x20(%rbp)
  40af2e:	48 89 55 d8          	mov    %rdx,-0x28(%rbp)
  40af32:	48 89 4d d0          	mov    %rcx,-0x30(%rbp)
  40af36:	48 8b 45 e8          	mov    -0x18(%rbp),%rax
  40af3a:	be 03 00 00 00       	mov    $0x3,%esi
  40af3f:	48 89 c7             	mov    %rax,%rdi
  40af42:	e8 ad b7 ff ff       	callq  4066f4 <_ZNK11arm_compute6WindowixEm>
  40af47:	48 89 45 f8          	mov    %rax,-0x8(%rbp)
  40af4b:	48 8b 45 f8          	mov    -0x8(%rbp),%rax
  40af4f:	48 89 c7             	mov    %rax,%rdi
  40af52:	e8 f9 b6 ff ff       	callq  406650 <_ZNK11arm_compute6Window9Dimension5startEv>
  40af57:	89 45 f4             	mov    %eax,-0xc(%rbp)
  40af5a:	48 8b 45 f8          	mov    -0x8(%rbp),%rax
  40af5e:	48 89 c7             	mov    %rax,%rdi
  40af61:	e8 fa b6 ff ff       	callq  406660 <_ZNK11arm_compute6Window9Dimension3endEv>
  40af66:	3b 45 f4             	cmp    -0xc(%rbp),%eax
  40af69:	0f 9f c0             	setg   %al
  40af6c:	84 c0                	test   %al,%al
  40af6e:	74 49                	je     40afb9 <_ZN11arm_compute16ForEachDimensionILm4EE6unrollIRZN2CK5armcl23copy_raw_data_to_tensorIfEEvPNS_8CLTensorEPT_RKNS3_5ShapeEEUlRKNS_11CoordinatesEE_IRNS_8IteratorEEEEvRKNS_6WindowERSD_OS8_DpOT0_+0x9b>
  40af70:	48 8b 45 e0          	mov    -0x20(%rbp),%rax
  40af74:	8b 55 f4             	mov    -0xc(%rbp),%edx
  40af77:	be 03 00 00 00       	mov    $0x3,%esi
  40af7c:	48 89 c7             	mov    %rax,%rdi
  40af7f:	e8 3a d2 ff ff       	callq  4081be <_ZN11arm_compute10DimensionsIiE3setEmi>
  40af84:	48 8b 4d d0          	mov    -0x30(%rbp),%rcx
  40af88:	48 8b 55 d8          	mov    -0x28(%rbp),%rdx
  40af8c:	48 8b 75 e0          	mov    -0x20(%rbp),%rsi
  40af90:	48 8b 45 e8          	mov    -0x18(%rbp),%rax
  40af94:	48 89 c7             	mov    %rax,%rdi
  40af97:	e8 af 03 00 00       	callq  40b34b <_ZN11arm_compute16ForEachDimensionILm3EE6unrollIRZN2CK5armcl23copy_raw_data_to_tensorIfEEvPNS_8CLTensorEPT_RKNS3_5ShapeEEUlRKNS_11CoordinatesEE_IRNS_8IteratorEEEEvRKNS_6WindowERSD_OS8_DpOT0_>
  40af9c:	48 8b 45 f8          	mov    -0x8(%rbp),%rax
  40afa0:	48 89 c7             	mov    %rax,%rdi
  40afa3:	e8 ca b6 ff ff       	callq  406672 <_ZNK11arm_compute6Window9Dimension4stepEv>
  40afa8:	01 45 f4             	add    %eax,-0xc(%rbp)
  40afab:	48 8b 45 d0          	mov    -0x30(%rbp),%rax
  40afaf:	48 89 c7             	mov    %rax,%rdi
  40afb2:	e8 74 03 00 00       	callq  40b32b <_ZN11arm_compute18IncrementIteratorsILm3EE6unrollIRNS_8IteratorEEEvOT_>
  40afb7:	eb a1                	jmp    40af5a <_ZN11arm_compute16ForEachDimensionILm4EE6unrollIRZN2CK5armcl23copy_raw_data_to_tensorIfEEvPNS_8CLTensorEPT_RKNS3_5ShapeEEUlRKNS_11CoordinatesEE_IRNS_8IteratorEEEEvRKNS_6WindowERSD_OS8_DpOT0_+0x3c>
  40afb9:	90                   	nop
  40afba:	c9                   	leaveq 
  40afbb:	c3                   	retq   

000000000040afbc <_ZN11arm_compute16ForEachDimensionILm4EE6unrollIRZN2CK5armcl25copy_raw_data_from_tensorIfEEvPNS_8CLTensorEPT_RKNS3_5ShapeEEUlRKNS_11CoordinatesEE_IRNS_8IteratorEEEEvRKNS_6WindowERSD_OS8_DpOT0_>:
  40afbc:	55                   	push   %rbp
  40afbd:	48 89 e5             	mov    %rsp,%rbp
  40afc0:	48 83 ec 30          	sub    $0x30,%rsp
  40afc4:	48 89 7d e8          	mov    %rdi,-0x18(%rbp)
  40afc8:	48 89 75 e0          	mov    %rsi,-0x20(%rbp)
  40afcc:	48 89 55 d8          	mov    %rdx,-0x28(%rbp)
  40afd0:	48 89 4d d0          	mov    %rcx,-0x30(%rbp)
  40afd4:	48 8b 45 e8          	mov    -0x18(%rbp),%rax
  40afd8:	be 03 00 00 00       	mov    $0x3,%esi
  40afdd:	48 89 c7             	mov    %rax,%rdi
  40afe0:	e8 0f b7 ff ff       	callq  4066f4 <_ZNK11arm_compute6WindowixEm>
  40afe5:	48 89 45 f8          	mov    %rax,-0x8(%rbp)
  40afe9:	48 8b 45 f8          	mov    -0x8(%rbp),%rax
  40afed:	48 89 c7             	mov    %rax,%rdi
  40aff0:	e8 5b b6 ff ff       	callq  406650 <_ZNK11arm_compute6Window9Dimension5startEv>
  40aff5:	89 45 f4             	mov    %eax,-0xc(%rbp)
  40aff8:	48 8b 45 f8          	mov    -0x8(%rbp),%rax
  40affc:	48 89 c7             	mov    %rax,%rdi
  40afff:	e8 5c b6 ff ff       	callq  406660 <_ZNK11arm_compute6Window9Dimension3endEv>
  40b004:	3b 45 f4             	cmp    -0xc(%rbp),%eax
  40b007:	0f 9f c0             	setg   %al
  40b00a:	84 c0                	test   %al,%al
  40b00c:	74 49                	je     40b057 <_ZN11arm_compute16ForEachDimensionILm4EE6unrollIRZN2CK5armcl25copy_raw_data_from_tensorIfEEvPNS_8CLTensorEPT_RKNS3_5ShapeEEUlRKNS_11CoordinatesEE_IRNS_8IteratorEEEEvRKNS_6WindowERSD_OS8_DpOT0_+0x9b>
  40b00e:	48 8b 45 e0          	mov    -0x20(%rbp),%rax
  40b012:	8b 55 f4             	mov    -0xc(%rbp),%edx
  40b015:	be 03 00 00 00       	mov    $0x3,%esi
  40b01a:	48 89 c7             	mov    %rax,%rdi
  40b01d:	e8 9c d1 ff ff       	callq  4081be <_ZN11arm_compute10DimensionsIiE3setEmi>
  40b022:	48 8b 4d d0          	mov    -0x30(%rbp),%rcx
  40b026:	48 8b 55 d8          	mov    -0x28(%rbp),%rdx
  40b02a:	48 8b 75 e0          	mov    -0x20(%rbp),%rsi
  40b02e:	48 8b 45 e8          	mov    -0x18(%rbp),%rax
  40b032:	48 89 c7             	mov    %rax,%rdi
  40b035:	e8 af 03 00 00       	callq  40b3e9 <_ZN11arm_compute16ForEachDimensionILm3EE6unrollIRZN2CK5armcl25copy_raw_data_from_tensorIfEEvPNS_8CLTensorEPT_RKNS3_5ShapeEEUlRKNS_11CoordinatesEE_IRNS_8IteratorEEEEvRKNS_6WindowERSD_OS8_DpOT0_>
  40b03a:	48 8b 45 f8          	mov    -0x8(%rbp),%rax
  40b03e:	48 89 c7             	mov    %rax,%rdi
  40b041:	e8 2c b6 ff ff       	callq  406672 <_ZNK11arm_compute6Window9Dimension4stepEv>
  40b046:	01 45 f4             	add    %eax,-0xc(%rbp)
  40b049:	48 8b 45 d0          	mov    -0x30(%rbp),%rax
  40b04d:	48 89 c7             	mov    %rax,%rdi
  40b050:	e8 d6 02 00 00       	callq  40b32b <_ZN11arm_compute18IncrementIteratorsILm3EE6unrollIRNS_8IteratorEEEvOT_>
  40b055:	eb a1                	jmp    40aff8 <_ZN11arm_compute16ForEachDimensionILm4EE6unrollIRZN2CK5armcl25copy_raw_data_from_tensorIfEEvPNS_8CLTensorEPT_RKNS3_5ShapeEEUlRKNS_11CoordinatesEE_IRNS_8IteratorEEEEvRKNS_6WindowERSD_OS8_DpOT0_+0x3c>
  40b057:	90                   	nop
  40b058:	c9                   	leaveq 
  40b059:	c3                   	retq   

000000000040b05a <_ZN9__gnu_cxx13new_allocatorIP15_cl_platform_idE8allocateEmPKv>:
  40b05a:	55                   	push   %rbp
  40b05b:	48 89 e5             	mov    %rsp,%rbp
  40b05e:	48 83 ec 20          	sub    $0x20,%rsp
  40b062:	48 89 7d f8          	mov    %rdi,-0x8(%rbp)
  40b066:	48 89 75 f0          	mov    %rsi,-0x10(%rbp)
  40b06a:	48 89 55 e8          	mov    %rdx,-0x18(%rbp)
  40b06e:	48 8b 45 f8          	mov    -0x8(%rbp),%rax
  40b072:	48 89 c7             	mov    %rax,%rdi
  40b075:	e8 0e 04 00 00       	callq  40b488 <_ZNK9__gnu_cxx13new_allocatorIP15_cl_platform_idE8max_sizeEv>
  40b07a:	48 3b 45 f0          	cmp    -0x10(%rbp),%rax
  40b07e:	0f 92 c0             	setb   %al
  40b081:	84 c0                	test   %al,%al
  40b083:	74 05                	je     40b08a <_ZN9__gnu_cxx13new_allocatorIP15_cl_platform_idE8allocateEmPKv+0x30>
  40b085:	e8 56 8c ff ff       	callq  403ce0 <_ZSt17__throw_bad_allocv@plt>
  40b08a:	48 8b 45 f0          	mov    -0x10(%rbp),%rax
  40b08e:	48 c1 e0 03          	shl    $0x3,%rax
  40b092:	48 89 c7             	mov    %rax,%rdi
  40b095:	e8 76 8d ff ff       	callq  403e10 <_Znwm@plt>
  40b09a:	c9                   	leaveq 
  40b09b:	c3                   	retq   

000000000040b09c <_ZSt6fill_nIPP15_cl_platform_idmS1_ET_S3_T0_RKT1_>:
  40b09c:	55                   	push   %rbp
  40b09d:	48 89 e5             	mov    %rsp,%rbp
  40b0a0:	48 83 ec 20          	sub    $0x20,%rsp
  40b0a4:	48 89 7d f8          	mov    %rdi,-0x8(%rbp)
  40b0a8:	48 89 75 f0          	mov    %rsi,-0x10(%rbp)
  40b0ac:	48 89 55 e8          	mov    %rdx,-0x18(%rbp)
  40b0b0:	48 8b 45 f8          	mov    -0x8(%rbp),%rax
  40b0b4:	48 89 c7             	mov    %rax,%rdi
  40b0b7:	e8 e0 03 00 00       	callq  40b49c <_ZSt12__niter_baseIPP15_cl_platform_idENSt11_Niter_baseIT_E13iterator_typeES4_>
  40b0bc:	48 89 c1             	mov    %rax,%rcx
  40b0bf:	48 8b 55 e8          	mov    -0x18(%rbp),%rdx
  40b0c3:	48 8b 45 f0          	mov    -0x10(%rbp),%rax
  40b0c7:	48 89 c6             	mov    %rax,%rsi
  40b0ca:	48 89 cf             	mov    %rcx,%rdi
  40b0cd:	e8 e4 03 00 00       	callq  40b4b6 <_ZSt10__fill_n_aIPP15_cl_platform_idmS1_EN9__gnu_cxx11__enable_ifIXsrSt11__is_scalarIT1_E7__valueET_E6__typeES8_T0_RKS6_>
  40b0d2:	c9                   	leaveq 
  40b0d3:	c3                   	retq   

000000000040b0d4 <_ZN9__gnu_cxx13new_allocatorIP13_cl_device_idE8allocateEmPKv>:
  40b0d4:	55                   	push   %rbp
  40b0d5:	48 89 e5             	mov    %rsp,%rbp
  40b0d8:	48 83 ec 20          	sub    $0x20,%rsp
  40b0dc:	48 89 7d f8          	mov    %rdi,-0x8(%rbp)
  40b0e0:	48 89 75 f0          	mov    %rsi,-0x10(%rbp)
  40b0e4:	48 89 55 e8          	mov    %rdx,-0x18(%rbp)
  40b0e8:	48 8b 45 f8          	mov    -0x8(%rbp),%rax
  40b0ec:	48 89 c7             	mov    %rax,%rdi
  40b0ef:	e8 0a 04 00 00       	callq  40b4fe <_ZNK9__gnu_cxx13new_allocatorIP13_cl_device_idE8max_sizeEv>
  40b0f4:	48 3b 45 f0          	cmp    -0x10(%rbp),%rax
  40b0f8:	0f 92 c0             	setb   %al
  40b0fb:	84 c0                	test   %al,%al
  40b0fd:	74 05                	je     40b104 <_ZN9__gnu_cxx13new_allocatorIP13_cl_device_idE8allocateEmPKv+0x30>
  40b0ff:	e8 dc 8b ff ff       	callq  403ce0 <_ZSt17__throw_bad_allocv@plt>
  40b104:	48 8b 45 f0          	mov    -0x10(%rbp),%rax
  40b108:	48 c1 e0 03          	shl    $0x3,%rax
  40b10c:	48 89 c7             	mov    %rax,%rdi
  40b10f:	e8 fc 8c ff ff       	callq  403e10 <_Znwm@plt>
  40b114:	c9                   	leaveq 
  40b115:	c3                   	retq   

000000000040b116 <_ZSt6fill_nIPP13_cl_device_idmS1_ET_S3_T0_RKT1_>:
  40b116:	55                   	push   %rbp
  40b117:	48 89 e5             	mov    %rsp,%rbp
  40b11a:	48 83 ec 20          	sub    $0x20,%rsp
  40b11e:	48 89 7d f8          	mov    %rdi,-0x8(%rbp)
  40b122:	48 89 75 f0          	mov    %rsi,-0x10(%rbp)
  40b126:	48 89 55 e8          	mov    %rdx,-0x18(%rbp)
  40b12a:	48 8b 45 f8          	mov    -0x8(%rbp),%rax
  40b12e:	48 89 c7             	mov    %rax,%rdi
  40b131:	e8 dc 03 00 00       	callq  40b512 <_ZSt12__niter_baseIPP13_cl_device_idENSt11_Niter_baseIT_E13iterator_typeES4_>
  40b136:	48 89 c1             	mov    %rax,%rcx
  40b139:	48 8b 55 e8          	mov    -0x18(%rbp),%rdx
  40b13d:	48 8b 45 f0          	mov    -0x10(%rbp),%rax
  40b141:	48 89 c6             	mov    %rax,%rsi
  40b144:	48 89 cf             	mov    %rcx,%rdi
  40b147:	e8 e0 03 00 00       	callq  40b52c <_ZSt10__fill_n_aIPP13_cl_device_idmS1_EN9__gnu_cxx11__enable_ifIXsrSt11__is_scalarIT1_E7__valueET_E6__typeES8_T0_RKS6_>
  40b14c:	c9                   	leaveq 
  40b14d:	c3                   	retq   

000000000040b14e <_ZSt10_ConstructIN2cl6DeviceEIEEvPT_DpOT0_>:
  40b14e:	55                   	push   %rbp
  40b14f:	48 89 e5             	mov    %rsp,%rbp
  40b152:	48 83 ec 10          	sub    $0x10,%rsp
  40b156:	48 89 7d f8          	mov    %rdi,-0x8(%rbp)
  40b15a:	48 8b 45 f8          	mov    -0x8(%rbp),%rax
  40b15e:	48 89 c6             	mov    %rax,%rsi
  40b161:	bf 10 00 00 00       	mov    $0x10,%edi
  40b166:	e8 50 9a ff ff       	callq  404bbb <_ZnwmPv>
  40b16b:	48 85 c0             	test   %rax,%rax
  40b16e:	74 08                	je     40b178 <_ZSt10_ConstructIN2cl6DeviceEIEEvPT_DpOT0_+0x2a>
  40b170:	48 89 c7             	mov    %rax,%rdi
  40b173:	e8 0a 9f ff ff       	callq  405082 <_ZN2cl6DeviceC1Ev>
  40b178:	90                   	nop
  40b179:	c9                   	leaveq 
  40b17a:	c3                   	retq   
  40b17b:	90                   	nop

000000000040b17c <_ZNK9__gnu_cxx13new_allocatorIN2cl6DeviceEE8max_sizeEv>:
  40b17c:	55                   	push   %rbp
  40b17d:	48 89 e5             	mov    %rsp,%rbp
  40b180:	48 89 7d f8          	mov    %rdi,-0x8(%rbp)
  40b184:	48 b8 ff ff ff ff ff 	movabs $0xfffffffffffffff,%rax
  40b18b:	ff ff 0f 
  40b18e:	5d                   	pop    %rbp
  40b18f:	c3                   	retq   

000000000040b190 <_ZNSt20__uninitialized_copyILb0EE13__uninit_copyISt13move_iteratorIPN2cl6DeviceEES5_EET0_T_S8_S7_>:
  40b190:	55                   	push   %rbp
  40b191:	48 89 e5             	mov    %rsp,%rbp
  40b194:	53                   	push   %rbx
  40b195:	48 83 ec 38          	sub    $0x38,%rsp
  40b199:	48 89 7d d0          	mov    %rdi,-0x30(%rbp)
  40b19d:	48 89 75 c0          	mov    %rsi,-0x40(%rbp)
  40b1a1:	48 89 55 c8          	mov    %rdx,-0x38(%rbp)
  40b1a5:	48 8b 45 c8          	mov    -0x38(%rbp),%rax
  40b1a9:	48 89 45 e8          	mov    %rax,-0x18(%rbp)
  40b1ad:	48 8d 55 c0          	lea    -0x40(%rbp),%rdx
  40b1b1:	48 8d 45 d0          	lea    -0x30(%rbp),%rax
  40b1b5:	48 89 d6             	mov    %rdx,%rsi
  40b1b8:	48 89 c7             	mov    %rax,%rdi
  40b1bb:	e8 b3 03 00 00       	callq  40b573 <_ZStneIPN2cl6DeviceEEbRKSt13move_iteratorIT_ES7_>
  40b1c0:	84 c0                	test   %al,%al
  40b1c2:	74 39                	je     40b1fd <_ZNSt20__uninitialized_copyILb0EE13__uninit_copyISt13move_iteratorIPN2cl6DeviceEES5_EET0_T_S8_S7_+0x6d>
  40b1c4:	48 8d 45 d0          	lea    -0x30(%rbp),%rax
  40b1c8:	48 89 c7             	mov    %rax,%rdi
  40b1cb:	e8 ec 03 00 00       	callq  40b5bc <_ZNKSt13move_iteratorIPN2cl6DeviceEEdeEv>
  40b1d0:	48 89 c3             	mov    %rax,%rbx
  40b1d3:	48 8b 45 e8          	mov    -0x18(%rbp),%rax
  40b1d7:	48 89 c7             	mov    %rax,%rdi
  40b1da:	e8 f6 fc ff ff       	callq  40aed5 <_ZSt11__addressofIN2cl6DeviceEEPT_RS2_>
  40b1df:	48 89 de             	mov    %rbx,%rsi
  40b1e2:	48 89 c7             	mov    %rax,%rdi
  40b1e5:	e8 f1 03 00 00       	callq  40b5db <_ZSt10_ConstructIN2cl6DeviceEIS1_EEvPT_DpOT0_>
  40b1ea:	48 8d 45 d0          	lea    -0x30(%rbp),%rax
  40b1ee:	48 89 c7             	mov    %rax,%rdi
  40b1f1:	e8 a6 03 00 00       	callq  40b59c <_ZNSt13move_iteratorIPN2cl6DeviceEEppEv>
  40b1f6:	48 83 45 e8 10       	addq   $0x10,-0x18(%rbp)
  40b1fb:	eb b0                	jmp    40b1ad <_ZNSt20__uninitialized_copyILb0EE13__uninit_copyISt13move_iteratorIPN2cl6DeviceEES5_EET0_T_S8_S7_+0x1d>
  40b1fd:	48 8b 45 e8          	mov    -0x18(%rbp),%rax
  40b201:	eb 33                	jmp    40b236 <_ZNSt20__uninitialized_copyILb0EE13__uninit_copyISt13move_iteratorIPN2cl6DeviceEES5_EET0_T_S8_S7_+0xa6>
  40b203:	48 89 c7             	mov    %rax,%rdi
  40b206:	e8 f5 8a ff ff       	callq  403d00 <__cxa_begin_catch@plt>
  40b20b:	48 8b 55 e8          	mov    -0x18(%rbp),%rdx
  40b20f:	48 8b 45 c8          	mov    -0x38(%rbp),%rax
  40b213:	48 89 d6             	mov    %rdx,%rsi
  40b216:	48 89 c7             	mov    %rax,%rdi
  40b219:	e8 d7 ee ff ff       	callq  40a0f5 <_ZSt8_DestroyIPN2cl6DeviceEEvT_S3_>
  40b21e:	e8 2d 8d ff ff       	callq  403f50 <__cxa_rethrow@plt>
  40b223:	48 89 c3             	mov    %rax,%rbx
  40b226:	e8 95 8d ff ff       	callq  403fc0 <__cxa_end_catch@plt>
  40b22b:	48 89 d8             	mov    %rbx,%rax
  40b22e:	48 89 c7             	mov    %rax,%rdi
  40b231:	e8 3a 8e ff ff       	callq  404070 <_Unwind_Resume@plt>
  40b236:	48 83 c4 38          	add    $0x38,%rsp
  40b23a:	5b                   	pop    %rbx
  40b23b:	5d                   	pop    %rbp
  40b23c:	c3                   	retq   

000000000040b23d <_ZSt10_ConstructIN2cl8PlatformEIEEvPT_DpOT0_>:
  40b23d:	55                   	push   %rbp
  40b23e:	48 89 e5             	mov    %rsp,%rbp
  40b241:	48 83 ec 10          	sub    $0x10,%rsp
  40b245:	48 89 7d f8          	mov    %rdi,-0x8(%rbp)
  40b249:	48 8b 45 f8          	mov    -0x8(%rbp),%rax
  40b24d:	48 89 c6             	mov    %rax,%rsi
  40b250:	bf 08 00 00 00       	mov    $0x8,%edi
  40b255:	e8 61 99 ff ff       	callq  404bbb <_ZnwmPv>
  40b25a:	48 85 c0             	test   %rax,%rax
  40b25d:	74 08                	je     40b267 <_ZSt10_ConstructIN2cl8PlatformEIEEvPT_DpOT0_+0x2a>
  40b25f:	48 89 c7             	mov    %rax,%rdi
  40b262:	e8 a5 a1 ff ff       	callq  40540c <_ZN2cl8PlatformC1Ev>
  40b267:	90                   	nop
  40b268:	c9                   	leaveq 
  40b269:	c3                   	retq   

000000000040b26a <_ZNK9__gnu_cxx13new_allocatorIN2cl8PlatformEE8max_sizeEv>:
  40b26a:	55                   	push   %rbp
  40b26b:	48 89 e5             	mov    %rsp,%rbp
  40b26e:	48 89 7d f8          	mov    %rdi,-0x8(%rbp)
  40b272:	48 b8 ff ff ff ff ff 	movabs $0x1fffffffffffffff,%rax
  40b279:	ff ff 1f 
  40b27c:	5d                   	pop    %rbp
  40b27d:	c3                   	retq   

000000000040b27e <_ZNSt20__uninitialized_copyILb0EE13__uninit_copyISt13move_iteratorIPN2cl8PlatformEES5_EET0_T_S8_S7_>:
  40b27e:	55                   	push   %rbp
  40b27f:	48 89 e5             	mov    %rsp,%rbp
  40b282:	53                   	push   %rbx
  40b283:	48 83 ec 38          	sub    $0x38,%rsp
  40b287:	48 89 7d d0          	mov    %rdi,-0x30(%rbp)
  40b28b:	48 89 75 c0          	mov    %rsi,-0x40(%rbp)
  40b28f:	48 89 55 c8          	mov    %rdx,-0x38(%rbp)
  40b293:	48 8b 45 c8          	mov    -0x38(%rbp),%rax
  40b297:	48 89 45 e8          	mov    %rax,-0x18(%rbp)
  40b29b:	48 8d 55 c0          	lea    -0x40(%rbp),%rdx
  40b29f:	48 8d 45 d0          	lea    -0x30(%rbp),%rax
  40b2a3:	48 89 d6             	mov    %rdx,%rsi
  40b2a6:	48 89 c7             	mov    %rax,%rdi
  40b2a9:	e8 76 03 00 00       	callq  40b624 <_ZStneIPN2cl8PlatformEEbRKSt13move_iteratorIT_ES7_>
  40b2ae:	84 c0                	test   %al,%al
  40b2b0:	74 39                	je     40b2eb <_ZNSt20__uninitialized_copyILb0EE13__uninit_copyISt13move_iteratorIPN2cl8PlatformEES5_EET0_T_S8_S7_+0x6d>
  40b2b2:	48 8d 45 d0          	lea    -0x30(%rbp),%rax
  40b2b6:	48 89 c7             	mov    %rax,%rdi
  40b2b9:	e8 ae 03 00 00       	callq  40b66c <_ZNKSt13move_iteratorIPN2cl8PlatformEEdeEv>
  40b2be:	48 89 c3             	mov    %rax,%rbx
  40b2c1:	48 8b 45 e8          	mov    -0x18(%rbp),%rax
  40b2c5:	48 89 c7             	mov    %rax,%rdi
  40b2c8:	e8 d4 fb ff ff       	callq  40aea1 <_ZSt11__addressofIN2cl8PlatformEEPT_RS2_>
  40b2cd:	48 89 de             	mov    %rbx,%rsi
  40b2d0:	48 89 c7             	mov    %rax,%rdi
  40b2d3:	e8 b3 03 00 00       	callq  40b68b <_ZSt10_ConstructIN2cl8PlatformEIS1_EEvPT_DpOT0_>
  40b2d8:	48 8d 45 d0          	lea    -0x30(%rbp),%rax
  40b2dc:	48 89 c7             	mov    %rax,%rdi
  40b2df:	e8 68 03 00 00       	callq  40b64c <_ZNSt13move_iteratorIPN2cl8PlatformEEppEv>
  40b2e4:	48 83 45 e8 08       	addq   $0x8,-0x18(%rbp)
  40b2e9:	eb b0                	jmp    40b29b <_ZNSt20__uninitialized_copyILb0EE13__uninit_copyISt13move_iteratorIPN2cl8PlatformEES5_EET0_T_S8_S7_+0x1d>
  40b2eb:	48 8b 45 e8          	mov    -0x18(%rbp),%rax
  40b2ef:	eb 33                	jmp    40b324 <_ZNSt20__uninitialized_copyILb0EE13__uninit_copyISt13move_iteratorIPN2cl8PlatformEES5_EET0_T_S8_S7_+0xa6>
  40b2f1:	48 89 c7             	mov    %rax,%rdi
  40b2f4:	e8 07 8a ff ff       	callq  403d00 <__cxa_begin_catch@plt>
  40b2f9:	48 8b 55 e8          	mov    -0x18(%rbp),%rdx
  40b2fd:	48 8b 45 c8          	mov    -0x38(%rbp),%rax
  40b301:	48 89 d6             	mov    %rdx,%rsi
  40b304:	48 89 c7             	mov    %rax,%rdi
  40b307:	e8 69 ed ff ff       	callq  40a075 <_ZSt8_DestroyIPN2cl8PlatformEEvT_S3_>
  40b30c:	e8 3f 8c ff ff       	callq  403f50 <__cxa_rethrow@plt>
  40b311:	48 89 c3             	mov    %rax,%rbx
  40b314:	e8 a7 8c ff ff       	callq  403fc0 <__cxa_end_catch@plt>
  40b319:	48 89 d8             	mov    %rbx,%rax
  40b31c:	48 89 c7             	mov    %rax,%rdi
  40b31f:	e8 4c 8d ff ff       	callq  404070 <_Unwind_Resume@plt>
  40b324:	48 83 c4 38          	add    $0x38,%rsp
  40b328:	5b                   	pop    %rbx
  40b329:	5d                   	pop    %rbp
  40b32a:	c3                   	retq   

000000000040b32b <_ZN11arm_compute18IncrementIteratorsILm3EE6unrollIRNS_8IteratorEEEvOT_>:
  40b32b:	55                   	push   %rbp
  40b32c:	48 89 e5             	mov    %rsp,%rbp
  40b32f:	48 83 ec 10          	sub    $0x10,%rsp
  40b333:	48 89 7d f8          	mov    %rdi,-0x8(%rbp)
  40b337:	48 8b 45 f8          	mov    -0x8(%rbp),%rax
  40b33b:	be 03 00 00 00       	mov    $0x3,%esi
  40b340:	48 89 c7             	mov    %rax,%rdi
  40b343:	e8 f2 b7 ff ff       	callq  406b3a <_ZN11arm_compute8Iterator9incrementEm>
  40b348:	90                   	nop
  40b349:	c9                   	leaveq 
  40b34a:	c3                   	retq   

000000000040b34b <_ZN11arm_compute16ForEachDimensionILm3EE6unrollIRZN2CK5armcl23copy_raw_data_to_tensorIfEEvPNS_8CLTensorEPT_RKNS3_5ShapeEEUlRKNS_11CoordinatesEE_IRNS_8IteratorEEEEvRKNS_6WindowERSD_OS8_DpOT0_>:
  40b34b:	55                   	push   %rbp
  40b34c:	48 89 e5             	mov    %rsp,%rbp
  40b34f:	48 83 ec 30          	sub    $0x30,%rsp
  40b353:	48 89 7d e8          	mov    %rdi,-0x18(%rbp)
  40b357:	48 89 75 e0          	mov    %rsi,-0x20(%rbp)
  40b35b:	48 89 55 d8          	mov    %rdx,-0x28(%rbp)
  40b35f:	48 89 4d d0          	mov    %rcx,-0x30(%rbp)
  40b363:	48 8b 45 e8          	mov    -0x18(%rbp),%rax
  40b367:	be 02 00 00 00       	mov    $0x2,%esi
  40b36c:	48 89 c7             	mov    %rax,%rdi
  40b36f:	e8 80 b3 ff ff       	callq  4066f4 <_ZNK11arm_compute6WindowixEm>
  40b374:	48 89 45 f8          	mov    %rax,-0x8(%rbp)
  40b378:	48 8b 45 f8          	mov    -0x8(%rbp),%rax
  40b37c:	48 89 c7             	mov    %rax,%rdi
  40b37f:	e8 cc b2 ff ff       	callq  406650 <_ZNK11arm_compute6Window9Dimension5startEv>
  40b384:	89 45 f4             	mov    %eax,-0xc(%rbp)
  40b387:	48 8b 45 f8          	mov    -0x8(%rbp),%rax
  40b38b:	48 89 c7             	mov    %rax,%rdi
  40b38e:	e8 cd b2 ff ff       	callq  406660 <_ZNK11arm_compute6Window9Dimension3endEv>
  40b393:	3b 45 f4             	cmp    -0xc(%rbp),%eax
  40b396:	0f 9f c0             	setg   %al
  40b399:	84 c0                	test   %al,%al
  40b39b:	74 49                	je     40b3e6 <_ZN11arm_compute16ForEachDimensionILm3EE6unrollIRZN2CK5armcl23copy_raw_data_to_tensorIfEEvPNS_8CLTensorEPT_RKNS3_5ShapeEEUlRKNS_11CoordinatesEE_IRNS_8IteratorEEEEvRKNS_6WindowERSD_OS8_DpOT0_+0x9b>
  40b39d:	48 8b 45 e0          	mov    -0x20(%rbp),%rax
  40b3a1:	8b 55 f4             	mov    -0xc(%rbp),%edx
  40b3a4:	be 02 00 00 00       	mov    $0x2,%esi
  40b3a9:	48 89 c7             	mov    %rax,%rdi
  40b3ac:	e8 0d ce ff ff       	callq  4081be <_ZN11arm_compute10DimensionsIiE3setEmi>
  40b3b1:	48 8b 4d d0          	mov    -0x30(%rbp),%rcx
  40b3b5:	48 8b 55 d8          	mov    -0x28(%rbp),%rdx
  40b3b9:	48 8b 75 e0          	mov    -0x20(%rbp),%rsi
  40b3bd:	48 8b 45 e8          	mov    -0x18(%rbp),%rax
  40b3c1:	48 89 c7             	mov    %rax,%rdi
  40b3c4:	e8 2b 03 00 00       	callq  40b6f4 <_ZN11arm_compute16ForEachDimensionILm2EE6unrollIRZN2CK5armcl23copy_raw_data_to_tensorIfEEvPNS_8CLTensorEPT_RKNS3_5ShapeEEUlRKNS_11CoordinatesEE_IRNS_8IteratorEEEEvRKNS_6WindowERSD_OS8_DpOT0_>
  40b3c9:	48 8b 45 f8          	mov    -0x8(%rbp),%rax
  40b3cd:	48 89 c7             	mov    %rax,%rdi
  40b3d0:	e8 9d b2 ff ff       	callq  406672 <_ZNK11arm_compute6Window9Dimension4stepEv>
  40b3d5:	01 45 f4             	add    %eax,-0xc(%rbp)
  40b3d8:	48 8b 45 d0          	mov    -0x30(%rbp),%rax
  40b3dc:	48 89 c7             	mov    %rax,%rdi
  40b3df:	e8 f0 02 00 00       	callq  40b6d4 <_ZN11arm_compute18IncrementIteratorsILm2EE6unrollIRNS_8IteratorEEEvOT_>
  40b3e4:	eb a1                	jmp    40b387 <_ZN11arm_compute16ForEachDimensionILm3EE6unrollIRZN2CK5armcl23copy_raw_data_to_tensorIfEEvPNS_8CLTensorEPT_RKNS3_5ShapeEEUlRKNS_11CoordinatesEE_IRNS_8IteratorEEEEvRKNS_6WindowERSD_OS8_DpOT0_+0x3c>
  40b3e6:	90                   	nop
  40b3e7:	c9                   	leaveq 
  40b3e8:	c3                   	retq   

000000000040b3e9 <_ZN11arm_compute16ForEachDimensionILm3EE6unrollIRZN2CK5armcl25copy_raw_data_from_tensorIfEEvPNS_8CLTensorEPT_RKNS3_5ShapeEEUlRKNS_11CoordinatesEE_IRNS_8IteratorEEEEvRKNS_6WindowERSD_OS8_DpOT0_>:
  40b3e9:	55                   	push   %rbp
  40b3ea:	48 89 e5             	mov    %rsp,%rbp
  40b3ed:	48 83 ec 30          	sub    $0x30,%rsp
  40b3f1:	48 89 7d e8          	mov    %rdi,-0x18(%rbp)
  40b3f5:	48 89 75 e0          	mov    %rsi,-0x20(%rbp)
  40b3f9:	48 89 55 d8          	mov    %rdx,-0x28(%rbp)
  40b3fd:	48 89 4d d0          	mov    %rcx,-0x30(%rbp)
  40b401:	48 8b 45 e8          	mov    -0x18(%rbp),%rax
  40b405:	be 02 00 00 00       	mov    $0x2,%esi
  40b40a:	48 89 c7             	mov    %rax,%rdi
  40b40d:	e8 e2 b2 ff ff       	callq  4066f4 <_ZNK11arm_compute6WindowixEm>
  40b412:	48 89 45 f8          	mov    %rax,-0x8(%rbp)
  40b416:	48 8b 45 f8          	mov    -0x8(%rbp),%rax
  40b41a:	48 89 c7             	mov    %rax,%rdi
  40b41d:	e8 2e b2 ff ff       	callq  406650 <_ZNK11arm_compute6Window9Dimension5startEv>
  40b422:	89 45 f4             	mov    %eax,-0xc(%rbp)
  40b425:	48 8b 45 f8          	mov    -0x8(%rbp),%rax
  40b429:	48 89 c7             	mov    %rax,%rdi
  40b42c:	e8 2f b2 ff ff       	callq  406660 <_ZNK11arm_compute6Window9Dimension3endEv>
  40b431:	3b 45 f4             	cmp    -0xc(%rbp),%eax
  40b434:	0f 9f c0             	setg   %al
  40b437:	84 c0                	test   %al,%al
  40b439:	74 49                	je     40b484 <_ZN11arm_compute16ForEachDimensionILm3EE6unrollIRZN2CK5armcl25copy_raw_data_from_tensorIfEEvPNS_8CLTensorEPT_RKNS3_5ShapeEEUlRKNS_11CoordinatesEE_IRNS_8IteratorEEEEvRKNS_6WindowERSD_OS8_DpOT0_+0x9b>
  40b43b:	48 8b 45 e0          	mov    -0x20(%rbp),%rax
  40b43f:	8b 55 f4             	mov    -0xc(%rbp),%edx
  40b442:	be 02 00 00 00       	mov    $0x2,%esi
  40b447:	48 89 c7             	mov    %rax,%rdi
  40b44a:	e8 6f cd ff ff       	callq  4081be <_ZN11arm_compute10DimensionsIiE3setEmi>
  40b44f:	48 8b 4d d0          	mov    -0x30(%rbp),%rcx
  40b453:	48 8b 55 d8          	mov    -0x28(%rbp),%rdx
  40b457:	48 8b 75 e0          	mov    -0x20(%rbp),%rsi
  40b45b:	48 8b 45 e8          	mov    -0x18(%rbp),%rax
  40b45f:	48 89 c7             	mov    %rax,%rdi
  40b462:	e8 2b 03 00 00       	callq  40b792 <_ZN11arm_compute16ForEachDimensionILm2EE6unrollIRZN2CK5armcl25copy_raw_data_from_tensorIfEEvPNS_8CLTensorEPT_RKNS3_5ShapeEEUlRKNS_11CoordinatesEE_IRNS_8IteratorEEEEvRKNS_6WindowERSD_OS8_DpOT0_>
  40b467:	48 8b 45 f8          	mov    -0x8(%rbp),%rax
  40b46b:	48 89 c7             	mov    %rax,%rdi
  40b46e:	e8 ff b1 ff ff       	callq  406672 <_ZNK11arm_compute6Window9Dimension4stepEv>
  40b473:	01 45 f4             	add    %eax,-0xc(%rbp)
  40b476:	48 8b 45 d0          	mov    -0x30(%rbp),%rax
  40b47a:	48 89 c7             	mov    %rax,%rdi
  40b47d:	e8 52 02 00 00       	callq  40b6d4 <_ZN11arm_compute18IncrementIteratorsILm2EE6unrollIRNS_8IteratorEEEvOT_>
  40b482:	eb a1                	jmp    40b425 <_ZN11arm_compute16ForEachDimensionILm3EE6unrollIRZN2CK5armcl25copy_raw_data_from_tensorIfEEvPNS_8CLTensorEPT_RKNS3_5ShapeEEUlRKNS_11CoordinatesEE_IRNS_8IteratorEEEEvRKNS_6WindowERSD_OS8_DpOT0_+0x3c>
  40b484:	90                   	nop
  40b485:	c9                   	leaveq 
  40b486:	c3                   	retq   
  40b487:	90                   	nop

000000000040b488 <_ZNK9__gnu_cxx13new_allocatorIP15_cl_platform_idE8max_sizeEv>:
  40b488:	55                   	push   %rbp
  40b489:	48 89 e5             	mov    %rsp,%rbp
  40b48c:	48 89 7d f8          	mov    %rdi,-0x8(%rbp)
  40b490:	48 b8 ff ff ff ff ff 	movabs $0x1fffffffffffffff,%rax
  40b497:	ff ff 1f 
  40b49a:	5d                   	pop    %rbp
  40b49b:	c3                   	retq   

000000000040b49c <_ZSt12__niter_baseIPP15_cl_platform_idENSt11_Niter_baseIT_E13iterator_typeES4_>:
  40b49c:	55                   	push   %rbp
  40b49d:	48 89 e5             	mov    %rsp,%rbp
  40b4a0:	48 83 ec 10          	sub    $0x10,%rsp
  40b4a4:	48 89 7d f8          	mov    %rdi,-0x8(%rbp)
  40b4a8:	48 8b 45 f8          	mov    -0x8(%rbp),%rax
  40b4ac:	48 89 c7             	mov    %rax,%rdi
  40b4af:	e8 7c 03 00 00       	callq  40b830 <_ZNSt10_Iter_baseIPP15_cl_platform_idLb0EE7_S_baseES2_>
  40b4b4:	c9                   	leaveq 
  40b4b5:	c3                   	retq   

000000000040b4b6 <_ZSt10__fill_n_aIPP15_cl_platform_idmS1_EN9__gnu_cxx11__enable_ifIXsrSt11__is_scalarIT1_E7__valueET_E6__typeES8_T0_RKS6_>:
  40b4b6:	55                   	push   %rbp
  40b4b7:	48 89 e5             	mov    %rsp,%rbp
  40b4ba:	48 89 7d e8          	mov    %rdi,-0x18(%rbp)
  40b4be:	48 89 75 e0          	mov    %rsi,-0x20(%rbp)
  40b4c2:	48 89 55 d8          	mov    %rdx,-0x28(%rbp)
  40b4c6:	48 8b 45 d8          	mov    -0x28(%rbp),%rax
  40b4ca:	48 8b 00             	mov    (%rax),%rax
  40b4cd:	48 89 45 f8          	mov    %rax,-0x8(%rbp)
  40b4d1:	48 8b 45 e0          	mov    -0x20(%rbp),%rax
  40b4d5:	48 89 45 f0          	mov    %rax,-0x10(%rbp)
  40b4d9:	48 83 7d f0 00       	cmpq   $0x0,-0x10(%rbp)
  40b4de:	74 17                	je     40b4f7 <_ZSt10__fill_n_aIPP15_cl_platform_idmS1_EN9__gnu_cxx11__enable_ifIXsrSt11__is_scalarIT1_E7__valueET_E6__typeES8_T0_RKS6_+0x41>
  40b4e0:	48 8b 45 e8          	mov    -0x18(%rbp),%rax
  40b4e4:	48 8b 55 f8          	mov    -0x8(%rbp),%rdx
  40b4e8:	48 89 10             	mov    %rdx,(%rax)
  40b4eb:	48 83 6d f0 01       	subq   $0x1,-0x10(%rbp)
  40b4f0:	48 83 45 e8 08       	addq   $0x8,-0x18(%rbp)
  40b4f5:	eb e2                	jmp    40b4d9 <_ZSt10__fill_n_aIPP15_cl_platform_idmS1_EN9__gnu_cxx11__enable_ifIXsrSt11__is_scalarIT1_E7__valueET_E6__typeES8_T0_RKS6_+0x23>
  40b4f7:	48 8b 45 e8          	mov    -0x18(%rbp),%rax
  40b4fb:	5d                   	pop    %rbp
  40b4fc:	c3                   	retq   
  40b4fd:	90                   	nop

000000000040b4fe <_ZNK9__gnu_cxx13new_allocatorIP13_cl_device_idE8max_sizeEv>:
  40b4fe:	55                   	push   %rbp
  40b4ff:	48 89 e5             	mov    %rsp,%rbp
  40b502:	48 89 7d f8          	mov    %rdi,-0x8(%rbp)
  40b506:	48 b8 ff ff ff ff ff 	movabs $0x1fffffffffffffff,%rax
  40b50d:	ff ff 1f 
  40b510:	5d                   	pop    %rbp
  40b511:	c3                   	retq   

000000000040b512 <_ZSt12__niter_baseIPP13_cl_device_idENSt11_Niter_baseIT_E13iterator_typeES4_>:
  40b512:	55                   	push   %rbp
  40b513:	48 89 e5             	mov    %rsp,%rbp
  40b516:	48 83 ec 10          	sub    $0x10,%rsp
  40b51a:	48 89 7d f8          	mov    %rdi,-0x8(%rbp)
  40b51e:	48 8b 45 f8          	mov    -0x8(%rbp),%rax
  40b522:	48 89 c7             	mov    %rax,%rdi
  40b525:	e8 14 03 00 00       	callq  40b83e <_ZNSt10_Iter_baseIPP13_cl_device_idLb0EE7_S_baseES2_>
  40b52a:	c9                   	leaveq 
  40b52b:	c3                   	retq   

000000000040b52c <_ZSt10__fill_n_aIPP13_cl_device_idmS1_EN9__gnu_cxx11__enable_ifIXsrSt11__is_scalarIT1_E7__valueET_E6__typeES8_T0_RKS6_>:
  40b52c:	55                   	push   %rbp
  40b52d:	48 89 e5             	mov    %rsp,%rbp
  40b530:	48 89 7d e8          	mov    %rdi,-0x18(%rbp)
  40b534:	48 89 75 e0          	mov    %rsi,-0x20(%rbp)
  40b538:	48 89 55 d8          	mov    %rdx,-0x28(%rbp)
  40b53c:	48 8b 45 d8          	mov    -0x28(%rbp),%rax
  40b540:	48 8b 00             	mov    (%rax),%rax
  40b543:	48 89 45 f8          	mov    %rax,-0x8(%rbp)
  40b547:	48 8b 45 e0          	mov    -0x20(%rbp),%rax
  40b54b:	48 89 45 f0          	mov    %rax,-0x10(%rbp)
  40b54f:	48 83 7d f0 00       	cmpq   $0x0,-0x10(%rbp)
  40b554:	74 17                	je     40b56d <_ZSt10__fill_n_aIPP13_cl_device_idmS1_EN9__gnu_cxx11__enable_ifIXsrSt11__is_scalarIT1_E7__valueET_E6__typeES8_T0_RKS6_+0x41>
  40b556:	48 8b 45 e8          	mov    -0x18(%rbp),%rax
  40b55a:	48 8b 55 f8          	mov    -0x8(%rbp),%rdx
  40b55e:	48 89 10             	mov    %rdx,(%rax)
  40b561:	48 83 6d f0 01       	subq   $0x1,-0x10(%rbp)
  40b566:	48 83 45 e8 08       	addq   $0x8,-0x18(%rbp)
  40b56b:	eb e2                	jmp    40b54f <_ZSt10__fill_n_aIPP13_cl_device_idmS1_EN9__gnu_cxx11__enable_ifIXsrSt11__is_scalarIT1_E7__valueET_E6__typeES8_T0_RKS6_+0x23>
  40b56d:	48 8b 45 e8          	mov    -0x18(%rbp),%rax
  40b571:	5d                   	pop    %rbp
  40b572:	c3                   	retq   

000000000040b573 <_ZStneIPN2cl6DeviceEEbRKSt13move_iteratorIT_ES7_>:
  40b573:	55                   	push   %rbp
  40b574:	48 89 e5             	mov    %rsp,%rbp
  40b577:	48 83 ec 10          	sub    $0x10,%rsp
  40b57b:	48 89 7d f8          	mov    %rdi,-0x8(%rbp)
  40b57f:	48 89 75 f0          	mov    %rsi,-0x10(%rbp)
  40b583:	48 8b 55 f0          	mov    -0x10(%rbp),%rdx
  40b587:	48 8b 45 f8          	mov    -0x8(%rbp),%rax
  40b58b:	48 89 d6             	mov    %rdx,%rsi
  40b58e:	48 89 c7             	mov    %rax,%rdi
  40b591:	e8 b6 02 00 00       	callq  40b84c <_ZSteqIPN2cl6DeviceEEbRKSt13move_iteratorIT_ES7_>
  40b596:	83 f0 01             	xor    $0x1,%eax
  40b599:	c9                   	leaveq 
  40b59a:	c3                   	retq   
  40b59b:	90                   	nop

000000000040b59c <_ZNSt13move_iteratorIPN2cl6DeviceEEppEv>:
  40b59c:	55                   	push   %rbp
  40b59d:	48 89 e5             	mov    %rsp,%rbp
  40b5a0:	48 89 7d f8          	mov    %rdi,-0x8(%rbp)
  40b5a4:	48 8b 45 f8          	mov    -0x8(%rbp),%rax
  40b5a8:	48 8b 00             	mov    (%rax),%rax
  40b5ab:	48 8d 50 10          	lea    0x10(%rax),%rdx
  40b5af:	48 8b 45 f8          	mov    -0x8(%rbp),%rax
  40b5b3:	48 89 10             	mov    %rdx,(%rax)
  40b5b6:	48 8b 45 f8          	mov    -0x8(%rbp),%rax
  40b5ba:	5d                   	pop    %rbp
  40b5bb:	c3                   	retq   

000000000040b5bc <_ZNKSt13move_iteratorIPN2cl6DeviceEEdeEv>:
  40b5bc:	55                   	push   %rbp
  40b5bd:	48 89 e5             	mov    %rsp,%rbp
  40b5c0:	48 89 7d f8          	mov    %rdi,-0x8(%rbp)
  40b5c4:	48 8b 45 f8          	mov    -0x8(%rbp),%rax
  40b5c8:	48 8b 00             	mov    (%rax),%rax
  40b5cb:	5d                   	pop    %rbp
  40b5cc:	c3                   	retq   

000000000040b5cd <_ZSt7forwardIN2cl6DeviceEEOT_RNSt16remove_referenceIS2_E4typeE>:
  40b5cd:	55                   	push   %rbp
  40b5ce:	48 89 e5             	mov    %rsp,%rbp
  40b5d1:	48 89 7d f8          	mov    %rdi,-0x8(%rbp)
  40b5d5:	48 8b 45 f8          	mov    -0x8(%rbp),%rax
  40b5d9:	5d                   	pop    %rbp
  40b5da:	c3                   	retq   

000000000040b5db <_ZSt10_ConstructIN2cl6DeviceEIS1_EEvPT_DpOT0_>:
  40b5db:	55                   	push   %rbp
  40b5dc:	48 89 e5             	mov    %rsp,%rbp
  40b5df:	53                   	push   %rbx
  40b5e0:	48 83 ec 18          	sub    $0x18,%rsp
  40b5e4:	48 89 7d e8          	mov    %rdi,-0x18(%rbp)
  40b5e8:	48 89 75 e0          	mov    %rsi,-0x20(%rbp)
  40b5ec:	48 8b 45 e0          	mov    -0x20(%rbp),%rax
  40b5f0:	48 89 c7             	mov    %rax,%rdi
  40b5f3:	e8 d5 ff ff ff       	callq  40b5cd <_ZSt7forwardIN2cl6DeviceEEOT_RNSt16remove_referenceIS2_E4typeE>
  40b5f8:	48 89 c3             	mov    %rax,%rbx
  40b5fb:	48 8b 45 e8          	mov    -0x18(%rbp),%rax
  40b5ff:	48 89 c6             	mov    %rax,%rsi
  40b602:	bf 10 00 00 00       	mov    $0x10,%edi
  40b607:	e8 af 95 ff ff       	callq  404bbb <_ZnwmPv>
  40b60c:	48 85 c0             	test   %rax,%rax
  40b60f:	74 0b                	je     40b61c <_ZSt10_ConstructIN2cl6DeviceEIS1_EEvPT_DpOT0_+0x41>
  40b611:	48 89 de             	mov    %rbx,%rsi
  40b614:	48 89 c7             	mov    %rax,%rdi
  40b617:	e8 86 9b ff ff       	callq  4051a2 <_ZN2cl6DeviceC1EOS0_>
  40b61c:	90                   	nop
  40b61d:	48 83 c4 18          	add    $0x18,%rsp
  40b621:	5b                   	pop    %rbx
  40b622:	5d                   	pop    %rbp
  40b623:	c3                   	retq   

000000000040b624 <_ZStneIPN2cl8PlatformEEbRKSt13move_iteratorIT_ES7_>:
  40b624:	55                   	push   %rbp
  40b625:	48 89 e5             	mov    %rsp,%rbp
  40b628:	48 83 ec 10          	sub    $0x10,%rsp
  40b62c:	48 89 7d f8          	mov    %rdi,-0x8(%rbp)
  40b630:	48 89 75 f0          	mov    %rsi,-0x10(%rbp)
  40b634:	48 8b 55 f0          	mov    -0x10(%rbp),%rdx
  40b638:	48 8b 45 f8          	mov    -0x8(%rbp),%rax
  40b63c:	48 89 d6             	mov    %rdx,%rsi
  40b63f:	48 89 c7             	mov    %rax,%rdi
  40b642:	e8 3e 02 00 00       	callq  40b885 <_ZSteqIPN2cl8PlatformEEbRKSt13move_iteratorIT_ES7_>
  40b647:	83 f0 01             	xor    $0x1,%eax
  40b64a:	c9                   	leaveq 
  40b64b:	c3                   	retq   

000000000040b64c <_ZNSt13move_iteratorIPN2cl8PlatformEEppEv>:
  40b64c:	55                   	push   %rbp
  40b64d:	48 89 e5             	mov    %rsp,%rbp
  40b650:	48 89 7d f8          	mov    %rdi,-0x8(%rbp)
  40b654:	48 8b 45 f8          	mov    -0x8(%rbp),%rax
  40b658:	48 8b 00             	mov    (%rax),%rax
  40b65b:	48 8d 50 08          	lea    0x8(%rax),%rdx
  40b65f:	48 8b 45 f8          	mov    -0x8(%rbp),%rax
  40b663:	48 89 10             	mov    %rdx,(%rax)
  40b666:	48 8b 45 f8          	mov    -0x8(%rbp),%rax
  40b66a:	5d                   	pop    %rbp
  40b66b:	c3                   	retq   

000000000040b66c <_ZNKSt13move_iteratorIPN2cl8PlatformEEdeEv>:
  40b66c:	55                   	push   %rbp
  40b66d:	48 89 e5             	mov    %rsp,%rbp
  40b670:	48 89 7d f8          	mov    %rdi,-0x8(%rbp)
  40b674:	48 8b 45 f8          	mov    -0x8(%rbp),%rax
  40b678:	48 8b 00             	mov    (%rax),%rax
  40b67b:	5d                   	pop    %rbp
  40b67c:	c3                   	retq   

000000000040b67d <_ZSt7forwardIN2cl8PlatformEEOT_RNSt16remove_referenceIS2_E4typeE>:
  40b67d:	55                   	push   %rbp
  40b67e:	48 89 e5             	mov    %rsp,%rbp
  40b681:	48 89 7d f8          	mov    %rdi,-0x8(%rbp)
  40b685:	48 8b 45 f8          	mov    -0x8(%rbp),%rax
  40b689:	5d                   	pop    %rbp
  40b68a:	c3                   	retq   

000000000040b68b <_ZSt10_ConstructIN2cl8PlatformEIS1_EEvPT_DpOT0_>:
  40b68b:	55                   	push   %rbp
  40b68c:	48 89 e5             	mov    %rsp,%rbp
  40b68f:	53                   	push   %rbx
  40b690:	48 83 ec 18          	sub    $0x18,%rsp
  40b694:	48 89 7d e8          	mov    %rdi,-0x18(%rbp)
  40b698:	48 89 75 e0          	mov    %rsi,-0x20(%rbp)
  40b69c:	48 8b 45 e0          	mov    -0x20(%rbp),%rax
  40b6a0:	48 89 c7             	mov    %rax,%rdi
  40b6a3:	e8 d5 ff ff ff       	callq  40b67d <_ZSt7forwardIN2cl8PlatformEEOT_RNSt16remove_referenceIS2_E4typeE>
  40b6a8:	48 89 c3             	mov    %rax,%rbx
  40b6ab:	48 8b 45 e8          	mov    -0x18(%rbp),%rax
  40b6af:	48 89 c6             	mov    %rax,%rsi
  40b6b2:	bf 08 00 00 00       	mov    $0x8,%edi
  40b6b7:	e8 ff 94 ff ff       	callq  404bbb <_ZnwmPv>
  40b6bc:	48 85 c0             	test   %rax,%rax
  40b6bf:	74 0b                	je     40b6cc <_ZSt10_ConstructIN2cl8PlatformEIS1_EEvPT_DpOT0_+0x41>
  40b6c1:	48 89 de             	mov    %rbx,%rsi
  40b6c4:	48 89 c7             	mov    %rax,%rdi
  40b6c7:	e8 36 a2 ff ff       	callq  405902 <_ZN2cl8PlatformC1EOS0_>
  40b6cc:	90                   	nop
  40b6cd:	48 83 c4 18          	add    $0x18,%rsp
  40b6d1:	5b                   	pop    %rbx
  40b6d2:	5d                   	pop    %rbp
  40b6d3:	c3                   	retq   

000000000040b6d4 <_ZN11arm_compute18IncrementIteratorsILm2EE6unrollIRNS_8IteratorEEEvOT_>:
  40b6d4:	55                   	push   %rbp
  40b6d5:	48 89 e5             	mov    %rsp,%rbp
  40b6d8:	48 83 ec 10          	sub    $0x10,%rsp
  40b6dc:	48 89 7d f8          	mov    %rdi,-0x8(%rbp)
  40b6e0:	48 8b 45 f8          	mov    -0x8(%rbp),%rax
  40b6e4:	be 02 00 00 00       	mov    $0x2,%esi
  40b6e9:	48 89 c7             	mov    %rax,%rdi
  40b6ec:	e8 49 b4 ff ff       	callq  406b3a <_ZN11arm_compute8Iterator9incrementEm>
  40b6f1:	90                   	nop
  40b6f2:	c9                   	leaveq 
  40b6f3:	c3                   	retq   

000000000040b6f4 <_ZN11arm_compute16ForEachDimensionILm2EE6unrollIRZN2CK5armcl23copy_raw_data_to_tensorIfEEvPNS_8CLTensorEPT_RKNS3_5ShapeEEUlRKNS_11CoordinatesEE_IRNS_8IteratorEEEEvRKNS_6WindowERSD_OS8_DpOT0_>:
  40b6f4:	55                   	push   %rbp
  40b6f5:	48 89 e5             	mov    %rsp,%rbp
  40b6f8:	48 83 ec 30          	sub    $0x30,%rsp
  40b6fc:	48 89 7d e8          	mov    %rdi,-0x18(%rbp)
  40b700:	48 89 75 e0          	mov    %rsi,-0x20(%rbp)
  40b704:	48 89 55 d8          	mov    %rdx,-0x28(%rbp)
  40b708:	48 89 4d d0          	mov    %rcx,-0x30(%rbp)
  40b70c:	48 8b 45 e8          	mov    -0x18(%rbp),%rax
  40b710:	be 01 00 00 00       	mov    $0x1,%esi
  40b715:	48 89 c7             	mov    %rax,%rdi
  40b718:	e8 d7 af ff ff       	callq  4066f4 <_ZNK11arm_compute6WindowixEm>
  40b71d:	48 89 45 f8          	mov    %rax,-0x8(%rbp)
  40b721:	48 8b 45 f8          	mov    -0x8(%rbp),%rax
  40b725:	48 89 c7             	mov    %rax,%rdi
  40b728:	e8 23 af ff ff       	callq  406650 <_ZNK11arm_compute6Window9Dimension5startEv>
  40b72d:	89 45 f4             	mov    %eax,-0xc(%rbp)
  40b730:	48 8b 45 f8          	mov    -0x8(%rbp),%rax
  40b734:	48 89 c7             	mov    %rax,%rdi
  40b737:	e8 24 af ff ff       	callq  406660 <_ZNK11arm_compute6Window9Dimension3endEv>
  40b73c:	3b 45 f4             	cmp    -0xc(%rbp),%eax
  40b73f:	0f 9f c0             	setg   %al
  40b742:	84 c0                	test   %al,%al
  40b744:	74 49                	je     40b78f <_ZN11arm_compute16ForEachDimensionILm2EE6unrollIRZN2CK5armcl23copy_raw_data_to_tensorIfEEvPNS_8CLTensorEPT_RKNS3_5ShapeEEUlRKNS_11CoordinatesEE_IRNS_8IteratorEEEEvRKNS_6WindowERSD_OS8_DpOT0_+0x9b>
  40b746:	48 8b 45 e0          	mov    -0x20(%rbp),%rax
  40b74a:	8b 55 f4             	mov    -0xc(%rbp),%edx
  40b74d:	be 01 00 00 00       	mov    $0x1,%esi
  40b752:	48 89 c7             	mov    %rax,%rdi
  40b755:	e8 64 ca ff ff       	callq  4081be <_ZN11arm_compute10DimensionsIiE3setEmi>
  40b75a:	48 8b 4d d0          	mov    -0x30(%rbp),%rcx
  40b75e:	48 8b 55 d8          	mov    -0x28(%rbp),%rdx
  40b762:	48 8b 75 e0          	mov    -0x20(%rbp),%rsi
  40b766:	48 8b 45 e8          	mov    -0x18(%rbp),%rax
  40b76a:	48 89 c7             	mov    %rax,%rdi
  40b76d:	e8 6c 01 00 00       	callq  40b8de <_ZN11arm_compute16ForEachDimensionILm1EE6unrollIRZN2CK5armcl23copy_raw_data_to_tensorIfEEvPNS_8CLTensorEPT_RKNS3_5ShapeEEUlRKNS_11CoordinatesEE_IRNS_8IteratorEEEEvRKNS_6WindowERSD_OS8_DpOT0_>
  40b772:	48 8b 45 f8          	mov    -0x8(%rbp),%rax
  40b776:	48 89 c7             	mov    %rax,%rdi
  40b779:	e8 f4 ae ff ff       	callq  406672 <_ZNK11arm_compute6Window9Dimension4stepEv>
  40b77e:	01 45 f4             	add    %eax,-0xc(%rbp)
  40b781:	48 8b 45 d0          	mov    -0x30(%rbp),%rax
  40b785:	48 89 c7             	mov    %rax,%rdi
  40b788:	e8 31 01 00 00       	callq  40b8be <_ZN11arm_compute18IncrementIteratorsILm1EE6unrollIRNS_8IteratorEEEvOT_>
  40b78d:	eb a1                	jmp    40b730 <_ZN11arm_compute16ForEachDimensionILm2EE6unrollIRZN2CK5armcl23copy_raw_data_to_tensorIfEEvPNS_8CLTensorEPT_RKNS3_5ShapeEEUlRKNS_11CoordinatesEE_IRNS_8IteratorEEEEvRKNS_6WindowERSD_OS8_DpOT0_+0x3c>
  40b78f:	90                   	nop
  40b790:	c9                   	leaveq 
  40b791:	c3                   	retq   

000000000040b792 <_ZN11arm_compute16ForEachDimensionILm2EE6unrollIRZN2CK5armcl25copy_raw_data_from_tensorIfEEvPNS_8CLTensorEPT_RKNS3_5ShapeEEUlRKNS_11CoordinatesEE_IRNS_8IteratorEEEEvRKNS_6WindowERSD_OS8_DpOT0_>:
  40b792:	55                   	push   %rbp
  40b793:	48 89 e5             	mov    %rsp,%rbp
  40b796:	48 83 ec 30          	sub    $0x30,%rsp
  40b79a:	48 89 7d e8          	mov    %rdi,-0x18(%rbp)
  40b79e:	48 89 75 e0          	mov    %rsi,-0x20(%rbp)
  40b7a2:	48 89 55 d8          	mov    %rdx,-0x28(%rbp)
  40b7a6:	48 89 4d d0          	mov    %rcx,-0x30(%rbp)
  40b7aa:	48 8b 45 e8          	mov    -0x18(%rbp),%rax
  40b7ae:	be 01 00 00 00       	mov    $0x1,%esi
  40b7b3:	48 89 c7             	mov    %rax,%rdi
  40b7b6:	e8 39 af ff ff       	callq  4066f4 <_ZNK11arm_compute6WindowixEm>
  40b7bb:	48 89 45 f8          	mov    %rax,-0x8(%rbp)
  40b7bf:	48 8b 45 f8          	mov    -0x8(%rbp),%rax
  40b7c3:	48 89 c7             	mov    %rax,%rdi
  40b7c6:	e8 85 ae ff ff       	callq  406650 <_ZNK11arm_compute6Window9Dimension5startEv>
  40b7cb:	89 45 f4             	mov    %eax,-0xc(%rbp)
  40b7ce:	48 8b 45 f8          	mov    -0x8(%rbp),%rax
  40b7d2:	48 89 c7             	mov    %rax,%rdi
  40b7d5:	e8 86 ae ff ff       	callq  406660 <_ZNK11arm_compute6Window9Dimension3endEv>
  40b7da:	3b 45 f4             	cmp    -0xc(%rbp),%eax
  40b7dd:	0f 9f c0             	setg   %al
  40b7e0:	84 c0                	test   %al,%al
  40b7e2:	74 49                	je     40b82d <_ZN11arm_compute16ForEachDimensionILm2EE6unrollIRZN2CK5armcl25copy_raw_data_from_tensorIfEEvPNS_8CLTensorEPT_RKNS3_5ShapeEEUlRKNS_11CoordinatesEE_IRNS_8IteratorEEEEvRKNS_6WindowERSD_OS8_DpOT0_+0x9b>
  40b7e4:	48 8b 45 e0          	mov    -0x20(%rbp),%rax
  40b7e8:	8b 55 f4             	mov    -0xc(%rbp),%edx
  40b7eb:	be 01 00 00 00       	mov    $0x1,%esi
  40b7f0:	48 89 c7             	mov    %rax,%rdi
  40b7f3:	e8 c6 c9 ff ff       	callq  4081be <_ZN11arm_compute10DimensionsIiE3setEmi>
  40b7f8:	48 8b 4d d0          	mov    -0x30(%rbp),%rcx
  40b7fc:	48 8b 55 d8          	mov    -0x28(%rbp),%rdx
  40b800:	48 8b 75 e0          	mov    -0x20(%rbp),%rsi
  40b804:	48 8b 45 e8          	mov    -0x18(%rbp),%rax
  40b808:	48 89 c7             	mov    %rax,%rdi
  40b80b:	e8 6c 01 00 00       	callq  40b97c <_ZN11arm_compute16ForEachDimensionILm1EE6unrollIRZN2CK5armcl25copy_raw_data_from_tensorIfEEvPNS_8CLTensorEPT_RKNS3_5ShapeEEUlRKNS_11CoordinatesEE_IRNS_8IteratorEEEEvRKNS_6WindowERSD_OS8_DpOT0_>
  40b810:	48 8b 45 f8          	mov    -0x8(%rbp),%rax
  40b814:	48 89 c7             	mov    %rax,%rdi
  40b817:	e8 56 ae ff ff       	callq  406672 <_ZNK11arm_compute6Window9Dimension4stepEv>
  40b81c:	01 45 f4             	add    %eax,-0xc(%rbp)
  40b81f:	48 8b 45 d0          	mov    -0x30(%rbp),%rax
  40b823:	48 89 c7             	mov    %rax,%rdi
  40b826:	e8 93 00 00 00       	callq  40b8be <_ZN11arm_compute18IncrementIteratorsILm1EE6unrollIRNS_8IteratorEEEvOT_>
  40b82b:	eb a1                	jmp    40b7ce <_ZN11arm_compute16ForEachDimensionILm2EE6unrollIRZN2CK5armcl25copy_raw_data_from_tensorIfEEvPNS_8CLTensorEPT_RKNS3_5ShapeEEUlRKNS_11CoordinatesEE_IRNS_8IteratorEEEEvRKNS_6WindowERSD_OS8_DpOT0_+0x3c>
  40b82d:	90                   	nop
  40b82e:	c9                   	leaveq 
  40b82f:	c3                   	retq   

000000000040b830 <_ZNSt10_Iter_baseIPP15_cl_platform_idLb0EE7_S_baseES2_>:
  40b830:	55                   	push   %rbp
  40b831:	48 89 e5             	mov    %rsp,%rbp
  40b834:	48 89 7d f8          	mov    %rdi,-0x8(%rbp)
  40b838:	48 8b 45 f8          	mov    -0x8(%rbp),%rax
  40b83c:	5d                   	pop    %rbp
  40b83d:	c3                   	retq   

000000000040b83e <_ZNSt10_Iter_baseIPP13_cl_device_idLb0EE7_S_baseES2_>:
  40b83e:	55                   	push   %rbp
  40b83f:	48 89 e5             	mov    %rsp,%rbp
  40b842:	48 89 7d f8          	mov    %rdi,-0x8(%rbp)
  40b846:	48 8b 45 f8          	mov    -0x8(%rbp),%rax
  40b84a:	5d                   	pop    %rbp
  40b84b:	c3                   	retq   

000000000040b84c <_ZSteqIPN2cl6DeviceEEbRKSt13move_iteratorIT_ES7_>:
  40b84c:	55                   	push   %rbp
  40b84d:	48 89 e5             	mov    %rsp,%rbp
  40b850:	53                   	push   %rbx
  40b851:	48 83 ec 18          	sub    $0x18,%rsp
  40b855:	48 89 7d e8          	mov    %rdi,-0x18(%rbp)
  40b859:	48 89 75 e0          	mov    %rsi,-0x20(%rbp)
  40b85d:	48 8b 45 e8          	mov    -0x18(%rbp),%rax
  40b861:	48 89 c7             	mov    %rax,%rdi
  40b864:	e8 b1 01 00 00       	callq  40ba1a <_ZNKSt13move_iteratorIPN2cl6DeviceEE4baseEv>
  40b869:	48 89 c3             	mov    %rax,%rbx
  40b86c:	48 8b 45 e0          	mov    -0x20(%rbp),%rax
  40b870:	48 89 c7             	mov    %rax,%rdi
  40b873:	e8 a2 01 00 00       	callq  40ba1a <_ZNKSt13move_iteratorIPN2cl6DeviceEE4baseEv>
  40b878:	48 39 c3             	cmp    %rax,%rbx
  40b87b:	0f 94 c0             	sete   %al
  40b87e:	48 83 c4 18          	add    $0x18,%rsp
  40b882:	5b                   	pop    %rbx
  40b883:	5d                   	pop    %rbp
  40b884:	c3                   	retq   

000000000040b885 <_ZSteqIPN2cl8PlatformEEbRKSt13move_iteratorIT_ES7_>:
  40b885:	55                   	push   %rbp
  40b886:	48 89 e5             	mov    %rsp,%rbp
  40b889:	53                   	push   %rbx
  40b88a:	48 83 ec 18          	sub    $0x18,%rsp
  40b88e:	48 89 7d e8          	mov    %rdi,-0x18(%rbp)
  40b892:	48 89 75 e0          	mov    %rsi,-0x20(%rbp)
  40b896:	48 8b 45 e8          	mov    -0x18(%rbp),%rax
  40b89a:	48 89 c7             	mov    %rax,%rdi
  40b89d:	e8 8a 01 00 00       	callq  40ba2c <_ZNKSt13move_iteratorIPN2cl8PlatformEE4baseEv>
  40b8a2:	48 89 c3             	mov    %rax,%rbx
  40b8a5:	48 8b 45 e0          	mov    -0x20(%rbp),%rax
  40b8a9:	48 89 c7             	mov    %rax,%rdi
  40b8ac:	e8 7b 01 00 00       	callq  40ba2c <_ZNKSt13move_iteratorIPN2cl8PlatformEE4baseEv>
  40b8b1:	48 39 c3             	cmp    %rax,%rbx
  40b8b4:	0f 94 c0             	sete   %al
  40b8b7:	48 83 c4 18          	add    $0x18,%rsp
  40b8bb:	5b                   	pop    %rbx
  40b8bc:	5d                   	pop    %rbp
  40b8bd:	c3                   	retq   

000000000040b8be <_ZN11arm_compute18IncrementIteratorsILm1EE6unrollIRNS_8IteratorEEEvOT_>:
  40b8be:	55                   	push   %rbp
  40b8bf:	48 89 e5             	mov    %rsp,%rbp
  40b8c2:	48 83 ec 10          	sub    $0x10,%rsp
  40b8c6:	48 89 7d f8          	mov    %rdi,-0x8(%rbp)
  40b8ca:	48 8b 45 f8          	mov    -0x8(%rbp),%rax
  40b8ce:	be 01 00 00 00       	mov    $0x1,%esi
  40b8d3:	48 89 c7             	mov    %rax,%rdi
  40b8d6:	e8 5f b2 ff ff       	callq  406b3a <_ZN11arm_compute8Iterator9incrementEm>
  40b8db:	90                   	nop
  40b8dc:	c9                   	leaveq 
  40b8dd:	c3                   	retq   

000000000040b8de <_ZN11arm_compute16ForEachDimensionILm1EE6unrollIRZN2CK5armcl23copy_raw_data_to_tensorIfEEvPNS_8CLTensorEPT_RKNS3_5ShapeEEUlRKNS_11CoordinatesEE_IRNS_8IteratorEEEEvRKNS_6WindowERSD_OS8_DpOT0_>:
  40b8de:	55                   	push   %rbp
  40b8df:	48 89 e5             	mov    %rsp,%rbp
  40b8e2:	48 83 ec 30          	sub    $0x30,%rsp
  40b8e6:	48 89 7d e8          	mov    %rdi,-0x18(%rbp)
  40b8ea:	48 89 75 e0          	mov    %rsi,-0x20(%rbp)
  40b8ee:	48 89 55 d8          	mov    %rdx,-0x28(%rbp)
  40b8f2:	48 89 4d d0          	mov    %rcx,-0x30(%rbp)
  40b8f6:	48 8b 45 e8          	mov    -0x18(%rbp),%rax
  40b8fa:	be 00 00 00 00       	mov    $0x0,%esi
  40b8ff:	48 89 c7             	mov    %rax,%rdi
  40b902:	e8 ed ad ff ff       	callq  4066f4 <_ZNK11arm_compute6WindowixEm>
  40b907:	48 89 45 f8          	mov    %rax,-0x8(%rbp)
  40b90b:	48 8b 45 f8          	mov    -0x8(%rbp),%rax
  40b90f:	48 89 c7             	mov    %rax,%rdi
  40b912:	e8 39 ad ff ff       	callq  406650 <_ZNK11arm_compute6Window9Dimension5startEv>
  40b917:	89 45 f4             	mov    %eax,-0xc(%rbp)
  40b91a:	48 8b 45 f8          	mov    -0x8(%rbp),%rax
  40b91e:	48 89 c7             	mov    %rax,%rdi
  40b921:	e8 3a ad ff ff       	callq  406660 <_ZNK11arm_compute6Window9Dimension3endEv>
  40b926:	3b 45 f4             	cmp    -0xc(%rbp),%eax
  40b929:	0f 9f c0             	setg   %al
  40b92c:	84 c0                	test   %al,%al
  40b92e:	74 49                	je     40b979 <_ZN11arm_compute16ForEachDimensionILm1EE6unrollIRZN2CK5armcl23copy_raw_data_to_tensorIfEEvPNS_8CLTensorEPT_RKNS3_5ShapeEEUlRKNS_11CoordinatesEE_IRNS_8IteratorEEEEvRKNS_6WindowERSD_OS8_DpOT0_+0x9b>
  40b930:	48 8b 45 e0          	mov    -0x20(%rbp),%rax
  40b934:	8b 55 f4             	mov    -0xc(%rbp),%edx
  40b937:	be 00 00 00 00       	mov    $0x0,%esi
  40b93c:	48 89 c7             	mov    %rax,%rdi
  40b93f:	e8 7a c8 ff ff       	callq  4081be <_ZN11arm_compute10DimensionsIiE3setEmi>
  40b944:	48 8b 4d d0          	mov    -0x30(%rbp),%rcx
  40b948:	48 8b 55 d8          	mov    -0x28(%rbp),%rdx
  40b94c:	48 8b 75 e0          	mov    -0x20(%rbp),%rsi
  40b950:	48 8b 45 e8          	mov    -0x18(%rbp),%rax
  40b954:	48 89 c7             	mov    %rax,%rdi
  40b957:	e8 01 01 00 00       	callq  40ba5d <_ZN11arm_compute16ForEachDimensionILm0EE6unrollIRZN2CK5armcl23copy_raw_data_to_tensorIfEEvPNS_8CLTensorEPT_RKNS3_5ShapeEEUlRKNS_11CoordinatesEE_IRNS_8IteratorEEEEvRKNS_6WindowERSD_OS8_DpOT0_>
  40b95c:	48 8b 45 f8          	mov    -0x8(%rbp),%rax
  40b960:	48 89 c7             	mov    %rax,%rdi
  40b963:	e8 0a ad ff ff       	callq  406672 <_ZNK11arm_compute6Window9Dimension4stepEv>
  40b968:	01 45 f4             	add    %eax,-0xc(%rbp)
  40b96b:	48 8b 45 d0          	mov    -0x30(%rbp),%rax
  40b96f:	48 89 c7             	mov    %rax,%rdi
  40b972:	e8 c6 00 00 00       	callq  40ba3d <_ZN11arm_compute18IncrementIteratorsILm0EE6unrollIRNS_8IteratorEEEvOT_>
  40b977:	eb a1                	jmp    40b91a <_ZN11arm_compute16ForEachDimensionILm1EE6unrollIRZN2CK5armcl23copy_raw_data_to_tensorIfEEvPNS_8CLTensorEPT_RKNS3_5ShapeEEUlRKNS_11CoordinatesEE_IRNS_8IteratorEEEEvRKNS_6WindowERSD_OS8_DpOT0_+0x3c>
  40b979:	90                   	nop
  40b97a:	c9                   	leaveq 
  40b97b:	c3                   	retq   

000000000040b97c <_ZN11arm_compute16ForEachDimensionILm1EE6unrollIRZN2CK5armcl25copy_raw_data_from_tensorIfEEvPNS_8CLTensorEPT_RKNS3_5ShapeEEUlRKNS_11CoordinatesEE_IRNS_8IteratorEEEEvRKNS_6WindowERSD_OS8_DpOT0_>:
  40b97c:	55                   	push   %rbp
  40b97d:	48 89 e5             	mov    %rsp,%rbp
  40b980:	48 83 ec 30          	sub    $0x30,%rsp
  40b984:	48 89 7d e8          	mov    %rdi,-0x18(%rbp)
  40b988:	48 89 75 e0          	mov    %rsi,-0x20(%rbp)
  40b98c:	48 89 55 d8          	mov    %rdx,-0x28(%rbp)
  40b990:	48 89 4d d0          	mov    %rcx,-0x30(%rbp)
  40b994:	48 8b 45 e8          	mov    -0x18(%rbp),%rax
  40b998:	be 00 00 00 00       	mov    $0x0,%esi
  40b99d:	48 89 c7             	mov    %rax,%rdi
  40b9a0:	e8 4f ad ff ff       	callq  4066f4 <_ZNK11arm_compute6WindowixEm>
  40b9a5:	48 89 45 f8          	mov    %rax,-0x8(%rbp)
  40b9a9:	48 8b 45 f8          	mov    -0x8(%rbp),%rax
  40b9ad:	48 89 c7             	mov    %rax,%rdi
  40b9b0:	e8 9b ac ff ff       	callq  406650 <_ZNK11arm_compute6Window9Dimension5startEv>
  40b9b5:	89 45 f4             	mov    %eax,-0xc(%rbp)
  40b9b8:	48 8b 45 f8          	mov    -0x8(%rbp),%rax
  40b9bc:	48 89 c7             	mov    %rax,%rdi
  40b9bf:	e8 9c ac ff ff       	callq  406660 <_ZNK11arm_compute6Window9Dimension3endEv>
  40b9c4:	3b 45 f4             	cmp    -0xc(%rbp),%eax
  40b9c7:	0f 9f c0             	setg   %al
  40b9ca:	84 c0                	test   %al,%al
  40b9cc:	74 49                	je     40ba17 <_ZN11arm_compute16ForEachDimensionILm1EE6unrollIRZN2CK5armcl25copy_raw_data_from_tensorIfEEvPNS_8CLTensorEPT_RKNS3_5ShapeEEUlRKNS_11CoordinatesEE_IRNS_8IteratorEEEEvRKNS_6WindowERSD_OS8_DpOT0_+0x9b>
  40b9ce:	48 8b 45 e0          	mov    -0x20(%rbp),%rax
  40b9d2:	8b 55 f4             	mov    -0xc(%rbp),%edx
  40b9d5:	be 00 00 00 00       	mov    $0x0,%esi
  40b9da:	48 89 c7             	mov    %rax,%rdi
  40b9dd:	e8 dc c7 ff ff       	callq  4081be <_ZN11arm_compute10DimensionsIiE3setEmi>
  40b9e2:	48 8b 4d d0          	mov    -0x30(%rbp),%rcx
  40b9e6:	48 8b 55 d8          	mov    -0x28(%rbp),%rdx
  40b9ea:	48 8b 75 e0          	mov    -0x20(%rbp),%rsi
  40b9ee:	48 8b 45 e8          	mov    -0x18(%rbp),%rax
  40b9f2:	48 89 c7             	mov    %rax,%rdi
  40b9f5:	e8 91 00 00 00       	callq  40ba8b <_ZN11arm_compute16ForEachDimensionILm0EE6unrollIRZN2CK5armcl25copy_raw_data_from_tensorIfEEvPNS_8CLTensorEPT_RKNS3_5ShapeEEUlRKNS_11CoordinatesEE_IRNS_8IteratorEEEEvRKNS_6WindowERSD_OS8_DpOT0_>
  40b9fa:	48 8b 45 f8          	mov    -0x8(%rbp),%rax
  40b9fe:	48 89 c7             	mov    %rax,%rdi
  40ba01:	e8 6c ac ff ff       	callq  406672 <_ZNK11arm_compute6Window9Dimension4stepEv>
  40ba06:	01 45 f4             	add    %eax,-0xc(%rbp)
  40ba09:	48 8b 45 d0          	mov    -0x30(%rbp),%rax
  40ba0d:	48 89 c7             	mov    %rax,%rdi
  40ba10:	e8 28 00 00 00       	callq  40ba3d <_ZN11arm_compute18IncrementIteratorsILm0EE6unrollIRNS_8IteratorEEEvOT_>
  40ba15:	eb a1                	jmp    40b9b8 <_ZN11arm_compute16ForEachDimensionILm1EE6unrollIRZN2CK5armcl25copy_raw_data_from_tensorIfEEvPNS_8CLTensorEPT_RKNS3_5ShapeEEUlRKNS_11CoordinatesEE_IRNS_8IteratorEEEEvRKNS_6WindowERSD_OS8_DpOT0_+0x3c>
  40ba17:	90                   	nop
  40ba18:	c9                   	leaveq 
  40ba19:	c3                   	retq   

000000000040ba1a <_ZNKSt13move_iteratorIPN2cl6DeviceEE4baseEv>:
  40ba1a:	55                   	push   %rbp
  40ba1b:	48 89 e5             	mov    %rsp,%rbp
  40ba1e:	48 89 7d f8          	mov    %rdi,-0x8(%rbp)
  40ba22:	48 8b 45 f8          	mov    -0x8(%rbp),%rax
  40ba26:	48 8b 00             	mov    (%rax),%rax
  40ba29:	5d                   	pop    %rbp
  40ba2a:	c3                   	retq   
  40ba2b:	90                   	nop

000000000040ba2c <_ZNKSt13move_iteratorIPN2cl8PlatformEE4baseEv>:
  40ba2c:	55                   	push   %rbp
  40ba2d:	48 89 e5             	mov    %rsp,%rbp
  40ba30:	48 89 7d f8          	mov    %rdi,-0x8(%rbp)
  40ba34:	48 8b 45 f8          	mov    -0x8(%rbp),%rax
  40ba38:	48 8b 00             	mov    (%rax),%rax
  40ba3b:	5d                   	pop    %rbp
  40ba3c:	c3                   	retq   

000000000040ba3d <_ZN11arm_compute18IncrementIteratorsILm0EE6unrollIRNS_8IteratorEEEvOT_>:
  40ba3d:	55                   	push   %rbp
  40ba3e:	48 89 e5             	mov    %rsp,%rbp
  40ba41:	48 83 ec 10          	sub    $0x10,%rsp
  40ba45:	48 89 7d f8          	mov    %rdi,-0x8(%rbp)
  40ba49:	48 8b 45 f8          	mov    -0x8(%rbp),%rax
  40ba4d:	be 00 00 00 00       	mov    $0x0,%esi
  40ba52:	48 89 c7             	mov    %rax,%rdi
  40ba55:	e8 e0 b0 ff ff       	callq  406b3a <_ZN11arm_compute8Iterator9incrementEm>
  40ba5a:	90                   	nop
  40ba5b:	c9                   	leaveq 
  40ba5c:	c3                   	retq   

000000000040ba5d <_ZN11arm_compute16ForEachDimensionILm0EE6unrollIRZN2CK5armcl23copy_raw_data_to_tensorIfEEvPNS_8CLTensorEPT_RKNS3_5ShapeEEUlRKNS_11CoordinatesEE_IRNS_8IteratorEEEEvRKNS_6WindowERSD_OS8_DpOT0_>:
  40ba5d:	55                   	push   %rbp
  40ba5e:	48 89 e5             	mov    %rsp,%rbp
  40ba61:	48 83 ec 20          	sub    $0x20,%rsp
  40ba65:	48 89 7d f8          	mov    %rdi,-0x8(%rbp)
  40ba69:	48 89 75 f0          	mov    %rsi,-0x10(%rbp)
  40ba6d:	48 89 55 e8          	mov    %rdx,-0x18(%rbp)
  40ba71:	48 89 4d e0          	mov    %rcx,-0x20(%rbp)
  40ba75:	48 8b 55 f0          	mov    -0x10(%rbp),%rdx
  40ba79:	48 8b 45 e8          	mov    -0x18(%rbp),%rax
  40ba7d:	48 89 d6             	mov    %rdx,%rsi
  40ba80:	48 89 c7             	mov    %rax,%rdi
  40ba83:	e8 58 ca ff ff       	callq  4084e0 <_ZZN2CK5armcl23copy_raw_data_to_tensorIfEEvPN11arm_compute8CLTensorEPT_RKNS_5ShapeEENKUlRKNS2_11CoordinatesEE_clESC_>
  40ba88:	90                   	nop
  40ba89:	c9                   	leaveq 
  40ba8a:	c3                   	retq   

000000000040ba8b <_ZN11arm_compute16ForEachDimensionILm0EE6unrollIRZN2CK5armcl25copy_raw_data_from_tensorIfEEvPNS_8CLTensorEPT_RKNS3_5ShapeEEUlRKNS_11CoordinatesEE_IRNS_8IteratorEEEEvRKNS_6WindowERSD_OS8_DpOT0_>:
  40ba8b:	55                   	push   %rbp
  40ba8c:	48 89 e5             	mov    %rsp,%rbp
  40ba8f:	48 83 ec 20          	sub    $0x20,%rsp
  40ba93:	48 89 7d f8          	mov    %rdi,-0x8(%rbp)
  40ba97:	48 89 75 f0          	mov    %rsi,-0x10(%rbp)
  40ba9b:	48 89 55 e8          	mov    %rdx,-0x18(%rbp)
  40ba9f:	48 89 4d e0          	mov    %rcx,-0x20(%rbp)
  40baa3:	48 8b 55 f0          	mov    -0x10(%rbp),%rdx
  40baa7:	48 8b 45 e8          	mov    -0x18(%rbp),%rax
  40baab:	48 89 d6             	mov    %rdx,%rsi
  40baae:	48 89 c7             	mov    %rax,%rdi
  40bab1:	e8 26 cc ff ff       	callq  4086dc <_ZZN2CK5armcl25copy_raw_data_from_tensorIfEEvPN11arm_compute8CLTensorEPT_RKNS_5ShapeEENKUlRKNS2_11CoordinatesEE_clESC_>
  40bab6:	90                   	nop
  40bab7:	c9                   	leaveq 
  40bab8:	c3                   	retq   
  40bab9:	90                   	nop

000000000040baba <_ZN11arm_compute7ITensorD1Ev>:
  40baba:	55                   	push   %rbp
  40babb:	48 89 e5             	mov    %rsp,%rbp
  40babe:	48 83 ec 10          	sub    $0x10,%rsp
  40bac2:	48 89 7d f8          	mov    %rdi,-0x8(%rbp)
  40bac6:	ba 60 cb 40 00       	mov    $0x40cb60,%edx
  40bacb:	48 8b 45 f8          	mov    -0x8(%rbp),%rax
  40bacf:	48 89 10             	mov    %rdx,(%rax)
  40bad2:	b8 00 00 00 00       	mov    $0x0,%eax
  40bad7:	85 c0                	test   %eax,%eax
  40bad9:	74 0c                	je     40bae7 <_ZN11arm_compute7ITensorD1Ev+0x2d>
  40badb:	48 8b 45 f8          	mov    -0x8(%rbp),%rax
  40badf:	48 89 c7             	mov    %rax,%rdi
  40bae2:	e8 09 83 ff ff       	callq  403df0 <_ZdlPv@plt>
  40bae7:	c9                   	leaveq 
  40bae8:	c3                   	retq   
  40bae9:	90                   	nop

000000000040baea <_ZN11arm_compute7ITensorD0Ev>:
  40baea:	55                   	push   %rbp
  40baeb:	48 89 e5             	mov    %rsp,%rbp
  40baee:	48 83 ec 10          	sub    $0x10,%rsp
  40baf2:	48 89 7d f8          	mov    %rdi,-0x8(%rbp)
  40baf6:	48 8b 45 f8          	mov    -0x8(%rbp),%rax
  40bafa:	48 89 c7             	mov    %rax,%rdi
  40bafd:	e8 b8 ff ff ff       	callq  40baba <_ZN11arm_compute7ITensorD1Ev>
  40bb02:	48 8b 45 f8          	mov    -0x8(%rbp),%rax
  40bb06:	48 89 c7             	mov    %rax,%rdi
  40bb09:	e8 e2 82 ff ff       	callq  403df0 <_ZdlPv@plt>
  40bb0e:	c9                   	leaveq 
  40bb0f:	c3                   	retq   

000000000040bb10 <_ZN11arm_compute9ICLTensorD1Ev>:
  40bb10:	55                   	push   %rbp
  40bb11:	48 89 e5             	mov    %rsp,%rbp
  40bb14:	48 83 ec 10          	sub    $0x10,%rsp
  40bb18:	48 89 7d f8          	mov    %rdi,-0x8(%rbp)
  40bb1c:	ba c8 35 61 00       	mov    $0x6135c8,%edx
  40bb21:	48 8b 45 f8          	mov    -0x8(%rbp),%rax
  40bb25:	48 89 10             	mov    %rdx,(%rax)
  40bb28:	48 8b 45 f8          	mov    -0x8(%rbp),%rax
  40bb2c:	48 89 c7             	mov    %rax,%rdi
  40bb2f:	e8 86 ff ff ff       	callq  40baba <_ZN11arm_compute7ITensorD1Ev>
  40bb34:	b8 00 00 00 00       	mov    $0x0,%eax
  40bb39:	85 c0                	test   %eax,%eax
  40bb3b:	74 0c                	je     40bb49 <_ZN11arm_compute9ICLTensorD1Ev+0x39>
  40bb3d:	48 8b 45 f8          	mov    -0x8(%rbp),%rax
  40bb41:	48 89 c7             	mov    %rax,%rdi
  40bb44:	e8 a7 82 ff ff       	callq  403df0 <_ZdlPv@plt>
  40bb49:	c9                   	leaveq 
  40bb4a:	c3                   	retq   
  40bb4b:	90                   	nop

000000000040bb4c <_ZN11arm_compute9ICLTensorD0Ev>:
  40bb4c:	55                   	push   %rbp
  40bb4d:	48 89 e5             	mov    %rsp,%rbp
  40bb50:	48 83 ec 10          	sub    $0x10,%rsp
  40bb54:	48 89 7d f8          	mov    %rdi,-0x8(%rbp)
  40bb58:	48 8b 45 f8          	mov    -0x8(%rbp),%rax
  40bb5c:	48 89 c7             	mov    %rax,%rdi
  40bb5f:	e8 ac ff ff ff       	callq  40bb10 <_ZN11arm_compute9ICLTensorD1Ev>
  40bb64:	48 8b 45 f8          	mov    -0x8(%rbp),%rax
  40bb68:	48 89 c7             	mov    %rax,%rdi
  40bb6b:	e8 80 82 ff ff       	callq  403df0 <_ZdlPv@plt>
  40bb70:	c9                   	leaveq 
  40bb71:	c3                   	retq   

000000000040bb72 <_ZN11arm_compute8CLTensorD1Ev>:
  40bb72:	55                   	push   %rbp
  40bb73:	48 89 e5             	mov    %rsp,%rbp
  40bb76:	48 83 ec 10          	sub    $0x10,%rsp
  40bb7a:	48 89 7d f8          	mov    %rdi,-0x8(%rbp)
  40bb7e:	ba 00 34 61 00       	mov    $0x613400,%edx
  40bb83:	48 8b 45 f8          	mov    -0x8(%rbp),%rax
  40bb87:	48 89 10             	mov    %rdx,(%rax)
  40bb8a:	48 8b 45 f8          	mov    -0x8(%rbp),%rax
  40bb8e:	48 83 c0 10          	add    $0x10,%rax
  40bb92:	48 89 c7             	mov    %rax,%rdi
  40bb95:	e8 06 84 ff ff       	callq  403fa0 <_ZN11arm_compute17CLTensorAllocatorD1Ev@plt>
  40bb9a:	48 8b 45 f8          	mov    -0x8(%rbp),%rax
  40bb9e:	48 89 c7             	mov    %rax,%rdi
  40bba1:	e8 6a ff ff ff       	callq  40bb10 <_ZN11arm_compute9ICLTensorD1Ev>
  40bba6:	b8 00 00 00 00       	mov    $0x0,%eax
  40bbab:	85 c0                	test   %eax,%eax
  40bbad:	74 0c                	je     40bbbb <_ZN11arm_compute8CLTensorD1Ev+0x49>
  40bbaf:	48 8b 45 f8          	mov    -0x8(%rbp),%rax
  40bbb3:	48 89 c7             	mov    %rax,%rdi
  40bbb6:	e8 35 82 ff ff       	callq  403df0 <_ZdlPv@plt>
  40bbbb:	c9                   	leaveq 
  40bbbc:	c3                   	retq   
  40bbbd:	90                   	nop

000000000040bbbe <_ZN11arm_compute8CLTensorD0Ev>:
  40bbbe:	55                   	push   %rbp
  40bbbf:	48 89 e5             	mov    %rsp,%rbp
  40bbc2:	48 83 ec 10          	sub    $0x10,%rsp
  40bbc6:	48 89 7d f8          	mov    %rdi,-0x8(%rbp)
  40bbca:	48 8b 45 f8          	mov    -0x8(%rbp),%rax
  40bbce:	48 89 c7             	mov    %rax,%rdi
  40bbd1:	e8 9c ff ff ff       	callq  40bb72 <_ZN11arm_compute8CLTensorD1Ev>
  40bbd6:	48 8b 45 f8          	mov    -0x8(%rbp),%rax
  40bbda:	48 89 c7             	mov    %rax,%rdi
  40bbdd:	e8 0e 82 ff ff       	callq  403df0 <_ZdlPv@plt>
  40bbe2:	c9                   	leaveq 
  40bbe3:	c3                   	retq   

000000000040bbe4 <_ZN11arm_compute9IFunctionD1Ev>:
  40bbe4:	55                   	push   %rbp
  40bbe5:	48 89 e5             	mov    %rsp,%rbp
  40bbe8:	48 83 ec 10          	sub    $0x10,%rsp
  40bbec:	48 89 7d f8          	mov    %rdi,-0x8(%rbp)
  40bbf0:	ba 58 ca 40 00       	mov    $0x40ca58,%edx
  40bbf5:	48 8b 45 f8          	mov    -0x8(%rbp),%rax
  40bbf9:	48 89 10             	mov    %rdx,(%rax)
  40bbfc:	b8 00 00 00 00       	mov    $0x0,%eax
  40bc01:	85 c0                	test   %eax,%eax
  40bc03:	74 0c                	je     40bc11 <_ZN11arm_compute9IFunctionD1Ev+0x2d>
  40bc05:	48 8b 45 f8          	mov    -0x8(%rbp),%rax
  40bc09:	48 89 c7             	mov    %rax,%rdi
  40bc0c:	e8 df 81 ff ff       	callq  403df0 <_ZdlPv@plt>
  40bc11:	c9                   	leaveq 
  40bc12:	c3                   	retq   
  40bc13:	90                   	nop

000000000040bc14 <_ZN11arm_compute9IFunctionD0Ev>:
  40bc14:	55                   	push   %rbp
  40bc15:	48 89 e5             	mov    %rsp,%rbp
  40bc18:	48 83 ec 10          	sub    $0x10,%rsp
  40bc1c:	48 89 7d f8          	mov    %rdi,-0x8(%rbp)
  40bc20:	48 8b 45 f8          	mov    -0x8(%rbp),%rax
  40bc24:	48 89 c7             	mov    %rax,%rdi
  40bc27:	e8 b8 ff ff ff       	callq  40bbe4 <_ZN11arm_compute9IFunctionD1Ev>
  40bc2c:	48 8b 45 f8          	mov    -0x8(%rbp),%rax
  40bc30:	48 89 c7             	mov    %rax,%rdi
  40bc33:	e8 b8 81 ff ff       	callq  403df0 <_ZdlPv@plt>
  40bc38:	c9                   	leaveq 
  40bc39:	c3                   	retq   

000000000040bc3a <_ZN11arm_compute12IMemoryGroupD1Ev>:
  40bc3a:	55                   	push   %rbp
  40bc3b:	48 89 e5             	mov    %rsp,%rbp
  40bc3e:	48 83 ec 10          	sub    $0x10,%rsp
  40bc42:	48 89 7d f8          	mov    %rdi,-0x8(%rbp)
  40bc46:	ba b8 ca 40 00       	mov    $0x40cab8,%edx
  40bc4b:	48 8b 45 f8          	mov    -0x8(%rbp),%rax
  40bc4f:	48 89 10             	mov    %rdx,(%rax)
  40bc52:	b8 00 00 00 00       	mov    $0x0,%eax
  40bc57:	85 c0                	test   %eax,%eax
  40bc59:	74 0c                	je     40bc67 <_ZN11arm_compute12IMemoryGroupD1Ev+0x2d>
  40bc5b:	48 8b 45 f8          	mov    -0x8(%rbp),%rax
  40bc5f:	48 89 c7             	mov    %rax,%rdi
  40bc62:	e8 89 81 ff ff       	callq  403df0 <_ZdlPv@plt>
  40bc67:	c9                   	leaveq 
  40bc68:	c3                   	retq   
  40bc69:	90                   	nop

000000000040bc6a <_ZN11arm_compute12IMemoryGroupD0Ev>:
  40bc6a:	55                   	push   %rbp
  40bc6b:	48 89 e5             	mov    %rsp,%rbp
  40bc6e:	48 83 ec 10          	sub    $0x10,%rsp
  40bc72:	48 89 7d f8          	mov    %rdi,-0x8(%rbp)
  40bc76:	48 8b 45 f8          	mov    -0x8(%rbp),%rax
  40bc7a:	48 89 c7             	mov    %rax,%rdi
  40bc7d:	e8 b8 ff ff ff       	callq  40bc3a <_ZN11arm_compute12IMemoryGroupD1Ev>
  40bc82:	48 8b 45 f8          	mov    -0x8(%rbp),%rax
  40bc86:	48 89 c7             	mov    %rax,%rdi
  40bc89:	e8 62 81 ff ff       	callq  403df0 <_ZdlPv@plt>
  40bc8e:	c9                   	leaveq 
  40bc8f:	c3                   	retq   

000000000040bc90 <_ZNSt3mapIPPvmSt4lessIS1_ESaISt4pairIKS1_mEEED1Ev>:
  40bc90:	55                   	push   %rbp
  40bc91:	48 89 e5             	mov    %rsp,%rbp
  40bc94:	48 83 ec 10          	sub    $0x10,%rsp
  40bc98:	48 89 7d f8          	mov    %rdi,-0x8(%rbp)
  40bc9c:	48 8b 45 f8          	mov    -0x8(%rbp),%rax
  40bca0:	48 89 c7             	mov    %rax,%rdi
  40bca3:	e8 4a 05 00 00       	callq  40c1f2 <_ZNSt8_Rb_treeIPPvSt4pairIKS1_mESt10_Select1stIS4_ESt4lessIS1_ESaIS4_EED1Ev>
  40bca8:	90                   	nop
  40bca9:	c9                   	leaveq 
  40bcaa:	c3                   	retq   
  40bcab:	90                   	nop

000000000040bcac <_ZN11arm_compute15MemoryGroupBaseINS_8CLTensorEED1Ev>:
  40bcac:	55                   	push   %rbp
  40bcad:	48 89 e5             	mov    %rsp,%rbp
  40bcb0:	48 83 ec 10          	sub    $0x10,%rsp
  40bcb4:	48 89 7d f8          	mov    %rdi,-0x8(%rbp)
  40bcb8:	ba 80 ca 40 00       	mov    $0x40ca80,%edx
  40bcbd:	48 8b 45 f8          	mov    -0x8(%rbp),%rax
  40bcc1:	48 89 10             	mov    %rdx,(%rax)
  40bcc4:	48 8b 45 f8          	mov    -0x8(%rbp),%rax
  40bcc8:	48 83 c0 20          	add    $0x20,%rax
  40bccc:	48 89 c7             	mov    %rax,%rdi
  40bccf:	e8 bc ff ff ff       	callq  40bc90 <_ZNSt3mapIPPvmSt4lessIS1_ESaISt4pairIKS1_mEEED1Ev>
  40bcd4:	48 8b 45 f8          	mov    -0x8(%rbp),%rax
  40bcd8:	48 83 c0 08          	add    $0x8,%rax
  40bcdc:	48 89 c7             	mov    %rax,%rdi
  40bcdf:	e8 50 b7 ff ff       	callq  407434 <_ZNSt10shared_ptrIN11arm_compute14IMemoryManagerEED1Ev>
  40bce4:	48 8b 45 f8          	mov    -0x8(%rbp),%rax
  40bce8:	48 89 c7             	mov    %rax,%rdi
  40bceb:	e8 4a ff ff ff       	callq  40bc3a <_ZN11arm_compute12IMemoryGroupD1Ev>
  40bcf0:	b8 00 00 00 00       	mov    $0x0,%eax
  40bcf5:	85 c0                	test   %eax,%eax
  40bcf7:	74 0c                	je     40bd05 <_ZN11arm_compute15MemoryGroupBaseINS_8CLTensorEED1Ev+0x59>
  40bcf9:	48 8b 45 f8          	mov    -0x8(%rbp),%rax
  40bcfd:	48 89 c7             	mov    %rax,%rdi
  40bd00:	e8 eb 80 ff ff       	callq  403df0 <_ZdlPv@plt>
  40bd05:	c9                   	leaveq 
  40bd06:	c3                   	retq   
  40bd07:	90                   	nop

000000000040bd08 <_ZN11arm_compute15MemoryGroupBaseINS_8CLTensorEED0Ev>:
  40bd08:	55                   	push   %rbp
  40bd09:	48 89 e5             	mov    %rsp,%rbp
  40bd0c:	48 83 ec 10          	sub    $0x10,%rsp
  40bd10:	48 89 7d f8          	mov    %rdi,-0x8(%rbp)
  40bd14:	48 8b 45 f8          	mov    -0x8(%rbp),%rax
  40bd18:	48 89 c7             	mov    %rax,%rdi
  40bd1b:	e8 8c ff ff ff       	callq  40bcac <_ZN11arm_compute15MemoryGroupBaseINS_8CLTensorEED1Ev>
  40bd20:	48 8b 45 f8          	mov    -0x8(%rbp),%rax
  40bd24:	48 89 c7             	mov    %rax,%rdi
  40bd27:	e8 c4 80 ff ff       	callq  403df0 <_ZdlPv@plt>
  40bd2c:	c9                   	leaveq 
  40bd2d:	c3                   	retq   

000000000040bd2e <_ZN11arm_compute7IKernelD1Ev>:
  40bd2e:	55                   	push   %rbp
  40bd2f:	48 89 e5             	mov    %rsp,%rbp
  40bd32:	48 83 ec 10          	sub    $0x10,%rsp
  40bd36:	48 89 7d f8          	mov    %rdi,-0x8(%rbp)
  40bd3a:	ba 30 36 61 00       	mov    $0x613630,%edx
  40bd3f:	48 8b 45 f8          	mov    -0x8(%rbp),%rax
  40bd43:	48 89 10             	mov    %rdx,(%rax)
  40bd46:	b8 00 00 00 00       	mov    $0x0,%eax
  40bd4b:	85 c0                	test   %eax,%eax
  40bd4d:	74 0c                	je     40bd5b <_ZN11arm_compute7IKernelD1Ev+0x2d>
  40bd4f:	48 8b 45 f8          	mov    -0x8(%rbp),%rax
  40bd53:	48 89 c7             	mov    %rax,%rdi
  40bd56:	e8 95 80 ff ff       	callq  403df0 <_ZdlPv@plt>
  40bd5b:	c9                   	leaveq 
  40bd5c:	c3                   	retq   
  40bd5d:	90                   	nop

000000000040bd5e <_ZN11arm_compute7IKernelD0Ev>:
  40bd5e:	55                   	push   %rbp
  40bd5f:	48 89 e5             	mov    %rsp,%rbp
  40bd62:	48 83 ec 10          	sub    $0x10,%rsp
  40bd66:	48 89 7d f8          	mov    %rdi,-0x8(%rbp)
  40bd6a:	48 8b 45 f8          	mov    -0x8(%rbp),%rax
  40bd6e:	48 89 c7             	mov    %rax,%rdi
  40bd71:	e8 b8 ff ff ff       	callq  40bd2e <_ZN11arm_compute7IKernelD1Ev>
  40bd76:	48 8b 45 f8          	mov    -0x8(%rbp),%rax
  40bd7a:	48 89 c7             	mov    %rax,%rdi
  40bd7d:	e8 6e 80 ff ff       	callq  403df0 <_ZdlPv@plt>
  40bd82:	c9                   	leaveq 
  40bd83:	c3                   	retq   

000000000040bd84 <_ZN11arm_compute9ICLKernelD1Ev>:
  40bd84:	55                   	push   %rbp
  40bd85:	48 89 e5             	mov    %rsp,%rbp
  40bd88:	48 83 ec 10          	sub    $0x10,%rsp
  40bd8c:	48 89 7d f8          	mov    %rdi,-0x8(%rbp)
  40bd90:	ba 98 cb 40 00       	mov    $0x40cb98,%edx
  40bd95:	48 8b 45 f8          	mov    -0x8(%rbp),%rax
  40bd99:	48 89 10             	mov    %rdx,(%rax)
  40bd9c:	48 8b 45 f8          	mov    -0x8(%rbp),%rax
  40bda0:	48 83 c0 50          	add    $0x50,%rax
  40bda4:	48 89 c7             	mov    %rax,%rdi
  40bda7:	e8 ec a2 ff ff       	callq  406098 <_ZN2cl6KernelD1Ev>
  40bdac:	48 8b 45 f8          	mov    -0x8(%rbp),%rax
  40bdb0:	48 89 c7             	mov    %rax,%rdi
  40bdb3:	e8 76 ff ff ff       	callq  40bd2e <_ZN11arm_compute7IKernelD1Ev>
  40bdb8:	b8 00 00 00 00       	mov    $0x0,%eax
  40bdbd:	85 c0                	test   %eax,%eax
  40bdbf:	74 0c                	je     40bdcd <_ZN11arm_compute9ICLKernelD1Ev+0x49>
  40bdc1:	48 8b 45 f8          	mov    -0x8(%rbp),%rax
  40bdc5:	48 89 c7             	mov    %rax,%rdi
  40bdc8:	e8 23 80 ff ff       	callq  403df0 <_ZdlPv@plt>
  40bdcd:	c9                   	leaveq 
  40bdce:	c3                   	retq   
  40bdcf:	90                   	nop

000000000040bdd0 <_ZN11arm_compute9ICLKernelD0Ev>:
  40bdd0:	55                   	push   %rbp
  40bdd1:	48 89 e5             	mov    %rsp,%rbp
  40bdd4:	48 83 ec 10          	sub    $0x10,%rsp
  40bdd8:	48 89 7d f8          	mov    %rdi,-0x8(%rbp)
  40bddc:	48 8b 45 f8          	mov    -0x8(%rbp),%rax
  40bde0:	48 89 c7             	mov    %rax,%rdi
  40bde3:	e8 9c ff ff ff       	callq  40bd84 <_ZN11arm_compute9ICLKernelD1Ev>
  40bde8:	48 8b 45 f8          	mov    -0x8(%rbp),%rax
  40bdec:	48 89 c7             	mov    %rax,%rdi
  40bdef:	e8 fc 7f ff ff       	callq  403df0 <_ZdlPv@plt>
  40bdf4:	c9                   	leaveq 
  40bdf5:	c3                   	retq   

000000000040bdf6 <_ZN11arm_compute15ICLSimpleKernelD1Ev>:
  40bdf6:	55                   	push   %rbp
  40bdf7:	48 89 e5             	mov    %rsp,%rbp
  40bdfa:	48 83 ec 10          	sub    $0x10,%rsp
  40bdfe:	48 89 7d f8          	mov    %rdi,-0x8(%rbp)
  40be02:	ba 28 cb 40 00       	mov    $0x40cb28,%edx
  40be07:	48 8b 45 f8          	mov    -0x8(%rbp),%rax
  40be0b:	48 89 10             	mov    %rdx,(%rax)
  40be0e:	48 8b 45 f8          	mov    -0x8(%rbp),%rax
  40be12:	48 89 c7             	mov    %rax,%rdi
  40be15:	e8 6a ff ff ff       	callq  40bd84 <_ZN11arm_compute9ICLKernelD1Ev>
  40be1a:	b8 00 00 00 00       	mov    $0x0,%eax
  40be1f:	85 c0                	test   %eax,%eax
  40be21:	74 0c                	je     40be2f <_ZN11arm_compute15ICLSimpleKernelD1Ev+0x39>
  40be23:	48 8b 45 f8          	mov    -0x8(%rbp),%rax
  40be27:	48 89 c7             	mov    %rax,%rdi
  40be2a:	e8 c1 7f ff ff       	callq  403df0 <_ZdlPv@plt>
  40be2f:	c9                   	leaveq 
  40be30:	c3                   	retq   
  40be31:	90                   	nop

000000000040be32 <_ZN11arm_compute15ICLSimpleKernelD0Ev>:
  40be32:	55                   	push   %rbp
  40be33:	48 89 e5             	mov    %rsp,%rbp
  40be36:	48 83 ec 10          	sub    $0x10,%rsp
  40be3a:	48 89 7d f8          	mov    %rdi,-0x8(%rbp)
  40be3e:	48 8b 45 f8          	mov    -0x8(%rbp),%rax
  40be42:	48 89 c7             	mov    %rax,%rdi
  40be45:	e8 ac ff ff ff       	callq  40bdf6 <_ZN11arm_compute15ICLSimpleKernelD1Ev>
  40be4a:	48 8b 45 f8          	mov    -0x8(%rbp),%rax
  40be4e:	48 89 c7             	mov    %rax,%rdi
  40be51:	e8 9a 7f ff ff       	callq  403df0 <_ZdlPv@plt>
  40be56:	c9                   	leaveq 
  40be57:	c3                   	retq   

000000000040be58 <_ZN11arm_compute17ICLSimple2DKernelD1Ev>:
  40be58:	55                   	push   %rbp
  40be59:	48 89 e5             	mov    %rsp,%rbp
  40be5c:	48 83 ec 10          	sub    $0x10,%rsp
  40be60:	48 89 7d f8          	mov    %rdi,-0x8(%rbp)
  40be64:	ba 60 36 61 00       	mov    $0x613660,%edx
  40be69:	48 8b 45 f8          	mov    -0x8(%rbp),%rax
  40be6d:	48 89 10             	mov    %rdx,(%rax)
  40be70:	48 8b 45 f8          	mov    -0x8(%rbp),%rax
  40be74:	48 89 c7             	mov    %rax,%rdi
  40be77:	e8 7a ff ff ff       	callq  40bdf6 <_ZN11arm_compute15ICLSimpleKernelD1Ev>
  40be7c:	b8 00 00 00 00       	mov    $0x0,%eax
  40be81:	85 c0                	test   %eax,%eax
  40be83:	74 0c                	je     40be91 <_ZN11arm_compute17ICLSimple2DKernelD1Ev+0x39>
  40be85:	48 8b 45 f8          	mov    -0x8(%rbp),%rax
  40be89:	48 89 c7             	mov    %rax,%rdi
  40be8c:	e8 5f 7f ff ff       	callq  403df0 <_ZdlPv@plt>
  40be91:	c9                   	leaveq 
  40be92:	c3                   	retq   
  40be93:	90                   	nop

000000000040be94 <_ZN11arm_compute17ICLSimple2DKernelD0Ev>:
  40be94:	55                   	push   %rbp
  40be95:	48 89 e5             	mov    %rsp,%rbp
  40be98:	48 83 ec 10          	sub    $0x10,%rsp
  40be9c:	48 89 7d f8          	mov    %rdi,-0x8(%rbp)
  40bea0:	48 8b 45 f8          	mov    -0x8(%rbp),%rax
  40bea4:	48 89 c7             	mov    %rax,%rdi
  40bea7:	e8 ac ff ff ff       	callq  40be58 <_ZN11arm_compute17ICLSimple2DKernelD1Ev>
  40beac:	48 8b 45 f8          	mov    -0x8(%rbp),%rax
  40beb0:	48 89 c7             	mov    %rax,%rdi
  40beb3:	e8 38 7f ff ff       	callq  403df0 <_ZdlPv@plt>
  40beb8:	c9                   	leaveq 
  40beb9:	c3                   	retq   

000000000040beba <_ZN11arm_compute17ICLSimple3DKernelD1Ev>:
  40beba:	55                   	push   %rbp
  40bebb:	48 89 e5             	mov    %rsp,%rbp
  40bebe:	48 83 ec 10          	sub    $0x10,%rsp
  40bec2:	48 89 7d f8          	mov    %rdi,-0x8(%rbp)
  40bec6:	ba b0 33 61 00       	mov    $0x6133b0,%edx
  40becb:	48 8b 45 f8          	mov    -0x8(%rbp),%rax
  40becf:	48 89 10             	mov    %rdx,(%rax)
  40bed2:	48 8b 45 f8          	mov    -0x8(%rbp),%rax
  40bed6:	48 89 c7             	mov    %rax,%rdi
  40bed9:	e8 7a ff ff ff       	callq  40be58 <_ZN11arm_compute17ICLSimple2DKernelD1Ev>
  40bede:	b8 00 00 00 00       	mov    $0x0,%eax
  40bee3:	85 c0                	test   %eax,%eax
  40bee5:	74 0c                	je     40bef3 <_ZN11arm_compute17ICLSimple3DKernelD1Ev+0x39>
  40bee7:	48 8b 45 f8          	mov    -0x8(%rbp),%rax
  40beeb:	48 89 c7             	mov    %rax,%rdi
  40beee:	e8 fd 7e ff ff       	callq  403df0 <_ZdlPv@plt>
  40bef3:	c9                   	leaveq 
  40bef4:	c3                   	retq   
  40bef5:	90                   	nop

000000000040bef6 <_ZN11arm_compute17ICLSimple3DKernelD0Ev>:
  40bef6:	55                   	push   %rbp
  40bef7:	48 89 e5             	mov    %rsp,%rbp
  40befa:	48 83 ec 10          	sub    $0x10,%rsp
  40befe:	48 89 7d f8          	mov    %rdi,-0x8(%rbp)
  40bf02:	48 8b 45 f8          	mov    -0x8(%rbp),%rax
  40bf06:	48 89 c7             	mov    %rax,%rdi
  40bf09:	e8 ac ff ff ff       	callq  40beba <_ZN11arm_compute17ICLSimple3DKernelD1Ev>
  40bf0e:	48 8b 45 f8          	mov    -0x8(%rbp),%rax
  40bf12:	48 89 c7             	mov    %rax,%rdi
  40bf15:	e8 d6 7e ff ff       	callq  403df0 <_ZdlPv@plt>
  40bf1a:	c9                   	leaveq 
  40bf1b:	c3                   	retq   

000000000040bf1c <_ZN11arm_compute19CLLogits1DMaxKernelD1Ev>:
  40bf1c:	55                   	push   %rbp
  40bf1d:	48 89 e5             	mov    %rsp,%rbp
  40bf20:	48 83 ec 10          	sub    $0x10,%rsp
  40bf24:	48 89 7d f8          	mov    %rdi,-0x8(%rbp)
  40bf28:	ba f0 ca 40 00       	mov    $0x40caf0,%edx
  40bf2d:	48 8b 45 f8          	mov    -0x8(%rbp),%rax
  40bf31:	48 89 10             	mov    %rdx,(%rax)
  40bf34:	48 8b 45 f8          	mov    -0x8(%rbp),%rax
  40bf38:	48 89 c7             	mov    %rax,%rdi
  40bf3b:	e8 7a ff ff ff       	callq  40beba <_ZN11arm_compute17ICLSimple3DKernelD1Ev>
  40bf40:	b8 00 00 00 00       	mov    $0x0,%eax
  40bf45:	85 c0                	test   %eax,%eax
  40bf47:	74 0c                	je     40bf55 <_ZN11arm_compute19CLLogits1DMaxKernelD1Ev+0x39>
  40bf49:	48 8b 45 f8          	mov    -0x8(%rbp),%rax
  40bf4d:	48 89 c7             	mov    %rax,%rdi
  40bf50:	e8 9b 7e ff ff       	callq  403df0 <_ZdlPv@plt>
  40bf55:	c9                   	leaveq 
  40bf56:	c3                   	retq   
  40bf57:	90                   	nop

000000000040bf58 <_ZN11arm_compute19CLLogits1DMaxKernelD0Ev>:
  40bf58:	55                   	push   %rbp
  40bf59:	48 89 e5             	mov    %rsp,%rbp
  40bf5c:	48 83 ec 10          	sub    $0x10,%rsp
  40bf60:	48 89 7d f8          	mov    %rdi,-0x8(%rbp)
  40bf64:	48 8b 45 f8          	mov    -0x8(%rbp),%rax
  40bf68:	48 89 c7             	mov    %rax,%rdi
  40bf6b:	e8 ac ff ff ff       	callq  40bf1c <_ZN11arm_compute19CLLogits1DMaxKernelD1Ev>
  40bf70:	48 8b 45 f8          	mov    -0x8(%rbp),%rax
  40bf74:	48 89 c7             	mov    %rax,%rdi
  40bf77:	e8 74 7e ff ff       	callq  403df0 <_ZdlPv@plt>
  40bf7c:	c9                   	leaveq 
  40bf7d:	c3                   	retq   

000000000040bf7e <_ZN11arm_compute27CLLogits1DShiftExpSumKernelD1Ev>:
  40bf7e:	55                   	push   %rbp
  40bf7f:	48 89 e5             	mov    %rsp,%rbp
  40bf82:	48 83 ec 10          	sub    $0x10,%rsp
  40bf86:	48 89 7d f8          	mov    %rdi,-0x8(%rbp)
  40bf8a:	ba 00 35 61 00       	mov    $0x613500,%edx
  40bf8f:	48 8b 45 f8          	mov    -0x8(%rbp),%rax
  40bf93:	48 89 10             	mov    %rdx,(%rax)
  40bf96:	48 8b 45 f8          	mov    -0x8(%rbp),%rax
  40bf9a:	48 89 c7             	mov    %rax,%rdi
  40bf9d:	e8 e2 fd ff ff       	callq  40bd84 <_ZN11arm_compute9ICLKernelD1Ev>
  40bfa2:	b8 00 00 00 00       	mov    $0x0,%eax
  40bfa7:	85 c0                	test   %eax,%eax
  40bfa9:	74 0c                	je     40bfb7 <_ZN11arm_compute27CLLogits1DShiftExpSumKernelD1Ev+0x39>
  40bfab:	48 8b 45 f8          	mov    -0x8(%rbp),%rax
  40bfaf:	48 89 c7             	mov    %rax,%rdi
  40bfb2:	e8 39 7e ff ff       	callq  403df0 <_ZdlPv@plt>
  40bfb7:	c9                   	leaveq 
  40bfb8:	c3                   	retq   
  40bfb9:	90                   	nop

000000000040bfba <_ZN11arm_compute27CLLogits1DShiftExpSumKernelD0Ev>:
  40bfba:	55                   	push   %rbp
  40bfbb:	48 89 e5             	mov    %rsp,%rbp
  40bfbe:	48 83 ec 10          	sub    $0x10,%rsp
  40bfc2:	48 89 7d f8          	mov    %rdi,-0x8(%rbp)
  40bfc6:	48 8b 45 f8          	mov    -0x8(%rbp),%rax
  40bfca:	48 89 c7             	mov    %rax,%rdi
  40bfcd:	e8 ac ff ff ff       	callq  40bf7e <_ZN11arm_compute27CLLogits1DShiftExpSumKernelD1Ev>
  40bfd2:	48 8b 45 f8          	mov    -0x8(%rbp),%rax
  40bfd6:	48 89 c7             	mov    %rax,%rdi
  40bfd9:	e8 12 7e ff ff       	callq  403df0 <_ZdlPv@plt>
  40bfde:	c9                   	leaveq 
  40bfdf:	c3                   	retq   

000000000040bfe0 <_ZN11arm_compute20CLLogits1DNormKernelD1Ev>:
  40bfe0:	55                   	push   %rbp
  40bfe1:	48 89 e5             	mov    %rsp,%rbp
  40bfe4:	48 83 ec 10          	sub    $0x10,%rsp
  40bfe8:	48 89 7d f8          	mov    %rdi,-0x8(%rbp)
  40bfec:	ba 90 35 61 00       	mov    $0x613590,%edx
  40bff1:	48 8b 45 f8          	mov    -0x8(%rbp),%rax
  40bff5:	48 89 10             	mov    %rdx,(%rax)
  40bff8:	48 8b 45 f8          	mov    -0x8(%rbp),%rax
  40bffc:	48 89 c7             	mov    %rax,%rdi
  40bfff:	e8 80 fd ff ff       	callq  40bd84 <_ZN11arm_compute9ICLKernelD1Ev>
  40c004:	b8 00 00 00 00       	mov    $0x0,%eax
  40c009:	85 c0                	test   %eax,%eax
  40c00b:	74 0c                	je     40c019 <_ZN11arm_compute20CLLogits1DNormKernelD1Ev+0x39>
  40c00d:	48 8b 45 f8          	mov    -0x8(%rbp),%rax
  40c011:	48 89 c7             	mov    %rax,%rdi
  40c014:	e8 d7 7d ff ff       	callq  403df0 <_ZdlPv@plt>
  40c019:	c9                   	leaveq 
  40c01a:	c3                   	retq   
  40c01b:	90                   	nop

000000000040c01c <_ZN11arm_compute20CLLogits1DNormKernelD0Ev>:
  40c01c:	55                   	push   %rbp
  40c01d:	48 89 e5             	mov    %rsp,%rbp
  40c020:	48 83 ec 10          	sub    $0x10,%rsp
  40c024:	48 89 7d f8          	mov    %rdi,-0x8(%rbp)
  40c028:	48 8b 45 f8          	mov    -0x8(%rbp),%rax
  40c02c:	48 89 c7             	mov    %rax,%rdi
  40c02f:	e8 ac ff ff ff       	callq  40bfe0 <_ZN11arm_compute20CLLogits1DNormKernelD1Ev>
  40c034:	48 8b 45 f8          	mov    -0x8(%rbp),%rax
  40c038:	48 89 c7             	mov    %rax,%rdi
  40c03b:	e8 b0 7d ff ff       	callq  403df0 <_ZdlPv@plt>
  40c040:	c9                   	leaveq 
  40c041:	c3                   	retq   

000000000040c042 <_ZN11arm_compute14CLSoftmaxLayerD1Ev>:
  40c042:	55                   	push   %rbp
  40c043:	48 89 e5             	mov    %rsp,%rbp
  40c046:	48 83 ec 10          	sub    $0x10,%rsp
  40c04a:	48 89 7d f8          	mov    %rdi,-0x8(%rbp)
  40c04e:	ba b0 34 61 00       	mov    $0x6134b0,%edx
  40c053:	48 8b 45 f8          	mov    -0x8(%rbp),%rax
  40c057:	48 89 10             	mov    %rdx,(%rax)
  40c05a:	48 8b 45 f8          	mov    -0x8(%rbp),%rax
  40c05e:	48 05 b0 04 00 00    	add    $0x4b0,%rax
  40c064:	48 89 c7             	mov    %rax,%rdi
  40c067:	e8 06 fb ff ff       	callq  40bb72 <_ZN11arm_compute8CLTensorD1Ev>
  40c06c:	48 8b 45 f8          	mov    -0x8(%rbp),%rax
  40c070:	48 05 68 03 00 00    	add    $0x368,%rax
  40c076:	48 89 c7             	mov    %rax,%rdi
  40c079:	e8 f4 fa ff ff       	callq  40bb72 <_ZN11arm_compute8CLTensorD1Ev>
  40c07e:	48 8b 45 f8          	mov    -0x8(%rbp),%rax
  40c082:	48 05 20 02 00 00    	add    $0x220,%rax
  40c088:	48 89 c7             	mov    %rax,%rdi
  40c08b:	e8 e2 fa ff ff       	callq  40bb72 <_ZN11arm_compute8CLTensorD1Ev>
  40c090:	48 8b 45 f8          	mov    -0x8(%rbp),%rax
  40c094:	48 05 88 01 00 00    	add    $0x188,%rax
  40c09a:	48 89 c7             	mov    %rax,%rdi
  40c09d:	e8 3e ff ff ff       	callq  40bfe0 <_ZN11arm_compute20CLLogits1DNormKernelD1Ev>
  40c0a2:	48 8b 45 f8          	mov    -0x8(%rbp),%rax
  40c0a6:	48 05 e8 00 00 00    	add    $0xe8,%rax
  40c0ac:	48 89 c7             	mov    %rax,%rdi
  40c0af:	e8 ca fe ff ff       	callq  40bf7e <_ZN11arm_compute27CLLogits1DShiftExpSumKernelD1Ev>
  40c0b4:	48 8b 45 f8          	mov    -0x8(%rbp),%rax
  40c0b8:	48 83 c0 58          	add    $0x58,%rax
  40c0bc:	48 89 c7             	mov    %rax,%rdi
  40c0bf:	e8 58 fe ff ff       	callq  40bf1c <_ZN11arm_compute19CLLogits1DMaxKernelD1Ev>
  40c0c4:	48 8b 45 f8          	mov    -0x8(%rbp),%rax
  40c0c8:	48 83 c0 08          	add    $0x8,%rax
  40c0cc:	48 89 c7             	mov    %rax,%rdi
  40c0cf:	e8 d8 fb ff ff       	callq  40bcac <_ZN11arm_compute15MemoryGroupBaseINS_8CLTensorEED1Ev>
  40c0d4:	48 8b 45 f8          	mov    -0x8(%rbp),%rax
  40c0d8:	48 89 c7             	mov    %rax,%rdi
  40c0db:	e8 04 fb ff ff       	callq  40bbe4 <_ZN11arm_compute9IFunctionD1Ev>
  40c0e0:	b8 00 00 00 00       	mov    $0x0,%eax
  40c0e5:	85 c0                	test   %eax,%eax
  40c0e7:	74 0c                	je     40c0f5 <_ZN11arm_compute14CLSoftmaxLayerD1Ev+0xb3>
  40c0e9:	48 8b 45 f8          	mov    -0x8(%rbp),%rax
  40c0ed:	48 89 c7             	mov    %rax,%rdi
  40c0f0:	e8 fb 7c ff ff       	callq  403df0 <_ZdlPv@plt>
  40c0f5:	c9                   	leaveq 
  40c0f6:	c3                   	retq   
  40c0f7:	90                   	nop

000000000040c0f8 <_ZN11arm_compute14CLSoftmaxLayerD0Ev>:
  40c0f8:	55                   	push   %rbp
  40c0f9:	48 89 e5             	mov    %rsp,%rbp
  40c0fc:	48 83 ec 10          	sub    $0x10,%rsp
  40c100:	48 89 7d f8          	mov    %rdi,-0x8(%rbp)
  40c104:	48 8b 45 f8          	mov    -0x8(%rbp),%rax
  40c108:	48 89 c7             	mov    %rax,%rdi
  40c10b:	e8 32 ff ff ff       	callq  40c042 <_ZN11arm_compute14CLSoftmaxLayerD1Ev>
  40c110:	48 8b 45 f8          	mov    -0x8(%rbp),%rax
  40c114:	48 89 c7             	mov    %rax,%rdi
  40c117:	e8 d4 7c ff ff       	callq  403df0 <_ZdlPv@plt>
  40c11c:	c9                   	leaveq 
  40c11d:	c3                   	retq   

000000000040c11e <_ZN11arm_compute11ITensorInfoD1Ev>:
  40c11e:	55                   	push   %rbp
  40c11f:	48 89 e5             	mov    %rsp,%rbp
  40c122:	48 83 ec 10          	sub    $0x10,%rsp
  40c126:	48 89 7d f8          	mov    %rdi,-0x8(%rbp)
  40c12a:	ba d0 cb 40 00       	mov    $0x40cbd0,%edx
  40c12f:	48 8b 45 f8          	mov    -0x8(%rbp),%rax
  40c133:	48 89 10             	mov    %rdx,(%rax)
  40c136:	b8 00 00 00 00       	mov    $0x0,%eax
  40c13b:	85 c0                	test   %eax,%eax
  40c13d:	74 0c                	je     40c14b <_ZN11arm_compute11ITensorInfoD1Ev+0x2d>
  40c13f:	48 8b 45 f8          	mov    -0x8(%rbp),%rax
  40c143:	48 89 c7             	mov    %rax,%rdi
  40c146:	e8 a5 7c ff ff       	callq  403df0 <_ZdlPv@plt>
  40c14b:	c9                   	leaveq 
  40c14c:	c3                   	retq   
  40c14d:	90                   	nop

000000000040c14e <_ZN11arm_compute11ITensorInfoD0Ev>:
  40c14e:	55                   	push   %rbp
  40c14f:	48 89 e5             	mov    %rsp,%rbp
  40c152:	48 83 ec 10          	sub    $0x10,%rsp
  40c156:	48 89 7d f8          	mov    %rdi,-0x8(%rbp)
  40c15a:	48 8b 45 f8          	mov    -0x8(%rbp),%rax
  40c15e:	48 89 c7             	mov    %rax,%rdi
  40c161:	e8 b8 ff ff ff       	callq  40c11e <_ZN11arm_compute11ITensorInfoD1Ev>
  40c166:	48 8b 45 f8          	mov    -0x8(%rbp),%rax
  40c16a:	48 89 c7             	mov    %rax,%rdi
  40c16d:	e8 7e 7c ff ff       	callq  403df0 <_ZdlPv@plt>
  40c172:	c9                   	leaveq 
  40c173:	c3                   	retq   

000000000040c174 <_ZN11arm_compute10TensorInfoD1Ev>:
  40c174:	55                   	push   %rbp
  40c175:	48 89 e5             	mov    %rsp,%rbp
  40c178:	48 83 ec 10          	sub    $0x10,%rsp
  40c17c:	48 89 7d f8          	mov    %rdi,-0x8(%rbp)
  40c180:	ba b0 32 61 00       	mov    $0x6132b0,%edx
  40c185:	48 8b 45 f8          	mov    -0x8(%rbp),%rax
  40c189:	48 89 10             	mov    %rdx,(%rax)
  40c18c:	48 8b 45 f8          	mov    -0x8(%rbp),%rax
  40c190:	48 89 c7             	mov    %rax,%rdi
  40c193:	e8 86 ff ff ff       	callq  40c11e <_ZN11arm_compute11ITensorInfoD1Ev>
  40c198:	b8 00 00 00 00       	mov    $0x0,%eax
  40c19d:	85 c0                	test   %eax,%eax
  40c19f:	74 0c                	je     40c1ad <_ZN11arm_compute10TensorInfoD1Ev+0x39>
  40c1a1:	48 8b 45 f8          	mov    -0x8(%rbp),%rax
  40c1a5:	48 89 c7             	mov    %rax,%rdi
  40c1a8:	e8 43 7c ff ff       	callq  403df0 <_ZdlPv@plt>
  40c1ad:	c9                   	leaveq 
  40c1ae:	c3                   	retq   
  40c1af:	90                   	nop

000000000040c1b0 <_ZN11arm_compute10TensorInfoD0Ev>:
  40c1b0:	55                   	push   %rbp
  40c1b1:	48 89 e5             	mov    %rsp,%rbp
  40c1b4:	48 83 ec 10          	sub    $0x10,%rsp
  40c1b8:	48 89 7d f8          	mov    %rdi,-0x8(%rbp)
  40c1bc:	48 8b 45 f8          	mov    -0x8(%rbp),%rax
  40c1c0:	48 89 c7             	mov    %rax,%rdi
  40c1c3:	e8 ac ff ff ff       	callq  40c174 <_ZN11arm_compute10TensorInfoD1Ev>
  40c1c8:	48 8b 45 f8          	mov    -0x8(%rbp),%rax
  40c1cc:	48 89 c7             	mov    %rax,%rdi
  40c1cf:	e8 1c 7c ff ff       	callq  403df0 <_ZdlPv@plt>
  40c1d4:	c9                   	leaveq 
  40c1d5:	c3                   	retq   

000000000040c1d6 <_ZNSt8_Rb_treeIPPvSt4pairIKS1_mESt10_Select1stIS4_ESt4lessIS1_ESaIS4_EE13_Rb_tree_implIS8_Lb1EED1Ev>:
  40c1d6:	55                   	push   %rbp
  40c1d7:	48 89 e5             	mov    %rsp,%rbp
  40c1da:	48 83 ec 10          	sub    $0x10,%rsp
  40c1de:	48 89 7d f8          	mov    %rdi,-0x8(%rbp)
  40c1e2:	48 8b 45 f8          	mov    -0x8(%rbp),%rax
  40c1e6:	48 89 c7             	mov    %rax,%rdi
  40c1e9:	e8 3e 00 00 00       	callq  40c22c <_ZNSaISt13_Rb_tree_nodeISt4pairIKPPvmEEED1Ev>
  40c1ee:	90                   	nop
  40c1ef:	c9                   	leaveq 
  40c1f0:	c3                   	retq   
  40c1f1:	90                   	nop

000000000040c1f2 <_ZNSt8_Rb_treeIPPvSt4pairIKS1_mESt10_Select1stIS4_ESt4lessIS1_ESaIS4_EED1Ev>:
  40c1f2:	55                   	push   %rbp
  40c1f3:	48 89 e5             	mov    %rsp,%rbp
  40c1f6:	48 83 ec 10          	sub    $0x10,%rsp
  40c1fa:	48 89 7d f8          	mov    %rdi,-0x8(%rbp)
  40c1fe:	48 8b 45 f8          	mov    -0x8(%rbp),%rax
  40c202:	48 89 c7             	mov    %rax,%rdi
  40c205:	e8 a4 00 00 00       	callq  40c2ae <_ZNSt8_Rb_treeIPPvSt4pairIKS1_mESt10_Select1stIS4_ESt4lessIS1_ESaIS4_EE8_M_beginEv>
  40c20a:	48 89 c2             	mov    %rax,%rdx
  40c20d:	48 8b 45 f8          	mov    -0x8(%rbp),%rax
  40c211:	48 89 d6             	mov    %rdx,%rsi
  40c214:	48 89 c7             	mov    %rax,%rdi
  40c217:	e8 2c 00 00 00       	callq  40c248 <_ZNSt8_Rb_treeIPPvSt4pairIKS1_mESt10_Select1stIS4_ESt4lessIS1_ESaIS4_EE8_M_eraseEPSt13_Rb_tree_nodeIS4_E>
  40c21c:	48 8b 45 f8          	mov    -0x8(%rbp),%rax
  40c220:	48 89 c7             	mov    %rax,%rdi
  40c223:	e8 ae ff ff ff       	callq  40c1d6 <_ZNSt8_Rb_treeIPPvSt4pairIKS1_mESt10_Select1stIS4_ESt4lessIS1_ESaIS4_EE13_Rb_tree_implIS8_Lb1EED1Ev>
  40c228:	90                   	nop
  40c229:	c9                   	leaveq 
  40c22a:	c3                   	retq   
  40c22b:	90                   	nop

000000000040c22c <_ZNSaISt13_Rb_tree_nodeISt4pairIKPPvmEEED1Ev>:
  40c22c:	55                   	push   %rbp
  40c22d:	48 89 e5             	mov    %rsp,%rbp
  40c230:	48 83 ec 10          	sub    $0x10,%rsp
  40c234:	48 89 7d f8          	mov    %rdi,-0x8(%rbp)
  40c238:	48 8b 45 f8          	mov    -0x8(%rbp),%rax
  40c23c:	48 89 c7             	mov    %rax,%rdi
  40c23f:	e8 7c 00 00 00       	callq  40c2c0 <_ZN9__gnu_cxx13new_allocatorISt13_Rb_tree_nodeISt4pairIKPPvmEEED1Ev>
  40c244:	90                   	nop
  40c245:	c9                   	leaveq 
  40c246:	c3                   	retq   
  40c247:	90                   	nop

000000000040c248 <_ZNSt8_Rb_treeIPPvSt4pairIKS1_mESt10_Select1stIS4_ESt4lessIS1_ESaIS4_EE8_M_eraseEPSt13_Rb_tree_nodeIS4_E>:
  40c248:	55                   	push   %rbp
  40c249:	48 89 e5             	mov    %rsp,%rbp
  40c24c:	48 83 ec 20          	sub    $0x20,%rsp
  40c250:	48 89 7d e8          	mov    %rdi,-0x18(%rbp)
  40c254:	48 89 75 e0          	mov    %rsi,-0x20(%rbp)
  40c258:	48 83 7d e0 00       	cmpq   $0x0,-0x20(%rbp)
  40c25d:	74 4b                	je     40c2aa <_ZNSt8_Rb_treeIPPvSt4pairIKS1_mESt10_Select1stIS4_ESt4lessIS1_ESaIS4_EE8_M_eraseEPSt13_Rb_tree_nodeIS4_E+0x62>
  40c25f:	48 8b 45 e0          	mov    -0x20(%rbp),%rax
  40c263:	48 89 c7             	mov    %rax,%rdi
  40c266:	e8 60 00 00 00       	callq  40c2cb <_ZNSt8_Rb_treeIPPvSt4pairIKS1_mESt10_Select1stIS4_ESt4lessIS1_ESaIS4_EE8_S_rightEPSt18_Rb_tree_node_base>
  40c26b:	48 89 c2             	mov    %rax,%rdx
  40c26e:	48 8b 45 e8          	mov    -0x18(%rbp),%rax
  40c272:	48 89 d6             	mov    %rdx,%rsi
  40c275:	48 89 c7             	mov    %rax,%rdi
  40c278:	e8 cb ff ff ff       	callq  40c248 <_ZNSt8_Rb_treeIPPvSt4pairIKS1_mESt10_Select1stIS4_ESt4lessIS1_ESaIS4_EE8_M_eraseEPSt13_Rb_tree_nodeIS4_E>
  40c27d:	48 8b 45 e0          	mov    -0x20(%rbp),%rax
  40c281:	48 89 c7             	mov    %rax,%rdi
  40c284:	e8 54 00 00 00       	callq  40c2dd <_ZNSt8_Rb_treeIPPvSt4pairIKS1_mESt10_Select1stIS4_ESt4lessIS1_ESaIS4_EE7_S_leftEPSt18_Rb_tree_node_base>
  40c289:	48 89 45 f8          	mov    %rax,-0x8(%rbp)
  40c28d:	48 8b 55 e0          	mov    -0x20(%rbp),%rdx
  40c291:	48 8b 45 e8          	mov    -0x18(%rbp),%rax
  40c295:	48 89 d6             	mov    %rdx,%rsi
  40c298:	48 89 c7             	mov    %rax,%rdi
  40c29b:	e8 50 00 00 00       	callq  40c2f0 <_ZNSt8_Rb_treeIPPvSt4pairIKS1_mESt10_Select1stIS4_ESt4lessIS1_ESaIS4_EE12_M_drop_nodeEPSt13_Rb_tree_nodeIS4_E>
  40c2a0:	48 8b 45 f8          	mov    -0x8(%rbp),%rax
  40c2a4:	48 89 45 e0          	mov    %rax,-0x20(%rbp)
  40c2a8:	eb ae                	jmp    40c258 <_ZNSt8_Rb_treeIPPvSt4pairIKS1_mESt10_Select1stIS4_ESt4lessIS1_ESaIS4_EE8_M_eraseEPSt13_Rb_tree_nodeIS4_E+0x10>
  40c2aa:	90                   	nop
  40c2ab:	c9                   	leaveq 
  40c2ac:	c3                   	retq   
  40c2ad:	90                   	nop

000000000040c2ae <_ZNSt8_Rb_treeIPPvSt4pairIKS1_mESt10_Select1stIS4_ESt4lessIS1_ESaIS4_EE8_M_beginEv>:
  40c2ae:	55                   	push   %rbp
  40c2af:	48 89 e5             	mov    %rsp,%rbp
  40c2b2:	48 89 7d f8          	mov    %rdi,-0x8(%rbp)
  40c2b6:	48 8b 45 f8          	mov    -0x8(%rbp),%rax
  40c2ba:	48 8b 40 10          	mov    0x10(%rax),%rax
  40c2be:	5d                   	pop    %rbp
  40c2bf:	c3                   	retq   

000000000040c2c0 <_ZN9__gnu_cxx13new_allocatorISt13_Rb_tree_nodeISt4pairIKPPvmEEED1Ev>:
  40c2c0:	55                   	push   %rbp
  40c2c1:	48 89 e5             	mov    %rsp,%rbp
  40c2c4:	48 89 7d f8          	mov    %rdi,-0x8(%rbp)
  40c2c8:	90                   	nop
  40c2c9:	5d                   	pop    %rbp
  40c2ca:	c3                   	retq   

000000000040c2cb <_ZNSt8_Rb_treeIPPvSt4pairIKS1_mESt10_Select1stIS4_ESt4lessIS1_ESaIS4_EE8_S_rightEPSt18_Rb_tree_node_base>:
  40c2cb:	55                   	push   %rbp
  40c2cc:	48 89 e5             	mov    %rsp,%rbp
  40c2cf:	48 89 7d f8          	mov    %rdi,-0x8(%rbp)
  40c2d3:	48 8b 45 f8          	mov    -0x8(%rbp),%rax
  40c2d7:	48 8b 40 18          	mov    0x18(%rax),%rax
  40c2db:	5d                   	pop    %rbp
  40c2dc:	c3                   	retq   

000000000040c2dd <_ZNSt8_Rb_treeIPPvSt4pairIKS1_mESt10_Select1stIS4_ESt4lessIS1_ESaIS4_EE7_S_leftEPSt18_Rb_tree_node_base>:
  40c2dd:	55                   	push   %rbp
  40c2de:	48 89 e5             	mov    %rsp,%rbp
  40c2e1:	48 89 7d f8          	mov    %rdi,-0x8(%rbp)
  40c2e5:	48 8b 45 f8          	mov    -0x8(%rbp),%rax
  40c2e9:	48 8b 40 10          	mov    0x10(%rax),%rax
  40c2ed:	5d                   	pop    %rbp
  40c2ee:	c3                   	retq   
  40c2ef:	90                   	nop

000000000040c2f0 <_ZNSt8_Rb_treeIPPvSt4pairIKS1_mESt10_Select1stIS4_ESt4lessIS1_ESaIS4_EE12_M_drop_nodeEPSt13_Rb_tree_nodeIS4_E>:
  40c2f0:	55                   	push   %rbp
  40c2f1:	48 89 e5             	mov    %rsp,%rbp
  40c2f4:	48 83 ec 10          	sub    $0x10,%rsp
  40c2f8:	48 89 7d f8          	mov    %rdi,-0x8(%rbp)
  40c2fc:	48 89 75 f0          	mov    %rsi,-0x10(%rbp)
  40c300:	48 8b 55 f0          	mov    -0x10(%rbp),%rdx
  40c304:	48 8b 45 f8          	mov    -0x8(%rbp),%rax
  40c308:	48 89 d6             	mov    %rdx,%rsi
  40c30b:	48 89 c7             	mov    %rax,%rdi
  40c30e:	e8 17 00 00 00       	callq  40c32a <_ZNSt8_Rb_treeIPPvSt4pairIKS1_mESt10_Select1stIS4_ESt4lessIS1_ESaIS4_EE15_M_destroy_nodeEPSt13_Rb_tree_nodeIS4_E>
  40c313:	48 8b 55 f0          	mov    -0x10(%rbp),%rdx
  40c317:	48 8b 45 f8          	mov    -0x8(%rbp),%rax
  40c31b:	48 89 d6             	mov    %rdx,%rsi
  40c31e:	48 89 c7             	mov    %rax,%rdi
  40c321:	e8 44 00 00 00       	callq  40c36a <_ZNSt8_Rb_treeIPPvSt4pairIKS1_mESt10_Select1stIS4_ESt4lessIS1_ESaIS4_EE11_M_put_nodeEPSt13_Rb_tree_nodeIS4_E>
  40c326:	90                   	nop
  40c327:	c9                   	leaveq 
  40c328:	c3                   	retq   
  40c329:	90                   	nop

000000000040c32a <_ZNSt8_Rb_treeIPPvSt4pairIKS1_mESt10_Select1stIS4_ESt4lessIS1_ESaIS4_EE15_M_destroy_nodeEPSt13_Rb_tree_nodeIS4_E>:
  40c32a:	55                   	push   %rbp
  40c32b:	48 89 e5             	mov    %rsp,%rbp
  40c32e:	53                   	push   %rbx
  40c32f:	48 83 ec 18          	sub    $0x18,%rsp
  40c333:	48 89 7d e8          	mov    %rdi,-0x18(%rbp)
  40c337:	48 89 75 e0          	mov    %rsi,-0x20(%rbp)
  40c33b:	48 8b 45 e0          	mov    -0x20(%rbp),%rax
  40c33f:	48 89 c7             	mov    %rax,%rdi
  40c342:	e8 67 00 00 00       	callq  40c3ae <_ZNSt13_Rb_tree_nodeISt4pairIKPPvmEE9_M_valptrEv>
  40c347:	48 89 c3             	mov    %rax,%rbx
  40c34a:	48 8b 45 e8          	mov    -0x18(%rbp),%rax
  40c34e:	48 89 c7             	mov    %rax,%rdi
  40c351:	e8 4a 00 00 00       	callq  40c3a0 <_ZNSt8_Rb_treeIPPvSt4pairIKS1_mESt10_Select1stIS4_ESt4lessIS1_ESaIS4_EE21_M_get_Node_allocatorEv>
  40c356:	48 89 de             	mov    %rbx,%rsi
  40c359:	48 89 c7             	mov    %rax,%rdi
  40c35c:	e8 6b 00 00 00       	callq  40c3cc <_ZNSt16allocator_traitsISaISt13_Rb_tree_nodeISt4pairIKPPvmEEEE7destroyIS5_EEvRS7_PT_>
  40c361:	90                   	nop
  40c362:	48 83 c4 18          	add    $0x18,%rsp
  40c366:	5b                   	pop    %rbx
  40c367:	5d                   	pop    %rbp
  40c368:	c3                   	retq   
  40c369:	90                   	nop

000000000040c36a <_ZNSt8_Rb_treeIPPvSt4pairIKS1_mESt10_Select1stIS4_ESt4lessIS1_ESaIS4_EE11_M_put_nodeEPSt13_Rb_tree_nodeIS4_E>:
  40c36a:	55                   	push   %rbp
  40c36b:	48 89 e5             	mov    %rsp,%rbp
  40c36e:	48 83 ec 10          	sub    $0x10,%rsp
  40c372:	48 89 7d f8          	mov    %rdi,-0x8(%rbp)
  40c376:	48 89 75 f0          	mov    %rsi,-0x10(%rbp)
  40c37a:	48 8b 45 f8          	mov    -0x8(%rbp),%rax
  40c37e:	48 89 c7             	mov    %rax,%rdi
  40c381:	e8 1a 00 00 00       	callq  40c3a0 <_ZNSt8_Rb_treeIPPvSt4pairIKS1_mESt10_Select1stIS4_ESt4lessIS1_ESaIS4_EE21_M_get_Node_allocatorEv>
  40c386:	48 89 c1             	mov    %rax,%rcx
  40c389:	48 8b 45 f0          	mov    -0x10(%rbp),%rax
  40c38d:	ba 01 00 00 00       	mov    $0x1,%edx
  40c392:	48 89 c6             	mov    %rax,%rsi
  40c395:	48 89 cf             	mov    %rcx,%rdi
  40c398:	e8 55 00 00 00       	callq  40c3f2 <_ZNSt16allocator_traitsISaISt13_Rb_tree_nodeISt4pairIKPPvmEEEE10deallocateERS7_PS6_m>
  40c39d:	90                   	nop
  40c39e:	c9                   	leaveq 
  40c39f:	c3                   	retq   

000000000040c3a0 <_ZNSt8_Rb_treeIPPvSt4pairIKS1_mESt10_Select1stIS4_ESt4lessIS1_ESaIS4_EE21_M_get_Node_allocatorEv>:
  40c3a0:	55                   	push   %rbp
  40c3a1:	48 89 e5             	mov    %rsp,%rbp
  40c3a4:	48 89 7d f8          	mov    %rdi,-0x8(%rbp)
  40c3a8:	48 8b 45 f8          	mov    -0x8(%rbp),%rax
  40c3ac:	5d                   	pop    %rbp
  40c3ad:	c3                   	retq   

000000000040c3ae <_ZNSt13_Rb_tree_nodeISt4pairIKPPvmEE9_M_valptrEv>:
  40c3ae:	55                   	push   %rbp
  40c3af:	48 89 e5             	mov    %rsp,%rbp
  40c3b2:	48 83 ec 10          	sub    $0x10,%rsp
  40c3b6:	48 89 7d f8          	mov    %rdi,-0x8(%rbp)
  40c3ba:	48 8b 45 f8          	mov    -0x8(%rbp),%rax
  40c3be:	48 83 c0 20          	add    $0x20,%rax
  40c3c2:	48 89 c7             	mov    %rax,%rdi
  40c3c5:	e8 56 00 00 00       	callq  40c420 <_ZN9__gnu_cxx16__aligned_membufISt4pairIKPPvmEE6_M_ptrEv>
  40c3ca:	c9                   	leaveq 
  40c3cb:	c3                   	retq   

000000000040c3cc <_ZNSt16allocator_traitsISaISt13_Rb_tree_nodeISt4pairIKPPvmEEEE7destroyIS5_EEvRS7_PT_>:
  40c3cc:	55                   	push   %rbp
  40c3cd:	48 89 e5             	mov    %rsp,%rbp
  40c3d0:	48 83 ec 10          	sub    $0x10,%rsp
  40c3d4:	48 89 7d f8          	mov    %rdi,-0x8(%rbp)
  40c3d8:	48 89 75 f0          	mov    %rsi,-0x10(%rbp)
  40c3dc:	48 8b 55 f0          	mov    -0x10(%rbp),%rdx
  40c3e0:	48 8b 45 f8          	mov    -0x8(%rbp),%rax
  40c3e4:	48 89 d6             	mov    %rdx,%rsi
  40c3e7:	48 89 c7             	mov    %rax,%rdi
  40c3ea:	e8 4b 00 00 00       	callq  40c43a <_ZN9__gnu_cxx13new_allocatorISt13_Rb_tree_nodeISt4pairIKPPvmEEE7destroyIS6_EEvPT_>
  40c3ef:	90                   	nop
  40c3f0:	c9                   	leaveq 
  40c3f1:	c3                   	retq   

000000000040c3f2 <_ZNSt16allocator_traitsISaISt13_Rb_tree_nodeISt4pairIKPPvmEEEE10deallocateERS7_PS6_m>:
  40c3f2:	55                   	push   %rbp
  40c3f3:	48 89 e5             	mov    %rsp,%rbp
  40c3f6:	48 83 ec 20          	sub    $0x20,%rsp
  40c3fa:	48 89 7d f8          	mov    %rdi,-0x8(%rbp)
  40c3fe:	48 89 75 f0          	mov    %rsi,-0x10(%rbp)
  40c402:	48 89 55 e8          	mov    %rdx,-0x18(%rbp)
  40c406:	48 8b 55 e8          	mov    -0x18(%rbp),%rdx
  40c40a:	48 8b 4d f0          	mov    -0x10(%rbp),%rcx
  40c40e:	48 8b 45 f8          	mov    -0x8(%rbp),%rax
  40c412:	48 89 ce             	mov    %rcx,%rsi
  40c415:	48 89 c7             	mov    %rax,%rdi
  40c418:	e8 2d 00 00 00       	callq  40c44a <_ZN9__gnu_cxx13new_allocatorISt13_Rb_tree_nodeISt4pairIKPPvmEEE10deallocateEPS7_m>
  40c41d:	90                   	nop
  40c41e:	c9                   	leaveq 
  40c41f:	c3                   	retq   

000000000040c420 <_ZN9__gnu_cxx16__aligned_membufISt4pairIKPPvmEE6_M_ptrEv>:
  40c420:	55                   	push   %rbp
  40c421:	48 89 e5             	mov    %rsp,%rbp
  40c424:	48 83 ec 10          	sub    $0x10,%rsp
  40c428:	48 89 7d f8          	mov    %rdi,-0x8(%rbp)
  40c42c:	48 8b 45 f8          	mov    -0x8(%rbp),%rax
  40c430:	48 89 c7             	mov    %rax,%rdi
  40c433:	e8 36 00 00 00       	callq  40c46e <_ZN9__gnu_cxx16__aligned_membufISt4pairIKPPvmEE7_M_addrEv>
  40c438:	c9                   	leaveq 
  40c439:	c3                   	retq   

000000000040c43a <_ZN9__gnu_cxx13new_allocatorISt13_Rb_tree_nodeISt4pairIKPPvmEEE7destroyIS6_EEvPT_>:
  40c43a:	55                   	push   %rbp
  40c43b:	48 89 e5             	mov    %rsp,%rbp
  40c43e:	48 89 7d f8          	mov    %rdi,-0x8(%rbp)
  40c442:	48 89 75 f0          	mov    %rsi,-0x10(%rbp)
  40c446:	90                   	nop
  40c447:	5d                   	pop    %rbp
  40c448:	c3                   	retq   
  40c449:	90                   	nop

000000000040c44a <_ZN9__gnu_cxx13new_allocatorISt13_Rb_tree_nodeISt4pairIKPPvmEEE10deallocateEPS7_m>:
  40c44a:	55                   	push   %rbp
  40c44b:	48 89 e5             	mov    %rsp,%rbp
  40c44e:	48 83 ec 20          	sub    $0x20,%rsp
  40c452:	48 89 7d f8          	mov    %rdi,-0x8(%rbp)
  40c456:	48 89 75 f0          	mov    %rsi,-0x10(%rbp)
  40c45a:	48 89 55 e8          	mov    %rdx,-0x18(%rbp)
  40c45e:	48 8b 45 f0          	mov    -0x10(%rbp),%rax
  40c462:	48 89 c7             	mov    %rax,%rdi
  40c465:	e8 86 79 ff ff       	callq  403df0 <_ZdlPv@plt>
  40c46a:	90                   	nop
  40c46b:	c9                   	leaveq 
  40c46c:	c3                   	retq   
  40c46d:	90                   	nop

000000000040c46e <_ZN9__gnu_cxx16__aligned_membufISt4pairIKPPvmEE7_M_addrEv>:
  40c46e:	55                   	push   %rbp
  40c46f:	48 89 e5             	mov    %rsp,%rbp
  40c472:	48 89 7d f8          	mov    %rdi,-0x8(%rbp)
  40c476:	48 8b 45 f8          	mov    -0x8(%rbp),%rax
  40c47a:	5d                   	pop    %rbp
  40c47b:	c3                   	retq   

000000000040c47c <_ZN11arm_compute15MemoryGroupBaseINS_8CLTensorEE7acquireEv>:
  40c47c:	55                   	push   %rbp
  40c47d:	48 89 e5             	mov    %rsp,%rbp
  40c480:	48 83 ec 10          	sub    $0x10,%rsp
  40c484:	48 89 7d f8          	mov    %rdi,-0x8(%rbp)
  40c488:	48 8b 45 f8          	mov    -0x8(%rbp),%rax
  40c48c:	48 83 c0 20          	add    $0x20,%rax
  40c490:	48 89 c7             	mov    %rax,%rdi
  40c493:	e8 0c 01 00 00       	callq  40c5a4 <_ZNKSt3mapIPPvmSt4lessIS1_ESaISt4pairIKS1_mEEE5emptyEv>
  40c498:	83 f0 01             	xor    $0x1,%eax
  40c49b:	84 c0                	test   %al,%al
  40c49d:	74 63                	je     40c502 <_ZN11arm_compute15MemoryGroupBaseINS_8CLTensorEE7acquireEv+0x86>
  40c49f:	48 8b 45 f8          	mov    -0x8(%rbp),%rax
  40c4a3:	48 83 c0 08          	add    $0x8,%rax
  40c4a7:	48 89 c7             	mov    %rax,%rdi
  40c4aa:	e8 0f 01 00 00       	callq  40c5be <_ZNKSt12__shared_ptrIN11arm_compute14IMemoryManagerELN9__gnu_cxx12_Lock_policyE2EEptEv>
  40c4af:	48 8b 10             	mov    (%rax),%rdx
  40c4b2:	48 83 c2 18          	add    $0x18,%rdx
  40c4b6:	48 8b 12             	mov    (%rdx),%rdx
  40c4b9:	48 89 c7             	mov    %rax,%rdi
  40c4bc:	ff d2                	callq  *%rdx
  40c4be:	48 8b 10             	mov    (%rax),%rdx
  40c4c1:	48 83 c2 10          	add    $0x10,%rdx
  40c4c5:	48 8b 12             	mov    (%rdx),%rdx
  40c4c8:	48 89 c7             	mov    %rax,%rdi
  40c4cb:	ff d2                	callq  *%rdx
  40c4cd:	48 89 c2             	mov    %rax,%rdx
  40c4d0:	48 8b 45 f8          	mov    -0x8(%rbp),%rax
  40c4d4:	48 89 50 18          	mov    %rdx,0x18(%rax)
  40c4d8:	48 8b 45 f8          	mov    -0x8(%rbp),%rax
  40c4dc:	48 8b 40 18          	mov    0x18(%rax),%rax
  40c4e0:	48 8b 00             	mov    (%rax),%rax
  40c4e3:	48 83 c0 10          	add    $0x10,%rax
  40c4e7:	48 8b 00             	mov    (%rax),%rax
  40c4ea:	48 8b 55 f8          	mov    -0x8(%rbp),%rdx
  40c4ee:	48 8d 4a 20          	lea    0x20(%rdx),%rcx
  40c4f2:	48 8b 55 f8          	mov    -0x8(%rbp),%rdx
  40c4f6:	48 8b 52 18          	mov    0x18(%rdx),%rdx
  40c4fa:	48 89 ce             	mov    %rcx,%rsi
  40c4fd:	48 89 d7             	mov    %rdx,%rdi
  40c500:	ff d0                	callq  *%rax
  40c502:	90                   	nop
  40c503:	c9                   	leaveq 
  40c504:	c3                   	retq   
  40c505:	90                   	nop

000000000040c506 <_ZN11arm_compute15MemoryGroupBaseINS_8CLTensorEE7releaseEv>:
  40c506:	55                   	push   %rbp
  40c507:	48 89 e5             	mov    %rsp,%rbp
  40c50a:	48 83 ec 10          	sub    $0x10,%rsp
  40c50e:	48 89 7d f8          	mov    %rdi,-0x8(%rbp)
  40c512:	48 8b 45 f8          	mov    -0x8(%rbp),%rax
  40c516:	48 8b 40 18          	mov    0x18(%rax),%rax
  40c51a:	48 85 c0             	test   %rax,%rax
  40c51d:	74 6f                	je     40c58e <_ZN11arm_compute15MemoryGroupBaseINS_8CLTensorEE7releaseEv+0x88>
  40c51f:	48 8b 45 f8          	mov    -0x8(%rbp),%rax
  40c523:	48 8b 40 18          	mov    0x18(%rax),%rax
  40c527:	48 8b 00             	mov    (%rax),%rax
  40c52a:	48 83 c0 18          	add    $0x18,%rax
  40c52e:	48 8b 00             	mov    (%rax),%rax
  40c531:	48 8b 55 f8          	mov    -0x8(%rbp),%rdx
  40c535:	48 8d 4a 20          	lea    0x20(%rdx),%rcx
  40c539:	48 8b 55 f8          	mov    -0x8(%rbp),%rdx
  40c53d:	48 8b 52 18          	mov    0x18(%rdx),%rdx
  40c541:	48 89 ce             	mov    %rcx,%rsi
  40c544:	48 89 d7             	mov    %rdx,%rdi
  40c547:	ff d0                	callq  *%rax
  40c549:	48 8b 45 f8          	mov    -0x8(%rbp),%rax
  40c54d:	48 83 c0 08          	add    $0x8,%rax
  40c551:	48 89 c7             	mov    %rax,%rdi
  40c554:	e8 65 00 00 00       	callq  40c5be <_ZNKSt12__shared_ptrIN11arm_compute14IMemoryManagerELN9__gnu_cxx12_Lock_policyE2EEptEv>
  40c559:	48 8b 10             	mov    (%rax),%rdx
  40c55c:	48 83 c2 18          	add    $0x18,%rdx
  40c560:	48 8b 12             	mov    (%rdx),%rdx
  40c563:	48 89 c7             	mov    %rax,%rdi
  40c566:	ff d2                	callq  *%rdx
  40c568:	48 8b 10             	mov    (%rax),%rdx
  40c56b:	48 83 c2 18          	add    $0x18,%rdx
  40c56f:	48 8b 12             	mov    (%rdx),%rdx
  40c572:	48 8b 4d f8          	mov    -0x8(%rbp),%rcx
  40c576:	48 8b 49 18          	mov    0x18(%rcx),%rcx
  40c57a:	48 89 ce             	mov    %rcx,%rsi
  40c57d:	48 89 c7             	mov    %rax,%rdi
  40c580:	ff d2                	callq  *%rdx
  40c582:	48 8b 45 f8          	mov    -0x8(%rbp),%rax
  40c586:	48 c7 40 18 00 00 00 	movq   $0x0,0x18(%rax)
  40c58d:	00 
  40c58e:	90                   	nop
  40c58f:	c9                   	leaveq 
  40c590:	c3                   	retq   
  40c591:	90                   	nop

000000000040c592 <_ZN11arm_compute15MemoryGroupBaseINS_8CLTensorEE8mappingsEv>:
  40c592:	55                   	push   %rbp
  40c593:	48 89 e5             	mov    %rsp,%rbp
  40c596:	48 89 7d f8          	mov    %rdi,-0x8(%rbp)
  40c59a:	48 8b 45 f8          	mov    -0x8(%rbp),%rax
  40c59e:	48 83 c0 20          	add    $0x20,%rax
  40c5a2:	5d                   	pop    %rbp
  40c5a3:	c3                   	retq   

000000000040c5a4 <_ZNKSt3mapIPPvmSt4lessIS1_ESaISt4pairIKS1_mEEE5emptyEv>:
  40c5a4:	55                   	push   %rbp
  40c5a5:	48 89 e5             	mov    %rsp,%rbp
  40c5a8:	48 83 ec 10          	sub    $0x10,%rsp
  40c5ac:	48 89 7d f8          	mov    %rdi,-0x8(%rbp)
  40c5b0:	48 8b 45 f8          	mov    -0x8(%rbp),%rax
  40c5b4:	48 89 c7             	mov    %rax,%rdi
  40c5b7:	e8 14 00 00 00       	callq  40c5d0 <_ZNKSt8_Rb_treeIPPvSt4pairIKS1_mESt10_Select1stIS4_ESt4lessIS1_ESaIS4_EE5emptyEv>
  40c5bc:	c9                   	leaveq 
  40c5bd:	c3                   	retq   

000000000040c5be <_ZNKSt12__shared_ptrIN11arm_compute14IMemoryManagerELN9__gnu_cxx12_Lock_policyE2EEptEv>:
  40c5be:	55                   	push   %rbp
  40c5bf:	48 89 e5             	mov    %rsp,%rbp
  40c5c2:	48 89 7d f8          	mov    %rdi,-0x8(%rbp)
  40c5c6:	48 8b 45 f8          	mov    -0x8(%rbp),%rax
  40c5ca:	48 8b 00             	mov    (%rax),%rax
  40c5cd:	5d                   	pop    %rbp
  40c5ce:	c3                   	retq   
  40c5cf:	90                   	nop

000000000040c5d0 <_ZNKSt8_Rb_treeIPPvSt4pairIKS1_mESt10_Select1stIS4_ESt4lessIS1_ESaIS4_EE5emptyEv>:
  40c5d0:	55                   	push   %rbp
  40c5d1:	48 89 e5             	mov    %rsp,%rbp
  40c5d4:	48 89 7d f8          	mov    %rdi,-0x8(%rbp)
  40c5d8:	48 8b 45 f8          	mov    -0x8(%rbp),%rax
  40c5dc:	48 8b 40 28          	mov    0x28(%rax),%rax
  40c5e0:	48 85 c0             	test   %rax,%rax
  40c5e3:	0f 94 c0             	sete   %al
  40c5e6:	5d                   	pop    %rbp
  40c5e7:	c3                   	retq   
  40c5e8:	0f 1f 84 00 00 00 00 	nopl   0x0(%rax,%rax,1)
  40c5ef:	00 

000000000040c5f0 <__libc_csu_init>:
  40c5f0:	41 57                	push   %r15
  40c5f2:	41 56                	push   %r14
  40c5f4:	41 89 ff             	mov    %edi,%r15d
  40c5f7:	41 55                	push   %r13
  40c5f9:	41 54                	push   %r12
  40c5fb:	4c 8d 25 a6 67 20 00 	lea    0x2067a6(%rip),%r12        # 612da8 <__frame_dummy_init_array_entry>
  40c602:	55                   	push   %rbp
  40c603:	48 8d 2d ae 67 20 00 	lea    0x2067ae(%rip),%rbp        # 612db8 <__init_array_end>
  40c60a:	53                   	push   %rbx
  40c60b:	49 89 f6             	mov    %rsi,%r14
  40c60e:	49 89 d5             	mov    %rdx,%r13
  40c611:	4c 29 e5             	sub    %r12,%rbp
  40c614:	48 83 ec 08          	sub    $0x8,%rsp
  40c618:	48 c1 fd 03          	sar    $0x3,%rbp
  40c61c:	e8 d7 75 ff ff       	callq  403bf8 <_init>
  40c621:	48 85 ed             	test   %rbp,%rbp
  40c624:	74 20                	je     40c646 <__libc_csu_init+0x56>
  40c626:	31 db                	xor    %ebx,%ebx
  40c628:	0f 1f 84 00 00 00 00 	nopl   0x0(%rax,%rax,1)
  40c62f:	00 
  40c630:	4c 89 ea             	mov    %r13,%rdx
  40c633:	4c 89 f6             	mov    %r14,%rsi
  40c636:	44 89 ff             	mov    %r15d,%edi
  40c639:	41 ff 14 dc          	callq  *(%r12,%rbx,8)
  40c63d:	48 83 c3 01          	add    $0x1,%rbx
  40c641:	48 39 eb             	cmp    %rbp,%rbx
  40c644:	75 ea                	jne    40c630 <__libc_csu_init+0x40>
  40c646:	48 83 c4 08          	add    $0x8,%rsp
  40c64a:	5b                   	pop    %rbx
  40c64b:	5d                   	pop    %rbp
  40c64c:	41 5c                	pop    %r12
  40c64e:	41 5d                	pop    %r13
  40c650:	41 5e                	pop    %r14
  40c652:	41 5f                	pop    %r15
  40c654:	c3                   	retq   
  40c655:	90                   	nop
  40c656:	66 2e 0f 1f 84 00 00 	nopw   %cs:0x0(%rax,%rax,1)
  40c65d:	00 00 00 

000000000040c660 <__libc_csu_fini>:
  40c660:	f3 c3                	repz retq 

Disassembly of section .fini:

000000000040c664 <_fini>:
  40c664:	48 83 ec 08          	sub    $0x8,%rsp
  40c668:	48 83 c4 08          	add    $0x8,%rsp
  40c66c:	c3                   	retq   
