
conv:     file format elf64-x86-64


Disassembly of section .init:

0000000000405d00 <_init>:
  405d00:	48 83 ec 08          	sub    $0x8,%rsp
  405d04:	48 8b 05 ed 92 21 00 	mov    0x2192ed(%rip),%rax        # 61eff8 <_DYNAMIC+0x230>
  405d0b:	48 85 c0             	test   %rax,%rax
  405d0e:	74 05                	je     405d15 <_init+0x15>
  405d10:	e8 db 05 00 00       	callq  4062f0 <_ZNSt8ios_base4InitD1Ev@plt+0x10>
  405d15:	48 83 c4 08          	add    $0x8,%rsp
  405d19:	c3                   	retq   

Disassembly of section .plt:

0000000000405d20 <_Znam@plt-0x10>:
  405d20:	ff 35 e2 92 21 00    	pushq  0x2192e2(%rip)        # 61f008 <_GLOBAL_OFFSET_TABLE_+0x8>
  405d26:	ff 25 e4 92 21 00    	jmpq   *0x2192e4(%rip)        # 61f010 <_GLOBAL_OFFSET_TABLE_+0x10>
  405d2c:	0f 1f 40 00          	nopl   0x0(%rax)

0000000000405d30 <_Znam@plt>:
  405d30:	ff 25 e2 92 21 00    	jmpq   *0x2192e2(%rip)        # 61f018 <_GLOBAL_OFFSET_TABLE_+0x18>
  405d36:	68 00 00 00 00       	pushq  $0x0
  405d3b:	e9 e0 ff ff ff       	jmpq   405d20 <_init+0x20>

0000000000405d40 <_ZNSt7__cxx1112basic_stringIcSt11char_traitsIcESaIcEEaSERKS4_@plt>:
  405d40:	ff 25 da 92 21 00    	jmpq   *0x2192da(%rip)        # 61f020 <_GLOBAL_OFFSET_TABLE_+0x20>
  405d46:	68 01 00 00 00       	pushq  $0x1
  405d4b:	e9 d0 ff ff ff       	jmpq   405d20 <_init+0x20>

0000000000405d50 <printf@plt>:
  405d50:	ff 25 d2 92 21 00    	jmpq   *0x2192d2(%rip)        # 61f028 <_GLOBAL_OFFSET_TABLE_+0x28>
  405d56:	68 02 00 00 00       	pushq  $0x2
  405d5b:	e9 c0 ff ff ff       	jmpq   405d20 <_init+0x20>

0000000000405d60 <_ZNSt6chrono3_V212system_clock3nowEv@plt>:
  405d60:	ff 25 ca 92 21 00    	jmpq   *0x2192ca(%rip)        # 61f030 <_GLOBAL_OFFSET_TABLE_+0x30>
  405d66:	68 03 00 00 00       	pushq  $0x3
  405d6b:	e9 b0 ff ff ff       	jmpq   405d20 <_init+0x20>

0000000000405d70 <_ZN11arm_compute11CLScheduler3getEv@plt>:
  405d70:	ff 25 c2 92 21 00    	jmpq   *0x2192c2(%rip)        # 61f038 <_GLOBAL_OFFSET_TABLE_+0x38>
  405d76:	68 04 00 00 00       	pushq  $0x4
  405d7b:	e9 a0 ff ff ff       	jmpq   405d20 <_init+0x20>

0000000000405d80 <sprintf@plt>:
  405d80:	ff 25 ba 92 21 00    	jmpq   *0x2192ba(%rip)        # 61f040 <_GLOBAL_OFFSET_TABLE_+0x40>
  405d86:	68 05 00 00 00       	pushq  $0x5
  405d8b:	e9 90 ff ff ff       	jmpq   405d20 <_init+0x20>

0000000000405d90 <_ZSt11_Hash_bytesPKvmm@plt>:
  405d90:	ff 25 b2 92 21 00    	jmpq   *0x2192b2(%rip)        # 61f048 <_GLOBAL_OFFSET_TABLE_+0x48>
  405d96:	68 06 00 00 00       	pushq  $0x6
  405d9b:	e9 80 ff ff ff       	jmpq   405d20 <_init+0x20>

0000000000405da0 <xopenme_clock_start@plt>:
  405da0:	ff 25 aa 92 21 00    	jmpq   *0x2192aa(%rip)        # 61f050 <_GLOBAL_OFFSET_TABLE_+0x50>
  405da6:	68 07 00 00 00       	pushq  $0x7
  405dab:	e9 70 ff ff ff       	jmpq   405d20 <_init+0x20>

0000000000405db0 <xopenme_dump_state@plt>:
  405db0:	ff 25 a2 92 21 00    	jmpq   *0x2192a2(%rip)        # 61f058 <_GLOBAL_OFFSET_TABLE_+0x58>
  405db6:	68 08 00 00 00       	pushq  $0x8
  405dbb:	e9 60 ff ff ff       	jmpq   405d20 <_init+0x20>

0000000000405dc0 <clFinish@plt>:
  405dc0:	ff 25 9a 92 21 00    	jmpq   *0x21929a(%rip)        # 61f060 <_GLOBAL_OFFSET_TABLE_+0x60>
  405dc6:	68 09 00 00 00       	pushq  $0x9
  405dcb:	e9 50 ff ff ff       	jmpq   405d20 <_init+0x20>

0000000000405dd0 <xopenme_finish@plt>:
  405dd0:	ff 25 92 92 21 00    	jmpq   *0x219292(%rip)        # 61f068 <_GLOBAL_OFFSET_TABLE_+0x68>
  405dd6:	68 0a 00 00 00       	pushq  $0xa
  405ddb:	e9 40 ff ff ff       	jmpq   405d20 <_init+0x20>

0000000000405de0 <rand@plt>:
  405de0:	ff 25 8a 92 21 00    	jmpq   *0x21928a(%rip)        # 61f070 <_GLOBAL_OFFSET_TABLE_+0x70>
  405de6:	68 0b 00 00 00       	pushq  $0xb
  405deb:	e9 30 ff ff ff       	jmpq   405d20 <_init+0x20>

0000000000405df0 <_ZNKSt7__cxx1112basic_stringIcSt11char_traitsIcESaIcEE7compareEPKc@plt>:
  405df0:	ff 25 82 92 21 00    	jmpq   *0x219282(%rip)        # 61f078 <_GLOBAL_OFFSET_TABLE_+0x78>
  405df6:	68 0c 00 00 00       	pushq  $0xc
  405dfb:	e9 20 ff ff ff       	jmpq   405d20 <_init+0x20>

0000000000405e00 <_ZN11arm_compute8CLTensor5unmapEv@plt>:
  405e00:	ff 25 7a 92 21 00    	jmpq   *0x21927a(%rip)        # 61f080 <_GLOBAL_OFFSET_TABLE_+0x80>
  405e06:	68 0d 00 00 00       	pushq  $0xd
  405e0b:	e9 10 ff ff ff       	jmpq   405d20 <_init+0x20>

0000000000405e10 <_ZSt17__throw_bad_allocv@plt>:
  405e10:	ff 25 72 92 21 00    	jmpq   *0x219272(%rip)        # 61f088 <_GLOBAL_OFFSET_TABLE_+0x88>
  405e16:	68 0e 00 00 00       	pushq  $0xe
  405e1b:	e9 00 ff ff ff       	jmpq   405d20 <_init+0x20>

0000000000405e20 <xopenme_init@plt>:
  405e20:	ff 25 6a 92 21 00    	jmpq   *0x21926a(%rip)        # 61f090 <_GLOBAL_OFFSET_TABLE_+0x90>
  405e26:	68 0f 00 00 00       	pushq  $0xf
  405e2b:	e9 f0 fe ff ff       	jmpq   405d20 <_init+0x20>

0000000000405e30 <__cxa_begin_catch@plt>:
  405e30:	ff 25 62 92 21 00    	jmpq   *0x219262(%rip)        # 61f098 <_GLOBAL_OFFSET_TABLE_+0x98>
  405e36:	68 10 00 00 00       	pushq  $0x10
  405e3b:	e9 e0 fe ff ff       	jmpq   405d20 <_init+0x20>

0000000000405e40 <_ZNKSt7__cxx1112basic_stringIcSt11char_traitsIcESaIcEE5c_strEv@plt>:
  405e40:	ff 25 5a 92 21 00    	jmpq   *0x21925a(%rip)        # 61f0a0 <_GLOBAL_OFFSET_TABLE_+0xa0>
  405e46:	68 11 00 00 00       	pushq  $0x11
  405e4b:	e9 d0 fe ff ff       	jmpq   405d20 <_init+0x20>

0000000000405e50 <_ZN11arm_compute18CLConvolutionLayer9configureEPKNS_9ICLTensorES3_S3_PS1_RKNS_13PadStrideInfoERKNS_11WeightsInfoE@plt>:
  405e50:	ff 25 52 92 21 00    	jmpq   *0x219252(%rip)        # 61f0a8 <_GLOBAL_OFFSET_TABLE_+0xa8>
  405e56:	68 12 00 00 00       	pushq  $0x12
  405e5b:	e9 c0 fe ff ff       	jmpq   405d20 <_init+0x20>

0000000000405e60 <_ZNSt7__cxx1112basic_stringIcSt11char_traitsIcESaIcEEC1ERKS4_@plt>:
  405e60:	ff 25 4a 92 21 00    	jmpq   *0x21924a(%rip)        # 61f0b0 <_GLOBAL_OFFSET_TABLE_+0xb0>
  405e66:	68 13 00 00 00       	pushq  $0x13
  405e6b:	e9 b0 fe ff ff       	jmpq   405d20 <_init+0x20>

0000000000405e70 <strlen@plt>:
  405e70:	ff 25 42 92 21 00    	jmpq   *0x219242(%rip)        # 61f0b8 <_GLOBAL_OFFSET_TABLE_+0xb8>
  405e76:	68 14 00 00 00       	pushq  $0x14
  405e7b:	e9 a0 fe ff ff       	jmpq   405d20 <_init+0x20>

0000000000405e80 <xopenme_dump_memory@plt>:
  405e80:	ff 25 3a 92 21 00    	jmpq   *0x21923a(%rip)        # 61f0c0 <_GLOBAL_OFFSET_TABLE_+0xc0>
  405e86:	68 15 00 00 00       	pushq  $0x15
  405e8b:	e9 90 fe ff ff       	jmpq   405d20 <_init+0x20>

0000000000405e90 <memcmp@plt>:
  405e90:	ff 25 32 92 21 00    	jmpq   *0x219232(%rip)        # 61f0c8 <_GLOBAL_OFFSET_TABLE_+0xc8>
  405e96:	68 16 00 00 00       	pushq  $0x16
  405e9b:	e9 80 fe ff ff       	jmpq   405d20 <_init+0x20>

0000000000405ea0 <clRetainCommandQueue@plt>:
  405ea0:	ff 25 2a 92 21 00    	jmpq   *0x21922a(%rip)        # 61f0d0 <_GLOBAL_OFFSET_TABLE_+0xd0>
  405ea6:	68 17 00 00 00       	pushq  $0x17
  405eab:	e9 70 fe ff ff       	jmpq   405d20 <_init+0x20>

0000000000405eb0 <clCreateContextFromType@plt>:
  405eb0:	ff 25 22 92 21 00    	jmpq   *0x219222(%rip)        # 61f0d8 <_GLOBAL_OFFSET_TABLE_+0xd8>
  405eb6:	68 18 00 00 00       	pushq  $0x18
  405ebb:	e9 60 fe ff ff       	jmpq   405d20 <_init+0x20>

0000000000405ec0 <__cxa_allocate_exception@plt>:
  405ec0:	ff 25 1a 92 21 00    	jmpq   *0x21921a(%rip)        # 61f0e0 <_GLOBAL_OFFSET_TABLE_+0xe0>
  405ec6:	68 19 00 00 00       	pushq  $0x19
  405ecb:	e9 50 fe ff ff       	jmpq   405d20 <_init+0x20>

0000000000405ed0 <_ZN11arm_compute18CLConvolutionLayerC1ESt10shared_ptrINS_14IMemoryManagerEE@plt>:
  405ed0:	ff 25 12 92 21 00    	jmpq   *0x219212(%rip)        # 61f0e8 <_GLOBAL_OFFSET_TABLE_+0xe8>
  405ed6:	68 1a 00 00 00       	pushq  $0x1a
  405edb:	e9 40 fe ff ff       	jmpq   405d20 <_init+0x20>

0000000000405ee0 <_ZSt20__throw_length_errorPKc@plt>:
  405ee0:	ff 25 0a 92 21 00    	jmpq   *0x21920a(%rip)        # 61f0f0 <_GLOBAL_OFFSET_TABLE_+0xf0>
  405ee6:	68 1b 00 00 00       	pushq  $0x1b
  405eeb:	e9 30 fe ff ff       	jmpq   405d20 <_init+0x20>

0000000000405ef0 <memset@plt>:
  405ef0:	ff 25 02 92 21 00    	jmpq   *0x219202(%rip)        # 61f0f8 <_GLOBAL_OFFSET_TABLE_+0xf8>
  405ef6:	68 1c 00 00 00       	pushq  $0x1c
  405efb:	e9 20 fe ff ff       	jmpq   405d20 <_init+0x20>

0000000000405f00 <_ZN11arm_compute15CLKernelLibrary3getEv@plt>:
  405f00:	ff 25 fa 91 21 00    	jmpq   *0x2191fa(%rip)        # 61f100 <_GLOBAL_OFFSET_TABLE_+0x100>
  405f06:	68 1d 00 00 00       	pushq  $0x1d
  405f0b:	e9 10 fe ff ff       	jmpq   405d20 <_init+0x20>

0000000000405f10 <clReleaseContext@plt>:
  405f10:	ff 25 f2 91 21 00    	jmpq   *0x2191f2(%rip)        # 61f108 <_GLOBAL_OFFSET_TABLE_+0x108>
  405f16:	68 1e 00 00 00       	pushq  $0x1e
  405f1b:	e9 00 fe ff ff       	jmpq   405d20 <_init+0x20>

0000000000405f20 <_ZNSt7__cxx1112basic_stringIcSt11char_traitsIcESaIcEED1Ev@plt>:
  405f20:	ff 25 ea 91 21 00    	jmpq   *0x2191ea(%rip)        # 61f110 <_GLOBAL_OFFSET_TABLE_+0x110>
  405f26:	68 1f 00 00 00       	pushq  $0x1f
  405f2b:	e9 f0 fd ff ff       	jmpq   405d20 <_init+0x20>

0000000000405f30 <__assert_fail@plt>:
  405f30:	ff 25 e2 91 21 00    	jmpq   *0x2191e2(%rip)        # 61f118 <_GLOBAL_OFFSET_TABLE_+0x118>
  405f36:	68 20 00 00 00       	pushq  $0x20
  405f3b:	e9 e0 fd ff ff       	jmpq   405d20 <_init+0x20>

0000000000405f40 <_ZSt20__throw_system_errori@plt>:
  405f40:	ff 25 da 91 21 00    	jmpq   *0x2191da(%rip)        # 61f120 <_GLOBAL_OFFSET_TABLE_+0x120>
  405f46:	68 21 00 00 00       	pushq  $0x21
  405f4b:	e9 d0 fd ff ff       	jmpq   405d20 <_init+0x20>

0000000000405f50 <_ZNKSt7__cxx1112basic_stringIcSt11char_traitsIcESaIcEE4sizeEv@plt>:
  405f50:	ff 25 d2 91 21 00    	jmpq   *0x2191d2(%rip)        # 61f128 <_GLOBAL_OFFSET_TABLE_+0x128>
  405f56:	68 22 00 00 00       	pushq  $0x22
  405f5b:	e9 c0 fd ff ff       	jmpq   405d20 <_init+0x20>

0000000000405f60 <__cxa_atexit@plt>:
  405f60:	ff 25 ca 91 21 00    	jmpq   *0x2191ca(%rip)        # 61f130 <_GLOBAL_OFFSET_TABLE_+0x130>
  405f66:	68 23 00 00 00       	pushq  $0x23
  405f6b:	e9 b0 fd ff ff       	jmpq   405d20 <_init+0x20>

0000000000405f70 <_ZdlPv@plt>:
  405f70:	ff 25 c2 91 21 00    	jmpq   *0x2191c2(%rip)        # 61f138 <_GLOBAL_OFFSET_TABLE_+0x138>
  405f76:	68 24 00 00 00       	pushq  $0x24
  405f7b:	e9 a0 fd ff ff       	jmpq   405d20 <_init+0x20>

0000000000405f80 <srand@plt>:
  405f80:	ff 25 ba 91 21 00    	jmpq   *0x2191ba(%rip)        # 61f140 <_GLOBAL_OFFSET_TABLE_+0x140>
  405f86:	68 25 00 00 00       	pushq  $0x25
  405f8b:	e9 90 fd ff ff       	jmpq   405d20 <_init+0x20>

0000000000405f90 <_Znwm@plt>:
  405f90:	ff 25 b2 91 21 00    	jmpq   *0x2191b2(%rip)        # 61f148 <_GLOBAL_OFFSET_TABLE_+0x148>
  405f96:	68 26 00 00 00       	pushq  $0x26
  405f9b:	e9 80 fd ff ff       	jmpq   405d20 <_init+0x20>

0000000000405fa0 <_ZNKSt7__cxx1112basic_stringIcSt11char_traitsIcESaIcEE6substrEmm@plt>:
  405fa0:	ff 25 aa 91 21 00    	jmpq   *0x2191aa(%rip)        # 61f150 <_GLOBAL_OFFSET_TABLE_+0x150>
  405fa6:	68 27 00 00 00       	pushq  $0x27
  405fab:	e9 70 fd ff ff       	jmpq   405d20 <_init+0x20>

0000000000405fb0 <_ZN11arm_compute17ICLSimpleFunction3runEv@plt>:
  405fb0:	ff 25 a2 91 21 00    	jmpq   *0x2191a2(%rip)        # 61f158 <_GLOBAL_OFFSET_TABLE_+0x158>
  405fb6:	68 28 00 00 00       	pushq  $0x28
  405fbb:	e9 60 fd ff ff       	jmpq   405d20 <_init+0x20>

0000000000405fc0 <_ZNSaIcED1Ev@plt>:
  405fc0:	ff 25 9a 91 21 00    	jmpq   *0x21919a(%rip)        # 61f160 <_GLOBAL_OFFSET_TABLE_+0x160>
  405fc6:	68 29 00 00 00       	pushq  $0x29
  405fcb:	e9 50 fd ff ff       	jmpq   405d20 <_init+0x20>

0000000000405fd0 <__stack_chk_fail@plt>:
  405fd0:	ff 25 92 91 21 00    	jmpq   *0x219192(%rip)        # 61f168 <_GLOBAL_OFFSET_TABLE_+0x168>
  405fd6:	68 2a 00 00 00       	pushq  $0x2a
  405fdb:	e9 40 fd ff ff       	jmpq   405d20 <_init+0x20>

0000000000405fe0 <_ZNK11arm_compute7IKernel6windowEv@plt>:
  405fe0:	ff 25 8a 91 21 00    	jmpq   *0x21918a(%rip)        # 61f170 <_GLOBAL_OFFSET_TABLE_+0x170>
  405fe6:	68 2b 00 00 00       	pushq  $0x2b
  405feb:	e9 30 fd ff ff       	jmpq   405d20 <_init+0x20>

0000000000405ff0 <_ZN11arm_compute16ITensorAllocator4initERKNS_10TensorInfoE@plt>:
  405ff0:	ff 25 82 91 21 00    	jmpq   *0x219182(%rip)        # 61f178 <_GLOBAL_OFFSET_TABLE_+0x178>
  405ff6:	68 2c 00 00 00       	pushq  $0x2c
  405ffb:	e9 20 fd ff ff       	jmpq   405d20 <_init+0x20>

0000000000406000 <xopenme_add_var_i@plt>:
  406000:	ff 25 7a 91 21 00    	jmpq   *0x21917a(%rip)        # 61f180 <_GLOBAL_OFFSET_TABLE_+0x180>
  406006:	68 2d 00 00 00       	pushq  $0x2d
  40600b:	e9 10 fd ff ff       	jmpq   405d20 <_init+0x20>

0000000000406010 <_ZN11arm_compute8CLTensor9allocatorEv@plt>:
  406010:	ff 25 72 91 21 00    	jmpq   *0x219172(%rip)        # 61f188 <_GLOBAL_OFFSET_TABLE_+0x188>
  406016:	68 2e 00 00 00       	pushq  $0x2e
  40601b:	e9 00 fd ff ff       	jmpq   405d20 <_init+0x20>

0000000000406020 <getenv@plt>:
  406020:	ff 25 6a 91 21 00    	jmpq   *0x21916a(%rip)        # 61f190 <_GLOBAL_OFFSET_TABLE_+0x190>
  406026:	68 2f 00 00 00       	pushq  $0x2f
  40602b:	e9 f0 fc ff ff       	jmpq   405d20 <_init+0x20>

0000000000406030 <_ZNSt7__cxx1112basic_stringIcSt11char_traitsIcESaIcEEaSEOS4_@plt>:
  406030:	ff 25 62 91 21 00    	jmpq   *0x219162(%rip)        # 61f198 <_GLOBAL_OFFSET_TABLE_+0x198>
  406036:	68 30 00 00 00       	pushq  $0x30
  40603b:	e9 e0 fc ff ff       	jmpq   405d20 <_init+0x20>

0000000000406040 <atof@plt>:
  406040:	ff 25 5a 91 21 00    	jmpq   *0x21915a(%rip)        # 61f1a0 <_GLOBAL_OFFSET_TABLE_+0x1a0>
  406046:	68 31 00 00 00       	pushq  $0x31
  40604b:	e9 d0 fc ff ff       	jmpq   405d20 <_init+0x20>

0000000000406050 <clGetDeviceIDs@plt>:
  406050:	ff 25 52 91 21 00    	jmpq   *0x219152(%rip)        # 61f1a8 <_GLOBAL_OFFSET_TABLE_+0x1a8>
  406056:	68 32 00 00 00       	pushq  $0x32
  40605b:	e9 c0 fc ff ff       	jmpq   405d20 <_init+0x20>

0000000000406060 <clGetContextInfo@plt>:
  406060:	ff 25 4a 91 21 00    	jmpq   *0x21914a(%rip)        # 61f1b0 <_GLOBAL_OFFSET_TABLE_+0x1b0>
  406066:	68 33 00 00 00       	pushq  $0x33
  40606b:	e9 b0 fc ff ff       	jmpq   405d20 <_init+0x20>

0000000000406070 <__cxa_get_exception_ptr@plt>:
  406070:	ff 25 42 91 21 00    	jmpq   *0x219142(%rip)        # 61f1b8 <_GLOBAL_OFFSET_TABLE_+0x1b8>
  406076:	68 34 00 00 00       	pushq  $0x34
  40607b:	e9 a0 fc ff ff       	jmpq   405d20 <_init+0x20>

0000000000406080 <clReleaseCommandQueue@plt>:
  406080:	ff 25 3a 91 21 00    	jmpq   *0x21913a(%rip)        # 61f1c0 <_GLOBAL_OFFSET_TABLE_+0x1c0>
  406086:	68 35 00 00 00       	pushq  $0x35
  40608b:	e9 90 fc ff ff       	jmpq   405d20 <_init+0x20>

0000000000406090 <_ZdaPv@plt>:
  406090:	ff 25 32 91 21 00    	jmpq   *0x219132(%rip)        # 61f1c8 <_GLOBAL_OFFSET_TABLE_+0x1c8>
  406096:	68 36 00 00 00       	pushq  $0x36
  40609b:	e9 80 fc ff ff       	jmpq   405d20 <_init+0x20>

00000000004060a0 <_ZNKSt7__cxx1112basic_stringIcSt11char_traitsIcESaIcEE4dataEv@plt>:
  4060a0:	ff 25 2a 91 21 00    	jmpq   *0x21912a(%rip)        # 61f1d0 <_GLOBAL_OFFSET_TABLE_+0x1d0>
  4060a6:	68 37 00 00 00       	pushq  $0x37
  4060ab:	e9 70 fc ff ff       	jmpq   405d20 <_init+0x20>

00000000004060b0 <_ZN11arm_compute22get_target_from_deviceERN2cl6DeviceE@plt>:
  4060b0:	ff 25 22 91 21 00    	jmpq   *0x219122(%rip)        # 61f1d8 <_GLOBAL_OFFSET_TABLE_+0x1d8>
  4060b6:	68 38 00 00 00       	pushq  $0x38
  4060bb:	e9 60 fc ff ff       	jmpq   405d20 <_init+0x20>

00000000004060c0 <clGetPlatformIDs@plt>:
  4060c0:	ff 25 1a 91 21 00    	jmpq   *0x21911a(%rip)        # 61f1e0 <_GLOBAL_OFFSET_TABLE_+0x1e0>
  4060c6:	68 39 00 00 00       	pushq  $0x39
  4060cb:	e9 50 fc ff ff       	jmpq   405d20 <_init+0x20>

00000000004060d0 <_ZNKSt8__detail20_Prime_rehash_policy14_M_need_rehashEmmm@plt>:
  4060d0:	ff 25 12 91 21 00    	jmpq   *0x219112(%rip)        # 61f1e8 <_GLOBAL_OFFSET_TABLE_+0x1e8>
  4060d6:	68 3a 00 00 00       	pushq  $0x3a
  4060db:	e9 40 fc ff ff       	jmpq   405d20 <_init+0x20>

00000000004060e0 <xopenme_clock_end@plt>:
  4060e0:	ff 25 0a 91 21 00    	jmpq   *0x21910a(%rip)        # 61f1f0 <_GLOBAL_OFFSET_TABLE_+0x1f0>
  4060e6:	68 3b 00 00 00       	pushq  $0x3b
  4060eb:	e9 30 fc ff ff       	jmpq   405d20 <_init+0x20>

00000000004060f0 <_ZNSt7__cxx1112basic_stringIcSt11char_traitsIcESaIcEEC1EPKcRKS3_@plt>:
  4060f0:	ff 25 02 91 21 00    	jmpq   *0x219102(%rip)        # 61f1f8 <_GLOBAL_OFFSET_TABLE_+0x1f8>
  4060f6:	68 3c 00 00 00       	pushq  $0x3c
  4060fb:	e9 20 fc ff ff       	jmpq   405d20 <_init+0x20>

0000000000406100 <putchar@plt>:
  406100:	ff 25 fa 90 21 00    	jmpq   *0x2190fa(%rip)        # 61f200 <_GLOBAL_OFFSET_TABLE_+0x200>
  406106:	68 3d 00 00 00       	pushq  $0x3d
  40610b:	e9 10 fc ff ff       	jmpq   405d20 <_init+0x20>

0000000000406110 <__cxa_throw_bad_array_new_length@plt>:
  406110:	ff 25 f2 90 21 00    	jmpq   *0x2190f2(%rip)        # 61f208 <_GLOBAL_OFFSET_TABLE_+0x208>
  406116:	68 3e 00 00 00       	pushq  $0x3e
  40611b:	e9 00 fc ff ff       	jmpq   405d20 <_init+0x20>

0000000000406120 <__cxa_rethrow@plt>:
  406120:	ff 25 ea 90 21 00    	jmpq   *0x2190ea(%rip)        # 61f210 <_GLOBAL_OFFSET_TABLE_+0x210>
  406126:	68 3f 00 00 00       	pushq  $0x3f
  40612b:	e9 f0 fb ff ff       	jmpq   405d20 <_init+0x20>

0000000000406130 <_ZNKSt7__cxx1112basic_stringIcSt11char_traitsIcESaIcEE6lengthEv@plt>:
  406130:	ff 25 e2 90 21 00    	jmpq   *0x2190e2(%rip)        # 61f218 <_GLOBAL_OFFSET_TABLE_+0x218>
  406136:	68 40 00 00 00       	pushq  $0x40
  40613b:	e9 e0 fb ff ff       	jmpq   405d20 <_init+0x20>

0000000000406140 <_ZSt24__throw_out_of_range_fmtPKcz@plt>:
  406140:	ff 25 da 90 21 00    	jmpq   *0x2190da(%rip)        # 61f220 <_GLOBAL_OFFSET_TABLE_+0x220>
  406146:	68 41 00 00 00       	pushq  $0x41
  40614b:	e9 d0 fb ff ff       	jmpq   405d20 <_init+0x20>

0000000000406150 <_ZNK11arm_compute7IKernel17is_parallelisableEv@plt>:
  406150:	ff 25 d2 90 21 00    	jmpq   *0x2190d2(%rip)        # 61f228 <_GLOBAL_OFFSET_TABLE_+0x228>
  406156:	68 42 00 00 00       	pushq  $0x42
  40615b:	e9 c0 fb ff ff       	jmpq   405d20 <_init+0x20>

0000000000406160 <_ZNSt8ios_base4InitC1Ev@plt>:
  406160:	ff 25 ca 90 21 00    	jmpq   *0x2190ca(%rip)        # 61f230 <_GLOBAL_OFFSET_TABLE_+0x230>
  406166:	68 43 00 00 00       	pushq  $0x43
  40616b:	e9 b0 fb ff ff       	jmpq   405d20 <_init+0x20>

0000000000406170 <puts@plt>:
  406170:	ff 25 c2 90 21 00    	jmpq   *0x2190c2(%rip)        # 61f238 <_GLOBAL_OFFSET_TABLE_+0x238>
  406176:	68 44 00 00 00       	pushq  $0x44
  40617b:	e9 a0 fb ff ff       	jmpq   405d20 <_init+0x20>

0000000000406180 <atoi@plt>:
  406180:	ff 25 ba 90 21 00    	jmpq   *0x2190ba(%rip)        # 61f240 <_GLOBAL_OFFSET_TABLE_+0x240>
  406186:	68 45 00 00 00       	pushq  $0x45
  40618b:	e9 90 fb ff ff       	jmpq   405d20 <_init+0x20>

0000000000406190 <_ZN11arm_compute17CLTensorAllocatorD1Ev@plt>:
  406190:	ff 25 b2 90 21 00    	jmpq   *0x2190b2(%rip)        # 61f248 <_GLOBAL_OFFSET_TABLE_+0x248>
  406196:	68 46 00 00 00       	pushq  $0x46
  40619b:	e9 80 fb ff ff       	jmpq   405d20 <_init+0x20>

00000000004061a0 <clCreateCommandQueue@plt>:
  4061a0:	ff 25 aa 90 21 00    	jmpq   *0x2190aa(%rip)        # 61f250 <_GLOBAL_OFFSET_TABLE_+0x250>
  4061a6:	68 47 00 00 00       	pushq  $0x47
  4061ab:	e9 70 fb ff ff       	jmpq   405d20 <_init+0x20>

00000000004061b0 <__once_proxy@plt>:
  4061b0:	ff 25 a2 90 21 00    	jmpq   *0x2190a2(%rip)        # 61f258 <_GLOBAL_OFFSET_TABLE_+0x258>
  4061b6:	68 48 00 00 00       	pushq  $0x48
  4061bb:	e9 60 fb ff ff       	jmpq   405d20 <_init+0x20>

00000000004061c0 <__cxa_end_catch@plt>:
  4061c0:	ff 25 9a 90 21 00    	jmpq   *0x21909a(%rip)        # 61f260 <_GLOBAL_OFFSET_TABLE_+0x260>
  4061c6:	68 49 00 00 00       	pushq  $0x49
  4061cb:	e9 50 fb ff ff       	jmpq   405d20 <_init+0x20>

00000000004061d0 <pthread_once@plt>:
  4061d0:	ff 25 92 90 21 00    	jmpq   *0x219092(%rip)        # 61f268 <_GLOBAL_OFFSET_TABLE_+0x268>
  4061d6:	68 4a 00 00 00       	pushq  $0x4a
  4061db:	e9 40 fb ff ff       	jmpq   405d20 <_init+0x20>

00000000004061e0 <__gxx_personality_v0@plt>:
  4061e0:	ff 25 8a 90 21 00    	jmpq   *0x21908a(%rip)        # 61f270 <_GLOBAL_OFFSET_TABLE_+0x270>
  4061e6:	68 4b 00 00 00       	pushq  $0x4b
  4061eb:	e9 30 fb ff ff       	jmpq   405d20 <_init+0x20>

00000000004061f0 <__pthread_key_create@plt>:
  4061f0:	ff 25 82 90 21 00    	jmpq   *0x219082(%rip)        # 61f278 <_GLOBAL_OFFSET_TABLE_+0x278>
  4061f6:	68 4c 00 00 00       	pushq  $0x4c
  4061fb:	e9 20 fb ff ff       	jmpq   405d20 <_init+0x20>

0000000000406200 <_ZNK11arm_compute7IKernel11border_sizeEv@plt>:
  406200:	ff 25 7a 90 21 00    	jmpq   *0x21907a(%rip)        # 61f280 <_GLOBAL_OFFSET_TABLE_+0x280>
  406206:	68 4d 00 00 00       	pushq  $0x4d
  40620b:	e9 10 fb ff ff       	jmpq   405d20 <_init+0x20>

0000000000406210 <clRetainContext@plt>:
  406210:	ff 25 72 90 21 00    	jmpq   *0x219072(%rip)        # 61f288 <_GLOBAL_OFFSET_TABLE_+0x288>
  406216:	68 4e 00 00 00       	pushq  $0x4e
  40621b:	e9 00 fb ff ff       	jmpq   405d20 <_init+0x20>

0000000000406220 <_ZN11arm_compute10TensorInfoC1ERKNS_11TensorShapeENS_6FormatE@plt>:
  406220:	ff 25 6a 90 21 00    	jmpq   *0x21906a(%rip)        # 61f290 <_GLOBAL_OFFSET_TABLE_+0x290>
  406226:	68 4f 00 00 00       	pushq  $0x4f
  40622b:	e9 f0 fa ff ff       	jmpq   405d20 <_init+0x20>

0000000000406230 <__cxa_throw@plt>:
  406230:	ff 25 62 90 21 00    	jmpq   *0x219062(%rip)        # 61f298 <_GLOBAL_OFFSET_TABLE_+0x298>
  406236:	68 50 00 00 00       	pushq  $0x50
  40623b:	e9 e0 fa ff ff       	jmpq   405d20 <_init+0x20>

0000000000406240 <_Unwind_Resume@plt>:
  406240:	ff 25 5a 90 21 00    	jmpq   *0x21905a(%rip)        # 61f2a0 <_GLOBAL_OFFSET_TABLE_+0x2a0>
  406246:	68 51 00 00 00       	pushq  $0x51
  40624b:	e9 d0 fa ff ff       	jmpq   405d20 <_init+0x20>

0000000000406250 <_ZNSaIcEC1Ev@plt>:
  406250:	ff 25 52 90 21 00    	jmpq   *0x219052(%rip)        # 61f2a8 <_GLOBAL_OFFSET_TABLE_+0x2a8>
  406256:	68 52 00 00 00       	pushq  $0x52
  40625b:	e9 c0 fa ff ff       	jmpq   405d20 <_init+0x20>

0000000000406260 <_ZN11arm_compute8CLTensor3mapEb@plt>:
  406260:	ff 25 4a 90 21 00    	jmpq   *0x21904a(%rip)        # 61f2b0 <_GLOBAL_OFFSET_TABLE_+0x2b0>
  406266:	68 53 00 00 00       	pushq  $0x53
  40626b:	e9 b0 fa ff ff       	jmpq   405d20 <_init+0x20>

0000000000406270 <_ZNSt9exceptionD2Ev@plt>:
  406270:	ff 25 42 90 21 00    	jmpq   *0x219042(%rip)        # 61f2b8 <_GLOBAL_OFFSET_TABLE_+0x2b8>
  406276:	68 54 00 00 00       	pushq  $0x54
  40627b:	e9 a0 fa ff ff       	jmpq   405d20 <_init+0x20>

0000000000406280 <clReleaseKernel@plt>:
  406280:	ff 25 3a 90 21 00    	jmpq   *0x21903a(%rip)        # 61f2c0 <_GLOBAL_OFFSET_TABLE_+0x2c0>
  406286:	68 55 00 00 00       	pushq  $0x55
  40628b:	e9 90 fa ff ff       	jmpq   405d20 <_init+0x20>

0000000000406290 <__libc_start_main@plt>:
  406290:	ff 25 32 90 21 00    	jmpq   *0x219032(%rip)        # 61f2c8 <_GLOBAL_OFFSET_TABLE_+0x2c8>
  406296:	68 56 00 00 00       	pushq  $0x56
  40629b:	e9 80 fa ff ff       	jmpq   405d20 <_init+0x20>

00000000004062a0 <xopenme_add_var_f@plt>:
  4062a0:	ff 25 2a 90 21 00    	jmpq   *0x21902a(%rip)        # 61f2d0 <_GLOBAL_OFFSET_TABLE_+0x2d0>
  4062a6:	68 57 00 00 00       	pushq  $0x57
  4062ab:	e9 70 fa ff ff       	jmpq   405d20 <_init+0x20>

00000000004062b0 <_ZN11arm_compute8CLTensorC1Ev@plt>:
  4062b0:	ff 25 22 90 21 00    	jmpq   *0x219022(%rip)        # 61f2d8 <_GLOBAL_OFFSET_TABLE_+0x2d8>
  4062b6:	68 58 00 00 00       	pushq  $0x58
  4062bb:	e9 60 fa ff ff       	jmpq   405d20 <_init+0x20>

00000000004062c0 <__cxa_pure_virtual@plt>:
  4062c0:	ff 25 1a 90 21 00    	jmpq   *0x21901a(%rip)        # 61f2e0 <_GLOBAL_OFFSET_TABLE_+0x2e0>
  4062c6:	68 59 00 00 00       	pushq  $0x59
  4062cb:	e9 50 fa ff ff       	jmpq   405d20 <_init+0x20>

00000000004062d0 <xopenme_get_timer@plt>:
  4062d0:	ff 25 12 90 21 00    	jmpq   *0x219012(%rip)        # 61f2e8 <_GLOBAL_OFFSET_TABLE_+0x2e8>
  4062d6:	68 5a 00 00 00       	pushq  $0x5a
  4062db:	e9 40 fa ff ff       	jmpq   405d20 <_init+0x20>

00000000004062e0 <_ZNSt8ios_base4InitD1Ev@plt>:
  4062e0:	ff 25 0a 90 21 00    	jmpq   *0x21900a(%rip)        # 61f2f0 <_GLOBAL_OFFSET_TABLE_+0x2f0>
  4062e6:	68 5b 00 00 00       	pushq  $0x5b
  4062eb:	e9 30 fa ff ff       	jmpq   405d20 <_init+0x20>

Disassembly of section .plt.got:

00000000004062f0 <.plt.got>:
  4062f0:	ff 25 02 8d 21 00    	jmpq   *0x218d02(%rip)        # 61eff8 <_DYNAMIC+0x230>
  4062f6:	66 90                	xchg   %ax,%ax

Disassembly of section .text:

0000000000406300 <_start>:
  406300:	31 ed                	xor    %ebp,%ebp
  406302:	49 89 d1             	mov    %rdx,%r9
  406305:	5e                   	pop    %rsi
  406306:	48 89 e2             	mov    %rsp,%rdx
  406309:	48 83 e4 f0          	and    $0xfffffffffffffff0,%rsp
  40630d:	50                   	push   %rax
  40630e:	54                   	push   %rsp
  40630f:	49 c7 c0 50 4a 41 00 	mov    $0x414a50,%r8
  406316:	48 c7 c1 e0 49 41 00 	mov    $0x4149e0,%rcx
  40631d:	48 c7 c7 db 6b 40 00 	mov    $0x406bdb,%rdi
  406324:	e8 67 ff ff ff       	callq  406290 <__libc_start_main@plt>
  406329:	f4                   	hlt    
  40632a:	66 0f 1f 44 00 00    	nopw   0x0(%rax,%rax,1)

0000000000406330 <deregister_tm_clones>:
  406330:	b8 0f f3 61 00       	mov    $0x61f30f,%eax
  406335:	55                   	push   %rbp
  406336:	48 2d 08 f3 61 00    	sub    $0x61f308,%rax
  40633c:	48 83 f8 0e          	cmp    $0xe,%rax
  406340:	48 89 e5             	mov    %rsp,%rbp
  406343:	76 1b                	jbe    406360 <deregister_tm_clones+0x30>
  406345:	b8 00 00 00 00       	mov    $0x0,%eax
  40634a:	48 85 c0             	test   %rax,%rax
  40634d:	74 11                	je     406360 <deregister_tm_clones+0x30>
  40634f:	5d                   	pop    %rbp
  406350:	bf 08 f3 61 00       	mov    $0x61f308,%edi
  406355:	ff e0                	jmpq   *%rax
  406357:	66 0f 1f 84 00 00 00 	nopw   0x0(%rax,%rax,1)
  40635e:	00 00 
  406360:	5d                   	pop    %rbp
  406361:	c3                   	retq   
  406362:	0f 1f 40 00          	nopl   0x0(%rax)
  406366:	66 2e 0f 1f 84 00 00 	nopw   %cs:0x0(%rax,%rax,1)
  40636d:	00 00 00 

0000000000406370 <register_tm_clones>:
  406370:	be 08 f3 61 00       	mov    $0x61f308,%esi
  406375:	55                   	push   %rbp
  406376:	48 81 ee 08 f3 61 00 	sub    $0x61f308,%rsi
  40637d:	48 c1 fe 03          	sar    $0x3,%rsi
  406381:	48 89 e5             	mov    %rsp,%rbp
  406384:	48 89 f0             	mov    %rsi,%rax
  406387:	48 c1 e8 3f          	shr    $0x3f,%rax
  40638b:	48 01 c6             	add    %rax,%rsi
  40638e:	48 d1 fe             	sar    %rsi
  406391:	74 15                	je     4063a8 <register_tm_clones+0x38>
  406393:	b8 00 00 00 00       	mov    $0x0,%eax
  406398:	48 85 c0             	test   %rax,%rax
  40639b:	74 0b                	je     4063a8 <register_tm_clones+0x38>
  40639d:	5d                   	pop    %rbp
  40639e:	bf 08 f3 61 00       	mov    $0x61f308,%edi
  4063a3:	ff e0                	jmpq   *%rax
  4063a5:	0f 1f 00             	nopl   (%rax)
  4063a8:	5d                   	pop    %rbp
  4063a9:	c3                   	retq   
  4063aa:	66 0f 1f 44 00 00    	nopw   0x0(%rax,%rax,1)

00000000004063b0 <__do_global_dtors_aux>:
  4063b0:	80 3d 71 96 21 00 00 	cmpb   $0x0,0x219671(%rip)        # 61fa28 <completed.7593>
  4063b7:	75 11                	jne    4063ca <__do_global_dtors_aux+0x1a>
  4063b9:	55                   	push   %rbp
  4063ba:	48 89 e5             	mov    %rsp,%rbp
  4063bd:	e8 6e ff ff ff       	callq  406330 <deregister_tm_clones>
  4063c2:	5d                   	pop    %rbp
  4063c3:	c6 05 5e 96 21 00 01 	movb   $0x1,0x21965e(%rip)        # 61fa28 <completed.7593>
  4063ca:	f3 c3                	repz retq 
  4063cc:	0f 1f 40 00          	nopl   0x0(%rax)

00000000004063d0 <frame_dummy>:
  4063d0:	bf c0 ed 61 00       	mov    $0x61edc0,%edi
  4063d5:	48 83 3f 00          	cmpq   $0x0,(%rdi)
  4063d9:	75 05                	jne    4063e0 <frame_dummy+0x10>
  4063db:	eb 93                	jmp    406370 <register_tm_clones>
  4063dd:	0f 1f 00             	nopl   (%rax)
  4063e0:	b8 00 00 00 00       	mov    $0x0,%eax
  4063e5:	48 85 c0             	test   %rax,%rax
  4063e8:	74 f1                	je     4063db <frame_dummy+0xb>
  4063ea:	55                   	push   %rbp
  4063eb:	48 89 e5             	mov    %rsp,%rbp
  4063ee:	ff d0                	callq  *%rax
  4063f0:	5d                   	pop    %rbp
  4063f1:	e9 7a ff ff ff       	jmpq   406370 <register_tm_clones>

00000000004063f6 <_ZL18__gthread_active_pv>:
  4063f6:	55                   	push   %rbp
  4063f7:	48 89 e5             	mov    %rsp,%rbp
  4063fa:	b8 01 00 00 00       	mov    $0x1,%eax
  4063ff:	ba f0 61 40 00       	mov    $0x4061f0,%edx
  406404:	48 85 d2             	test   %rdx,%rdx
  406407:	75 05                	jne    40640e <_ZL18__gthread_active_pv+0x18>
  406409:	b8 00 00 00 00       	mov    $0x0,%eax
  40640e:	0f b6 c0             	movzbl %al,%eax
  406411:	5d                   	pop    %rbp
  406412:	c3                   	retq   

0000000000406413 <_ZL14__gthread_oncePiPFvvE>:
  406413:	55                   	push   %rbp
  406414:	48 89 e5             	mov    %rsp,%rbp
  406417:	48 83 ec 10          	sub    $0x10,%rsp
  40641b:	48 89 7d f8          	mov    %rdi,-0x8(%rbp)
  40641f:	48 89 75 f0          	mov    %rsi,-0x10(%rbp)
  406423:	e8 ce ff ff ff       	callq  4063f6 <_ZL18__gthread_active_pv>
  406428:	85 c0                	test   %eax,%eax
  40642a:	0f 95 c0             	setne  %al
  40642d:	84 c0                	test   %al,%al
  40642f:	74 15                	je     406446 <_ZL14__gthread_oncePiPFvvE+0x33>
  406431:	48 8b 55 f0          	mov    -0x10(%rbp),%rdx
  406435:	48 8b 45 f8          	mov    -0x8(%rbp),%rax
  406439:	48 89 d6             	mov    %rdx,%rsi
  40643c:	48 89 c7             	mov    %rax,%rdi
  40643f:	e8 8c fd ff ff       	callq  4061d0 <pthread_once@plt>
  406444:	eb 05                	jmp    40644b <_ZL14__gthread_oncePiPFvvE+0x38>
  406446:	b8 ff ff ff ff       	mov    $0xffffffff,%eax
  40644b:	c9                   	leaveq 
  40644c:	c3                   	retq   

000000000040644d <_ZN9__gnu_cxxL18__exchange_and_addEPVii>:
  40644d:	55                   	push   %rbp
  40644e:	48 89 e5             	mov    %rsp,%rbp
  406451:	48 89 7d f8          	mov    %rdi,-0x8(%rbp)
  406455:	89 75 f4             	mov    %esi,-0xc(%rbp)
  406458:	8b 55 f4             	mov    -0xc(%rbp),%edx
  40645b:	48 8b 45 f8          	mov    -0x8(%rbp),%rax
  40645f:	f0 0f c1 10          	lock xadd %edx,(%rax)
  406463:	89 d0                	mov    %edx,%eax
  406465:	5d                   	pop    %rbp
  406466:	c3                   	retq   

0000000000406467 <_ZN9__gnu_cxxL25__exchange_and_add_singleEPii>:
  406467:	55                   	push   %rbp
  406468:	48 89 e5             	mov    %rsp,%rbp
  40646b:	48 89 7d e8          	mov    %rdi,-0x18(%rbp)
  40646f:	89 75 e4             	mov    %esi,-0x1c(%rbp)
  406472:	48 8b 45 e8          	mov    -0x18(%rbp),%rax
  406476:	8b 00                	mov    (%rax),%eax
  406478:	89 45 fc             	mov    %eax,-0x4(%rbp)
  40647b:	48 8b 45 e8          	mov    -0x18(%rbp),%rax
  40647f:	8b 10                	mov    (%rax),%edx
  406481:	8b 45 e4             	mov    -0x1c(%rbp),%eax
  406484:	01 c2                	add    %eax,%edx
  406486:	48 8b 45 e8          	mov    -0x18(%rbp),%rax
  40648a:	89 10                	mov    %edx,(%rax)
  40648c:	8b 45 fc             	mov    -0x4(%rbp),%eax
  40648f:	5d                   	pop    %rbp
  406490:	c3                   	retq   

0000000000406491 <_ZN9__gnu_cxxL27__exchange_and_add_dispatchEPii>:
  406491:	55                   	push   %rbp
  406492:	48 89 e5             	mov    %rsp,%rbp
  406495:	48 83 ec 10          	sub    $0x10,%rsp
  406499:	48 89 7d f8          	mov    %rdi,-0x8(%rbp)
  40649d:	89 75 f4             	mov    %esi,-0xc(%rbp)
  4064a0:	e8 51 ff ff ff       	callq  4063f6 <_ZL18__gthread_active_pv>
  4064a5:	85 c0                	test   %eax,%eax
  4064a7:	0f 95 c0             	setne  %al
  4064aa:	84 c0                	test   %al,%al
  4064ac:	74 13                	je     4064c1 <_ZN9__gnu_cxxL27__exchange_and_add_dispatchEPii+0x30>
  4064ae:	8b 55 f4             	mov    -0xc(%rbp),%edx
  4064b1:	48 8b 45 f8          	mov    -0x8(%rbp),%rax
  4064b5:	89 d6                	mov    %edx,%esi
  4064b7:	48 89 c7             	mov    %rax,%rdi
  4064ba:	e8 8e ff ff ff       	callq  40644d <_ZN9__gnu_cxxL18__exchange_and_addEPVii>
  4064bf:	eb 11                	jmp    4064d2 <_ZN9__gnu_cxxL27__exchange_and_add_dispatchEPii+0x41>
  4064c1:	8b 55 f4             	mov    -0xc(%rbp),%edx
  4064c4:	48 8b 45 f8          	mov    -0x8(%rbp),%rax
  4064c8:	89 d6                	mov    %edx,%esi
  4064ca:	48 89 c7             	mov    %rax,%rdi
  4064cd:	e8 95 ff ff ff       	callq  406467 <_ZN9__gnu_cxxL25__exchange_and_add_singleEPii>
  4064d2:	c9                   	leaveq 
  4064d3:	c3                   	retq   

00000000004064d4 <_ZN2cl6detailL10errHandlerEiPKc>:
  4064d4:	55                   	push   %rbp
  4064d5:	48 89 e5             	mov    %rsp,%rbp
  4064d8:	53                   	push   %rbx
  4064d9:	48 83 ec 18          	sub    $0x18,%rsp
  4064dd:	89 7d ec             	mov    %edi,-0x14(%rbp)
  4064e0:	48 89 75 e0          	mov    %rsi,-0x20(%rbp)
  4064e4:	83 7d ec 00          	cmpl   $0x0,-0x14(%rbp)
  4064e8:	74 30                	je     40651a <_ZN2cl6detailL10errHandlerEiPKc+0x46>
  4064ea:	bf 18 00 00 00       	mov    $0x18,%edi
  4064ef:	e8 cc f9 ff ff       	callq  405ec0 <__cxa_allocate_exception@plt>
  4064f4:	48 89 c3             	mov    %rax,%rbx
  4064f7:	48 8b 55 e0          	mov    -0x20(%rbp),%rdx
  4064fb:	8b 45 ec             	mov    -0x14(%rbp),%eax
  4064fe:	89 c6                	mov    %eax,%esi
  406500:	48 89 df             	mov    %rbx,%rdi
  406503:	e8 da 0f 00 00       	callq  4074e2 <_ZN2cl5ErrorC1EiPKc>
  406508:	ba 26 75 40 00       	mov    $0x407526,%edx
  40650d:	be 58 54 41 00       	mov    $0x415458,%esi
  406512:	48 89 df             	mov    %rbx,%rdi
  406515:	e8 16 fd ff ff       	callq  406230 <__cxa_throw@plt>
  40651a:	8b 45 ec             	mov    -0x14(%rbp),%eax
  40651d:	48 83 c4 18          	add    $0x18,%rsp
  406521:	5b                   	pop    %rbx
  406522:	5d                   	pop    %rbp
  406523:	c3                   	retq   

0000000000406524 <_ZN2cl6detailL10getVersionERKSt6vectorIcSaIcEE>:
  406524:	55                   	push   %rbp
  406525:	48 89 e5             	mov    %rsp,%rbp
  406528:	48 83 ec 20          	sub    $0x20,%rsp
  40652c:	48 89 7d e8          	mov    %rdi,-0x18(%rbp)
  406530:	c7 45 f4 00 00 00 00 	movl   $0x0,-0xc(%rbp)
  406537:	c7 45 f8 00 00 00 00 	movl   $0x0,-0x8(%rbp)
  40653e:	c7 45 fc 07 00 00 00 	movl   $0x7,-0x4(%rbp)
  406545:	8b 45 fc             	mov    -0x4(%rbp),%eax
  406548:	48 63 d0             	movslq %eax,%rdx
  40654b:	48 8b 45 e8          	mov    -0x18(%rbp),%rax
  40654f:	48 89 d6             	mov    %rdx,%rsi
  406552:	48 89 c7             	mov    %rax,%rdi
  406555:	e8 48 3f 00 00       	callq  40a4a2 <_ZNKSt6vectorIcSaIcEEixEm>
  40655a:	0f b6 00             	movzbl (%rax),%eax
  40655d:	3c 2e                	cmp    $0x2e,%al
  40655f:	0f 95 c0             	setne  %al
  406562:	84 c0                	test   %al,%al
  406564:	74 36                	je     40659c <_ZN2cl6detailL10getVersionERKSt6vectorIcSaIcEE+0x78>
  406566:	8b 55 f4             	mov    -0xc(%rbp),%edx
  406569:	89 d0                	mov    %edx,%eax
  40656b:	c1 e0 02             	shl    $0x2,%eax
  40656e:	01 d0                	add    %edx,%eax
  406570:	01 c0                	add    %eax,%eax
  406572:	89 45 f4             	mov    %eax,-0xc(%rbp)
  406575:	8b 45 fc             	mov    -0x4(%rbp),%eax
  406578:	48 63 d0             	movslq %eax,%rdx
  40657b:	48 8b 45 e8          	mov    -0x18(%rbp),%rax
  40657f:	48 89 d6             	mov    %rdx,%rsi
  406582:	48 89 c7             	mov    %rax,%rdi
  406585:	e8 18 3f 00 00       	callq  40a4a2 <_ZNKSt6vectorIcSaIcEEixEm>
  40658a:	0f b6 00             	movzbl (%rax),%eax
  40658d:	0f be c0             	movsbl %al,%eax
  406590:	83 e8 30             	sub    $0x30,%eax
  406593:	01 45 f4             	add    %eax,-0xc(%rbp)
  406596:	83 45 fc 01          	addl   $0x1,-0x4(%rbp)
  40659a:	eb a9                	jmp    406545 <_ZN2cl6detailL10getVersionERKSt6vectorIcSaIcEE+0x21>
  40659c:	83 45 fc 01          	addl   $0x1,-0x4(%rbp)
  4065a0:	8b 45 fc             	mov    -0x4(%rbp),%eax
  4065a3:	48 63 d0             	movslq %eax,%rdx
  4065a6:	48 8b 45 e8          	mov    -0x18(%rbp),%rax
  4065aa:	48 89 d6             	mov    %rdx,%rsi
  4065ad:	48 89 c7             	mov    %rax,%rdi
  4065b0:	e8 ed 3e 00 00       	callq  40a4a2 <_ZNKSt6vectorIcSaIcEEixEm>
  4065b5:	0f b6 00             	movzbl (%rax),%eax
  4065b8:	3c 20                	cmp    $0x20,%al
  4065ba:	74 23                	je     4065df <_ZN2cl6detailL10getVersionERKSt6vectorIcSaIcEE+0xbb>
  4065bc:	8b 45 fc             	mov    -0x4(%rbp),%eax
  4065bf:	48 63 d0             	movslq %eax,%rdx
  4065c2:	48 8b 45 e8          	mov    -0x18(%rbp),%rax
  4065c6:	48 89 d6             	mov    %rdx,%rsi
  4065c9:	48 89 c7             	mov    %rax,%rdi
  4065cc:	e8 d1 3e 00 00       	callq  40a4a2 <_ZNKSt6vectorIcSaIcEEixEm>
  4065d1:	0f b6 00             	movzbl (%rax),%eax
  4065d4:	84 c0                	test   %al,%al
  4065d6:	74 07                	je     4065df <_ZN2cl6detailL10getVersionERKSt6vectorIcSaIcEE+0xbb>
  4065d8:	b8 01 00 00 00       	mov    $0x1,%eax
  4065dd:	eb 05                	jmp    4065e4 <_ZN2cl6detailL10getVersionERKSt6vectorIcSaIcEE+0xc0>
  4065df:	b8 00 00 00 00       	mov    $0x0,%eax
  4065e4:	84 c0                	test   %al,%al
  4065e6:	74 36                	je     40661e <_ZN2cl6detailL10getVersionERKSt6vectorIcSaIcEE+0xfa>
  4065e8:	8b 55 f8             	mov    -0x8(%rbp),%edx
  4065eb:	89 d0                	mov    %edx,%eax
  4065ed:	c1 e0 02             	shl    $0x2,%eax
  4065f0:	01 d0                	add    %edx,%eax
  4065f2:	01 c0                	add    %eax,%eax
  4065f4:	89 45 f8             	mov    %eax,-0x8(%rbp)
  4065f7:	8b 45 fc             	mov    -0x4(%rbp),%eax
  4065fa:	48 63 d0             	movslq %eax,%rdx
  4065fd:	48 8b 45 e8          	mov    -0x18(%rbp),%rax
  406601:	48 89 d6             	mov    %rdx,%rsi
  406604:	48 89 c7             	mov    %rax,%rdi
  406607:	e8 96 3e 00 00       	callq  40a4a2 <_ZNKSt6vectorIcSaIcEEixEm>
  40660c:	0f b6 00             	movzbl (%rax),%eax
  40660f:	0f be c0             	movsbl %al,%eax
  406612:	83 e8 30             	sub    $0x30,%eax
  406615:	01 45 f8             	add    %eax,-0x8(%rbp)
  406618:	83 45 fc 01          	addl   $0x1,-0x4(%rbp)
  40661c:	eb 82                	jmp    4065a0 <_ZN2cl6detailL10getVersionERKSt6vectorIcSaIcEE+0x7c>
  40661e:	8b 45 f4             	mov    -0xc(%rbp),%eax
  406621:	c1 e0 10             	shl    $0x10,%eax
  406624:	0b 45 f8             	or     -0x8(%rbp),%eax
  406627:	c9                   	leaveq 
  406628:	c3                   	retq   

0000000000406629 <_ZN2CK16store_setup_timeEf>:
  406629:	55                   	push   %rbp
  40662a:	48 89 e5             	mov    %rsp,%rbp
  40662d:	48 83 ec 10          	sub    $0x10,%rsp
  406631:	f3 0f 11 45 fc       	movss  %xmm0,-0x4(%rbp)
  406636:	8b 45 fc             	mov    -0x4(%rbp),%eax
  406639:	89 45 f8             	mov    %eax,-0x8(%rbp)
  40663c:	f3 0f 10 45 f8       	movss  -0x8(%rbp),%xmm0
  406641:	be cb 4c 41 00       	mov    $0x414ccb,%esi
  406646:	bf 0a 00 00 00       	mov    $0xa,%edi
  40664b:	e8 06 36 00 00       	callq  409c56 <_ZN2CK13store_value_fEiPKcf>
  406650:	90                   	nop
  406651:	c9                   	leaveq 
  406652:	c3                   	retq   

0000000000406653 <_ZN2CK15store_test_timeEf>:
  406653:	55                   	push   %rbp
  406654:	48 89 e5             	mov    %rsp,%rbp
  406657:	48 83 ec 10          	sub    $0x10,%rsp
  40665b:	f3 0f 11 45 fc       	movss  %xmm0,-0x4(%rbp)
  406660:	8b 45 fc             	mov    -0x4(%rbp),%eax
  406663:	89 45 f8             	mov    %eax,-0x8(%rbp)
  406666:	f3 0f 10 45 f8       	movss  -0x8(%rbp),%xmm0
  40666b:	be d6 4c 41 00       	mov    $0x414cd6,%esi
  406670:	bf 0b 00 00 00       	mov    $0xb,%edi
  406675:	e8 dc 35 00 00       	callq  409c56 <_ZN2CK13store_value_fEiPKcf>
  40667a:	90                   	nop
  40667b:	c9                   	leaveq 
  40667c:	c3                   	retq   

000000000040667d <_ZN2CK5armcl15printf_callbackEPKcjmPv>:
  40667d:	55                   	push   %rbp
  40667e:	48 89 e5             	mov    %rsp,%rbp
  406681:	48 83 ec 20          	sub    $0x20,%rsp
  406685:	48 89 7d f8          	mov    %rdi,-0x8(%rbp)
  406689:	89 75 f4             	mov    %esi,-0xc(%rbp)
  40668c:	48 89 55 e8          	mov    %rdx,-0x18(%rbp)
  406690:	48 89 4d e0          	mov    %rcx,-0x20(%rbp)
  406694:	48 8b 55 f8          	mov    -0x8(%rbp),%rdx
  406698:	8b 45 f4             	mov    -0xc(%rbp),%eax
  40669b:	89 c6                	mov    %eax,%esi
  40669d:	bf e0 4c 41 00       	mov    $0x414ce0,%edi
  4066a2:	b8 00 00 00 00       	mov    $0x0,%eax
  4066a7:	e8 a4 f6 ff ff       	callq  405d50 <printf@plt>
  4066ac:	90                   	nop
  4066ad:	c9                   	leaveq 
  4066ae:	c3                   	retq   
  4066af:	90                   	nop

00000000004066b0 <_ZZ4mainENKUlvE_clEv>:
  4066b0:	55                   	push   %rbp
  4066b1:	48 89 e5             	mov    %rsp,%rbp
  4066b4:	53                   	push   %rbx
  4066b5:	48 81 ec 68 01 00 00 	sub    $0x168,%rsp
  4066bc:	48 89 bd 98 fe ff ff 	mov    %rdi,-0x168(%rbp)
  4066c3:	64 48 8b 04 25 28 00 	mov    %fs:0x28,%rax
  4066ca:	00 00 
  4066cc:	48 89 45 e8          	mov    %rax,-0x18(%rbp)
  4066d0:	31 c0                	xor    %eax,%eax
  4066d2:	48 8b 85 98 fe ff ff 	mov    -0x168(%rbp),%rax
  4066d9:	48 8b 48 08          	mov    0x8(%rax),%rcx
  4066dd:	48 8d 85 d0 fe ff ff 	lea    -0x130(%rbp),%rax
  4066e4:	ba 07 00 00 00       	mov    $0x7,%edx
  4066e9:	48 89 ce             	mov    %rcx,%rsi
  4066ec:	48 89 c7             	mov    %rax,%rdi
  4066ef:	e8 2c fb ff ff       	callq  406220 <_ZN11arm_compute10TensorInfoC1ERKNS_11TensorShapeENS_6FormatE@plt>
  4066f4:	48 8b 85 98 fe ff ff 	mov    -0x168(%rbp),%rax
  4066fb:	48 8b 00             	mov    (%rax),%rax
  4066fe:	48 89 c7             	mov    %rax,%rdi
  406701:	e8 0a f9 ff ff       	callq  406010 <_ZN11arm_compute8CLTensor9allocatorEv@plt>
  406706:	48 89 c2             	mov    %rax,%rdx
  406709:	48 8d 85 d0 fe ff ff 	lea    -0x130(%rbp),%rax
  406710:	48 89 c6             	mov    %rax,%rsi
  406713:	48 89 d7             	mov    %rdx,%rdi
  406716:	e8 d5 f8 ff ff       	callq  405ff0 <_ZN11arm_compute16ITensorAllocator4initERKNS_10TensorInfoE@plt>
  40671b:	48 8d 85 d0 fe ff ff 	lea    -0x130(%rbp),%rax
  406722:	48 89 c7             	mov    %rax,%rdi
  406725:	e8 b6 a0 00 00       	callq  4107e0 <_ZN11arm_compute10TensorInfoD1Ev>
  40672a:	48 8b 85 98 fe ff ff 	mov    -0x168(%rbp),%rax
  406731:	48 8b 48 18          	mov    0x18(%rax),%rcx
  406735:	48 8d 85 d0 fe ff ff 	lea    -0x130(%rbp),%rax
  40673c:	ba 07 00 00 00       	mov    $0x7,%edx
  406741:	48 89 ce             	mov    %rcx,%rsi
  406744:	48 89 c7             	mov    %rax,%rdi
  406747:	e8 d4 fa ff ff       	callq  406220 <_ZN11arm_compute10TensorInfoC1ERKNS_11TensorShapeENS_6FormatE@plt>
  40674c:	48 8b 85 98 fe ff ff 	mov    -0x168(%rbp),%rax
  406753:	48 8b 40 10          	mov    0x10(%rax),%rax
  406757:	48 89 c7             	mov    %rax,%rdi
  40675a:	e8 b1 f8 ff ff       	callq  406010 <_ZN11arm_compute8CLTensor9allocatorEv@plt>
  40675f:	48 89 c2             	mov    %rax,%rdx
  406762:	48 8d 85 d0 fe ff ff 	lea    -0x130(%rbp),%rax
  406769:	48 89 c6             	mov    %rax,%rsi
  40676c:	48 89 d7             	mov    %rdx,%rdi
  40676f:	e8 7c f8 ff ff       	callq  405ff0 <_ZN11arm_compute16ITensorAllocator4initERKNS_10TensorInfoE@plt>
  406774:	48 8d 85 d0 fe ff ff 	lea    -0x130(%rbp),%rax
  40677b:	48 89 c7             	mov    %rax,%rdi
  40677e:	e8 5d a0 00 00       	callq  4107e0 <_ZN11arm_compute10TensorInfoD1Ev>
  406783:	48 8b 85 98 fe ff ff 	mov    -0x168(%rbp),%rax
  40678a:	48 8b 48 28          	mov    0x28(%rax),%rcx
  40678e:	48 8d 85 d0 fe ff ff 	lea    -0x130(%rbp),%rax
  406795:	ba 07 00 00 00       	mov    $0x7,%edx
  40679a:	48 89 ce             	mov    %rcx,%rsi
  40679d:	48 89 c7             	mov    %rax,%rdi
  4067a0:	e8 7b fa ff ff       	callq  406220 <_ZN11arm_compute10TensorInfoC1ERKNS_11TensorShapeENS_6FormatE@plt>
  4067a5:	48 8b 85 98 fe ff ff 	mov    -0x168(%rbp),%rax
  4067ac:	48 8b 40 20          	mov    0x20(%rax),%rax
  4067b0:	48 89 c7             	mov    %rax,%rdi
  4067b3:	e8 58 f8 ff ff       	callq  406010 <_ZN11arm_compute8CLTensor9allocatorEv@plt>
  4067b8:	48 89 c2             	mov    %rax,%rdx
  4067bb:	48 8d 85 d0 fe ff ff 	lea    -0x130(%rbp),%rax
  4067c2:	48 89 c6             	mov    %rax,%rsi
  4067c5:	48 89 d7             	mov    %rdx,%rdi
  4067c8:	e8 23 f8 ff ff       	callq  405ff0 <_ZN11arm_compute16ITensorAllocator4initERKNS_10TensorInfoE@plt>
  4067cd:	48 8d 85 d0 fe ff ff 	lea    -0x130(%rbp),%rax
  4067d4:	48 89 c7             	mov    %rax,%rdi
  4067d7:	e8 04 a0 00 00       	callq  4107e0 <_ZN11arm_compute10TensorInfoD1Ev>
  4067dc:	48 8b 85 98 fe ff ff 	mov    -0x168(%rbp),%rax
  4067e3:	48 8b 48 38          	mov    0x38(%rax),%rcx
  4067e7:	48 8d 85 d0 fe ff ff 	lea    -0x130(%rbp),%rax
  4067ee:	ba 07 00 00 00       	mov    $0x7,%edx
  4067f3:	48 89 ce             	mov    %rcx,%rsi
  4067f6:	48 89 c7             	mov    %rax,%rdi
  4067f9:	e8 22 fa ff ff       	callq  406220 <_ZN11arm_compute10TensorInfoC1ERKNS_11TensorShapeENS_6FormatE@plt>
  4067fe:	48 8b 85 98 fe ff ff 	mov    -0x168(%rbp),%rax
  406805:	48 8b 40 30          	mov    0x30(%rax),%rax
  406809:	48 89 c7             	mov    %rax,%rdi
  40680c:	e8 ff f7 ff ff       	callq  406010 <_ZN11arm_compute8CLTensor9allocatorEv@plt>
  406811:	48 89 c2             	mov    %rax,%rdx
  406814:	48 8d 85 d0 fe ff ff 	lea    -0x130(%rbp),%rax
  40681b:	48 89 c6             	mov    %rax,%rsi
  40681e:	48 89 d7             	mov    %rdx,%rdi
  406821:	e8 ca f7 ff ff       	callq  405ff0 <_ZN11arm_compute16ITensorAllocator4initERKNS_10TensorInfoE@plt>
  406826:	48 8d 85 d0 fe ff ff 	lea    -0x130(%rbp),%rax
  40682d:	48 89 c7             	mov    %rax,%rdi
  406830:	e8 ab 9f 00 00       	callq  4107e0 <_ZN11arm_compute10TensorInfoD1Ev>
  406835:	48 8d 85 c0 fe ff ff 	lea    -0x140(%rbp),%rax
  40683c:	48 89 c7             	mov    %rax,%rdi
  40683f:	e8 7e 29 00 00       	callq  4091c2 <_ZN11arm_compute11WeightsInfoC1Ev>
  406844:	48 8b 85 98 fe ff ff 	mov    -0x168(%rbp),%rax
  40684b:	48 8b 48 48          	mov    0x48(%rax),%rcx
  40684f:	48 8b 85 98 fe ff ff 	mov    -0x168(%rbp),%rax
  406856:	48 8b 40 10          	mov    0x10(%rax),%rax
  40685a:	49 89 c0             	mov    %rax,%r8
  40685d:	48 8b 85 98 fe ff ff 	mov    -0x168(%rbp),%rax
  406864:	48 8b 40 30          	mov    0x30(%rax),%rax
  406868:	49 89 c2             	mov    %rax,%r10
  40686b:	48 8b 85 98 fe ff ff 	mov    -0x168(%rbp),%rax
  406872:	48 8b 40 20          	mov    0x20(%rax),%rax
  406876:	48 89 c7             	mov    %rax,%rdi
  406879:	48 8b 85 98 fe ff ff 	mov    -0x168(%rbp),%rax
  406880:	48 8b 00             	mov    (%rax),%rax
  406883:	48 89 c6             	mov    %rax,%rsi
  406886:	48 8b 85 98 fe ff ff 	mov    -0x168(%rbp),%rax
  40688d:	48 8b 40 40          	mov    0x40(%rax),%rax
  406891:	48 83 ec 08          	sub    $0x8,%rsp
  406895:	48 8d 95 c0 fe ff ff 	lea    -0x140(%rbp),%rdx
  40689c:	52                   	push   %rdx
  40689d:	49 89 c9             	mov    %rcx,%r9
  4068a0:	4c 89 d1             	mov    %r10,%rcx
  4068a3:	48 89 fa             	mov    %rdi,%rdx
  4068a6:	48 89 c7             	mov    %rax,%rdi
  4068a9:	e8 a2 f5 ff ff       	callq  405e50 <_ZN11arm_compute18CLConvolutionLayer9configureEPKNS_9ICLTensorES3_S3_PS1_RKNS_13PadStrideInfoERKNS_11WeightsInfoE@plt>
  4068ae:	48 83 c4 10          	add    $0x10,%rsp
  4068b2:	48 8b 85 98 fe ff ff 	mov    -0x168(%rbp),%rax
  4068b9:	48 8b 00             	mov    (%rax),%rax
  4068bc:	48 89 c7             	mov    %rax,%rdi
  4068bf:	e8 4c f7 ff ff       	callq  406010 <_ZN11arm_compute8CLTensor9allocatorEv@plt>
  4068c4:	48 8b 10             	mov    (%rax),%rdx
  4068c7:	48 83 c2 10          	add    $0x10,%rdx
  4068cb:	48 8b 12             	mov    (%rdx),%rdx
  4068ce:	48 89 c7             	mov    %rax,%rdi
  4068d1:	ff d2                	callq  *%rdx
  4068d3:	48 8b 85 98 fe ff ff 	mov    -0x168(%rbp),%rax
  4068da:	48 8b 40 50          	mov    0x50(%rax),%rax
  4068de:	48 89 c7             	mov    %rax,%rdi
  4068e1:	e8 53 4e 00 00       	callq  40b739 <_ZN2CK19get_random_raw_dataIfEEPT_RKNS_5ShapeE>
  4068e6:	48 89 85 a8 fe ff ff 	mov    %rax,-0x158(%rbp)
  4068ed:	48 8b 85 98 fe ff ff 	mov    -0x168(%rbp),%rax
  4068f4:	48 8b 50 50          	mov    0x50(%rax),%rdx
  4068f8:	48 8b 85 a8 fe ff ff 	mov    -0x158(%rbp),%rax
  4068ff:	48 89 d6             	mov    %rdx,%rsi
  406902:	48 89 c7             	mov    %rax,%rdi
  406905:	e8 16 4f 00 00       	callq  40b820 <_ZN2CK20print_input_raw_dataIfEEvPT_RKNS_5ShapeE>
  40690a:	48 8b 85 98 fe ff ff 	mov    -0x168(%rbp),%rax
  406911:	48 8b 50 50          	mov    0x50(%rax),%rdx
  406915:	48 8b 85 98 fe ff ff 	mov    -0x168(%rbp),%rax
  40691c:	48 8b 00             	mov    (%rax),%rax
  40691f:	48 8b 8d a8 fe ff ff 	mov    -0x158(%rbp),%rcx
  406926:	48 89 ce             	mov    %rcx,%rsi
  406929:	48 89 c7             	mov    %rax,%rdi
  40692c:	e8 81 4f 00 00       	callq  40b8b2 <_ZN2CK5armcl23copy_raw_data_to_tensorIfEEvPN11arm_compute8CLTensorEPT_RKNS_5ShapeE>
  406931:	48 83 bd a8 fe ff ff 	cmpq   $0x0,-0x158(%rbp)
  406938:	00 
  406939:	74 0f                	je     40694a <_ZZ4mainENKUlvE_clEv+0x29a>
  40693b:	48 8b 85 a8 fe ff ff 	mov    -0x158(%rbp),%rax
  406942:	48 89 c7             	mov    %rax,%rdi
  406945:	e8 46 f7 ff ff       	callq  406090 <_ZdaPv@plt>
  40694a:	48 8b 85 98 fe ff ff 	mov    -0x168(%rbp),%rax
  406951:	48 8b 40 10          	mov    0x10(%rax),%rax
  406955:	48 89 c6             	mov    %rax,%rsi
  406958:	bf 42 4d 41 00       	mov    $0x414d42,%edi
  40695d:	e8 80 39 00 00       	callq  40a2e2 <_ZN2CK5armcl18print_tensor_shapeEPKcPKN11arm_compute8CLTensorE>
  406962:	48 8b 85 98 fe ff ff 	mov    -0x168(%rbp),%rax
  406969:	48 8b 40 10          	mov    0x10(%rax),%rax
  40696d:	48 89 c7             	mov    %rax,%rdi
  406970:	e8 9b f6 ff ff       	callq  406010 <_ZN11arm_compute8CLTensor9allocatorEv@plt>
  406975:	48 8b 10             	mov    (%rax),%rdx
  406978:	48 83 c2 10          	add    $0x10,%rdx
  40697c:	48 8b 12             	mov    (%rdx),%rdx
  40697f:	48 89 c7             	mov    %rax,%rdi
  406982:	ff d2                	callq  *%rdx
  406984:	48 8b 85 98 fe ff ff 	mov    -0x168(%rbp),%rax
  40698b:	48 8b 40 20          	mov    0x20(%rax),%rax
  40698f:	48 89 c7             	mov    %rax,%rdi
  406992:	e8 79 f6 ff ff       	callq  406010 <_ZN11arm_compute8CLTensor9allocatorEv@plt>
  406997:	48 8b 10             	mov    (%rax),%rdx
  40699a:	48 83 c2 10          	add    $0x10,%rdx
  40699e:	48 8b 12             	mov    (%rdx),%rdx
  4069a1:	48 89 c7             	mov    %rax,%rdi
  4069a4:	ff d2                	callq  *%rdx
  4069a6:	48 8b 05 db e6 00 00 	mov    0xe6db(%rip),%rax        # 415088 <_ZZN2CK5armcl23copy_raw_data_to_tensorIfEEvPN11arm_compute8CLTensorEPT_iE19__PRETTY_FUNCTION__+0x68>
  4069ad:	48 89 85 90 fe ff ff 	mov    %rax,-0x170(%rbp)
  4069b4:	f2 0f 10 85 90 fe ff 	movsd  -0x170(%rbp),%xmm0
  4069bb:	ff 
  4069bc:	bf 56 4d 41 00       	mov    $0x414d56,%edi
  4069c1:	e8 d2 31 00 00       	callq  409b98 <_ZN2CK8getenv_fEPKcd>
  4069c6:	f2 0f 5a c0          	cvtsd2ss %xmm0,%xmm0
  4069ca:	f3 0f 11 85 a4 fe ff 	movss  %xmm0,-0x15c(%rbp)
  4069d1:	ff 
  4069d2:	48 8b 85 98 fe ff ff 	mov    -0x168(%rbp),%rax
  4069d9:	48 8b 40 28          	mov    0x28(%rax),%rax
  4069dd:	48 89 c7             	mov    %rax,%rdi
  4069e0:	e8 bd 25 00 00       	callq  408fa2 <_ZNK11arm_compute11TensorShape10total_sizeEv>
  4069e5:	89 c2                	mov    %eax,%edx
  4069e7:	48 8d 85 a4 fe ff ff 	lea    -0x15c(%rbp),%rax
  4069ee:	48 89 c6             	mov    %rax,%rsi
  4069f1:	89 d7                	mov    %edx,%edi
  4069f3:	e8 52 50 00 00       	callq  40ba4a <_ZN2CK18get_const_raw_dataIfEEPT_iRKS1_>
  4069f8:	48 89 85 b0 fe ff ff 	mov    %rax,-0x150(%rbp)
  4069ff:	48 8b 85 98 fe ff ff 	mov    -0x168(%rbp),%rax
  406a06:	48 8b 40 28          	mov    0x28(%rax),%rax
  406a0a:	48 89 c7             	mov    %rax,%rdi
  406a0d:	e8 90 25 00 00       	callq  408fa2 <_ZNK11arm_compute11TensorShape10total_sizeEv>
  406a12:	89 c2                	mov    %eax,%edx
  406a14:	48 8b 85 98 fe ff ff 	mov    -0x168(%rbp),%rax
  406a1b:	48 8b 40 20          	mov    0x20(%rax),%rax
  406a1f:	48 8b 8d b0 fe ff ff 	mov    -0x150(%rbp),%rcx
  406a26:	48 89 ce             	mov    %rcx,%rsi
  406a29:	48 89 c7             	mov    %rax,%rdi
  406a2c:	e8 e0 50 00 00       	callq  40bb11 <_ZN2CK5armcl23copy_raw_data_to_tensorIfEEvPN11arm_compute8CLTensorEPT_i>
  406a31:	48 83 bd b0 fe ff ff 	cmpq   $0x0,-0x150(%rbp)
  406a38:	00 
  406a39:	74 0f                	je     406a4a <_ZZ4mainENKUlvE_clEv+0x39a>
  406a3b:	48 8b 85 b0 fe ff ff 	mov    -0x150(%rbp),%rax
  406a42:	48 89 c7             	mov    %rax,%rdi
  406a45:	e8 46 f6 ff ff       	callq  406090 <_ZdaPv@plt>
  406a4a:	48 8b 85 98 fe ff ff 	mov    -0x168(%rbp),%rax
  406a51:	48 8b 40 30          	mov    0x30(%rax),%rax
  406a55:	48 89 c7             	mov    %rax,%rdi
  406a58:	e8 b3 f5 ff ff       	callq  406010 <_ZN11arm_compute8CLTensor9allocatorEv@plt>
  406a5d:	48 8b 10             	mov    (%rax),%rdx
  406a60:	48 83 c2 10          	add    $0x10,%rdx
  406a64:	48 8b 12             	mov    (%rdx),%rdx
  406a67:	48 89 c7             	mov    %rax,%rdi
  406a6a:	ff d2                	callq  *%rdx
  406a6c:	48 8b 05 15 e6 00 00 	mov    0xe615(%rip),%rax        # 415088 <_ZZN2CK5armcl23copy_raw_data_to_tensorIfEEvPN11arm_compute8CLTensorEPT_iE19__PRETTY_FUNCTION__+0x68>
  406a73:	48 89 85 90 fe ff ff 	mov    %rax,-0x170(%rbp)
  406a7a:	f2 0f 10 85 90 fe ff 	movsd  -0x170(%rbp),%xmm0
  406a81:	ff 
  406a82:	bf 70 4d 41 00       	mov    $0x414d70,%edi
  406a87:	e8 0c 31 00 00       	callq  409b98 <_ZN2CK8getenv_fEPKcd>
  406a8c:	f2 0f 5a c0          	cvtsd2ss %xmm0,%xmm0
  406a90:	f3 0f 11 85 c0 fe ff 	movss  %xmm0,-0x140(%rbp)
  406a97:	ff 
  406a98:	48 8b 85 98 fe ff ff 	mov    -0x168(%rbp),%rax
  406a9f:	48 8b 40 38          	mov    0x38(%rax),%rax
  406aa3:	48 89 c7             	mov    %rax,%rdi
  406aa6:	e8 f7 24 00 00       	callq  408fa2 <_ZNK11arm_compute11TensorShape10total_sizeEv>
  406aab:	89 c2                	mov    %eax,%edx
  406aad:	48 8d 85 c0 fe ff ff 	lea    -0x140(%rbp),%rax
  406ab4:	48 89 c6             	mov    %rax,%rsi
  406ab7:	89 d7                	mov    %edx,%edi
  406ab9:	e8 8c 4f 00 00       	callq  40ba4a <_ZN2CK18get_const_raw_dataIfEEPT_iRKS1_>
  406abe:	48 89 85 b8 fe ff ff 	mov    %rax,-0x148(%rbp)
  406ac5:	48 8b 85 98 fe ff ff 	mov    -0x168(%rbp),%rax
  406acc:	48 8b 40 38          	mov    0x38(%rax),%rax
  406ad0:	48 89 c7             	mov    %rax,%rdi
  406ad3:	e8 ca 24 00 00       	callq  408fa2 <_ZNK11arm_compute11TensorShape10total_sizeEv>
  406ad8:	89 c2                	mov    %eax,%edx
  406ada:	48 8b 85 98 fe ff ff 	mov    -0x168(%rbp),%rax
  406ae1:	48 8b 40 30          	mov    0x30(%rax),%rax
  406ae5:	48 8b 8d b8 fe ff ff 	mov    -0x148(%rbp),%rcx
  406aec:	48 89 ce             	mov    %rcx,%rsi
  406aef:	48 89 c7             	mov    %rax,%rdi
  406af2:	e8 1a 50 00 00       	callq  40bb11 <_ZN2CK5armcl23copy_raw_data_to_tensorIfEEvPN11arm_compute8CLTensorEPT_i>
  406af7:	48 83 bd b8 fe ff ff 	cmpq   $0x0,-0x148(%rbp)
  406afe:	00 
  406aff:	0f 84 85 00 00 00    	je     406b8a <_ZZ4mainENKUlvE_clEv+0x4da>
  406b05:	48 8b 85 b8 fe ff ff 	mov    -0x148(%rbp),%rax
  406b0c:	48 89 c7             	mov    %rax,%rdi
  406b0f:	e8 7c f5 ff ff       	callq  406090 <_ZdaPv@plt>
  406b14:	eb 74                	jmp    406b8a <_ZZ4mainENKUlvE_clEv+0x4da>
  406b16:	48 89 c3             	mov    %rax,%rbx
  406b19:	48 8d 85 d0 fe ff ff 	lea    -0x130(%rbp),%rax
  406b20:	48 89 c7             	mov    %rax,%rdi
  406b23:	e8 b8 9c 00 00       	callq  4107e0 <_ZN11arm_compute10TensorInfoD1Ev>
  406b28:	48 89 d8             	mov    %rbx,%rax
  406b2b:	48 89 c7             	mov    %rax,%rdi
  406b2e:	e8 0d f7 ff ff       	callq  406240 <_Unwind_Resume@plt>
  406b33:	48 89 c3             	mov    %rax,%rbx
  406b36:	48 8d 85 d0 fe ff ff 	lea    -0x130(%rbp),%rax
  406b3d:	48 89 c7             	mov    %rax,%rdi
  406b40:	e8 9b 9c 00 00       	callq  4107e0 <_ZN11arm_compute10TensorInfoD1Ev>
  406b45:	48 89 d8             	mov    %rbx,%rax
  406b48:	48 89 c7             	mov    %rax,%rdi
  406b4b:	e8 f0 f6 ff ff       	callq  406240 <_Unwind_Resume@plt>
  406b50:	48 89 c3             	mov    %rax,%rbx
  406b53:	48 8d 85 d0 fe ff ff 	lea    -0x130(%rbp),%rax
  406b5a:	48 89 c7             	mov    %rax,%rdi
  406b5d:	e8 7e 9c 00 00       	callq  4107e0 <_ZN11arm_compute10TensorInfoD1Ev>
  406b62:	48 89 d8             	mov    %rbx,%rax
  406b65:	48 89 c7             	mov    %rax,%rdi
  406b68:	e8 d3 f6 ff ff       	callq  406240 <_Unwind_Resume@plt>
  406b6d:	48 89 c3             	mov    %rax,%rbx
  406b70:	48 8d 85 d0 fe ff ff 	lea    -0x130(%rbp),%rax
  406b77:	48 89 c7             	mov    %rax,%rdi
  406b7a:	e8 61 9c 00 00       	callq  4107e0 <_ZN11arm_compute10TensorInfoD1Ev>
  406b7f:	48 89 d8             	mov    %rbx,%rax
  406b82:	48 89 c7             	mov    %rax,%rdi
  406b85:	e8 b6 f6 ff ff       	callq  406240 <_Unwind_Resume@plt>
  406b8a:	90                   	nop
  406b8b:	48 8b 45 e8          	mov    -0x18(%rbp),%rax
  406b8f:	64 48 33 04 25 28 00 	xor    %fs:0x28,%rax
  406b96:	00 00 
  406b98:	74 05                	je     406b9f <_ZZ4mainENKUlvE_clEv+0x4ef>
  406b9a:	e8 31 f4 ff ff       	callq  405fd0 <__stack_chk_fail@plt>
  406b9f:	48 8b 5d f8          	mov    -0x8(%rbp),%rbx
  406ba3:	c9                   	leaveq 
  406ba4:	c3                   	retq   
  406ba5:	90                   	nop

0000000000406ba6 <_ZZ4mainENKUlvE0_clEv>:
  406ba6:	55                   	push   %rbp
  406ba7:	48 89 e5             	mov    %rsp,%rbp
  406baa:	48 83 ec 10          	sub    $0x10,%rsp
  406bae:	48 89 7d f8          	mov    %rdi,-0x8(%rbp)
  406bb2:	48 8b 45 f8          	mov    -0x8(%rbp),%rax
  406bb6:	48 8b 00             	mov    (%rax),%rax
  406bb9:	48 8b 00             	mov    (%rax),%rax
  406bbc:	48 8b 00             	mov    (%rax),%rax
  406bbf:	48 8b 55 f8          	mov    -0x8(%rbp),%rdx
  406bc3:	48 8b 12             	mov    (%rdx),%rdx
  406bc6:	48 89 d7             	mov    %rdx,%rdi
  406bc9:	ff d0                	callq  *%rax
  406bcb:	e8 a0 f1 ff ff       	callq  405d70 <_ZN11arm_compute11CLScheduler3getEv@plt>
  406bd0:	48 89 c7             	mov    %rax,%rdi
  406bd3:	e8 ba 2e 00 00       	callq  409a92 <_ZN11arm_compute11CLScheduler4syncEv>
  406bd8:	90                   	nop
  406bd9:	c9                   	leaveq 
  406bda:	c3                   	retq   

0000000000406bdb <main>:
  406bdb:	55                   	push   %rbp
  406bdc:	48 89 e5             	mov    %rsp,%rbp
  406bdf:	41 54                	push   %r12
  406be1:	53                   	push   %rbx
  406be2:	48 81 ec 50 26 00 00 	sub    $0x2650,%rsp
  406be9:	64 48 8b 04 25 28 00 	mov    %fs:0x28,%rax
  406bf0:	00 00 
  406bf2:	48 89 45 e8          	mov    %rax,-0x18(%rbp)
  406bf6:	31 c0                	xor    %eax,%eax
  406bf8:	e8 9c 32 00 00       	callq  409e99 <_ZN2CK9init_testEv>
  406bfd:	48 c7 85 b0 d9 ff ff 	movq   $0x0,-0x2650(%rbp)
  406c04:	00 00 00 00 
  406c08:	bf 87 4d 41 00       	mov    $0x414d87,%edi
  406c0d:	e8 0e f4 ff ff       	callq  406020 <getenv@plt>
  406c12:	48 85 c0             	test   %rax,%rax
  406c15:	0f 95 c0             	setne  %al
  406c18:	88 85 af d9 ff ff    	mov    %al,-0x2651(%rbp)
  406c1e:	80 bd af d9 ff ff 00 	cmpb   $0x0,-0x2651(%rbp)
  406c25:	74 1c                	je     406c43 <main+0x68>
  406c27:	bf 40 00 00 00       	mov    $0x40,%edi
  406c2c:	e8 5f f3 ff ff       	callq  405f90 <_Znwm@plt>
  406c31:	48 89 c3             	mov    %rax,%rbx
  406c34:	48 89 df             	mov    %rbx,%rdi
  406c37:	e8 b8 a2 00 00       	callq  410ef4 <_ZN11arm_compute19CLTuner_ConvolutionC1Ev>
  406c3c:	48 89 9d b0 d9 ff ff 	mov    %rbx,-0x2650(%rbp)
  406c43:	48 8b 85 b0 d9 ff ff 	mov    -0x2650(%rbp),%rax
  406c4a:	48 89 c7             	mov    %rax,%rdi
  406c4d:	e8 c0 33 00 00       	callq  40a012 <_ZN2CK5armcl10init_armclEPN11arm_compute8ICLTunerE>
  406c52:	48 8d 85 80 db ff ff 	lea    -0x2480(%rbp),%rax
  406c59:	48 89 c7             	mov    %rax,%rdi
  406c5c:	e8 4f f6 ff ff       	callq  4062b0 <_ZN11arm_compute8CLTensorC1Ev@plt>
  406c61:	48 8d 85 d0 dc ff ff 	lea    -0x2330(%rbp),%rax
  406c68:	48 89 c7             	mov    %rax,%rdi
  406c6b:	e8 40 f6 ff ff       	callq  4062b0 <_ZN11arm_compute8CLTensorC1Ev@plt>
  406c70:	48 8d 85 20 de ff ff 	lea    -0x21e0(%rbp),%rax
  406c77:	48 89 c7             	mov    %rax,%rdi
  406c7a:	e8 31 f6 ff ff       	callq  4062b0 <_ZN11arm_compute8CLTensorC1Ev@plt>
  406c7f:	48 8d 85 70 df ff ff 	lea    -0x2090(%rbp),%rax
  406c86:	48 89 c7             	mov    %rax,%rdi
  406c89:	e8 22 f6 ff ff       	callq  4062b0 <_ZN11arm_compute8CLTensorC1Ev@plt>
  406c8e:	48 8d 85 20 da ff ff 	lea    -0x25e0(%rbp),%rax
  406c95:	be 00 00 00 00       	mov    $0x0,%esi
  406c9a:	48 89 c7             	mov    %rax,%rdi
  406c9d:	e8 94 37 00 00       	callq  40a436 <_ZNSt10shared_ptrIN11arm_compute14IMemoryManagerEEC1EDn>
  406ca2:	48 8d 95 20 da ff ff 	lea    -0x25e0(%rbp),%rdx
  406ca9:	48 8d 85 c0 e0 ff ff 	lea    -0x1f40(%rbp),%rax
  406cb0:	48 89 d6             	mov    %rdx,%rsi
  406cb3:	48 89 c7             	mov    %rax,%rdi
  406cb6:	e8 15 f2 ff ff       	callq  405ed0 <_ZN11arm_compute18CLConvolutionLayerC1ESt10shared_ptrINS_14IMemoryManagerEE@plt>
  406cbb:	48 8d 85 20 da ff ff 	lea    -0x25e0(%rbp),%rax
  406cc2:	48 89 c7             	mov    %rax,%rdi
  406cc5:	e8 50 37 00 00       	callq  40a41a <_ZNSt10shared_ptrIN11arm_compute14IMemoryManagerEED1Ev>
  406cca:	b9 07 00 00 00       	mov    $0x7,%ecx
  406ccf:	ba 07 00 00 00       	mov    $0x7,%edx
  406cd4:	be 01 00 00 00       	mov    $0x1,%esi
  406cd9:	bf 01 00 00 00       	mov    $0x1,%edi
  406cde:	e8 ef 2f 00 00       	callq  409cd2 <_ZN2CK24get_input_shape_from_envEiiii>
  406ce3:	48 89 85 e0 d9 ff ff 	mov    %rax,-0x2620(%rbp)
  406cea:	48 89 95 e8 d9 ff ff 	mov    %rdx,-0x2618(%rbp)
  406cf1:	48 8d 85 80 da ff ff 	lea    -0x2580(%rbp),%rax
  406cf8:	48 8d 95 e0 d9 ff ff 	lea    -0x2620(%rbp),%rdx
  406cff:	48 89 d6             	mov    %rdx,%rsi
  406d02:	48 89 c7             	mov    %rax,%rdi
  406d05:	e8 8c 35 00 00       	callq  40a296 <_ZN2CK5armcl20to_tensor_shape_whcnERKNS_5ShapeE>
  406d0a:	8b 85 e4 d9 ff ff    	mov    -0x261c(%rbp),%eax
  406d10:	48 98                	cltq   
  406d12:	48 89 85 b8 d9 ff ff 	mov    %rax,-0x2648(%rbp)
  406d19:	be 01 00 00 00       	mov    $0x1,%esi
  406d1e:	bf 9b 4d 41 00       	mov    $0x414d9b,%edi
  406d23:	e8 35 2e 00 00       	callq  409b5d <_ZN2CK8getenv_iEPKci>
  406d28:	48 98                	cltq   
  406d2a:	48 89 85 c0 d9 ff ff 	mov    %rax,-0x2640(%rbp)
  406d31:	48 8b 95 c0 d9 ff ff 	mov    -0x2640(%rbp),%rdx
  406d38:	48 8b 85 b8 d9 ff ff 	mov    -0x2648(%rbp),%rax
  406d3f:	48 89 c6             	mov    %rax,%rsi
  406d42:	bf b0 4d 41 00       	mov    $0x414db0,%edi
  406d47:	b8 00 00 00 00       	mov    $0x0,%eax
  406d4c:	e8 ff ef ff ff       	callq  405d50 <printf@plt>
  406d51:	ba 00 00 00 00       	mov    $0x0,%edx
  406d56:	be 01 00 00 00       	mov    $0x1,%esi
  406d5b:	bf 07 00 00 00       	mov    $0x7,%edi
  406d60:	e8 82 30 00 00       	callq  409de7 <_ZN2CK24get_conv_params_from_envEiii>
  406d65:	48 89 c1             	mov    %rax,%rcx
  406d68:	89 d0                	mov    %edx,%eax
  406d6a:	48 89 8d d4 d9 ff ff 	mov    %rcx,-0x262c(%rbp)
  406d71:	89 85 dc d9 ff ff    	mov    %eax,-0x2624(%rbp)
  406d77:	8b bd dc d9 ff ff    	mov    -0x2624(%rbp),%edi
  406d7d:	8b 8d dc d9 ff ff    	mov    -0x2624(%rbp),%ecx
  406d83:	8b 95 d8 d9 ff ff    	mov    -0x2628(%rbp),%edx
  406d89:	8b b5 d8 d9 ff ff    	mov    -0x2628(%rbp),%esi
  406d8f:	48 8d 85 00 da ff ff 	lea    -0x2600(%rbp),%rax
  406d96:	41 b9 00 00 00 00    	mov    $0x0,%r9d
  406d9c:	41 89 f8             	mov    %edi,%r8d
  406d9f:	48 89 c7             	mov    %rax,%rdi
  406da2:	e8 a9 23 00 00       	callq  409150 <_ZN11arm_compute13PadStrideInfoC1EjjjjNS_21DimensionRoundingTypeE>
  406da7:	8b 95 d4 d9 ff ff    	mov    -0x262c(%rbp),%edx
  406dad:	8b b5 d4 d9 ff ff    	mov    -0x262c(%rbp),%esi
  406db3:	48 8b bd c0 d9 ff ff 	mov    -0x2640(%rbp),%rdi
  406dba:	48 8b 8d b8 d9 ff ff 	mov    -0x2648(%rbp),%rcx
  406dc1:	48 8d 85 c0 da ff ff 	lea    -0x2540(%rbp),%rax
  406dc8:	49 89 f8             	mov    %rdi,%r8
  406dcb:	48 89 c7             	mov    %rax,%rdi
  406dce:	e8 f3 47 00 00       	callq  40b5c6 <_ZN11arm_compute11TensorShapeC1IJjjmmEEEDpT_>
  406dd3:	48 8b 95 c0 d9 ff ff 	mov    -0x2640(%rbp),%rdx
  406dda:	48 8d 85 00 db ff ff 	lea    -0x2500(%rbp),%rax
  406de1:	48 89 d6             	mov    %rdx,%rsi
  406de4:	48 89 c7             	mov    %rax,%rdi
  406de7:	e8 9e 48 00 00       	callq  40b68a <_ZN11arm_compute11TensorShapeC1IJmEEEDpT_>
  406dec:	c7 85 f0 d9 ff ff 01 	movl   $0x1,-0x2610(%rbp)
  406df3:	00 00 00 
  406df6:	c7 85 f4 d9 ff ff 01 	movl   $0x1,-0x260c(%rbp)
  406dfd:	00 00 00 
  406e00:	c7 85 f8 d9 ff ff 01 	movl   $0x1,-0x2608(%rbp)
  406e07:	00 00 00 
  406e0a:	c7 85 fc d9 ff ff 01 	movl   $0x1,-0x2604(%rbp)
  406e11:	00 00 00 
  406e14:	48 8b 85 c0 d9 ff ff 	mov    -0x2640(%rbp),%rax
  406e1b:	89 85 f4 d9 ff ff    	mov    %eax,-0x260c(%rbp)
  406e21:	8b 85 e0 d9 ff ff    	mov    -0x2620(%rbp),%eax
  406e27:	89 85 f0 d9 ff ff    	mov    %eax,-0x2610(%rbp)
  406e2d:	8b 85 ec d9 ff ff    	mov    -0x2614(%rbp),%eax
  406e33:	89 c2                	mov    %eax,%edx
  406e35:	8b 85 dc d9 ff ff    	mov    -0x2624(%rbp),%eax
  406e3b:	01 c0                	add    %eax,%eax
  406e3d:	01 c2                	add    %eax,%edx
  406e3f:	8b 85 d4 d9 ff ff    	mov    -0x262c(%rbp),%eax
  406e45:	29 c2                	sub    %eax,%edx
  406e47:	89 d0                	mov    %edx,%eax
  406e49:	8b 8d d8 d9 ff ff    	mov    -0x2628(%rbp),%ecx
  406e4f:	ba 00 00 00 00       	mov    $0x0,%edx
  406e54:	f7 f1                	div    %ecx
  406e56:	83 c0 01             	add    $0x1,%eax
  406e59:	89 85 fc d9 ff ff    	mov    %eax,-0x2604(%rbp)
  406e5f:	8b 85 e8 d9 ff ff    	mov    -0x2618(%rbp),%eax
  406e65:	89 c2                	mov    %eax,%edx
  406e67:	8b 85 dc d9 ff ff    	mov    -0x2624(%rbp),%eax
  406e6d:	01 c0                	add    %eax,%eax
  406e6f:	01 c2                	add    %eax,%edx
  406e71:	8b 85 d4 d9 ff ff    	mov    -0x262c(%rbp),%eax
  406e77:	29 c2                	sub    %eax,%edx
  406e79:	89 d0                	mov    %edx,%eax
  406e7b:	8b 8d d8 d9 ff ff    	mov    -0x2628(%rbp),%ecx
  406e81:	ba 00 00 00 00       	mov    $0x0,%edx
  406e86:	f7 f1                	div    %ecx
  406e88:	83 c0 01             	add    $0x1,%eax
  406e8b:	89 85 f8 d9 ff ff    	mov    %eax,-0x2608(%rbp)
  406e91:	8b 95 f8 d9 ff ff    	mov    -0x2608(%rbp),%edx
  406e97:	8b 85 fc d9 ff ff    	mov    -0x2604(%rbp),%eax
  406e9d:	89 c6                	mov    %eax,%esi
  406e9f:	bf e0 4d 41 00       	mov    $0x414de0,%edi
  406ea4:	b8 00 00 00 00       	mov    $0x0,%eax
  406ea9:	e8 a2 ee ff ff       	callq  405d50 <printf@plt>
  406eae:	8b 85 fc d9 ff ff    	mov    -0x2604(%rbp),%eax
  406eb4:	85 c0                	test   %eax,%eax
  406eb6:	7e 0a                	jle    406ec2 <main+0x2e7>
  406eb8:	8b 85 f8 d9 ff ff    	mov    -0x2608(%rbp),%eax
  406ebe:	85 c0                	test   %eax,%eax
  406ec0:	7f 19                	jg     406edb <main+0x300>
  406ec2:	b9 f8 4f 41 00       	mov    $0x414ff8,%ecx
  406ec7:	ba 44 00 00 00       	mov    $0x44,%edx
  406ecc:	be 0a 4e 41 00       	mov    $0x414e0a,%esi
  406ed1:	bf 18 4e 41 00       	mov    $0x414e18,%edi
  406ed6:	e8 55 f0 ff ff       	callq  405f30 <__assert_fail@plt>
  406edb:	48 8d 85 40 db ff ff 	lea    -0x24c0(%rbp),%rax
  406ee2:	48 8d 95 f0 d9 ff ff 	lea    -0x2610(%rbp),%rdx
  406ee9:	48 89 d6             	mov    %rdx,%rsi
  406eec:	48 89 c7             	mov    %rax,%rdi
  406eef:	e8 a2 33 00 00       	callq  40a296 <_ZN2CK5armcl20to_tensor_shape_whcnERKNS_5ShapeE>
  406ef4:	48 8d 85 80 db ff ff 	lea    -0x2480(%rbp),%rax
  406efb:	48 89 85 20 da ff ff 	mov    %rax,-0x25e0(%rbp)
  406f02:	48 8d 85 80 da ff ff 	lea    -0x2580(%rbp),%rax
  406f09:	48 89 85 28 da ff ff 	mov    %rax,-0x25d8(%rbp)
  406f10:	48 8d 85 d0 dc ff ff 	lea    -0x2330(%rbp),%rax
  406f17:	48 89 85 30 da ff ff 	mov    %rax,-0x25d0(%rbp)
  406f1e:	48 8d 85 40 db ff ff 	lea    -0x24c0(%rbp),%rax
  406f25:	48 89 85 38 da ff ff 	mov    %rax,-0x25c8(%rbp)
  406f2c:	48 8d 85 20 de ff ff 	lea    -0x21e0(%rbp),%rax
  406f33:	48 89 85 40 da ff ff 	mov    %rax,-0x25c0(%rbp)
  406f3a:	48 8d 85 c0 da ff ff 	lea    -0x2540(%rbp),%rax
  406f41:	48 89 85 48 da ff ff 	mov    %rax,-0x25b8(%rbp)
  406f48:	48 8d 85 70 df ff ff 	lea    -0x2090(%rbp),%rax
  406f4f:	48 89 85 50 da ff ff 	mov    %rax,-0x25b0(%rbp)
  406f56:	48 8d 85 00 db ff ff 	lea    -0x2500(%rbp),%rax
  406f5d:	48 89 85 58 da ff ff 	mov    %rax,-0x25a8(%rbp)
  406f64:	48 8d 85 c0 e0 ff ff 	lea    -0x1f40(%rbp),%rax
  406f6b:	48 89 85 60 da ff ff 	mov    %rax,-0x25a0(%rbp)
  406f72:	48 8d 85 00 da ff ff 	lea    -0x2600(%rbp),%rax
  406f79:	48 89 85 68 da ff ff 	mov    %rax,-0x2598(%rbp)
  406f80:	48 8d 85 e0 d9 ff ff 	lea    -0x2620(%rbp),%rax
  406f87:	48 89 85 70 da ff ff 	mov    %rax,-0x2590(%rbp)
  406f8e:	48 8d 85 20 da ff ff 	lea    -0x25e0(%rbp),%rax
  406f95:	48 89 c7             	mov    %rax,%rdi
  406f98:	e8 7c 02 00 00       	callq  407219 <_ZN2CK13measure_setupIZ4mainEUlvE_EEvOT_>
  406f9d:	48 8d 85 c0 e0 ff ff 	lea    -0x1f40(%rbp),%rax
  406fa4:	48 89 85 20 da ff ff 	mov    %rax,-0x25e0(%rbp)
  406fab:	48 8d 85 20 da ff ff 	lea    -0x25e0(%rbp),%rax
  406fb2:	48 89 c7             	mov    %rax,%rdi
  406fb5:	e8 92 02 00 00       	callq  40724c <_ZN2CK12measure_testIZ4mainEUlvE0_EEvOT_>
  406fba:	48 8d 85 f0 d9 ff ff 	lea    -0x2610(%rbp),%rax
  406fc1:	48 89 c7             	mov    %rax,%rdi
  406fc4:	e8 e9 2a 00 00       	callq  409ab2 <_ZNK2CK5Shape10data_countEv>
  406fc9:	48 98                	cltq   
  406fcb:	48 ba fe ff ff ff ff 	movabs $0x1ffffffffffffffe,%rdx
  406fd2:	ff ff 1f 
  406fd5:	48 39 d0             	cmp    %rdx,%rax
  406fd8:	77 0e                	ja     406fe8 <main+0x40d>
  406fda:	48 c1 e0 02          	shl    $0x2,%rax
  406fde:	48 89 c7             	mov    %rax,%rdi
  406fe1:	e8 4a ed ff ff       	callq  405d30 <_Znam@plt>
  406fe6:	eb 05                	jmp    406fed <main+0x412>
  406fe8:	e8 23 f1 ff ff       	callq  406110 <__cxa_throw_bad_array_new_length@plt>
  406fed:	48 89 85 c8 d9 ff ff 	mov    %rax,-0x2638(%rbp)
  406ff4:	48 8d 95 f0 d9 ff ff 	lea    -0x2610(%rbp),%rdx
  406ffb:	48 8b 8d c8 d9 ff ff 	mov    -0x2638(%rbp),%rcx
  407002:	48 8d 85 d0 dc ff ff 	lea    -0x2330(%rbp),%rax
  407009:	48 89 ce             	mov    %rcx,%rsi
  40700c:	48 89 c7             	mov    %rax,%rdi
  40700f:	e8 4f 4d 00 00       	callq  40bd63 <_ZN2CK5armcl25copy_raw_data_from_tensorIfEEvPN11arm_compute8CLTensorEPT_RKNS_5ShapeE>
  407014:	48 8d 95 f0 d9 ff ff 	lea    -0x2610(%rbp),%rdx
  40701b:	48 8b 85 c8 d9 ff ff 	mov    -0x2638(%rbp),%rax
  407022:	48 89 d6             	mov    %rdx,%rsi
  407025:	48 89 c7             	mov    %rax,%rdi
  407028:	e8 ce 4e 00 00       	callq  40befb <_ZN2CK21print_output_raw_dataIfEEvPT_RKNS_5ShapeE>
  40702d:	48 8d 95 f0 d9 ff ff 	lea    -0x2610(%rbp),%rdx
  407034:	48 8b 85 c8 d9 ff ff 	mov    -0x2638(%rbp),%rax
  40703b:	48 89 d6             	mov    %rdx,%rsi
  40703e:	48 89 c7             	mov    %rax,%rdi
  407041:	e8 e2 4e 00 00       	callq  40bf28 <_ZN2CK20dump_output_raw_dataIfEEvPT_RKNS_5ShapeE>
  407046:	48 83 bd c8 d9 ff ff 	cmpq   $0x0,-0x2638(%rbp)
  40704d:	00 
  40704e:	74 0f                	je     40705f <main+0x484>
  407050:	48 8b 85 c8 d9 ff ff 	mov    -0x2638(%rbp),%rax
  407057:	48 89 c7             	mov    %rax,%rdi
  40705a:	e8 31 f0 ff ff       	callq  406090 <_ZdaPv@plt>
  40705f:	48 8d 85 80 db ff ff 	lea    -0x2480(%rbp),%rax
  407066:	48 89 c7             	mov    %rax,%rdi
  407069:	e8 a2 ef ff ff       	callq  406010 <_ZN11arm_compute8CLTensor9allocatorEv@plt>
  40706e:	48 8b 10             	mov    (%rax),%rdx
  407071:	48 83 c2 18          	add    $0x18,%rdx
  407075:	48 8b 12             	mov    (%rdx),%rdx
  407078:	48 89 c7             	mov    %rax,%rdi
  40707b:	ff d2                	callq  *%rdx
  40707d:	48 8d 85 d0 dc ff ff 	lea    -0x2330(%rbp),%rax
  407084:	48 89 c7             	mov    %rax,%rdi
  407087:	e8 84 ef ff ff       	callq  406010 <_ZN11arm_compute8CLTensor9allocatorEv@plt>
  40708c:	48 8b 10             	mov    (%rax),%rdx
  40708f:	48 83 c2 18          	add    $0x18,%rdx
  407093:	48 8b 12             	mov    (%rdx),%rdx
  407096:	48 89 c7             	mov    %rax,%rdi
  407099:	ff d2                	callq  *%rdx
  40709b:	48 8d 85 20 de ff ff 	lea    -0x21e0(%rbp),%rax
  4070a2:	48 89 c7             	mov    %rax,%rdi
  4070a5:	e8 66 ef ff ff       	callq  406010 <_ZN11arm_compute8CLTensor9allocatorEv@plt>
  4070aa:	48 8b 10             	mov    (%rax),%rdx
  4070ad:	48 83 c2 18          	add    $0x18,%rdx
  4070b1:	48 8b 12             	mov    (%rdx),%rdx
  4070b4:	48 89 c7             	mov    %rax,%rdi
  4070b7:	ff d2                	callq  *%rdx
  4070b9:	48 8d 85 70 df ff ff 	lea    -0x2090(%rbp),%rax
  4070c0:	48 89 c7             	mov    %rax,%rdi
  4070c3:	e8 48 ef ff ff       	callq  406010 <_ZN11arm_compute8CLTensor9allocatorEv@plt>
  4070c8:	48 8b 10             	mov    (%rax),%rdx
  4070cb:	48 83 c2 18          	add    $0x18,%rdx
  4070cf:	48 8b 12             	mov    (%rdx),%rdx
  4070d2:	48 89 c7             	mov    %rax,%rdi
  4070d5:	ff d2                	callq  *%rdx
  4070d7:	80 bd af d9 ff ff 00 	cmpb   $0x0,-0x2651(%rbp)
  4070de:	74 27                	je     407107 <main+0x52c>
  4070e0:	48 83 bd b0 d9 ff ff 	cmpq   $0x0,-0x2650(%rbp)
  4070e7:	00 
  4070e8:	74 1d                	je     407107 <main+0x52c>
  4070ea:	48 8b 85 b0 d9 ff ff 	mov    -0x2650(%rbp),%rax
  4070f1:	48 8b 00             	mov    (%rax),%rax
  4070f4:	48 83 c0 08          	add    $0x8,%rax
  4070f8:	48 8b 00             	mov    (%rax),%rax
  4070fb:	48 8b 95 b0 d9 ff ff 	mov    -0x2650(%rbp),%rdx
  407102:	48 89 d7             	mov    %rdx,%rdi
  407105:	ff d0                	callq  *%rax
  407107:	e8 d7 2d 00 00       	callq  409ee3 <_ZN2CK11finish_testEv>
  40710c:	bb 00 00 00 00       	mov    $0x0,%ebx
  407111:	48 8d 85 c0 e0 ff ff 	lea    -0x1f40(%rbp),%rax
  407118:	48 89 c7             	mov    %rax,%rdi
  40711b:	e8 dc 94 00 00       	callq  4105fc <_ZN11arm_compute18CLConvolutionLayerD1Ev>
  407120:	48 8d 85 70 df ff ff 	lea    -0x2090(%rbp),%rax
  407127:	48 89 c7             	mov    %rax,%rdi
  40712a:	e8 05 8b 00 00       	callq  40fc34 <_ZN11arm_compute8CLTensorD1Ev>
  40712f:	48 8d 85 20 de ff ff 	lea    -0x21e0(%rbp),%rax
  407136:	48 89 c7             	mov    %rax,%rdi
  407139:	e8 f6 8a 00 00       	callq  40fc34 <_ZN11arm_compute8CLTensorD1Ev>
  40713e:	48 8d 85 d0 dc ff ff 	lea    -0x2330(%rbp),%rax
  407145:	48 89 c7             	mov    %rax,%rdi
  407148:	e8 e7 8a 00 00       	callq  40fc34 <_ZN11arm_compute8CLTensorD1Ev>
  40714d:	48 8d 85 80 db ff ff 	lea    -0x2480(%rbp),%rax
  407154:	48 89 c7             	mov    %rax,%rdi
  407157:	e8 d8 8a 00 00       	callq  40fc34 <_ZN11arm_compute8CLTensorD1Ev>
  40715c:	89 d8                	mov    %ebx,%eax
  40715e:	48 8b 4d e8          	mov    -0x18(%rbp),%rcx
  407162:	64 48 33 0c 25 28 00 	xor    %fs:0x28,%rcx
  407169:	00 00 
  40716b:	0f 84 9c 00 00 00    	je     40720d <main+0x632>
  407171:	e9 92 00 00 00       	jmpq   407208 <main+0x62d>
  407176:	49 89 c4             	mov    %rax,%r12
  407179:	48 89 df             	mov    %rbx,%rdi
  40717c:	e8 ef ed ff ff       	callq  405f70 <_ZdlPv@plt>
  407181:	4c 89 e0             	mov    %r12,%rax
  407184:	48 89 c7             	mov    %rax,%rdi
  407187:	e8 b4 f0 ff ff       	callq  406240 <_Unwind_Resume@plt>
  40718c:	48 89 c3             	mov    %rax,%rbx
  40718f:	48 8d 85 20 da ff ff 	lea    -0x25e0(%rbp),%rax
  407196:	48 89 c7             	mov    %rax,%rdi
  407199:	e8 7c 32 00 00       	callq  40a41a <_ZNSt10shared_ptrIN11arm_compute14IMemoryManagerEED1Ev>
  40719e:	eb 12                	jmp    4071b2 <main+0x5d7>
  4071a0:	48 89 c3             	mov    %rax,%rbx
  4071a3:	48 8d 85 c0 e0 ff ff 	lea    -0x1f40(%rbp),%rax
  4071aa:	48 89 c7             	mov    %rax,%rdi
  4071ad:	e8 4a 94 00 00       	callq  4105fc <_ZN11arm_compute18CLConvolutionLayerD1Ev>
  4071b2:	48 8d 85 70 df ff ff 	lea    -0x2090(%rbp),%rax
  4071b9:	48 89 c7             	mov    %rax,%rdi
  4071bc:	e8 73 8a 00 00       	callq  40fc34 <_ZN11arm_compute8CLTensorD1Ev>
  4071c1:	eb 03                	jmp    4071c6 <main+0x5eb>
  4071c3:	48 89 c3             	mov    %rax,%rbx
  4071c6:	48 8d 85 20 de ff ff 	lea    -0x21e0(%rbp),%rax
  4071cd:	48 89 c7             	mov    %rax,%rdi
  4071d0:	e8 5f 8a 00 00       	callq  40fc34 <_ZN11arm_compute8CLTensorD1Ev>
  4071d5:	eb 03                	jmp    4071da <main+0x5ff>
  4071d7:	48 89 c3             	mov    %rax,%rbx
  4071da:	48 8d 85 d0 dc ff ff 	lea    -0x2330(%rbp),%rax
  4071e1:	48 89 c7             	mov    %rax,%rdi
  4071e4:	e8 4b 8a 00 00       	callq  40fc34 <_ZN11arm_compute8CLTensorD1Ev>
  4071e9:	eb 03                	jmp    4071ee <main+0x613>
  4071eb:	48 89 c3             	mov    %rax,%rbx
  4071ee:	48 8d 85 80 db ff ff 	lea    -0x2480(%rbp),%rax
  4071f5:	48 89 c7             	mov    %rax,%rdi
  4071f8:	e8 37 8a 00 00       	callq  40fc34 <_ZN11arm_compute8CLTensorD1Ev>
  4071fd:	48 89 d8             	mov    %rbx,%rax
  407200:	48 89 c7             	mov    %rax,%rdi
  407203:	e8 38 f0 ff ff       	callq  406240 <_Unwind_Resume@plt>
  407208:	e8 c3 ed ff ff       	callq  405fd0 <__stack_chk_fail@plt>
  40720d:	48 81 c4 50 26 00 00 	add    $0x2650,%rsp
  407214:	5b                   	pop    %rbx
  407215:	41 5c                	pop    %r12
  407217:	5d                   	pop    %rbp
  407218:	c3                   	retq   

0000000000407219 <_ZN2CK13measure_setupIZ4mainEUlvE_EEvOT_>:
  407219:	55                   	push   %rbp
  40721a:	48 89 e5             	mov    %rsp,%rbp
  40721d:	48 83 ec 10          	sub    $0x10,%rsp
  407221:	48 89 7d f8          	mov    %rdi,-0x8(%rbp)
  407225:	48 8b 45 f8          	mov    -0x8(%rbp),%rax
  407229:	be 00 00 00 00       	mov    $0x0,%esi
  40722e:	48 89 c7             	mov    %rax,%rdi
  407231:	e8 49 00 00 00       	callq  40727f <_ZN2CK11do_measuredIRZ4mainEUlvE_EEvOT_i>
  407236:	bf 00 00 00 00       	mov    $0x0,%edi
  40723b:	e8 90 f0 ff ff       	callq  4062d0 <xopenme_get_timer@plt>
  407240:	f2 0f 5a c0          	cvtsd2ss %xmm0,%xmm0
  407244:	e8 e0 f3 ff ff       	callq  406629 <_ZN2CK16store_setup_timeEf>
  407249:	90                   	nop
  40724a:	c9                   	leaveq 
  40724b:	c3                   	retq   

000000000040724c <_ZN2CK12measure_testIZ4mainEUlvE0_EEvOT_>:
  40724c:	55                   	push   %rbp
  40724d:	48 89 e5             	mov    %rsp,%rbp
  407250:	48 83 ec 10          	sub    $0x10,%rsp
  407254:	48 89 7d f8          	mov    %rdi,-0x8(%rbp)
  407258:	48 8b 45 f8          	mov    -0x8(%rbp),%rax
  40725c:	be 01 00 00 00       	mov    $0x1,%esi
  407261:	48 89 c7             	mov    %rax,%rdi
  407264:	e8 48 00 00 00       	callq  4072b1 <_ZN2CK11do_measuredIRZ4mainEUlvE0_EEvOT_i>
  407269:	bf 01 00 00 00       	mov    $0x1,%edi
  40726e:	e8 5d f0 ff ff       	callq  4062d0 <xopenme_get_timer@plt>
  407273:	f2 0f 5a c0          	cvtsd2ss %xmm0,%xmm0
  407277:	e8 d7 f3 ff ff       	callq  406653 <_ZN2CK15store_test_timeEf>
  40727c:	90                   	nop
  40727d:	c9                   	leaveq 
  40727e:	c3                   	retq   

000000000040727f <_ZN2CK11do_measuredIRZ4mainEUlvE_EEvOT_i>:
  40727f:	55                   	push   %rbp
  407280:	48 89 e5             	mov    %rsp,%rbp
  407283:	48 83 ec 10          	sub    $0x10,%rsp
  407287:	48 89 7d f8          	mov    %rdi,-0x8(%rbp)
  40728b:	89 75 f4             	mov    %esi,-0xc(%rbp)
  40728e:	8b 45 f4             	mov    -0xc(%rbp),%eax
  407291:	89 c7                	mov    %eax,%edi
  407293:	e8 08 eb ff ff       	callq  405da0 <xopenme_clock_start@plt>
  407298:	48 8b 45 f8          	mov    -0x8(%rbp),%rax
  40729c:	48 89 c7             	mov    %rax,%rdi
  40729f:	e8 0c f4 ff ff       	callq  4066b0 <_ZZ4mainENKUlvE_clEv>
  4072a4:	8b 45 f4             	mov    -0xc(%rbp),%eax
  4072a7:	89 c7                	mov    %eax,%edi
  4072a9:	e8 32 ee ff ff       	callq  4060e0 <xopenme_clock_end@plt>
  4072ae:	90                   	nop
  4072af:	c9                   	leaveq 
  4072b0:	c3                   	retq   

00000000004072b1 <_ZN2CK11do_measuredIRZ4mainEUlvE0_EEvOT_i>:
  4072b1:	55                   	push   %rbp
  4072b2:	48 89 e5             	mov    %rsp,%rbp
  4072b5:	48 83 ec 10          	sub    $0x10,%rsp
  4072b9:	48 89 7d f8          	mov    %rdi,-0x8(%rbp)
  4072bd:	89 75 f4             	mov    %esi,-0xc(%rbp)
  4072c0:	8b 45 f4             	mov    -0xc(%rbp),%eax
  4072c3:	89 c7                	mov    %eax,%edi
  4072c5:	e8 d6 ea ff ff       	callq  405da0 <xopenme_clock_start@plt>
  4072ca:	48 8b 45 f8          	mov    -0x8(%rbp),%rax
  4072ce:	48 89 c7             	mov    %rax,%rdi
  4072d1:	e8 d0 f8 ff ff       	callq  406ba6 <_ZZ4mainENKUlvE0_clEv>
  4072d6:	8b 45 f4             	mov    -0xc(%rbp),%eax
  4072d9:	89 c7                	mov    %eax,%edi
  4072db:	e8 00 ee ff ff       	callq  4060e0 <xopenme_clock_end@plt>
  4072e0:	90                   	nop
  4072e1:	c9                   	leaveq 
  4072e2:	c3                   	retq   

00000000004072e3 <_Z41__static_initialization_and_destruction_0ii>:
  4072e3:	55                   	push   %rbp
  4072e4:	48 89 e5             	mov    %rsp,%rbp
  4072e7:	53                   	push   %rbx
  4072e8:	48 83 ec 28          	sub    $0x28,%rsp
  4072ec:	89 7d dc             	mov    %edi,-0x24(%rbp)
  4072ef:	89 75 d8             	mov    %esi,-0x28(%rbp)
  4072f2:	64 48 8b 04 25 28 00 	mov    %fs:0x28,%rax
  4072f9:	00 00 
  4072fb:	48 89 45 e8          	mov    %rax,-0x18(%rbp)
  4072ff:	31 c0                	xor    %eax,%eax
  407301:	83 7d dc 01          	cmpl   $0x1,-0x24(%rbp)
  407305:	0f 85 6f 01 00 00    	jne    40747a <_Z41__static_initialization_and_destruction_0ii+0x197>
  40730b:	81 7d d8 ff ff 00 00 	cmpl   $0xffff,-0x28(%rbp)
  407312:	0f 85 62 01 00 00    	jne    40747a <_Z41__static_initialization_and_destruction_0ii+0x197>
  407318:	b8 98 fa 61 00       	mov    $0x61fa98,%eax
  40731d:	0f b6 00             	movzbl (%rax),%eax
  407320:	84 c0                	test   %al,%al
  407322:	75 26                	jne    40734a <_Z41__static_initialization_and_destruction_0ii+0x67>
  407324:	b8 98 fa 61 00       	mov    $0x61fa98,%eax
  407329:	c6 00 01             	movb   $0x1,(%rax)
  40732c:	bf 50 fa 61 00       	mov    $0x61fa50,%edi
  407331:	e8 3e 06 00 00       	callq  407974 <_ZN2cl6DeviceC1Ev>
  407336:	ba 00 f3 61 00       	mov    $0x61f300,%edx
  40733b:	be 50 fa 61 00       	mov    $0x61fa50,%esi
  407340:	bf c0 79 40 00       	mov    $0x4079c0,%edi
  407345:	e8 16 ec ff ff       	callq  405f60 <__cxa_atexit@plt>
  40734a:	b8 a0 fa 61 00       	mov    $0x61faa0,%eax
  40734f:	0f b6 00             	movzbl (%rax),%eax
  407352:	84 c0                	test   %al,%al
  407354:	75 26                	jne    40737c <_Z41__static_initialization_and_destruction_0ii+0x99>
  407356:	b8 a0 fa 61 00       	mov    $0x61faa0,%eax
  40735b:	c6 00 01             	movb   $0x1,(%rax)
  40735e:	bf 68 fa 61 00       	mov    $0x61fa68,%edi
  407363:	e8 96 09 00 00       	callq  407cfe <_ZN2cl8PlatformC1Ev>
  407368:	ba 00 f3 61 00       	mov    $0x61f300,%edx
  40736d:	be 68 fa 61 00       	mov    $0x61fa68,%esi
  407372:	bf fa 7a 40 00       	mov    $0x407afa,%edi
  407377:	e8 e4 eb ff ff       	callq  405f60 <__cxa_atexit@plt>
  40737c:	b8 a8 fa 61 00       	mov    $0x61faa8,%eax
  407381:	0f b6 00             	movzbl (%rax),%eax
  407384:	84 c0                	test   %al,%al
  407386:	75 26                	jne    4073ae <_Z41__static_initialization_and_destruction_0ii+0xcb>
  407388:	b8 a8 fa 61 00       	mov    $0x61faa8,%eax
  40738d:	c6 00 01             	movb   $0x1,(%rax)
  407390:	bf 78 fa 61 00       	mov    $0x61fa78,%edi
  407395:	e8 56 15 00 00       	callq  4088f0 <_ZN2cl7ContextC1Ev>
  40739a:	ba 00 f3 61 00       	mov    $0x61f300,%edx
  40739f:	be 78 fa 61 00       	mov    $0x61fa78,%esi
  4073a4:	bf 78 82 40 00       	mov    $0x408278,%edi
  4073a9:	e8 b2 eb ff ff       	callq  405f60 <__cxa_atexit@plt>
  4073ae:	bf c0 fa 61 00       	mov    $0x61fac0,%edi
  4073b3:	e8 80 16 00 00       	callq  408a38 <_ZN2cl7NDRangeC1Ev>
  4073b8:	b8 b0 fa 61 00       	mov    $0x61fab0,%eax
  4073bd:	0f b6 00             	movzbl (%rax),%eax
  4073c0:	84 c0                	test   %al,%al
  4073c2:	75 26                	jne    4073ea <_Z41__static_initialization_and_destruction_0ii+0x107>
  4073c4:	b8 b0 fa 61 00       	mov    $0x61fab0,%eax
  4073c9:	c6 00 01             	movb   $0x1,(%rax)
  4073cc:	bf 88 fa 61 00       	mov    $0x61fa88,%edi
  4073d1:	e8 72 19 00 00       	callq  408d48 <_ZN2cl12CommandQueueC1Ev>
  4073d6:	ba 00 f3 61 00       	mov    $0x61f300,%edx
  4073db:	be 88 fa 61 00       	mov    $0x61fa88,%esi
  4073e0:	bf d0 8a 40 00       	mov    $0x408ad0,%edi
  4073e5:	e8 76 eb ff ff       	callq  405f60 <__cxa_atexit@plt>
  4073ea:	ba 01 00 00 00       	mov    $0x1,%edx
  4073ef:	be 80 00 00 00       	mov    $0x80,%esi
  4073f4:	bf e0 fa 61 00       	mov    $0x61fae0,%edi
  4073f9:	e8 74 16 00 00       	callq  408a72 <_ZN2cl7NDRangeC1Emm>
  4073fe:	48 8d 45 e7          	lea    -0x19(%rbp),%rax
  407402:	48 89 c7             	mov    %rax,%rdi
  407405:	e8 46 ee ff ff       	callq  406250 <_ZNSaIcEC1Ev@plt>
  40740a:	48 8d 45 e7          	lea    -0x19(%rbp),%rax
  40740e:	48 89 c2             	mov    %rax,%rdx
  407411:	be e5 4f 41 00       	mov    $0x414fe5,%esi
  407416:	bf 00 fb 61 00       	mov    $0x61fb00,%edi
  40741b:	e8 d0 ec ff ff       	callq  4060f0 <_ZNSt7__cxx1112basic_stringIcSt11char_traitsIcESaIcEEC1EPKcRKS3_@plt>
  407420:	48 8d 45 e7          	lea    -0x19(%rbp),%rax
  407424:	48 89 c7             	mov    %rax,%rdi
  407427:	e8 94 eb ff ff       	callq  405fc0 <_ZNSaIcED1Ev@plt>
  40742c:	ba 00 f3 61 00       	mov    $0x61f300,%edx
  407431:	be 00 fb 61 00       	mov    $0x61fb00,%esi
  407436:	bf 20 5f 40 00       	mov    $0x405f20,%edi
  40743b:	e8 20 eb ff ff       	callq  405f60 <__cxa_atexit@plt>
  407440:	bf 20 fb 61 00       	mov    $0x61fb20,%edi
  407445:	e8 16 ed ff ff       	callq  406160 <_ZNSt8ios_base4InitC1Ev@plt>
  40744a:	ba 00 f3 61 00       	mov    $0x61f300,%edx
  40744f:	be 20 fb 61 00       	mov    $0x61fb20,%esi
  407454:	bf e0 62 40 00       	mov    $0x4062e0,%edi
  407459:	e8 02 eb ff ff       	callq  405f60 <__cxa_atexit@plt>
  40745e:	eb 1a                	jmp    40747a <_Z41__static_initialization_and_destruction_0ii+0x197>
  407460:	48 89 c3             	mov    %rax,%rbx
  407463:	48 8d 45 e7          	lea    -0x19(%rbp),%rax
  407467:	48 89 c7             	mov    %rax,%rdi
  40746a:	e8 51 eb ff ff       	callq  405fc0 <_ZNSaIcED1Ev@plt>
  40746f:	48 89 d8             	mov    %rbx,%rax
  407472:	48 89 c7             	mov    %rax,%rdi
  407475:	e8 c6 ed ff ff       	callq  406240 <_Unwind_Resume@plt>
  40747a:	48 8b 45 e8          	mov    -0x18(%rbp),%rax
  40747e:	64 48 33 04 25 28 00 	xor    %fs:0x28,%rax
  407485:	00 00 
  407487:	74 05                	je     40748e <_Z41__static_initialization_and_destruction_0ii+0x1ab>
  407489:	e8 42 eb ff ff       	callq  405fd0 <__stack_chk_fail@plt>
  40748e:	48 83 c4 28          	add    $0x28,%rsp
  407492:	5b                   	pop    %rbx
  407493:	5d                   	pop    %rbp
  407494:	c3                   	retq   

0000000000407495 <_GLOBAL__sub_I__ZN2CK16store_setup_timeEf>:
  407495:	55                   	push   %rbp
  407496:	48 89 e5             	mov    %rsp,%rbp
  407499:	be ff ff 00 00       	mov    $0xffff,%esi
  40749e:	bf 01 00 00 00       	mov    $0x1,%edi
  4074a3:	e8 3b fe ff ff       	callq  4072e3 <_Z41__static_initialization_and_destruction_0ii>
  4074a8:	5d                   	pop    %rbp
  4074a9:	c3                   	retq   

00000000004074aa <_ZNSt9exceptionC1Ev>:
  4074aa:	55                   	push   %rbp
  4074ab:	48 89 e5             	mov    %rsp,%rbp
  4074ae:	48 89 7d f8          	mov    %rdi,-0x8(%rbp)
  4074b2:	ba 08 f7 61 00       	mov    $0x61f708,%edx
  4074b7:	48 8b 45 f8          	mov    -0x8(%rbp),%rax
  4074bb:	48 89 10             	mov    %rdx,(%rax)
  4074be:	90                   	nop
  4074bf:	5d                   	pop    %rbp
  4074c0:	c3                   	retq   

00000000004074c1 <_ZnwmPv>:
  4074c1:	55                   	push   %rbp
  4074c2:	48 89 e5             	mov    %rsp,%rbp
  4074c5:	48 89 7d f8          	mov    %rdi,-0x8(%rbp)
  4074c9:	48 89 75 f0          	mov    %rsi,-0x10(%rbp)
  4074cd:	48 8b 45 f0          	mov    -0x10(%rbp),%rax
  4074d1:	5d                   	pop    %rbp
  4074d2:	c3                   	retq   

00000000004074d3 <_ZdlPvS_>:
  4074d3:	55                   	push   %rbp
  4074d4:	48 89 e5             	mov    %rsp,%rbp
  4074d7:	48 89 7d f8          	mov    %rdi,-0x8(%rbp)
  4074db:	48 89 75 f0          	mov    %rsi,-0x10(%rbp)
  4074df:	90                   	nop
  4074e0:	5d                   	pop    %rbp
  4074e1:	c3                   	retq   

00000000004074e2 <_ZN2cl5ErrorC1EiPKc>:
  4074e2:	55                   	push   %rbp
  4074e3:	48 89 e5             	mov    %rsp,%rbp
  4074e6:	48 83 ec 20          	sub    $0x20,%rsp
  4074ea:	48 89 7d f8          	mov    %rdi,-0x8(%rbp)
  4074ee:	89 75 f4             	mov    %esi,-0xc(%rbp)
  4074f1:	48 89 55 e8          	mov    %rdx,-0x18(%rbp)
  4074f5:	48 8b 45 f8          	mov    -0x8(%rbp),%rax
  4074f9:	48 89 c7             	mov    %rax,%rdi
  4074fc:	e8 a9 ff ff ff       	callq  4074aa <_ZNSt9exceptionC1Ev>
  407501:	ba 58 53 41 00       	mov    $0x415358,%edx
  407506:	48 8b 45 f8          	mov    -0x8(%rbp),%rax
  40750a:	48 89 10             	mov    %rdx,(%rax)
  40750d:	48 8b 45 f8          	mov    -0x8(%rbp),%rax
  407511:	8b 55 f4             	mov    -0xc(%rbp),%edx
  407514:	89 50 08             	mov    %edx,0x8(%rax)
  407517:	48 8b 45 f8          	mov    -0x8(%rbp),%rax
  40751b:	48 8b 55 e8          	mov    -0x18(%rbp),%rdx
  40751f:	48 89 50 10          	mov    %rdx,0x10(%rax)
  407523:	90                   	nop
  407524:	c9                   	leaveq 
  407525:	c3                   	retq   

0000000000407526 <_ZN2cl5ErrorD1Ev>:
  407526:	55                   	push   %rbp
  407527:	48 89 e5             	mov    %rsp,%rbp
  40752a:	48 83 ec 10          	sub    $0x10,%rsp
  40752e:	48 89 7d f8          	mov    %rdi,-0x8(%rbp)
  407532:	ba 58 53 41 00       	mov    $0x415358,%edx
  407537:	48 8b 45 f8          	mov    -0x8(%rbp),%rax
  40753b:	48 89 10             	mov    %rdx,(%rax)
  40753e:	48 8b 45 f8          	mov    -0x8(%rbp),%rax
  407542:	48 89 c7             	mov    %rax,%rdi
  407545:	e8 26 ed ff ff       	callq  406270 <_ZNSt9exceptionD2Ev@plt>
  40754a:	90                   	nop
  40754b:	c9                   	leaveq 
  40754c:	c3                   	retq   
  40754d:	90                   	nop

000000000040754e <_ZN2cl5ErrorD0Ev>:
  40754e:	55                   	push   %rbp
  40754f:	48 89 e5             	mov    %rsp,%rbp
  407552:	48 83 ec 10          	sub    $0x10,%rsp
  407556:	48 89 7d f8          	mov    %rdi,-0x8(%rbp)
  40755a:	48 8b 45 f8          	mov    -0x8(%rbp),%rax
  40755e:	48 89 c7             	mov    %rax,%rdi
  407561:	e8 c0 ff ff ff       	callq  407526 <_ZN2cl5ErrorD1Ev>
  407566:	48 8b 45 f8          	mov    -0x8(%rbp),%rax
  40756a:	48 89 c7             	mov    %rax,%rdi
  40756d:	e8 fe e9 ff ff       	callq  405f70 <_ZdlPv@plt>
  407572:	c9                   	leaveq 
  407573:	c3                   	retq   

0000000000407574 <_ZNK2cl5Error4whatEv>:
  407574:	55                   	push   %rbp
  407575:	48 89 e5             	mov    %rsp,%rbp
  407578:	48 89 7d f8          	mov    %rdi,-0x8(%rbp)
  40757c:	48 8b 45 f8          	mov    -0x8(%rbp),%rax
  407580:	48 8b 40 10          	mov    0x10(%rax),%rax
  407584:	48 85 c0             	test   %rax,%rax
  407587:	75 07                	jne    407590 <_ZNK2cl5Error4whatEv+0x1c>
  407589:	b8 95 4a 41 00       	mov    $0x414a95,%eax
  40758e:	eb 08                	jmp    407598 <_ZNK2cl5Error4whatEv+0x24>
  407590:	48 8b 45 f8          	mov    -0x8(%rbp),%rax
  407594:	48 8b 40 10          	mov    0x10(%rax),%rax
  407598:	5d                   	pop    %rbp
  407599:	c3                   	retq   

000000000040759a <_ZNK2cl5Error3errEv>:
  40759a:	55                   	push   %rbp
  40759b:	48 89 e5             	mov    %rsp,%rbp
  40759e:	48 89 7d f8          	mov    %rdi,-0x8(%rbp)
  4075a2:	48 8b 45 f8          	mov    -0x8(%rbp),%rax
  4075a6:	8b 40 08             	mov    0x8(%rax),%eax
  4075a9:	5d                   	pop    %rbp
  4075aa:	c3                   	retq   
  4075ab:	90                   	nop

00000000004075ac <_ZNSt9exceptionC1ERKS_>:
  4075ac:	55                   	push   %rbp
  4075ad:	48 89 e5             	mov    %rsp,%rbp
  4075b0:	48 89 7d f8          	mov    %rdi,-0x8(%rbp)
  4075b4:	48 89 75 f0          	mov    %rsi,-0x10(%rbp)
  4075b8:	ba 08 f7 61 00       	mov    $0x61f708,%edx
  4075bd:	48 8b 45 f8          	mov    -0x8(%rbp),%rax
  4075c1:	48 89 10             	mov    %rdx,(%rax)
  4075c4:	90                   	nop
  4075c5:	5d                   	pop    %rbp
  4075c6:	c3                   	retq   
  4075c7:	90                   	nop

00000000004075c8 <_ZN2cl5ErrorC1ERKS0_>:
  4075c8:	55                   	push   %rbp
  4075c9:	48 89 e5             	mov    %rsp,%rbp
  4075cc:	48 83 ec 10          	sub    $0x10,%rsp
  4075d0:	48 89 7d f8          	mov    %rdi,-0x8(%rbp)
  4075d4:	48 89 75 f0          	mov    %rsi,-0x10(%rbp)
  4075d8:	48 8b 55 f0          	mov    -0x10(%rbp),%rdx
  4075dc:	48 8b 45 f8          	mov    -0x8(%rbp),%rax
  4075e0:	48 89 d6             	mov    %rdx,%rsi
  4075e3:	48 89 c7             	mov    %rax,%rdi
  4075e6:	e8 c1 ff ff ff       	callq  4075ac <_ZNSt9exceptionC1ERKS_>
  4075eb:	ba 58 53 41 00       	mov    $0x415358,%edx
  4075f0:	48 8b 45 f8          	mov    -0x8(%rbp),%rax
  4075f4:	48 89 10             	mov    %rdx,(%rax)
  4075f7:	48 8b 45 f0          	mov    -0x10(%rbp),%rax
  4075fb:	8b 50 08             	mov    0x8(%rax),%edx
  4075fe:	48 8b 45 f8          	mov    -0x8(%rbp),%rax
  407602:	89 50 08             	mov    %edx,0x8(%rax)
  407605:	48 8b 45 f0          	mov    -0x10(%rbp),%rax
  407609:	48 8b 50 10          	mov    0x10(%rax),%rdx
  40760d:	48 8b 45 f8          	mov    -0x8(%rbp),%rax
  407611:	48 89 50 10          	mov    %rdx,0x10(%rax)
  407615:	90                   	nop
  407616:	c9                   	leaveq 
  407617:	c3                   	retq   

0000000000407618 <_ZN2cl6detail16ReferenceHandlerIP13_cl_device_idE6retainES3_>:
  407618:	55                   	push   %rbp
  407619:	48 89 e5             	mov    %rsp,%rbp
  40761c:	48 89 7d f8          	mov    %rdi,-0x8(%rbp)
  407620:	b8 00 00 00 00       	mov    $0x0,%eax
  407625:	5d                   	pop    %rbp
  407626:	c3                   	retq   

0000000000407627 <_ZN2cl6detail16ReferenceHandlerIP13_cl_device_idE7releaseES3_>:
  407627:	55                   	push   %rbp
  407628:	48 89 e5             	mov    %rsp,%rbp
  40762b:	48 89 7d f8          	mov    %rdi,-0x8(%rbp)
  40762f:	b8 00 00 00 00       	mov    $0x0,%eax
  407634:	5d                   	pop    %rbp
  407635:	c3                   	retq   

0000000000407636 <_ZN2cl6detail16ReferenceHandlerIP15_cl_platform_idE6retainES3_>:
  407636:	55                   	push   %rbp
  407637:	48 89 e5             	mov    %rsp,%rbp
  40763a:	48 89 7d f8          	mov    %rdi,-0x8(%rbp)
  40763e:	b8 00 00 00 00       	mov    $0x0,%eax
  407643:	5d                   	pop    %rbp
  407644:	c3                   	retq   

0000000000407645 <_ZN2cl6detail16ReferenceHandlerIP15_cl_platform_idE7releaseES3_>:
  407645:	55                   	push   %rbp
  407646:	48 89 e5             	mov    %rsp,%rbp
  407649:	48 89 7d f8          	mov    %rdi,-0x8(%rbp)
  40764d:	b8 00 00 00 00       	mov    $0x0,%eax
  407652:	5d                   	pop    %rbp
  407653:	c3                   	retq   

0000000000407654 <_ZN2cl6detail16ReferenceHandlerIP11_cl_contextE6retainES3_>:
  407654:	55                   	push   %rbp
  407655:	48 89 e5             	mov    %rsp,%rbp
  407658:	48 83 ec 10          	sub    $0x10,%rsp
  40765c:	48 89 7d f8          	mov    %rdi,-0x8(%rbp)
  407660:	48 8b 45 f8          	mov    -0x8(%rbp),%rax
  407664:	48 89 c7             	mov    %rax,%rdi
  407667:	e8 a4 eb ff ff       	callq  406210 <clRetainContext@plt>
  40766c:	c9                   	leaveq 
  40766d:	c3                   	retq   

000000000040766e <_ZN2cl6detail16ReferenceHandlerIP11_cl_contextE7releaseES3_>:
  40766e:	55                   	push   %rbp
  40766f:	48 89 e5             	mov    %rsp,%rbp
  407672:	48 83 ec 10          	sub    $0x10,%rsp
  407676:	48 89 7d f8          	mov    %rdi,-0x8(%rbp)
  40767a:	48 8b 45 f8          	mov    -0x8(%rbp),%rax
  40767e:	48 89 c7             	mov    %rax,%rdi
  407681:	e8 8a e8 ff ff       	callq  405f10 <clReleaseContext@plt>
  407686:	c9                   	leaveq 
  407687:	c3                   	retq   

0000000000407688 <_ZN2cl6detail16ReferenceHandlerIP17_cl_command_queueE6retainES3_>:
  407688:	55                   	push   %rbp
  407689:	48 89 e5             	mov    %rsp,%rbp
  40768c:	48 83 ec 10          	sub    $0x10,%rsp
  407690:	48 89 7d f8          	mov    %rdi,-0x8(%rbp)
  407694:	48 8b 45 f8          	mov    -0x8(%rbp),%rax
  407698:	48 89 c7             	mov    %rax,%rdi
  40769b:	e8 00 e8 ff ff       	callq  405ea0 <clRetainCommandQueue@plt>
  4076a0:	c9                   	leaveq 
  4076a1:	c3                   	retq   

00000000004076a2 <_ZN2cl6detail16ReferenceHandlerIP17_cl_command_queueE7releaseES3_>:
  4076a2:	55                   	push   %rbp
  4076a3:	48 89 e5             	mov    %rsp,%rbp
  4076a6:	48 83 ec 10          	sub    $0x10,%rsp
  4076aa:	48 89 7d f8          	mov    %rdi,-0x8(%rbp)
  4076ae:	48 8b 45 f8          	mov    -0x8(%rbp),%rax
  4076b2:	48 89 c7             	mov    %rax,%rdi
  4076b5:	e8 c6 e9 ff ff       	callq  406080 <clReleaseCommandQueue@plt>
  4076ba:	c9                   	leaveq 
  4076bb:	c3                   	retq   

00000000004076bc <_ZN2cl6detail16ReferenceHandlerIP10_cl_kernelE7releaseES3_>:
  4076bc:	55                   	push   %rbp
  4076bd:	48 89 e5             	mov    %rsp,%rbp
  4076c0:	48 83 ec 10          	sub    $0x10,%rsp
  4076c4:	48 89 7d f8          	mov    %rdi,-0x8(%rbp)
  4076c8:	48 8b 45 f8          	mov    -0x8(%rbp),%rax
  4076cc:	48 89 c7             	mov    %rax,%rdi
  4076cf:	e8 ac eb ff ff       	callq  406280 <clReleaseKernel@plt>
  4076d4:	c9                   	leaveq 
  4076d5:	c3                   	retq   

00000000004076d6 <_ZN2cl6detail7WrapperIP13_cl_device_idE20isReferenceCountableES3_>:
  4076d6:	55                   	push   %rbp
  4076d7:	48 89 e5             	mov    %rsp,%rbp
  4076da:	48 89 7d e8          	mov    %rdi,-0x18(%rbp)
  4076de:	c6 45 ff 00          	movb   $0x0,-0x1(%rbp)
  4076e2:	0f b6 45 ff          	movzbl -0x1(%rbp),%eax
  4076e6:	5d                   	pop    %rbp
  4076e7:	c3                   	retq   

00000000004076e8 <_ZN2cl6detail7WrapperIP13_cl_device_idEC1Ev>:
  4076e8:	55                   	push   %rbp
  4076e9:	48 89 e5             	mov    %rsp,%rbp
  4076ec:	48 89 7d f8          	mov    %rdi,-0x8(%rbp)
  4076f0:	48 8b 45 f8          	mov    -0x8(%rbp),%rax
  4076f4:	48 c7 00 00 00 00 00 	movq   $0x0,(%rax)
  4076fb:	48 8b 45 f8          	mov    -0x8(%rbp),%rax
  4076ff:	c6 40 08 00          	movb   $0x0,0x8(%rax)
  407703:	90                   	nop
  407704:	5d                   	pop    %rbp
  407705:	c3                   	retq   

0000000000407706 <_ZN2cl6detail7WrapperIP13_cl_device_idEC1ERKS3_b>:
  407706:	55                   	push   %rbp
  407707:	48 89 e5             	mov    %rsp,%rbp
  40770a:	48 83 ec 20          	sub    $0x20,%rsp
  40770e:	48 89 7d f8          	mov    %rdi,-0x8(%rbp)
  407712:	48 89 75 f0          	mov    %rsi,-0x10(%rbp)
  407716:	89 d0                	mov    %edx,%eax
  407718:	88 45 ec             	mov    %al,-0x14(%rbp)
  40771b:	48 8b 45 f0          	mov    -0x10(%rbp),%rax
  40771f:	48 8b 10             	mov    (%rax),%rdx
  407722:	48 8b 45 f8          	mov    -0x8(%rbp),%rax
  407726:	48 89 10             	mov    %rdx,(%rax)
  407729:	48 8b 45 f8          	mov    -0x8(%rbp),%rax
  40772d:	c6 40 08 00          	movb   $0x0,0x8(%rax)
  407731:	48 8b 45 f0          	mov    -0x10(%rbp),%rax
  407735:	48 8b 00             	mov    (%rax),%rax
  407738:	48 89 c7             	mov    %rax,%rdi
  40773b:	e8 96 ff ff ff       	callq  4076d6 <_ZN2cl6detail7WrapperIP13_cl_device_idE20isReferenceCountableES3_>
  407740:	89 c2                	mov    %eax,%edx
  407742:	48 8b 45 f8          	mov    -0x8(%rbp),%rax
  407746:	88 50 08             	mov    %dl,0x8(%rax)
  407749:	80 7d ec 00          	cmpb   $0x0,-0x14(%rbp)
  40774d:	74 18                	je     407767 <_ZN2cl6detail7WrapperIP13_cl_device_idEC1ERKS3_b+0x61>
  40774f:	48 8b 45 f8          	mov    -0x8(%rbp),%rax
  407753:	48 89 c7             	mov    %rax,%rdi
  407756:	e8 a1 01 00 00       	callq  4078fc <_ZNK2cl6detail7WrapperIP13_cl_device_idE6retainEv>
  40775b:	be 9b 4a 41 00       	mov    $0x414a9b,%esi
  407760:	89 c7                	mov    %eax,%edi
  407762:	e8 6d ed ff ff       	callq  4064d4 <_ZN2cl6detailL10errHandlerEiPKc>
  407767:	90                   	nop
  407768:	c9                   	leaveq 
  407769:	c3                   	retq   

000000000040776a <_ZN2cl6detail7WrapperIP13_cl_device_idED1Ev>:
  40776a:	55                   	push   %rbp
  40776b:	48 89 e5             	mov    %rsp,%rbp
  40776e:	48 83 ec 10          	sub    $0x10,%rsp
  407772:	48 89 7d f8          	mov    %rdi,-0x8(%rbp)
  407776:	48 8b 45 f8          	mov    -0x8(%rbp),%rax
  40777a:	48 89 c7             	mov    %rax,%rdi
  40777d:	e8 b6 01 00 00       	callq  407938 <_ZNK2cl6detail7WrapperIP13_cl_device_idE7releaseEv>
  407782:	90                   	nop
  407783:	c9                   	leaveq 
  407784:	c3                   	retq   
  407785:	90                   	nop

0000000000407786 <_ZN2cl6detail7WrapperIP13_cl_device_idEC1ERKS4_>:
  407786:	55                   	push   %rbp
  407787:	48 89 e5             	mov    %rsp,%rbp
  40778a:	48 83 ec 10          	sub    $0x10,%rsp
  40778e:	48 89 7d f8          	mov    %rdi,-0x8(%rbp)
  407792:	48 89 75 f0          	mov    %rsi,-0x10(%rbp)
  407796:	48 8b 45 f0          	mov    -0x10(%rbp),%rax
  40779a:	48 8b 10             	mov    (%rax),%rdx
  40779d:	48 8b 45 f8          	mov    -0x8(%rbp),%rax
  4077a1:	48 89 10             	mov    %rdx,(%rax)
  4077a4:	48 8b 45 f8          	mov    -0x8(%rbp),%rax
  4077a8:	48 8b 00             	mov    (%rax),%rax
  4077ab:	48 89 c7             	mov    %rax,%rdi
  4077ae:	e8 23 ff ff ff       	callq  4076d6 <_ZN2cl6detail7WrapperIP13_cl_device_idE20isReferenceCountableES3_>
  4077b3:	89 c2                	mov    %eax,%edx
  4077b5:	48 8b 45 f8          	mov    -0x8(%rbp),%rax
  4077b9:	88 50 08             	mov    %dl,0x8(%rax)
  4077bc:	48 8b 45 f8          	mov    -0x8(%rbp),%rax
  4077c0:	48 89 c7             	mov    %rax,%rdi
  4077c3:	e8 34 01 00 00       	callq  4078fc <_ZNK2cl6detail7WrapperIP13_cl_device_idE6retainEv>
  4077c8:	be 9b 4a 41 00       	mov    $0x414a9b,%esi
  4077cd:	89 c7                	mov    %eax,%edi
  4077cf:	e8 00 ed ff ff       	callq  4064d4 <_ZN2cl6detailL10errHandlerEiPKc>
  4077d4:	90                   	nop
  4077d5:	c9                   	leaveq 
  4077d6:	c3                   	retq   
  4077d7:	90                   	nop

00000000004077d8 <_ZN2cl6detail7WrapperIP13_cl_device_idEC1EOS4_>:
  4077d8:	55                   	push   %rbp
  4077d9:	48 89 e5             	mov    %rsp,%rbp
  4077dc:	48 89 7d f8          	mov    %rdi,-0x8(%rbp)
  4077e0:	48 89 75 f0          	mov    %rsi,-0x10(%rbp)
  4077e4:	48 8b 45 f0          	mov    -0x10(%rbp),%rax
  4077e8:	48 8b 10             	mov    (%rax),%rdx
  4077eb:	48 8b 45 f8          	mov    -0x8(%rbp),%rax
  4077ef:	48 89 10             	mov    %rdx,(%rax)
  4077f2:	48 8b 45 f0          	mov    -0x10(%rbp),%rax
  4077f6:	0f b6 50 08          	movzbl 0x8(%rax),%edx
  4077fa:	48 8b 45 f8          	mov    -0x8(%rbp),%rax
  4077fe:	88 50 08             	mov    %dl,0x8(%rax)
  407801:	48 8b 45 f0          	mov    -0x10(%rbp),%rax
  407805:	48 c7 00 00 00 00 00 	movq   $0x0,(%rax)
  40780c:	48 8b 45 f0          	mov    -0x10(%rbp),%rax
  407810:	c6 40 08 00          	movb   $0x0,0x8(%rax)
  407814:	90                   	nop
  407815:	5d                   	pop    %rbp
  407816:	c3                   	retq   
  407817:	90                   	nop

0000000000407818 <_ZN2cl6detail7WrapperIP13_cl_device_idEaSERKS4_>:
  407818:	55                   	push   %rbp
  407819:	48 89 e5             	mov    %rsp,%rbp
  40781c:	48 83 ec 10          	sub    $0x10,%rsp
  407820:	48 89 7d f8          	mov    %rdi,-0x8(%rbp)
  407824:	48 89 75 f0          	mov    %rsi,-0x10(%rbp)
  407828:	48 8b 45 f8          	mov    -0x8(%rbp),%rax
  40782c:	48 3b 45 f0          	cmp    -0x10(%rbp),%rax
  407830:	74 4d                	je     40787f <_ZN2cl6detail7WrapperIP13_cl_device_idEaSERKS4_+0x67>
  407832:	48 8b 45 f8          	mov    -0x8(%rbp),%rax
  407836:	48 89 c7             	mov    %rax,%rdi
  407839:	e8 fa 00 00 00       	callq  407938 <_ZNK2cl6detail7WrapperIP13_cl_device_idE7releaseEv>
  40783e:	be a9 4a 41 00       	mov    $0x414aa9,%esi
  407843:	89 c7                	mov    %eax,%edi
  407845:	e8 8a ec ff ff       	callq  4064d4 <_ZN2cl6detailL10errHandlerEiPKc>
  40784a:	48 8b 45 f0          	mov    -0x10(%rbp),%rax
  40784e:	48 8b 10             	mov    (%rax),%rdx
  407851:	48 8b 45 f8          	mov    -0x8(%rbp),%rax
  407855:	48 89 10             	mov    %rdx,(%rax)
  407858:	48 8b 45 f0          	mov    -0x10(%rbp),%rax
  40785c:	0f b6 50 08          	movzbl 0x8(%rax),%edx
  407860:	48 8b 45 f8          	mov    -0x8(%rbp),%rax
  407864:	88 50 08             	mov    %dl,0x8(%rax)
  407867:	48 8b 45 f8          	mov    -0x8(%rbp),%rax
  40786b:	48 89 c7             	mov    %rax,%rdi
  40786e:	e8 89 00 00 00       	callq  4078fc <_ZNK2cl6detail7WrapperIP13_cl_device_idE6retainEv>
  407873:	be 9b 4a 41 00       	mov    $0x414a9b,%esi
  407878:	89 c7                	mov    %eax,%edi
  40787a:	e8 55 ec ff ff       	callq  4064d4 <_ZN2cl6detailL10errHandlerEiPKc>
  40787f:	48 8b 45 f8          	mov    -0x8(%rbp),%rax
  407883:	c9                   	leaveq 
  407884:	c3                   	retq   
  407885:	90                   	nop

0000000000407886 <_ZN2cl6detail7WrapperIP13_cl_device_idEaSEOS4_>:
  407886:	55                   	push   %rbp
  407887:	48 89 e5             	mov    %rsp,%rbp
  40788a:	48 83 ec 10          	sub    $0x10,%rsp
  40788e:	48 89 7d f8          	mov    %rdi,-0x8(%rbp)
  407892:	48 89 75 f0          	mov    %rsi,-0x10(%rbp)
  407896:	48 8b 45 f8          	mov    -0x8(%rbp),%rax
  40789a:	48 3b 45 f0          	cmp    -0x10(%rbp),%rax
  40789e:	74 48                	je     4078e8 <_ZN2cl6detail7WrapperIP13_cl_device_idEaSEOS4_+0x62>
  4078a0:	48 8b 45 f8          	mov    -0x8(%rbp),%rax
  4078a4:	48 89 c7             	mov    %rax,%rdi
  4078a7:	e8 8c 00 00 00       	callq  407938 <_ZNK2cl6detail7WrapperIP13_cl_device_idE7releaseEv>
  4078ac:	be a9 4a 41 00       	mov    $0x414aa9,%esi
  4078b1:	89 c7                	mov    %eax,%edi
  4078b3:	e8 1c ec ff ff       	callq  4064d4 <_ZN2cl6detailL10errHandlerEiPKc>
  4078b8:	48 8b 45 f0          	mov    -0x10(%rbp),%rax
  4078bc:	48 8b 10             	mov    (%rax),%rdx
  4078bf:	48 8b 45 f8          	mov    -0x8(%rbp),%rax
  4078c3:	48 89 10             	mov    %rdx,(%rax)
  4078c6:	48 8b 45 f0          	mov    -0x10(%rbp),%rax
  4078ca:	0f b6 50 08          	movzbl 0x8(%rax),%edx
  4078ce:	48 8b 45 f8          	mov    -0x8(%rbp),%rax
  4078d2:	88 50 08             	mov    %dl,0x8(%rax)
  4078d5:	48 8b 45 f0          	mov    -0x10(%rbp),%rax
  4078d9:	48 c7 00 00 00 00 00 	movq   $0x0,(%rax)
  4078e0:	48 8b 45 f0          	mov    -0x10(%rbp),%rax
  4078e4:	c6 40 08 00          	movb   $0x0,0x8(%rax)
  4078e8:	48 8b 45 f8          	mov    -0x8(%rbp),%rax
  4078ec:	c9                   	leaveq 
  4078ed:	c3                   	retq   

00000000004078ee <_ZNK2cl6detail7WrapperIP13_cl_device_idEclEv>:
  4078ee:	55                   	push   %rbp
  4078ef:	48 89 e5             	mov    %rsp,%rbp
  4078f2:	48 89 7d f8          	mov    %rdi,-0x8(%rbp)
  4078f6:	48 8b 45 f8          	mov    -0x8(%rbp),%rax
  4078fa:	5d                   	pop    %rbp
  4078fb:	c3                   	retq   

00000000004078fc <_ZNK2cl6detail7WrapperIP13_cl_device_idE6retainEv>:
  4078fc:	55                   	push   %rbp
  4078fd:	48 89 e5             	mov    %rsp,%rbp
  407900:	48 83 ec 10          	sub    $0x10,%rsp
  407904:	48 89 7d f8          	mov    %rdi,-0x8(%rbp)
  407908:	48 8b 45 f8          	mov    -0x8(%rbp),%rax
  40790c:	48 8b 00             	mov    (%rax),%rax
  40790f:	48 85 c0             	test   %rax,%rax
  407912:	74 1d                	je     407931 <_ZNK2cl6detail7WrapperIP13_cl_device_idE6retainEv+0x35>
  407914:	48 8b 45 f8          	mov    -0x8(%rbp),%rax
  407918:	0f b6 40 08          	movzbl 0x8(%rax),%eax
  40791c:	84 c0                	test   %al,%al
  40791e:	74 11                	je     407931 <_ZNK2cl6detail7WrapperIP13_cl_device_idE6retainEv+0x35>
  407920:	48 8b 45 f8          	mov    -0x8(%rbp),%rax
  407924:	48 8b 00             	mov    (%rax),%rax
  407927:	48 89 c7             	mov    %rax,%rdi
  40792a:	e8 e9 fc ff ff       	callq  407618 <_ZN2cl6detail16ReferenceHandlerIP13_cl_device_idE6retainES3_>
  40792f:	eb 05                	jmp    407936 <_ZNK2cl6detail7WrapperIP13_cl_device_idE6retainEv+0x3a>
  407931:	b8 00 00 00 00       	mov    $0x0,%eax
  407936:	c9                   	leaveq 
  407937:	c3                   	retq   

0000000000407938 <_ZNK2cl6detail7WrapperIP13_cl_device_idE7releaseEv>:
  407938:	55                   	push   %rbp
  407939:	48 89 e5             	mov    %rsp,%rbp
  40793c:	48 83 ec 10          	sub    $0x10,%rsp
  407940:	48 89 7d f8          	mov    %rdi,-0x8(%rbp)
  407944:	48 8b 45 f8          	mov    -0x8(%rbp),%rax
  407948:	48 8b 00             	mov    (%rax),%rax
  40794b:	48 85 c0             	test   %rax,%rax
  40794e:	74 1d                	je     40796d <_ZNK2cl6detail7WrapperIP13_cl_device_idE7releaseEv+0x35>
  407950:	48 8b 45 f8          	mov    -0x8(%rbp),%rax
  407954:	0f b6 40 08          	movzbl 0x8(%rax),%eax
  407958:	84 c0                	test   %al,%al
  40795a:	74 11                	je     40796d <_ZNK2cl6detail7WrapperIP13_cl_device_idE7releaseEv+0x35>
  40795c:	48 8b 45 f8          	mov    -0x8(%rbp),%rax
  407960:	48 8b 00             	mov    (%rax),%rax
  407963:	48 89 c7             	mov    %rax,%rdi
  407966:	e8 bc fc ff ff       	callq  407627 <_ZN2cl6detail16ReferenceHandlerIP13_cl_device_idE7releaseES3_>
  40796b:	eb 05                	jmp    407972 <_ZNK2cl6detail7WrapperIP13_cl_device_idE7releaseEv+0x3a>
  40796d:	b8 00 00 00 00       	mov    $0x0,%eax
  407972:	c9                   	leaveq 
  407973:	c3                   	retq   

0000000000407974 <_ZN2cl6DeviceC1Ev>:
  407974:	55                   	push   %rbp
  407975:	48 89 e5             	mov    %rsp,%rbp
  407978:	48 83 ec 10          	sub    $0x10,%rsp
  40797c:	48 89 7d f8          	mov    %rdi,-0x8(%rbp)
  407980:	48 8b 45 f8          	mov    -0x8(%rbp),%rax
  407984:	48 89 c7             	mov    %rax,%rdi
  407987:	e8 5c fd ff ff       	callq  4076e8 <_ZN2cl6detail7WrapperIP13_cl_device_idEC1Ev>
  40798c:	90                   	nop
  40798d:	c9                   	leaveq 
  40798e:	c3                   	retq   
  40798f:	90                   	nop

0000000000407990 <_ZN2cl6DeviceC1ERKP13_cl_device_idb>:
  407990:	55                   	push   %rbp
  407991:	48 89 e5             	mov    %rsp,%rbp
  407994:	48 83 ec 20          	sub    $0x20,%rsp
  407998:	48 89 7d f8          	mov    %rdi,-0x8(%rbp)
  40799c:	48 89 75 f0          	mov    %rsi,-0x10(%rbp)
  4079a0:	89 d0                	mov    %edx,%eax
  4079a2:	88 45 ec             	mov    %al,-0x14(%rbp)
  4079a5:	0f b6 55 ec          	movzbl -0x14(%rbp),%edx
  4079a9:	48 8b 45 f8          	mov    -0x8(%rbp),%rax
  4079ad:	48 8b 4d f0          	mov    -0x10(%rbp),%rcx
  4079b1:	48 89 ce             	mov    %rcx,%rsi
  4079b4:	48 89 c7             	mov    %rax,%rdi
  4079b7:	e8 4a fd ff ff       	callq  407706 <_ZN2cl6detail7WrapperIP13_cl_device_idEC1ERKS3_b>
  4079bc:	90                   	nop
  4079bd:	c9                   	leaveq 
  4079be:	c3                   	retq   
  4079bf:	90                   	nop

00000000004079c0 <_ZN2cl6DeviceD1Ev>:
  4079c0:	55                   	push   %rbp
  4079c1:	48 89 e5             	mov    %rsp,%rbp
  4079c4:	48 83 ec 10          	sub    $0x10,%rsp
  4079c8:	48 89 7d f8          	mov    %rdi,-0x8(%rbp)
  4079cc:	48 8b 45 f8          	mov    -0x8(%rbp),%rax
  4079d0:	48 89 c7             	mov    %rax,%rdi
  4079d3:	e8 92 fd ff ff       	callq  40776a <_ZN2cl6detail7WrapperIP13_cl_device_idED1Ev>
  4079d8:	90                   	nop
  4079d9:	c9                   	leaveq 
  4079da:	c3                   	retq   

00000000004079db <_ZN2cl6Device10getDefaultEPi>:
  4079db:	55                   	push   %rbp
  4079dc:	48 89 e5             	mov    %rsp,%rbp
  4079df:	48 83 ec 10          	sub    $0x10,%rsp
  4079e3:	48 89 7d f8          	mov    %rdi,-0x8(%rbp)
  4079e7:	48 89 75 f0          	mov    %rsi,-0x10(%rbp)
  4079eb:	be 0c 89 40 00       	mov    $0x40890c,%esi
  4079f0:	bf 40 fa 61 00       	mov    $0x61fa40,%edi
  4079f5:	e8 39 2b 00 00       	callq  40a533 <_ZSt9call_onceIRFvvEJEEvRSt9once_flagOT_DpOT0_>
  4079fa:	8b 05 60 80 21 00    	mov    0x218060(%rip),%eax        # 61fa60 <_ZN2cl6Device14default_error_E>
  407a00:	be 00 00 00 00       	mov    $0x0,%esi
  407a05:	89 c7                	mov    %eax,%edi
  407a07:	e8 c8 ea ff ff       	callq  4064d4 <_ZN2cl6detailL10errHandlerEiPKc>
  407a0c:	48 83 7d f0 00       	cmpq   $0x0,-0x10(%rbp)
  407a11:	74 0c                	je     407a1f <_ZN2cl6Device10getDefaultEPi+0x44>
  407a13:	8b 15 47 80 21 00    	mov    0x218047(%rip),%edx        # 61fa60 <_ZN2cl6Device14default_error_E>
  407a19:	48 8b 45 f0          	mov    -0x10(%rbp),%rax
  407a1d:	89 10                	mov    %edx,(%rax)
  407a1f:	48 8b 45 f8          	mov    -0x8(%rbp),%rax
  407a23:	be 50 fa 61 00       	mov    $0x61fa50,%esi
  407a28:	48 89 c7             	mov    %rax,%rdi
  407a2b:	e8 06 00 00 00       	callq  407a36 <_ZN2cl6DeviceC1ERKS0_>
  407a30:	48 8b 45 f8          	mov    -0x8(%rbp),%rax
  407a34:	c9                   	leaveq 
  407a35:	c3                   	retq   

0000000000407a36 <_ZN2cl6DeviceC1ERKS0_>:
  407a36:	55                   	push   %rbp
  407a37:	48 89 e5             	mov    %rsp,%rbp
  407a3a:	48 83 ec 10          	sub    $0x10,%rsp
  407a3e:	48 89 7d f8          	mov    %rdi,-0x8(%rbp)
  407a42:	48 89 75 f0          	mov    %rsi,-0x10(%rbp)
  407a46:	48 8b 55 f0          	mov    -0x10(%rbp),%rdx
  407a4a:	48 8b 45 f8          	mov    -0x8(%rbp),%rax
  407a4e:	48 89 d6             	mov    %rdx,%rsi
  407a51:	48 89 c7             	mov    %rax,%rdi
  407a54:	e8 2d fd ff ff       	callq  407786 <_ZN2cl6detail7WrapperIP13_cl_device_idEC1ERKS4_>
  407a59:	90                   	nop
  407a5a:	c9                   	leaveq 
  407a5b:	c3                   	retq   

0000000000407a5c <_ZN2cl6DeviceaSERKS0_>:
  407a5c:	55                   	push   %rbp
  407a5d:	48 89 e5             	mov    %rsp,%rbp
  407a60:	48 83 ec 10          	sub    $0x10,%rsp
  407a64:	48 89 7d f8          	mov    %rdi,-0x8(%rbp)
  407a68:	48 89 75 f0          	mov    %rsi,-0x10(%rbp)
  407a6c:	48 8b 55 f0          	mov    -0x10(%rbp),%rdx
  407a70:	48 8b 45 f8          	mov    -0x8(%rbp),%rax
  407a74:	48 89 d6             	mov    %rdx,%rsi
  407a77:	48 89 c7             	mov    %rax,%rdi
  407a7a:	e8 99 fd ff ff       	callq  407818 <_ZN2cl6detail7WrapperIP13_cl_device_idEaSERKS4_>
  407a7f:	48 8b 45 f8          	mov    -0x8(%rbp),%rax
  407a83:	c9                   	leaveq 
  407a84:	c3                   	retq   

0000000000407a85 <_ZSt4moveIRN2cl6DeviceEEONSt16remove_referenceIT_E4typeEOS4_>:
  407a85:	55                   	push   %rbp
  407a86:	48 89 e5             	mov    %rsp,%rbp
  407a89:	48 89 7d f8          	mov    %rdi,-0x8(%rbp)
  407a8d:	48 8b 45 f8          	mov    -0x8(%rbp),%rax
  407a91:	5d                   	pop    %rbp
  407a92:	c3                   	retq   
  407a93:	90                   	nop

0000000000407a94 <_ZN2cl6DeviceC1EOS0_>:
  407a94:	55                   	push   %rbp
  407a95:	48 89 e5             	mov    %rsp,%rbp
  407a98:	48 83 ec 10          	sub    $0x10,%rsp
  407a9c:	48 89 7d f8          	mov    %rdi,-0x8(%rbp)
  407aa0:	48 89 75 f0          	mov    %rsi,-0x10(%rbp)
  407aa4:	48 8b 45 f0          	mov    -0x10(%rbp),%rax
  407aa8:	48 89 c7             	mov    %rax,%rdi
  407aab:	e8 d5 ff ff ff       	callq  407a85 <_ZSt4moveIRN2cl6DeviceEEONSt16remove_referenceIT_E4typeEOS4_>
  407ab0:	48 89 c2             	mov    %rax,%rdx
  407ab3:	48 8b 45 f8          	mov    -0x8(%rbp),%rax
  407ab7:	48 89 d6             	mov    %rdx,%rsi
  407aba:	48 89 c7             	mov    %rax,%rdi
  407abd:	e8 16 fd ff ff       	callq  4077d8 <_ZN2cl6detail7WrapperIP13_cl_device_idEC1EOS4_>
  407ac2:	90                   	nop
  407ac3:	c9                   	leaveq 
  407ac4:	c3                   	retq   
  407ac5:	90                   	nop

0000000000407ac6 <_ZN2cl6DeviceaSEOS0_>:
  407ac6:	55                   	push   %rbp
  407ac7:	48 89 e5             	mov    %rsp,%rbp
  407aca:	48 83 ec 10          	sub    $0x10,%rsp
  407ace:	48 89 7d f8          	mov    %rdi,-0x8(%rbp)
  407ad2:	48 89 75 f0          	mov    %rsi,-0x10(%rbp)
  407ad6:	48 8b 45 f0          	mov    -0x10(%rbp),%rax
  407ada:	48 89 c7             	mov    %rax,%rdi
  407add:	e8 a3 ff ff ff       	callq  407a85 <_ZSt4moveIRN2cl6DeviceEEONSt16remove_referenceIT_E4typeEOS4_>
  407ae2:	48 89 c2             	mov    %rax,%rdx
  407ae5:	48 8b 45 f8          	mov    -0x8(%rbp),%rax
  407ae9:	48 89 d6             	mov    %rdx,%rsi
  407aec:	48 89 c7             	mov    %rax,%rdi
  407aef:	e8 92 fd ff ff       	callq  407886 <_ZN2cl6detail7WrapperIP13_cl_device_idEaSEOS4_>
  407af4:	48 8b 45 f8          	mov    -0x8(%rbp),%rax
  407af8:	c9                   	leaveq 
  407af9:	c3                   	retq   

0000000000407afa <_ZN2cl8PlatformD1Ev>:
  407afa:	55                   	push   %rbp
  407afb:	48 89 e5             	mov    %rsp,%rbp
  407afe:	48 83 ec 10          	sub    $0x10,%rsp
  407b02:	48 89 7d f8          	mov    %rdi,-0x8(%rbp)
  407b06:	48 8b 45 f8          	mov    -0x8(%rbp),%rax
  407b0a:	48 89 c7             	mov    %rax,%rdi
  407b0d:	e8 da 2b 00 00       	callq  40a6ec <_ZN2cl6detail7WrapperIP15_cl_platform_idED1Ev>
  407b12:	90                   	nop
  407b13:	c9                   	leaveq 
  407b14:	c3                   	retq   
  407b15:	90                   	nop

0000000000407b16 <_ZN2cl8PlatformaSEOS0_>:
  407b16:	55                   	push   %rbp
  407b17:	48 89 e5             	mov    %rsp,%rbp
  407b1a:	48 83 ec 10          	sub    $0x10,%rsp
  407b1e:	48 89 7d f8          	mov    %rdi,-0x8(%rbp)
  407b22:	48 89 75 f0          	mov    %rsi,-0x10(%rbp)
  407b26:	48 8b 55 f0          	mov    -0x10(%rbp),%rdx
  407b2a:	48 8b 45 f8          	mov    -0x8(%rbp),%rax
  407b2e:	48 89 d6             	mov    %rdx,%rsi
  407b31:	48 89 c7             	mov    %rax,%rdi
  407b34:	e8 db 2b 00 00       	callq  40a714 <_ZN2cl6detail7WrapperIP15_cl_platform_idEaSEOS4_>
  407b39:	48 8b 45 f8          	mov    -0x8(%rbp),%rax
  407b3d:	c9                   	leaveq 
  407b3e:	c3                   	retq   

0000000000407b3f <_ZN2cl8Platform11makeDefaultEv>:
  407b3f:	55                   	push   %rbp
  407b40:	48 89 e5             	mov    %rsp,%rbp
  407b43:	41 54                	push   %r12
  407b45:	53                   	push   %rbx
  407b46:	48 83 ec 40          	sub    $0x40,%rsp
  407b4a:	64 48 8b 04 25 28 00 	mov    %fs:0x28,%rax
  407b51:	00 00 
  407b53:	48 89 45 e8          	mov    %rax,-0x18(%rbp)
  407b57:	31 c0                	xor    %eax,%eax
  407b59:	c7 45 b8 00 00 00 00 	movl   $0x0,-0x48(%rbp)
  407b60:	48 8d 45 b8          	lea    -0x48(%rbp),%rax
  407b64:	48 89 c2             	mov    %rax,%rdx
  407b67:	be 00 00 00 00       	mov    $0x0,%esi
  407b6c:	bf 00 00 00 00       	mov    $0x0,%edi
  407b71:	e8 4a e5 ff ff       	callq  4060c0 <clGetPlatformIDs@plt>
  407b76:	89 45 bc             	mov    %eax,-0x44(%rbp)
  407b79:	83 7d bc 00          	cmpl   $0x0,-0x44(%rbp)
  407b7d:	74 0e                	je     407b8d <_ZN2cl8Platform11makeDefaultEv+0x4e>
  407b7f:	8b 45 bc             	mov    -0x44(%rbp),%eax
  407b82:	89 05 e8 7e 21 00    	mov    %eax,0x217ee8(%rip)        # 61fa70 <_ZN2cl8Platform14default_error_E>
  407b88:	e9 54 01 00 00       	jmpq   407ce1 <_ZN2cl8Platform11makeDefaultEv+0x1a2>
  407b8d:	8b 45 b8             	mov    -0x48(%rbp),%eax
  407b90:	85 c0                	test   %eax,%eax
  407b92:	75 0f                	jne    407ba3 <_ZN2cl8Platform11makeDefaultEv+0x64>
  407b94:	c7 05 d2 7e 21 00 e0 	movl   $0xffffffe0,0x217ed2(%rip)        # 61fa70 <_ZN2cl8Platform14default_error_E>
  407b9b:	ff ff ff 
  407b9e:	e9 3e 01 00 00       	jmpq   407ce1 <_ZN2cl8Platform11makeDefaultEv+0x1a2>
  407ba3:	48 8d 45 c0          	lea    -0x40(%rbp),%rax
  407ba7:	48 89 c7             	mov    %rax,%rdi
  407baa:	e8 1b 2a 00 00       	callq  40a5ca <_ZNSaIP15_cl_platform_idEC1Ev>
  407baf:	8b 45 b8             	mov    -0x48(%rbp),%eax
  407bb2:	89 c1                	mov    %eax,%ecx
  407bb4:	48 8d 55 c0          	lea    -0x40(%rbp),%rdx
  407bb8:	48 8d 45 d0          	lea    -0x30(%rbp),%rax
  407bbc:	48 89 ce             	mov    %rcx,%rsi
  407bbf:	48 89 c7             	mov    %rax,%rdi
  407bc2:	e8 3b 2a 00 00       	callq  40a602 <_ZNSt6vectorIP15_cl_platform_idSaIS1_EEC1EmRKS2_>
  407bc7:	48 8d 45 c0          	lea    -0x40(%rbp),%rax
  407bcb:	48 89 c7             	mov    %rax,%rdi
  407bce:	e8 13 2a 00 00       	callq  40a5e6 <_ZNSaIP15_cl_platform_idED1Ev>
  407bd3:	48 8d 45 d0          	lea    -0x30(%rbp),%rax
  407bd7:	48 89 c7             	mov    %rax,%rdi
  407bda:	e8 c9 2a 00 00       	callq  40a6a8 <_ZNSt6vectorIP15_cl_platform_idSaIS1_EE4dataEv>
  407bdf:	48 89 c1             	mov    %rax,%rcx
  407be2:	8b 45 b8             	mov    -0x48(%rbp),%eax
  407be5:	ba 00 00 00 00       	mov    $0x0,%edx
  407bea:	48 89 ce             	mov    %rcx,%rsi
  407bed:	89 c7                	mov    %eax,%edi
  407bef:	e8 cc e4 ff ff       	callq  4060c0 <clGetPlatformIDs@plt>
  407bf4:	89 45 bc             	mov    %eax,-0x44(%rbp)
  407bf7:	83 7d bc 00          	cmpl   $0x0,-0x44(%rbp)
  407bfb:	74 10                	je     407c0d <_ZN2cl8Platform11makeDefaultEv+0xce>
  407bfd:	8b 45 bc             	mov    -0x44(%rbp),%eax
  407c00:	89 05 6a 7e 21 00    	mov    %eax,0x217e6a(%rip)        # 61fa70 <_ZN2cl8Platform14default_error_E>
  407c06:	bb 00 00 00 00       	mov    $0x0,%ebx
  407c0b:	eb 4a                	jmp    407c57 <_ZN2cl8Platform11makeDefaultEv+0x118>
  407c0d:	48 8d 45 d0          	lea    -0x30(%rbp),%rax
  407c11:	be 00 00 00 00       	mov    $0x0,%esi
  407c16:	48 89 c7             	mov    %rax,%rdi
  407c19:	e8 ae 2a 00 00       	callq  40a6cc <_ZNSt6vectorIP15_cl_platform_idSaIS1_EEixEm>
  407c1e:	48 89 c1             	mov    %rax,%rcx
  407c21:	48 8d 45 c0          	lea    -0x40(%rbp),%rax
  407c25:	ba 00 00 00 00       	mov    $0x0,%edx
  407c2a:	48 89 ce             	mov    %rcx,%rsi
  407c2d:	48 89 c7             	mov    %rax,%rdi
  407c30:	e8 e5 00 00 00       	callq  407d1a <_ZN2cl8PlatformC1ERKP15_cl_platform_idb>
  407c35:	48 8d 45 c0          	lea    -0x40(%rbp),%rax
  407c39:	48 89 c6             	mov    %rax,%rsi
  407c3c:	bf 68 fa 61 00       	mov    $0x61fa68,%edi
  407c41:	e8 d0 fe ff ff       	callq  407b16 <_ZN2cl8PlatformaSEOS0_>
  407c46:	48 8d 45 c0          	lea    -0x40(%rbp),%rax
  407c4a:	48 89 c7             	mov    %rax,%rdi
  407c4d:	e8 a8 fe ff ff       	callq  407afa <_ZN2cl8PlatformD1Ev>
  407c52:	bb 01 00 00 00       	mov    $0x1,%ebx
  407c57:	48 8d 45 d0          	lea    -0x30(%rbp),%rax
  407c5b:	48 89 c7             	mov    %rax,%rdi
  407c5e:	e8 01 2a 00 00       	callq  40a664 <_ZNSt6vectorIP15_cl_platform_idSaIS1_EED1Ev>
  407c63:	83 fb 01             	cmp    $0x1,%ebx
  407c66:	eb 79                	jmp    407ce1 <_ZN2cl8Platform11makeDefaultEv+0x1a2>
  407c68:	49 89 c4             	mov    %rax,%r12
  407c6b:	48 89 d3             	mov    %rdx,%rbx
  407c6e:	48 8d 45 c0          	lea    -0x40(%rbp),%rax
  407c72:	48 89 c7             	mov    %rax,%rdi
  407c75:	e8 6c 29 00 00       	callq  40a5e6 <_ZNSaIP15_cl_platform_idED1Ev>
  407c7a:	4c 89 e0             	mov    %r12,%rax
  407c7d:	48 89 da             	mov    %rbx,%rdx
  407c80:	eb 2e                	jmp    407cb0 <_ZN2cl8Platform11makeDefaultEv+0x171>
  407c82:	49 89 c4             	mov    %rax,%r12
  407c85:	48 89 d3             	mov    %rdx,%rbx
  407c88:	48 8d 45 c0          	lea    -0x40(%rbp),%rax
  407c8c:	48 89 c7             	mov    %rax,%rdi
  407c8f:	e8 66 fe ff ff       	callq  407afa <_ZN2cl8PlatformD1Ev>
  407c94:	eb 06                	jmp    407c9c <_ZN2cl8Platform11makeDefaultEv+0x15d>
  407c96:	49 89 c4             	mov    %rax,%r12
  407c99:	48 89 d3             	mov    %rdx,%rbx
  407c9c:	48 8d 45 d0          	lea    -0x30(%rbp),%rax
  407ca0:	48 89 c7             	mov    %rax,%rdi
  407ca3:	e8 bc 29 00 00       	callq  40a664 <_ZNSt6vectorIP15_cl_platform_idSaIS1_EED1Ev>
  407ca8:	4c 89 e0             	mov    %r12,%rax
  407cab:	48 89 da             	mov    %rbx,%rdx
  407cae:	eb 00                	jmp    407cb0 <_ZN2cl8Platform11makeDefaultEv+0x171>
  407cb0:	48 83 fa 01          	cmp    $0x1,%rdx
  407cb4:	74 08                	je     407cbe <_ZN2cl8Platform11makeDefaultEv+0x17f>
  407cb6:	48 89 c7             	mov    %rax,%rdi
  407cb9:	e8 82 e5 ff ff       	callq  406240 <_Unwind_Resume@plt>
  407cbe:	48 89 c7             	mov    %rax,%rdi
  407cc1:	e8 6a e1 ff ff       	callq  405e30 <__cxa_begin_catch@plt>
  407cc6:	48 89 45 c8          	mov    %rax,-0x38(%rbp)
  407cca:	48 8b 45 c8          	mov    -0x38(%rbp),%rax
  407cce:	48 89 c7             	mov    %rax,%rdi
  407cd1:	e8 c4 f8 ff ff       	callq  40759a <_ZNK2cl5Error3errEv>
  407cd6:	89 05 94 7d 21 00    	mov    %eax,0x217d94(%rip)        # 61fa70 <_ZN2cl8Platform14default_error_E>
  407cdc:	e8 df e4 ff ff       	callq  4061c0 <__cxa_end_catch@plt>
  407ce1:	48 8b 45 e8          	mov    -0x18(%rbp),%rax
  407ce5:	64 48 33 04 25 28 00 	xor    %fs:0x28,%rax
  407cec:	00 00 
  407cee:	74 05                	je     407cf5 <_ZN2cl8Platform11makeDefaultEv+0x1b6>
  407cf0:	e8 db e2 ff ff       	callq  405fd0 <__stack_chk_fail@plt>
  407cf5:	48 83 c4 40          	add    $0x40,%rsp
  407cf9:	5b                   	pop    %rbx
  407cfa:	41 5c                	pop    %r12
  407cfc:	5d                   	pop    %rbp
  407cfd:	c3                   	retq   

0000000000407cfe <_ZN2cl8PlatformC1Ev>:
  407cfe:	55                   	push   %rbp
  407cff:	48 89 e5             	mov    %rsp,%rbp
  407d02:	48 83 ec 10          	sub    $0x10,%rsp
  407d06:	48 89 7d f8          	mov    %rdi,-0x8(%rbp)
  407d0a:	48 8b 45 f8          	mov    -0x8(%rbp),%rax
  407d0e:	48 89 c7             	mov    %rax,%rdi
  407d11:	e8 50 2a 00 00       	callq  40a766 <_ZN2cl6detail7WrapperIP15_cl_platform_idEC1Ev>
  407d16:	90                   	nop
  407d17:	c9                   	leaveq 
  407d18:	c3                   	retq   
  407d19:	90                   	nop

0000000000407d1a <_ZN2cl8PlatformC1ERKP15_cl_platform_idb>:
  407d1a:	55                   	push   %rbp
  407d1b:	48 89 e5             	mov    %rsp,%rbp
  407d1e:	48 83 ec 20          	sub    $0x20,%rsp
  407d22:	48 89 7d f8          	mov    %rdi,-0x8(%rbp)
  407d26:	48 89 75 f0          	mov    %rsi,-0x10(%rbp)
  407d2a:	89 d0                	mov    %edx,%eax
  407d2c:	88 45 ec             	mov    %al,-0x14(%rbp)
  407d2f:	0f b6 55 ec          	movzbl -0x14(%rbp),%edx
  407d33:	48 8b 45 f8          	mov    -0x8(%rbp),%rax
  407d37:	48 8b 4d f0          	mov    -0x10(%rbp),%rcx
  407d3b:	48 89 ce             	mov    %rcx,%rsi
  407d3e:	48 89 c7             	mov    %rax,%rdi
  407d41:	e8 36 2a 00 00       	callq  40a77c <_ZN2cl6detail7WrapperIP15_cl_platform_idEC1ERKS3_b>
  407d46:	90                   	nop
  407d47:	c9                   	leaveq 
  407d48:	c3                   	retq   
  407d49:	90                   	nop

0000000000407d4a <_ZN2cl8PlatformC1ERKS0_>:
  407d4a:	55                   	push   %rbp
  407d4b:	48 89 e5             	mov    %rsp,%rbp
  407d4e:	48 83 ec 10          	sub    $0x10,%rsp
  407d52:	48 89 7d f8          	mov    %rdi,-0x8(%rbp)
  407d56:	48 89 75 f0          	mov    %rsi,-0x10(%rbp)
  407d5a:	48 8b 55 f0          	mov    -0x10(%rbp),%rdx
  407d5e:	48 8b 45 f8          	mov    -0x8(%rbp),%rax
  407d62:	48 89 d6             	mov    %rdx,%rsi
  407d65:	48 89 c7             	mov    %rax,%rdi
  407d68:	e8 53 2a 00 00       	callq  40a7c0 <_ZN2cl6detail7WrapperIP15_cl_platform_idEC1ERKS4_>
  407d6d:	90                   	nop
  407d6e:	c9                   	leaveq 
  407d6f:	c3                   	retq   

0000000000407d70 <_ZN2cl8Platform10getDefaultEPi>:
  407d70:	55                   	push   %rbp
  407d71:	48 89 e5             	mov    %rsp,%rbp
  407d74:	48 83 ec 10          	sub    $0x10,%rsp
  407d78:	48 89 7d f8          	mov    %rdi,-0x8(%rbp)
  407d7c:	48 89 75 f0          	mov    %rsi,-0x10(%rbp)
  407d80:	be 3f 7b 40 00       	mov    $0x407b3f,%esi
  407d85:	bf 64 fa 61 00       	mov    $0x61fa64,%edi
  407d8a:	e8 a4 27 00 00       	callq  40a533 <_ZSt9call_onceIRFvvEJEEvRSt9once_flagOT_DpOT0_>
  407d8f:	8b 05 db 7c 21 00    	mov    0x217cdb(%rip),%eax        # 61fa70 <_ZN2cl8Platform14default_error_E>
  407d95:	be 00 00 00 00       	mov    $0x0,%esi
  407d9a:	89 c7                	mov    %eax,%edi
  407d9c:	e8 33 e7 ff ff       	callq  4064d4 <_ZN2cl6detailL10errHandlerEiPKc>
  407da1:	48 83 7d f0 00       	cmpq   $0x0,-0x10(%rbp)
  407da6:	74 0c                	je     407db4 <_ZN2cl8Platform10getDefaultEPi+0x44>
  407da8:	8b 15 c2 7c 21 00    	mov    0x217cc2(%rip),%edx        # 61fa70 <_ZN2cl8Platform14default_error_E>
  407dae:	48 8b 45 f0          	mov    -0x10(%rbp),%rax
  407db2:	89 10                	mov    %edx,(%rax)
  407db4:	48 8b 45 f8          	mov    -0x8(%rbp),%rax
  407db8:	be 68 fa 61 00       	mov    $0x61fa68,%esi
  407dbd:	48 89 c7             	mov    %rax,%rdi
  407dc0:	e8 85 ff ff ff       	callq  407d4a <_ZN2cl8PlatformC1ERKS0_>
  407dc5:	48 8b 45 f8          	mov    -0x8(%rbp),%rax
  407dc9:	c9                   	leaveq 
  407dca:	c3                   	retq   
  407dcb:	90                   	nop

0000000000407dcc <_ZNK2cl8Platform10getDevicesEmPSt6vectorINS_6DeviceESaIS2_EE>:
  407dcc:	55                   	push   %rbp
  407dcd:	48 89 e5             	mov    %rsp,%rbp
  407dd0:	53                   	push   %rbx
  407dd1:	48 83 ec 68          	sub    $0x68,%rsp
  407dd5:	48 89 7d a8          	mov    %rdi,-0x58(%rbp)
  407dd9:	48 89 75 a0          	mov    %rsi,-0x60(%rbp)
  407ddd:	48 89 55 98          	mov    %rdx,-0x68(%rbp)
  407de1:	64 48 8b 04 25 28 00 	mov    %fs:0x28,%rax
  407de8:	00 00 
  407dea:	48 89 45 e8          	mov    %rax,-0x18(%rbp)
  407dee:	31 c0                	xor    %eax,%eax
  407df0:	c7 45 b0 00 00 00 00 	movl   $0x0,-0x50(%rbp)
  407df7:	48 83 7d 98 00       	cmpq   $0x0,-0x68(%rbp)
  407dfc:	75 16                	jne    407e14 <_ZNK2cl8Platform10getDevicesEmPSt6vectorINS_6DeviceESaIS2_EE+0x48>
  407dfe:	be b8 4a 41 00       	mov    $0x414ab8,%esi
  407e03:	bf ce ff ff ff       	mov    $0xffffffce,%edi
  407e08:	e8 c7 e6 ff ff       	callq  4064d4 <_ZN2cl6detailL10errHandlerEiPKc>
  407e0d:	89 c3                	mov    %eax,%ebx
  407e0f:	e9 78 01 00 00       	jmpq   407f8c <_ZNK2cl8Platform10getDevicesEmPSt6vectorINS_6DeviceESaIS2_EE+0x1c0>
  407e14:	48 8b 45 a8          	mov    -0x58(%rbp),%rax
  407e18:	48 8b 00             	mov    (%rax),%rax
  407e1b:	48 8d 55 b0          	lea    -0x50(%rbp),%rdx
  407e1f:	48 8b 75 a0          	mov    -0x60(%rbp),%rsi
  407e23:	49 89 d0             	mov    %rdx,%r8
  407e26:	b9 00 00 00 00       	mov    $0x0,%ecx
  407e2b:	ba 00 00 00 00       	mov    $0x0,%edx
  407e30:	48 89 c7             	mov    %rax,%rdi
  407e33:	e8 18 e2 ff ff       	callq  406050 <clGetDeviceIDs@plt>
  407e38:	89 45 b4             	mov    %eax,-0x4c(%rbp)
  407e3b:	83 7d b4 00          	cmpl   $0x0,-0x4c(%rbp)
  407e3f:	74 16                	je     407e57 <_ZNK2cl8Platform10getDevicesEmPSt6vectorINS_6DeviceESaIS2_EE+0x8b>
  407e41:	8b 45 b4             	mov    -0x4c(%rbp),%eax
  407e44:	be b8 4a 41 00       	mov    $0x414ab8,%esi
  407e49:	89 c7                	mov    %eax,%edi
  407e4b:	e8 84 e6 ff ff       	callq  4064d4 <_ZN2cl6detailL10errHandlerEiPKc>
  407e50:	89 c3                	mov    %eax,%ebx
  407e52:	e9 35 01 00 00       	jmpq   407f8c <_ZNK2cl8Platform10getDevicesEmPSt6vectorINS_6DeviceESaIS2_EE+0x1c0>
  407e57:	48 8d 45 c0          	lea    -0x40(%rbp),%rax
  407e5b:	48 89 c7             	mov    %rax,%rdi
  407e5e:	e8 97 29 00 00       	callq  40a7fa <_ZNSaIP13_cl_device_idEC1Ev>
  407e63:	8b 45 b0             	mov    -0x50(%rbp),%eax
  407e66:	89 c1                	mov    %eax,%ecx
  407e68:	48 8d 55 c0          	lea    -0x40(%rbp),%rdx
  407e6c:	48 8d 45 d0          	lea    -0x30(%rbp),%rax
  407e70:	48 89 ce             	mov    %rcx,%rsi
  407e73:	48 89 c7             	mov    %rax,%rdi
  407e76:	e8 b7 29 00 00       	callq  40a832 <_ZNSt6vectorIP13_cl_device_idSaIS1_EEC1EmRKS2_>
  407e7b:	48 8d 45 c0          	lea    -0x40(%rbp),%rax
  407e7f:	48 89 c7             	mov    %rax,%rdi
  407e82:	e8 8f 29 00 00       	callq  40a816 <_ZNSaIP13_cl_device_idED1Ev>
  407e87:	48 8d 45 d0          	lea    -0x30(%rbp),%rax
  407e8b:	48 89 c7             	mov    %rax,%rdi
  407e8e:	e8 45 2a 00 00       	callq  40a8d8 <_ZNSt6vectorIP13_cl_device_idSaIS1_EE4dataEv>
  407e93:	48 89 c1             	mov    %rax,%rcx
  407e96:	8b 55 b0             	mov    -0x50(%rbp),%edx
  407e99:	48 8b 45 a8          	mov    -0x58(%rbp),%rax
  407e9d:	48 8b 00             	mov    (%rax),%rax
  407ea0:	48 8b 75 a0          	mov    -0x60(%rbp),%rsi
  407ea4:	41 b8 00 00 00 00    	mov    $0x0,%r8d
  407eaa:	48 89 c7             	mov    %rax,%rdi
  407ead:	e8 9e e1 ff ff       	callq  406050 <clGetDeviceIDs@plt>
  407eb2:	89 45 b4             	mov    %eax,-0x4c(%rbp)
  407eb5:	83 7d b4 00          	cmpl   $0x0,-0x4c(%rbp)
  407eb9:	74 16                	je     407ed1 <_ZNK2cl8Platform10getDevicesEmPSt6vectorINS_6DeviceESaIS2_EE+0x105>
  407ebb:	8b 45 b4             	mov    -0x4c(%rbp),%eax
  407ebe:	be b8 4a 41 00       	mov    $0x414ab8,%esi
  407ec3:	89 c7                	mov    %eax,%edi
  407ec5:	e8 0a e6 ff ff       	callq  4064d4 <_ZN2cl6detailL10errHandlerEiPKc>
  407eca:	89 c3                	mov    %eax,%ebx
  407ecc:	e9 af 00 00 00       	jmpq   407f80 <_ZNK2cl8Platform10getDevicesEmPSt6vectorINS_6DeviceESaIS2_EE+0x1b4>
  407ed1:	48 83 7d 98 00       	cmpq   $0x0,-0x68(%rbp)
  407ed6:	0f 84 9f 00 00 00    	je     407f7b <_ZNK2cl8Platform10getDevicesEmPSt6vectorINS_6DeviceESaIS2_EE+0x1af>
  407edc:	48 8d 45 d0          	lea    -0x30(%rbp),%rax
  407ee0:	48 89 c7             	mov    %rax,%rdi
  407ee3:	e8 14 2a 00 00       	callq  40a8fc <_ZNKSt6vectorIP13_cl_device_idSaIS1_EE4sizeEv>
  407ee8:	48 89 c2             	mov    %rax,%rdx
  407eeb:	48 8b 45 98          	mov    -0x68(%rbp),%rax
  407eef:	48 89 d6             	mov    %rdx,%rsi
  407ef2:	48 89 c7             	mov    %rax,%rdi
  407ef5:	e8 28 2a 00 00       	callq  40a922 <_ZNSt6vectorIN2cl6DeviceESaIS1_EE6resizeEm>
  407efa:	48 c7 45 b8 00 00 00 	movq   $0x0,-0x48(%rbp)
  407f01:	00 
  407f02:	48 8d 45 d0          	lea    -0x30(%rbp),%rax
  407f06:	48 89 c7             	mov    %rax,%rdi
  407f09:	e8 ee 29 00 00       	callq  40a8fc <_ZNKSt6vectorIP13_cl_device_idSaIS1_EE4sizeEv>
  407f0e:	48 3b 45 b8          	cmp    -0x48(%rbp),%rax
  407f12:	0f 97 c0             	seta   %al
  407f15:	84 c0                	test   %al,%al
  407f17:	74 62                	je     407f7b <_ZNK2cl8Platform10getDevicesEmPSt6vectorINS_6DeviceESaIS2_EE+0x1af>
  407f19:	48 8b 55 b8          	mov    -0x48(%rbp),%rdx
  407f1d:	48 8d 45 d0          	lea    -0x30(%rbp),%rax
  407f21:	48 89 d6             	mov    %rdx,%rsi
  407f24:	48 89 c7             	mov    %rax,%rdi
  407f27:	e8 a2 2a 00 00       	callq  40a9ce <_ZNSt6vectorIP13_cl_device_idSaIS1_EEixEm>
  407f2c:	48 89 c1             	mov    %rax,%rcx
  407f2f:	48 8d 45 c0          	lea    -0x40(%rbp),%rax
  407f33:	ba 01 00 00 00       	mov    $0x1,%edx
  407f38:	48 89 ce             	mov    %rcx,%rsi
  407f3b:	48 89 c7             	mov    %rax,%rdi
  407f3e:	e8 4d fa ff ff       	callq  407990 <_ZN2cl6DeviceC1ERKP13_cl_device_idb>
  407f43:	48 8b 55 b8          	mov    -0x48(%rbp),%rdx
  407f47:	48 8b 45 98          	mov    -0x68(%rbp),%rax
  407f4b:	48 89 d6             	mov    %rdx,%rsi
  407f4e:	48 89 c7             	mov    %rax,%rdi
  407f51:	e8 58 2a 00 00       	callq  40a9ae <_ZNSt6vectorIN2cl6DeviceESaIS1_EEixEm>
  407f56:	48 89 c2             	mov    %rax,%rdx
  407f59:	48 8d 45 c0          	lea    -0x40(%rbp),%rax
  407f5d:	48 89 c6             	mov    %rax,%rsi
  407f60:	48 89 d7             	mov    %rdx,%rdi
  407f63:	e8 5e fb ff ff       	callq  407ac6 <_ZN2cl6DeviceaSEOS0_>
  407f68:	48 8d 45 c0          	lea    -0x40(%rbp),%rax
  407f6c:	48 89 c7             	mov    %rax,%rdi
  407f6f:	e8 4c fa ff ff       	callq  4079c0 <_ZN2cl6DeviceD1Ev>
  407f74:	48 83 45 b8 01       	addq   $0x1,-0x48(%rbp)
  407f79:	eb 87                	jmp    407f02 <_ZNK2cl8Platform10getDevicesEmPSt6vectorINS_6DeviceESaIS2_EE+0x136>
  407f7b:	bb 00 00 00 00       	mov    $0x0,%ebx
  407f80:	48 8d 45 d0          	lea    -0x30(%rbp),%rax
  407f84:	48 89 c7             	mov    %rax,%rdi
  407f87:	e8 08 29 00 00       	callq  40a894 <_ZNSt6vectorIP13_cl_device_idSaIS1_EED1Ev>
  407f8c:	89 d8                	mov    %ebx,%eax
  407f8e:	48 8b 4d e8          	mov    -0x18(%rbp),%rcx
  407f92:	64 48 33 0c 25 28 00 	xor    %fs:0x28,%rcx
  407f99:	00 00 
  407f9b:	74 4c                	je     407fe9 <_ZNK2cl8Platform10getDevicesEmPSt6vectorINS_6DeviceESaIS2_EE+0x21d>
  407f9d:	eb 45                	jmp    407fe4 <_ZNK2cl8Platform10getDevicesEmPSt6vectorINS_6DeviceESaIS2_EE+0x218>
  407f9f:	48 89 c3             	mov    %rax,%rbx
  407fa2:	48 8d 45 c0          	lea    -0x40(%rbp),%rax
  407fa6:	48 89 c7             	mov    %rax,%rdi
  407fa9:	e8 68 28 00 00       	callq  40a816 <_ZNSaIP13_cl_device_idED1Ev>
  407fae:	48 89 d8             	mov    %rbx,%rax
  407fb1:	48 89 c7             	mov    %rax,%rdi
  407fb4:	e8 87 e2 ff ff       	callq  406240 <_Unwind_Resume@plt>
  407fb9:	48 89 c3             	mov    %rax,%rbx
  407fbc:	48 8d 45 c0          	lea    -0x40(%rbp),%rax
  407fc0:	48 89 c7             	mov    %rax,%rdi
  407fc3:	e8 f8 f9 ff ff       	callq  4079c0 <_ZN2cl6DeviceD1Ev>
  407fc8:	eb 03                	jmp    407fcd <_ZNK2cl8Platform10getDevicesEmPSt6vectorINS_6DeviceESaIS2_EE+0x201>
  407fca:	48 89 c3             	mov    %rax,%rbx
  407fcd:	48 8d 45 d0          	lea    -0x30(%rbp),%rax
  407fd1:	48 89 c7             	mov    %rax,%rdi
  407fd4:	e8 bb 28 00 00       	callq  40a894 <_ZNSt6vectorIP13_cl_device_idSaIS1_EED1Ev>
  407fd9:	48 89 d8             	mov    %rbx,%rax
  407fdc:	48 89 c7             	mov    %rax,%rdi
  407fdf:	e8 5c e2 ff ff       	callq  406240 <_Unwind_Resume@plt>
  407fe4:	e8 e7 df ff ff       	callq  405fd0 <__stack_chk_fail@plt>
  407fe9:	48 83 c4 68          	add    $0x68,%rsp
  407fed:	5b                   	pop    %rbx
  407fee:	5d                   	pop    %rbp
  407fef:	c3                   	retq   

0000000000407ff0 <_ZN2cl8Platform3getEPSt6vectorIS0_SaIS0_EE>:
  407ff0:	55                   	push   %rbp
  407ff1:	48 89 e5             	mov    %rsp,%rbp
  407ff4:	53                   	push   %rbx
  407ff5:	48 83 ec 58          	sub    $0x58,%rsp
  407ff9:	48 89 7d a8          	mov    %rdi,-0x58(%rbp)
  407ffd:	64 48 8b 04 25 28 00 	mov    %fs:0x28,%rax
  408004:	00 00 
  408006:	48 89 45 e8          	mov    %rax,-0x18(%rbp)
  40800a:	31 c0                	xor    %eax,%eax
  40800c:	c7 45 b8 00 00 00 00 	movl   $0x0,-0x48(%rbp)
  408013:	48 83 7d a8 00       	cmpq   $0x0,-0x58(%rbp)
  408018:	75 16                	jne    408030 <_ZN2cl8Platform3getEPSt6vectorIS0_SaIS0_EE+0x40>
  40801a:	be c7 4a 41 00       	mov    $0x414ac7,%esi
  40801f:	bf ce ff ff ff       	mov    $0xffffffce,%edi
  408024:	e8 ab e4 ff ff       	callq  4064d4 <_ZN2cl6detailL10errHandlerEiPKc>
  408029:	89 c3                	mov    %eax,%ebx
  40802b:	e9 60 01 00 00       	jmpq   408190 <_ZN2cl8Platform3getEPSt6vectorIS0_SaIS0_EE+0x1a0>
  408030:	48 8d 45 b8          	lea    -0x48(%rbp),%rax
  408034:	48 89 c2             	mov    %rax,%rdx
  408037:	be 00 00 00 00       	mov    $0x0,%esi
  40803c:	bf 00 00 00 00       	mov    $0x0,%edi
  408041:	e8 7a e0 ff ff       	callq  4060c0 <clGetPlatformIDs@plt>
  408046:	89 45 bc             	mov    %eax,-0x44(%rbp)
  408049:	83 7d bc 00          	cmpl   $0x0,-0x44(%rbp)
  40804d:	74 16                	je     408065 <_ZN2cl8Platform3getEPSt6vectorIS0_SaIS0_EE+0x75>
  40804f:	8b 45 bc             	mov    -0x44(%rbp),%eax
  408052:	be c7 4a 41 00       	mov    $0x414ac7,%esi
  408057:	89 c7                	mov    %eax,%edi
  408059:	e8 76 e4 ff ff       	callq  4064d4 <_ZN2cl6detailL10errHandlerEiPKc>
  40805e:	89 c3                	mov    %eax,%ebx
  408060:	e9 2b 01 00 00       	jmpq   408190 <_ZN2cl8Platform3getEPSt6vectorIS0_SaIS0_EE+0x1a0>
  408065:	48 8d 45 c0          	lea    -0x40(%rbp),%rax
  408069:	48 89 c7             	mov    %rax,%rdi
  40806c:	e8 59 25 00 00       	callq  40a5ca <_ZNSaIP15_cl_platform_idEC1Ev>
  408071:	8b 45 b8             	mov    -0x48(%rbp),%eax
  408074:	89 c1                	mov    %eax,%ecx
  408076:	48 8d 55 c0          	lea    -0x40(%rbp),%rdx
  40807a:	48 8d 45 d0          	lea    -0x30(%rbp),%rax
  40807e:	48 89 ce             	mov    %rcx,%rsi
  408081:	48 89 c7             	mov    %rax,%rdi
  408084:	e8 79 25 00 00       	callq  40a602 <_ZNSt6vectorIP15_cl_platform_idSaIS1_EEC1EmRKS2_>
  408089:	48 8d 45 c0          	lea    -0x40(%rbp),%rax
  40808d:	48 89 c7             	mov    %rax,%rdi
  408090:	e8 51 25 00 00       	callq  40a5e6 <_ZNSaIP15_cl_platform_idED1Ev>
  408095:	48 8d 45 d0          	lea    -0x30(%rbp),%rax
  408099:	48 89 c7             	mov    %rax,%rdi
  40809c:	e8 07 26 00 00       	callq  40a6a8 <_ZNSt6vectorIP15_cl_platform_idSaIS1_EE4dataEv>
  4080a1:	48 89 c1             	mov    %rax,%rcx
  4080a4:	8b 45 b8             	mov    -0x48(%rbp),%eax
  4080a7:	ba 00 00 00 00       	mov    $0x0,%edx
  4080ac:	48 89 ce             	mov    %rcx,%rsi
  4080af:	89 c7                	mov    %eax,%edi
  4080b1:	e8 0a e0 ff ff       	callq  4060c0 <clGetPlatformIDs@plt>
  4080b6:	89 45 bc             	mov    %eax,-0x44(%rbp)
  4080b9:	83 7d bc 00          	cmpl   $0x0,-0x44(%rbp)
  4080bd:	74 16                	je     4080d5 <_ZN2cl8Platform3getEPSt6vectorIS0_SaIS0_EE+0xe5>
  4080bf:	8b 45 bc             	mov    -0x44(%rbp),%eax
  4080c2:	be c7 4a 41 00       	mov    $0x414ac7,%esi
  4080c7:	89 c7                	mov    %eax,%edi
  4080c9:	e8 06 e4 ff ff       	callq  4064d4 <_ZN2cl6detailL10errHandlerEiPKc>
  4080ce:	89 c3                	mov    %eax,%ebx
  4080d0:	e9 af 00 00 00       	jmpq   408184 <_ZN2cl8Platform3getEPSt6vectorIS0_SaIS0_EE+0x194>
  4080d5:	48 83 7d a8 00       	cmpq   $0x0,-0x58(%rbp)
  4080da:	0f 84 9f 00 00 00    	je     40817f <_ZN2cl8Platform3getEPSt6vectorIS0_SaIS0_EE+0x18f>
  4080e0:	48 8d 45 d0          	lea    -0x30(%rbp),%rax
  4080e4:	48 89 c7             	mov    %rax,%rdi
  4080e7:	e8 02 29 00 00       	callq  40a9ee <_ZNKSt6vectorIP15_cl_platform_idSaIS1_EE4sizeEv>
  4080ec:	48 89 c2             	mov    %rax,%rdx
  4080ef:	48 8b 45 a8          	mov    -0x58(%rbp),%rax
  4080f3:	48 89 d6             	mov    %rdx,%rsi
  4080f6:	48 89 c7             	mov    %rax,%rdi
  4080f9:	e8 16 29 00 00       	callq  40aa14 <_ZNSt6vectorIN2cl8PlatformESaIS1_EE6resizeEm>
  4080fe:	48 c7 45 c8 00 00 00 	movq   $0x0,-0x38(%rbp)
  408105:	00 
  408106:	48 8d 45 d0          	lea    -0x30(%rbp),%rax
  40810a:	48 89 c7             	mov    %rax,%rdi
  40810d:	e8 dc 28 00 00       	callq  40a9ee <_ZNKSt6vectorIP15_cl_platform_idSaIS1_EE4sizeEv>
  408112:	48 3b 45 c8          	cmp    -0x38(%rbp),%rax
  408116:	0f 97 c0             	seta   %al
  408119:	84 c0                	test   %al,%al
  40811b:	74 62                	je     40817f <_ZN2cl8Platform3getEPSt6vectorIS0_SaIS0_EE+0x18f>
  40811d:	48 8b 55 c8          	mov    -0x38(%rbp),%rdx
  408121:	48 8d 45 d0          	lea    -0x30(%rbp),%rax
  408125:	48 89 d6             	mov    %rdx,%rsi
  408128:	48 89 c7             	mov    %rax,%rdi
  40812b:	e8 9c 25 00 00       	callq  40a6cc <_ZNSt6vectorIP15_cl_platform_idSaIS1_EEixEm>
  408130:	48 89 c1             	mov    %rax,%rcx
  408133:	48 8d 45 c0          	lea    -0x40(%rbp),%rax
  408137:	ba 00 00 00 00       	mov    $0x0,%edx
  40813c:	48 89 ce             	mov    %rcx,%rsi
  40813f:	48 89 c7             	mov    %rax,%rdi
  408142:	e8 d3 fb ff ff       	callq  407d1a <_ZN2cl8PlatformC1ERKP15_cl_platform_idb>
  408147:	48 8b 55 c8          	mov    -0x38(%rbp),%rdx
  40814b:	48 8b 45 a8          	mov    -0x58(%rbp),%rax
  40814f:	48 89 d6             	mov    %rdx,%rsi
  408152:	48 89 c7             	mov    %rax,%rdi
  408155:	e8 46 29 00 00       	callq  40aaa0 <_ZNSt6vectorIN2cl8PlatformESaIS1_EEixEm>
  40815a:	48 89 c2             	mov    %rax,%rdx
  40815d:	48 8d 45 c0          	lea    -0x40(%rbp),%rax
  408161:	48 89 c6             	mov    %rax,%rsi
  408164:	48 89 d7             	mov    %rdx,%rdi
  408167:	e8 aa f9 ff ff       	callq  407b16 <_ZN2cl8PlatformaSEOS0_>
  40816c:	48 8d 45 c0          	lea    -0x40(%rbp),%rax
  408170:	48 89 c7             	mov    %rax,%rdi
  408173:	e8 82 f9 ff ff       	callq  407afa <_ZN2cl8PlatformD1Ev>
  408178:	48 83 45 c8 01       	addq   $0x1,-0x38(%rbp)
  40817d:	eb 87                	jmp    408106 <_ZN2cl8Platform3getEPSt6vectorIS0_SaIS0_EE+0x116>
  40817f:	bb 00 00 00 00       	mov    $0x0,%ebx
  408184:	48 8d 45 d0          	lea    -0x30(%rbp),%rax
  408188:	48 89 c7             	mov    %rax,%rdi
  40818b:	e8 d4 24 00 00       	callq  40a664 <_ZNSt6vectorIP15_cl_platform_idSaIS1_EED1Ev>
  408190:	89 d8                	mov    %ebx,%eax
  408192:	48 8b 4d e8          	mov    -0x18(%rbp),%rcx
  408196:	64 48 33 0c 25 28 00 	xor    %fs:0x28,%rcx
  40819d:	00 00 
  40819f:	74 4c                	je     4081ed <_ZN2cl8Platform3getEPSt6vectorIS0_SaIS0_EE+0x1fd>
  4081a1:	eb 45                	jmp    4081e8 <_ZN2cl8Platform3getEPSt6vectorIS0_SaIS0_EE+0x1f8>
  4081a3:	48 89 c3             	mov    %rax,%rbx
  4081a6:	48 8d 45 c0          	lea    -0x40(%rbp),%rax
  4081aa:	48 89 c7             	mov    %rax,%rdi
  4081ad:	e8 34 24 00 00       	callq  40a5e6 <_ZNSaIP15_cl_platform_idED1Ev>
  4081b2:	48 89 d8             	mov    %rbx,%rax
  4081b5:	48 89 c7             	mov    %rax,%rdi
  4081b8:	e8 83 e0 ff ff       	callq  406240 <_Unwind_Resume@plt>
  4081bd:	48 89 c3             	mov    %rax,%rbx
  4081c0:	48 8d 45 c0          	lea    -0x40(%rbp),%rax
  4081c4:	48 89 c7             	mov    %rax,%rdi
  4081c7:	e8 2e f9 ff ff       	callq  407afa <_ZN2cl8PlatformD1Ev>
  4081cc:	eb 03                	jmp    4081d1 <_ZN2cl8Platform3getEPSt6vectorIS0_SaIS0_EE+0x1e1>
  4081ce:	48 89 c3             	mov    %rax,%rbx
  4081d1:	48 8d 45 d0          	lea    -0x30(%rbp),%rax
  4081d5:	48 89 c7             	mov    %rax,%rdi
  4081d8:	e8 87 24 00 00       	callq  40a664 <_ZNSt6vectorIP15_cl_platform_idSaIS1_EED1Ev>
  4081dd:	48 89 d8             	mov    %rbx,%rax
  4081e0:	48 89 c7             	mov    %rax,%rdi
  4081e3:	e8 58 e0 ff ff       	callq  406240 <_Unwind_Resume@plt>
  4081e8:	e8 e3 dd ff ff       	callq  405fd0 <__stack_chk_fail@plt>
  4081ed:	48 83 c4 58          	add    $0x58,%rsp
  4081f1:	5b                   	pop    %rbx
  4081f2:	5d                   	pop    %rbp
  4081f3:	c3                   	retq   

00000000004081f4 <_ZN2cl8PlatformC1EOS0_>:
  4081f4:	55                   	push   %rbp
  4081f5:	48 89 e5             	mov    %rsp,%rbp
  4081f8:	48 83 ec 10          	sub    $0x10,%rsp
  4081fc:	48 89 7d f8          	mov    %rdi,-0x8(%rbp)
  408200:	48 89 75 f0          	mov    %rsi,-0x10(%rbp)
  408204:	48 8b 55 f0          	mov    -0x10(%rbp),%rdx
  408208:	48 8b 45 f8          	mov    -0x8(%rbp),%rax
  40820c:	48 89 d6             	mov    %rdx,%rsi
  40820f:	48 89 c7             	mov    %rax,%rdi
  408212:	e8 a9 28 00 00       	callq  40aac0 <_ZN2cl6detail7WrapperIP15_cl_platform_idEC1EOS4_>
  408217:	90                   	nop
  408218:	c9                   	leaveq 
  408219:	c3                   	retq   

000000000040821a <_ZN2cl8Platform3getEPi>:
  40821a:	55                   	push   %rbp
  40821b:	48 89 e5             	mov    %rsp,%rbp
  40821e:	48 83 ec 20          	sub    $0x20,%rsp
  408222:	48 89 7d e8          	mov    %rdi,-0x18(%rbp)
  408226:	48 89 75 e0          	mov    %rsi,-0x20(%rbp)
  40822a:	64 48 8b 04 25 28 00 	mov    %fs:0x28,%rax
  408231:	00 00 
  408233:	48 89 45 f8          	mov    %rax,-0x8(%rbp)
  408237:	31 c0                	xor    %eax,%eax
  408239:	48 8b 45 e8          	mov    -0x18(%rbp),%rax
  40823d:	48 8d 55 f4          	lea    -0xc(%rbp),%rdx
  408241:	48 89 d6             	mov    %rdx,%rsi
  408244:	48 89 c7             	mov    %rax,%rdi
  408247:	e8 24 fb ff ff       	callq  407d70 <_ZN2cl8Platform10getDefaultEPi>
  40824c:	48 83 7d e0 00       	cmpq   $0x0,-0x20(%rbp)
  408251:	74 0a                	je     40825d <_ZN2cl8Platform3getEPi+0x43>
  408253:	8b 55 f4             	mov    -0xc(%rbp),%edx
  408256:	48 8b 45 e0          	mov    -0x20(%rbp),%rax
  40825a:	89 10                	mov    %edx,(%rax)
  40825c:	90                   	nop
  40825d:	90                   	nop
  40825e:	48 8b 45 e8          	mov    -0x18(%rbp),%rax
  408262:	48 8b 4d f8          	mov    -0x8(%rbp),%rcx
  408266:	64 48 33 0c 25 28 00 	xor    %fs:0x28,%rcx
  40826d:	00 00 
  40826f:	74 05                	je     408276 <_ZN2cl8Platform3getEPi+0x5c>
  408271:	e8 5a dd ff ff       	callq  405fd0 <__stack_chk_fail@plt>
  408276:	c9                   	leaveq 
  408277:	c3                   	retq   

0000000000408278 <_ZN2cl7ContextD1Ev>:
  408278:	55                   	push   %rbp
  408279:	48 89 e5             	mov    %rsp,%rbp
  40827c:	48 83 ec 10          	sub    $0x10,%rsp
  408280:	48 89 7d f8          	mov    %rdi,-0x8(%rbp)
  408284:	48 8b 45 f8          	mov    -0x8(%rbp),%rax
  408288:	48 89 c7             	mov    %rax,%rdi
  40828b:	e8 66 28 00 00       	callq  40aaf6 <_ZN2cl6detail7WrapperIP11_cl_contextED1Ev>
  408290:	90                   	nop
  408291:	c9                   	leaveq 
  408292:	c3                   	retq   

0000000000408293 <_ZN2cl7Context11makeDefaultEv>:
  408293:	55                   	push   %rbp
  408294:	48 89 e5             	mov    %rsp,%rbp
  408297:	41 54                	push   %r12
  408299:	53                   	push   %rbx
  40829a:	48 83 ec 50          	sub    $0x50,%rsp
  40829e:	64 48 8b 04 25 28 00 	mov    %fs:0x28,%rax
  4082a5:	00 00 
  4082a7:	48 89 45 e8          	mov    %rax,-0x18(%rbp)
  4082ab:	31 c0                	xor    %eax,%eax
  4082ad:	48 8d 45 a8          	lea    -0x58(%rbp),%rax
  4082b1:	be 00 00 00 00       	mov    $0x0,%esi
  4082b6:	48 89 c7             	mov    %rax,%rdi
  4082b9:	e8 b2 fa ff ff       	callq  407d70 <_ZN2cl8Platform10getDefaultEPi>
  4082be:	48 8d 45 a8          	lea    -0x58(%rbp),%rax
  4082c2:	48 89 45 b8          	mov    %rax,-0x48(%rbp)
  4082c6:	48 8b 45 b8          	mov    -0x48(%rbp),%rax
  4082ca:	48 89 c7             	mov    %rax,%rdi
  4082cd:	e8 16 28 00 00       	callq  40aae8 <_ZNK2cl6detail7WrapperIP15_cl_platform_idEclEv>
  4082d2:	48 8b 00             	mov    (%rax),%rax
  4082d5:	48 89 45 c0          	mov    %rax,-0x40(%rbp)
  4082d9:	48 c7 45 d0 00 00 00 	movq   $0x0,-0x30(%rbp)
  4082e0:	00 
  4082e1:	48 c7 45 d8 00 00 00 	movq   $0x0,-0x28(%rbp)
  4082e8:	00 
  4082e9:	48 c7 45 e0 00 00 00 	movq   $0x0,-0x20(%rbp)
  4082f0:	00 
  4082f1:	48 c7 45 d0 84 10 00 	movq   $0x1084,-0x30(%rbp)
  4082f8:	00 
  4082f9:	48 8b 45 c0          	mov    -0x40(%rbp),%rax
  4082fd:	48 89 45 d8          	mov    %rax,-0x28(%rbp)
  408301:	48 8d 55 d0          	lea    -0x30(%rbp),%rdx
  408305:	48 8d 45 b0          	lea    -0x50(%rbp),%rax
  408309:	41 b9 80 fa 61 00    	mov    $0x61fa80,%r9d
  40830f:	41 b8 00 00 00 00    	mov    $0x0,%r8d
  408315:	b9 00 00 00 00       	mov    $0x0,%ecx
  40831a:	be 01 00 00 00       	mov    $0x1,%esi
  40831f:	48 89 c7             	mov    %rax,%rdi
  408322:	e8 c9 00 00 00       	callq  4083f0 <_ZN2cl7ContextC1EmPlPFvPKcPKvmPvES6_Pi>
  408327:	48 8d 45 b0          	lea    -0x50(%rbp),%rax
  40832b:	48 89 c6             	mov    %rax,%rsi
  40832e:	bf 78 fa 61 00       	mov    $0x61fa78,%edi
  408333:	e8 a6 04 00 00       	callq  4087de <_ZN2cl7ContextaSEOS0_>
  408338:	48 8d 45 b0          	lea    -0x50(%rbp),%rax
  40833c:	48 89 c7             	mov    %rax,%rdi
  40833f:	e8 34 ff ff ff       	callq  408278 <_ZN2cl7ContextD1Ev>
  408344:	48 8d 45 a8          	lea    -0x58(%rbp),%rax
  408348:	48 89 c7             	mov    %rax,%rdi
  40834b:	e8 aa f7 ff ff       	callq  407afa <_ZN2cl8PlatformD1Ev>
  408350:	eb 5f                	jmp    4083b1 <_ZN2cl7Context11makeDefaultEv+0x11e>
  408352:	49 89 c4             	mov    %rax,%r12
  408355:	48 89 d3             	mov    %rdx,%rbx
  408358:	48 8d 45 b0          	lea    -0x50(%rbp),%rax
  40835c:	48 89 c7             	mov    %rax,%rdi
  40835f:	e8 14 ff ff ff       	callq  408278 <_ZN2cl7ContextD1Ev>
  408364:	eb 06                	jmp    40836c <_ZN2cl7Context11makeDefaultEv+0xd9>
  408366:	49 89 c4             	mov    %rax,%r12
  408369:	48 89 d3             	mov    %rdx,%rbx
  40836c:	48 8d 45 a8          	lea    -0x58(%rbp),%rax
  408370:	48 89 c7             	mov    %rax,%rdi
  408373:	e8 82 f7 ff ff       	callq  407afa <_ZN2cl8PlatformD1Ev>
  408378:	4c 89 e0             	mov    %r12,%rax
  40837b:	48 89 da             	mov    %rbx,%rdx
  40837e:	eb 00                	jmp    408380 <_ZN2cl7Context11makeDefaultEv+0xed>
  408380:	48 83 fa 01          	cmp    $0x1,%rdx
  408384:	74 08                	je     40838e <_ZN2cl7Context11makeDefaultEv+0xfb>
  408386:	48 89 c7             	mov    %rax,%rdi
  408389:	e8 b2 de ff ff       	callq  406240 <_Unwind_Resume@plt>
  40838e:	48 89 c7             	mov    %rax,%rdi
  408391:	e8 9a da ff ff       	callq  405e30 <__cxa_begin_catch@plt>
  408396:	48 89 45 c8          	mov    %rax,-0x38(%rbp)
  40839a:	48 8b 45 c8          	mov    -0x38(%rbp),%rax
  40839e:	48 89 c7             	mov    %rax,%rdi
  4083a1:	e8 f4 f1 ff ff       	callq  40759a <_ZNK2cl5Error3errEv>
  4083a6:	89 05 d4 76 21 00    	mov    %eax,0x2176d4(%rip)        # 61fa80 <_ZN2cl7Context14default_error_E>
  4083ac:	e8 0f de ff ff       	callq  4061c0 <__cxa_end_catch@plt>
  4083b1:	90                   	nop
  4083b2:	48 8b 45 e8          	mov    -0x18(%rbp),%rax
  4083b6:	64 48 33 04 25 28 00 	xor    %fs:0x28,%rax
  4083bd:	00 00 
  4083bf:	74 05                	je     4083c6 <_ZN2cl7Context11makeDefaultEv+0x133>
  4083c1:	e8 0a dc ff ff       	callq  405fd0 <__stack_chk_fail@plt>
  4083c6:	48 83 c4 50          	add    $0x50,%rsp
  4083ca:	5b                   	pop    %rbx
  4083cb:	41 5c                	pop    %r12
  4083cd:	5d                   	pop    %rbp
  4083ce:	c3                   	retq   

00000000004083cf <_ZN2cl7Context19makeDefaultProvidedERKS0_>:
  4083cf:	55                   	push   %rbp
  4083d0:	48 89 e5             	mov    %rsp,%rbp
  4083d3:	48 83 ec 10          	sub    $0x10,%rsp
  4083d7:	48 89 7d f8          	mov    %rdi,-0x8(%rbp)
  4083db:	48 8b 45 f8          	mov    -0x8(%rbp),%rax
  4083df:	48 89 c6             	mov    %rax,%rsi
  4083e2:	bf 78 fa 61 00       	mov    $0x61fa78,%edi
  4083e7:	e8 ba 03 00 00       	callq  4087a6 <_ZN2cl7ContextaSERKS0_>
  4083ec:	90                   	nop
  4083ed:	c9                   	leaveq 
  4083ee:	c3                   	retq   
  4083ef:	90                   	nop

00000000004083f0 <_ZN2cl7ContextC1EmPlPFvPKcPKvmPvES6_Pi>:
  4083f0:	55                   	push   %rbp
  4083f1:	48 89 e5             	mov    %rsp,%rbp
  4083f4:	53                   	push   %rbx
  4083f5:	48 81 ec d8 00 00 00 	sub    $0xd8,%rsp
  4083fc:	48 89 bd 48 ff ff ff 	mov    %rdi,-0xb8(%rbp)
  408403:	48 89 b5 40 ff ff ff 	mov    %rsi,-0xc0(%rbp)
  40840a:	48 89 95 38 ff ff ff 	mov    %rdx,-0xc8(%rbp)
  408411:	48 89 8d 30 ff ff ff 	mov    %rcx,-0xd0(%rbp)
  408418:	4c 89 85 28 ff ff ff 	mov    %r8,-0xd8(%rbp)
  40841f:	4c 89 8d 20 ff ff ff 	mov    %r9,-0xe0(%rbp)
  408426:	64 48 8b 04 25 28 00 	mov    %fs:0x28,%rax
  40842d:	00 00 
  40842f:	48 89 45 e8          	mov    %rax,-0x18(%rbp)
  408433:	31 c0                	xor    %eax,%eax
  408435:	48 8b 85 48 ff ff ff 	mov    -0xb8(%rbp),%rax
  40843c:	48 89 c7             	mov    %rax,%rdi
  40843f:	e8 da 26 00 00       	callq  40ab1e <_ZN2cl6detail7WrapperIP11_cl_contextEC1Ev>
  408444:	48 c7 45 c0 84 10 00 	movq   $0x1084,-0x40(%rbp)
  40844b:	00 
  40844c:	48 c7 45 c8 00 00 00 	movq   $0x0,-0x38(%rbp)
  408453:	00 
  408454:	48 c7 45 d0 00 00 00 	movq   $0x0,-0x30(%rbp)
  40845b:	00 
  40845c:	48 c7 45 d8 00 00 00 	movq   $0x0,-0x28(%rbp)
  408463:	00 
  408464:	48 83 bd 38 ff ff ff 	cmpq   $0x0,-0xc8(%rbp)
  40846b:	00 
  40846c:	0f 85 f3 01 00 00    	jne    408665 <_ZN2cl7ContextC1EmPlPFvPKcPKvmPvES6_Pi+0x275>
  408472:	48 8d 85 60 ff ff ff 	lea    -0xa0(%rbp),%rax
  408479:	48 89 c7             	mov    %rax,%rdi
  40847c:	e8 d9 26 00 00       	callq  40ab5a <_ZNSt6vectorIN2cl8PlatformESaIS1_EEC1Ev>
  408481:	48 8d 85 60 ff ff ff 	lea    -0xa0(%rbp),%rax
  408488:	48 89 c7             	mov    %rax,%rdi
  40848b:	e8 60 fb ff ff       	callq  407ff0 <_ZN2cl8Platform3getEPSt6vectorIS0_SaIS0_EE>
  408490:	89 85 50 ff ff ff    	mov    %eax,-0xb0(%rbp)
  408496:	8b 85 50 ff ff ff    	mov    -0xb0(%rbp),%eax
  40849c:	85 c0                	test   %eax,%eax
  40849e:	74 35                	je     4084d5 <_ZN2cl7ContextC1EmPlPFvPKcPKvmPvES6_Pi+0xe5>
  4084a0:	8b 85 50 ff ff ff    	mov    -0xb0(%rbp),%eax
  4084a6:	be d8 4a 41 00       	mov    $0x414ad8,%esi
  4084ab:	89 c7                	mov    %eax,%edi
  4084ad:	e8 22 e0 ff ff       	callq  4064d4 <_ZN2cl6detailL10errHandlerEiPKc>
  4084b2:	48 83 bd 20 ff ff ff 	cmpq   $0x0,-0xe0(%rbp)
  4084b9:	00 
  4084ba:	74 0f                	je     4084cb <_ZN2cl7ContextC1EmPlPFvPKcPKvmPvES6_Pi+0xdb>
  4084bc:	8b 95 50 ff ff ff    	mov    -0xb0(%rbp),%edx
  4084c2:	48 8b 85 20 ff ff ff 	mov    -0xe0(%rbp),%rax
  4084c9:	89 10                	mov    %edx,(%rax)
  4084cb:	bb 00 00 00 00       	mov    $0x0,%ebx
  4084d0:	e9 77 01 00 00       	jmpq   40864c <_ZN2cl7ContextC1EmPlPFvPKcPKvmPvES6_Pi+0x25c>
  4084d5:	48 c7 85 58 ff ff ff 	movq   $0x0,-0xa8(%rbp)
  4084dc:	00 00 00 00 
  4084e0:	c7 85 54 ff ff ff 00 	movl   $0x0,-0xac(%rbp)
  4084e7:	00 00 00 
  4084ea:	8b 9d 54 ff ff ff    	mov    -0xac(%rbp),%ebx
  4084f0:	48 8d 85 60 ff ff ff 	lea    -0xa0(%rbp),%rax
  4084f7:	48 89 c7             	mov    %rax,%rdi
  4084fa:	e8 bb 26 00 00       	callq  40abba <_ZNKSt6vectorIN2cl8PlatformESaIS1_EE4sizeEv>
  4084ff:	48 39 c3             	cmp    %rax,%rbx
  408502:	0f 92 c0             	setb   %al
  408505:	84 c0                	test   %al,%al
  408507:	0f 84 ed 00 00 00    	je     4085fa <_ZN2cl7ContextC1EmPlPFvPKcPKvmPvES6_Pi+0x20a>
  40850d:	48 8d 45 80          	lea    -0x80(%rbp),%rax
  408511:	48 89 c7             	mov    %rax,%rdi
  408514:	e8 c7 26 00 00       	callq  40abe0 <_ZNSt6vectorIN2cl6DeviceESaIS1_EEC1Ev>
  408519:	8b 95 54 ff ff ff    	mov    -0xac(%rbp),%edx
  40851f:	48 8d 85 60 ff ff ff 	lea    -0xa0(%rbp),%rax
  408526:	48 89 d6             	mov    %rdx,%rsi
  408529:	48 89 c7             	mov    %rax,%rdi
  40852c:	e8 6f 25 00 00       	callq  40aaa0 <_ZNSt6vectorIN2cl8PlatformESaIS1_EEixEm>
  408531:	48 89 c1             	mov    %rax,%rcx
  408534:	48 8d 55 80          	lea    -0x80(%rbp),%rdx
  408538:	48 8b 85 40 ff ff ff 	mov    -0xc0(%rbp),%rax
  40853f:	48 89 c6             	mov    %rax,%rsi
  408542:	48 89 cf             	mov    %rcx,%rdi
  408545:	e8 82 f8 ff ff       	callq  407dcc <_ZNK2cl8Platform10getDevicesEmPSt6vectorINS_6DeviceESaIS2_EE>
  40854a:	89 85 50 ff ff ff    	mov    %eax,-0xb0(%rbp)
  408550:	8b 85 50 ff ff ff    	mov    -0xb0(%rbp),%eax
  408556:	85 c0                	test   %eax,%eax
  408558:	74 36                	je     408590 <_ZN2cl7ContextC1EmPlPFvPKcPKvmPvES6_Pi+0x1a0>
  40855a:	8b 85 50 ff ff ff    	mov    -0xb0(%rbp),%eax
  408560:	83 f8 ff             	cmp    $0xffffffff,%eax
  408563:	74 2b                	je     408590 <_ZN2cl7ContextC1EmPlPFvPKcPKvmPvES6_Pi+0x1a0>
  408565:	8b 85 50 ff ff ff    	mov    -0xb0(%rbp),%eax
  40856b:	be d8 4a 41 00       	mov    $0x414ad8,%esi
  408570:	89 c7                	mov    %eax,%edi
  408572:	e8 5d df ff ff       	callq  4064d4 <_ZN2cl6detailL10errHandlerEiPKc>
  408577:	48 83 bd 20 ff ff ff 	cmpq   $0x0,-0xe0(%rbp)
  40857e:	00 
  40857f:	74 0f                	je     408590 <_ZN2cl7ContextC1EmPlPFvPKcPKvmPvES6_Pi+0x1a0>
  408581:	8b 95 50 ff ff ff    	mov    -0xb0(%rbp),%edx
  408587:	48 8b 85 20 ff ff ff 	mov    -0xe0(%rbp),%rax
  40858e:	89 10                	mov    %edx,(%rax)
  408590:	48 8d 45 80          	lea    -0x80(%rbp),%rax
  408594:	48 89 c7             	mov    %rax,%rdi
  408597:	e8 98 25 00 00       	callq  40ab34 <_ZNKSt6vectorIN2cl6DeviceESaIS1_EE4sizeEv>
  40859c:	48 85 c0             	test   %rax,%rax
  40859f:	0f 95 c0             	setne  %al
  4085a2:	84 c0                	test   %al,%al
  4085a4:	74 31                	je     4085d7 <_ZN2cl7ContextC1EmPlPFvPKcPKvmPvES6_Pi+0x1e7>
  4085a6:	8b 95 54 ff ff ff    	mov    -0xac(%rbp),%edx
  4085ac:	48 8d 85 60 ff ff ff 	lea    -0xa0(%rbp),%rax
  4085b3:	48 89 d6             	mov    %rdx,%rsi
  4085b6:	48 89 c7             	mov    %rax,%rdi
  4085b9:	e8 e2 24 00 00       	callq  40aaa0 <_ZNSt6vectorIN2cl8PlatformESaIS1_EEixEm>
  4085be:	48 89 c7             	mov    %rax,%rdi
  4085c1:	e8 7a 26 00 00       	callq  40ac40 <_ZN2cl6detail7WrapperIP15_cl_platform_idEclEv>
  4085c6:	48 8b 00             	mov    (%rax),%rax
  4085c9:	48 89 85 58 ff ff ff 	mov    %rax,-0xa8(%rbp)
  4085d0:	bb 00 00 00 00       	mov    $0x0,%ebx
  4085d5:	eb 05                	jmp    4085dc <_ZN2cl7ContextC1EmPlPFvPKcPKvmPvES6_Pi+0x1ec>
  4085d7:	bb 01 00 00 00       	mov    $0x1,%ebx
  4085dc:	48 8d 45 80          	lea    -0x80(%rbp),%rax
  4085e0:	48 89 c7             	mov    %rax,%rdi
  4085e3:	e8 14 26 00 00       	callq  40abfc <_ZNSt6vectorIN2cl6DeviceESaIS1_EED1Ev>
  4085e8:	83 fb 01             	cmp    $0x1,%ebx
  4085eb:	75 0d                	jne    4085fa <_ZN2cl7ContextC1EmPlPFvPKcPKvmPvES6_Pi+0x20a>
  4085ed:	90                   	nop
  4085ee:	83 85 54 ff ff ff 01 	addl   $0x1,-0xac(%rbp)
  4085f5:	e9 f0 fe ff ff       	jmpq   4084ea <_ZN2cl7ContextC1EmPlPFvPKcPKvmPvES6_Pi+0xfa>
  4085fa:	48 83 bd 58 ff ff ff 	cmpq   $0x0,-0xa8(%rbp)
  408601:	00 
  408602:	75 2d                	jne    408631 <_ZN2cl7ContextC1EmPlPFvPKcPKvmPvES6_Pi+0x241>
  408604:	be d8 4a 41 00       	mov    $0x414ad8,%esi
  408609:	bf ff ff ff ff       	mov    $0xffffffff,%edi
  40860e:	e8 c1 de ff ff       	callq  4064d4 <_ZN2cl6detailL10errHandlerEiPKc>
  408613:	48 83 bd 20 ff ff ff 	cmpq   $0x0,-0xe0(%rbp)
  40861a:	00 
  40861b:	74 0d                	je     40862a <_ZN2cl7ContextC1EmPlPFvPKcPKvmPvES6_Pi+0x23a>
  40861d:	48 8b 85 20 ff ff ff 	mov    -0xe0(%rbp),%rax
  408624:	c7 00 ff ff ff ff    	movl   $0xffffffff,(%rax)
  40862a:	bb 00 00 00 00       	mov    $0x0,%ebx
  40862f:	eb 1b                	jmp    40864c <_ZN2cl7ContextC1EmPlPFvPKcPKvmPvES6_Pi+0x25c>
  408631:	48 8b 85 58 ff ff ff 	mov    -0xa8(%rbp),%rax
  408638:	48 89 45 c8          	mov    %rax,-0x38(%rbp)
  40863c:	48 8d 45 c0          	lea    -0x40(%rbp),%rax
  408640:	48 89 85 38 ff ff ff 	mov    %rax,-0xc8(%rbp)
  408647:	bb 01 00 00 00       	mov    $0x1,%ebx
  40864c:	48 8d 85 60 ff ff ff 	lea    -0xa0(%rbp),%rax
  408653:	48 89 c7             	mov    %rax,%rdi
  408656:	e8 1b 25 00 00       	callq  40ab76 <_ZNSt6vectorIN2cl8PlatformESaIS1_EED1Ev>
  40865b:	83 fb 01             	cmp    $0x1,%ebx
  40865e:	0f 85 fe 00 00 00    	jne    408762 <_ZN2cl7ContextC1EmPlPFvPKcPKvmPvES6_Pi+0x372>
  408664:	90                   	nop
  408665:	48 8d bd 50 ff ff ff 	lea    -0xb0(%rbp),%rdi
  40866c:	48 8b 8d 28 ff ff ff 	mov    -0xd8(%rbp),%rcx
  408673:	48 8b 95 30 ff ff ff 	mov    -0xd0(%rbp),%rdx
  40867a:	48 8b b5 40 ff ff ff 	mov    -0xc0(%rbp),%rsi
  408681:	48 8b 85 38 ff ff ff 	mov    -0xc8(%rbp),%rax
  408688:	49 89 f8             	mov    %rdi,%r8
  40868b:	48 89 c7             	mov    %rax,%rdi
  40868e:	e8 1d d8 ff ff       	callq  405eb0 <clCreateContextFromType@plt>
  408693:	48 89 c2             	mov    %rax,%rdx
  408696:	48 8b 85 48 ff ff ff 	mov    -0xb8(%rbp),%rax
  40869d:	48 89 10             	mov    %rdx,(%rax)
  4086a0:	8b 85 50 ff ff ff    	mov    -0xb0(%rbp),%eax
  4086a6:	be d8 4a 41 00       	mov    $0x414ad8,%esi
  4086ab:	89 c7                	mov    %eax,%edi
  4086ad:	e8 22 de ff ff       	callq  4064d4 <_ZN2cl6detailL10errHandlerEiPKc>
  4086b2:	48 83 bd 20 ff ff ff 	cmpq   $0x0,-0xe0(%rbp)
  4086b9:	00 
  4086ba:	0f 84 a2 00 00 00    	je     408762 <_ZN2cl7ContextC1EmPlPFvPKcPKvmPvES6_Pi+0x372>
  4086c0:	8b 95 50 ff ff ff    	mov    -0xb0(%rbp),%edx
  4086c6:	48 8b 85 20 ff ff ff 	mov    -0xe0(%rbp),%rax
  4086cd:	89 10                	mov    %edx,(%rax)
  4086cf:	e9 8e 00 00 00       	jmpq   408762 <_ZN2cl7ContextC1EmPlPFvPKcPKvmPvES6_Pi+0x372>
  4086d4:	48 89 c3             	mov    %rax,%rbx
  4086d7:	48 89 d0             	mov    %rdx,%rax
  4086da:	48 83 f8 01          	cmp    $0x1,%rax
  4086de:	74 02                	je     4086e2 <_ZN2cl7ContextC1EmPlPFvPKcPKvmPvES6_Pi+0x2f2>
  4086e0:	eb 41                	jmp    408723 <_ZN2cl7ContextC1EmPlPFvPKcPKvmPvES6_Pi+0x333>
  4086e2:	48 89 d8             	mov    %rbx,%rax
  4086e5:	48 89 c7             	mov    %rax,%rdi
  4086e8:	e8 83 d9 ff ff       	callq  406070 <__cxa_get_exception_ptr@plt>
  4086ed:	48 89 c2             	mov    %rax,%rdx
  4086f0:	48 8d 45 a0          	lea    -0x60(%rbp),%rax
  4086f4:	48 89 d6             	mov    %rdx,%rsi
  4086f7:	48 89 c7             	mov    %rax,%rdi
  4086fa:	e8 c9 ee ff ff       	callq  4075c8 <_ZN2cl5ErrorC1ERKS0_>
  4086ff:	48 89 d8             	mov    %rbx,%rax
  408702:	48 89 c7             	mov    %rax,%rdi
  408705:	e8 26 d7 ff ff       	callq  405e30 <__cxa_begin_catch@plt>
  40870a:	48 8d 45 a0          	lea    -0x60(%rbp),%rax
  40870e:	48 89 c7             	mov    %rax,%rdi
  408711:	e8 10 ee ff ff       	callq  407526 <_ZN2cl5ErrorD1Ev>
  408716:	e8 a5 da ff ff       	callq  4061c0 <__cxa_end_catch@plt>
  40871b:	e9 30 fe ff ff       	jmpq   408550 <_ZN2cl7ContextC1EmPlPFvPKcPKvmPvES6_Pi+0x160>
  408720:	48 89 c3             	mov    %rax,%rbx
  408723:	48 8d 45 80          	lea    -0x80(%rbp),%rax
  408727:	48 89 c7             	mov    %rax,%rdi
  40872a:	e8 cd 24 00 00       	callq  40abfc <_ZNSt6vectorIN2cl6DeviceESaIS1_EED1Ev>
  40872f:	eb 03                	jmp    408734 <_ZN2cl7ContextC1EmPlPFvPKcPKvmPvES6_Pi+0x344>
  408731:	48 89 c3             	mov    %rax,%rbx
  408734:	48 8d 85 60 ff ff ff 	lea    -0xa0(%rbp),%rax
  40873b:	48 89 c7             	mov    %rax,%rdi
  40873e:	e8 33 24 00 00       	callq  40ab76 <_ZNSt6vectorIN2cl8PlatformESaIS1_EED1Ev>
  408743:	eb 03                	jmp    408748 <_ZN2cl7ContextC1EmPlPFvPKcPKvmPvES6_Pi+0x358>
  408745:	48 89 c3             	mov    %rax,%rbx
  408748:	48 8b 85 48 ff ff ff 	mov    -0xb8(%rbp),%rax
  40874f:	48 89 c7             	mov    %rax,%rdi
  408752:	e8 9f 23 00 00       	callq  40aaf6 <_ZN2cl6detail7WrapperIP11_cl_contextED1Ev>
  408757:	48 89 d8             	mov    %rbx,%rax
  40875a:	48 89 c7             	mov    %rax,%rdi
  40875d:	e8 de da ff ff       	callq  406240 <_Unwind_Resume@plt>
  408762:	48 8b 45 e8          	mov    -0x18(%rbp),%rax
  408766:	64 48 33 04 25 28 00 	xor    %fs:0x28,%rax
  40876d:	00 00 
  40876f:	74 05                	je     408776 <_ZN2cl7ContextC1EmPlPFvPKcPKvmPvES6_Pi+0x386>
  408771:	e8 5a d8 ff ff       	callq  405fd0 <__stack_chk_fail@plt>
  408776:	48 81 c4 d8 00 00 00 	add    $0xd8,%rsp
  40877d:	5b                   	pop    %rbx
  40877e:	5d                   	pop    %rbp
  40877f:	c3                   	retq   

0000000000408780 <_ZN2cl7ContextC1ERKS0_>:
  408780:	55                   	push   %rbp
  408781:	48 89 e5             	mov    %rsp,%rbp
  408784:	48 83 ec 10          	sub    $0x10,%rsp
  408788:	48 89 7d f8          	mov    %rdi,-0x8(%rbp)
  40878c:	48 89 75 f0          	mov    %rsi,-0x10(%rbp)
  408790:	48 8b 55 f0          	mov    -0x10(%rbp),%rdx
  408794:	48 8b 45 f8          	mov    -0x8(%rbp),%rax
  408798:	48 89 d6             	mov    %rdx,%rsi
  40879b:	48 89 c7             	mov    %rax,%rdi
  40879e:	e8 ab 24 00 00       	callq  40ac4e <_ZN2cl6detail7WrapperIP11_cl_contextEC1ERKS4_>
  4087a3:	90                   	nop
  4087a4:	c9                   	leaveq 
  4087a5:	c3                   	retq   

00000000004087a6 <_ZN2cl7ContextaSERKS0_>:
  4087a6:	55                   	push   %rbp
  4087a7:	48 89 e5             	mov    %rsp,%rbp
  4087aa:	48 83 ec 10          	sub    $0x10,%rsp
  4087ae:	48 89 7d f8          	mov    %rdi,-0x8(%rbp)
  4087b2:	48 89 75 f0          	mov    %rsi,-0x10(%rbp)
  4087b6:	48 8b 55 f0          	mov    -0x10(%rbp),%rdx
  4087ba:	48 8b 45 f8          	mov    -0x8(%rbp),%rax
  4087be:	48 89 d6             	mov    %rdx,%rsi
  4087c1:	48 89 c7             	mov    %rax,%rdi
  4087c4:	e8 bf 24 00 00       	callq  40ac88 <_ZN2cl6detail7WrapperIP11_cl_contextEaSERKS4_>
  4087c9:	48 8b 45 f8          	mov    -0x8(%rbp),%rax
  4087cd:	c9                   	leaveq 
  4087ce:	c3                   	retq   

00000000004087cf <_ZSt4moveIRN2cl7ContextEEONSt16remove_referenceIT_E4typeEOS4_>:
  4087cf:	55                   	push   %rbp
  4087d0:	48 89 e5             	mov    %rsp,%rbp
  4087d3:	48 89 7d f8          	mov    %rdi,-0x8(%rbp)
  4087d7:	48 8b 45 f8          	mov    -0x8(%rbp),%rax
  4087db:	5d                   	pop    %rbp
  4087dc:	c3                   	retq   
  4087dd:	90                   	nop

00000000004087de <_ZN2cl7ContextaSEOS0_>:
  4087de:	55                   	push   %rbp
  4087df:	48 89 e5             	mov    %rsp,%rbp
  4087e2:	48 83 ec 10          	sub    $0x10,%rsp
  4087e6:	48 89 7d f8          	mov    %rdi,-0x8(%rbp)
  4087ea:	48 89 75 f0          	mov    %rsi,-0x10(%rbp)
  4087ee:	48 8b 45 f0          	mov    -0x10(%rbp),%rax
  4087f2:	48 89 c7             	mov    %rax,%rdi
  4087f5:	e8 d5 ff ff ff       	callq  4087cf <_ZSt4moveIRN2cl7ContextEEONSt16remove_referenceIT_E4typeEOS4_>
  4087fa:	48 89 c2             	mov    %rax,%rdx
  4087fd:	48 8b 45 f8          	mov    -0x8(%rbp),%rax
  408801:	48 89 d6             	mov    %rdx,%rsi
  408804:	48 89 c7             	mov    %rax,%rdi
  408807:	e8 da 24 00 00       	callq  40ace6 <_ZN2cl6detail7WrapperIP11_cl_contextEaSEOS4_>
  40880c:	48 8b 45 f8          	mov    -0x8(%rbp),%rax
  408810:	c9                   	leaveq 
  408811:	c3                   	retq   

0000000000408812 <_ZN2cl7Context10getDefaultEPi>:
  408812:	55                   	push   %rbp
  408813:	48 89 e5             	mov    %rsp,%rbp
  408816:	48 83 ec 10          	sub    $0x10,%rsp
  40881a:	48 89 7d f8          	mov    %rdi,-0x8(%rbp)
  40881e:	48 89 75 f0          	mov    %rsi,-0x10(%rbp)
  408822:	be 93 82 40 00       	mov    $0x408293,%esi
  408827:	bf 74 fa 61 00       	mov    $0x61fa74,%edi
  40882c:	e8 02 1d 00 00       	callq  40a533 <_ZSt9call_onceIRFvvEJEEvRSt9once_flagOT_DpOT0_>
  408831:	8b 05 49 72 21 00    	mov    0x217249(%rip),%eax        # 61fa80 <_ZN2cl7Context14default_error_E>
  408837:	be 00 00 00 00       	mov    $0x0,%esi
  40883c:	89 c7                	mov    %eax,%edi
  40883e:	e8 91 dc ff ff       	callq  4064d4 <_ZN2cl6detailL10errHandlerEiPKc>
  408843:	48 83 7d f0 00       	cmpq   $0x0,-0x10(%rbp)
  408848:	74 0c                	je     408856 <_ZN2cl7Context10getDefaultEPi+0x44>
  40884a:	8b 15 30 72 21 00    	mov    0x217230(%rip),%edx        # 61fa80 <_ZN2cl7Context14default_error_E>
  408850:	48 8b 45 f0          	mov    -0x10(%rbp),%rax
  408854:	89 10                	mov    %edx,(%rax)
  408856:	48 8b 45 f8          	mov    -0x8(%rbp),%rax
  40885a:	be 78 fa 61 00       	mov    $0x61fa78,%esi
  40885f:	48 89 c7             	mov    %rax,%rdi
  408862:	e8 19 ff ff ff       	callq  408780 <_ZN2cl7ContextC1ERKS0_>
  408867:	48 8b 45 f8          	mov    -0x8(%rbp),%rax
  40886b:	c9                   	leaveq 
  40886c:	c3                   	retq   

000000000040886d <_ZN2cl7Context10setDefaultERKS0_>:
  40886d:	55                   	push   %rbp
  40886e:	48 89 e5             	mov    %rsp,%rbp
  408871:	48 83 ec 20          	sub    $0x20,%rsp
  408875:	48 89 7d e8          	mov    %rdi,-0x18(%rbp)
  408879:	48 89 75 e0          	mov    %rsi,-0x20(%rbp)
  40887d:	64 48 8b 04 25 28 00 	mov    %fs:0x28,%rax
  408884:	00 00 
  408886:	48 89 45 f8          	mov    %rax,-0x8(%rbp)
  40888a:	31 c0                	xor    %eax,%eax
  40888c:	48 8b 45 e0          	mov    -0x20(%rbp),%rax
  408890:	48 89 c7             	mov    %rax,%rdi
  408893:	e8 9f 24 00 00       	callq  40ad37 <_ZSt4crefIN2cl7ContextEESt17reference_wrapperIKT_ERS4_>
  408898:	48 89 45 f0          	mov    %rax,-0x10(%rbp)
  40889c:	48 8d 45 f0          	lea    -0x10(%rbp),%rax
  4088a0:	48 89 c2             	mov    %rax,%rdx
  4088a3:	be cf 83 40 00       	mov    $0x4083cf,%esi
  4088a8:	bf 74 fa 61 00       	mov    $0x61fa74,%edi
  4088ad:	e8 6d 25 00 00       	callq  40ae1f <_ZSt9call_onceIRFvRKN2cl7ContextEEJSt17reference_wrapperIS2_EEEvRSt9once_flagOT_DpOT0_>
  4088b2:	8b 05 c8 71 21 00    	mov    0x2171c8(%rip),%eax        # 61fa80 <_ZN2cl7Context14default_error_E>
  4088b8:	be 00 00 00 00       	mov    $0x0,%esi
  4088bd:	89 c7                	mov    %eax,%edi
  4088bf:	e8 10 dc ff ff       	callq  4064d4 <_ZN2cl6detailL10errHandlerEiPKc>
  4088c4:	48 8b 45 e8          	mov    -0x18(%rbp),%rax
  4088c8:	be 78 fa 61 00       	mov    $0x61fa78,%esi
  4088cd:	48 89 c7             	mov    %rax,%rdi
  4088d0:	e8 ab fe ff ff       	callq  408780 <_ZN2cl7ContextC1ERKS0_>
  4088d5:	48 8b 45 e8          	mov    -0x18(%rbp),%rax
  4088d9:	48 8b 4d f8          	mov    -0x8(%rbp),%rcx
  4088dd:	64 48 33 0c 25 28 00 	xor    %fs:0x28,%rcx
  4088e4:	00 00 
  4088e6:	74 05                	je     4088ed <_ZN2cl7Context10setDefaultERKS0_+0x80>
  4088e8:	e8 e3 d6 ff ff       	callq  405fd0 <__stack_chk_fail@plt>
  4088ed:	c9                   	leaveq 
  4088ee:	c3                   	retq   
  4088ef:	90                   	nop

00000000004088f0 <_ZN2cl7ContextC1Ev>:
  4088f0:	55                   	push   %rbp
  4088f1:	48 89 e5             	mov    %rsp,%rbp
  4088f4:	48 83 ec 10          	sub    $0x10,%rsp
  4088f8:	48 89 7d f8          	mov    %rdi,-0x8(%rbp)
  4088fc:	48 8b 45 f8          	mov    -0x8(%rbp),%rax
  408900:	48 89 c7             	mov    %rax,%rdi
  408903:	e8 16 22 00 00       	callq  40ab1e <_ZN2cl6detail7WrapperIP11_cl_contextEC1Ev>
  408908:	90                   	nop
  408909:	c9                   	leaveq 
  40890a:	c3                   	retq   
  40890b:	90                   	nop

000000000040890c <_ZN2cl6Device11makeDefaultEv>:
  40890c:	55                   	push   %rbp
  40890d:	48 89 e5             	mov    %rsp,%rbp
  408910:	41 54                	push   %r12
  408912:	53                   	push   %rbx
  408913:	48 83 ec 40          	sub    $0x40,%rsp
  408917:	64 48 8b 04 25 28 00 	mov    %fs:0x28,%rax
  40891e:	00 00 
  408920:	48 89 45 e8          	mov    %rax,-0x18(%rbp)
  408924:	31 c0                	xor    %eax,%eax
  408926:	c7 45 bc 00 00 00 00 	movl   $0x0,-0x44(%rbp)
  40892d:	48 8d 45 c0          	lea    -0x40(%rbp),%rax
  408931:	48 8d 55 bc          	lea    -0x44(%rbp),%rdx
  408935:	48 89 d6             	mov    %rdx,%rsi
  408938:	48 89 c7             	mov    %rax,%rdi
  40893b:	e8 d2 fe ff ff       	callq  408812 <_ZN2cl7Context10getDefaultEPi>
  408940:	8b 45 bc             	mov    -0x44(%rbp),%eax
  408943:	be f0 4a 41 00       	mov    $0x414af0,%esi
  408948:	89 c7                	mov    %eax,%edi
  40894a:	e8 85 db ff ff       	callq  4064d4 <_ZN2cl6detailL10errHandlerEiPKc>
  40894f:	8b 45 bc             	mov    -0x44(%rbp),%eax
  408952:	85 c0                	test   %eax,%eax
  408954:	74 0b                	je     408961 <_ZN2cl6Device11makeDefaultEv+0x55>
  408956:	8b 45 bc             	mov    -0x44(%rbp),%eax
  408959:	89 05 01 71 21 00    	mov    %eax,0x217101(%rip)        # 61fa60 <_ZN2cl6Device14default_error_E>
  40895f:	eb 4c                	jmp    4089ad <_ZN2cl6Device11makeDefaultEv+0xa1>
  408961:	48 8d 45 d0          	lea    -0x30(%rbp),%rax
  408965:	48 8d 4d c0          	lea    -0x40(%rbp),%rcx
  408969:	ba 00 00 00 00       	mov    $0x0,%edx
  40896e:	48 89 ce             	mov    %rcx,%rsi
  408971:	48 89 c7             	mov    %rax,%rdi
  408974:	e8 49 25 00 00       	callq  40aec2 <_ZNK2cl7Context7getInfoILi4225EEENS_6detail12param_traitsINS2_15cl_context_infoEXT_EE10param_typeEPi>
  408979:	48 8d 45 d0          	lea    -0x30(%rbp),%rax
  40897d:	be 00 00 00 00       	mov    $0x0,%esi
  408982:	48 89 c7             	mov    %rax,%rdi
  408985:	e8 24 20 00 00       	callq  40a9ae <_ZNSt6vectorIN2cl6DeviceESaIS1_EEixEm>
  40898a:	48 89 c6             	mov    %rax,%rsi
  40898d:	bf 50 fa 61 00       	mov    $0x61fa50,%edi
  408992:	e8 c5 f0 ff ff       	callq  407a5c <_ZN2cl6DeviceaSERKS0_>
  408997:	48 8d 45 d0          	lea    -0x30(%rbp),%rax
  40899b:	48 89 c7             	mov    %rax,%rdi
  40899e:	e8 59 22 00 00       	callq  40abfc <_ZNSt6vectorIN2cl6DeviceESaIS1_EED1Ev>
  4089a3:	c7 05 b3 70 21 00 00 	movl   $0x0,0x2170b3(%rip)        # 61fa60 <_ZN2cl6Device14default_error_E>
  4089aa:	00 00 00 
  4089ad:	48 8d 45 c0          	lea    -0x40(%rbp),%rax
  4089b1:	48 89 c7             	mov    %rax,%rdi
  4089b4:	e8 bf f8 ff ff       	callq  408278 <_ZN2cl7ContextD1Ev>
  4089b9:	eb 5f                	jmp    408a1a <_ZN2cl6Device11makeDefaultEv+0x10e>
  4089bb:	49 89 c4             	mov    %rax,%r12
  4089be:	48 89 d3             	mov    %rdx,%rbx
  4089c1:	48 8d 45 d0          	lea    -0x30(%rbp),%rax
  4089c5:	48 89 c7             	mov    %rax,%rdi
  4089c8:	e8 2f 22 00 00       	callq  40abfc <_ZNSt6vectorIN2cl6DeviceESaIS1_EED1Ev>
  4089cd:	eb 06                	jmp    4089d5 <_ZN2cl6Device11makeDefaultEv+0xc9>
  4089cf:	49 89 c4             	mov    %rax,%r12
  4089d2:	48 89 d3             	mov    %rdx,%rbx
  4089d5:	48 8d 45 c0          	lea    -0x40(%rbp),%rax
  4089d9:	48 89 c7             	mov    %rax,%rdi
  4089dc:	e8 97 f8 ff ff       	callq  408278 <_ZN2cl7ContextD1Ev>
  4089e1:	4c 89 e0             	mov    %r12,%rax
  4089e4:	48 89 da             	mov    %rbx,%rdx
  4089e7:	eb 00                	jmp    4089e9 <_ZN2cl6Device11makeDefaultEv+0xdd>
  4089e9:	48 83 fa 01          	cmp    $0x1,%rdx
  4089ed:	74 08                	je     4089f7 <_ZN2cl6Device11makeDefaultEv+0xeb>
  4089ef:	48 89 c7             	mov    %rax,%rdi
  4089f2:	e8 49 d8 ff ff       	callq  406240 <_Unwind_Resume@plt>
  4089f7:	48 89 c7             	mov    %rax,%rdi
  4089fa:	e8 31 d4 ff ff       	callq  405e30 <__cxa_begin_catch@plt>
  4089ff:	48 89 45 c8          	mov    %rax,-0x38(%rbp)
  408a03:	48 8b 45 c8          	mov    -0x38(%rbp),%rax
  408a07:	48 89 c7             	mov    %rax,%rdi
  408a0a:	e8 8b eb ff ff       	callq  40759a <_ZNK2cl5Error3errEv>
  408a0f:	89 05 4b 70 21 00    	mov    %eax,0x21704b(%rip)        # 61fa60 <_ZN2cl6Device14default_error_E>
  408a15:	e8 a6 d7 ff ff       	callq  4061c0 <__cxa_end_catch@plt>
  408a1a:	90                   	nop
  408a1b:	48 8b 45 e8          	mov    -0x18(%rbp),%rax
  408a1f:	64 48 33 04 25 28 00 	xor    %fs:0x28,%rax
  408a26:	00 00 
  408a28:	74 05                	je     408a2f <_ZN2cl6Device11makeDefaultEv+0x123>
  408a2a:	e8 a1 d5 ff ff       	callq  405fd0 <__stack_chk_fail@plt>
  408a2f:	48 83 c4 40          	add    $0x40,%rsp
  408a33:	5b                   	pop    %rbx
  408a34:	41 5c                	pop    %r12
  408a36:	5d                   	pop    %rbp
  408a37:	c3                   	retq   

0000000000408a38 <_ZN2cl7NDRangeC1Ev>:
  408a38:	55                   	push   %rbp
  408a39:	48 89 e5             	mov    %rsp,%rbp
  408a3c:	48 89 7d f8          	mov    %rdi,-0x8(%rbp)
  408a40:	48 8b 45 f8          	mov    -0x8(%rbp),%rax
  408a44:	c7 40 18 00 00 00 00 	movl   $0x0,0x18(%rax)
  408a4b:	48 8b 45 f8          	mov    -0x8(%rbp),%rax
  408a4f:	48 c7 00 00 00 00 00 	movq   $0x0,(%rax)
  408a56:	48 8b 45 f8          	mov    -0x8(%rbp),%rax
  408a5a:	48 c7 40 08 00 00 00 	movq   $0x0,0x8(%rax)
  408a61:	00 
  408a62:	48 8b 45 f8          	mov    -0x8(%rbp),%rax
  408a66:	48 c7 40 10 00 00 00 	movq   $0x0,0x10(%rax)
  408a6d:	00 
  408a6e:	90                   	nop
  408a6f:	5d                   	pop    %rbp
  408a70:	c3                   	retq   
  408a71:	90                   	nop

0000000000408a72 <_ZN2cl7NDRangeC1Emm>:
  408a72:	55                   	push   %rbp
  408a73:	48 89 e5             	mov    %rsp,%rbp
  408a76:	48 89 7d f8          	mov    %rdi,-0x8(%rbp)
  408a7a:	48 89 75 f0          	mov    %rsi,-0x10(%rbp)
  408a7e:	48 89 55 e8          	mov    %rdx,-0x18(%rbp)
  408a82:	48 8b 45 f8          	mov    -0x8(%rbp),%rax
  408a86:	c7 40 18 02 00 00 00 	movl   $0x2,0x18(%rax)
  408a8d:	48 8b 45 f8          	mov    -0x8(%rbp),%rax
  408a91:	48 8b 55 f0          	mov    -0x10(%rbp),%rdx
  408a95:	48 89 10             	mov    %rdx,(%rax)
  408a98:	48 8b 45 f8          	mov    -0x8(%rbp),%rax
  408a9c:	48 8b 55 e8          	mov    -0x18(%rbp),%rdx
  408aa0:	48 89 50 08          	mov    %rdx,0x8(%rax)
  408aa4:	48 8b 45 f8          	mov    -0x8(%rbp),%rax
  408aa8:	48 c7 40 10 01 00 00 	movq   $0x1,0x10(%rax)
  408aaf:	00 
  408ab0:	90                   	nop
  408ab1:	5d                   	pop    %rbp
  408ab2:	c3                   	retq   
  408ab3:	90                   	nop

0000000000408ab4 <_ZN2cl6KernelD1Ev>:
  408ab4:	55                   	push   %rbp
  408ab5:	48 89 e5             	mov    %rsp,%rbp
  408ab8:	48 83 ec 10          	sub    $0x10,%rsp
  408abc:	48 89 7d f8          	mov    %rdi,-0x8(%rbp)
  408ac0:	48 8b 45 f8          	mov    -0x8(%rbp),%rax
  408ac4:	48 89 c7             	mov    %rax,%rdi
  408ac7:	e8 98 24 00 00       	callq  40af64 <_ZN2cl6detail7WrapperIP10_cl_kernelED1Ev>
  408acc:	90                   	nop
  408acd:	c9                   	leaveq 
  408ace:	c3                   	retq   
  408acf:	90                   	nop

0000000000408ad0 <_ZN2cl12CommandQueueD1Ev>:
  408ad0:	55                   	push   %rbp
  408ad1:	48 89 e5             	mov    %rsp,%rbp
  408ad4:	48 83 ec 10          	sub    $0x10,%rsp
  408ad8:	48 89 7d f8          	mov    %rdi,-0x8(%rbp)
  408adc:	48 8b 45 f8          	mov    -0x8(%rbp),%rax
  408ae0:	48 89 c7             	mov    %rax,%rdi
  408ae3:	e8 a4 24 00 00       	callq  40af8c <_ZN2cl6detail7WrapperIP17_cl_command_queueED1Ev>
  408ae8:	90                   	nop
  408ae9:	c9                   	leaveq 
  408aea:	c3                   	retq   

0000000000408aeb <_ZN2cl12CommandQueue11makeDefaultEv>:
  408aeb:	55                   	push   %rbp
  408aec:	48 89 e5             	mov    %rsp,%rbp
  408aef:	41 54                	push   %r12
  408af1:	53                   	push   %rbx
  408af2:	48 83 ec 40          	sub    $0x40,%rsp
  408af6:	64 48 8b 04 25 28 00 	mov    %fs:0x28,%rax
  408afd:	00 00 
  408aff:	48 89 45 e8          	mov    %rax,-0x18(%rbp)
  408b03:	31 c0                	xor    %eax,%eax
  408b05:	48 8d 45 b8          	lea    -0x48(%rbp),%rax
  408b09:	48 8d 55 b4          	lea    -0x4c(%rbp),%rdx
  408b0d:	48 89 d6             	mov    %rdx,%rsi
  408b10:	48 89 c7             	mov    %rax,%rdi
  408b13:	e8 fa fc ff ff       	callq  408812 <_ZN2cl7Context10getDefaultEPi>
  408b18:	8b 45 b4             	mov    -0x4c(%rbp),%eax
  408b1b:	85 c0                	test   %eax,%eax
  408b1d:	74 0b                	je     408b2a <_ZN2cl12CommandQueue11makeDefaultEv+0x3f>
  408b1f:	8b 45 b4             	mov    -0x4c(%rbp),%eax
  408b22:	89 05 68 6f 21 00    	mov    %eax,0x216f68(%rip)        # 61fa90 <_ZN2cl12CommandQueue14default_error_E>
  408b28:	eb 59                	jmp    408b83 <_ZN2cl12CommandQueue11makeDefaultEv+0x98>
  408b2a:	48 8d 45 d0          	lea    -0x30(%rbp),%rax
  408b2e:	be 00 00 00 00       	mov    $0x0,%esi
  408b33:	48 89 c7             	mov    %rax,%rdi
  408b36:	e8 a0 ee ff ff       	callq  4079db <_ZN2cl6Device10getDefaultEPi>
  408b3b:	48 8d 55 d0          	lea    -0x30(%rbp),%rdx
  408b3f:	48 8d 75 b8          	lea    -0x48(%rbp),%rsi
  408b43:	48 8d 45 c0          	lea    -0x40(%rbp),%rax
  408b47:	41 b8 90 fa 61 00    	mov    $0x61fa90,%r8d
  408b4d:	b9 00 00 00 00       	mov    $0x0,%ecx
  408b52:	48 89 c7             	mov    %rax,%rdi
  408b55:	e8 c8 00 00 00       	callq  408c22 <_ZN2cl12CommandQueueC1ERKNS_7ContextERKNS_6DeviceEmPi>
  408b5a:	48 8d 45 c0          	lea    -0x40(%rbp),%rax
  408b5e:	48 89 c6             	mov    %rax,%rsi
  408b61:	bf 88 fa 61 00       	mov    $0x61fa88,%edi
  408b66:	e8 2d 02 00 00       	callq  408d98 <_ZN2cl12CommandQueueaSEOS0_>
  408b6b:	48 8d 45 c0          	lea    -0x40(%rbp),%rax
  408b6f:	48 89 c7             	mov    %rax,%rdi
  408b72:	e8 59 ff ff ff       	callq  408ad0 <_ZN2cl12CommandQueueD1Ev>
  408b77:	48 8d 45 d0          	lea    -0x30(%rbp),%rax
  408b7b:	48 89 c7             	mov    %rax,%rdi
  408b7e:	e8 3d ee ff ff       	callq  4079c0 <_ZN2cl6DeviceD1Ev>
  408b83:	48 8d 45 b8          	lea    -0x48(%rbp),%rax
  408b87:	48 89 c7             	mov    %rax,%rdi
  408b8a:	e8 e9 f6 ff ff       	callq  408278 <_ZN2cl7ContextD1Ev>
  408b8f:	eb 73                	jmp    408c04 <_ZN2cl12CommandQueue11makeDefaultEv+0x119>
  408b91:	49 89 c4             	mov    %rax,%r12
  408b94:	48 89 d3             	mov    %rdx,%rbx
  408b97:	48 8d 45 c0          	lea    -0x40(%rbp),%rax
  408b9b:	48 89 c7             	mov    %rax,%rdi
  408b9e:	e8 2d ff ff ff       	callq  408ad0 <_ZN2cl12CommandQueueD1Ev>
  408ba3:	eb 06                	jmp    408bab <_ZN2cl12CommandQueue11makeDefaultEv+0xc0>
  408ba5:	49 89 c4             	mov    %rax,%r12
  408ba8:	48 89 d3             	mov    %rdx,%rbx
  408bab:	48 8d 45 d0          	lea    -0x30(%rbp),%rax
  408baf:	48 89 c7             	mov    %rax,%rdi
  408bb2:	e8 09 ee ff ff       	callq  4079c0 <_ZN2cl6DeviceD1Ev>
  408bb7:	eb 06                	jmp    408bbf <_ZN2cl12CommandQueue11makeDefaultEv+0xd4>
  408bb9:	49 89 c4             	mov    %rax,%r12
  408bbc:	48 89 d3             	mov    %rdx,%rbx
  408bbf:	48 8d 45 b8          	lea    -0x48(%rbp),%rax
  408bc3:	48 89 c7             	mov    %rax,%rdi
  408bc6:	e8 ad f6 ff ff       	callq  408278 <_ZN2cl7ContextD1Ev>
  408bcb:	4c 89 e0             	mov    %r12,%rax
  408bce:	48 89 da             	mov    %rbx,%rdx
  408bd1:	eb 00                	jmp    408bd3 <_ZN2cl12CommandQueue11makeDefaultEv+0xe8>
  408bd3:	48 83 fa 01          	cmp    $0x1,%rdx
  408bd7:	74 08                	je     408be1 <_ZN2cl12CommandQueue11makeDefaultEv+0xf6>
  408bd9:	48 89 c7             	mov    %rax,%rdi
  408bdc:	e8 5f d6 ff ff       	callq  406240 <_Unwind_Resume@plt>
  408be1:	48 89 c7             	mov    %rax,%rdi
  408be4:	e8 47 d2 ff ff       	callq  405e30 <__cxa_begin_catch@plt>
  408be9:	48 89 45 c8          	mov    %rax,-0x38(%rbp)
  408bed:	48 8b 45 c8          	mov    -0x38(%rbp),%rax
  408bf1:	48 89 c7             	mov    %rax,%rdi
  408bf4:	e8 a1 e9 ff ff       	callq  40759a <_ZNK2cl5Error3errEv>
  408bf9:	89 05 91 6e 21 00    	mov    %eax,0x216e91(%rip)        # 61fa90 <_ZN2cl12CommandQueue14default_error_E>
  408bff:	e8 bc d5 ff ff       	callq  4061c0 <__cxa_end_catch@plt>
  408c04:	90                   	nop
  408c05:	48 8b 45 e8          	mov    -0x18(%rbp),%rax
  408c09:	64 48 33 04 25 28 00 	xor    %fs:0x28,%rax
  408c10:	00 00 
  408c12:	74 05                	je     408c19 <_ZN2cl12CommandQueue11makeDefaultEv+0x12e>
  408c14:	e8 b7 d3 ff ff       	callq  405fd0 <__stack_chk_fail@plt>
  408c19:	48 83 c4 40          	add    $0x40,%rsp
  408c1d:	5b                   	pop    %rbx
  408c1e:	41 5c                	pop    %r12
  408c20:	5d                   	pop    %rbp
  408c21:	c3                   	retq   

0000000000408c22 <_ZN2cl12CommandQueueC1ERKNS_7ContextERKNS_6DeviceEmPi>:
  408c22:	55                   	push   %rbp
  408c23:	48 89 e5             	mov    %rsp,%rbp
  408c26:	53                   	push   %rbx
  408c27:	48 83 ec 48          	sub    $0x48,%rsp
  408c2b:	48 89 7d d8          	mov    %rdi,-0x28(%rbp)
  408c2f:	48 89 75 d0          	mov    %rsi,-0x30(%rbp)
  408c33:	48 89 55 c8          	mov    %rdx,-0x38(%rbp)
  408c37:	48 89 4d c0          	mov    %rcx,-0x40(%rbp)
  408c3b:	4c 89 45 b8          	mov    %r8,-0x48(%rbp)
  408c3f:	64 48 8b 04 25 28 00 	mov    %fs:0x28,%rax
  408c46:	00 00 
  408c48:	48 89 45 e8          	mov    %rax,-0x18(%rbp)
  408c4c:	31 c0                	xor    %eax,%eax
  408c4e:	48 8b 45 d8          	mov    -0x28(%rbp),%rax
  408c52:	48 89 c7             	mov    %rax,%rdi
  408c55:	e8 5a 23 00 00       	callq  40afb4 <_ZN2cl6detail7WrapperIP17_cl_command_queueEC1Ev>
  408c5a:	48 8b 45 c8          	mov    -0x38(%rbp),%rax
  408c5e:	48 89 c7             	mov    %rax,%rdi
  408c61:	e8 88 ec ff ff       	callq  4078ee <_ZNK2cl6detail7WrapperIP13_cl_device_idEclEv>
  408c66:	48 8b 18             	mov    (%rax),%rbx
  408c69:	48 8b 45 d0          	mov    -0x30(%rbp),%rax
  408c6d:	48 89 c7             	mov    %rax,%rdi
  408c70:	e8 e1 22 00 00       	callq  40af56 <_ZNK2cl6detail7WrapperIP11_cl_contextEclEv>
  408c75:	48 8b 00             	mov    (%rax),%rax
  408c78:	48 8d 4d e4          	lea    -0x1c(%rbp),%rcx
  408c7c:	48 8b 55 c0          	mov    -0x40(%rbp),%rdx
  408c80:	48 89 de             	mov    %rbx,%rsi
  408c83:	48 89 c7             	mov    %rax,%rdi
  408c86:	e8 15 d5 ff ff       	callq  4061a0 <clCreateCommandQueue@plt>
  408c8b:	48 89 c2             	mov    %rax,%rdx
  408c8e:	48 8b 45 d8          	mov    -0x28(%rbp),%rax
  408c92:	48 89 10             	mov    %rdx,(%rax)
  408c95:	8b 45 e4             	mov    -0x1c(%rbp),%eax
  408c98:	be 00 4b 41 00       	mov    $0x414b00,%esi
  408c9d:	89 c7                	mov    %eax,%edi
  408c9f:	e8 30 d8 ff ff       	callq  4064d4 <_ZN2cl6detailL10errHandlerEiPKc>
  408ca4:	48 83 7d b8 00       	cmpq   $0x0,-0x48(%rbp)
  408ca9:	74 25                	je     408cd0 <_ZN2cl12CommandQueueC1ERKNS_7ContextERKNS_6DeviceEmPi+0xae>
  408cab:	8b 55 e4             	mov    -0x1c(%rbp),%edx
  408cae:	48 8b 45 b8          	mov    -0x48(%rbp),%rax
  408cb2:	89 10                	mov    %edx,(%rax)
  408cb4:	eb 1a                	jmp    408cd0 <_ZN2cl12CommandQueueC1ERKNS_7ContextERKNS_6DeviceEmPi+0xae>
  408cb6:	48 89 c3             	mov    %rax,%rbx
  408cb9:	48 8b 45 d8          	mov    -0x28(%rbp),%rax
  408cbd:	48 89 c7             	mov    %rax,%rdi
  408cc0:	e8 c7 22 00 00       	callq  40af8c <_ZN2cl6detail7WrapperIP17_cl_command_queueED1Ev>
  408cc5:	48 89 d8             	mov    %rbx,%rax
  408cc8:	48 89 c7             	mov    %rax,%rdi
  408ccb:	e8 70 d5 ff ff       	callq  406240 <_Unwind_Resume@plt>
  408cd0:	90                   	nop
  408cd1:	48 8b 45 e8          	mov    -0x18(%rbp),%rax
  408cd5:	64 48 33 04 25 28 00 	xor    %fs:0x28,%rax
  408cdc:	00 00 
  408cde:	74 05                	je     408ce5 <_ZN2cl12CommandQueueC1ERKNS_7ContextERKNS_6DeviceEmPi+0xc3>
  408ce0:	e8 eb d2 ff ff       	callq  405fd0 <__stack_chk_fail@plt>
  408ce5:	48 83 c4 48          	add    $0x48,%rsp
  408ce9:	5b                   	pop    %rbx
  408cea:	5d                   	pop    %rbp
  408ceb:	c3                   	retq   

0000000000408cec <_ZN2cl12CommandQueue10getDefaultEPi>:
  408cec:	55                   	push   %rbp
  408ced:	48 89 e5             	mov    %rsp,%rbp
  408cf0:	48 83 ec 10          	sub    $0x10,%rsp
  408cf4:	48 89 7d f8          	mov    %rdi,-0x8(%rbp)
  408cf8:	48 89 75 f0          	mov    %rsi,-0x10(%rbp)
  408cfc:	be eb 8a 40 00       	mov    $0x408aeb,%esi
  408d01:	bf 84 fa 61 00       	mov    $0x61fa84,%edi
  408d06:	e8 28 18 00 00       	callq  40a533 <_ZSt9call_onceIRFvvEJEEvRSt9once_flagOT_DpOT0_>
  408d0b:	8b 05 7f 6d 21 00    	mov    0x216d7f(%rip),%eax        # 61fa90 <_ZN2cl12CommandQueue14default_error_E>
  408d11:	be 00 4b 41 00       	mov    $0x414b00,%esi
  408d16:	89 c7                	mov    %eax,%edi
  408d18:	e8 b7 d7 ff ff       	callq  4064d4 <_ZN2cl6detailL10errHandlerEiPKc>
  408d1d:	48 83 7d f0 00       	cmpq   $0x0,-0x10(%rbp)
  408d22:	74 0c                	je     408d30 <_ZN2cl12CommandQueue10getDefaultEPi+0x44>
  408d24:	8b 15 66 6d 21 00    	mov    0x216d66(%rip),%edx        # 61fa90 <_ZN2cl12CommandQueue14default_error_E>
  408d2a:	48 8b 45 f0          	mov    -0x10(%rbp),%rax
  408d2e:	89 10                	mov    %edx,(%rax)
  408d30:	48 8b 45 f8          	mov    -0x8(%rbp),%rax
  408d34:	be 88 fa 61 00       	mov    $0x61fa88,%esi
  408d39:	48 89 c7             	mov    %rax,%rdi
  408d3c:	e8 23 00 00 00       	callq  408d64 <_ZN2cl12CommandQueueC1ERKS0_>
  408d41:	48 8b 45 f8          	mov    -0x8(%rbp),%rax
  408d45:	c9                   	leaveq 
  408d46:	c3                   	retq   
  408d47:	90                   	nop

0000000000408d48 <_ZN2cl12CommandQueueC1Ev>:
  408d48:	55                   	push   %rbp
  408d49:	48 89 e5             	mov    %rsp,%rbp
  408d4c:	48 83 ec 10          	sub    $0x10,%rsp
  408d50:	48 89 7d f8          	mov    %rdi,-0x8(%rbp)
  408d54:	48 8b 45 f8          	mov    -0x8(%rbp),%rax
  408d58:	48 89 c7             	mov    %rax,%rdi
  408d5b:	e8 54 22 00 00       	callq  40afb4 <_ZN2cl6detail7WrapperIP17_cl_command_queueEC1Ev>
  408d60:	90                   	nop
  408d61:	c9                   	leaveq 
  408d62:	c3                   	retq   
  408d63:	90                   	nop

0000000000408d64 <_ZN2cl12CommandQueueC1ERKS0_>:
  408d64:	55                   	push   %rbp
  408d65:	48 89 e5             	mov    %rsp,%rbp
  408d68:	48 83 ec 10          	sub    $0x10,%rsp
  408d6c:	48 89 7d f8          	mov    %rdi,-0x8(%rbp)
  408d70:	48 89 75 f0          	mov    %rsi,-0x10(%rbp)
  408d74:	48 8b 55 f0          	mov    -0x10(%rbp),%rdx
  408d78:	48 8b 45 f8          	mov    -0x8(%rbp),%rax
  408d7c:	48 89 d6             	mov    %rdx,%rsi
  408d7f:	48 89 c7             	mov    %rax,%rdi
  408d82:	e8 7d 22 00 00       	callq  40b004 <_ZN2cl6detail7WrapperIP17_cl_command_queueEC1ERKS4_>
  408d87:	90                   	nop
  408d88:	c9                   	leaveq 
  408d89:	c3                   	retq   

0000000000408d8a <_ZSt4moveIRN2cl12CommandQueueEEONSt16remove_referenceIT_E4typeEOS4_>:
  408d8a:	55                   	push   %rbp
  408d8b:	48 89 e5             	mov    %rsp,%rbp
  408d8e:	48 89 7d f8          	mov    %rdi,-0x8(%rbp)
  408d92:	48 8b 45 f8          	mov    -0x8(%rbp),%rax
  408d96:	5d                   	pop    %rbp
  408d97:	c3                   	retq   

0000000000408d98 <_ZN2cl12CommandQueueaSEOS0_>:
  408d98:	55                   	push   %rbp
  408d99:	48 89 e5             	mov    %rsp,%rbp
  408d9c:	48 83 ec 10          	sub    $0x10,%rsp
  408da0:	48 89 7d f8          	mov    %rdi,-0x8(%rbp)
  408da4:	48 89 75 f0          	mov    %rsi,-0x10(%rbp)
  408da8:	48 8b 45 f0          	mov    -0x10(%rbp),%rax
  408dac:	48 89 c7             	mov    %rax,%rdi
  408daf:	e8 d6 ff ff ff       	callq  408d8a <_ZSt4moveIRN2cl12CommandQueueEEONSt16remove_referenceIT_E4typeEOS4_>
  408db4:	48 89 c2             	mov    %rax,%rdx
  408db7:	48 8b 45 f8          	mov    -0x8(%rbp),%rax
  408dbb:	48 89 d6             	mov    %rdx,%rsi
  408dbe:	48 89 c7             	mov    %rax,%rdi
  408dc1:	e8 78 22 00 00       	callq  40b03e <_ZN2cl6detail7WrapperIP17_cl_command_queueEaSEOS4_>
  408dc6:	48 8b 45 f8          	mov    -0x8(%rbp),%rax
  408dca:	c9                   	leaveq 
  408dcb:	c3                   	retq   

0000000000408dcc <_ZNK2cl12CommandQueue6finishEv>:
  408dcc:	55                   	push   %rbp
  408dcd:	48 89 e5             	mov    %rsp,%rbp
  408dd0:	48 83 ec 10          	sub    $0x10,%rsp
  408dd4:	48 89 7d f8          	mov    %rdi,-0x8(%rbp)
  408dd8:	48 8b 45 f8          	mov    -0x8(%rbp),%rax
  408ddc:	48 8b 00             	mov    (%rax),%rax
  408ddf:	48 89 c7             	mov    %rax,%rdi
  408de2:	e8 d9 cf ff ff       	callq  405dc0 <clFinish@plt>
  408de7:	be 15 4b 41 00       	mov    $0x414b15,%esi
  408dec:	89 c7                	mov    %eax,%edi
  408dee:	e8 e1 d6 ff ff       	callq  4064d4 <_ZN2cl6detailL10errHandlerEiPKc>
  408df3:	c9                   	leaveq 
  408df4:	c3                   	retq   

0000000000408df5 <_ZSt4moveIRNSt7__cxx1112basic_stringIcSt11char_traitsIcESaIcEEEEONSt16remove_referenceIT_E4typeEOS8_>:
  408df5:	55                   	push   %rbp
  408df6:	48 89 e5             	mov    %rsp,%rbp
  408df9:	48 89 7d f8          	mov    %rdi,-0x8(%rbp)
  408dfd:	48 8b 45 f8          	mov    -0x8(%rbp),%rax
  408e01:	5d                   	pop    %rbp
  408e02:	c3                   	retq   
  408e03:	90                   	nop

0000000000408e04 <_ZN11arm_compute15CLKernelLibrary4initENSt7__cxx1112basic_stringIcSt11char_traitsIcESaIcEEEN2cl7ContextENS7_6DeviceE>:
  408e04:	55                   	push   %rbp
  408e05:	48 89 e5             	mov    %rsp,%rbp
  408e08:	48 83 ec 20          	sub    $0x20,%rsp
  408e0c:	48 89 7d f8          	mov    %rdi,-0x8(%rbp)
  408e10:	48 89 75 f0          	mov    %rsi,-0x10(%rbp)
  408e14:	48 89 55 e8          	mov    %rdx,-0x18(%rbp)
  408e18:	48 89 4d e0          	mov    %rcx,-0x20(%rbp)
  408e1c:	48 8b 45 f0          	mov    -0x10(%rbp),%rax
  408e20:	48 89 c7             	mov    %rax,%rdi
  408e23:	e8 cd ff ff ff       	callq  408df5 <_ZSt4moveIRNSt7__cxx1112basic_stringIcSt11char_traitsIcESaIcEEEEONSt16remove_referenceIT_E4typeEOS8_>
  408e28:	48 89 c2             	mov    %rax,%rdx
  408e2b:	48 8b 45 f8          	mov    -0x8(%rbp),%rax
  408e2f:	48 83 c0 18          	add    $0x18,%rax
  408e33:	48 89 d6             	mov    %rdx,%rsi
  408e36:	48 89 c7             	mov    %rax,%rdi
  408e39:	e8 f2 d1 ff ff       	callq  406030 <_ZNSt7__cxx1112basic_stringIcSt11char_traitsIcESaIcEEaSEOS4_@plt>
  408e3e:	48 8b 45 e8          	mov    -0x18(%rbp),%rax
  408e42:	48 89 c7             	mov    %rax,%rdi
  408e45:	e8 85 f9 ff ff       	callq  4087cf <_ZSt4moveIRN2cl7ContextEEONSt16remove_referenceIT_E4typeEOS4_>
  408e4a:	48 89 c2             	mov    %rax,%rdx
  408e4d:	48 8b 45 f8          	mov    -0x8(%rbp),%rax
  408e51:	48 89 d6             	mov    %rdx,%rsi
  408e54:	48 89 c7             	mov    %rax,%rdi
  408e57:	e8 82 f9 ff ff       	callq  4087de <_ZN2cl7ContextaSEOS0_>
  408e5c:	48 8b 45 e0          	mov    -0x20(%rbp),%rax
  408e60:	48 89 c7             	mov    %rax,%rdi
  408e63:	e8 1d ec ff ff       	callq  407a85 <_ZSt4moveIRN2cl6DeviceEEONSt16remove_referenceIT_E4typeEOS4_>
  408e68:	48 89 c2             	mov    %rax,%rdx
  408e6b:	48 8b 45 f8          	mov    -0x8(%rbp),%rax
  408e6f:	48 83 c0 08          	add    $0x8,%rax
  408e73:	48 89 d6             	mov    %rdx,%rsi
  408e76:	48 89 c7             	mov    %rax,%rdi
  408e79:	e8 48 ec ff ff       	callq  407ac6 <_ZN2cl6DeviceaSEOS0_>
  408e7e:	90                   	nop
  408e7f:	c9                   	leaveq 
  408e80:	c3                   	retq   
  408e81:	90                   	nop

0000000000408e82 <_ZN11arm_compute15CLKernelLibrary15set_kernel_pathERKNSt7__cxx1112basic_stringIcSt11char_traitsIcESaIcEEE>:
  408e82:	55                   	push   %rbp
  408e83:	48 89 e5             	mov    %rsp,%rbp
  408e86:	48 83 ec 10          	sub    $0x10,%rsp
  408e8a:	48 89 7d f8          	mov    %rdi,-0x8(%rbp)
  408e8e:	48 89 75 f0          	mov    %rsi,-0x10(%rbp)
  408e92:	48 8b 45 f8          	mov    -0x8(%rbp),%rax
  408e96:	48 8d 50 18          	lea    0x18(%rax),%rdx
  408e9a:	48 8b 45 f0          	mov    -0x10(%rbp),%rax
  408e9e:	48 89 c6             	mov    %rax,%rsi
  408ea1:	48 89 d7             	mov    %rdx,%rdi
  408ea4:	e8 97 ce ff ff       	callq  405d40 <_ZNSt7__cxx1112basic_stringIcSt11char_traitsIcESaIcEEaSERKS4_@plt>
  408ea9:	90                   	nop
  408eaa:	c9                   	leaveq 
  408eab:	c3                   	retq   

0000000000408eac <_ZN11arm_compute11TensorShape3setEmm>:
  408eac:	55                   	push   %rbp
  408ead:	48 89 e5             	mov    %rsp,%rbp
  408eb0:	53                   	push   %rbx
  408eb1:	48 83 ec 38          	sub    $0x38,%rsp
  408eb5:	48 89 7d d8          	mov    %rdi,-0x28(%rbp)
  408eb9:	48 89 75 d0          	mov    %rsi,-0x30(%rbp)
  408ebd:	48 89 55 c8          	mov    %rdx,-0x38(%rbp)
  408ec1:	64 48 8b 04 25 28 00 	mov    %fs:0x28,%rax
  408ec8:	00 00 
  408eca:	48 89 45 e8          	mov    %rax,-0x18(%rbp)
  408ece:	31 c0                	xor    %eax,%eax
  408ed0:	48 83 7d c8 00       	cmpq   $0x0,-0x38(%rbp)
  408ed5:	75 45                	jne    408f1c <_ZN11arm_compute11TensorShape3setEmm+0x70>
  408ed7:	48 8b 45 d8          	mov    -0x28(%rbp),%rax
  408edb:	48 c7 40 30 00 00 00 	movq   $0x0,0x30(%rax)
  408ee2:	00 
  408ee3:	c7 45 e4 00 00 00 00 	movl   $0x0,-0x1c(%rbp)
  408eea:	48 8b 45 d8          	mov    -0x28(%rbp),%rax
  408eee:	48 89 c7             	mov    %rax,%rdi
  408ef1:	e8 b4 21 00 00       	callq  40b0aa <_ZNSt5arrayImLm6EE3endEv>
  408ef6:	48 89 c3             	mov    %rax,%rbx
  408ef9:	48 8b 45 d8          	mov    -0x28(%rbp),%rax
  408efd:	48 89 c7             	mov    %rax,%rdi
  408f00:	e8 8b 21 00 00       	callq  40b090 <_ZNSt5arrayImLm6EE5beginEv>
  408f05:	48 89 c1             	mov    %rax,%rcx
  408f08:	48 8d 45 e4          	lea    -0x1c(%rbp),%rax
  408f0c:	48 89 c2             	mov    %rax,%rdx
  408f0f:	48 89 de             	mov    %rbx,%rsi
  408f12:	48 89 cf             	mov    %rcx,%rdi
  408f15:	e8 3b 15 00 00       	callq  40a455 <_ZSt4fillIPmiEvT_S1_RKT0_>
  408f1a:	eb 6a                	jmp    408f86 <_ZN11arm_compute11TensorShape3setEmm+0xda>
  408f1c:	c7 45 e4 01 00 00 00 	movl   $0x1,-0x1c(%rbp)
  408f23:	48 8b 45 d8          	mov    -0x28(%rbp),%rax
  408f27:	48 89 c7             	mov    %rax,%rdi
  408f2a:	e8 7b 21 00 00       	callq  40b0aa <_ZNSt5arrayImLm6EE3endEv>
  408f2f:	48 89 c3             	mov    %rax,%rbx
  408f32:	48 8b 45 d8          	mov    -0x28(%rbp),%rax
  408f36:	48 89 c7             	mov    %rax,%rdi
  408f39:	e8 52 21 00 00       	callq  40b090 <_ZNSt5arrayImLm6EE5beginEv>
  408f3e:	48 89 c2             	mov    %rax,%rdx
  408f41:	48 8b 45 d8          	mov    -0x28(%rbp),%rax
  408f45:	48 8b 40 30          	mov    0x30(%rax),%rax
  408f49:	48 c1 e0 03          	shl    $0x3,%rax
  408f4d:	48 8d 0c 02          	lea    (%rdx,%rax,1),%rcx
  408f51:	48 8d 45 e4          	lea    -0x1c(%rbp),%rax
  408f55:	48 89 c2             	mov    %rax,%rdx
  408f58:	48 89 de             	mov    %rbx,%rsi
  408f5b:	48 89 cf             	mov    %rcx,%rdi
  408f5e:	e8 f2 14 00 00       	callq  40a455 <_ZSt4fillIPmiEvT_S1_RKT0_>
  408f63:	48 8b 45 d8          	mov    -0x28(%rbp),%rax
  408f67:	48 8b 55 c8          	mov    -0x38(%rbp),%rdx
  408f6b:	48 8b 4d d0          	mov    -0x30(%rbp),%rcx
  408f6f:	48 89 ce             	mov    %rcx,%rsi
  408f72:	48 89 c7             	mov    %rax,%rdi
  408f75:	e8 4e 21 00 00       	callq  40b0c8 <_ZN11arm_compute10DimensionsImE3setEmm>
  408f7a:	48 8b 45 d8          	mov    -0x28(%rbp),%rax
  408f7e:	48 89 c7             	mov    %rax,%rdi
  408f81:	e8 8e 00 00 00       	callq  409014 <_ZN11arm_compute11TensorShape26apply_dimension_correctionEv>
  408f86:	48 8b 45 e8          	mov    -0x18(%rbp),%rax
  408f8a:	64 48 33 04 25 28 00 	xor    %fs:0x28,%rax
  408f91:	00 00 
  408f93:	74 05                	je     408f9a <_ZN11arm_compute11TensorShape3setEmm+0xee>
  408f95:	e8 36 d0 ff ff       	callq  405fd0 <__stack_chk_fail@plt>
  408f9a:	48 83 c4 38          	add    $0x38,%rsp
  408f9e:	5b                   	pop    %rbx
  408f9f:	5d                   	pop    %rbp
  408fa0:	c3                   	retq   
  408fa1:	90                   	nop

0000000000408fa2 <_ZNK11arm_compute11TensorShape10total_sizeEv>:
  408fa2:	55                   	push   %rbp
  408fa3:	48 89 e5             	mov    %rsp,%rbp
  408fa6:	41 54                	push   %r12
  408fa8:	53                   	push   %rbx
  408fa9:	48 83 ec 20          	sub    $0x20,%rsp
  408fad:	48 89 7d d8          	mov    %rdi,-0x28(%rbp)
  408fb1:	64 48 8b 04 25 28 00 	mov    %fs:0x28,%rax
  408fb8:	00 00 
  408fba:	48 89 45 e8          	mov    %rax,-0x18(%rbp)
  408fbe:	31 c0                	xor    %eax,%eax
  408fc0:	48 8b 45 d8          	mov    -0x28(%rbp),%rax
  408fc4:	48 89 c7             	mov    %rax,%rdi
  408fc7:	e8 9c 21 00 00       	callq  40b168 <_ZNKSt5arrayImLm6EE3endEv>
  408fcc:	48 89 c3             	mov    %rax,%rbx
  408fcf:	48 8b 45 d8          	mov    -0x28(%rbp),%rax
  408fd3:	48 89 c7             	mov    %rax,%rdi
  408fd6:	e8 73 21 00 00       	callq  40b14e <_ZNKSt5arrayImLm6EE5beginEv>
  408fdb:	48 83 ec 08          	sub    $0x8,%rsp
  408fdf:	41 54                	push   %r12
  408fe1:	ba 01 00 00 00       	mov    $0x1,%edx
  408fe6:	48 89 de             	mov    %rbx,%rsi
  408fe9:	48 89 c7             	mov    %rax,%rdi
  408fec:	e8 95 21 00 00       	callq  40b186 <_ZSt10accumulateIPKmiSt10multipliesImEET0_T_S5_S4_T1_>
  408ff1:	48 83 c4 10          	add    $0x10,%rsp
  408ff5:	48 98                	cltq   
  408ff7:	48 8b 4d e8          	mov    -0x18(%rbp),%rcx
  408ffb:	64 48 33 0c 25 28 00 	xor    %fs:0x28,%rcx
  409002:	00 00 
  409004:	74 05                	je     40900b <_ZNK11arm_compute11TensorShape10total_sizeEv+0x69>
  409006:	e8 c5 cf ff ff       	callq  405fd0 <__stack_chk_fail@plt>
  40900b:	48 8d 65 f0          	lea    -0x10(%rbp),%rsp
  40900f:	5b                   	pop    %rbx
  409010:	41 5c                	pop    %r12
  409012:	5d                   	pop    %rbp
  409013:	c3                   	retq   

0000000000409014 <_ZN11arm_compute11TensorShape26apply_dimension_correctionEv>:
  409014:	55                   	push   %rbp
  409015:	48 89 e5             	mov    %rsp,%rbp
  409018:	48 83 ec 20          	sub    $0x20,%rsp
  40901c:	48 89 7d e8          	mov    %rdi,-0x18(%rbp)
  409020:	48 8b 45 e8          	mov    -0x18(%rbp),%rax
  409024:	48 8b 40 30          	mov    0x30(%rax),%rax
  409028:	83 e8 01             	sub    $0x1,%eax
  40902b:	89 45 fc             	mov    %eax,-0x4(%rbp)
  40902e:	83 7d fc 00          	cmpl   $0x0,-0x4(%rbp)
  409032:	7e 3e                	jle    409072 <_ZN11arm_compute11TensorShape26apply_dimension_correctionEv+0x5e>
  409034:	8b 45 fc             	mov    -0x4(%rbp),%eax
  409037:	48 63 d0             	movslq %eax,%rdx
  40903a:	48 8b 45 e8          	mov    -0x18(%rbp),%rax
  40903e:	48 89 d6             	mov    %rdx,%rsi
  409041:	48 89 c7             	mov    %rax,%rdi
  409044:	e8 cb 21 00 00       	callq  40b214 <_ZNSt5arrayImLm6EEixEm>
  409049:	48 8b 00             	mov    (%rax),%rax
  40904c:	48 83 f8 01          	cmp    $0x1,%rax
  409050:	0f 94 c0             	sete   %al
  409053:	84 c0                	test   %al,%al
  409055:	74 1a                	je     409071 <_ZN11arm_compute11TensorShape26apply_dimension_correctionEv+0x5d>
  409057:	48 8b 45 e8          	mov    -0x18(%rbp),%rax
  40905b:	48 8b 40 30          	mov    0x30(%rax),%rax
  40905f:	48 8d 50 ff          	lea    -0x1(%rax),%rdx
  409063:	48 8b 45 e8          	mov    -0x18(%rbp),%rax
  409067:	48 89 50 30          	mov    %rdx,0x30(%rax)
  40906b:	83 6d fc 01          	subl   $0x1,-0x4(%rbp)
  40906f:	eb bd                	jmp    40902e <_ZN11arm_compute11TensorShape26apply_dimension_correctionEv+0x1a>
  409071:	90                   	nop
  409072:	90                   	nop
  409073:	c9                   	leaveq 
  409074:	c3                   	retq   
  409075:	90                   	nop

0000000000409076 <_ZN11arm_compute11CoordinatesC1IJEEEDpT_>:
  409076:	55                   	push   %rbp
  409077:	48 89 e5             	mov    %rsp,%rbp
  40907a:	48 83 ec 10          	sub    $0x10,%rsp
  40907e:	48 89 7d f8          	mov    %rdi,-0x8(%rbp)
  409082:	48 8b 45 f8          	mov    -0x8(%rbp),%rax
  409086:	48 89 c7             	mov    %rax,%rdi
  409089:	e8 ac 21 00 00       	callq  40b23a <_ZN11arm_compute10DimensionsIiEC1IJEEEDpT_>
  40908e:	90                   	nop
  40908f:	c9                   	leaveq 
  409090:	c3                   	retq   

0000000000409091 <_ZSt7forwardIRjEOT_RNSt16remove_referenceIS1_E4typeE>:
  409091:	55                   	push   %rbp
  409092:	48 89 e5             	mov    %rsp,%rbp
  409095:	48 89 7d f8          	mov    %rdi,-0x8(%rbp)
  409099:	48 8b 45 f8          	mov    -0x8(%rbp),%rax
  40909d:	5d                   	pop    %rbp
  40909e:	c3                   	retq   
  40909f:	90                   	nop

00000000004090a0 <_ZNSt4pairIjjEC1IRjS2_Lb1EEEOT_OT0_>:
  4090a0:	55                   	push   %rbp
  4090a1:	48 89 e5             	mov    %rsp,%rbp
  4090a4:	48 83 ec 20          	sub    $0x20,%rsp
  4090a8:	48 89 7d f8          	mov    %rdi,-0x8(%rbp)
  4090ac:	48 89 75 f0          	mov    %rsi,-0x10(%rbp)
  4090b0:	48 89 55 e8          	mov    %rdx,-0x18(%rbp)
  4090b4:	48 8b 45 f0          	mov    -0x10(%rbp),%rax
  4090b8:	48 89 c7             	mov    %rax,%rdi
  4090bb:	e8 d1 ff ff ff       	callq  409091 <_ZSt7forwardIRjEOT_RNSt16remove_referenceIS1_E4typeE>
  4090c0:	8b 10                	mov    (%rax),%edx
  4090c2:	48 8b 45 f8          	mov    -0x8(%rbp),%rax
  4090c6:	89 10                	mov    %edx,(%rax)
  4090c8:	48 8b 45 e8          	mov    -0x18(%rbp),%rax
  4090cc:	48 89 c7             	mov    %rax,%rdi
  4090cf:	e8 bd ff ff ff       	callq  409091 <_ZSt7forwardIRjEOT_RNSt16remove_referenceIS1_E4typeE>
  4090d4:	8b 10                	mov    (%rax),%edx
  4090d6:	48 8b 45 f8          	mov    -0x8(%rbp),%rax
  4090da:	89 50 04             	mov    %edx,0x4(%rax)
  4090dd:	90                   	nop
  4090de:	c9                   	leaveq 
  4090df:	c3                   	retq   

00000000004090e0 <_ZSt9make_pairIRjS0_ESt4pairINSt17__decay_and_stripIT_E6__typeENS2_IT0_E6__typeEEOS3_OS6_>:
  4090e0:	55                   	push   %rbp
  4090e1:	48 89 e5             	mov    %rsp,%rbp
  4090e4:	53                   	push   %rbx
  4090e5:	48 83 ec 28          	sub    $0x28,%rsp
  4090e9:	48 89 7d d8          	mov    %rdi,-0x28(%rbp)
  4090ed:	48 89 75 d0          	mov    %rsi,-0x30(%rbp)
  4090f1:	64 48 8b 04 25 28 00 	mov    %fs:0x28,%rax
  4090f8:	00 00 
  4090fa:	48 89 45 e8          	mov    %rax,-0x18(%rbp)
  4090fe:	31 c0                	xor    %eax,%eax
  409100:	48 8b 45 d0          	mov    -0x30(%rbp),%rax
  409104:	48 89 c7             	mov    %rax,%rdi
  409107:	e8 85 ff ff ff       	callq  409091 <_ZSt7forwardIRjEOT_RNSt16remove_referenceIS1_E4typeE>
  40910c:	48 89 c3             	mov    %rax,%rbx
  40910f:	48 8b 45 d8          	mov    -0x28(%rbp),%rax
  409113:	48 89 c7             	mov    %rax,%rdi
  409116:	e8 76 ff ff ff       	callq  409091 <_ZSt7forwardIRjEOT_RNSt16remove_referenceIS1_E4typeE>
  40911b:	48 89 c1             	mov    %rax,%rcx
  40911e:	48 8d 45 e0          	lea    -0x20(%rbp),%rax
  409122:	48 89 da             	mov    %rbx,%rdx
  409125:	48 89 ce             	mov    %rcx,%rsi
  409128:	48 89 c7             	mov    %rax,%rdi
  40912b:	e8 70 ff ff ff       	callq  4090a0 <_ZNSt4pairIjjEC1IRjS2_Lb1EEEOT_OT0_>
  409130:	48 8b 45 e0          	mov    -0x20(%rbp),%rax
  409134:	48 8b 55 e8          	mov    -0x18(%rbp),%rdx
  409138:	64 48 33 14 25 28 00 	xor    %fs:0x28,%rdx
  40913f:	00 00 
  409141:	74 05                	je     409148 <_ZSt9make_pairIRjS0_ESt4pairINSt17__decay_and_stripIT_E6__typeENS2_IT0_E6__typeEEOS3_OS6_+0x68>
  409143:	e8 88 ce ff ff       	callq  405fd0 <__stack_chk_fail@plt>
  409148:	48 83 c4 28          	add    $0x28,%rsp
  40914c:	5b                   	pop    %rbx
  40914d:	5d                   	pop    %rbp
  40914e:	c3                   	retq   
  40914f:	90                   	nop

0000000000409150 <_ZN11arm_compute13PadStrideInfoC1EjjjjNS_21DimensionRoundingTypeE>:
  409150:	55                   	push   %rbp
  409151:	48 89 e5             	mov    %rsp,%rbp
  409154:	53                   	push   %rbx
  409155:	48 83 ec 28          	sub    $0x28,%rsp
  409159:	48 89 7d e8          	mov    %rdi,-0x18(%rbp)
  40915d:	89 75 e4             	mov    %esi,-0x1c(%rbp)
  409160:	89 55 e0             	mov    %edx,-0x20(%rbp)
  409163:	89 4d dc             	mov    %ecx,-0x24(%rbp)
  409166:	44 89 45 d8          	mov    %r8d,-0x28(%rbp)
  40916a:	44 89 4d d4          	mov    %r9d,-0x2c(%rbp)
  40916e:	48 8b 5d e8          	mov    -0x18(%rbp),%rbx
  409172:	48 8d 55 e0          	lea    -0x20(%rbp),%rdx
  409176:	48 8d 45 e4          	lea    -0x1c(%rbp),%rax
  40917a:	48 89 d6             	mov    %rdx,%rsi
  40917d:	48 89 c7             	mov    %rax,%rdi
  409180:	e8 5b ff ff ff       	callq  4090e0 <_ZSt9make_pairIRjS0_ESt4pairINSt17__decay_and_stripIT_E6__typeENS2_IT0_E6__typeEEOS3_OS6_>
  409185:	48 89 03             	mov    %rax,(%rbx)
  409188:	48 8b 45 e8          	mov    -0x18(%rbp),%rax
  40918c:	8b 55 dc             	mov    -0x24(%rbp),%edx
  40918f:	89 50 08             	mov    %edx,0x8(%rax)
  409192:	48 8b 45 e8          	mov    -0x18(%rbp),%rax
  409196:	8b 55 d8             	mov    -0x28(%rbp),%edx
  409199:	89 50 0c             	mov    %edx,0xc(%rax)
  40919c:	48 8b 45 e8          	mov    -0x18(%rbp),%rax
  4091a0:	8b 55 dc             	mov    -0x24(%rbp),%edx
  4091a3:	89 50 10             	mov    %edx,0x10(%rax)
  4091a6:	48 8b 45 e8          	mov    -0x18(%rbp),%rax
  4091aa:	8b 55 d8             	mov    -0x28(%rbp),%edx
  4091ad:	89 50 14             	mov    %edx,0x14(%rax)
  4091b0:	48 8b 45 e8          	mov    -0x18(%rbp),%rax
  4091b4:	8b 55 d4             	mov    -0x2c(%rbp),%edx
  4091b7:	89 50 18             	mov    %edx,0x18(%rax)
  4091ba:	90                   	nop
  4091bb:	48 83 c4 28          	add    $0x28,%rsp
  4091bf:	5b                   	pop    %rbx
  4091c0:	5d                   	pop    %rbp
  4091c1:	c3                   	retq   

00000000004091c2 <_ZN11arm_compute11WeightsInfoC1Ev>:
  4091c2:	55                   	push   %rbp
  4091c3:	48 89 e5             	mov    %rsp,%rbp
  4091c6:	48 89 7d f8          	mov    %rdi,-0x8(%rbp)
  4091ca:	48 8b 45 f8          	mov    -0x8(%rbp),%rax
  4091ce:	c6 00 00             	movb   $0x0,(%rax)
  4091d1:	48 8b 45 f8          	mov    -0x8(%rbp),%rax
  4091d5:	c7 40 04 00 00 00 00 	movl   $0x0,0x4(%rax)
  4091dc:	48 8b 45 f8          	mov    -0x8(%rbp),%rax
  4091e0:	c7 40 08 00 00 00 00 	movl   $0x0,0x8(%rax)
  4091e7:	48 8b 45 f8          	mov    -0x8(%rbp),%rax
  4091eb:	c7 40 0c 00 00 00 00 	movl   $0x0,0xc(%rax)
  4091f2:	90                   	nop
  4091f3:	5d                   	pop    %rbp
  4091f4:	c3                   	retq   
  4091f5:	90                   	nop

00000000004091f6 <_ZN11arm_compute6Window9DimensionC1Eiii>:
  4091f6:	55                   	push   %rbp
  4091f7:	48 89 e5             	mov    %rsp,%rbp
  4091fa:	48 89 7d f8          	mov    %rdi,-0x8(%rbp)
  4091fe:	89 75 f4             	mov    %esi,-0xc(%rbp)
  409201:	89 55 f0             	mov    %edx,-0x10(%rbp)
  409204:	89 4d ec             	mov    %ecx,-0x14(%rbp)
  409207:	48 8b 45 f8          	mov    -0x8(%rbp),%rax
  40920b:	8b 55 f4             	mov    -0xc(%rbp),%edx
  40920e:	89 10                	mov    %edx,(%rax)
  409210:	48 8b 45 f8          	mov    -0x8(%rbp),%rax
  409214:	8b 55 f0             	mov    -0x10(%rbp),%edx
  409217:	89 50 04             	mov    %edx,0x4(%rax)
  40921a:	48 8b 45 f8          	mov    -0x8(%rbp),%rax
  40921e:	8b 55 ec             	mov    -0x14(%rbp),%edx
  409221:	89 50 08             	mov    %edx,0x8(%rax)
  409224:	90                   	nop
  409225:	5d                   	pop    %rbp
  409226:	c3                   	retq   
  409227:	90                   	nop

0000000000409228 <_ZNK11arm_compute6Window9Dimension5startEv>:
  409228:	55                   	push   %rbp
  409229:	48 89 e5             	mov    %rsp,%rbp
  40922c:	48 89 7d f8          	mov    %rdi,-0x8(%rbp)
  409230:	48 8b 45 f8          	mov    -0x8(%rbp),%rax
  409234:	8b 00                	mov    (%rax),%eax
  409236:	5d                   	pop    %rbp
  409237:	c3                   	retq   

0000000000409238 <_ZNK11arm_compute6Window9Dimension3endEv>:
  409238:	55                   	push   %rbp
  409239:	48 89 e5             	mov    %rsp,%rbp
  40923c:	48 89 7d f8          	mov    %rdi,-0x8(%rbp)
  409240:	48 8b 45 f8          	mov    -0x8(%rbp),%rax
  409244:	8b 40 04             	mov    0x4(%rax),%eax
  409247:	5d                   	pop    %rbp
  409248:	c3                   	retq   
  409249:	90                   	nop

000000000040924a <_ZNK11arm_compute6Window9Dimension4stepEv>:
  40924a:	55                   	push   %rbp
  40924b:	48 89 e5             	mov    %rsp,%rbp
  40924e:	48 89 7d f8          	mov    %rdi,-0x8(%rbp)
  409252:	48 8b 45 f8          	mov    -0x8(%rbp),%rax
  409256:	8b 40 08             	mov    0x8(%rax),%eax
  409259:	5d                   	pop    %rbp
  40925a:	c3                   	retq   

000000000040925b <_ZNSt14__array_traitsIN11arm_compute6Window9DimensionELm6EE6_S_refERA6_KS2_m>:
  40925b:	55                   	push   %rbp
  40925c:	48 89 e5             	mov    %rsp,%rbp
  40925f:	48 89 7d f8          	mov    %rdi,-0x8(%rbp)
  409263:	48 89 75 f0          	mov    %rsi,-0x10(%rbp)
  409267:	48 8b 55 f0          	mov    -0x10(%rbp),%rdx
  40926b:	48 89 d0             	mov    %rdx,%rax
  40926e:	48 01 c0             	add    %rax,%rax
  409271:	48 01 d0             	add    %rdx,%rax
  409274:	48 c1 e0 02          	shl    $0x2,%rax
  409278:	48 8b 55 f8          	mov    -0x8(%rbp),%rdx
  40927c:	48 01 d0             	add    %rdx,%rax
  40927f:	5d                   	pop    %rbp
  409280:	c3                   	retq   
  409281:	90                   	nop

0000000000409282 <_ZNKSt5arrayIN11arm_compute6Window9DimensionELm6EE2atEm>:
  409282:	55                   	push   %rbp
  409283:	48 89 e5             	mov    %rsp,%rbp
  409286:	48 83 ec 10          	sub    $0x10,%rsp
  40928a:	48 89 7d f8          	mov    %rdi,-0x8(%rbp)
  40928e:	48 89 75 f0          	mov    %rsi,-0x10(%rbp)
  409292:	48 83 7d f0 05       	cmpq   $0x5,-0x10(%rbp)
  409297:	77 15                	ja     4092ae <_ZNKSt5arrayIN11arm_compute6Window9DimensionELm6EE2atEm+0x2c>
  409299:	48 8b 45 f8          	mov    -0x8(%rbp),%rax
  40929d:	48 8b 55 f0          	mov    -0x10(%rbp),%rdx
  4092a1:	48 89 d6             	mov    %rdx,%rsi
  4092a4:	48 89 c7             	mov    %rax,%rdi
  4092a7:	e8 af ff ff ff       	callq  40925b <_ZNSt14__array_traitsIN11arm_compute6Window9DimensionELm6EE6_S_refERA6_KS2_m>
  4092ac:	eb 1b                	jmp    4092c9 <_ZNKSt5arrayIN11arm_compute6Window9DimensionELm6EE2atEm+0x47>
  4092ae:	48 8b 45 f0          	mov    -0x10(%rbp),%rax
  4092b2:	ba 06 00 00 00       	mov    $0x6,%edx
  4092b7:	48 89 c6             	mov    %rax,%rsi
  4092ba:	bf 38 4b 41 00       	mov    $0x414b38,%edi
  4092bf:	b8 00 00 00 00       	mov    $0x0,%eax
  4092c4:	e8 77 ce ff ff       	callq  406140 <_ZSt24__throw_out_of_range_fmtPKcz@plt>
  4092c9:	c9                   	leaveq 
  4092ca:	c3                   	retq   
  4092cb:	90                   	nop

00000000004092cc <_ZNK11arm_compute6WindowixEm>:
  4092cc:	55                   	push   %rbp
  4092cd:	48 89 e5             	mov    %rsp,%rbp
  4092d0:	48 83 ec 10          	sub    $0x10,%rsp
  4092d4:	48 89 7d f8          	mov    %rdi,-0x8(%rbp)
  4092d8:	48 89 75 f0          	mov    %rsi,-0x10(%rbp)
  4092dc:	48 8b 45 f8          	mov    -0x8(%rbp),%rax
  4092e0:	48 8b 55 f0          	mov    -0x10(%rbp),%rdx
  4092e4:	48 89 d6             	mov    %rdx,%rsi
  4092e7:	48 89 c7             	mov    %rax,%rdi
  4092ea:	e8 93 ff ff ff       	callq  409282 <_ZNKSt5arrayIN11arm_compute6Window9DimensionELm6EE2atEm>
  4092ef:	c9                   	leaveq 
  4092f0:	c3                   	retq   
  4092f1:	90                   	nop

00000000004092f2 <_ZN11arm_compute6Window3setEmRKNS0_9DimensionE>:
  4092f2:	55                   	push   %rbp
  4092f3:	48 89 e5             	mov    %rsp,%rbp
  4092f6:	48 83 ec 20          	sub    $0x20,%rsp
  4092fa:	48 89 7d f8          	mov    %rdi,-0x8(%rbp)
  4092fe:	48 89 75 f0          	mov    %rsi,-0x10(%rbp)
  409302:	48 89 55 e8          	mov    %rdx,-0x18(%rbp)
  409306:	48 8b 45 f8          	mov    -0x8(%rbp),%rax
  40930a:	48 8b 55 f0          	mov    -0x10(%rbp),%rdx
  40930e:	48 89 d6             	mov    %rdx,%rsi
  409311:	48 89 c7             	mov    %rax,%rdi
  409314:	e8 c3 20 00 00       	callq  40b3dc <_ZNSt5arrayIN11arm_compute6Window9DimensionELm6EEixEm>
  409319:	48 89 c2             	mov    %rax,%rdx
  40931c:	48 8b 45 e8          	mov    -0x18(%rbp),%rax
  409320:	48 8b 08             	mov    (%rax),%rcx
  409323:	48 89 0a             	mov    %rcx,(%rdx)
  409326:	8b 40 08             	mov    0x8(%rax),%eax
  409329:	89 42 08             	mov    %eax,0x8(%rdx)
  40932c:	90                   	nop
  40932d:	c9                   	leaveq 
  40932e:	c3                   	retq   
  40932f:	90                   	nop

0000000000409330 <_ZNK11arm_compute6Window8validateEv>:
  409330:	55                   	push   %rbp
  409331:	48 89 e5             	mov    %rsp,%rbp
  409334:	48 89 7d e8          	mov    %rdi,-0x18(%rbp)
  409338:	48 c7 45 f8 00 00 00 	movq   $0x0,-0x8(%rbp)
  40933f:	00 
  409340:	48 83 7d f8 05       	cmpq   $0x5,-0x8(%rbp)
  409345:	77 07                	ja     40934e <_ZNK11arm_compute6Window8validateEv+0x1e>
  409347:	48 83 45 f8 01       	addq   $0x1,-0x8(%rbp)
  40934c:	eb f2                	jmp    409340 <_ZNK11arm_compute6Window8validateEv+0x10>
  40934e:	90                   	nop
  40934f:	5d                   	pop    %rbp
  409350:	c3                   	retq   
  409351:	90                   	nop

0000000000409352 <_ZN11arm_compute6Window21use_tensor_dimensionsERKNS_11TensorShapeEm>:
  409352:	55                   	push   %rbp
  409353:	48 89 e5             	mov    %rsp,%rbp
  409356:	48 83 ec 50          	sub    $0x50,%rsp
  40935a:	48 89 7d c8          	mov    %rdi,-0x38(%rbp)
  40935e:	48 89 75 c0          	mov    %rsi,-0x40(%rbp)
  409362:	48 89 55 b8          	mov    %rdx,-0x48(%rbp)
  409366:	64 48 8b 04 25 28 00 	mov    %fs:0x28,%rax
  40936d:	00 00 
  40936f:	48 89 45 f8          	mov    %rax,-0x8(%rbp)
  409373:	31 c0                	xor    %eax,%eax
  409375:	48 8b 45 b8          	mov    -0x48(%rbp),%rax
  409379:	89 45 dc             	mov    %eax,-0x24(%rbp)
  40937c:	48 8b 45 c0          	mov    -0x40(%rbp),%rax
  409380:	48 89 c7             	mov    %rax,%rdi
  409383:	e8 88 1f 00 00       	callq  40b310 <_ZNK11arm_compute10DimensionsImE14num_dimensionsEv>
  409388:	3b 45 dc             	cmp    -0x24(%rbp),%eax
  40938b:	0f 97 c0             	seta   %al
  40938e:	84 c0                	test   %al,%al
  409390:	74 63                	je     4093f5 <_ZN11arm_compute6Window21use_tensor_dimensionsERKNS_11TensorShapeEm+0xa3>
  409392:	48 c7 45 e0 01 00 00 	movq   $0x1,-0x20(%rbp)
  409399:	00 
  40939a:	8b 55 dc             	mov    -0x24(%rbp),%edx
  40939d:	48 8b 45 c0          	mov    -0x40(%rbp),%rax
  4093a1:	48 89 d6             	mov    %rdx,%rsi
  4093a4:	48 89 c7             	mov    %rax,%rdi
  4093a7:	e8 0a 20 00 00       	callq  40b3b6 <_ZNK11arm_compute10DimensionsImEixEm>
  4093ac:	48 89 c2             	mov    %rax,%rdx
  4093af:	48 8d 45 e0          	lea    -0x20(%rbp),%rax
  4093b3:	48 89 c6             	mov    %rax,%rsi
  4093b6:	48 89 d7             	mov    %rdx,%rdi
  4093b9:	e8 43 20 00 00       	callq  40b401 <_ZSt3maxImERKT_S2_S2_>
  4093be:	48 8b 00             	mov    (%rax),%rax
  4093c1:	89 c2                	mov    %eax,%edx
  4093c3:	48 8d 45 ec          	lea    -0x14(%rbp),%rax
  4093c7:	b9 01 00 00 00       	mov    $0x1,%ecx
  4093cc:	be 00 00 00 00       	mov    $0x0,%esi
  4093d1:	48 89 c7             	mov    %rax,%rdi
  4093d4:	e8 1d fe ff ff       	callq  4091f6 <_ZN11arm_compute6Window9DimensionC1Eiii>
  4093d9:	8b 4d dc             	mov    -0x24(%rbp),%ecx
  4093dc:	48 8d 55 ec          	lea    -0x14(%rbp),%rdx
  4093e0:	48 8b 45 c8          	mov    -0x38(%rbp),%rax
  4093e4:	48 89 ce             	mov    %rcx,%rsi
  4093e7:	48 89 c7             	mov    %rax,%rdi
  4093ea:	e8 03 ff ff ff       	callq  4092f2 <_ZN11arm_compute6Window3setEmRKNS0_9DimensionE>
  4093ef:	83 45 dc 01          	addl   $0x1,-0x24(%rbp)
  4093f3:	eb 87                	jmp    40937c <_ZN11arm_compute6Window21use_tensor_dimensionsERKNS_11TensorShapeEm+0x2a>
  4093f5:	90                   	nop
  4093f6:	48 8b 45 f8          	mov    -0x8(%rbp),%rax
  4093fa:	64 48 33 04 25 28 00 	xor    %fs:0x28,%rax
  409401:	00 00 
  409403:	74 05                	je     40940a <_ZN11arm_compute6Window21use_tensor_dimensionsERKNS_11TensorShapeEm+0xb8>
  409405:	e8 c6 cb ff ff       	callq  405fd0 <__stack_chk_fail@plt>
  40940a:	c9                   	leaveq 
  40940b:	c3                   	retq   

000000000040940c <_ZNK11arm_compute10TensorInfo9dimensionEm>:
  40940c:	55                   	push   %rbp
  40940d:	48 89 e5             	mov    %rsp,%rbp
  409410:	48 83 ec 10          	sub    $0x10,%rsp
  409414:	48 89 7d f8          	mov    %rdi,-0x8(%rbp)
  409418:	48 89 75 f0          	mov    %rsi,-0x10(%rbp)
  40941c:	48 8b 45 f8          	mov    -0x8(%rbp),%rax
  409420:	48 8d 50 60          	lea    0x60(%rax),%rdx
  409424:	48 8b 45 f0          	mov    -0x10(%rbp),%rax
  409428:	48 89 c6             	mov    %rax,%rsi
  40942b:	48 89 d7             	mov    %rdx,%rdi
  40942e:	e8 83 1f 00 00       	callq  40b3b6 <_ZNK11arm_compute10DimensionsImEixEm>
  409433:	48 8b 00             	mov    (%rax),%rax
  409436:	c9                   	leaveq 
  409437:	c3                   	retq   

0000000000409438 <_ZNK11arm_compute10TensorInfo14num_dimensionsEv>:
  409438:	55                   	push   %rbp
  409439:	48 89 e5             	mov    %rsp,%rbp
  40943c:	48 83 ec 10          	sub    $0x10,%rsp
  409440:	48 89 7d f8          	mov    %rdi,-0x8(%rbp)
  409444:	48 8b 45 f8          	mov    -0x8(%rbp),%rax
  409448:	48 83 c0 60          	add    $0x60,%rax
  40944c:	48 89 c7             	mov    %rax,%rdi
  40944f:	e8 bc 1e 00 00       	callq  40b310 <_ZNK11arm_compute10DimensionsImE14num_dimensionsEv>
  409454:	89 c0                	mov    %eax,%eax
  409456:	c9                   	leaveq 
  409457:	c3                   	retq   

0000000000409458 <_ZNK11arm_compute10TensorInfo12num_channelsEv>:
  409458:	55                   	push   %rbp
  409459:	48 89 e5             	mov    %rsp,%rbp
  40945c:	48 89 7d f8          	mov    %rdi,-0x8(%rbp)
  409460:	48 8b 45 f8          	mov    -0x8(%rbp),%rax
  409464:	48 8b 40 58          	mov    0x58(%rax),%rax
  409468:	5d                   	pop    %rbp
  409469:	c3                   	retq   

000000000040946a <_ZNK11arm_compute10TensorInfo12tensor_shapeEv>:
  40946a:	55                   	push   %rbp
  40946b:	48 89 e5             	mov    %rsp,%rbp
  40946e:	48 89 7d f8          	mov    %rdi,-0x8(%rbp)
  409472:	48 8b 45 f8          	mov    -0x8(%rbp),%rax
  409476:	48 83 c0 60          	add    $0x60,%rax
  40947a:	5d                   	pop    %rbp
  40947b:	c3                   	retq   

000000000040947c <_ZNSt5arrayIN11arm_compute8Iterator9DimensionELm6EEC1Ev>:
  40947c:	55                   	push   %rbp
  40947d:	48 89 e5             	mov    %rsp,%rbp
  409480:	48 89 7d f8          	mov    %rdi,-0x8(%rbp)
  409484:	48 8b 45 f8          	mov    -0x8(%rbp),%rax
  409488:	b9 30 00 00 00       	mov    $0x30,%ecx
  40948d:	be 00 00 00 00       	mov    $0x0,%esi
  409492:	48 89 30             	mov    %rsi,(%rax)
  409495:	89 ca                	mov    %ecx,%edx
  409497:	48 01 c2             	add    %rax,%rdx
  40949a:	48 83 c2 08          	add    $0x8,%rdx
  40949e:	48 89 72 f0          	mov    %rsi,-0x10(%rdx)
  4094a2:	48 8d 50 08          	lea    0x8(%rax),%rdx
  4094a6:	48 83 e2 f8          	and    $0xfffffffffffffff8,%rdx
  4094aa:	48 29 d0             	sub    %rdx,%rax
  4094ad:	01 c1                	add    %eax,%ecx
  4094af:	83 e1 f8             	and    $0xfffffff8,%ecx
  4094b2:	89 c8                	mov    %ecx,%eax
  4094b4:	c1 e8 03             	shr    $0x3,%eax
  4094b7:	89 c1                	mov    %eax,%ecx
  4094b9:	48 89 d7             	mov    %rdx,%rdi
  4094bc:	48 89 f0             	mov    %rsi,%rax
  4094bf:	f3 48 ab             	rep stos %rax,%es:(%rdi)
  4094c2:	90                   	nop
  4094c3:	5d                   	pop    %rbp
  4094c4:	c3                   	retq   
  4094c5:	90                   	nop

00000000004094c6 <_ZN11arm_compute8IteratorC1Ev>:
  4094c6:	55                   	push   %rbp
  4094c7:	48 89 e5             	mov    %rsp,%rbp
  4094ca:	48 83 ec 10          	sub    $0x10,%rsp
  4094ce:	48 89 7d f8          	mov    %rdi,-0x8(%rbp)
  4094d2:	48 8b 45 f8          	mov    -0x8(%rbp),%rax
  4094d6:	48 c7 00 00 00 00 00 	movq   $0x0,(%rax)
  4094dd:	48 8b 45 f8          	mov    -0x8(%rbp),%rax
  4094e1:	48 8d 50 08          	lea    0x8(%rax),%rdx
  4094e5:	b8 00 00 00 00       	mov    $0x0,%eax
  4094ea:	b9 06 00 00 00       	mov    $0x6,%ecx
  4094ef:	48 89 d7             	mov    %rdx,%rdi
  4094f2:	f3 48 ab             	rep stos %rax,%es:(%rdi)
  4094f5:	48 8b 45 f8          	mov    -0x8(%rbp),%rax
  4094f9:	48 83 c0 08          	add    $0x8,%rax
  4094fd:	48 89 c7             	mov    %rax,%rdi
  409500:	e8 77 ff ff ff       	callq  40947c <_ZNSt5arrayIN11arm_compute8Iterator9DimensionELm6EEC1Ev>
  409505:	90                   	nop
  409506:	c9                   	leaveq 
  409507:	c3                   	retq   

0000000000409508 <_ZNSt14__array_traitsIN11arm_compute8Iterator9DimensionELm6EE6_S_refERA6_KS2_m>:
  409508:	55                   	push   %rbp
  409509:	48 89 e5             	mov    %rsp,%rbp
  40950c:	48 89 7d f8          	mov    %rdi,-0x8(%rbp)
  409510:	48 89 75 f0          	mov    %rsi,-0x10(%rbp)
  409514:	48 8b 45 f0          	mov    -0x10(%rbp),%rax
  409518:	48 8d 14 c5 00 00 00 	lea    0x0(,%rax,8),%rdx
  40951f:	00 
  409520:	48 8b 45 f8          	mov    -0x8(%rbp),%rax
  409524:	48 01 d0             	add    %rdx,%rax
  409527:	5d                   	pop    %rbp
  409528:	c3                   	retq   

0000000000409529 <_ZSt3getILm0EN11arm_compute8Iterator9DimensionELm6EERT0_RSt5arrayIS3_XT1_EE>:
  409529:	55                   	push   %rbp
  40952a:	48 89 e5             	mov    %rsp,%rbp
  40952d:	48 83 ec 10          	sub    $0x10,%rsp
  409531:	48 89 7d f8          	mov    %rdi,-0x8(%rbp)
  409535:	48 8b 45 f8          	mov    -0x8(%rbp),%rax
  409539:	be 00 00 00 00       	mov    $0x0,%esi
  40953e:	48 89 c7             	mov    %rax,%rdi
  409541:	e8 c2 ff ff ff       	callq  409508 <_ZNSt14__array_traitsIN11arm_compute8Iterator9DimensionELm6EE6_S_refERA6_KS2_m>
  409546:	c9                   	leaveq 
  409547:	c3                   	retq   

0000000000409548 <_ZN11arm_compute8IteratorC1EPKNS_7ITensorERKNS_6WindowE>:
  409548:	55                   	push   %rbp
  409549:	48 89 e5             	mov    %rsp,%rbp
  40954c:	41 54                	push   %r12
  40954e:	53                   	push   %rbx
  40954f:	48 83 ec 40          	sub    $0x40,%rsp
  409553:	48 89 7d c8          	mov    %rdi,-0x38(%rbp)
  409557:	48 89 75 c0          	mov    %rsi,-0x40(%rbp)
  40955b:	48 89 55 b8          	mov    %rdx,-0x48(%rbp)
  40955f:	48 8b 45 c8          	mov    -0x38(%rbp),%rax
  409563:	48 89 c7             	mov    %rax,%rdi
  409566:	e8 5b ff ff ff       	callq  4094c6 <_ZN11arm_compute8IteratorC1Ev>
  40956b:	48 8b 45 c0          	mov    -0x40(%rbp),%rax
  40956f:	48 8b 00             	mov    (%rax),%rax
  409572:	48 8b 00             	mov    (%rax),%rax
  409575:	48 8b 55 c0          	mov    -0x40(%rbp),%rdx
  409579:	48 89 d7             	mov    %rdx,%rdi
  40957c:	ff d0                	callq  *%rax
  40957e:	48 89 45 e0          	mov    %rax,-0x20(%rbp)
  409582:	48 8b 45 e0          	mov    -0x20(%rbp),%rax
  409586:	48 8b 00             	mov    (%rax),%rax
  409589:	48 83 c0 68          	add    $0x68,%rax
  40958d:	48 8b 00             	mov    (%rax),%rax
  409590:	48 8b 55 e0          	mov    -0x20(%rbp),%rdx
  409594:	48 89 d7             	mov    %rdx,%rdi
  409597:	ff d0                	callq  *%rax
  409599:	48 89 45 e8          	mov    %rax,-0x18(%rbp)
  40959d:	48 8b 45 c0          	mov    -0x40(%rbp),%rax
  4095a1:	48 8b 00             	mov    (%rax),%rax
  4095a4:	48 83 c0 20          	add    $0x20,%rax
  4095a8:	48 8b 00             	mov    (%rax),%rax
  4095ab:	48 8b 55 c0          	mov    -0x40(%rbp),%rdx
  4095af:	48 89 d7             	mov    %rdx,%rdi
  4095b2:	ff d0                	callq  *%rax
  4095b4:	48 89 c3             	mov    %rax,%rbx
  4095b7:	48 8b 45 e0          	mov    -0x20(%rbp),%rax
  4095bb:	48 8b 00             	mov    (%rax),%rax
  4095be:	48 83 c0 70          	add    $0x70,%rax
  4095c2:	48 8b 00             	mov    (%rax),%rax
  4095c5:	48 8b 55 e0          	mov    -0x20(%rbp),%rdx
  4095c9:	48 89 d7             	mov    %rdx,%rdi
  4095cc:	ff d0                	callq  *%rax
  4095ce:	48 8d 14 03          	lea    (%rbx,%rax,1),%rdx
  4095d2:	48 8b 45 c8          	mov    -0x38(%rbp),%rax
  4095d6:	48 89 10             	mov    %rdx,(%rax)
  4095d9:	c7 45 d8 00 00 00 00 	movl   $0x0,-0x28(%rbp)
  4095e0:	8b 5d d8             	mov    -0x28(%rbp),%ebx
  4095e3:	48 8b 45 e0          	mov    -0x20(%rbp),%rax
  4095e7:	48 8b 00             	mov    (%rax),%rax
  4095ea:	48 05 90 00 00 00    	add    $0x90,%rax
  4095f0:	48 8b 00             	mov    (%rax),%rax
  4095f3:	48 8b 55 e0          	mov    -0x20(%rbp),%rdx
  4095f7:	48 89 d7             	mov    %rdx,%rdi
  4095fa:	ff d0                	callq  *%rax
  4095fc:	48 39 c3             	cmp    %rax,%rbx
  4095ff:	0f 92 c0             	setb   %al
  409602:	84 c0                	test   %al,%al
  409604:	0f 84 ac 00 00 00    	je     4096b6 <_ZN11arm_compute8IteratorC1EPKNS_7ITensorERKNS_6WindowE+0x16e>
  40960a:	8b 45 d8             	mov    -0x28(%rbp),%eax
  40960d:	48 8b 55 c8          	mov    -0x38(%rbp),%rdx
  409611:	48 83 c2 08          	add    $0x8,%rdx
  409615:	48 89 c6             	mov    %rax,%rsi
  409618:	48 89 d7             	mov    %rdx,%rdi
  40961b:	e8 0c 1e 00 00       	callq  40b42c <_ZNSt5arrayIN11arm_compute8Iterator9DimensionELm6EEixEm>
  409620:	48 89 c3             	mov    %rax,%rbx
  409623:	8b 55 d8             	mov    -0x28(%rbp),%edx
  409626:	48 8b 45 b8          	mov    -0x48(%rbp),%rax
  40962a:	48 89 d6             	mov    %rdx,%rsi
  40962d:	48 89 c7             	mov    %rax,%rdi
  409630:	e8 97 fc ff ff       	callq  4092cc <_ZNK11arm_compute6WindowixEm>
  409635:	48 89 c7             	mov    %rax,%rdi
  409638:	e8 0d fc ff ff       	callq  40924a <_ZNK11arm_compute6Window9Dimension4stepEv>
  40963d:	48 98                	cltq   
  40963f:	41 89 c4             	mov    %eax,%r12d
  409642:	8b 55 d8             	mov    -0x28(%rbp),%edx
  409645:	48 8b 45 e8          	mov    -0x18(%rbp),%rax
  409649:	48 89 d6             	mov    %rdx,%rsi
  40964c:	48 89 c7             	mov    %rax,%rdi
  40964f:	e8 62 1d 00 00       	callq  40b3b6 <_ZNK11arm_compute10DimensionsImEixEm>
  409654:	48 8b 00             	mov    (%rax),%rax
  409657:	41 0f af c4          	imul   %r12d,%eax
  40965b:	89 43 04             	mov    %eax,0x4(%rbx)
  40965e:	8b 55 d8             	mov    -0x28(%rbp),%edx
  409661:	48 8b 45 e8          	mov    -0x18(%rbp),%rax
  409665:	48 89 d6             	mov    %rdx,%rsi
  409668:	48 89 c7             	mov    %rax,%rdi
  40966b:	e8 46 1d 00 00       	callq  40b3b6 <_ZNK11arm_compute10DimensionsImEixEm>
  409670:	48 8b 18             	mov    (%rax),%rbx
  409673:	8b 55 d8             	mov    -0x28(%rbp),%edx
  409676:	48 8b 45 b8          	mov    -0x48(%rbp),%rax
  40967a:	48 89 d6             	mov    %rdx,%rsi
  40967d:	48 89 c7             	mov    %rax,%rdi
  409680:	e8 47 fc ff ff       	callq  4092cc <_ZNK11arm_compute6WindowixEm>
  409685:	48 89 c7             	mov    %rax,%rdi
  409688:	e8 9b fb ff ff       	callq  409228 <_ZNK11arm_compute6Window9Dimension5startEv>
  40968d:	48 98                	cltq   
  40968f:	48 0f af d8          	imul   %rax,%rbx
  409693:	48 8b 45 c8          	mov    -0x38(%rbp),%rax
  409697:	48 83 c0 08          	add    $0x8,%rax
  40969b:	48 89 c7             	mov    %rax,%rdi
  40969e:	e8 86 fe ff ff       	callq  409529 <_ZSt3getILm0EN11arm_compute8Iterator9DimensionELm6EERT0_RSt5arrayIS3_XT1_EE>
  4096a3:	8b 10                	mov    (%rax),%edx
  4096a5:	89 d1                	mov    %edx,%ecx
  4096a7:	89 da                	mov    %ebx,%edx
  4096a9:	01 ca                	add    %ecx,%edx
  4096ab:	89 10                	mov    %edx,(%rax)
  4096ad:	83 45 d8 01          	addl   $0x1,-0x28(%rbp)
  4096b1:	e9 2a ff ff ff       	jmpq   4095e0 <_ZN11arm_compute8IteratorC1EPKNS_7ITensorERKNS_6WindowE+0x98>
  4096b6:	c7 45 dc 01 00 00 00 	movl   $0x1,-0x24(%rbp)
  4096bd:	83 7d dc 05          	cmpl   $0x5,-0x24(%rbp)
  4096c1:	77 33                	ja     4096f6 <_ZN11arm_compute8IteratorC1EPKNS_7ITensorERKNS_6WindowE+0x1ae>
  4096c3:	8b 45 dc             	mov    -0x24(%rbp),%eax
  4096c6:	48 8b 55 c8          	mov    -0x38(%rbp),%rdx
  4096ca:	48 83 c2 08          	add    $0x8,%rdx
  4096ce:	48 89 c6             	mov    %rax,%rsi
  4096d1:	48 89 d7             	mov    %rdx,%rdi
  4096d4:	e8 53 1d 00 00       	callq  40b42c <_ZNSt5arrayIN11arm_compute8Iterator9DimensionELm6EEixEm>
  4096d9:	48 89 c3             	mov    %rax,%rbx
  4096dc:	48 8b 45 c8          	mov    -0x38(%rbp),%rax
  4096e0:	48 83 c0 08          	add    $0x8,%rax
  4096e4:	48 89 c7             	mov    %rax,%rdi
  4096e7:	e8 3d fe ff ff       	callq  409529 <_ZSt3getILm0EN11arm_compute8Iterator9DimensionELm6EERT0_RSt5arrayIS3_XT1_EE>
  4096ec:	8b 00                	mov    (%rax),%eax
  4096ee:	89 03                	mov    %eax,(%rbx)
  4096f0:	83 45 dc 01          	addl   $0x1,-0x24(%rbp)
  4096f4:	eb c7                	jmp    4096bd <_ZN11arm_compute8IteratorC1EPKNS_7ITensorERKNS_6WindowE+0x175>
  4096f6:	90                   	nop
  4096f7:	48 83 c4 40          	add    $0x40,%rsp
  4096fb:	5b                   	pop    %rbx
  4096fc:	41 5c                	pop    %r12
  4096fe:	5d                   	pop    %rbp
  4096ff:	c3                   	retq   

0000000000409700 <_ZN11arm_compute8Iterator9incrementEm>:
  409700:	55                   	push   %rbp
  409701:	48 89 e5             	mov    %rsp,%rbp
  409704:	53                   	push   %rbx
  409705:	48 83 ec 28          	sub    $0x28,%rsp
  409709:	48 89 7d d8          	mov    %rdi,-0x28(%rbp)
  40970d:	48 89 75 d0          	mov    %rsi,-0x30(%rbp)
  409711:	48 8b 45 d8          	mov    -0x28(%rbp),%rax
  409715:	48 8d 50 08          	lea    0x8(%rax),%rdx
  409719:	48 8b 45 d0          	mov    -0x30(%rbp),%rax
  40971d:	48 89 c6             	mov    %rax,%rsi
  409720:	48 89 d7             	mov    %rdx,%rdi
  409723:	e8 04 1d 00 00       	callq  40b42c <_ZNSt5arrayIN11arm_compute8Iterator9DimensionELm6EEixEm>
  409728:	8b 58 04             	mov    0x4(%rax),%ebx
  40972b:	48 8b 45 d8          	mov    -0x28(%rbp),%rax
  40972f:	48 8d 50 08          	lea    0x8(%rax),%rdx
  409733:	48 8b 45 d0          	mov    -0x30(%rbp),%rax
  409737:	48 89 c6             	mov    %rax,%rsi
  40973a:	48 89 d7             	mov    %rdx,%rdi
  40973d:	e8 ea 1c 00 00       	callq  40b42c <_ZNSt5arrayIN11arm_compute8Iterator9DimensionELm6EEixEm>
  409742:	8b 10                	mov    (%rax),%edx
  409744:	01 da                	add    %ebx,%edx
  409746:	89 10                	mov    %edx,(%rax)
  409748:	c7 45 ec 00 00 00 00 	movl   $0x0,-0x14(%rbp)
  40974f:	8b 45 ec             	mov    -0x14(%rbp),%eax
  409752:	48 3b 45 d0          	cmp    -0x30(%rbp),%rax
  409756:	73 3a                	jae    409792 <_ZN11arm_compute8Iterator9incrementEm+0x92>
  409758:	8b 45 ec             	mov    -0x14(%rbp),%eax
  40975b:	48 8b 55 d8          	mov    -0x28(%rbp),%rdx
  40975f:	48 83 c2 08          	add    $0x8,%rdx
  409763:	48 89 c6             	mov    %rax,%rsi
  409766:	48 89 d7             	mov    %rdx,%rdi
  409769:	e8 be 1c 00 00       	callq  40b42c <_ZNSt5arrayIN11arm_compute8Iterator9DimensionELm6EEixEm>
  40976e:	48 89 c3             	mov    %rax,%rbx
  409771:	48 8b 45 d8          	mov    -0x28(%rbp),%rax
  409775:	48 8d 50 08          	lea    0x8(%rax),%rdx
  409779:	48 8b 45 d0          	mov    -0x30(%rbp),%rax
  40977d:	48 89 c6             	mov    %rax,%rsi
  409780:	48 89 d7             	mov    %rdx,%rdi
  409783:	e8 a4 1c 00 00       	callq  40b42c <_ZNSt5arrayIN11arm_compute8Iterator9DimensionELm6EEixEm>
  409788:	8b 00                	mov    (%rax),%eax
  40978a:	89 03                	mov    %eax,(%rbx)
  40978c:	83 45 ec 01          	addl   $0x1,-0x14(%rbp)
  409790:	eb bd                	jmp    40974f <_ZN11arm_compute8Iterator9incrementEm+0x4f>
  409792:	90                   	nop
  409793:	48 83 c4 28          	add    $0x28,%rsp
  409797:	5b                   	pop    %rbx
  409798:	5d                   	pop    %rbp
  409799:	c3                   	retq   

000000000040979a <_ZNKSt5arrayIN11arm_compute8Iterator9DimensionELm6EE2atEm>:
  40979a:	55                   	push   %rbp
  40979b:	48 89 e5             	mov    %rsp,%rbp
  40979e:	48 83 ec 10          	sub    $0x10,%rsp
  4097a2:	48 89 7d f8          	mov    %rdi,-0x8(%rbp)
  4097a6:	48 89 75 f0          	mov    %rsi,-0x10(%rbp)
  4097aa:	48 83 7d f0 05       	cmpq   $0x5,-0x10(%rbp)
  4097af:	77 15                	ja     4097c6 <_ZNKSt5arrayIN11arm_compute8Iterator9DimensionELm6EE2atEm+0x2c>
  4097b1:	48 8b 45 f8          	mov    -0x8(%rbp),%rax
  4097b5:	48 8b 55 f0          	mov    -0x10(%rbp),%rdx
  4097b9:	48 89 d6             	mov    %rdx,%rsi
  4097bc:	48 89 c7             	mov    %rax,%rdi
  4097bf:	e8 44 fd ff ff       	callq  409508 <_ZNSt14__array_traitsIN11arm_compute8Iterator9DimensionELm6EE6_S_refERA6_KS2_m>
  4097c4:	eb 1b                	jmp    4097e1 <_ZNKSt5arrayIN11arm_compute8Iterator9DimensionELm6EE2atEm+0x47>
  4097c6:	48 8b 45 f0          	mov    -0x10(%rbp),%rax
  4097ca:	ba 06 00 00 00       	mov    $0x6,%edx
  4097cf:	48 89 c6             	mov    %rax,%rsi
  4097d2:	bf 38 4b 41 00       	mov    $0x414b38,%edi
  4097d7:	b8 00 00 00 00       	mov    $0x0,%eax
  4097dc:	e8 5f c9 ff ff       	callq  406140 <_ZSt24__throw_out_of_range_fmtPKcz@plt>
  4097e1:	c9                   	leaveq 
  4097e2:	c3                   	retq   
  4097e3:	90                   	nop

00000000004097e4 <_ZNK11arm_compute8Iterator3ptrEv>:
  4097e4:	55                   	push   %rbp
  4097e5:	48 89 e5             	mov    %rsp,%rbp
  4097e8:	53                   	push   %rbx
  4097e9:	48 83 ec 18          	sub    $0x18,%rsp
  4097ed:	48 89 7d e8          	mov    %rdi,-0x18(%rbp)
  4097f1:	48 8b 45 e8          	mov    -0x18(%rbp),%rax
  4097f5:	48 8b 18             	mov    (%rax),%rbx
  4097f8:	48 8b 45 e8          	mov    -0x18(%rbp),%rax
  4097fc:	48 83 c0 08          	add    $0x8,%rax
  409800:	be 00 00 00 00       	mov    $0x0,%esi
  409805:	48 89 c7             	mov    %rax,%rdi
  409808:	e8 8d ff ff ff       	callq  40979a <_ZNKSt5arrayIN11arm_compute8Iterator9DimensionELm6EE2atEm>
  40980d:	8b 00                	mov    (%rax),%eax
  40980f:	48 98                	cltq   
  409811:	48 01 d8             	add    %rbx,%rax
  409814:	48 83 c4 18          	add    $0x18,%rsp
  409818:	5b                   	pop    %rbx
  409819:	5d                   	pop    %rbp
  40981a:	c3                   	retq   
  40981b:	90                   	nop

000000000040981c <_ZN11arm_compute11CLScheduler12default_initEPNS_8ICLTunerE>:
  40981c:	55                   	push   %rbp
  40981d:	48 89 e5             	mov    %rsp,%rbp
  409820:	53                   	push   %rbx
  409821:	48 83 ec 68          	sub    $0x68,%rsp
  409825:	48 89 7d 98          	mov    %rdi,-0x68(%rbp)
  409829:	48 89 75 90          	mov    %rsi,-0x70(%rbp)
  40982d:	64 48 8b 04 25 28 00 	mov    %fs:0x28,%rax
  409834:	00 00 
  409836:	48 89 45 e8          	mov    %rax,-0x18(%rbp)
  40983a:	31 c0                	xor    %eax,%eax
  40983c:	48 8b 45 98          	mov    -0x68(%rbp),%rax
  409840:	0f b6 40 14          	movzbl 0x14(%rax),%eax
  409844:	83 f0 01             	xor    $0x1,%eax
  409847:	84 c0                	test   %al,%al
  409849:	0f 84 0a 01 00 00    	je     409959 <_ZN11arm_compute11CLScheduler12default_initEPNS_8ICLTunerE+0x13d>
  40984f:	48 8d 45 b0          	lea    -0x50(%rbp),%rax
  409853:	be 00 00 00 00       	mov    $0x0,%esi
  409858:	48 89 c7             	mov    %rax,%rdi
  40985b:	e8 7b e1 ff ff       	callq  4079db <_ZN2cl6Device10getDefaultEPi>
  409860:	48 8d 45 a8          	lea    -0x58(%rbp),%rax
  409864:	be 00 00 00 00       	mov    $0x0,%esi
  409869:	48 89 c7             	mov    %rax,%rdi
  40986c:	e8 a1 ef ff ff       	callq  408812 <_ZN2cl7Context10getDefaultEPi>
  409871:	48 8d 45 a0          	lea    -0x60(%rbp),%rax
  409875:	48 89 c7             	mov    %rax,%rdi
  409878:	e8 d3 c9 ff ff       	callq  406250 <_ZNSaIcEC1Ev@plt>
  40987d:	48 8d 55 a0          	lea    -0x60(%rbp),%rdx
  409881:	48 8d 45 c0          	lea    -0x40(%rbp),%rax
  409885:	be 70 4b 41 00       	mov    $0x414b70,%esi
  40988a:	48 89 c7             	mov    %rax,%rdi
  40988d:	e8 5e c8 ff ff       	callq  4060f0 <_ZNSt7__cxx1112basic_stringIcSt11char_traitsIcESaIcEEC1EPKcRKS3_@plt>
  409892:	e8 69 c6 ff ff       	callq  405f00 <_ZN11arm_compute15CLKernelLibrary3getEv@plt>
  409897:	48 89 c7             	mov    %rax,%rdi
  40989a:	48 8d 4d b0          	lea    -0x50(%rbp),%rcx
  40989e:	48 8d 55 a8          	lea    -0x58(%rbp),%rdx
  4098a2:	48 8d 45 c0          	lea    -0x40(%rbp),%rax
  4098a6:	48 89 c6             	mov    %rax,%rsi
  4098a9:	e8 56 f5 ff ff       	callq  408e04 <_ZN11arm_compute15CLKernelLibrary4initENSt7__cxx1112basic_stringIcSt11char_traitsIcESaIcEEEN2cl7ContextENS7_6DeviceE>
  4098ae:	48 8d 45 c0          	lea    -0x40(%rbp),%rax
  4098b2:	48 89 c7             	mov    %rax,%rdi
  4098b5:	e8 66 c6 ff ff       	callq  405f20 <_ZNSt7__cxx1112basic_stringIcSt11char_traitsIcESaIcEED1Ev@plt>
  4098ba:	48 8d 45 a0          	lea    -0x60(%rbp),%rax
  4098be:	48 89 c7             	mov    %rax,%rdi
  4098c1:	e8 fa c6 ff ff       	callq  405fc0 <_ZNSaIcED1Ev@plt>
  4098c6:	48 8d 45 a8          	lea    -0x58(%rbp),%rax
  4098ca:	48 89 c7             	mov    %rax,%rdi
  4098cd:	e8 a6 e9 ff ff       	callq  408278 <_ZN2cl7ContextD1Ev>
  4098d2:	48 8d 45 b0          	lea    -0x50(%rbp),%rax
  4098d6:	48 89 c7             	mov    %rax,%rdi
  4098d9:	e8 e2 e0 ff ff       	callq  4079c0 <_ZN2cl6DeviceD1Ev>
  4098de:	48 8d 45 b0          	lea    -0x50(%rbp),%rax
