
resizebilinear:     file format elf64-x86-64


Disassembly of section .init:

0000000000402ce8 <_init>:
  402ce8:	48 83 ec 08          	sub    $0x8,%rsp
  402cec:	48 8b 05 05 b3 20 00 	mov    0x20b305(%rip),%rax        # 60dff8 <_DYNAMIC+0x210>
  402cf3:	48 85 c0             	test   %rax,%rax
  402cf6:	74 05                	je     402cfd <_init+0x15>
  402cf8:	e8 53 05 00 00       	callq  403250 <_ZNSaIcED1Ev@plt+0x10>
  402cfd:	48 83 c4 08          	add    $0x8,%rsp
  402d01:	c3                   	retq   

Disassembly of section .plt:

0000000000402d10 <_ZNSt7__cxx1112basic_stringIcSt11char_traitsIcESaIcEEC1ERKS4_@plt-0x10>:
  402d10:	ff 35 f2 b2 20 00    	pushq  0x20b2f2(%rip)        # 60e008 <_GLOBAL_OFFSET_TABLE_+0x8>
  402d16:	ff 25 f4 b2 20 00    	jmpq   *0x20b2f4(%rip)        # 60e010 <_GLOBAL_OFFSET_TABLE_+0x10>
  402d1c:	0f 1f 40 00          	nopl   0x0(%rax)

0000000000402d20 <_ZNSt7__cxx1112basic_stringIcSt11char_traitsIcESaIcEEC1ERKS4_@plt>:
  402d20:	ff 25 f2 b2 20 00    	jmpq   *0x20b2f2(%rip)        # 60e018 <_GLOBAL_OFFSET_TABLE_+0x18>
  402d26:	68 00 00 00 00       	pushq  $0x0
  402d2b:	e9 e0 ff ff ff       	jmpq   402d10 <_init+0x28>

0000000000402d30 <_ZN10tensorflow10RunOptionsD1Ev@plt>:
  402d30:	ff 25 ea b2 20 00    	jmpq   *0x20b2ea(%rip)        # 60e020 <_GLOBAL_OFFSET_TABLE_+0x20>
  402d36:	68 01 00 00 00       	pushq  $0x1
  402d3b:	e9 d0 ff ff ff       	jmpq   402d10 <_init+0x28>

0000000000402d40 <_ZN10tensorflow8internal15LogMessageFatalC1EPKci@plt>:
  402d40:	ff 25 e2 b2 20 00    	jmpq   *0x20b2e2(%rip)        # 60e028 <_GLOBAL_OFFSET_TABLE_+0x28>
  402d46:	68 02 00 00 00       	pushq  $0x2
  402d4b:	e9 c0 ff ff ff       	jmpq   402d10 <_init+0x28>

0000000000402d50 <__assert_fail@plt>:
  402d50:	ff 25 da b2 20 00    	jmpq   *0x20b2da(%rip)        # 60e030 <_GLOBAL_OFFSET_TABLE_+0x30>
  402d56:	68 03 00 00 00       	pushq  $0x3
  402d5b:	e9 b0 ff ff ff       	jmpq   402d10 <_init+0x28>

0000000000402d60 <__stack_chk_fail@plt>:
  402d60:	ff 25 d2 b2 20 00    	jmpq   *0x20b2d2(%rip)        # 60e038 <_GLOBAL_OFFSET_TABLE_+0x38>
  402d66:	68 04 00 00 00       	pushq  $0x4
  402d6b:	e9 a0 ff ff ff       	jmpq   402d10 <_init+0x28>

0000000000402d70 <memset@plt>:
  402d70:	ff 25 ca b2 20 00    	jmpq   *0x20b2ca(%rip)        # 60e040 <_GLOBAL_OFFSET_TABLE_+0x40>
  402d76:	68 05 00 00 00       	pushq  $0x5
  402d7b:	e9 90 ff ff ff       	jmpq   402d10 <_init+0x28>

0000000000402d80 <clock_gettime@plt>:
  402d80:	ff 25 c2 b2 20 00    	jmpq   *0x20b2c2(%rip)        # 60e048 <_GLOBAL_OFFSET_TABLE_+0x48>
  402d86:	68 06 00 00 00       	pushq  $0x6
  402d8b:	e9 80 ff ff ff       	jmpq   402d10 <_init+0x28>

0000000000402d90 <_ZdlPv@plt>:
  402d90:	ff 25 ba b2 20 00    	jmpq   *0x20b2ba(%rip)        # 60e050 <_GLOBAL_OFFSET_TABLE_+0x50>
  402d96:	68 07 00 00 00       	pushq  $0x7
  402d9b:	e9 70 ff ff ff       	jmpq   402d10 <_init+0x28>

0000000000402da0 <xopenme_clock_start@plt>:
  402da0:	ff 25 b2 b2 20 00    	jmpq   *0x20b2b2(%rip)        # 60e058 <_GLOBAL_OFFSET_TABLE_+0x58>
  402da6:	68 08 00 00 00       	pushq  $0x8
  402dab:	e9 60 ff ff ff       	jmpq   402d10 <_init+0x28>

0000000000402db0 <_ZN10tensorflow15TensorShapeBaseINS_11TensorShapeEEC2ESt16initializer_listIxE@plt>:
  402db0:	ff 25 aa b2 20 00    	jmpq   *0x20b2aa(%rip)        # 60e060 <_GLOBAL_OFFSET_TABLE_+0x60>
  402db6:	68 09 00 00 00       	pushq  $0x9
  402dbb:	e9 50 ff ff ff       	jmpq   402d10 <_init+0x28>

0000000000402dc0 <_ZN10tensorflow11RunMetadataD1Ev@plt>:
  402dc0:	ff 25 a2 b2 20 00    	jmpq   *0x20b2a2(%rip)        # 60e068 <_GLOBAL_OFFSET_TABLE_+0x68>
  402dc6:	68 0a 00 00 00       	pushq  $0xa
  402dcb:	e9 40 ff ff ff       	jmpq   402d10 <_init+0x28>

0000000000402dd0 <_ZN10tensorflow6TensorD1Ev@plt>:
  402dd0:	ff 25 9a b2 20 00    	jmpq   *0x20b29a(%rip)        # 60e070 <_GLOBAL_OFFSET_TABLE_+0x70>
  402dd6:	68 0b 00 00 00       	pushq  $0xb
  402ddb:	e9 30 ff ff ff       	jmpq   402d10 <_init+0x28>

0000000000402de0 <__cxa_atexit@plt>:
  402de0:	ff 25 92 b2 20 00    	jmpq   *0x20b292(%rip)        # 60e078 <_GLOBAL_OFFSET_TABLE_+0x78>
  402de6:	68 0c 00 00 00       	pushq  $0xc
  402deb:	e9 20 ff ff ff       	jmpq   402d10 <_init+0x28>

0000000000402df0 <_ZNSaIcEC1Ev@plt>:
  402df0:	ff 25 8a b2 20 00    	jmpq   *0x20b28a(%rip)        # 60e080 <_GLOBAL_OFFSET_TABLE_+0x80>
  402df6:	68 0d 00 00 00       	pushq  $0xd
  402dfb:	e9 10 ff ff ff       	jmpq   402d10 <_init+0x28>

0000000000402e00 <sprintf@plt>:
  402e00:	ff 25 82 b2 20 00    	jmpq   *0x20b282(%rip)        # 60e088 <_GLOBAL_OFFSET_TABLE_+0x88>
  402e06:	68 0e 00 00 00       	pushq  $0xe
  402e0b:	e9 00 ff ff ff       	jmpq   402d10 <_init+0x28>

0000000000402e10 <_ZN10tensorflow6TensorC1ENS_8DataTypeERKNS_11TensorShapeE@plt>:
  402e10:	ff 25 7a b2 20 00    	jmpq   *0x20b27a(%rip)        # 60e090 <_GLOBAL_OFFSET_TABLE_+0x90>
  402e16:	68 0f 00 00 00       	pushq  $0xf
  402e1b:	e9 f0 fe ff ff       	jmpq   402d10 <_init+0x28>

0000000000402e20 <putchar@plt>:
  402e20:	ff 25 72 b2 20 00    	jmpq   *0x20b272(%rip)        # 60e098 <_GLOBAL_OFFSET_TABLE_+0x98>
  402e26:	68 10 00 00 00       	pushq  $0x10
  402e2b:	e9 e0 fe ff ff       	jmpq   402d10 <_init+0x28>

0000000000402e30 <_ZN10tensorflow6TensorC1Ev@plt>:
  402e30:	ff 25 6a b2 20 00    	jmpq   *0x20b26a(%rip)        # 60e0a0 <_GLOBAL_OFFSET_TABLE_+0xa0>
  402e36:	68 11 00 00 00       	pushq  $0x11
  402e3b:	e9 d0 fe ff ff       	jmpq   402d10 <_init+0x28>

0000000000402e40 <printf@plt>:
  402e40:	ff 25 62 b2 20 00    	jmpq   *0x20b262(%rip)        # 60e0a8 <_GLOBAL_OFFSET_TABLE_+0xa8>
  402e46:	68 12 00 00 00       	pushq  $0x12
  402e4b:	e9 c0 fe ff ff       	jmpq   402d10 <_init+0x28>

0000000000402e50 <_ZN10tensorflow6Tensor16CopyFromInternalERKS0_RKNS_11TensorShapeE@plt>:
  402e50:	ff 25 5a b2 20 00    	jmpq   *0x20b25a(%rip)        # 60e0b0 <_GLOBAL_OFFSET_TABLE_+0xb0>
  402e56:	68 13 00 00 00       	pushq  $0x13
  402e5b:	e9 b0 fe ff ff       	jmpq   402d10 <_init+0x28>

0000000000402e60 <_ZN10tensorflow14TensorShapeRep19DestructorOutOfLineEv@plt>:
  402e60:	ff 25 52 b2 20 00    	jmpq   *0x20b252(%rip)        # 60e0b8 <_GLOBAL_OFFSET_TABLE_+0xb8>
  402e66:	68 14 00 00 00       	pushq  $0x14
  402e6b:	e9 a0 fe ff ff       	jmpq   402d10 <_init+0x28>

0000000000402e70 <_ZStlsIcSt11char_traitsIcESaIcEERSt13basic_ostreamIT_T0_ES7_RKNSt7__cxx1112basic_stringIS4_S5_T1_EE@plt>:
  402e70:	ff 25 4a b2 20 00    	jmpq   *0x20b24a(%rip)        # 60e0c0 <_GLOBAL_OFFSET_TABLE_+0xc0>
  402e76:	68 15 00 00 00       	pushq  $0x15
  402e7b:	e9 90 fe ff ff       	jmpq   402d10 <_init+0x28>

0000000000402e80 <_ZNSolsEi@plt>:
  402e80:	ff 25 42 b2 20 00    	jmpq   *0x20b242(%rip)        # 60e0c8 <_GLOBAL_OFFSET_TABLE_+0xc8>
  402e86:	68 16 00 00 00       	pushq  $0x16
  402e8b:	e9 80 fe ff ff       	jmpq   402d10 <_init+0x28>

0000000000402e90 <__gxx_personality_v0@plt>:
  402e90:	ff 25 3a b2 20 00    	jmpq   *0x20b23a(%rip)        # 60e0d0 <_GLOBAL_OFFSET_TABLE_+0xd0>
  402e96:	68 17 00 00 00       	pushq  $0x17
  402e9b:	e9 70 fe ff ff       	jmpq   402d10 <_init+0x28>

0000000000402ea0 <_ZN10tensorflow5ScopeD1Ev@plt>:
  402ea0:	ff 25 32 b2 20 00    	jmpq   *0x20b232(%rip)        # 60e0d8 <_GLOBAL_OFFSET_TABLE_+0xd8>
  402ea6:	68 18 00 00 00       	pushq  $0x18
  402eab:	e9 60 fe ff ff       	jmpq   402d10 <_init+0x28>

0000000000402eb0 <_ZNSt7__cxx1112basic_stringIcSt11char_traitsIcESaIcEED1Ev@plt>:
  402eb0:	ff 25 2a b2 20 00    	jmpq   *0x20b22a(%rip)        # 60e0e0 <_GLOBAL_OFFSET_TABLE_+0xe0>
  402eb6:	68 19 00 00 00       	pushq  $0x19
  402ebb:	e9 50 fe ff ff       	jmpq   402d10 <_init+0x28>

0000000000402ec0 <getenv@plt>:
  402ec0:	ff 25 22 b2 20 00    	jmpq   *0x20b222(%rip)        # 60e0e8 <_GLOBAL_OFFSET_TABLE_+0xe8>
  402ec6:	68 1a 00 00 00       	pushq  $0x1a
  402ecb:	e9 40 fe ff ff       	jmpq   402d10 <_init+0x28>

0000000000402ed0 <_ZN10tensorflow14StatSummarizerD1Ev@plt>:
  402ed0:	ff 25 1a b2 20 00    	jmpq   *0x20b21a(%rip)        # 60e0f0 <_GLOBAL_OFFSET_TABLE_+0xf0>
  402ed6:	68 1b 00 00 00       	pushq  $0x1b
  402edb:	e9 30 fe ff ff       	jmpq   402d10 <_init+0x28>

0000000000402ee0 <_ZN10tensorflow8internal15LogMessageFatalD1Ev@plt>:
  402ee0:	ff 25 12 b2 20 00    	jmpq   *0x20b212(%rip)        # 60e0f8 <_GLOBAL_OFFSET_TABLE_+0xf8>
  402ee6:	68 1c 00 00 00       	pushq  $0x1c
  402eeb:	e9 20 fe ff ff       	jmpq   402d10 <_init+0x28>

0000000000402ef0 <__libc_start_main@plt>:
  402ef0:	ff 25 0a b2 20 00    	jmpq   *0x20b20a(%rip)        # 60e100 <_GLOBAL_OFFSET_TABLE_+0x100>
  402ef6:	68 1d 00 00 00       	pushq  $0x1d
  402efb:	e9 10 fe ff ff       	jmpq   402d10 <_init+0x28>

0000000000402f00 <puts@plt>:
  402f00:	ff 25 02 b2 20 00    	jmpq   *0x20b202(%rip)        # 60e108 <_GLOBAL_OFFSET_TABLE_+0x108>
  402f06:	68 1e 00 00 00       	pushq  $0x1e
  402f0b:	e9 00 fe ff ff       	jmpq   402d10 <_init+0x28>

0000000000402f10 <_ZN10tensorflow5Scope12NewRootScopeEv@plt>:
  402f10:	ff 25 fa b1 20 00    	jmpq   *0x20b1fa(%rip)        # 60e110 <_GLOBAL_OFFSET_TABLE_+0x110>
  402f16:	68 1f 00 00 00       	pushq  $0x1f
  402f1b:	e9 f0 fd ff ff       	jmpq   402d10 <_init+0x28>

0000000000402f20 <srand@plt>:
  402f20:	ff 25 f2 b1 20 00    	jmpq   *0x20b1f2(%rip)        # 60e118 <_GLOBAL_OFFSET_TABLE_+0x118>
  402f26:	68 20 00 00 00       	pushq  $0x20
  402f2b:	e9 e0 fd ff ff       	jmpq   402d10 <_init+0x28>

0000000000402f30 <xopenme_finish@plt>:
  402f30:	ff 25 ea b1 20 00    	jmpq   *0x20b1ea(%rip)        # 60e120 <_GLOBAL_OFFSET_TABLE_+0x120>
  402f36:	68 21 00 00 00       	pushq  $0x21
  402f3b:	e9 d0 fd ff ff       	jmpq   402d10 <_init+0x28>

0000000000402f40 <xopenme_dump_memory@plt>:
  402f40:	ff 25 e2 b1 20 00    	jmpq   *0x20b1e2(%rip)        # 60e128 <_GLOBAL_OFFSET_TABLE_+0x128>
  402f46:	68 22 00 00 00       	pushq  $0x22
  402f4b:	e9 c0 fd ff ff       	jmpq   402d10 <_init+0x28>

0000000000402f50 <_ZNKSt7__cxx1112basic_stringIcSt11char_traitsIcESaIcEE4findEPKcm@plt>:
  402f50:	ff 25 da b1 20 00    	jmpq   *0x20b1da(%rip)        # 60e130 <_GLOBAL_OFFSET_TABLE_+0x130>
  402f56:	68 23 00 00 00       	pushq  $0x23
  402f5b:	e9 b0 fd ff ff       	jmpq   402d10 <_init+0x28>

0000000000402f60 <xopenme_init@plt>:
  402f60:	ff 25 d2 b1 20 00    	jmpq   *0x20b1d2(%rip)        # 60e138 <_GLOBAL_OFFSET_TABLE_+0x138>
  402f66:	68 24 00 00 00       	pushq  $0x24
  402f6b:	e9 a0 fd ff ff       	jmpq   402d10 <_init+0x28>

0000000000402f70 <__cxa_begin_catch@plt>:
  402f70:	ff 25 ca b1 20 00    	jmpq   *0x20b1ca(%rip)        # 60e140 <_GLOBAL_OFFSET_TABLE_+0x140>
  402f76:	68 25 00 00 00       	pushq  $0x25
  402f7b:	e9 90 fd ff ff       	jmpq   402d10 <_init+0x28>

0000000000402f80 <memmove@plt>:
  402f80:	ff 25 c2 b1 20 00    	jmpq   *0x20b1c2(%rip)        # 60e148 <_GLOBAL_OFFSET_TABLE_+0x148>
  402f86:	68 26 00 00 00       	pushq  $0x26
  402f8b:	e9 80 fd ff ff       	jmpq   402d10 <_init+0x28>

0000000000402f90 <atoi@plt>:
  402f90:	ff 25 ba b1 20 00    	jmpq   *0x20b1ba(%rip)        # 60e150 <_GLOBAL_OFFSET_TABLE_+0x150>
  402f96:	68 27 00 00 00       	pushq  $0x27
  402f9b:	e9 70 fd ff ff       	jmpq   402d10 <_init+0x28>

0000000000402fa0 <_ZdaPv@plt>:
  402fa0:	ff 25 b2 b1 20 00    	jmpq   *0x20b1b2(%rip)        # 60e158 <_GLOBAL_OFFSET_TABLE_+0x158>
  402fa6:	68 28 00 00 00       	pushq  $0x28
  402fab:	e9 60 fd ff ff       	jmpq   402d10 <_init+0x28>

0000000000402fb0 <_ZNSolsEl@plt>:
  402fb0:	ff 25 aa b1 20 00    	jmpq   *0x20b1aa(%rip)        # 60e160 <_GLOBAL_OFFSET_TABLE_+0x160>
  402fb6:	68 29 00 00 00       	pushq  $0x29
  402fbb:	e9 50 fd ff ff       	jmpq   402d10 <_init+0x28>

0000000000402fc0 <strlen@plt>:
  402fc0:	ff 25 a2 b1 20 00    	jmpq   *0x20b1a2(%rip)        # 60e168 <_GLOBAL_OFFSET_TABLE_+0x168>
  402fc6:	68 2a 00 00 00       	pushq  $0x2a
  402fcb:	e9 40 fd ff ff       	jmpq   402d10 <_init+0x28>

0000000000402fd0 <xopenme_add_var_i@plt>:
  402fd0:	ff 25 9a b1 20 00    	jmpq   *0x20b19a(%rip)        # 60e170 <_GLOBAL_OFFSET_TABLE_+0x170>
  402fd6:	68 2b 00 00 00       	pushq  $0x2b
  402fdb:	e9 30 fd ff ff       	jmpq   402d10 <_init+0x28>

0000000000402fe0 <_ZN10tensorflow8internal21CheckOpMessageBuilderC1EPKc@plt>:
  402fe0:	ff 25 92 b1 20 00    	jmpq   *0x20b192(%rip)        # 60e178 <_GLOBAL_OFFSET_TABLE_+0x178>
  402fe6:	68 2c 00 00 00       	pushq  $0x2c
  402feb:	e9 20 fd ff ff       	jmpq   402d10 <_init+0x28>

0000000000402ff0 <_ZNSolsEx@plt>:
  402ff0:	ff 25 8a b1 20 00    	jmpq   *0x20b18a(%rip)        # 60e180 <_GLOBAL_OFFSET_TABLE_+0x180>
  402ff6:	68 2d 00 00 00       	pushq  $0x2d
  402ffb:	e9 10 fd ff ff       	jmpq   402d10 <_init+0x28>

0000000000403000 <_ZN10tensorflow8internal21CheckOpMessageBuilderD1Ev@plt>:
  403000:	ff 25 82 b1 20 00    	jmpq   *0x20b182(%rip)        # 60e188 <_GLOBAL_OFFSET_TABLE_+0x188>
  403006:	68 2e 00 00 00       	pushq  $0x2e
  40300b:	e9 00 fd ff ff       	jmpq   402d10 <_init+0x28>

0000000000403010 <_Unwind_Resume@plt>:
  403010:	ff 25 7a b1 20 00    	jmpq   *0x20b17a(%rip)        # 60e190 <_GLOBAL_OFFSET_TABLE_+0x190>
  403016:	68 2f 00 00 00       	pushq  $0x2f
  40301b:	e9 f0 fc ff ff       	jmpq   402d10 <_init+0x28>

0000000000403020 <_ZN10tensorflow8internal21CheckOpMessageBuilder9NewStringB5cxx11Ev@plt>:
  403020:	ff 25 72 b1 20 00    	jmpq   *0x20b172(%rip)        # 60e198 <_GLOBAL_OFFSET_TABLE_+0x198>
  403026:	68 30 00 00 00       	pushq  $0x30
  40302b:	e9 e0 fc ff ff       	jmpq   402d10 <_init+0x28>

0000000000403030 <_ZNK10tensorflow6Tensor21CheckTypeAndIsAlignedENS_8DataTypeE@plt>:
  403030:	ff 25 6a b1 20 00    	jmpq   *0x20b16a(%rip)        # 60e1a0 <_GLOBAL_OFFSET_TABLE_+0x1a0>
  403036:	68 31 00 00 00       	pushq  $0x31
  40303b:	e9 d0 fc ff ff       	jmpq   402d10 <_init+0x28>

0000000000403040 <_ZNSt7__cxx1112basic_stringIcSt11char_traitsIcESaIcEEC1EPKcRKS3_@plt>:
  403040:	ff 25 62 b1 20 00    	jmpq   *0x20b162(%rip)        # 60e1a8 <_GLOBAL_OFFSET_TABLE_+0x1a8>
  403046:	68 32 00 00 00       	pushq  $0x32
  40304b:	e9 c0 fc ff ff       	jmpq   402d10 <_init+0x28>

0000000000403050 <_ZN10tensorflow11RunMetadataC1Ev@plt>:
  403050:	ff 25 5a b1 20 00    	jmpq   *0x20b15a(%rip)        # 60e1b0 <_GLOBAL_OFFSET_TABLE_+0x1b0>
  403056:	68 33 00 00 00       	pushq  $0x33
  40305b:	e9 b0 fc ff ff       	jmpq   402d10 <_init+0x28>

0000000000403060 <_ZN10tensorflow14TensorShapeRep12SlowCopyFromERKS0_@plt>:
  403060:	ff 25 52 b1 20 00    	jmpq   *0x20b152(%rip)        # 60e1b8 <_GLOBAL_OFFSET_TABLE_+0x1b8>
  403066:	68 34 00 00 00       	pushq  $0x34
  40306b:	e9 a0 fc ff ff       	jmpq   402d10 <_init+0x28>

0000000000403070 <_ZNSolsEm@plt>:
  403070:	ff 25 4a b1 20 00    	jmpq   *0x20b14a(%rip)        # 60e1c0 <_GLOBAL_OFFSET_TABLE_+0x1c0>
  403076:	68 35 00 00 00       	pushq  $0x35
  40307b:	e9 90 fc ff ff       	jmpq   402d10 <_init+0x28>

0000000000403080 <random@plt>:
  403080:	ff 25 42 b1 20 00    	jmpq   *0x20b142(%rip)        # 60e1c8 <_GLOBAL_OFFSET_TABLE_+0x1c8>
  403086:	68 36 00 00 00       	pushq  $0x36
  40308b:	e9 80 fc ff ff       	jmpq   402d10 <_init+0x28>

0000000000403090 <xopenme_dump_state@plt>:
  403090:	ff 25 3a b1 20 00    	jmpq   *0x20b13a(%rip)        # 60e1d0 <_GLOBAL_OFFSET_TABLE_+0x1d0>
  403096:	68 37 00 00 00       	pushq  $0x37
  40309b:	e9 70 fc ff ff       	jmpq   402d10 <_init+0x28>

00000000004030a0 <_ZN10tensorflow9OperationC1EPNS_4NodeE@plt>:
  4030a0:	ff 25 32 b1 20 00    	jmpq   *0x20b132(%rip)        # 60e1d8 <_GLOBAL_OFFSET_TABLE_+0x1d8>
  4030a6:	68 38 00 00 00       	pushq  $0x38
  4030ab:	e9 60 fc ff ff       	jmpq   402d10 <_init+0x28>

00000000004030b0 <xopenme_add_var_f@plt>:
  4030b0:	ff 25 2a b1 20 00    	jmpq   *0x20b12a(%rip)        # 60e1e0 <_GLOBAL_OFFSET_TABLE_+0x1e0>
  4030b6:	68 39 00 00 00       	pushq  $0x39
  4030bb:	e9 50 fc ff ff       	jmpq   402d10 <_init+0x28>

00000000004030c0 <_ZSt17__throw_bad_allocv@plt>:
  4030c0:	ff 25 22 b1 20 00    	jmpq   *0x20b122(%rip)        # 60e1e8 <_GLOBAL_OFFSET_TABLE_+0x1e8>
  4030c6:	68 3a 00 00 00       	pushq  $0x3a
  4030cb:	e9 40 fc ff ff       	jmpq   402d10 <_init+0x28>

00000000004030d0 <memcpy@plt>:
  4030d0:	ff 25 1a b1 20 00    	jmpq   *0x20b11a(%rip)        # 60e1f0 <_GLOBAL_OFFSET_TABLE_+0x1f0>
  4030d6:	68 3b 00 00 00       	pushq  $0x3b
  4030db:	e9 30 fc ff ff       	jmpq   402d10 <_init+0x28>

00000000004030e0 <_ZN10tensorflow8internal21CheckOpMessageBuilder7ForVar2Ev@plt>:
  4030e0:	ff 25 12 b1 20 00    	jmpq   *0x20b112(%rip)        # 60e1f8 <_GLOBAL_OFFSET_TABLE_+0x1f8>
  4030e6:	68 3c 00 00 00       	pushq  $0x3c
  4030eb:	e9 20 fc ff ff       	jmpq   402d10 <_init+0x28>

00000000004030f0 <_ZN10tensorflow3ops14ResizeBilinearC1ERKNS_5ScopeENS_5InputES5_@plt>:
  4030f0:	ff 25 0a b1 20 00    	jmpq   *0x20b10a(%rip)        # 60e200 <_GLOBAL_OFFSET_TABLE_+0x200>
  4030f6:	68 3d 00 00 00       	pushq  $0x3d
  4030fb:	e9 10 fc ff ff       	jmpq   402d10 <_init+0x28>

0000000000403100 <_ZN10tensorflow13ClientSessionC1ERKNS_5ScopeE@plt>:
  403100:	ff 25 02 b1 20 00    	jmpq   *0x20b102(%rip)        # 60e208 <_GLOBAL_OFFSET_TABLE_+0x208>
  403106:	68 3e 00 00 00       	pushq  $0x3e
  40310b:	e9 00 fc ff ff       	jmpq   402d10 <_init+0x28>

0000000000403110 <_ZNK10tensorflow14StatSummarizer14PrintStepStatsEv@plt>:
  403110:	ff 25 fa b0 20 00    	jmpq   *0x20b0fa(%rip)        # 60e210 <_GLOBAL_OFFSET_TABLE_+0x210>
  403116:	68 3f 00 00 00       	pushq  $0x3f
  40311b:	e9 f0 fb ff ff       	jmpq   402d10 <_init+0x28>

0000000000403120 <_Znwm@plt>:
  403120:	ff 25 f2 b0 20 00    	jmpq   *0x20b0f2(%rip)        # 60e218 <_GLOBAL_OFFSET_TABLE_+0x218>
  403126:	68 40 00 00 00       	pushq  $0x40
  40312b:	e9 e0 fb ff ff       	jmpq   402d10 <_init+0x28>

0000000000403130 <_ZNK10tensorflow13ClientSession3RunERKNS_10RunOptionsERKSt13unordered_mapINS_6OutputENS_5Input11InitializerENS_10OutputHashESt8equal_toIS5_ESaISt4pairIKS5_S7_EEERKSt6vectorIS5_SaIS5_EERKSI_INS_9OperationESaISN_EEPSI_INS_6TensorESaISS_EEPNS_11RunMetadataE@plt>:
  403130:	ff 25 ea b0 20 00    	jmpq   *0x20b0ea(%rip)        # 60e220 <_GLOBAL_OFFSET_TABLE_+0x220>
  403136:	68 41 00 00 00       	pushq  $0x41
  40313b:	e9 d0 fb ff ff       	jmpq   402d10 <_init+0x28>

0000000000403140 <_ZN10tensorflow10RunOptionsC1Ev@plt>:
  403140:	ff 25 e2 b0 20 00    	jmpq   *0x20b0e2(%rip)        # 60e228 <_GLOBAL_OFFSET_TABLE_+0x228>
  403146:	68 42 00 00 00       	pushq  $0x42
  40314b:	e9 c0 fb ff ff       	jmpq   402d10 <_init+0x28>

0000000000403150 <_ZN10tensorflow13ClientSessionD1Ev@plt>:
  403150:	ff 25 da b0 20 00    	jmpq   *0x20b0da(%rip)        # 60e230 <_GLOBAL_OFFSET_TABLE_+0x230>
  403156:	68 43 00 00 00       	pushq  $0x43
  40315b:	e9 b0 fb ff ff       	jmpq   402d10 <_init+0x28>

0000000000403160 <_Znam@plt>:
  403160:	ff 25 d2 b0 20 00    	jmpq   *0x20b0d2(%rip)        # 60e238 <_GLOBAL_OFFSET_TABLE_+0x238>
  403166:	68 44 00 00 00       	pushq  $0x44
  40316b:	e9 a0 fb ff ff       	jmpq   402d10 <_init+0x28>

0000000000403170 <xopenme_get_timer@plt>:
  403170:	ff 25 ca b0 20 00    	jmpq   *0x20b0ca(%rip)        # 60e240 <_GLOBAL_OFFSET_TABLE_+0x240>
  403176:	68 45 00 00 00       	pushq  $0x45
  40317b:	e9 90 fb ff ff       	jmpq   402d10 <_init+0x28>

0000000000403180 <xopenme_clock_end@plt>:
  403180:	ff 25 c2 b0 20 00    	jmpq   *0x20b0c2(%rip)        # 60e248 <_GLOBAL_OFFSET_TABLE_+0x248>
  403186:	68 46 00 00 00       	pushq  $0x46
  40318b:	e9 80 fb ff ff       	jmpq   402d10 <_init+0x28>

0000000000403190 <_ZN10tensorflow14StatSummarizer16ProcessStepStatsERKNS_9StepStatsE@plt>:
  403190:	ff 25 ba b0 20 00    	jmpq   *0x20b0ba(%rip)        # 60e250 <_GLOBAL_OFFSET_TABLE_+0x250>
  403196:	68 47 00 00 00       	pushq  $0x47
  40319b:	e9 70 fb ff ff       	jmpq   402d10 <_init+0x28>

00000000004031a0 <_ZNSt8ios_base4InitD1Ev@plt>:
  4031a0:	ff 25 b2 b0 20 00    	jmpq   *0x20b0b2(%rip)        # 60e258 <_GLOBAL_OFFSET_TABLE_+0x258>
  4031a6:	68 48 00 00 00       	pushq  $0x48
  4031ab:	e9 60 fb ff ff       	jmpq   402d10 <_init+0x28>

00000000004031b0 <__cxa_end_catch@plt>:
  4031b0:	ff 25 aa b0 20 00    	jmpq   *0x20b0aa(%rip)        # 60e260 <_GLOBAL_OFFSET_TABLE_+0x260>
  4031b6:	68 49 00 00 00       	pushq  $0x49
  4031bb:	e9 50 fb ff ff       	jmpq   402d10 <_init+0x28>

00000000004031c0 <__cxa_throw_bad_array_new_length@plt>:
  4031c0:	ff 25 a2 b0 20 00    	jmpq   *0x20b0a2(%rip)        # 60e268 <_GLOBAL_OFFSET_TABLE_+0x268>
  4031c6:	68 4a 00 00 00       	pushq  $0x4a
  4031cb:	e9 40 fb ff ff       	jmpq   402d10 <_init+0x28>

00000000004031d0 <__cxa_rethrow@plt>:
  4031d0:	ff 25 9a b0 20 00    	jmpq   *0x20b09a(%rip)        # 60e270 <_GLOBAL_OFFSET_TABLE_+0x270>
  4031d6:	68 4b 00 00 00       	pushq  $0x4b
  4031db:	e9 30 fb ff ff       	jmpq   402d10 <_init+0x28>

00000000004031e0 <_ZN10tensorflow24TfCheckOpHelperOutOfLineB5cxx11ERKNS_6StatusEPKc@plt>:
  4031e0:	ff 25 92 b0 20 00    	jmpq   *0x20b092(%rip)        # 60e278 <_GLOBAL_OFFSET_TABLE_+0x278>
  4031e6:	68 4c 00 00 00       	pushq  $0x4c
  4031eb:	e9 20 fb ff ff       	jmpq   402d10 <_init+0x28>

00000000004031f0 <_ZNK10tensorflow5Scope10WithOpNameERKNSt7__cxx1112basic_stringIcSt11char_traitsIcESaIcEEE@plt>:
  4031f0:	ff 25 8a b0 20 00    	jmpq   *0x20b08a(%rip)        # 60e280 <_GLOBAL_OFFSET_TABLE_+0x280>
  4031f6:	68 4d 00 00 00       	pushq  $0x4d
  4031fb:	e9 10 fb ff ff       	jmpq   402d10 <_init+0x28>

0000000000403200 <rand@plt>:
  403200:	ff 25 82 b0 20 00    	jmpq   *0x20b082(%rip)        # 60e288 <_GLOBAL_OFFSET_TABLE_+0x288>
  403206:	68 4e 00 00 00       	pushq  $0x4e
  40320b:	e9 00 fb ff ff       	jmpq   402d10 <_init+0x28>

0000000000403210 <_ZNSt8ios_base4InitC1Ev@plt>:
  403210:	ff 25 7a b0 20 00    	jmpq   *0x20b07a(%rip)        # 60e290 <_GLOBAL_OFFSET_TABLE_+0x290>
  403216:	68 4f 00 00 00       	pushq  $0x4f
  40321b:	e9 f0 fa ff ff       	jmpq   402d10 <_init+0x28>

0000000000403220 <_ZN10tensorflow14StatSummarizerC1ERKNS_21StatSummarizerOptionsE@plt>:
  403220:	ff 25 72 b0 20 00    	jmpq   *0x20b072(%rip)        # 60e298 <_GLOBAL_OFFSET_TABLE_+0x298>
  403226:	68 50 00 00 00       	pushq  $0x50
  40322b:	e9 e0 fa ff ff       	jmpq   402d10 <_init+0x28>

0000000000403230 <_ZN10tensorflow3ops5ConstERKNS_5ScopeERKNS_5Input11InitializerE@plt>:
  403230:	ff 25 6a b0 20 00    	jmpq   *0x20b06a(%rip)        # 60e2a0 <_GLOBAL_OFFSET_TABLE_+0x2a0>
  403236:	68 51 00 00 00       	pushq  $0x51
  40323b:	e9 d0 fa ff ff       	jmpq   402d10 <_init+0x28>

0000000000403240 <_ZNSaIcED1Ev@plt>:
  403240:	ff 25 62 b0 20 00    	jmpq   *0x20b062(%rip)        # 60e2a8 <_GLOBAL_OFFSET_TABLE_+0x2a8>
  403246:	68 52 00 00 00       	pushq  $0x52
  40324b:	e9 c0 fa ff ff       	jmpq   402d10 <_init+0x28>

Disassembly of section .plt.got:

0000000000403250 <.plt.got>:
  403250:	ff 25 a2 ad 20 00    	jmpq   *0x20ada2(%rip)        # 60dff8 <_DYNAMIC+0x210>
  403256:	66 90                	xchg   %ax,%ax

Disassembly of section .text:

0000000000403260 <_start>:
  403260:	31 ed                	xor    %ebp,%ebp
  403262:	49 89 d1             	mov    %rdx,%r9
  403265:	5e                   	pop    %rsi
  403266:	48 89 e2             	mov    %rsp,%rdx
  403269:	48 83 e4 f0          	and    $0xfffffffffffffff0,%rsp
  40326d:	50                   	push   %rax
  40326e:	54                   	push   %rsp
  40326f:	49 c7 c0 c0 8d 40 00 	mov    $0x408dc0,%r8
  403276:	48 c7 c1 50 8d 40 00 	mov    $0x408d50,%rcx
  40327d:	48 c7 c7 36 37 40 00 	mov    $0x403736,%rdi
  403284:	e8 67 fc ff ff       	callq  402ef0 <__libc_start_main@plt>
  403289:	f4                   	hlt    
  40328a:	66 0f 1f 44 00 00    	nopw   0x0(%rax,%rax,1)

0000000000403290 <deregister_tm_clones>:
  403290:	b8 c7 e2 60 00       	mov    $0x60e2c7,%eax
  403295:	55                   	push   %rbp
  403296:	48 2d c0 e2 60 00    	sub    $0x60e2c0,%rax
  40329c:	48 83 f8 0e          	cmp    $0xe,%rax
  4032a0:	48 89 e5             	mov    %rsp,%rbp
  4032a3:	76 1b                	jbe    4032c0 <deregister_tm_clones+0x30>
  4032a5:	b8 00 00 00 00       	mov    $0x0,%eax
  4032aa:	48 85 c0             	test   %rax,%rax
  4032ad:	74 11                	je     4032c0 <deregister_tm_clones+0x30>
  4032af:	5d                   	pop    %rbp
  4032b0:	bf c0 e2 60 00       	mov    $0x60e2c0,%edi
  4032b5:	ff e0                	jmpq   *%rax
  4032b7:	66 0f 1f 84 00 00 00 	nopw   0x0(%rax,%rax,1)
  4032be:	00 00 
  4032c0:	5d                   	pop    %rbp
  4032c1:	c3                   	retq   
  4032c2:	0f 1f 40 00          	nopl   0x0(%rax)
  4032c6:	66 2e 0f 1f 84 00 00 	nopw   %cs:0x0(%rax,%rax,1)
  4032cd:	00 00 00 

00000000004032d0 <register_tm_clones>:
  4032d0:	be c0 e2 60 00       	mov    $0x60e2c0,%esi
  4032d5:	55                   	push   %rbp
  4032d6:	48 81 ee c0 e2 60 00 	sub    $0x60e2c0,%rsi
  4032dd:	48 c1 fe 03          	sar    $0x3,%rsi
  4032e1:	48 89 e5             	mov    %rsp,%rbp
  4032e4:	48 89 f0             	mov    %rsi,%rax
  4032e7:	48 c1 e8 3f          	shr    $0x3f,%rax
  4032eb:	48 01 c6             	add    %rax,%rsi
  4032ee:	48 d1 fe             	sar    %rsi
  4032f1:	74 15                	je     403308 <register_tm_clones+0x38>
  4032f3:	b8 00 00 00 00       	mov    $0x0,%eax
  4032f8:	48 85 c0             	test   %rax,%rax
  4032fb:	74 0b                	je     403308 <register_tm_clones+0x38>
  4032fd:	5d                   	pop    %rbp
  4032fe:	bf c0 e2 60 00       	mov    $0x60e2c0,%edi
  403303:	ff e0                	jmpq   *%rax
  403305:	0f 1f 00             	nopl   (%rax)
  403308:	5d                   	pop    %rbp
  403309:	c3                   	retq   
  40330a:	66 0f 1f 44 00 00    	nopw   0x0(%rax,%rax,1)

0000000000403310 <__do_global_dtors_aux>:
  403310:	80 3d 71 b0 20 00 00 	cmpb   $0x0,0x20b071(%rip)        # 60e388 <completed.7593>
  403317:	75 11                	jne    40332a <__do_global_dtors_aux+0x1a>
  403319:	55                   	push   %rbp
  40331a:	48 89 e5             	mov    %rsp,%rbp
  40331d:	e8 6e ff ff ff       	callq  403290 <deregister_tm_clones>
  403322:	5d                   	pop    %rbp
  403323:	c6 05 5e b0 20 00 01 	movb   $0x1,0x20b05e(%rip)        # 60e388 <completed.7593>
  40332a:	f3 c3                	repz retq 
  40332c:	0f 1f 40 00          	nopl   0x0(%rax)

0000000000403330 <frame_dummy>:
  403330:	bf e0 dd 60 00       	mov    $0x60dde0,%edi
  403335:	48 83 3f 00          	cmpq   $0x0,(%rdi)
  403339:	75 05                	jne    403340 <frame_dummy+0x10>
  40333b:	eb 93                	jmp    4032d0 <register_tm_clones>
  40333d:	0f 1f 00             	nopl   (%rax)
  403340:	b8 00 00 00 00       	mov    $0x0,%eax
  403345:	48 85 c0             	test   %rax,%rax
  403348:	74 f1                	je     40333b <frame_dummy+0xb>
  40334a:	55                   	push   %rbp
  40334b:	48 89 e5             	mov    %rsp,%rbp
  40334e:	ff d0                	callq  *%rax
  403350:	5d                   	pop    %rbp
  403351:	e9 7a ff ff ff       	jmpq   4032d0 <register_tm_clones>

0000000000403356 <_ZN5Eigen8internal12_GLOBAL__N_115get_random_seedEv>:
  403356:	55                   	push   %rbp
  403357:	48 89 e5             	mov    %rsp,%rbp
  40335a:	48 83 ec 30          	sub    $0x30,%rsp
  40335e:	64 48 8b 04 25 28 00 	mov    %fs:0x28,%rax
  403365:	00 00 
  403367:	48 89 45 f8          	mov    %rax,-0x8(%rbp)
  40336b:	31 c0                	xor    %eax,%eax
  40336d:	48 8d 45 e0          	lea    -0x20(%rbp),%rax
  403371:	48 89 c6             	mov    %rax,%rsi
  403374:	bf 00 00 00 00       	mov    $0x0,%edi
  403379:	e8 02 fa ff ff       	callq  402d80 <clock_gettime@plt>
  40337e:	e8 fd fc ff ff       	callq  403080 <random@plt>
  403383:	48 89 c2             	mov    %rax,%rdx
  403386:	48 8b 45 e8          	mov    -0x18(%rbp),%rax
  40338a:	48 31 d0             	xor    %rdx,%rax
  40338d:	48 89 45 d8          	mov    %rax,-0x28(%rbp)
  403391:	48 8b 45 d8          	mov    -0x28(%rbp),%rax
  403395:	48 8b 4d f8          	mov    -0x8(%rbp),%rcx
  403399:	64 48 33 0c 25 28 00 	xor    %fs:0x28,%rcx
  4033a0:	00 00 
  4033a2:	74 05                	je     4033a9 <_ZN5Eigen8internal12_GLOBAL__N_115get_random_seedEv+0x53>
  4033a4:	e8 b7 f9 ff ff       	callq  402d60 <__stack_chk_fail@plt>
  4033a9:	c9                   	leaveq 
  4033aa:	c3                   	retq   

00000000004033ab <_ZN2CK16store_setup_timeEf>:
  4033ab:	55                   	push   %rbp
  4033ac:	48 89 e5             	mov    %rsp,%rbp
  4033af:	48 83 ec 10          	sub    $0x10,%rsp
  4033b3:	f3 0f 11 45 fc       	movss  %xmm0,-0x4(%rbp)
  4033b8:	8b 45 fc             	mov    -0x4(%rbp),%eax
  4033bb:	89 45 f8             	mov    %eax,-0x8(%rbp)
  4033be:	f3 0f 10 45 f8       	movss  -0x8(%rbp),%xmm0
  4033c3:	be 68 91 40 00       	mov    $0x409168,%esi
  4033c8:	bf 0a 00 00 00       	mov    $0xa,%edi
  4033cd:	e8 22 1b 00 00       	callq  404ef4 <_ZN2CK13store_value_fEiPKcf>
  4033d2:	90                   	nop
  4033d3:	c9                   	leaveq 
  4033d4:	c3                   	retq   

00000000004033d5 <_ZN2CK15store_test_timeEf>:
  4033d5:	55                   	push   %rbp
  4033d6:	48 89 e5             	mov    %rsp,%rbp
  4033d9:	48 83 ec 10          	sub    $0x10,%rsp
  4033dd:	f3 0f 11 45 fc       	movss  %xmm0,-0x4(%rbp)
  4033e2:	8b 45 fc             	mov    -0x4(%rbp),%eax
  4033e5:	89 45 f8             	mov    %eax,-0x8(%rbp)
  4033e8:	f3 0f 10 45 f8       	movss  -0x8(%rbp),%xmm0
  4033ed:	be 73 91 40 00       	mov    $0x409173,%esi
  4033f2:	bf 0b 00 00 00       	mov    $0xb,%edi
  4033f7:	e8 f8 1a 00 00       	callq  404ef4 <_ZN2CK13store_value_fEiPKcf>
  4033fc:	90                   	nop
  4033fd:	c9                   	leaveq 
  4033fe:	c3                   	retq   
  4033ff:	90                   	nop

0000000000403400 <_ZZ4mainENKUlvE_clEv>:
  403400:	55                   	push   %rbp
  403401:	48 89 e5             	mov    %rsp,%rbp
  403404:	41 56                	push   %r14
  403406:	41 55                	push   %r13
  403408:	41 54                	push   %r12
  40340a:	53                   	push   %rbx
  40340b:	48 81 ec 70 02 00 00 	sub    $0x270,%rsp
  403412:	48 89 bd 78 fd ff ff 	mov    %rdi,-0x288(%rbp)
  403419:	64 48 8b 04 25 28 00 	mov    %fs:0x28,%rax
  403420:	00 00 
  403422:	48 89 45 d8          	mov    %rax,-0x28(%rbp)
  403426:	31 c0                	xor    %eax,%eax
  403428:	48 8b 85 78 fd ff ff 	mov    -0x288(%rbp),%rax
  40342f:	48 8b 10             	mov    (%rax),%rdx
  403432:	48 8d 85 88 fd ff ff 	lea    -0x278(%rbp),%rax
  403439:	48 89 d6             	mov    %rdx,%rsi
  40343c:	48 89 c7             	mov    %rax,%rdi
  40343f:	e8 bc fc ff ff       	callq  403100 <_ZN10tensorflow13ClientSessionC1ERKNS_5ScopeE@plt>
  403444:	48 8b 85 78 fd ff ff 	mov    -0x288(%rbp),%rax
  40344b:	4c 8b 70 20          	mov    0x20(%rax),%r14
  40344f:	48 8b 85 78 fd ff ff 	mov    -0x288(%rbp),%rax
  403456:	48 8b 58 18          	mov    0x18(%rax),%rbx
  40345a:	48 8d 85 c0 fd ff ff 	lea    -0x240(%rbp),%rax
  403461:	48 89 c7             	mov    %rax,%rdi
  403464:	e8 8d 2f 00 00       	callq  4063f6 <_ZNSt6vectorIN10tensorflow9OperationESaIS1_EEC1Ev>
  403469:	48 8b 85 78 fd ff ff 	mov    -0x288(%rbp),%rax
  403470:	48 8b 50 10          	mov    0x10(%rax),%rdx
  403474:	48 8d 85 20 fe ff ff 	lea    -0x1e0(%rbp),%rax
  40347b:	48 89 d6             	mov    %rdx,%rsi
  40347e:	48 89 c7             	mov    %rax,%rdi
  403481:	e8 c2 17 00 00       	callq  404c48 <_ZNK10tensorflow3ops14ResizeBilinearcvNS_6OutputEEv>
  403486:	48 8d 85 20 fe ff ff 	lea    -0x1e0(%rbp),%rax
  40348d:	49 89 c4             	mov    %rax,%r12
  403490:	41 bd 01 00 00 00    	mov    $0x1,%r13d
  403496:	48 8d 85 87 fd ff ff 	lea    -0x279(%rbp),%rax
  40349d:	48 89 c7             	mov    %rax,%rdi
  4034a0:	e8 1b 2e 00 00       	callq  4062c0 <_ZNSaIN10tensorflow6OutputEEC1Ev>
  4034a5:	48 8d 95 87 fd ff ff 	lea    -0x279(%rbp),%rdx
  4034ac:	4d 89 e0             	mov    %r12,%r8
  4034af:	4d 89 e9             	mov    %r13,%r9
  4034b2:	4c 89 e6             	mov    %r12,%rsi
  4034b5:	4c 89 ef             	mov    %r13,%rdi
  4034b8:	48 8d 85 a0 fd ff ff 	lea    -0x260(%rbp),%rax
  4034bf:	48 89 d1             	mov    %rdx,%rcx
  4034c2:	4c 89 c6             	mov    %r8,%rsi
  4034c5:	48 89 fa             	mov    %rdi,%rdx
  4034c8:	48 89 c7             	mov    %rax,%rdi
  4034cb:	e8 28 2e 00 00       	callq  4062f8 <_ZNSt6vectorIN10tensorflow6OutputESaIS1_EEC1ESt16initializer_listIS1_ERKS2_>
  4034d0:	48 8d 95 e0 fd ff ff 	lea    -0x220(%rbp),%rdx
  4034d7:	b8 00 00 00 00       	mov    $0x0,%eax
  4034dc:	b9 07 00 00 00       	mov    $0x7,%ecx
  4034e1:	48 89 d7             	mov    %rdx,%rdi
  4034e4:	f3 48 ab             	rep stos %rax,%es:(%rdi)
  4034e7:	48 8d 85 e0 fd ff ff 	lea    -0x220(%rbp),%rax
  4034ee:	48 89 c7             	mov    %rax,%rdi
  4034f1:	e8 d6 21 00 00       	callq  4056cc <_ZNSt13unordered_mapIN10tensorflow6OutputENS0_5Input11InitializerENS0_10OutputHashESt8equal_toIS1_ESaISt4pairIKS1_S3_EEEC1Ev>
  4034f6:	48 8b 85 78 fd ff ff 	mov    -0x288(%rbp),%rax
  4034fd:	48 8b 50 08          	mov    0x8(%rax),%rdx
  403501:	48 8d 85 90 fd ff ff 	lea    -0x270(%rbp),%rax
  403508:	4c 8d 85 c0 fd ff ff 	lea    -0x240(%rbp),%r8
  40350f:	48 8d bd a0 fd ff ff 	lea    -0x260(%rbp),%rdi
  403516:	48 8d 8d e0 fd ff ff 	lea    -0x220(%rbp),%rcx
  40351d:	48 8d b5 88 fd ff ff 	lea    -0x278(%rbp),%rsi
  403524:	41 56                	push   %r14
  403526:	53                   	push   %rbx
  403527:	4d 89 c1             	mov    %r8,%r9
  40352a:	49 89 f8             	mov    %rdi,%r8
  40352d:	48 89 c7             	mov    %rax,%rdi
  403530:	e8 fb fb ff ff       	callq  403130 <_ZNK10tensorflow13ClientSession3RunERKNS_10RunOptionsERKSt13unordered_mapINS_6OutputENS_5Input11InitializerENS_10OutputHashESt8equal_toIS5_ESaISt4pairIKS5_S7_EEERKSt6vectorIS5_SaIS5_EERKSI_INS_9OperationESaISN_EEPSI_INS_6TensorESaISS_EEPNS_11RunMetadataE@plt>
  403535:	48 83 c4 10          	add    $0x10,%rsp
  403539:	48 8d 85 e0 fd ff ff 	lea    -0x220(%rbp),%rax
  403540:	48 89 c7             	mov    %rax,%rdi
  403543:	e8 a0 21 00 00       	callq  4056e8 <_ZNSt13unordered_mapIN10tensorflow6OutputENS0_5Input11InitializerENS0_10OutputHashESt8equal_toIS1_ESaISt4pairIKS1_S3_EEED1Ev>
  403548:	48 8d 85 a0 fd ff ff 	lea    -0x260(%rbp),%rax
  40354f:	48 89 c7             	mov    %rax,%rdi
  403552:	e8 5b 2e 00 00       	callq  4063b2 <_ZNSt6vectorIN10tensorflow6OutputESaIS1_EED1Ev>
  403557:	48 8d 85 87 fd ff ff 	lea    -0x279(%rbp),%rax
  40355e:	48 89 c7             	mov    %rax,%rdi
  403561:	e8 76 2d 00 00       	callq  4062dc <_ZNSaIN10tensorflow6OutputEED1Ev>
  403566:	48 8d 9d 20 fe ff ff 	lea    -0x1e0(%rbp),%rbx
  40356d:	48 83 c3 28          	add    $0x28,%rbx
  403571:	48 8d 85 20 fe ff ff 	lea    -0x1e0(%rbp),%rax
  403578:	48 39 c3             	cmp    %rax,%rbx
  40357b:	74 0e                	je     40358b <_ZZ4mainENKUlvE_clEv+0x18b>
  40357d:	48 83 eb 28          	sub    $0x28,%rbx
  403581:	48 89 df             	mov    %rbx,%rdi
  403584:	e8 3d 13 00 00       	callq  4048c6 <_ZN10tensorflow6OutputD1Ev>
  403589:	eb e6                	jmp    403571 <_ZZ4mainENKUlvE_clEv+0x171>
  40358b:	48 8d 85 c0 fd ff ff 	lea    -0x240(%rbp),%rax
  403592:	48 89 c7             	mov    %rax,%rdi
  403595:	e8 78 2e 00 00       	callq  406412 <_ZNSt6vectorIN10tensorflow9OperationESaIS1_EED1Ev>
  40359a:	48 8d 95 90 fd ff ff 	lea    -0x270(%rbp),%rdx
  4035a1:	48 8d 85 e0 fd ff ff 	lea    -0x220(%rbp),%rax
  4035a8:	48 89 d6             	mov    %rdx,%rsi
  4035ab:	48 89 c7             	mov    %rax,%rdi
  4035ae:	e8 35 0c 00 00       	callq  4041e8 <_ZN10tensorflow6StatusC1ERKS0_>
  4035b3:	48 8d 85 e0 fd ff ff 	lea    -0x220(%rbp),%rax
  4035ba:	be 3c 92 40 00       	mov    $0x40923c,%esi
  4035bf:	48 89 c7             	mov    %rax,%rdi
  4035c2:	e8 aa 0c 00 00       	callq  404271 <_ZN10tensorflow15TfCheckOpHelperB5cxx11ENS_6StatusEPKc>
  4035c7:	48 89 85 98 fd ff ff 	mov    %rax,-0x268(%rbp)
  4035ce:	48 8d 85 e0 fd ff ff 	lea    -0x220(%rbp),%rax
  4035d5:	48 89 c7             	mov    %rax,%rdi
  4035d8:	e8 77 0b 00 00       	callq  404154 <_ZN10tensorflow6StatusD1Ev>
  4035dd:	48 83 bd 98 fd ff ff 	cmpq   $0x0,-0x268(%rbp)
  4035e4:	00 
  4035e5:	74 41                	je     403628 <_ZZ4mainENKUlvE_clEv+0x228>
  4035e7:	48 8d 85 50 fe ff ff 	lea    -0x1b0(%rbp),%rax
  4035ee:	ba 39 00 00 00       	mov    $0x39,%edx
  4035f3:	be 43 92 40 00       	mov    $0x409243,%esi
  4035f8:	48 89 c7             	mov    %rax,%rdi
  4035fb:	e8 40 f7 ff ff       	callq  402d40 <_ZN10tensorflow8internal15LogMessageFatalC1EPKci@plt>
  403600:	48 8b 95 98 fd ff ff 	mov    -0x268(%rbp),%rdx
  403607:	48 8d 85 50 fe ff ff 	lea    -0x1b0(%rbp),%rax
  40360e:	48 89 d6             	mov    %rdx,%rsi
  403611:	48 89 c7             	mov    %rax,%rdi
  403614:	e8 a2 23 00 00       	callq  4059bb <_ZStlsIcSt11char_traitsIcENSt7__cxx1112basic_stringIcS1_SaIcEEEERSt13basic_ostreamIT_T0_EOS9_RKT1_>
  403619:	48 8d 85 50 fe ff ff 	lea    -0x1b0(%rbp),%rax
  403620:	48 89 c7             	mov    %rax,%rdi
  403623:	e8 b8 f8 ff ff       	callq  402ee0 <_ZN10tensorflow8internal15LogMessageFatalD1Ev@plt>
  403628:	48 8d 85 90 fd ff ff 	lea    -0x270(%rbp),%rax
  40362f:	48 89 c7             	mov    %rax,%rdi
  403632:	e8 1d 0b 00 00       	callq  404154 <_ZN10tensorflow6StatusD1Ev>
  403637:	48 8d 85 88 fd ff ff 	lea    -0x278(%rbp),%rax
  40363e:	48 89 c7             	mov    %rax,%rdi
  403641:	e8 0a fb ff ff       	callq  403150 <_ZN10tensorflow13ClientSessionD1Ev@plt>
  403646:	90                   	nop
  403647:	48 8b 45 d8          	mov    -0x28(%rbp),%rax
  40364b:	64 48 33 04 25 28 00 	xor    %fs:0x28,%rax
  403652:	00 00 
  403654:	0f 84 cf 00 00 00    	je     403729 <_ZZ4mainENKUlvE_clEv+0x329>
  40365a:	e9 c5 00 00 00       	jmpq   403724 <_ZZ4mainENKUlvE_clEv+0x324>
  40365f:	48 89 c3             	mov    %rax,%rbx
  403662:	48 8d 85 e0 fd ff ff 	lea    -0x220(%rbp),%rax
  403669:	48 89 c7             	mov    %rax,%rdi
  40366c:	e8 77 20 00 00       	callq  4056e8 <_ZNSt13unordered_mapIN10tensorflow6OutputENS0_5Input11InitializerENS0_10OutputHashESt8equal_toIS1_ESaISt4pairIKS1_S3_EEED1Ev>
  403671:	48 8d 85 a0 fd ff ff 	lea    -0x260(%rbp),%rax
  403678:	48 89 c7             	mov    %rax,%rdi
  40367b:	e8 32 2d 00 00       	callq  4063b2 <_ZNSt6vectorIN10tensorflow6OutputESaIS1_EED1Ev>
  403680:	eb 03                	jmp    403685 <_ZZ4mainENKUlvE_clEv+0x285>
  403682:	48 89 c3             	mov    %rax,%rbx
  403685:	48 8d 85 87 fd ff ff 	lea    -0x279(%rbp),%rax
  40368c:	48 89 c7             	mov    %rax,%rdi
  40368f:	e8 48 2c 00 00       	callq  4062dc <_ZNSaIN10tensorflow6OutputEED1Ev>
  403694:	49 89 dc             	mov    %rbx,%r12
  403697:	48 8d 9d 20 fe ff ff 	lea    -0x1e0(%rbp),%rbx
  40369e:	48 83 c3 28          	add    $0x28,%rbx
  4036a2:	48 8d 85 20 fe ff ff 	lea    -0x1e0(%rbp),%rax
  4036a9:	48 39 c3             	cmp    %rax,%rbx
  4036ac:	74 0e                	je     4036bc <_ZZ4mainENKUlvE_clEv+0x2bc>
  4036ae:	48 83 eb 28          	sub    $0x28,%rbx
  4036b2:	48 89 df             	mov    %rbx,%rdi
  4036b5:	e8 0c 12 00 00       	callq  4048c6 <_ZN10tensorflow6OutputD1Ev>
  4036ba:	eb e6                	jmp    4036a2 <_ZZ4mainENKUlvE_clEv+0x2a2>
  4036bc:	4c 89 e3             	mov    %r12,%rbx
  4036bf:	eb 03                	jmp    4036c4 <_ZZ4mainENKUlvE_clEv+0x2c4>
  4036c1:	48 89 c3             	mov    %rax,%rbx
  4036c4:	48 8d 85 c0 fd ff ff 	lea    -0x240(%rbp),%rax
  4036cb:	48 89 c7             	mov    %rax,%rdi
  4036ce:	e8 3f 2d 00 00       	callq  406412 <_ZNSt6vectorIN10tensorflow9OperationESaIS1_EED1Ev>
  4036d3:	eb 35                	jmp    40370a <_ZZ4mainENKUlvE_clEv+0x30a>
  4036d5:	48 89 c3             	mov    %rax,%rbx
  4036d8:	48 8d 85 e0 fd ff ff 	lea    -0x220(%rbp),%rax
  4036df:	48 89 c7             	mov    %rax,%rdi
  4036e2:	e8 6d 0a 00 00       	callq  404154 <_ZN10tensorflow6StatusD1Ev>
  4036e7:	eb 12                	jmp    4036fb <_ZZ4mainENKUlvE_clEv+0x2fb>
  4036e9:	48 8d 85 50 fe ff ff 	lea    -0x1b0(%rbp),%rax
  4036f0:	48 89 c7             	mov    %rax,%rdi
  4036f3:	e8 e8 f7 ff ff       	callq  402ee0 <_ZN10tensorflow8internal15LogMessageFatalD1Ev@plt>
  4036f8:	48 89 c3             	mov    %rax,%rbx
  4036fb:	48 8d 85 90 fd ff ff 	lea    -0x270(%rbp),%rax
  403702:	48 89 c7             	mov    %rax,%rdi
  403705:	e8 4a 0a 00 00       	callq  404154 <_ZN10tensorflow6StatusD1Ev>
  40370a:	48 8d 85 88 fd ff ff 	lea    -0x278(%rbp),%rax
  403711:	48 89 c7             	mov    %rax,%rdi
  403714:	e8 37 fa ff ff       	callq  403150 <_ZN10tensorflow13ClientSessionD1Ev@plt>
  403719:	48 89 d8             	mov    %rbx,%rax
  40371c:	48 89 c7             	mov    %rax,%rdi
  40371f:	e8 ec f8 ff ff       	callq  403010 <_Unwind_Resume@plt>
  403724:	e8 37 f6 ff ff       	callq  402d60 <__stack_chk_fail@plt>
  403729:	48 8d 65 e0          	lea    -0x20(%rbp),%rsp
  40372d:	5b                   	pop    %rbx
  40372e:	41 5c                	pop    %r12
  403730:	41 5d                	pop    %r13
  403732:	41 5e                	pop    %r14
  403734:	5d                   	pop    %rbp
  403735:	c3                   	retq   

0000000000403736 <main>:
  403736:	55                   	push   %rbp
  403737:	48 89 e5             	mov    %rsp,%rbp
  40373a:	41 55                	push   %r13
  40373c:	41 54                	push   %r12
  40373e:	53                   	push   %rbx
  40373f:	48 81 ec f8 02 00 00 	sub    $0x2f8,%rsp
  403746:	64 48 8b 04 25 28 00 	mov    %fs:0x28,%rax
  40374d:	00 00 
  40374f:	48 89 45 d8          	mov    %rax,-0x28(%rbp)
  403753:	31 c0                	xor    %eax,%eax
  403755:	e8 2b 19 00 00       	callq  405085 <_ZN2CK9init_testEv>
  40375a:	48 8d 85 f8 fc ff ff 	lea    -0x308(%rbp),%rax
  403761:	48 89 c7             	mov    %rax,%rdi
  403764:	e8 a7 f7 ff ff       	callq  402f10 <_ZN10tensorflow5Scope12NewRootScopeEv@plt>
  403769:	b9 01 00 00 00       	mov    $0x1,%ecx
  40376e:	ba 01 00 00 00       	mov    $0x1,%edx
  403773:	be 03 00 00 00       	mov    $0x3,%esi
  403778:	bf 01 00 00 00       	mov    $0x1,%edi
  40377d:	e8 ee 17 00 00       	callq  404f70 <_ZN2CK24get_input_shape_from_envEiiii>
  403782:	48 89 85 20 fd ff ff 	mov    %rax,-0x2e0(%rbp)
  403789:	48 89 95 28 fd ff ff 	mov    %rdx,-0x2d8(%rbp)
  403790:	8b 85 20 fd ff ff    	mov    -0x2e0(%rbp),%eax
  403796:	48 98                	cltq   
  403798:	48 89 85 60 ff ff ff 	mov    %rax,-0xa0(%rbp)
  40379f:	8b 85 28 fd ff ff    	mov    -0x2d8(%rbp),%eax
  4037a5:	48 98                	cltq   
  4037a7:	48 89 85 68 ff ff ff 	mov    %rax,-0x98(%rbp)
  4037ae:	8b 85 2c fd ff ff    	mov    -0x2d4(%rbp),%eax
  4037b4:	48 98                	cltq   
  4037b6:	48 89 85 70 ff ff ff 	mov    %rax,-0x90(%rbp)
  4037bd:	8b 85 24 fd ff ff    	mov    -0x2dc(%rbp),%eax
  4037c3:	48 98                	cltq   
  4037c5:	48 89 85 78 ff ff ff 	mov    %rax,-0x88(%rbp)
  4037cc:	48 8d 85 60 ff ff ff 	lea    -0xa0(%rbp),%rax
  4037d3:	49 89 c4             	mov    %rax,%r12
  4037d6:	41 bd 04 00 00 00    	mov    $0x4,%r13d
  4037dc:	4c 89 e1             	mov    %r12,%rcx
  4037df:	4c 89 eb             	mov    %r13,%rbx
  4037e2:	4c 89 e0             	mov    %r12,%rax
  4037e5:	4c 89 ea             	mov    %r13,%rdx
  4037e8:	48 8d 85 50 fe ff ff 	lea    -0x1b0(%rbp),%rax
  4037ef:	48 89 ce             	mov    %rcx,%rsi
  4037f2:	48 89 c7             	mov    %rax,%rdi
  4037f5:	e8 44 1b 00 00       	callq  40533e <_ZN10tensorflow11TensorShapeC1ESt16initializer_listIxE>
  4037fa:	48 8d 95 50 fe ff ff 	lea    -0x1b0(%rbp),%rdx
  403801:	48 8d 85 70 fe ff ff 	lea    -0x190(%rbp),%rax
  403808:	be 01 00 00 00       	mov    $0x1,%esi
  40380d:	48 89 c7             	mov    %rax,%rdi
  403810:	e8 fb f5 ff ff       	callq  402e10 <_ZN10tensorflow6TensorC1ENS_8DataTypeERKNS_11TensorShapeE@plt>
  403815:	48 8d 85 50 fe ff ff 	lea    -0x1b0(%rbp),%rax
  40381c:	48 89 c7             	mov    %rax,%rdi
  40381f:	e8 80 0f 00 00       	callq  4047a4 <_ZN10tensorflow11TensorShapeD1Ev>
  403824:	48 8d 85 20 fd ff ff 	lea    -0x2e0(%rbp),%rax
  40382b:	48 89 c7             	mov    %rax,%rdi
  40382e:	e8 6d 26 00 00       	callq  405ea0 <_ZN2CK19get_random_raw_dataIfEEPT_RKNS_5ShapeE>
  403833:	48 89 85 08 fd ff ff 	mov    %rax,-0x2f8(%rbp)
  40383a:	48 8d 95 20 fd ff ff 	lea    -0x2e0(%rbp),%rdx
  403841:	48 8b 85 08 fd ff ff 	mov    -0x2f8(%rbp),%rax
  403848:	48 89 d6             	mov    %rdx,%rsi
  40384b:	48 89 c7             	mov    %rax,%rdi
  40384e:	e8 34 27 00 00       	callq  405f87 <_ZN2CK20print_input_raw_dataIfEEvPT_RKNS_5ShapeE>
  403853:	48 8d 85 20 fd ff ff 	lea    -0x2e0(%rbp),%rax
  40385a:	48 89 c7             	mov    %rax,%rdi
  40385d:	e8 3a 15 00 00       	callq  404d9c <_ZNK2CK5Shape10data_countEv>
  403862:	48 98                	cltq   
  403864:	48 8d 1c 85 00 00 00 	lea    0x0(,%rax,4),%rbx
  40386b:	00 
  40386c:	48 8d 85 70 fe ff ff 	lea    -0x190(%rbp),%rax
  403873:	48 89 c7             	mov    %rax,%rdi
  403876:	e8 39 27 00 00       	callq  405fb4 <_ZN10tensorflow6Tensor4flatIfEENS_6TTypesIT_Li1ElE4FlatEv>
  40387b:	48 89 85 30 fe ff ff 	mov    %rax,-0x1d0(%rbp)
  403882:	48 89 95 38 fe ff ff 	mov    %rdx,-0x1c8(%rbp)
  403889:	48 8d 85 30 fe ff ff 	lea    -0x1d0(%rbp),%rax
  403890:	48 89 c7             	mov    %rax,%rdi
  403893:	e8 aa 27 00 00       	callq  406042 <_ZN5Eigen9TensorMapINS_6TensorIfLi1ELi1ElEELi16ENS_11MakePointerEE4dataEv>
  403898:	48 89 c1             	mov    %rax,%rcx
  40389b:	48 8b 85 08 fd ff ff 	mov    -0x2f8(%rbp),%rax
  4038a2:	48 89 da             	mov    %rbx,%rdx
  4038a5:	48 89 c6             	mov    %rax,%rsi
  4038a8:	48 89 cf             	mov    %rcx,%rdi
  4038ab:	e8 20 f8 ff ff       	callq  4030d0 <memcpy@plt>
  4038b0:	48 83 bd 08 fd ff ff 	cmpq   $0x0,-0x2f8(%rbp)
  4038b7:	00 
  4038b8:	74 0f                	je     4038c9 <main+0x193>
  4038ba:	48 8b 85 08 fd ff ff 	mov    -0x2f8(%rbp),%rax
  4038c1:	48 89 c7             	mov    %rax,%rdi
  4038c4:	e8 d7 f6 ff ff       	callq  402fa0 <_ZdaPv@plt>
  4038c9:	c7 85 30 fd ff ff 01 	movl   $0x1,-0x2d0(%rbp)
  4038d0:	00 00 00 
  4038d3:	c7 85 34 fd ff ff 01 	movl   $0x1,-0x2cc(%rbp)
  4038da:	00 00 00 
  4038dd:	c7 85 38 fd ff ff 01 	movl   $0x1,-0x2c8(%rbp)
  4038e4:	00 00 00 
  4038e7:	c7 85 3c fd ff ff 01 	movl   $0x1,-0x2c4(%rbp)
  4038ee:	00 00 00 
  4038f1:	8b 85 20 fd ff ff    	mov    -0x2e0(%rbp),%eax
  4038f7:	89 85 30 fd ff ff    	mov    %eax,-0x2d0(%rbp)
  4038fd:	be 01 00 00 00       	mov    $0x1,%esi
  403902:	bf 59 92 40 00       	mov    $0x409259,%edi
  403907:	e8 3b 15 00 00       	callq  404e47 <_ZN2CK8getenv_iEPKci>
  40390c:	89 85 38 fd ff ff    	mov    %eax,-0x2c8(%rbp)
  403912:	be 01 00 00 00       	mov    $0x1,%esi
  403917:	bf 68 92 40 00       	mov    $0x409268,%edi
  40391c:	e8 26 15 00 00       	callq  404e47 <_ZN2CK8getenv_iEPKci>
  403921:	89 85 3c fd ff ff    	mov    %eax,-0x2c4(%rbp)
  403927:	be 01 00 00 00       	mov    $0x1,%esi
  40392c:	bf 77 92 40 00       	mov    $0x409277,%edi
  403931:	e8 11 15 00 00       	callq  404e47 <_ZN2CK8getenv_iEPKci>
  403936:	89 85 34 fd ff ff    	mov    %eax,-0x2cc(%rbp)
  40393c:	8b 85 38 fd ff ff    	mov    -0x2c8(%rbp),%eax
  403942:	89 85 f0 fc ff ff    	mov    %eax,-0x310(%rbp)
  403948:	8b 85 3c fd ff ff    	mov    -0x2c4(%rbp),%eax
  40394e:	89 85 f4 fc ff ff    	mov    %eax,-0x30c(%rbp)
  403954:	48 8d 85 40 fd ff ff 	lea    -0x2c0(%rbp),%rax
  40395b:	48 89 c7             	mov    %rax,%rdi
  40395e:	e8 f1 26 00 00       	callq  406054 <_ZNSt6vectorIN10tensorflow6TensorESaIS1_EEC1Ev>
  403963:	48 c7 85 10 fd ff ff 	movq   $0x409286,-0x2f0(%rbp)
  40396a:	86 92 40 00 
  40396e:	8b 85 f0 fc ff ff    	mov    -0x310(%rbp),%eax
  403974:	89 85 50 fe ff ff    	mov    %eax,-0x1b0(%rbp)
  40397a:	8b 85 f4 fc ff ff    	mov    -0x30c(%rbp),%eax
  403980:	89 85 54 fe ff ff    	mov    %eax,-0x1ac(%rbp)
  403986:	48 8d 85 50 fe ff ff 	lea    -0x1b0(%rbp),%rax
  40398d:	48 89 85 f0 fd ff ff 	mov    %rax,-0x210(%rbp)
  403994:	48 c7 85 f8 fd ff ff 	movq   $0x2,-0x208(%rbp)
  40399b:	02 00 00 00 
  40399f:	48 8d 95 f0 fd ff ff 	lea    -0x210(%rbp),%rdx
  4039a6:	48 8d 85 b0 fe ff ff 	lea    -0x150(%rbp),%rax
  4039ad:	48 89 d6             	mov    %rdx,%rsi
  4039b0:	48 89 c7             	mov    %rax,%rdi
  4039b3:	e8 fc 26 00 00       	callq  4060b4 <_ZN10tensorflow5Input11InitializerC1IivEERKSt16initializer_listIT_E>
  4039b8:	48 8d 85 90 fd ff ff 	lea    -0x270(%rbp),%rax
  4039bf:	48 8d 95 b0 fe ff ff 	lea    -0x150(%rbp),%rdx
  4039c6:	48 8d 8d f8 fc ff ff 	lea    -0x308(%rbp),%rcx
  4039cd:	48 89 ce             	mov    %rcx,%rsi
  4039d0:	48 89 c7             	mov    %rax,%rdi
  4039d3:	e8 58 f8 ff ff       	callq  403230 <_ZN10tensorflow3ops5ConstERKNS_5ScopeERKNS_5Input11InitializerE@plt>
  4039d8:	48 8d 95 90 fd ff ff 	lea    -0x270(%rbp),%rdx
  4039df:	48 8d 85 60 ff ff ff 	lea    -0xa0(%rbp),%rax
  4039e6:	48 89 d6             	mov    %rdx,%rsi
  4039e9:	48 89 c7             	mov    %rax,%rdi
  4039ec:	e8 25 0f 00 00       	callq  404916 <_ZN10tensorflow5InputC1ERKNS_6OutputE>
  4039f1:	48 8d 95 70 fe ff ff 	lea    -0x190(%rbp),%rdx
  4039f8:	48 8d 85 e0 fe ff ff 	lea    -0x120(%rbp),%rax
  4039ff:	48 89 d6             	mov    %rdx,%rsi
  403a02:	48 89 c7             	mov    %rax,%rdi
  403a05:	e8 18 10 00 00       	callq  404a22 <_ZN10tensorflow5InputC1ERKNS_6TensorE>
  403a0a:	48 8d 85 c0 fd ff ff 	lea    -0x240(%rbp),%rax
  403a11:	48 89 c7             	mov    %rax,%rdi
  403a14:	e8 d7 f3 ff ff       	callq  402df0 <_ZNSaIcEC1Ev@plt>
  403a19:	48 8d 95 c0 fd ff ff 	lea    -0x240(%rbp),%rdx
  403a20:	48 8b 8d 10 fd ff ff 	mov    -0x2f0(%rbp),%rcx
  403a27:	48 8d 85 90 fe ff ff 	lea    -0x170(%rbp),%rax
  403a2e:	48 89 ce             	mov    %rcx,%rsi
  403a31:	48 89 c7             	mov    %rax,%rdi
  403a34:	e8 07 f6 ff ff       	callq  403040 <_ZNSt7__cxx1112basic_stringIcSt11char_traitsIcESaIcEEC1EPKcRKS3_@plt>
  403a39:	48 8d 85 00 fd ff ff 	lea    -0x300(%rbp),%rax
  403a40:	48 8d 95 90 fe ff ff 	lea    -0x170(%rbp),%rdx
  403a47:	48 8d 8d f8 fc ff ff 	lea    -0x308(%rbp),%rcx
  403a4e:	48 89 ce             	mov    %rcx,%rsi
  403a51:	48 89 c7             	mov    %rax,%rdi
  403a54:	e8 97 f7 ff ff       	callq  4031f0 <_ZNK10tensorflow5Scope10WithOpNameERKNSt7__cxx1112basic_stringIcSt11char_traitsIcESaIcEEE@plt>
  403a59:	48 8d 8d 60 ff ff ff 	lea    -0xa0(%rbp),%rcx
  403a60:	48 8d 95 e0 fe ff ff 	lea    -0x120(%rbp),%rdx
  403a67:	48 8d b5 00 fd ff ff 	lea    -0x300(%rbp),%rsi
  403a6e:	48 8d 85 60 fd ff ff 	lea    -0x2a0(%rbp),%rax
  403a75:	48 89 c7             	mov    %rax,%rdi
  403a78:	e8 73 f6 ff ff       	callq  4030f0 <_ZN10tensorflow3ops14ResizeBilinearC1ERKNS_5ScopeENS_5InputES5_@plt>
  403a7d:	48 8d 85 00 fd ff ff 	lea    -0x300(%rbp),%rax
  403a84:	48 89 c7             	mov    %rax,%rdi
  403a87:	e8 14 f4 ff ff       	callq  402ea0 <_ZN10tensorflow5ScopeD1Ev@plt>
  403a8c:	48 8d 85 90 fe ff ff 	lea    -0x170(%rbp),%rax
  403a93:	48 89 c7             	mov    %rax,%rdi
  403a96:	e8 15 f4 ff ff       	callq  402eb0 <_ZNSt7__cxx1112basic_stringIcSt11char_traitsIcESaIcEED1Ev@plt>
  403a9b:	48 8d 85 c0 fd ff ff 	lea    -0x240(%rbp),%rax
  403aa2:	48 89 c7             	mov    %rax,%rdi
  403aa5:	e8 96 f7 ff ff       	callq  403240 <_ZNSaIcED1Ev@plt>
  403aaa:	48 8d 85 e0 fe ff ff 	lea    -0x120(%rbp),%rax
  403ab1:	48 89 c7             	mov    %rax,%rdi
  403ab4:	e8 db 10 00 00       	callq  404b94 <_ZN10tensorflow5InputD1Ev>
  403ab9:	48 8d 85 60 ff ff ff 	lea    -0xa0(%rbp),%rax
  403ac0:	48 89 c7             	mov    %rax,%rdi
  403ac3:	e8 cc 10 00 00       	callq  404b94 <_ZN10tensorflow5InputD1Ev>
  403ac8:	48 8d 85 90 fd ff ff 	lea    -0x270(%rbp),%rax
  403acf:	48 89 c7             	mov    %rax,%rdi
  403ad2:	e8 ef 0d 00 00       	callq  4048c6 <_ZN10tensorflow6OutputD1Ev>
  403ad7:	48 8d 85 b0 fe ff ff 	lea    -0x150(%rbp),%rax
  403ade:	48 89 c7             	mov    %rax,%rdi
  403ae1:	e8 82 10 00 00       	callq  404b68 <_ZN10tensorflow5Input11InitializerD1Ev>
  403ae6:	48 8d 85 c0 fd ff ff 	lea    -0x240(%rbp),%rax
  403aed:	48 89 c7             	mov    %rax,%rdi
  403af0:	e8 4b f6 ff ff       	callq  403140 <_ZN10tensorflow10RunOptionsC1Ev@plt>
  403af5:	48 8d 85 c0 fd ff ff 	lea    -0x240(%rbp),%rax
  403afc:	be 03 00 00 00       	mov    $0x3,%esi
  403b01:	48 89 c7             	mov    %rax,%rdi
  403b04:	e8 cd 11 00 00       	callq  404cd6 <_ZN10tensorflow10RunOptions15set_trace_levelENS_21RunOptions_TraceLevelE>
  403b09:	48 8d 85 f0 fd ff ff 	lea    -0x210(%rbp),%rax
  403b10:	48 89 c7             	mov    %rax,%rdi
  403b13:	e8 38 f5 ff ff       	callq  403050 <_ZN10tensorflow11RunMetadataC1Ev@plt>
  403b18:	48 8d 85 f8 fc ff ff 	lea    -0x308(%rbp),%rax
  403b1f:	48 89 85 90 fd ff ff 	mov    %rax,-0x270(%rbp)
  403b26:	48 8d 85 c0 fd ff ff 	lea    -0x240(%rbp),%rax
  403b2d:	48 89 85 98 fd ff ff 	mov    %rax,-0x268(%rbp)
  403b34:	48 8d 85 60 fd ff ff 	lea    -0x2a0(%rbp),%rax
  403b3b:	48 89 85 a0 fd ff ff 	mov    %rax,-0x260(%rbp)
  403b42:	48 8d 85 40 fd ff ff 	lea    -0x2c0(%rbp),%rax
  403b49:	48 89 85 a8 fd ff ff 	mov    %rax,-0x258(%rbp)
  403b50:	48 8d 85 f0 fd ff ff 	lea    -0x210(%rbp),%rax
  403b57:	48 89 85 b0 fd ff ff 	mov    %rax,-0x250(%rbp)
  403b5e:	48 8d 85 90 fd ff ff 	lea    -0x270(%rbp),%rax
  403b65:	48 89 c7             	mov    %rax,%rdi
  403b68:	e8 bb 02 00 00       	callq  403e28 <_ZN2CK12measure_testIZ4mainEUlvE_EEvOT_>
  403b6d:	48 8d 85 30 fd ff ff 	lea    -0x2d0(%rbp),%rax
  403b74:	48 89 c7             	mov    %rax,%rdi
  403b77:	e8 20 12 00 00       	callq  404d9c <_ZNK2CK5Shape10data_countEv>
  403b7c:	48 98                	cltq   
  403b7e:	48 ba fe ff ff ff ff 	movabs $0x1ffffffffffffffe,%rdx
  403b85:	ff ff 1f 
  403b88:	48 39 d0             	cmp    %rdx,%rax
  403b8b:	77 0e                	ja     403b9b <main+0x465>
  403b8d:	48 c1 e0 02          	shl    $0x2,%rax
  403b91:	48 89 c7             	mov    %rax,%rdi
  403b94:	e8 c7 f5 ff ff       	callq  403160 <_Znam@plt>
  403b99:	eb 05                	jmp    403ba0 <main+0x46a>
  403b9b:	e8 20 f6 ff ff       	callq  4031c0 <__cxa_throw_bad_array_new_length@plt>
  403ba0:	48 89 85 18 fd ff ff 	mov    %rax,-0x2e8(%rbp)
  403ba7:	48 8d 85 30 fd ff ff 	lea    -0x2d0(%rbp),%rax
  403bae:	48 89 c7             	mov    %rax,%rdi
  403bb1:	e8 e6 11 00 00       	callq  404d9c <_ZNK2CK5Shape10data_countEv>
  403bb6:	48 98                	cltq   
  403bb8:	48 8d 1c 85 00 00 00 	lea    0x0(,%rax,4),%rbx
  403bbf:	00 
  403bc0:	48 8d 85 40 fd ff ff 	lea    -0x2c0(%rbp),%rax
  403bc7:	be 00 00 00 00       	mov    $0x0,%esi
  403bcc:	48 89 c7             	mov    %rax,%rdi
  403bcf:	e8 82 28 00 00       	callq  406456 <_ZNSt6vectorIN10tensorflow6TensorESaIS1_EEixEm>
  403bd4:	48 89 c7             	mov    %rax,%rdi
  403bd7:	e8 d8 23 00 00       	callq  405fb4 <_ZN10tensorflow6Tensor4flatIfEENS_6TTypesIT_Li1ElE4FlatEv>
  403bdc:	48 89 85 40 fe ff ff 	mov    %rax,-0x1c0(%rbp)
  403be3:	48 89 95 48 fe ff ff 	mov    %rdx,-0x1b8(%rbp)
  403bea:	48 8d 85 40 fe ff ff 	lea    -0x1c0(%rbp),%rax
  403bf1:	48 89 c7             	mov    %rax,%rdi
  403bf4:	e8 49 24 00 00       	callq  406042 <_ZN5Eigen9TensorMapINS_6TensorIfLi1ELi1ElEELi16ENS_11MakePointerEE4dataEv>
  403bf9:	48 89 c1             	mov    %rax,%rcx
  403bfc:	48 8b 85 18 fd ff ff 	mov    -0x2e8(%rbp),%rax
  403c03:	48 89 da             	mov    %rbx,%rdx
  403c06:	48 89 ce             	mov    %rcx,%rsi
  403c09:	48 89 c7             	mov    %rax,%rdi
  403c0c:	e8 bf f4 ff ff       	callq  4030d0 <memcpy@plt>
  403c11:	48 8d 95 30 fd ff ff 	lea    -0x2d0(%rbp),%rdx
  403c18:	48 8b 85 18 fd ff ff 	mov    -0x2e8(%rbp),%rax
  403c1f:	48 89 d6             	mov    %rdx,%rsi
  403c22:	48 89 c7             	mov    %rax,%rdi
  403c25:	e8 4c 28 00 00       	callq  406476 <_ZN2CK21print_output_raw_dataIfEEvPT_RKNS_5ShapeE>
  403c2a:	48 8d 95 30 fd ff ff 	lea    -0x2d0(%rbp),%rdx
  403c31:	48 8b 85 18 fd ff ff 	mov    -0x2e8(%rbp),%rax
  403c38:	48 89 d6             	mov    %rdx,%rsi
  403c3b:	48 89 c7             	mov    %rax,%rdi
  403c3e:	e8 60 28 00 00       	callq  4064a3 <_ZN2CK20dump_output_raw_dataIfEEvPT_RKNS_5ShapeE>
  403c43:	48 83 bd 18 fd ff ff 	cmpq   $0x0,-0x2e8(%rbp)
  403c4a:	00 
  403c4b:	74 0f                	je     403c5c <main+0x526>
  403c4d:	48 8b 85 18 fd ff ff 	mov    -0x2e8(%rbp),%rax
  403c54:	48 89 c7             	mov    %rax,%rdi
  403c57:	e8 44 f3 ff ff       	callq  402fa0 <_ZdaPv@plt>
  403c5c:	48 8b 95 10 fd ff ff 	mov    -0x2f0(%rbp),%rdx
  403c63:	48 8d 85 f0 fd ff ff 	lea    -0x210(%rbp),%rax
  403c6a:	48 89 d6             	mov    %rdx,%rsi
  403c6d:	48 89 c7             	mov    %rax,%rdi
  403c70:	e8 00 17 00 00       	callq  405375 <_ZN2CK2TF16process_metadataERKN10tensorflow11RunMetadataEPKc>
  403c75:	e8 55 14 00 00       	callq  4050cf <_ZN2CK11finish_testEv>
  403c7a:	bb 00 00 00 00       	mov    $0x0,%ebx
  403c7f:	48 8d 85 f0 fd ff ff 	lea    -0x210(%rbp),%rax
  403c86:	48 89 c7             	mov    %rax,%rdi
  403c89:	e8 32 f1 ff ff       	callq  402dc0 <_ZN10tensorflow11RunMetadataD1Ev@plt>
  403c8e:	48 8d 85 c0 fd ff ff 	lea    -0x240(%rbp),%rax
  403c95:	48 89 c7             	mov    %rax,%rdi
  403c98:	e8 93 f0 ff ff       	callq  402d30 <_ZN10tensorflow10RunOptionsD1Ev@plt>
  403c9d:	48 8d 85 60 fd ff ff 	lea    -0x2a0(%rbp),%rax
  403ca4:	48 89 c7             	mov    %rax,%rdi
  403ca7:	e8 7e 17 00 00       	callq  40542a <_ZN10tensorflow3ops14ResizeBilinearD1Ev>
  403cac:	48 8d 85 40 fd ff ff 	lea    -0x2c0(%rbp),%rax
  403cb3:	48 89 c7             	mov    %rax,%rdi
  403cb6:	e8 b5 23 00 00       	callq  406070 <_ZNSt6vectorIN10tensorflow6TensorESaIS1_EED1Ev>
  403cbb:	48 8d 85 70 fe ff ff 	lea    -0x190(%rbp),%rax
  403cc2:	48 89 c7             	mov    %rax,%rdi
  403cc5:	e8 06 f1 ff ff       	callq  402dd0 <_ZN10tensorflow6TensorD1Ev@plt>
  403cca:	48 8d 85 f8 fc ff ff 	lea    -0x308(%rbp),%rax
  403cd1:	48 89 c7             	mov    %rax,%rdi
  403cd4:	e8 c7 f1 ff ff       	callq  402ea0 <_ZN10tensorflow5ScopeD1Ev@plt>
  403cd9:	89 d8                	mov    %ebx,%eax
  403cdb:	48 8b 4d d8          	mov    -0x28(%rbp),%rcx
  403cdf:	64 48 33 0c 25 28 00 	xor    %fs:0x28,%rcx
  403ce6:	00 00 
  403ce8:	0f 84 2c 01 00 00    	je     403e1a <main+0x6e4>
  403cee:	e9 22 01 00 00       	jmpq   403e15 <main+0x6df>
  403cf3:	48 89 c3             	mov    %rax,%rbx
  403cf6:	48 8d 85 50 fe ff ff 	lea    -0x1b0(%rbp),%rax
  403cfd:	48 89 c7             	mov    %rax,%rdi
  403d00:	e8 9f 0a 00 00       	callq  4047a4 <_ZN10tensorflow11TensorShapeD1Ev>
  403d05:	e9 f1 00 00 00       	jmpq   403dfb <main+0x6c5>
  403d0a:	48 89 c3             	mov    %rax,%rbx
  403d0d:	48 8d 85 00 fd ff ff 	lea    -0x300(%rbp),%rax
  403d14:	48 89 c7             	mov    %rax,%rdi
  403d17:	e8 84 f1 ff ff       	callq  402ea0 <_ZN10tensorflow5ScopeD1Ev@plt>
  403d1c:	eb 03                	jmp    403d21 <main+0x5eb>
  403d1e:	48 89 c3             	mov    %rax,%rbx
  403d21:	48 8d 85 90 fe ff ff 	lea    -0x170(%rbp),%rax
  403d28:	48 89 c7             	mov    %rax,%rdi
  403d2b:	e8 80 f1 ff ff       	callq  402eb0 <_ZNSt7__cxx1112basic_stringIcSt11char_traitsIcESaIcEED1Ev@plt>
  403d30:	eb 03                	jmp    403d35 <main+0x5ff>
  403d32:	48 89 c3             	mov    %rax,%rbx
  403d35:	48 8d 85 c0 fd ff ff 	lea    -0x240(%rbp),%rax
  403d3c:	48 89 c7             	mov    %rax,%rdi
  403d3f:	e8 fc f4 ff ff       	callq  403240 <_ZNSaIcED1Ev@plt>
  403d44:	48 8d 85 e0 fe ff ff 	lea    -0x120(%rbp),%rax
  403d4b:	48 89 c7             	mov    %rax,%rdi
  403d4e:	e8 41 0e 00 00       	callq  404b94 <_ZN10tensorflow5InputD1Ev>
  403d53:	eb 03                	jmp    403d58 <main+0x622>
  403d55:	48 89 c3             	mov    %rax,%rbx
  403d58:	48 8d 85 60 ff ff ff 	lea    -0xa0(%rbp),%rax
  403d5f:	48 89 c7             	mov    %rax,%rdi
  403d62:	e8 2d 0e 00 00       	callq  404b94 <_ZN10tensorflow5InputD1Ev>
  403d67:	eb 03                	jmp    403d6c <main+0x636>
  403d69:	48 89 c3             	mov    %rax,%rbx
  403d6c:	48 8d 85 90 fd ff ff 	lea    -0x270(%rbp),%rax
  403d73:	48 89 c7             	mov    %rax,%rdi
  403d76:	e8 4b 0b 00 00       	callq  4048c6 <_ZN10tensorflow6OutputD1Ev>
  403d7b:	eb 03                	jmp    403d80 <main+0x64a>
  403d7d:	48 89 c3             	mov    %rax,%rbx
  403d80:	48 8d 85 b0 fe ff ff 	lea    -0x150(%rbp),%rax
  403d87:	48 89 c7             	mov    %rax,%rdi
  403d8a:	e8 d9 0d 00 00       	callq  404b68 <_ZN10tensorflow5Input11InitializerD1Ev>
  403d8f:	48 89 d8             	mov    %rbx,%rax
  403d92:	eb 00                	jmp    403d94 <main+0x65e>
  403d94:	48 89 c3             	mov    %rax,%rbx
  403d97:	eb 3a                	jmp    403dd3 <main+0x69d>
  403d99:	48 89 c3             	mov    %rax,%rbx
  403d9c:	48 8d 85 f0 fd ff ff 	lea    -0x210(%rbp),%rax
  403da3:	48 89 c7             	mov    %rax,%rdi
  403da6:	e8 15 f0 ff ff       	callq  402dc0 <_ZN10tensorflow11RunMetadataD1Ev@plt>
  403dab:	eb 03                	jmp    403db0 <main+0x67a>
  403dad:	48 89 c3             	mov    %rax,%rbx
  403db0:	48 8d 85 c0 fd ff ff 	lea    -0x240(%rbp),%rax
  403db7:	48 89 c7             	mov    %rax,%rdi
  403dba:	e8 71 ef ff ff       	callq  402d30 <_ZN10tensorflow10RunOptionsD1Ev@plt>
  403dbf:	eb 03                	jmp    403dc4 <main+0x68e>
  403dc1:	48 89 c3             	mov    %rax,%rbx
  403dc4:	48 8d 85 60 fd ff ff 	lea    -0x2a0(%rbp),%rax
  403dcb:	48 89 c7             	mov    %rax,%rdi
  403dce:	e8 57 16 00 00       	callq  40542a <_ZN10tensorflow3ops14ResizeBilinearD1Ev>
  403dd3:	48 8d 85 40 fd ff ff 	lea    -0x2c0(%rbp),%rax
  403dda:	48 89 c7             	mov    %rax,%rdi
  403ddd:	e8 8e 22 00 00       	callq  406070 <_ZNSt6vectorIN10tensorflow6TensorESaIS1_EED1Ev>
  403de2:	eb 03                	jmp    403de7 <main+0x6b1>
  403de4:	48 89 c3             	mov    %rax,%rbx
  403de7:	48 8d 85 70 fe ff ff 	lea    -0x190(%rbp),%rax
  403dee:	48 89 c7             	mov    %rax,%rdi
  403df1:	e8 da ef ff ff       	callq  402dd0 <_ZN10tensorflow6TensorD1Ev@plt>
  403df6:	eb 03                	jmp    403dfb <main+0x6c5>
  403df8:	48 89 c3             	mov    %rax,%rbx
  403dfb:	48 8d 85 f8 fc ff ff 	lea    -0x308(%rbp),%rax
  403e02:	48 89 c7             	mov    %rax,%rdi
  403e05:	e8 96 f0 ff ff       	callq  402ea0 <_ZN10tensorflow5ScopeD1Ev@plt>
  403e0a:	48 89 d8             	mov    %rbx,%rax
  403e0d:	48 89 c7             	mov    %rax,%rdi
  403e10:	e8 fb f1 ff ff       	callq  403010 <_Unwind_Resume@plt>
  403e15:	e8 46 ef ff ff       	callq  402d60 <__stack_chk_fail@plt>
  403e1a:	48 81 c4 f8 02 00 00 	add    $0x2f8,%rsp
  403e21:	5b                   	pop    %rbx
  403e22:	41 5c                	pop    %r12
  403e24:	41 5d                	pop    %r13
  403e26:	5d                   	pop    %rbp
  403e27:	c3                   	retq   

0000000000403e28 <_ZN2CK12measure_testIZ4mainEUlvE_EEvOT_>:
  403e28:	55                   	push   %rbp
  403e29:	48 89 e5             	mov    %rsp,%rbp
  403e2c:	48 83 ec 10          	sub    $0x10,%rsp
  403e30:	48 89 7d f8          	mov    %rdi,-0x8(%rbp)
  403e34:	48 8b 45 f8          	mov    -0x8(%rbp),%rax
  403e38:	be 01 00 00 00       	mov    $0x1,%esi
  403e3d:	48 89 c7             	mov    %rax,%rdi
  403e40:	e8 16 00 00 00       	callq  403e5b <_ZN2CK11do_measuredIRZ4mainEUlvE_EEvOT_i>
  403e45:	bf 01 00 00 00       	mov    $0x1,%edi
  403e4a:	e8 21 f3 ff ff       	callq  403170 <xopenme_get_timer@plt>
  403e4f:	f2 0f 5a c0          	cvtsd2ss %xmm0,%xmm0
  403e53:	e8 7d f5 ff ff       	callq  4033d5 <_ZN2CK15store_test_timeEf>
  403e58:	90                   	nop
  403e59:	c9                   	leaveq 
  403e5a:	c3                   	retq   

0000000000403e5b <_ZN2CK11do_measuredIRZ4mainEUlvE_EEvOT_i>:
  403e5b:	55                   	push   %rbp
  403e5c:	48 89 e5             	mov    %rsp,%rbp
  403e5f:	48 83 ec 10          	sub    $0x10,%rsp
  403e63:	48 89 7d f8          	mov    %rdi,-0x8(%rbp)
  403e67:	89 75 f4             	mov    %esi,-0xc(%rbp)
  403e6a:	8b 45 f4             	mov    -0xc(%rbp),%eax
  403e6d:	89 c7                	mov    %eax,%edi
  403e6f:	e8 2c ef ff ff       	callq  402da0 <xopenme_clock_start@plt>
  403e74:	48 8b 45 f8          	mov    -0x8(%rbp),%rax
  403e78:	48 89 c7             	mov    %rax,%rdi
  403e7b:	e8 80 f5 ff ff       	callq  403400 <_ZZ4mainENKUlvE_clEv>
  403e80:	8b 45 f4             	mov    -0xc(%rbp),%eax
  403e83:	89 c7                	mov    %eax,%edi
  403e85:	e8 f6 f2 ff ff       	callq  403180 <xopenme_clock_end@plt>
  403e8a:	90                   	nop
  403e8b:	c9                   	leaveq 
  403e8c:	c3                   	retq   

0000000000403e8d <_Z41__static_initialization_and_destruction_0ii>:
  403e8d:	55                   	push   %rbp
  403e8e:	48 89 e5             	mov    %rsp,%rbp
  403e91:	53                   	push   %rbx
  403e92:	48 83 ec 28          	sub    $0x28,%rsp
  403e96:	89 7d dc             	mov    %edi,-0x24(%rbp)
  403e99:	89 75 d8             	mov    %esi,-0x28(%rbp)
  403e9c:	64 48 8b 04 25 28 00 	mov    %fs:0x28,%rax
  403ea3:	00 00 
  403ea5:	48 89 45 e8          	mov    %rax,-0x18(%rbp)
  403ea9:	31 c0                	xor    %eax,%eax
  403eab:	83 7d dc 01          	cmpl   $0x1,-0x24(%rbp)
  403eaf:	75 53                	jne    403f04 <_Z41__static_initialization_and_destruction_0ii+0x77>
  403eb1:	81 7d d8 ff ff 00 00 	cmpl   $0xffff,-0x28(%rbp)
  403eb8:	75 4a                	jne    403f04 <_Z41__static_initialization_and_destruction_0ii+0x77>
  403eba:	bf 89 e3 60 00       	mov    $0x60e389,%edi
  403ebf:	e8 4c 18 00 00       	callq  405710 <_ZN5Eigen8Symbolic10SymbolExprINS_12placeholders8internal17symbolic_last_tagEEC1Ev>
  403ec4:	e8 62 18 00 00       	callq  40572b <_ZN5Eigen3fixILi1EEENS_8internal8FixedIntIXT_EEEv>
  403ec9:	48 83 ec 08          	sub    $0x8,%rsp
  403ecd:	53                   	push   %rbx
  403ece:	bf 89 e3 60 00       	mov    $0x60e389,%edi
  403ed3:	e8 94 18 00 00       	callq  40576c <_ZNK5Eigen8Symbolic8BaseExprINS0_10SymbolExprINS_12placeholders8internal17symbolic_last_tagEEEEplILi1EEENS0_7AddExprIS6_NS0_9ValueExprINS_8internal8FixedIntIXT_EEEEEEESD_>
  403ed8:	48 83 c4 10          	add    $0x10,%rsp
  403edc:	bf 8c e3 60 00       	mov    $0x60e38c,%edi
  403ee1:	e8 70 00 00 00       	callq  403f56 <_ZN5Eigen8internal5all_tC1Ev>
  403ee6:	bf 8d e3 60 00       	mov    $0x60e38d,%edi
  403eeb:	e8 20 f3 ff ff       	callq  403210 <_ZNSt8ios_base4InitC1Ev@plt>
  403ef0:	ba b8 e2 60 00       	mov    $0x60e2b8,%edx
  403ef5:	be 8d e3 60 00       	mov    $0x60e38d,%esi
  403efa:	bf a0 31 40 00       	mov    $0x4031a0,%edi
  403eff:	e8 dc ee ff ff       	callq  402de0 <__cxa_atexit@plt>
  403f04:	90                   	nop
  403f05:	48 8b 45 e8          	mov    -0x18(%rbp),%rax
  403f09:	64 48 33 04 25 28 00 	xor    %fs:0x28,%rax
  403f10:	00 00 
  403f12:	74 05                	je     403f19 <_Z41__static_initialization_and_destruction_0ii+0x8c>
  403f14:	e8 47 ee ff ff       	callq  402d60 <__stack_chk_fail@plt>
  403f19:	48 8b 5d f8          	mov    -0x8(%rbp),%rbx
  403f1d:	c9                   	leaveq 
  403f1e:	c3                   	retq   

0000000000403f1f <_GLOBAL__sub_I__ZN2CK16store_setup_timeEf>:
  403f1f:	55                   	push   %rbp
  403f20:	48 89 e5             	mov    %rsp,%rbp
  403f23:	be ff ff 00 00       	mov    $0xffff,%esi
  403f28:	bf 01 00 00 00       	mov    $0x1,%edi
  403f2d:	e8 5b ff ff ff       	callq  403e8d <_Z41__static_initialization_and_destruction_0ii>
  403f32:	5d                   	pop    %rbp
  403f33:	c3                   	retq   

0000000000403f34 <_ZnwmPv>:
  403f34:	55                   	push   %rbp
  403f35:	48 89 e5             	mov    %rsp,%rbp
  403f38:	48 89 7d f8          	mov    %rdi,-0x8(%rbp)
  403f3c:	48 89 75 f0          	mov    %rsi,-0x10(%rbp)
  403f40:	48 8b 45 f0          	mov    -0x10(%rbp),%rax
  403f44:	5d                   	pop    %rbp
  403f45:	c3                   	retq   

0000000000403f46 <_ZdlPvS_>:
  403f46:	55                   	push   %rbp
  403f47:	48 89 e5             	mov    %rsp,%rbp
  403f4a:	48 89 7d f8          	mov    %rdi,-0x8(%rbp)
  403f4e:	48 89 75 f0          	mov    %rsi,-0x10(%rbp)
  403f52:	90                   	nop
  403f53:	5d                   	pop    %rbp
  403f54:	c3                   	retq   
  403f55:	90                   	nop

0000000000403f56 <_ZN5Eigen8internal5all_tC1Ev>:
  403f56:	55                   	push   %rbp
  403f57:	48 89 e5             	mov    %rsp,%rbp
  403f5a:	48 89 7d f8          	mov    %rdi,-0x8(%rbp)
  403f5e:	90                   	nop
  403f5f:	5d                   	pop    %rbp
  403f60:	c3                   	retq   

0000000000403f61 <_ZStanSt12memory_orderSt23__memory_order_modifier>:
  403f61:	55                   	push   %rbp
  403f62:	48 89 e5             	mov    %rsp,%rbp
  403f65:	89 7d fc             	mov    %edi,-0x4(%rbp)
  403f68:	89 75 f8             	mov    %esi,-0x8(%rbp)
  403f6b:	8b 55 fc             	mov    -0x4(%rbp),%edx
  403f6e:	8b 45 f8             	mov    -0x8(%rbp),%eax
  403f71:	21 d0                	and    %edx,%eax
  403f73:	5d                   	pop    %rbp
  403f74:	c3                   	retq   
  403f75:	90                   	nop

0000000000403f76 <_ZNSt8__detail15_Hash_node_baseC1Ev>:
  403f76:	55                   	push   %rbp
  403f77:	48 89 e5             	mov    %rsp,%rbp
  403f7a:	48 89 7d f8          	mov    %rdi,-0x8(%rbp)
  403f7e:	48 8b 45 f8          	mov    -0x8(%rbp),%rax
  403f82:	48 c7 00 00 00 00 00 	movq   $0x0,(%rax)
  403f89:	90                   	nop
  403f8a:	5d                   	pop    %rbp
  403f8b:	c3                   	retq   

0000000000403f8c <_ZNSt8__detail20_Prime_rehash_policyC1Ef>:
  403f8c:	55                   	push   %rbp
  403f8d:	48 89 e5             	mov    %rsp,%rbp
  403f90:	48 89 7d f8          	mov    %rdi,-0x8(%rbp)
  403f94:	f3 0f 11 45 f4       	movss  %xmm0,-0xc(%rbp)
  403f99:	48 8b 45 f8          	mov    -0x8(%rbp),%rax
  403f9d:	f3 0f 10 45 f4       	movss  -0xc(%rbp),%xmm0
  403fa2:	f3 0f 11 00          	movss  %xmm0,(%rax)
  403fa6:	48 8b 45 f8          	mov    -0x8(%rbp),%rax
  403faa:	48 c7 40 08 00 00 00 	movq   $0x0,0x8(%rax)
  403fb1:	00 
  403fb2:	90                   	nop
  403fb3:	5d                   	pop    %rbp
  403fb4:	c3                   	retq   
  403fb5:	90                   	nop

0000000000403fb6 <_ZNK6google8protobuf8internal14ArenaStringPtr3GetB5cxx11Ev>:
  403fb6:	55                   	push   %rbp
  403fb7:	48 89 e5             	mov    %rsp,%rbp
  403fba:	48 89 7d f8          	mov    %rdi,-0x8(%rbp)
  403fbe:	48 8b 45 f8          	mov    -0x8(%rbp),%rax
  403fc2:	48 8b 00             	mov    (%rax),%rax
  403fc5:	5d                   	pop    %rbp
  403fc6:	c3                   	retq   
  403fc7:	90                   	nop

0000000000403fc8 <_ZNK6google8protobuf8internal20RepeatedPtrFieldBase4sizeEv>:
  403fc8:	55                   	push   %rbp
  403fc9:	48 89 e5             	mov    %rsp,%rbp
  403fcc:	48 89 7d f8          	mov    %rdi,-0x8(%rbp)
  403fd0:	48 8b 45 f8          	mov    -0x8(%rbp),%rax
  403fd4:	8b 40 08             	mov    0x8(%rax),%eax
  403fd7:	5d                   	pop    %rbp
  403fd8:	c3                   	retq   
  403fd9:	90                   	nop

0000000000403fda <_ZNK6google8protobuf8internal20RepeatedPtrFieldBase8raw_dataEv>:
  403fda:	55                   	push   %rbp
  403fdb:	48 89 e5             	mov    %rsp,%rbp
  403fde:	48 89 7d f8          	mov    %rdi,-0x8(%rbp)
  403fe2:	48 8b 45 f8          	mov    -0x8(%rbp),%rax
  403fe6:	48 8b 40 10          	mov    0x10(%rax),%rax
  403fea:	48 85 c0             	test   %rax,%rax
  403fed:	74 0e                	je     403ffd <_ZNK6google8protobuf8internal20RepeatedPtrFieldBase8raw_dataEv+0x23>
  403fef:	48 8b 45 f8          	mov    -0x8(%rbp),%rax
  403ff3:	48 8b 40 10          	mov    0x10(%rax),%rax
  403ff7:	48 83 c0 08          	add    $0x8,%rax
  403ffb:	eb 05                	jmp    404002 <_ZNK6google8protobuf8internal20RepeatedPtrFieldBase8raw_dataEv+0x28>
  403ffd:	b8 00 00 00 00       	mov    $0x0,%eax
  404002:	5d                   	pop    %rbp
  404003:	c3                   	retq   

0000000000404004 <_ZN10tensorflow8internal21GetReferenceableValueEi>:
  404004:	55                   	push   %rbp
  404005:	48 89 e5             	mov    %rsp,%rbp
  404008:	89 7d fc             	mov    %edi,-0x4(%rbp)
  40400b:	8b 45 fc             	mov    -0x4(%rbp),%eax
  40400e:	5d                   	pop    %rbp
  40400f:	c3                   	retq   

0000000000404010 <_ZN10tensorflow8internal21GetReferenceableValueEl>:
  404010:	55                   	push   %rbp
  404011:	48 89 e5             	mov    %rsp,%rbp
  404014:	48 89 7d f8          	mov    %rdi,-0x8(%rbp)
  404018:	48 8b 45 f8          	mov    -0x8(%rbp),%rax
  40401c:	5d                   	pop    %rbp
  40401d:	c3                   	retq   

000000000040401e <_ZN10tensorflow8internal21GetReferenceableValueEm>:
  40401e:	55                   	push   %rbp
  40401f:	48 89 e5             	mov    %rsp,%rbp
  404022:	48 89 7d f8          	mov    %rdi,-0x8(%rbp)
  404026:	48 8b 45 f8          	mov    -0x8(%rbp),%rax
  40402a:	5d                   	pop    %rbp
  40402b:	c3                   	retq   

000000000040402c <_ZN10tensorflow8internal21GetReferenceableValueEx>:
  40402c:	55                   	push   %rbp
  40402d:	48 89 e5             	mov    %rsp,%rbp
  404030:	48 89 7d f8          	mov    %rdi,-0x8(%rbp)
  404034:	48 8b 45 f8          	mov    -0x8(%rbp),%rax
  404038:	5d                   	pop    %rbp
  404039:	c3                   	retq   

000000000040403a <_ZN10tensorflow8internal13CheckOpStringC1EPNSt7__cxx1112basic_stringIcSt11char_traitsIcESaIcEEE>:
  40403a:	55                   	push   %rbp
  40403b:	48 89 e5             	mov    %rsp,%rbp
  40403e:	48 89 7d f8          	mov    %rdi,-0x8(%rbp)
  404042:	48 89 75 f0          	mov    %rsi,-0x10(%rbp)
  404046:	48 8b 45 f8          	mov    -0x8(%rbp),%rax
  40404a:	48 8b 55 f0          	mov    -0x10(%rbp),%rdx
  40404e:	48 89 10             	mov    %rdx,(%rax)
  404051:	90                   	nop
  404052:	5d                   	pop    %rbp
  404053:	c3                   	retq   

0000000000404054 <_ZNK10tensorflow8internal13CheckOpStringcvbEv>:
  404054:	55                   	push   %rbp
  404055:	48 89 e5             	mov    %rsp,%rbp
  404058:	48 89 7d f8          	mov    %rdi,-0x8(%rbp)
  40405c:	48 8b 45 f8          	mov    -0x8(%rbp),%rax
  404060:	48 8b 00             	mov    (%rax),%rax
  404063:	48 85 c0             	test   %rax,%rax
  404066:	0f 95 c0             	setne  %al
  404069:	5d                   	pop    %rbp
  40406a:	c3                   	retq   
  40406b:	90                   	nop

000000000040406c <_ZN10tensorflow8internal21CheckOpMessageBuilder7ForVar1Ev>:
  40406c:	55                   	push   %rbp
  40406d:	48 89 e5             	mov    %rsp,%rbp
  404070:	48 89 7d f8          	mov    %rdi,-0x8(%rbp)
  404074:	48 8b 45 f8          	mov    -0x8(%rbp),%rax
  404078:	48 8b 00             	mov    (%rax),%rax
  40407b:	5d                   	pop    %rbp
  40407c:	c3                   	retq   
  40407d:	90                   	nop

000000000040407e <_ZNSt14default_deleteIN10tensorflow6Status5StateEEC1Ev>:
  40407e:	55                   	push   %rbp
  40407f:	48 89 e5             	mov    %rsp,%rbp
  404082:	48 89 7d f8          	mov    %rdi,-0x8(%rbp)
  404086:	90                   	nop
  404087:	5d                   	pop    %rbp
  404088:	c3                   	retq   
  404089:	90                   	nop

000000000040408a <_ZNSt10_Head_baseILm1ESt14default_deleteIN10tensorflow6Status5StateEELb1EEC2Ev>:
  40408a:	55                   	push   %rbp
  40408b:	48 89 e5             	mov    %rsp,%rbp
  40408e:	48 83 ec 10          	sub    $0x10,%rsp
  404092:	48 89 7d f8          	mov    %rdi,-0x8(%rbp)
  404096:	48 8b 45 f8          	mov    -0x8(%rbp),%rax
  40409a:	48 89 c7             	mov    %rax,%rdi
  40409d:	e8 dc ff ff ff       	callq  40407e <_ZNSt14default_deleteIN10tensorflow6Status5StateEEC1Ev>
  4040a2:	90                   	nop
  4040a3:	c9                   	leaveq 
  4040a4:	c3                   	retq   
  4040a5:	90                   	nop

00000000004040a6 <_ZNSt11_Tuple_implILm1EJSt14default_deleteIN10tensorflow6Status5StateEEEEC2Ev>:
  4040a6:	55                   	push   %rbp
  4040a7:	48 89 e5             	mov    %rsp,%rbp
  4040aa:	48 83 ec 10          	sub    $0x10,%rsp
  4040ae:	48 89 7d f8          	mov    %rdi,-0x8(%rbp)
  4040b2:	48 8b 45 f8          	mov    -0x8(%rbp),%rax
  4040b6:	48 89 c7             	mov    %rax,%rdi
  4040b9:	e8 cc ff ff ff       	callq  40408a <_ZNSt10_Head_baseILm1ESt14default_deleteIN10tensorflow6Status5StateEELb1EEC2Ev>
  4040be:	90                   	nop
  4040bf:	c9                   	leaveq 
  4040c0:	c3                   	retq   
  4040c1:	90                   	nop

00000000004040c2 <_ZNSt10_Head_baseILm0EPN10tensorflow6Status5StateELb0EEC2Ev>:
  4040c2:	55                   	push   %rbp
  4040c3:	48 89 e5             	mov    %rsp,%rbp
  4040c6:	48 89 7d f8          	mov    %rdi,-0x8(%rbp)
  4040ca:	48 8b 45 f8          	mov    -0x8(%rbp),%rax
  4040ce:	48 c7 00 00 00 00 00 	movq   $0x0,(%rax)
  4040d5:	90                   	nop
  4040d6:	5d                   	pop    %rbp
  4040d7:	c3                   	retq   

00000000004040d8 <_ZNSt11_Tuple_implILm0EJPN10tensorflow6Status5StateESt14default_deleteIS2_EEEC2Ev>:
  4040d8:	55                   	push   %rbp
  4040d9:	48 89 e5             	mov    %rsp,%rbp
  4040dc:	48 83 ec 10          	sub    $0x10,%rsp
  4040e0:	48 89 7d f8          	mov    %rdi,-0x8(%rbp)
  4040e4:	48 8b 45 f8          	mov    -0x8(%rbp),%rax
  4040e8:	48 89 c7             	mov    %rax,%rdi
  4040eb:	e8 b6 ff ff ff       	callq  4040a6 <_ZNSt11_Tuple_implILm1EJSt14default_deleteIN10tensorflow6Status5StateEEEEC2Ev>
  4040f0:	48 8b 45 f8          	mov    -0x8(%rbp),%rax
  4040f4:	48 89 c7             	mov    %rax,%rdi
  4040f7:	e8 c6 ff ff ff       	callq  4040c2 <_ZNSt10_Head_baseILm0EPN10tensorflow6Status5StateELb0EEC2Ev>
  4040fc:	90                   	nop
  4040fd:	c9                   	leaveq 
  4040fe:	c3                   	retq   
  4040ff:	90                   	nop

0000000000404100 <_ZNSt5tupleIJPN10tensorflow6Status5StateESt14default_deleteIS2_EEEC1IS3_S5_Lb1EEEv>:
  404100:	55                   	push   %rbp
  404101:	48 89 e5             	mov    %rsp,%rbp
  404104:	48 83 ec 10          	sub    $0x10,%rsp
  404108:	48 89 7d f8          	mov    %rdi,-0x8(%rbp)
  40410c:	48 8b 45 f8          	mov    -0x8(%rbp),%rax
  404110:	48 89 c7             	mov    %rax,%rdi
  404113:	e8 c0 ff ff ff       	callq  4040d8 <_ZNSt11_Tuple_implILm0EJPN10tensorflow6Status5StateESt14default_deleteIS2_EEEC2Ev>
  404118:	90                   	nop
  404119:	c9                   	leaveq 
  40411a:	c3                   	retq   
  40411b:	90                   	nop

000000000040411c <_ZNSt10unique_ptrIN10tensorflow6Status5StateESt14default_deleteIS2_EEC1Ev>:
  40411c:	55                   	push   %rbp
  40411d:	48 89 e5             	mov    %rsp,%rbp
  404120:	48 83 ec 10          	sub    $0x10,%rsp
  404124:	48 89 7d f8          	mov    %rdi,-0x8(%rbp)
  404128:	48 8b 45 f8          	mov    -0x8(%rbp),%rax
  40412c:	48 89 c7             	mov    %rax,%rdi
  40412f:	e8 cc ff ff ff       	callq  404100 <_ZNSt5tupleIJPN10tensorflow6Status5StateESt14default_deleteIS2_EEEC1IS3_S5_Lb1EEEv>
  404134:	90                   	nop
  404135:	c9                   	leaveq 
  404136:	c3                   	retq   
  404137:	90                   	nop

0000000000404138 <_ZN10tensorflow6StatusC1Ev>:
  404138:	55                   	push   %rbp
  404139:	48 89 e5             	mov    %rsp,%rbp
  40413c:	48 83 ec 10          	sub    $0x10,%rsp
  404140:	48 89 7d f8          	mov    %rdi,-0x8(%rbp)
  404144:	48 8b 45 f8          	mov    -0x8(%rbp),%rax
  404148:	48 89 c7             	mov    %rax,%rdi
  40414b:	e8 cc ff ff ff       	callq  40411c <_ZNSt10unique_ptrIN10tensorflow6Status5StateESt14default_deleteIS2_EEC1Ev>
  404150:	90                   	nop
  404151:	c9                   	leaveq 
  404152:	c3                   	retq   
  404153:	90                   	nop

0000000000404154 <_ZN10tensorflow6StatusD1Ev>:
  404154:	55                   	push   %rbp
  404155:	48 89 e5             	mov    %rsp,%rbp
  404158:	48 83 ec 10          	sub    $0x10,%rsp
  40415c:	48 89 7d f8          	mov    %rdi,-0x8(%rbp)
  404160:	48 8b 45 f8          	mov    -0x8(%rbp),%rax
  404164:	48 89 c7             	mov    %rax,%rdi
  404167:	e8 0a 17 00 00       	callq  405876 <_ZNSt10unique_ptrIN10tensorflow6Status5StateESt14default_deleteIS2_EED1Ev>
  40416c:	90                   	nop
  40416d:	c9                   	leaveq 
  40416e:	c3                   	retq   

000000000040416f <_ZN10tensorflow6Status2OKEv>:
  40416f:	55                   	push   %rbp
  404170:	48 89 e5             	mov    %rsp,%rbp
  404173:	48 83 ec 10          	sub    $0x10,%rsp
  404177:	48 89 7d f8          	mov    %rdi,-0x8(%rbp)
  40417b:	48 8b 45 f8          	mov    -0x8(%rbp),%rax
  40417f:	48 89 c7             	mov    %rax,%rdi
  404182:	e8 b1 ff ff ff       	callq  404138 <_ZN10tensorflow6StatusC1Ev>
  404187:	48 8b 45 f8          	mov    -0x8(%rbp),%rax
  40418b:	c9                   	leaveq 
  40418c:	c3                   	retq   
  40418d:	90                   	nop

000000000040418e <_ZNK10tensorflow6Status2okEv>:
  40418e:	55                   	push   %rbp
  40418f:	48 89 e5             	mov    %rsp,%rbp
  404192:	48 83 ec 10          	sub    $0x10,%rsp
  404196:	48 89 7d f8          	mov    %rdi,-0x8(%rbp)
  40419a:	48 8b 45 f8          	mov    -0x8(%rbp),%rax
  40419e:	be 00 00 00 00       	mov    $0x0,%esi
  4041a3:	48 89 c7             	mov    %rax,%rdi
  4041a6:	e8 25 17 00 00       	callq  4058d0 <_ZSteqIN10tensorflow6Status5StateESt14default_deleteIS2_EEbRKSt10unique_ptrIT_T0_EDn>
  4041ab:	c9                   	leaveq 
  4041ac:	c3                   	retq   
  4041ad:	90                   	nop

00000000004041ae <_ZN10tensorflow6Status5StateC1ERKS1_>:
  4041ae:	55                   	push   %rbp
  4041af:	48 89 e5             	mov    %rsp,%rbp
  4041b2:	48 83 ec 10          	sub    $0x10,%rsp
  4041b6:	48 89 7d f8          	mov    %rdi,-0x8(%rbp)
  4041ba:	48 89 75 f0          	mov    %rsi,-0x10(%rbp)
  4041be:	48 8b 45 f0          	mov    -0x10(%rbp),%rax
  4041c2:	8b 10                	mov    (%rax),%edx
  4041c4:	48 8b 45 f8          	mov    -0x8(%rbp),%rax
  4041c8:	89 10                	mov    %edx,(%rax)
  4041ca:	48 8b 45 f0          	mov    -0x10(%rbp),%rax
  4041ce:	48 8d 50 08          	lea    0x8(%rax),%rdx
  4041d2:	48 8b 45 f8          	mov    -0x8(%rbp),%rax
  4041d6:	48 83 c0 08          	add    $0x8,%rax
  4041da:	48 89 d6             	mov    %rdx,%rsi
  4041dd:	48 89 c7             	mov    %rax,%rdi
  4041e0:	e8 3b eb ff ff       	callq  402d20 <_ZNSt7__cxx1112basic_stringIcSt11char_traitsIcESaIcEEC1ERKS4_@plt>
  4041e5:	90                   	nop
  4041e6:	c9                   	leaveq 
  4041e7:	c3                   	retq   

00000000004041e8 <_ZN10tensorflow6StatusC1ERKS0_>:
  4041e8:	55                   	push   %rbp
  4041e9:	48 89 e5             	mov    %rsp,%rbp
  4041ec:	41 54                	push   %r12
  4041ee:	53                   	push   %rbx
  4041ef:	48 83 ec 10          	sub    $0x10,%rsp
  4041f3:	48 89 7d e8          	mov    %rdi,-0x18(%rbp)
  4041f7:	48 89 75 e0          	mov    %rsi,-0x20(%rbp)
  4041fb:	48 8b 45 e0          	mov    -0x20(%rbp),%rax
  4041ff:	be 00 00 00 00       	mov    $0x0,%esi
  404204:	48 89 c7             	mov    %rax,%rdi
  404207:	e8 c4 16 00 00       	callq  4058d0 <_ZSteqIN10tensorflow6Status5StateESt14default_deleteIS2_EEbRKSt10unique_ptrIT_T0_EDn>
  40420c:	84 c0                	test   %al,%al
  40420e:	74 07                	je     404217 <_ZN10tensorflow6StatusC1ERKS0_+0x2f>
  404210:	ba 00 00 00 00       	mov    $0x0,%edx
  404215:	eb 2a                	jmp    404241 <_ZN10tensorflow6StatusC1ERKS0_+0x59>
  404217:	48 8b 45 e0          	mov    -0x20(%rbp),%rax
  40421b:	48 89 c7             	mov    %rax,%rdi
  40421e:	e8 cf 16 00 00       	callq  4058f2 <_ZNKSt10unique_ptrIN10tensorflow6Status5StateESt14default_deleteIS2_EEdeEv>
  404223:	49 89 c4             	mov    %rax,%r12
  404226:	bf 28 00 00 00       	mov    $0x28,%edi
  40422b:	e8 f0 ee ff ff       	callq  403120 <_Znwm@plt>
  404230:	48 89 c3             	mov    %rax,%rbx
  404233:	4c 89 e6             	mov    %r12,%rsi
  404236:	48 89 df             	mov    %rbx,%rdi
  404239:	e8 70 ff ff ff       	callq  4041ae <_ZN10tensorflow6Status5StateC1ERKS1_>
  40423e:	48 89 da             	mov    %rbx,%rdx
  404241:	48 8b 45 e8          	mov    -0x18(%rbp),%rax
  404245:	48 89 d6             	mov    %rdx,%rsi
  404248:	48 89 c7             	mov    %rax,%rdi
  40424b:	e8 bc 16 00 00       	callq  40590c <_ZNSt10unique_ptrIN10tensorflow6Status5StateESt14default_deleteIS2_EEC1EPS2_>
  404250:	eb 16                	jmp    404268 <_ZN10tensorflow6StatusC1ERKS0_+0x80>
  404252:	49 89 c4             	mov    %rax,%r12
  404255:	48 89 df             	mov    %rbx,%rdi
  404258:	e8 33 eb ff ff       	callq  402d90 <_ZdlPv@plt>
  40425d:	4c 89 e0             	mov    %r12,%rax
  404260:	48 89 c7             	mov    %rax,%rdi
  404263:	e8 a8 ed ff ff       	callq  403010 <_Unwind_Resume@plt>
  404268:	48 83 c4 10          	add    $0x10,%rsp
  40426c:	5b                   	pop    %rbx
  40426d:	41 5c                	pop    %r12
  40426f:	5d                   	pop    %rbp
  404270:	c3                   	retq   

0000000000404271 <_ZN10tensorflow15TfCheckOpHelperB5cxx11ENS_6StatusEPKc>:
  404271:	55                   	push   %rbp
  404272:	48 89 e5             	mov    %rsp,%rbp
  404275:	48 83 ec 10          	sub    $0x10,%rsp
  404279:	48 89 7d f8          	mov    %rdi,-0x8(%rbp)
  40427d:	48 89 75 f0          	mov    %rsi,-0x10(%rbp)
  404281:	48 8b 45 f8          	mov    -0x8(%rbp),%rax
  404285:	48 89 c7             	mov    %rax,%rdi
  404288:	e8 01 ff ff ff       	callq  40418e <_ZNK10tensorflow6Status2okEv>
  40428d:	84 c0                	test   %al,%al
  40428f:	74 07                	je     404298 <_ZN10tensorflow15TfCheckOpHelperB5cxx11ENS_6StatusEPKc+0x27>
  404291:	b8 00 00 00 00       	mov    $0x0,%eax
  404296:	eb 13                	jmp    4042ab <_ZN10tensorflow15TfCheckOpHelperB5cxx11ENS_6StatusEPKc+0x3a>
  404298:	48 8b 55 f0          	mov    -0x10(%rbp),%rdx
  40429c:	48 8b 45 f8          	mov    -0x8(%rbp),%rax
  4042a0:	48 89 d6             	mov    %rdx,%rsi
  4042a3:	48 89 c7             	mov    %rax,%rdi
  4042a6:	e8 35 ef ff ff       	callq  4031e0 <_ZN10tensorflow24TfCheckOpHelperOutOfLineB5cxx11ERKNS_6StatusEPKc@plt>
  4042ab:	c9                   	leaveq 
  4042ac:	c3                   	retq   
  4042ad:	90                   	nop

00000000004042ae <_ZNK10tensorflow14TensorShapeRep12num_elementsEv>:
  4042ae:	55                   	push   %rbp
  4042af:	48 89 e5             	mov    %rsp,%rbp
  4042b2:	48 89 7d f8          	mov    %rdi,-0x8(%rbp)
  4042b6:	48 8b 45 f8          	mov    -0x8(%rbp),%rax
  4042ba:	48 8b 40 10          	mov    0x10(%rax),%rax
  4042be:	5d                   	pop    %rbp
  4042bf:	c3                   	retq   

00000000004042c0 <_ZNK10tensorflow14TensorShapeRep3tagEv>:
  4042c0:	55                   	push   %rbp
  4042c1:	48 89 e5             	mov    %rsp,%rbp
  4042c4:	48 83 ec 10          	sub    $0x10,%rsp
  4042c8:	48 89 7d f8          	mov    %rdi,-0x8(%rbp)
  4042cc:	48 8b 45 f8          	mov    -0x8(%rbp),%rax
  4042d0:	48 89 c7             	mov    %rax,%rdi
  4042d3:	e8 42 00 00 00       	callq  40431a <_ZNK10tensorflow14TensorShapeRep3bufEv>
  4042d8:	48 83 c0 0f          	add    $0xf,%rax
  4042dc:	0f b6 00             	movzbl (%rax),%eax
  4042df:	0f b6 c0             	movzbl %al,%eax
  4042e2:	c9                   	leaveq 
  4042e3:	c3                   	retq   

00000000004042e4 <_ZN10tensorflow14TensorShapeRep7set_tagENS0_6RepTagE>:
  4042e4:	55                   	push   %rbp
  4042e5:	48 89 e5             	mov    %rsp,%rbp
  4042e8:	48 83 ec 10          	sub    $0x10,%rsp
  4042ec:	48 89 7d f8          	mov    %rdi,-0x8(%rbp)
  4042f0:	89 75 f4             	mov    %esi,-0xc(%rbp)
  4042f3:	48 8b 45 f8          	mov    -0x8(%rbp),%rax
  4042f7:	48 89 c7             	mov    %rax,%rdi
  4042fa:	e8 0d 00 00 00       	callq  40430c <_ZN10tensorflow14TensorShapeRep3bufEv>
  4042ff:	48 83 c0 0f          	add    $0xf,%rax
  404303:	8b 55 f4             	mov    -0xc(%rbp),%edx
  404306:	88 10                	mov    %dl,(%rax)
  404308:	90                   	nop
  404309:	c9                   	leaveq 
  40430a:	c3                   	retq   
  40430b:	90                   	nop

000000000040430c <_ZN10tensorflow14TensorShapeRep3bufEv>:
  40430c:	55                   	push   %rbp
  40430d:	48 89 e5             	mov    %rsp,%rbp
  404310:	48 89 7d f8          	mov    %rdi,-0x8(%rbp)
  404314:	48 8b 45 f8          	mov    -0x8(%rbp),%rax
  404318:	5d                   	pop    %rbp
  404319:	c3                   	retq   

000000000040431a <_ZNK10tensorflow14TensorShapeRep3bufEv>:
  40431a:	55                   	push   %rbp
  40431b:	48 89 e5             	mov    %rsp,%rbp
  40431e:	48 89 7d f8          	mov    %rdi,-0x8(%rbp)
  404322:	48 8b 45 f8          	mov    -0x8(%rbp),%rax
  404326:	5d                   	pop    %rbp
  404327:	c3                   	retq   

0000000000404328 <_ZN10tensorflow14TensorShapeRepC1ERKS0_>:
  404328:	55                   	push   %rbp
  404329:	48 89 e5             	mov    %rsp,%rbp
  40432c:	53                   	push   %rbx
  40432d:	48 83 ec 18          	sub    $0x18,%rsp
  404331:	48 89 7d e8          	mov    %rdi,-0x18(%rbp)
  404335:	48 89 75 e0          	mov    %rsi,-0x20(%rbp)
  404339:	48 8b 45 e0          	mov    -0x20(%rbp),%rax
  40433d:	48 8b 50 10          	mov    0x10(%rax),%rdx
  404341:	48 8b 45 e8          	mov    -0x18(%rbp),%rax
  404345:	48 89 50 10          	mov    %rdx,0x10(%rax)
  404349:	48 8b 45 e0          	mov    -0x20(%rbp),%rax
  40434d:	48 89 c7             	mov    %rax,%rdi
  404350:	e8 6b ff ff ff       	callq  4042c0 <_ZNK10tensorflow14TensorShapeRep3tagEv>
  404355:	83 f8 02             	cmp    $0x2,%eax
  404358:	0f 95 c0             	setne  %al
  40435b:	84 c0                	test   %al,%al
  40435d:	74 2e                	je     40438d <_ZN10tensorflow14TensorShapeRepC1ERKS0_+0x65>
  40435f:	48 8b 45 e0          	mov    -0x20(%rbp),%rax
  404363:	48 89 c7             	mov    %rax,%rdi
  404366:	e8 af ff ff ff       	callq  40431a <_ZNK10tensorflow14TensorShapeRep3bufEv>
  40436b:	48 89 c3             	mov    %rax,%rbx
  40436e:	48 8b 45 e8          	mov    -0x18(%rbp),%rax
  404372:	48 89 c7             	mov    %rax,%rdi
  404375:	e8 92 ff ff ff       	callq  40430c <_ZN10tensorflow14TensorShapeRep3bufEv>
  40437a:	48 89 c1             	mov    %rax,%rcx
  40437d:	48 8b 03             	mov    (%rbx),%rax
  404380:	48 8b 53 08          	mov    0x8(%rbx),%rdx
  404384:	48 89 01             	mov    %rax,(%rcx)
  404387:	48 89 51 08          	mov    %rdx,0x8(%rcx)
  40438b:	eb 24                	jmp    4043b1 <_ZN10tensorflow14TensorShapeRepC1ERKS0_+0x89>
  40438d:	48 8b 45 e8          	mov    -0x18(%rbp),%rax
  404391:	be 00 00 00 00       	mov    $0x0,%esi
  404396:	48 89 c7             	mov    %rax,%rdi
  404399:	e8 46 ff ff ff       	callq  4042e4 <_ZN10tensorflow14TensorShapeRep7set_tagENS0_6RepTagE>
  40439e:	48 8b 55 e0          	mov    -0x20(%rbp),%rdx
  4043a2:	48 8b 45 e8          	mov    -0x18(%rbp),%rax
  4043a6:	48 89 d6             	mov    %rdx,%rsi
  4043a9:	48 89 c7             	mov    %rax,%rdi
  4043ac:	e8 af ec ff ff       	callq  403060 <_ZN10tensorflow14TensorShapeRep12SlowCopyFromERKS0_@plt>
  4043b1:	90                   	nop
  4043b2:	48 83 c4 18          	add    $0x18,%rsp
  4043b6:	5b                   	pop    %rbx
  4043b7:	5d                   	pop    %rbp
  4043b8:	c3                   	retq   
  4043b9:	90                   	nop

00000000004043ba <_ZN10tensorflow14TensorShapeRepD1Ev>:
  4043ba:	55                   	push   %rbp
  4043bb:	48 89 e5             	mov    %rsp,%rbp
  4043be:	48 83 ec 10          	sub    $0x10,%rsp
  4043c2:	48 89 7d f8          	mov    %rdi,-0x8(%rbp)
  4043c6:	48 8b 45 f8          	mov    -0x8(%rbp),%rax
  4043ca:	48 89 c7             	mov    %rax,%rdi
  4043cd:	e8 ee fe ff ff       	callq  4042c0 <_ZNK10tensorflow14TensorShapeRep3tagEv>
  4043d2:	83 f8 02             	cmp    $0x2,%eax
  4043d5:	0f 94 c0             	sete   %al
  4043d8:	84 c0                	test   %al,%al
  4043da:	74 0c                	je     4043e8 <_ZN10tensorflow14TensorShapeRepD1Ev+0x2e>
  4043dc:	48 8b 45 f8          	mov    -0x8(%rbp),%rax
  4043e0:	48 89 c7             	mov    %rax,%rdi
  4043e3:	e8 78 ea ff ff       	callq  402e60 <_ZN10tensorflow14TensorShapeRep19DestructorOutOfLineEv@plt>
  4043e8:	90                   	nop
  4043e9:	c9                   	leaveq 
  4043ea:	c3                   	retq   

00000000004043eb <_ZN10tensorflow14DataTypeToEnumIfE1vEv>:
  4043eb:	55                   	push   %rbp
  4043ec:	48 89 e5             	mov    %rsp,%rbp
  4043ef:	b8 01 00 00 00       	mov    $0x1,%eax
  4043f4:	5d                   	pop    %rbp
  4043f5:	c3                   	retq   

00000000004043f6 <_ZN10tensorflow14DataTypeToEnumIiE1vEv>:
  4043f6:	55                   	push   %rbp
  4043f7:	48 89 e5             	mov    %rsp,%rbp
  4043fa:	b8 03 00 00 00       	mov    $0x3,%eax
  4043ff:	5d                   	pop    %rbp
  404400:	c3                   	retq   
  404401:	90                   	nop

0000000000404402 <_ZN10tensorflow4core10RefCountedD1Ev>:
  404402:	55                   	push   %rbp
  404403:	48 89 e5             	mov    %rsp,%rbp
  404406:	53                   	push   %rbx
  404407:	48 81 ec d8 01 00 00 	sub    $0x1d8,%rsp
  40440e:	48 89 bd 28 fe ff ff 	mov    %rdi,-0x1d8(%rbp)
  404415:	64 48 8b 04 25 28 00 	mov    %fs:0x28,%rax
  40441c:	00 00 
  40441e:	48 89 45 e8          	mov    %rax,-0x18(%rbp)
  404422:	31 c0                	xor    %eax,%eax
  404424:	ba a8 94 40 00       	mov    $0x4094a8,%edx
  404429:	48 8b 85 28 fe ff ff 	mov    -0x1d8(%rbp),%rax
  404430:	48 89 10             	mov    %rdx,(%rax)
  404433:	bf 00 00 00 00       	mov    $0x0,%edi
  404438:	e8 c7 fb ff ff       	callq  404004 <_ZN10tensorflow8internal21GetReferenceableValueEi>
  40443d:	89 85 3c fe ff ff    	mov    %eax,-0x1c4(%rbp)
  404443:	48 8b 85 28 fe ff ff 	mov    -0x1d8(%rbp),%rax
  40444a:	48 83 c0 08          	add    $0x8,%rax
  40444e:	48 89 85 58 fe ff ff 	mov    %rax,-0x1a8(%rbp)
  404455:	c7 85 40 fe ff ff 05 	movl   $0x5,-0x1c0(%rbp)
  40445c:	00 00 00 
  40445f:	8b 85 40 fe ff ff    	mov    -0x1c0(%rbp),%eax
  404465:	be ff ff 00 00       	mov    $0xffff,%esi
  40446a:	89 c7                	mov    %eax,%edi
  40446c:	e8 f0 fa ff ff       	callq  403f61 <_ZStanSt12memory_orderSt23__memory_order_modifier>
  404471:	89 85 44 fe ff ff    	mov    %eax,-0x1bc(%rbp)
  404477:	48 8b 85 58 fe ff ff 	mov    -0x1a8(%rbp),%rax
  40447e:	48 8b 00             	mov    (%rax),%rax
  404481:	48 89 c7             	mov    %rax,%rdi
  404484:	e8 87 fb ff ff       	callq  404010 <_ZN10tensorflow8internal21GetReferenceableValueEl>
  404489:	48 89 85 50 fe ff ff 	mov    %rax,-0x1b0(%rbp)
  404490:	48 8d 8d 3c fe ff ff 	lea    -0x1c4(%rbp),%rcx
  404497:	48 8d 85 50 fe ff ff 	lea    -0x1b0(%rbp),%rax
  40449e:	ba 3c 8f 40 00       	mov    $0x408f3c,%edx
  4044a3:	48 89 ce             	mov    %rcx,%rsi
  4044a6:	48 89 c7             	mov    %rax,%rdi
  4044a9:	e8 36 15 00 00       	callq  4059e4 <_ZN10tensorflow8internal12Check_EQImplIliEEPNSt7__cxx1112basic_stringIcSt11char_traitsIcESaIcEEERKT_RKT0_PKc>
  4044ae:	48 89 c2             	mov    %rax,%rdx
  4044b1:	48 8d 85 48 fe ff ff 	lea    -0x1b8(%rbp),%rax
  4044b8:	48 89 d6             	mov    %rdx,%rsi
  4044bb:	48 89 c7             	mov    %rax,%rdi
  4044be:	e8 77 fb ff ff       	callq  40403a <_ZN10tensorflow8internal13CheckOpStringC1EPNSt7__cxx1112basic_stringIcSt11char_traitsIcESaIcEEE>
  4044c3:	48 8d 85 48 fe ff ff 	lea    -0x1b8(%rbp),%rax
  4044ca:	48 89 c7             	mov    %rax,%rdi
  4044cd:	e8 82 fb ff ff       	callq  404054 <_ZNK10tensorflow8internal13CheckOpStringcvbEv>
  4044d2:	83 f0 01             	xor    $0x1,%eax
  4044d5:	84 c0                	test   %al,%al
  4044d7:	75 41                	jne    40451a <_ZN10tensorflow4core10RefCountedD1Ev+0x118>
  4044d9:	48 8b 9d 48 fe ff ff 	mov    -0x1b8(%rbp),%rbx
  4044e0:	48 8d 85 60 fe ff ff 	lea    -0x1a0(%rbp),%rax
  4044e7:	ba 4f 00 00 00       	mov    $0x4f,%edx
  4044ec:	be 50 8f 40 00       	mov    $0x408f50,%esi
  4044f1:	48 89 c7             	mov    %rax,%rdi
  4044f4:	e8 47 e8 ff ff       	callq  402d40 <_ZN10tensorflow8internal15LogMessageFatalC1EPKci@plt>
  4044f9:	48 8d 85 60 fe ff ff 	lea    -0x1a0(%rbp),%rax
  404500:	48 89 de             	mov    %rbx,%rsi
  404503:	48 89 c7             	mov    %rax,%rdi
  404506:	e8 b0 14 00 00       	callq  4059bb <_ZStlsIcSt11char_traitsIcENSt7__cxx1112basic_stringIcS1_SaIcEEEERSt13basic_ostreamIT_T0_EOS9_RKT1_>
  40450b:	48 8d 85 60 fe ff ff 	lea    -0x1a0(%rbp),%rax
  404512:	48 89 c7             	mov    %rax,%rdi
  404515:	e8 c6 e9 ff ff       	callq  402ee0 <_ZN10tensorflow8internal15LogMessageFatalD1Ev@plt>
  40451a:	90                   	nop
  40451b:	48 8b 45 e8          	mov    -0x18(%rbp),%rax
  40451f:	64 48 33 04 25 28 00 	xor    %fs:0x28,%rax
  404526:	00 00 
  404528:	74 05                	je     40452f <_ZN10tensorflow4core10RefCountedD1Ev+0x12d>
  40452a:	e8 31 e8 ff ff       	callq  402d60 <__stack_chk_fail@plt>
  40452f:	48 81 c4 d8 01 00 00 	add    $0x1d8,%rsp
  404536:	5b                   	pop    %rbx
  404537:	5d                   	pop    %rbp
  404538:	c3                   	retq   
  404539:	90                   	nop

000000000040453a <_ZN10tensorflow4core10RefCountedD0Ev>:
  40453a:	55                   	push   %rbp
  40453b:	48 89 e5             	mov    %rsp,%rbp
  40453e:	48 83 ec 10          	sub    $0x10,%rsp
  404542:	48 89 7d f8          	mov    %rdi,-0x8(%rbp)
  404546:	48 8b 45 f8          	mov    -0x8(%rbp),%rax
  40454a:	48 89 c7             	mov    %rax,%rdi
  40454d:	e8 b0 fe ff ff       	callq  404402 <_ZN10tensorflow4core10RefCountedD1Ev>
  404552:	48 8b 45 f8          	mov    -0x8(%rbp),%rax
  404556:	48 89 c7             	mov    %rax,%rdi
  404559:	e8 32 e8 ff ff       	callq  402d90 <_ZdlPv@plt>
  40455e:	c9                   	leaveq 
  40455f:	c3                   	retq   

0000000000404560 <_ZNK10tensorflow4core10RefCounted3RefEv>:
  404560:	55                   	push   %rbp
  404561:	48 89 e5             	mov    %rsp,%rbp
  404564:	53                   	push   %rbx
  404565:	48 81 ec e8 01 00 00 	sub    $0x1e8,%rsp
  40456c:	48 89 bd 18 fe ff ff 	mov    %rdi,-0x1e8(%rbp)
  404573:	64 48 8b 04 25 28 00 	mov    %fs:0x28,%rax
  40457a:	00 00 
  40457c:	48 89 45 e8          	mov    %rax,-0x18(%rbp)
  404580:	31 c0                	xor    %eax,%eax
  404582:	bf 01 00 00 00       	mov    $0x1,%edi
  404587:	e8 78 fa ff ff       	callq  404004 <_ZN10tensorflow8internal21GetReferenceableValueEi>
  40458c:	89 85 28 fe ff ff    	mov    %eax,-0x1d8(%rbp)
  404592:	48 8b 85 18 fe ff ff 	mov    -0x1e8(%rbp),%rax
  404599:	48 83 c0 08          	add    $0x8,%rax
  40459d:	48 89 85 48 fe ff ff 	mov    %rax,-0x1b8(%rbp)
  4045a4:	c7 85 2c fe ff ff 05 	movl   $0x5,-0x1d4(%rbp)
  4045ab:	00 00 00 
  4045ae:	8b 85 2c fe ff ff    	mov    -0x1d4(%rbp),%eax
  4045b4:	be ff ff 00 00       	mov    $0xffff,%esi
  4045b9:	89 c7                	mov    %eax,%edi
  4045bb:	e8 a1 f9 ff ff       	callq  403f61 <_ZStanSt12memory_orderSt23__memory_order_modifier>
  4045c0:	89 85 30 fe ff ff    	mov    %eax,-0x1d0(%rbp)
  4045c6:	48 8b 85 48 fe ff ff 	mov    -0x1b8(%rbp),%rax
  4045cd:	48 8b 00             	mov    (%rax),%rax
  4045d0:	48 89 c7             	mov    %rax,%rdi
  4045d3:	e8 38 fa ff ff       	callq  404010 <_ZN10tensorflow8internal21GetReferenceableValueEl>
  4045d8:	48 89 85 40 fe ff ff 	mov    %rax,-0x1c0(%rbp)
  4045df:	48 8d 8d 28 fe ff ff 	lea    -0x1d8(%rbp),%rcx
  4045e6:	48 8d 85 40 fe ff ff 	lea    -0x1c0(%rbp),%rax
  4045ed:	ba d6 8f 40 00       	mov    $0x408fd6,%edx
  4045f2:	48 89 ce             	mov    %rcx,%rsi
  4045f5:	48 89 c7             	mov    %rax,%rdi
  4045f8:	e8 2f 14 00 00       	callq  405a2c <_ZN10tensorflow8internal12Check_GEImplIliEEPNSt7__cxx1112basic_stringIcSt11char_traitsIcESaIcEEERKT_RKT0_PKc>
  4045fd:	48 89 c2             	mov    %rax,%rdx
  404600:	48 8d 85 38 fe ff ff 	lea    -0x1c8(%rbp),%rax
  404607:	48 89 d6             	mov    %rdx,%rsi
  40460a:	48 89 c7             	mov    %rax,%rdi
  40460d:	e8 28 fa ff ff       	callq  40403a <_ZN10tensorflow8internal13CheckOpStringC1EPNSt7__cxx1112basic_stringIcSt11char_traitsIcESaIcEEE>
  404612:	48 8d 85 38 fe ff ff 	lea    -0x1c8(%rbp),%rax
  404619:	48 89 c7             	mov    %rax,%rdi
  40461c:	e8 33 fa ff ff       	callq  404054 <_ZNK10tensorflow8internal13CheckOpStringcvbEv>
  404621:	83 f0 01             	xor    $0x1,%eax
  404624:	84 c0                	test   %al,%al
  404626:	75 41                	jne    404669 <_ZNK10tensorflow4core10RefCounted3RefEv+0x109>
  404628:	48 8b 9d 38 fe ff ff 	mov    -0x1c8(%rbp),%rbx
  40462f:	48 8d 85 60 fe ff ff 	lea    -0x1a0(%rbp),%rax
  404636:	ba 52 00 00 00       	mov    $0x52,%edx
  40463b:	be 50 8f 40 00       	mov    $0x408f50,%esi
  404640:	48 89 c7             	mov    %rax,%rdi
  404643:	e8 f8 e6 ff ff       	callq  402d40 <_ZN10tensorflow8internal15LogMessageFatalC1EPKci@plt>
  404648:	48 8d 85 60 fe ff ff 	lea    -0x1a0(%rbp),%rax
  40464f:	48 89 de             	mov    %rbx,%rsi
  404652:	48 89 c7             	mov    %rax,%rdi
  404655:	e8 61 13 00 00       	callq  4059bb <_ZStlsIcSt11char_traitsIcENSt7__cxx1112basic_stringIcS1_SaIcEEEERSt13basic_ostreamIT_T0_EOS9_RKT1_>
  40465a:	48 8d 85 60 fe ff ff 	lea    -0x1a0(%rbp),%rax
  404661:	48 89 c7             	mov    %rax,%rdi
  404664:	e8 77 e8 ff ff       	callq  402ee0 <_ZN10tensorflow8internal15LogMessageFatalD1Ev@plt>
  404669:	48 8b 85 18 fe ff ff 	mov    -0x1e8(%rbp),%rax
  404670:	48 83 c0 08          	add    $0x8,%rax
  404674:	48 89 85 50 fe ff ff 	mov    %rax,-0x1b0(%rbp)
  40467b:	48 c7 85 58 fe ff ff 	movq   $0x1,-0x1a8(%rbp)
  404682:	01 00 00 00 
  404686:	c7 85 34 fe ff ff 00 	movl   $0x0,-0x1cc(%rbp)
  40468d:	00 00 00 
  404690:	48 8b 95 58 fe ff ff 	mov    -0x1a8(%rbp),%rdx
  404697:	48 8b 85 50 fe ff ff 	mov    -0x1b0(%rbp),%rax
  40469e:	f0 48 0f c1 10       	lock xadd %rdx,(%rax)
  4046a3:	90                   	nop
  4046a4:	48 8b 45 e8          	mov    -0x18(%rbp),%rax
  4046a8:	64 48 33 04 25 28 00 	xor    %fs:0x28,%rax
  4046af:	00 00 
  4046b1:	74 16                	je     4046c9 <_ZNK10tensorflow4core10RefCounted3RefEv+0x169>
  4046b3:	eb 0f                	jmp    4046c4 <_ZNK10tensorflow4core10RefCounted3RefEv+0x164>
  4046b5:	48 8d 85 60 fe ff ff 	lea    -0x1a0(%rbp),%rax
  4046bc:	48 89 c7             	mov    %rax,%rdi
  4046bf:	e8 1c e8 ff ff       	callq  402ee0 <_ZN10tensorflow8internal15LogMessageFatalD1Ev@plt>
  4046c4:	e8 97 e6 ff ff       	callq  402d60 <__stack_chk_fail@plt>
  4046c9:	48 81 c4 e8 01 00 00 	add    $0x1e8,%rsp
  4046d0:	5b                   	pop    %rbx
  4046d1:	5d                   	pop    %rbp
  4046d2:	c3                   	retq   
  4046d3:	90                   	nop

00000000004046d4 <_ZNK10tensorflow6Tensor5shapeEv>:
  4046d4:	55                   	push   %rbp
  4046d5:	48 89 e5             	mov    %rsp,%rbp
  4046d8:	48 89 7d f8          	mov    %rdi,-0x8(%rbp)
  4046dc:	48 8b 45 f8          	mov    -0x8(%rbp),%rax
  4046e0:	5d                   	pop    %rbp
  4046e1:	c3                   	retq   

00000000004046e2 <_ZNK10tensorflow6Tensor11NumElementsEv>:
  4046e2:	55                   	push   %rbp
  4046e3:	48 89 e5             	mov    %rsp,%rbp
  4046e6:	48 83 ec 10          	sub    $0x10,%rsp
  4046ea:	48 89 7d f8          	mov    %rdi,-0x8(%rbp)
  4046ee:	48 8b 45 f8          	mov    -0x8(%rbp),%rax
  4046f2:	48 89 c7             	mov    %rax,%rdi
  4046f5:	e8 da ff ff ff       	callq  4046d4 <_ZNK10tensorflow6Tensor5shapeEv>
  4046fa:	48 89 c7             	mov    %rax,%rdi
  4046fd:	e8 ac fb ff ff       	callq  4042ae <_ZNK10tensorflow14TensorShapeRep12num_elementsEv>
  404702:	c9                   	leaveq 
  404703:	c3                   	retq   

0000000000404704 <_ZN10tensorflow6TensoraSERKS0_>:
  404704:	55                   	push   %rbp
  404705:	48 89 e5             	mov    %rsp,%rbp
  404708:	48 83 ec 10          	sub    $0x10,%rsp
  40470c:	48 89 7d f8          	mov    %rdi,-0x8(%rbp)
  404710:	48 89 75 f0          	mov    %rsi,-0x10(%rbp)
  404714:	48 8b 45 f0          	mov    -0x10(%rbp),%rax
  404718:	48 89 c7             	mov    %rax,%rdi
  40471b:	e8 b4 ff ff ff       	callq  4046d4 <_ZNK10tensorflow6Tensor5shapeEv>
  404720:	48 89 c2             	mov    %rax,%rdx
  404723:	48 8b 4d f0          	mov    -0x10(%rbp),%rcx
  404727:	48 8b 45 f8          	mov    -0x8(%rbp),%rax
  40472b:	48 89 ce             	mov    %rcx,%rsi
  40472e:	48 89 c7             	mov    %rax,%rdi
  404731:	e8 1a e7 ff ff       	callq  402e50 <_ZN10tensorflow6Tensor16CopyFromInternalERKS0_RKNS_11TensorShapeE@plt>
  404736:	48 8b 45 f8          	mov    -0x8(%rbp),%rax
  40473a:	c9                   	leaveq 
  40473b:	c3                   	retq   

000000000040473c <_ZN10tensorflow15TensorShapeBaseINS_11TensorShapeEEC1ERKS2_>:
  40473c:	55                   	push   %rbp
  40473d:	48 89 e5             	mov    %rsp,%rbp
  404740:	48 83 ec 10          	sub    $0x10,%rsp
  404744:	48 89 7d f8          	mov    %rdi,-0x8(%rbp)
  404748:	48 89 75 f0          	mov    %rsi,-0x10(%rbp)
  40474c:	48 8b 55 f0          	mov    -0x10(%rbp),%rdx
  404750:	48 8b 45 f8          	mov    -0x8(%rbp),%rax
  404754:	48 89 d6             	mov    %rdx,%rsi
  404757:	48 89 c7             	mov    %rax,%rdi
  40475a:	e8 c9 fb ff ff       	callq  404328 <_ZN10tensorflow14TensorShapeRepC1ERKS0_>
  40475f:	90                   	nop
  404760:	c9                   	leaveq 
  404761:	c3                   	retq   

0000000000404762 <_ZN10tensorflow15TensorShapeBaseINS_11TensorShapeEED1Ev>:
  404762:	55                   	push   %rbp
  404763:	48 89 e5             	mov    %rsp,%rbp
  404766:	48 83 ec 10          	sub    $0x10,%rsp
  40476a:	48 89 7d f8          	mov    %rdi,-0x8(%rbp)
  40476e:	48 8b 45 f8          	mov    -0x8(%rbp),%rax
  404772:	48 89 c7             	mov    %rax,%rdi
  404775:	e8 40 fc ff ff       	callq  4043ba <_ZN10tensorflow14TensorShapeRepD1Ev>
  40477a:	90                   	nop
  40477b:	c9                   	leaveq 
  40477c:	c3                   	retq   
  40477d:	90                   	nop

000000000040477e <_ZN10tensorflow11TensorShapeC1ERKS0_>:
  40477e:	55                   	push   %rbp
  40477f:	48 89 e5             	mov    %rsp,%rbp
  404782:	48 83 ec 10          	sub    $0x10,%rsp
  404786:	48 89 7d f8          	mov    %rdi,-0x8(%rbp)
  40478a:	48 89 75 f0          	mov    %rsi,-0x10(%rbp)
  40478e:	48 8b 55 f0          	mov    -0x10(%rbp),%rdx
  404792:	48 8b 45 f8          	mov    -0x8(%rbp),%rax
  404796:	48 89 d6             	mov    %rdx,%rsi
  404799:	48 89 c7             	mov    %rax,%rdi
  40479c:	e8 9b ff ff ff       	callq  40473c <_ZN10tensorflow15TensorShapeBaseINS_11TensorShapeEEC1ERKS2_>
  4047a1:	90                   	nop
  4047a2:	c9                   	leaveq 
  4047a3:	c3                   	retq   

00000000004047a4 <_ZN10tensorflow11TensorShapeD1Ev>:
  4047a4:	55                   	push   %rbp
  4047a5:	48 89 e5             	mov    %rsp,%rbp
  4047a8:	48 83 ec 10          	sub    $0x10,%rsp
  4047ac:	48 89 7d f8          	mov    %rdi,-0x8(%rbp)
  4047b0:	48 8b 45 f8          	mov    -0x8(%rbp),%rax
  4047b4:	48 89 c7             	mov    %rax,%rdi
  4047b7:	e8 a6 ff ff ff       	callq  404762 <_ZN10tensorflow15TensorShapeBaseINS_11TensorShapeEED1Ev>
  4047bc:	90                   	nop
  4047bd:	c9                   	leaveq 
  4047be:	c3                   	retq   
  4047bf:	90                   	nop

00000000004047c0 <_ZN10tensorflow6TensorC1ERKS0_>:
  4047c0:	55                   	push   %rbp
  4047c1:	48 89 e5             	mov    %rsp,%rbp
  4047c4:	53                   	push   %rbx
  4047c5:	48 83 ec 18          	sub    $0x18,%rsp
  4047c9:	48 89 7d e8          	mov    %rdi,-0x18(%rbp)
  4047cd:	48 89 75 e0          	mov    %rsi,-0x20(%rbp)
  4047d1:	48 8b 45 e0          	mov    -0x20(%rbp),%rax
  4047d5:	48 89 c7             	mov    %rax,%rdi
  4047d8:	e8 f7 fe ff ff       	callq  4046d4 <_ZNK10tensorflow6Tensor5shapeEv>
  4047dd:	48 89 c2             	mov    %rax,%rdx
  4047e0:	48 8b 45 e8          	mov    -0x18(%rbp),%rax
  4047e4:	48 89 d6             	mov    %rdx,%rsi
  4047e7:	48 89 c7             	mov    %rax,%rdi
  4047ea:	e8 8f ff ff ff       	callq  40477e <_ZN10tensorflow11TensorShapeC1ERKS0_>
  4047ef:	48 8b 45 e0          	mov    -0x20(%rbp),%rax
  4047f3:	48 8b 50 18          	mov    0x18(%rax),%rdx
  4047f7:	48 8b 45 e8          	mov    -0x18(%rbp),%rax
  4047fb:	48 89 50 18          	mov    %rdx,0x18(%rax)
  4047ff:	48 8b 45 e8          	mov    -0x18(%rbp),%rax
  404803:	48 8b 40 18          	mov    0x18(%rax),%rax
  404807:	48 85 c0             	test   %rax,%rax
  40480a:	74 2c                	je     404838 <_ZN10tensorflow6TensorC1ERKS0_+0x78>
  40480c:	48 8b 45 e8          	mov    -0x18(%rbp),%rax
  404810:	48 8b 40 18          	mov    0x18(%rax),%rax
  404814:	48 89 c7             	mov    %rax,%rdi
  404817:	e8 44 fd ff ff       	callq  404560 <_ZNK10tensorflow4core10RefCounted3RefEv>
  40481c:	eb 1a                	jmp    404838 <_ZN10tensorflow6TensorC1ERKS0_+0x78>
  40481e:	48 89 c3             	mov    %rax,%rbx
  404821:	48 8b 45 e8          	mov    -0x18(%rbp),%rax
  404825:	48 89 c7             	mov    %rax,%rdi
  404828:	e8 77 ff ff ff       	callq  4047a4 <_ZN10tensorflow11TensorShapeD1Ev>
  40482d:	48 89 d8             	mov    %rbx,%rax
  404830:	48 89 c7             	mov    %rax,%rdi
  404833:	e8 d8 e7 ff ff       	callq  403010 <_Unwind_Resume@plt>
  404838:	90                   	nop
  404839:	48 83 c4 18          	add    $0x18,%rsp
  40483d:	5b                   	pop    %rbx
  40483e:	5d                   	pop    %rbp
  40483f:	c3                   	retq   

0000000000404840 <_ZN10tensorflow9OperationD1Ev>:
  404840:	55                   	push   %rbp
  404841:	48 89 e5             	mov    %rsp,%rbp
  404844:	48 83 ec 10          	sub    $0x10,%rsp
  404848:	48 89 7d f8          	mov    %rdi,-0x8(%rbp)
  40484c:	48 8b 45 f8          	mov    -0x8(%rbp),%rax
  404850:	48 89 c7             	mov    %rax,%rdi
  404853:	e8 1c 12 00 00       	callq  405a74 <_ZNSt6vectorISt4pairIPN10tensorflow4NodeEiESaIS4_EED1Ev>
  404858:	90                   	nop
  404859:	c9                   	leaveq 
  40485a:	c3                   	retq   
  40485b:	90                   	nop

000000000040485c <_ZN10tensorflow9OperationC1ERKS0_>:
  40485c:	55                   	push   %rbp
  40485d:	48 89 e5             	mov    %rsp,%rbp
  404860:	48 83 ec 10          	sub    $0x10,%rsp
  404864:	48 89 7d f8          	mov    %rdi,-0x8(%rbp)
  404868:	48 89 75 f0          	mov    %rsi,-0x10(%rbp)
  40486c:	48 8b 55 f0          	mov    -0x10(%rbp),%rdx
  404870:	48 8b 45 f8          	mov    -0x8(%rbp),%rax
  404874:	48 89 d6             	mov    %rdx,%rsi
  404877:	48 89 c7             	mov    %rax,%rdi
  40487a:	e8 39 12 00 00       	callq  405ab8 <_ZNSt6vectorISt4pairIPN10tensorflow4NodeEiESaIS4_EEC1ERKS6_>
  40487f:	48 8b 45 f0          	mov    -0x10(%rbp),%rax
  404883:	48 8b 50 18          	mov    0x18(%rax),%rdx
  404887:	48 8b 45 f8          	mov    -0x8(%rbp),%rax
  40488b:	48 89 50 18          	mov    %rdx,0x18(%rax)
  40488f:	90                   	nop
  404890:	c9                   	leaveq 
  404891:	c3                   	retq   

0000000000404892 <_ZN10tensorflow6OutputC1ERKNS_9OperationEi>:
  404892:	55                   	push   %rbp
  404893:	48 89 e5             	mov    %rsp,%rbp
  404896:	48 83 ec 20          	sub    $0x20,%rsp
  40489a:	48 89 7d f8          	mov    %rdi,-0x8(%rbp)
  40489e:	48 89 75 f0          	mov    %rsi,-0x10(%rbp)
  4048a2:	89 55 ec             	mov    %edx,-0x14(%rbp)
  4048a5:	48 8b 45 f8          	mov    -0x8(%rbp),%rax
  4048a9:	48 8b 55 f0          	mov    -0x10(%rbp),%rdx
  4048ad:	48 89 d6             	mov    %rdx,%rsi
  4048b0:	48 89 c7             	mov    %rax,%rdi
  4048b3:	e8 a4 ff ff ff       	callq  40485c <_ZN10tensorflow9OperationC1ERKS0_>
  4048b8:	48 8b 45 f8          	mov    -0x8(%rbp),%rax
  4048bc:	8b 55 ec             	mov    -0x14(%rbp),%edx
  4048bf:	89 50 20             	mov    %edx,0x20(%rax)
  4048c2:	90                   	nop
  4048c3:	c9                   	leaveq 
  4048c4:	c3                   	retq   
  4048c5:	90                   	nop

00000000004048c6 <_ZN10tensorflow6OutputD1Ev>:
  4048c6:	55                   	push   %rbp
  4048c7:	48 89 e5             	mov    %rsp,%rbp
  4048ca:	48 83 ec 10          	sub    $0x10,%rsp
  4048ce:	48 89 7d f8          	mov    %rdi,-0x8(%rbp)
  4048d2:	48 8b 45 f8          	mov    -0x8(%rbp),%rax
  4048d6:	48 89 c7             	mov    %rax,%rdi
  4048d9:	e8 62 ff ff ff       	callq  404840 <_ZN10tensorflow9OperationD1Ev>
  4048de:	90                   	nop
  4048df:	c9                   	leaveq 
  4048e0:	c3                   	retq   
  4048e1:	90                   	nop

00000000004048e2 <_ZN10tensorflow6OutputC1ERKS0_>:
  4048e2:	55                   	push   %rbp
  4048e3:	48 89 e5             	mov    %rsp,%rbp
  4048e6:	48 83 ec 10          	sub    $0x10,%rsp
  4048ea:	48 89 7d f8          	mov    %rdi,-0x8(%rbp)
  4048ee:	48 89 75 f0          	mov    %rsi,-0x10(%rbp)
  4048f2:	48 8b 55 f0          	mov    -0x10(%rbp),%rdx
  4048f6:	48 8b 45 f8          	mov    -0x8(%rbp),%rax
  4048fa:	48 89 d6             	mov    %rdx,%rsi
  4048fd:	48 89 c7             	mov    %rax,%rdi
  404900:	e8 57 ff ff ff       	callq  40485c <_ZN10tensorflow9OperationC1ERKS0_>
  404905:	48 8b 45 f0          	mov    -0x10(%rbp),%rax
  404909:	8b 50 20             	mov    0x20(%rax),%edx
  40490c:	48 8b 45 f8          	mov    -0x8(%rbp),%rax
  404910:	89 50 20             	mov    %edx,0x20(%rax)
  404913:	90                   	nop
  404914:	c9                   	leaveq 
  404915:	c3                   	retq   

0000000000404916 <_ZN10tensorflow5InputC1ERKNS_6OutputE>:
  404916:	55                   	push   %rbp
  404917:	48 89 e5             	mov    %rsp,%rbp
  40491a:	53                   	push   %rbx
  40491b:	48 83 ec 28          	sub    $0x28,%rsp
  40491f:	48 89 7d d8          	mov    %rdi,-0x28(%rbp)
  404923:	48 89 75 d0          	mov    %rsi,-0x30(%rbp)
  404927:	64 48 8b 04 25 28 00 	mov    %fs:0x28,%rax
  40492e:	00 00 
  404930:	48 89 45 e8          	mov    %rax,-0x18(%rbp)
  404934:	31 c0                	xor    %eax,%eax
  404936:	48 8b 45 d8          	mov    -0x28(%rbp),%rax
  40493a:	48 89 c7             	mov    %rax,%rdi
  40493d:	e8 f6 f7 ff ff       	callq  404138 <_ZN10tensorflow6StatusC1Ev>
  404942:	48 8b 45 d8          	mov    -0x28(%rbp),%rax
  404946:	48 8d 50 08          	lea    0x8(%rax),%rdx
  40494a:	48 8b 45 d0          	mov    -0x30(%rbp),%rax
  40494e:	48 89 c6             	mov    %rax,%rsi
  404951:	48 89 d7             	mov    %rdx,%rdi
  404954:	e8 89 ff ff ff       	callq  4048e2 <_ZN10tensorflow6OutputC1ERKS0_>
  404959:	48 8b 45 d8          	mov    -0x28(%rbp),%rax
  40495d:	48 83 c0 30          	add    $0x30,%rax
  404961:	48 89 c7             	mov    %rax,%rdi
  404964:	e8 c7 e4 ff ff       	callq  402e30 <_ZN10tensorflow6TensorC1Ev@plt>
  404969:	48 8d 45 e7          	lea    -0x19(%rbp),%rax
  40496d:	48 89 c7             	mov    %rax,%rdi
  404970:	e8 7b e4 ff ff       	callq  402df0 <_ZNSaIcEC1Ev@plt>
  404975:	48 8b 45 d8          	mov    -0x28(%rbp),%rax
  404979:	48 8d 48 50          	lea    0x50(%rax),%rcx
  40497d:	48 8d 45 e7          	lea    -0x19(%rbp),%rax
  404981:	48 89 c2             	mov    %rax,%rdx
  404984:	be 40 90 40 00       	mov    $0x409040,%esi
  404989:	48 89 cf             	mov    %rcx,%rdi
  40498c:	e8 af e6 ff ff       	callq  403040 <_ZNSt7__cxx1112basic_stringIcSt11char_traitsIcESaIcEEC1EPKcRKS3_@plt>
  404991:	48 8d 45 e7          	lea    -0x19(%rbp),%rax
  404995:	48 89 c7             	mov    %rax,%rdi
  404998:	e8 a3 e8 ff ff       	callq  403240 <_ZNSaIcED1Ev@plt>
  40499d:	48 8b 45 d8          	mov    -0x28(%rbp),%rax
  4049a1:	c7 40 70 00 00 00 00 	movl   $0x0,0x70(%rax)
  4049a8:	48 8b 45 d8          	mov    -0x28(%rbp),%rax
  4049ac:	c7 40 74 00 00 00 00 	movl   $0x0,0x74(%rax)
  4049b3:	90                   	nop
  4049b4:	48 8b 45 e8          	mov    -0x18(%rbp),%rax
  4049b8:	64 48 33 04 25 28 00 	xor    %fs:0x28,%rax
  4049bf:	00 00 
  4049c1:	74 57                	je     404a1a <_ZN10tensorflow5InputC1ERKNS_6OutputE+0x104>
  4049c3:	eb 50                	jmp    404a15 <_ZN10tensorflow5InputC1ERKNS_6OutputE+0xff>
  4049c5:	48 89 c3             	mov    %rax,%rbx
  4049c8:	48 8d 45 e7          	lea    -0x19(%rbp),%rax
  4049cc:	48 89 c7             	mov    %rax,%rdi
  4049cf:	e8 6c e8 ff ff       	callq  403240 <_ZNSaIcED1Ev@plt>
  4049d4:	48 8b 45 d8          	mov    -0x28(%rbp),%rax
  4049d8:	48 83 c0 30          	add    $0x30,%rax
  4049dc:	48 89 c7             	mov    %rax,%rdi
  4049df:	e8 ec e3 ff ff       	callq  402dd0 <_ZN10tensorflow6TensorD1Ev@plt>
  4049e4:	eb 03                	jmp    4049e9 <_ZN10tensorflow5InputC1ERKNS_6OutputE+0xd3>
  4049e6:	48 89 c3             	mov    %rax,%rbx
  4049e9:	48 8b 45 d8          	mov    -0x28(%rbp),%rax
  4049ed:	48 83 c0 08          	add    $0x8,%rax
  4049f1:	48 89 c7             	mov    %rax,%rdi
  4049f4:	e8 cd fe ff ff       	callq  4048c6 <_ZN10tensorflow6OutputD1Ev>
  4049f9:	eb 03                	jmp    4049fe <_ZN10tensorflow5InputC1ERKNS_6OutputE+0xe8>
  4049fb:	48 89 c3             	mov    %rax,%rbx
  4049fe:	48 8b 45 d8          	mov    -0x28(%rbp),%rax
  404a02:	48 89 c7             	mov    %rax,%rdi
  404a05:	e8 4a f7 ff ff       	callq  404154 <_ZN10tensorflow6StatusD1Ev>
  404a0a:	48 89 d8             	mov    %rbx,%rax
  404a0d:	48 89 c7             	mov    %rax,%rdi
  404a10:	e8 fb e5 ff ff       	callq  403010 <_Unwind_Resume@plt>
  404a15:	e8 46 e3 ff ff       	callq  402d60 <__stack_chk_fail@plt>
  404a1a:	48 83 c4 28          	add    $0x28,%rsp
  404a1e:	5b                   	pop    %rbx
  404a1f:	5d                   	pop    %rbp
  404a20:	c3                   	retq   
  404a21:	90                   	nop

0000000000404a22 <_ZN10tensorflow5InputC1ERKNS_6TensorE>:
  404a22:	55                   	push   %rbp
  404a23:	48 89 e5             	mov    %rsp,%rbp
  404a26:	53                   	push   %rbx
  404a27:	48 83 ec 48          	sub    $0x48,%rsp
  404a2b:	48 89 7d b8          	mov    %rdi,-0x48(%rbp)
  404a2f:	48 89 75 b0          	mov    %rsi,-0x50(%rbp)
  404a33:	64 48 8b 04 25 28 00 	mov    %fs:0x28,%rax
  404a3a:	00 00 
  404a3c:	48 89 45 e8          	mov    %rax,-0x18(%rbp)
  404a40:	31 c0                	xor    %eax,%eax
  404a42:	48 8b 45 b8          	mov    -0x48(%rbp),%rax
  404a46:	48 89 c7             	mov    %rax,%rdi
  404a49:	e8 21 f7 ff ff       	callq  40416f <_ZN10tensorflow6Status2OKEv>
  404a4e:	48 8d 45 c0          	lea    -0x40(%rbp),%rax
  404a52:	be 00 00 00 00       	mov    $0x0,%esi
  404a57:	48 89 c7             	mov    %rax,%rdi
  404a5a:	e8 41 e6 ff ff       	callq  4030a0 <_ZN10tensorflow9OperationC1EPNS_4NodeE@plt>
  404a5f:	48 8b 45 b8          	mov    -0x48(%rbp),%rax
  404a63:	48 8d 48 08          	lea    0x8(%rax),%rcx
  404a67:	48 8d 45 c0          	lea    -0x40(%rbp),%rax
  404a6b:	ba 00 00 00 00       	mov    $0x0,%edx
  404a70:	48 89 c6             	mov    %rax,%rsi
  404a73:	48 89 cf             	mov    %rcx,%rdi
  404a76:	e8 17 fe ff ff       	callq  404892 <_ZN10tensorflow6OutputC1ERKNS_9OperationEi>
  404a7b:	48 8d 45 c0          	lea    -0x40(%rbp),%rax
  404a7f:	48 89 c7             	mov    %rax,%rdi
  404a82:	e8 b9 fd ff ff       	callq  404840 <_ZN10tensorflow9OperationD1Ev>
  404a87:	48 8b 45 b8          	mov    -0x48(%rbp),%rax
  404a8b:	48 8d 50 30          	lea    0x30(%rax),%rdx
  404a8f:	48 8b 45 b0          	mov    -0x50(%rbp),%rax
  404a93:	48 89 c6             	mov    %rax,%rsi
  404a96:	48 89 d7             	mov    %rdx,%rdi
  404a99:	e8 22 fd ff ff       	callq  4047c0 <_ZN10tensorflow6TensorC1ERKS0_>
  404a9e:	48 8d 45 c0          	lea    -0x40(%rbp),%rax
  404aa2:	48 89 c7             	mov    %rax,%rdi
  404aa5:	e8 46 e3 ff ff       	callq  402df0 <_ZNSaIcEC1Ev@plt>
  404aaa:	48 8b 45 b8          	mov    -0x48(%rbp),%rax
  404aae:	48 8d 48 50          	lea    0x50(%rax),%rcx
  404ab2:	48 8d 45 c0          	lea    -0x40(%rbp),%rax
  404ab6:	48 89 c2             	mov    %rax,%rdx
  404ab9:	be 40 90 40 00       	mov    $0x409040,%esi
  404abe:	48 89 cf             	mov    %rcx,%rdi
  404ac1:	e8 7a e5 ff ff       	callq  403040 <_ZNSt7__cxx1112basic_stringIcSt11char_traitsIcESaIcEEC1EPKcRKS3_@plt>
  404ac6:	48 8d 45 c0          	lea    -0x40(%rbp),%rax
  404aca:	48 89 c7             	mov    %rax,%rdi
  404acd:	e8 6e e7 ff ff       	callq  403240 <_ZNSaIcED1Ev@plt>
  404ad2:	48 8b 45 b8          	mov    -0x48(%rbp),%rax
  404ad6:	c7 40 70 00 00 00 00 	movl   $0x0,0x70(%rax)
  404add:	48 8b 45 b8          	mov    -0x48(%rbp),%rax
  404ae1:	c7 40 74 00 00 00 00 	movl   $0x0,0x74(%rax)
  404ae8:	90                   	nop
  404ae9:	48 8b 45 e8          	mov    -0x18(%rbp),%rax
  404aed:	64 48 33 04 25 28 00 	xor    %fs:0x28,%rax
  404af4:	00 00 
  404af6:	74 68                	je     404b60 <_ZN10tensorflow5InputC1ERKNS_6TensorE+0x13e>
  404af8:	eb 61                	jmp    404b5b <_ZN10tensorflow5InputC1ERKNS_6TensorE+0x139>
  404afa:	48 89 c3             	mov    %rax,%rbx
  404afd:	48 8d 45 c0          	lea    -0x40(%rbp),%rax
  404b01:	48 89 c7             	mov    %rax,%rdi
  404b04:	e8 37 fd ff ff       	callq  404840 <_ZN10tensorflow9OperationD1Ev>
  404b09:	eb 39                	jmp    404b44 <_ZN10tensorflow5InputC1ERKNS_6TensorE+0x122>
  404b0b:	48 89 c3             	mov    %rax,%rbx
  404b0e:	48 8d 45 c0          	lea    -0x40(%rbp),%rax
  404b12:	48 89 c7             	mov    %rax,%rdi
  404b15:	e8 26 e7 ff ff       	callq  403240 <_ZNSaIcED1Ev@plt>
  404b1a:	48 8b 45 b8          	mov    -0x48(%rbp),%rax
  404b1e:	48 83 c0 30          	add    $0x30,%rax
  404b22:	48 89 c7             	mov    %rax,%rdi
  404b25:	e8 a6 e2 ff ff       	callq  402dd0 <_ZN10tensorflow6TensorD1Ev@plt>
  404b2a:	eb 03                	jmp    404b2f <_ZN10tensorflow5InputC1ERKNS_6TensorE+0x10d>
  404b2c:	48 89 c3             	mov    %rax,%rbx
  404b2f:	48 8b 45 b8          	mov    -0x48(%rbp),%rax
  404b33:	48 83 c0 08          	add    $0x8,%rax
  404b37:	48 89 c7             	mov    %rax,%rdi
  404b3a:	e8 87 fd ff ff       	callq  4048c6 <_ZN10tensorflow6OutputD1Ev>
  404b3f:	eb 03                	jmp    404b44 <_ZN10tensorflow5InputC1ERKNS_6TensorE+0x122>
  404b41:	48 89 c3             	mov    %rax,%rbx
  404b44:	48 8b 45 b8          	mov    -0x48(%rbp),%rax
  404b48:	48 89 c7             	mov    %rax,%rdi
  404b4b:	e8 04 f6 ff ff       	callq  404154 <_ZN10tensorflow6StatusD1Ev>
  404b50:	48 89 d8             	mov    %rbx,%rax
  404b53:	48 89 c7             	mov    %rax,%rdi
  404b56:	e8 b5 e4 ff ff       	callq  403010 <_Unwind_Resume@plt>
  404b5b:	e8 00 e2 ff ff       	callq  402d60 <__stack_chk_fail@plt>
  404b60:	48 83 c4 48          	add    $0x48,%rsp
  404b64:	5b                   	pop    %rbx
  404b65:	5d                   	pop    %rbp
  404b66:	c3                   	retq   
  404b67:	90                   	nop

0000000000404b68 <_ZN10tensorflow5Input11InitializerD1Ev>:
  404b68:	55                   	push   %rbp
  404b69:	48 89 e5             	mov    %rsp,%rbp
  404b6c:	48 83 ec 10          	sub    $0x10,%rsp
  404b70:	48 89 7d f8          	mov    %rdi,-0x8(%rbp)
  404b74:	48 8b 45 f8          	mov    -0x8(%rbp),%rax
  404b78:	48 83 c0 08          	add    $0x8,%rax
  404b7c:	48 89 c7             	mov    %rax,%rdi
  404b7f:	e8 4c e2 ff ff       	callq  402dd0 <_ZN10tensorflow6TensorD1Ev@plt>
  404b84:	48 8b 45 f8          	mov    -0x8(%rbp),%rax
  404b88:	48 89 c7             	mov    %rax,%rdi
  404b8b:	e8 c4 f5 ff ff       	callq  404154 <_ZN10tensorflow6StatusD1Ev>
  404b90:	90                   	nop
  404b91:	c9                   	leaveq 
  404b92:	c3                   	retq   
  404b93:	90                   	nop

0000000000404b94 <_ZN10tensorflow5InputD1Ev>:
  404b94:	55                   	push   %rbp
  404b95:	48 89 e5             	mov    %rsp,%rbp
  404b98:	48 83 ec 10          	sub    $0x10,%rsp
  404b9c:	48 89 7d f8          	mov    %rdi,-0x8(%rbp)
  404ba0:	48 8b 45 f8          	mov    -0x8(%rbp),%rax
  404ba4:	48 83 c0 50          	add    $0x50,%rax
  404ba8:	48 89 c7             	mov    %rax,%rdi
  404bab:	e8 00 e3 ff ff       	callq  402eb0 <_ZNSt7__cxx1112basic_stringIcSt11char_traitsIcESaIcEED1Ev@plt>
  404bb0:	48 8b 45 f8          	mov    -0x8(%rbp),%rax
  404bb4:	48 83 c0 30          	add    $0x30,%rax
  404bb8:	48 89 c7             	mov    %rax,%rdi
  404bbb:	e8 10 e2 ff ff       	callq  402dd0 <_ZN10tensorflow6TensorD1Ev@plt>
  404bc0:	48 8b 45 f8          	mov    -0x8(%rbp),%rax
  404bc4:	48 83 c0 08          	add    $0x8,%rax
  404bc8:	48 89 c7             	mov    %rax,%rdi
  404bcb:	e8 f6 fc ff ff       	callq  4048c6 <_ZN10tensorflow6OutputD1Ev>
  404bd0:	48 8b 45 f8          	mov    -0x8(%rbp),%rax
  404bd4:	48 89 c7             	mov    %rax,%rdi
  404bd7:	e8 78 f5 ff ff       	callq  404154 <_ZN10tensorflow6StatusD1Ev>
  404bdc:	90                   	nop
  404bdd:	c9                   	leaveq 
  404bde:	c3                   	retq   
  404bdf:	90                   	nop

0000000000404be0 <_ZNKSt16initializer_listIN10tensorflow6OutputEE5beginEv>:
  404be0:	55                   	push   %rbp
  404be1:	48 89 e5             	mov    %rsp,%rbp
  404be4:	48 89 7d f8          	mov    %rdi,-0x8(%rbp)
  404be8:	48 8b 45 f8          	mov    -0x8(%rbp),%rax
  404bec:	48 8b 00             	mov    (%rax),%rax
  404bef:	5d                   	pop    %rbp
  404bf0:	c3                   	retq   
  404bf1:	90                   	nop

0000000000404bf2 <_ZNKSt16initializer_listIN10tensorflow6OutputEE4sizeEv>:
  404bf2:	55                   	push   %rbp
  404bf3:	48 89 e5             	mov    %rsp,%rbp
  404bf6:	48 89 7d f8          	mov    %rdi,-0x8(%rbp)
  404bfa:	48 8b 45 f8          	mov    -0x8(%rbp),%rax
  404bfe:	48 8b 40 08          	mov    0x8(%rax),%rax
  404c02:	5d                   	pop    %rbp
  404c03:	c3                   	retq   

0000000000404c04 <_ZNKSt16initializer_listIN10tensorflow6OutputEE3endEv>:
  404c04:	55                   	push   %rbp
  404c05:	48 89 e5             	mov    %rsp,%rbp
  404c08:	53                   	push   %rbx
  404c09:	48 83 ec 18          	sub    $0x18,%rsp
  404c0d:	48 89 7d e8          	mov    %rdi,-0x18(%rbp)
  404c11:	48 8b 45 e8          	mov    -0x18(%rbp),%rax
  404c15:	48 89 c7             	mov    %rax,%rdi
  404c18:	e8 c3 ff ff ff       	callq  404be0 <_ZNKSt16initializer_listIN10tensorflow6OutputEE5beginEv>
  404c1d:	48 89 c3             	mov    %rax,%rbx
  404c20:	48 8b 45 e8          	mov    -0x18(%rbp),%rax
  404c24:	48 89 c7             	mov    %rax,%rdi
  404c27:	e8 c6 ff ff ff       	callq  404bf2 <_ZNKSt16initializer_listIN10tensorflow6OutputEE4sizeEv>
  404c2c:	48 89 c2             	mov    %rax,%rdx
  404c2f:	48 89 d0             	mov    %rdx,%rax
  404c32:	48 c1 e0 02          	shl    $0x2,%rax
  404c36:	48 01 d0             	add    %rdx,%rax
  404c39:	48 c1 e0 03          	shl    $0x3,%rax
  404c3d:	48 01 d8             	add    %rbx,%rax
  404c40:	48 83 c4 18          	add    $0x18,%rsp
  404c44:	5b                   	pop    %rbx
  404c45:	5d                   	pop    %rbp
  404c46:	c3                   	retq   
  404c47:	90                   	nop

0000000000404c48 <_ZNK10tensorflow3ops14ResizeBilinearcvNS_6OutputEEv>:
  404c48:	55                   	push   %rbp
  404c49:	48 89 e5             	mov    %rsp,%rbp
  404c4c:	48 83 ec 10          	sub    $0x10,%rsp
  404c50:	48 89 7d f8          	mov    %rdi,-0x8(%rbp)
  404c54:	48 89 75 f0          	mov    %rsi,-0x10(%rbp)
  404c58:	48 8b 55 f0          	mov    -0x10(%rbp),%rdx
  404c5c:	48 8b 45 f8          	mov    -0x8(%rbp),%rax
  404c60:	48 89 d6             	mov    %rdx,%rsi
  404c63:	48 89 c7             	mov    %rax,%rdi
  404c66:	e8 77 fc ff ff       	callq  4048e2 <_ZN10tensorflow6OutputC1ERKS0_>
  404c6b:	48 8b 45 f8          	mov    -0x8(%rbp),%rax
  404c6f:	c9                   	leaveq 
  404c70:	c3                   	retq   
  404c71:	90                   	nop

0000000000404c72 <_ZNK10tensorflow13NodeExecStats9node_nameB5cxx11Ev>:
  404c72:	55                   	push   %rbp
  404c73:	48 89 e5             	mov    %rsp,%rbp
  404c76:	48 83 ec 10          	sub    $0x10,%rsp
  404c7a:	48 89 7d f8          	mov    %rdi,-0x8(%rbp)
  404c7e:	48 8b 45 f8          	mov    -0x8(%rbp),%rax
  404c82:	48 83 c0 58          	add    $0x58,%rax
  404c86:	48 89 c7             	mov    %rax,%rdi
  404c89:	e8 28 f3 ff ff       	callq  403fb6 <_ZNK6google8protobuf8internal14ArenaStringPtr3GetB5cxx11Ev>
  404c8e:	c9                   	leaveq 
  404c8f:	c3                   	retq   

0000000000404c90 <_ZNK10tensorflow13NodeExecStats18all_end_rel_microsEv>:
  404c90:	55                   	push   %rbp
  404c91:	48 89 e5             	mov    %rsp,%rbp
  404c94:	48 89 7d f8          	mov    %rdi,-0x8(%rbp)
  404c98:	48 8b 45 f8          	mov    -0x8(%rbp),%rax
  404c9c:	48 8b 80 88 00 00 00 	mov    0x88(%rax),%rax
  404ca3:	5d                   	pop    %rbp
  404ca4:	c3                   	retq   
  404ca5:	90                   	nop

0000000000404ca6 <_ZNK10tensorflow15DeviceStepStats10node_statsEv>:
  404ca6:	55                   	push   %rbp
  404ca7:	48 89 e5             	mov    %rsp,%rbp
  404caa:	48 89 7d f8          	mov    %rdi,-0x8(%rbp)
  404cae:	48 8b 45 f8          	mov    -0x8(%rbp),%rax
  404cb2:	48 83 c0 10          	add    $0x10,%rax
  404cb6:	5d                   	pop    %rbp
  404cb7:	c3                   	retq   

0000000000404cb8 <_ZNK10tensorflow9StepStats9dev_statsEv>:
  404cb8:	55                   	push   %rbp
  404cb9:	48 89 e5             	mov    %rsp,%rbp
  404cbc:	48 89 7d f8          	mov    %rdi,-0x8(%rbp)
  404cc0:	48 8b 45 f8          	mov    -0x8(%rbp),%rax
  404cc4:	48 83 c0 10          	add    $0x10,%rax
  404cc8:	5d                   	pop    %rbp
  404cc9:	c3                   	retq   

0000000000404cca <_ZN10tensorflow11RunMetadata25internal_default_instanceEv>:
  404cca:	55                   	push   %rbp
  404ccb:	48 89 e5             	mov    %rsp,%rbp
  404cce:	b8 c0 e2 60 00       	mov    $0x60e2c0,%eax
  404cd3:	5d                   	pop    %rbp
  404cd4:	c3                   	retq   
  404cd5:	90                   	nop

0000000000404cd6 <_ZN10tensorflow10RunOptions15set_trace_levelENS_21RunOptions_TraceLevelE>:
  404cd6:	55                   	push   %rbp
  404cd7:	48 89 e5             	mov    %rsp,%rbp
  404cda:	48 89 7d f8          	mov    %rdi,-0x8(%rbp)
  404cde:	89 75 f4             	mov    %esi,-0xc(%rbp)
  404ce1:	48 8b 45 f8          	mov    -0x8(%rbp),%rax
  404ce5:	8b 55 f4             	mov    -0xc(%rbp),%edx
  404ce8:	89 50 20             	mov    %edx,0x20(%rax)
  404ceb:	90                   	nop
  404cec:	5d                   	pop    %rbp
  404ced:	c3                   	retq   

0000000000404cee <_ZNK10tensorflow11RunMetadata14has_step_statsEv>:
  404cee:	55                   	push   %rbp
  404cef:	48 89 e5             	mov    %rsp,%rbp
  404cf2:	48 83 ec 10          	sub    $0x10,%rsp
  404cf6:	48 89 7d f8          	mov    %rdi,-0x8(%rbp)
  404cfa:	e8 cb ff ff ff       	callq  404cca <_ZN10tensorflow11RunMetadata25internal_default_instanceEv>
  404cff:	48 3b 45 f8          	cmp    -0x8(%rbp),%rax
  404d03:	74 14                	je     404d19 <_ZNK10tensorflow11RunMetadata14has_step_statsEv+0x2b>
  404d05:	48 8b 45 f8          	mov    -0x8(%rbp),%rax
  404d09:	48 8b 40 28          	mov    0x28(%rax),%rax
  404d0d:	48 85 c0             	test   %rax,%rax
  404d10:	74 07                	je     404d19 <_ZNK10tensorflow11RunMetadata14has_step_statsEv+0x2b>
  404d12:	b8 01 00 00 00       	mov    $0x1,%eax
  404d17:	eb 05                	jmp    404d1e <_ZNK10tensorflow11RunMetadata14has_step_statsEv+0x30>
  404d19:	b8 00 00 00 00       	mov    $0x0,%eax
  404d1e:	c9                   	leaveq 
  404d1f:	c3                   	retq   

0000000000404d20 <_ZNK10tensorflow11RunMetadata10step_statsEv>:
  404d20:	55                   	push   %rbp
  404d21:	48 89 e5             	mov    %rsp,%rbp
  404d24:	48 89 7d e8          	mov    %rdi,-0x18(%rbp)
  404d28:	48 8b 45 e8          	mov    -0x18(%rbp),%rax
  404d2c:	48 8b 40 28          	mov    0x28(%rax),%rax
  404d30:	48 89 45 f8          	mov    %rax,-0x8(%rbp)
  404d34:	48 83 7d f8 00       	cmpq   $0x0,-0x8(%rbp)
  404d39:	74 06                	je     404d41 <_ZNK10tensorflow11RunMetadata10step_statsEv+0x21>
  404d3b:	48 8b 45 f8          	mov    -0x8(%rbp),%rax
  404d3f:	eb 05                	jmp    404d46 <_ZNK10tensorflow11RunMetadata10step_statsEv+0x26>
  404d41:	b8 00 e3 60 00       	mov    $0x60e300,%eax
  404d46:	5d                   	pop    %rbp
  404d47:	c3                   	retq   

0000000000404d48 <_ZN10tensorflow21StatSummarizerOptionsC1Ev>:
  404d48:	55                   	push   %rbp
  404d49:	48 89 e5             	mov    %rsp,%rbp
  404d4c:	48 89 7d f8          	mov    %rdi,-0x8(%rbp)
  404d50:	48 8b 45 f8          	mov    -0x8(%rbp),%rax
  404d54:	c6 00 01             	movb   $0x1,(%rax)
  404d57:	48 8b 45 f8          	mov    -0x8(%rbp),%rax
  404d5b:	c7 40 04 00 00 00 00 	movl   $0x0,0x4(%rax)
  404d62:	48 8b 45 f8          	mov    -0x8(%rbp),%rax
  404d66:	c6 40 08 01          	movb   $0x1,0x8(%rax)
  404d6a:	48 8b 45 f8          	mov    -0x8(%rbp),%rax
  404d6e:	c7 40 0c 0a 00 00 00 	movl   $0xa,0xc(%rax)
  404d75:	48 8b 45 f8          	mov    -0x8(%rbp),%rax
  404d79:	c6 40 10 01          	movb   $0x1,0x10(%rax)
  404d7d:	48 8b 45 f8          	mov    -0x8(%rbp),%rax
  404d81:	c7 40 14 0a 00 00 00 	movl   $0xa,0x14(%rax)
  404d88:	48 8b 45 f8          	mov    -0x8(%rbp),%rax
  404d8c:	c6 40 18 01          	movb   $0x1,0x18(%rax)
  404d90:	48 8b 45 f8          	mov    -0x8(%rbp),%rax
  404d94:	c6 40 19 01          	movb   $0x1,0x19(%rax)
  404d98:	90                   	nop
  404d99:	5d                   	pop    %rbp
  404d9a:	c3                   	retq   
  404d9b:	90                   	nop

0000000000404d9c <_ZNK2CK5Shape10data_countEv>:
  404d9c:	55                   	push   %rbp
  404d9d:	48 89 e5             	mov    %rsp,%rbp
  404da0:	48 89 7d f8          	mov    %rdi,-0x8(%rbp)
  404da4:	48 8b 45 f8          	mov    -0x8(%rbp),%rax
  404da8:	8b 10                	mov    (%rax),%edx
  404daa:	48 8b 45 f8          	mov    -0x8(%rbp),%rax
  404dae:	8b 40 04             	mov    0x4(%rax),%eax
  404db1:	0f af d0             	imul   %eax,%edx
  404db4:	48 8b 45 f8          	mov    -0x8(%rbp),%rax
  404db8:	8b 40 08             	mov    0x8(%rax),%eax
  404dbb:	0f af d0             	imul   %eax,%edx
  404dbe:	48 8b 45 f8          	mov    -0x8(%rbp),%rax
  404dc2:	8b 40 0c             	mov    0xc(%rax),%eax
  404dc5:	0f af c2             	imul   %edx,%eax
  404dc8:	5d                   	pop    %rbp
  404dc9:	c3                   	retq   

0000000000404dca <_ZNK2CK5Shape14get_flat_indexEiiii>:
  404dca:	55                   	push   %rbp
  404dcb:	48 89 e5             	mov    %rsp,%rbp
  404dce:	48 83 ec 20          	sub    $0x20,%rsp
  404dd2:	48 89 7d f8          	mov    %rdi,-0x8(%rbp)
  404dd6:	89 75 f4             	mov    %esi,-0xc(%rbp)
  404dd9:	89 55 f0             	mov    %edx,-0x10(%rbp)
  404ddc:	89 4d ec             	mov    %ecx,-0x14(%rbp)
  404ddf:	44 89 45 e8          	mov    %r8d,-0x18(%rbp)
  404de3:	8b 7d e8             	mov    -0x18(%rbp),%edi
  404de6:	8b 4d ec             	mov    -0x14(%rbp),%ecx
  404de9:	8b 55 f0             	mov    -0x10(%rbp),%edx
  404dec:	8b 75 f4             	mov    -0xc(%rbp),%esi
  404def:	48 8b 45 f8          	mov    -0x8(%rbp),%rax
  404df3:	41 89 f8             	mov    %edi,%r8d
  404df6:	48 89 c7             	mov    %rax,%rdi
  404df9:	e8 02 00 00 00       	callq  404e00 <_ZNK2CK5Shape19get_flat_index_nchwEiiii>
  404dfe:	c9                   	leaveq 
  404dff:	c3                   	retq   

0000000000404e00 <_ZNK2CK5Shape19get_flat_index_nchwEiiii>:
  404e00:	55                   	push   %rbp
  404e01:	48 89 e5             	mov    %rsp,%rbp
  404e04:	48 89 7d f8          	mov    %rdi,-0x8(%rbp)
  404e08:	89 75 f4             	mov    %esi,-0xc(%rbp)
  404e0b:	89 55 f0             	mov    %edx,-0x10(%rbp)
  404e0e:	89 4d ec             	mov    %ecx,-0x14(%rbp)
  404e11:	44 89 45 e8          	mov    %r8d,-0x18(%rbp)
  404e15:	48 8b 45 f8          	mov    -0x8(%rbp),%rax
  404e19:	8b 40 04             	mov    0x4(%rax),%eax
  404e1c:	0f af 45 f4          	imul   -0xc(%rbp),%eax
  404e20:	89 c2                	mov    %eax,%edx
  404e22:	8b 45 f0             	mov    -0x10(%rbp),%eax
  404e25:	01 c2                	add    %eax,%edx
  404e27:	48 8b 45 f8          	mov    -0x8(%rbp),%rax
  404e2b:	8b 40 08             	mov    0x8(%rax),%eax
  404e2e:	0f af d0             	imul   %eax,%edx
  404e31:	8b 45 ec             	mov    -0x14(%rbp),%eax
  404e34:	01 c2                	add    %eax,%edx
  404e36:	48 8b 45 f8          	mov    -0x8(%rbp),%rax
  404e3a:	8b 40 0c             	mov    0xc(%rax),%eax
  404e3d:	0f af d0             	imul   %eax,%edx
  404e40:	8b 45 e8             	mov    -0x18(%rbp),%eax
  404e43:	01 d0                	add    %edx,%eax
  404e45:	5d                   	pop    %rbp
  404e46:	c3                   	retq   

0000000000404e47 <_ZN2CK8getenv_iEPKci>:
  404e47:	55                   	push   %rbp
  404e48:	48 89 e5             	mov    %rsp,%rbp
  404e4b:	48 83 ec 10          	sub    $0x10,%rsp
  404e4f:	48 89 7d f8          	mov    %rdi,-0x8(%rbp)
  404e53:	89 75 f4             	mov    %esi,-0xc(%rbp)
  404e56:	48 8b 45 f8          	mov    -0x8(%rbp),%rax
  404e5a:	48 89 c7             	mov    %rax,%rdi
  404e5d:	e8 5e e0 ff ff       	callq  402ec0 <getenv@plt>
  404e62:	48 85 c0             	test   %rax,%rax
  404e65:	74 16                	je     404e7d <_ZN2CK8getenv_iEPKci+0x36>
  404e67:	48 8b 45 f8          	mov    -0x8(%rbp),%rax
  404e6b:	48 89 c7             	mov    %rax,%rdi
  404e6e:	e8 4d e0 ff ff       	callq  402ec0 <getenv@plt>
  404e73:	48 89 c7             	mov    %rax,%rdi
  404e76:	e8 15 e1 ff ff       	callq  402f90 <atoi@plt>
  404e7b:	eb 03                	jmp    404e80 <_ZN2CK8getenv_iEPKci+0x39>
  404e7d:	8b 45 f4             	mov    -0xc(%rbp),%eax
  404e80:	c9                   	leaveq 
  404e81:	c3                   	retq   

0000000000404e82 <_ZN2CK13store_value_iEiPKci>:
  404e82:	55                   	push   %rbp
  404e83:	48 89 e5             	mov    %rsp,%rbp
  404e86:	48 83 ec 20          	sub    $0x20,%rsp
  404e8a:	89 7d ec             	mov    %edi,-0x14(%rbp)
  404e8d:	48 89 75 e0          	mov    %rsi,-0x20(%rbp)
  404e91:	89 55 e8             	mov    %edx,-0x18(%rbp)
  404e94:	48 8b 45 e0          	mov    -0x20(%rbp),%rax
  404e98:	48 89 c7             	mov    %rax,%rdi
  404e9b:	e8 20 e1 ff ff       	callq  402fc0 <strlen@plt>
  404ea0:	48 83 c0 06          	add    $0x6,%rax
  404ea4:	48 89 c7             	mov    %rax,%rdi
  404ea7:	e8 b4 e2 ff ff       	callq  403160 <_Znam@plt>
  404eac:	48 89 45 f8          	mov    %rax,-0x8(%rbp)
  404eb0:	48 8b 55 e0          	mov    -0x20(%rbp),%rdx
  404eb4:	48 8b 45 f8          	mov    -0x8(%rbp),%rax
  404eb8:	be 80 90 40 00       	mov    $0x409080,%esi
  404ebd:	48 89 c7             	mov    %rax,%rdi
  404ec0:	b8 00 00 00 00       	mov    $0x0,%eax
  404ec5:	e8 36 df ff ff       	callq  402e00 <sprintf@plt>
  404eca:	8b 55 e8             	mov    -0x18(%rbp),%edx
  404ecd:	48 8b 4d f8          	mov    -0x8(%rbp),%rcx
  404ed1:	8b 45 ec             	mov    -0x14(%rbp),%eax
  404ed4:	48 89 ce             	mov    %rcx,%rsi
  404ed7:	89 c7                	mov    %eax,%edi
  404ed9:	e8 f2 e0 ff ff       	callq  402fd0 <xopenme_add_var_i@plt>
  404ede:	48 83 7d f8 00       	cmpq   $0x0,-0x8(%rbp)
  404ee3:	74 0c                	je     404ef1 <_ZN2CK13store_value_iEiPKci+0x6f>
  404ee5:	48 8b 45 f8          	mov    -0x8(%rbp),%rax
  404ee9:	48 89 c7             	mov    %rax,%rdi
  404eec:	e8 af e0 ff ff       	callq  402fa0 <_ZdaPv@plt>
  404ef1:	90                   	nop
  404ef2:	c9                   	leaveq 
  404ef3:	c3                   	retq   

0000000000404ef4 <_ZN2CK13store_value_fEiPKcf>:
  404ef4:	55                   	push   %rbp
  404ef5:	48 89 e5             	mov    %rsp,%rbp
  404ef8:	48 83 ec 30          	sub    $0x30,%rsp
  404efc:	89 7d ec             	mov    %edi,-0x14(%rbp)
  404eff:	48 89 75 e0          	mov    %rsi,-0x20(%rbp)
  404f03:	f3 0f 11 45 e8       	movss  %xmm0,-0x18(%rbp)
  404f08:	48 8b 45 e0          	mov    -0x20(%rbp),%rax
  404f0c:	48 89 c7             	mov    %rax,%rdi
  404f0f:	e8 ac e0 ff ff       	callq  402fc0 <strlen@plt>
  404f14:	48 83 c0 06          	add    $0x6,%rax
  404f18:	48 89 c7             	mov    %rax,%rdi
  404f1b:	e8 40 e2 ff ff       	callq  403160 <_Znam@plt>
  404f20:	48 89 45 f8          	mov    %rax,-0x8(%rbp)
  404f24:	48 8b 55 e0          	mov    -0x20(%rbp),%rdx
  404f28:	48 8b 45 f8          	mov    -0x8(%rbp),%rax
  404f2c:	be 89 90 40 00       	mov    $0x409089,%esi
  404f31:	48 89 c7             	mov    %rax,%rdi
  404f34:	b8 00 00 00 00       	mov    $0x0,%eax
  404f39:	e8 c2 de ff ff       	callq  402e00 <sprintf@plt>
  404f3e:	8b 4d e8             	mov    -0x18(%rbp),%ecx
  404f41:	48 8b 55 f8          	mov    -0x8(%rbp),%rdx
  404f45:	8b 45 ec             	mov    -0x14(%rbp),%eax
  404f48:	89 4d dc             	mov    %ecx,-0x24(%rbp)
  404f4b:	f3 0f 10 45 dc       	movss  -0x24(%rbp),%xmm0
  404f50:	48 89 d6             	mov    %rdx,%rsi
  404f53:	89 c7                	mov    %eax,%edi
  404f55:	e8 56 e1 ff ff       	callq  4030b0 <xopenme_add_var_f@plt>
  404f5a:	48 83 7d f8 00       	cmpq   $0x0,-0x8(%rbp)
  404f5f:	74 0c                	je     404f6d <_ZN2CK13store_value_fEiPKcf+0x79>
  404f61:	48 8b 45 f8          	mov    -0x8(%rbp),%rax
  404f65:	48 89 c7             	mov    %rax,%rdi
  404f68:	e8 33 e0 ff ff       	callq  402fa0 <_ZdaPv@plt>
  404f6d:	90                   	nop
  404f6e:	c9                   	leaveq 
  404f6f:	c3                   	retq   

0000000000404f70 <_ZN2CK24get_input_shape_from_envEiiii>:
  404f70:	55                   	push   %rbp
  404f71:	48 89 e5             	mov    %rsp,%rbp
  404f74:	48 83 ec 30          	sub    $0x30,%rsp
  404f78:	89 7d dc             	mov    %edi,-0x24(%rbp)
  404f7b:	89 75 d8             	mov    %esi,-0x28(%rbp)
  404f7e:	89 55 d4             	mov    %edx,-0x2c(%rbp)
  404f81:	89 4d d0             	mov    %ecx,-0x30(%rbp)
  404f84:	64 48 8b 04 25 28 00 	mov    %fs:0x28,%rax
  404f8b:	00 00 
  404f8d:	48 89 45 f8          	mov    %rax,-0x8(%rbp)
  404f91:	31 c0                	xor    %eax,%eax
  404f93:	c7 45 e0 01 00 00 00 	movl   $0x1,-0x20(%rbp)
  404f9a:	c7 45 e4 01 00 00 00 	movl   $0x1,-0x1c(%rbp)
  404fa1:	c7 45 e8 01 00 00 00 	movl   $0x1,-0x18(%rbp)
  404fa8:	c7 45 ec 01 00 00 00 	movl   $0x1,-0x14(%rbp)
  404faf:	8b 45 dc             	mov    -0x24(%rbp),%eax
  404fb2:	89 c6                	mov    %eax,%esi
  404fb4:	bf 92 90 40 00       	mov    $0x409092,%edi
  404fb9:	e8 89 fe ff ff       	callq  404e47 <_ZN2CK8getenv_iEPKci>
  404fbe:	89 45 e0             	mov    %eax,-0x20(%rbp)
  404fc1:	8b 45 d8             	mov    -0x28(%rbp),%eax
  404fc4:	89 c6                	mov    %eax,%esi
  404fc6:	bf a0 90 40 00       	mov    $0x4090a0,%edi
  404fcb:	e8 77 fe ff ff       	callq  404e47 <_ZN2CK8getenv_iEPKci>
  404fd0:	89 45 e4             	mov    %eax,-0x1c(%rbp)
  404fd3:	8b 45 d4             	mov    -0x2c(%rbp),%eax
  404fd6:	89 c6                	mov    %eax,%esi
  404fd8:	bf ae 90 40 00       	mov    $0x4090ae,%edi
  404fdd:	e8 65 fe ff ff       	callq  404e47 <_ZN2CK8getenv_iEPKci>
  404fe2:	89 45 e8             	mov    %eax,-0x18(%rbp)
  404fe5:	8b 45 d0             	mov    -0x30(%rbp),%eax
  404fe8:	89 c6                	mov    %eax,%esi
  404fea:	bf bc 90 40 00       	mov    $0x4090bc,%edi
  404fef:	e8 53 fe ff ff       	callq  404e47 <_ZN2CK8getenv_iEPKci>
  404ff4:	89 45 ec             	mov    %eax,-0x14(%rbp)
  404ff7:	8b 45 e0             	mov    -0x20(%rbp),%eax
  404ffa:	89 c2                	mov    %eax,%edx
  404ffc:	be ca 90 40 00       	mov    $0x4090ca,%esi
  405001:	bf 04 00 00 00       	mov    $0x4,%edi
  405006:	e8 77 fe ff ff       	callq  404e82 <_ZN2CK13store_value_iEiPKci>
  40500b:	8b 45 e4             	mov    -0x1c(%rbp),%eax
  40500e:	89 c2                	mov    %eax,%edx
  405010:	be d5 90 40 00       	mov    $0x4090d5,%esi
  405015:	bf 05 00 00 00       	mov    $0x5,%edi
  40501a:	e8 63 fe ff ff       	callq  404e82 <_ZN2CK13store_value_iEiPKci>
  40501f:	8b 45 e8             	mov    -0x18(%rbp),%eax
  405022:	89 c2                	mov    %eax,%edx
  405024:	be e0 90 40 00       	mov    $0x4090e0,%esi
  405029:	bf 06 00 00 00       	mov    $0x6,%edi
  40502e:	e8 4f fe ff ff       	callq  404e82 <_ZN2CK13store_value_iEiPKci>
  405033:	8b 45 ec             	mov    -0x14(%rbp),%eax
  405036:	89 c2                	mov    %eax,%edx
  405038:	be eb 90 40 00       	mov    $0x4090eb,%esi
  40503d:	bf 07 00 00 00       	mov    $0x7,%edi
  405042:	e8 3b fe ff ff       	callq  404e82 <_ZN2CK13store_value_iEiPKci>
  405047:	8b 75 ec             	mov    -0x14(%rbp),%esi
  40504a:	8b 4d e8             	mov    -0x18(%rbp),%ecx
  40504d:	8b 55 e4             	mov    -0x1c(%rbp),%edx
  405050:	8b 45 e0             	mov    -0x20(%rbp),%eax
  405053:	41 89 f0             	mov    %esi,%r8d
  405056:	89 c6                	mov    %eax,%esi
  405058:	bf f8 90 40 00       	mov    $0x4090f8,%edi
  40505d:	b8 00 00 00 00       	mov    $0x0,%eax
  405062:	e8 d9 dd ff ff       	callq  402e40 <printf@plt>
  405067:	48 8b 45 e0          	mov    -0x20(%rbp),%rax
  40506b:	48 8b 55 e8          	mov    -0x18(%rbp),%rdx
  40506f:	48 8b 4d f8          	mov    -0x8(%rbp),%rcx
  405073:	64 48 33 0c 25 28 00 	xor    %fs:0x28,%rcx
  40507a:	00 00 
  40507c:	74 05                	je     405083 <_ZN2CK24get_input_shape_from_envEiiii+0x113>
  40507e:	e8 dd dc ff ff       	callq  402d60 <__stack_chk_fail@plt>
  405083:	c9                   	leaveq 
  405084:	c3                   	retq   

0000000000405085 <_ZN2CK9init_testEv>:
  405085:	55                   	push   %rbp
  405086:	48 89 e5             	mov    %rsp,%rbp
  405089:	48 83 ec 10          	sub    $0x10,%rsp
  40508d:	be 0c 00 00 00       	mov    $0xc,%esi
  405092:	bf 02 00 00 00       	mov    $0x2,%edi
  405097:	e8 c4 de ff ff       	callq  402f60 <xopenme_init@plt>
  40509c:	be 2a 00 00 00       	mov    $0x2a,%esi
  4050a1:	bf 2f 91 40 00       	mov    $0x40912f,%edi
  4050a6:	e8 9c fd ff ff       	callq  404e47 <_ZN2CK8getenv_iEPKci>
  4050ab:	89 45 fc             	mov    %eax,-0x4(%rbp)
  4050ae:	8b 45 fc             	mov    -0x4(%rbp),%eax
  4050b1:	89 c2                	mov    %eax,%edx
  4050b3:	be 37 91 40 00       	mov    $0x409137,%esi
  4050b8:	bf 08 00 00 00       	mov    $0x8,%edi
  4050bd:	e8 c0 fd ff ff       	callq  404e82 <_ZN2CK13store_value_iEiPKci>
  4050c2:	8b 45 fc             	mov    -0x4(%rbp),%eax
  4050c5:	89 c7                	mov    %eax,%edi
  4050c7:	e8 54 de ff ff       	callq  402f20 <srand@plt>
  4050cc:	90                   	nop
  4050cd:	c9                   	leaveq 
  4050ce:	c3                   	retq   

00000000004050cf <_ZN2CK11finish_testEv>:
  4050cf:	55                   	push   %rbp
  4050d0:	48 89 e5             	mov    %rsp,%rbp
  4050d3:	bf 00 00 00 00       	mov    $0x0,%edi
  4050d8:	e8 93 e0 ff ff       	callq  403170 <xopenme_get_timer@plt>
  4050dd:	be 00 00 00 00       	mov    $0x0,%esi
  4050e2:	bf 40 91 40 00       	mov    $0x409140,%edi
  4050e7:	b8 01 00 00 00       	mov    $0x1,%eax
  4050ec:	e8 4f dd ff ff       	callq  402e40 <printf@plt>
  4050f1:	bf 01 00 00 00       	mov    $0x1,%edi
  4050f6:	e8 75 e0 ff ff       	callq  403170 <xopenme_get_timer@plt>
  4050fb:	be 01 00 00 00       	mov    $0x1,%esi
  405100:	bf 54 91 40 00       	mov    $0x409154,%edi
  405105:	b8 01 00 00 00       	mov    $0x1,%eax
  40510a:	e8 31 dd ff ff       	callq  402e40 <printf@plt>
  40510f:	e8 7c df ff ff       	callq  403090 <xopenme_dump_state@plt>
  405114:	e8 17 de ff ff       	callq  402f30 <xopenme_finish@plt>
  405119:	90                   	nop
  40511a:	5d                   	pop    %rbp
  40511b:	c3                   	retq   

000000000040511c <_ZN2CK2TF16get_node_time_msERKN10tensorflow9StepStatsEPKc>:
  40511c:	55                   	push   %rbp
  40511d:	48 89 e5             	mov    %rsp,%rbp
  405120:	48 83 ec 60          	sub    $0x60,%rsp
  405124:	48 89 7d a8          	mov    %rdi,-0x58(%rbp)
  405128:	48 89 75 a0          	mov    %rsi,-0x60(%rbp)
  40512c:	64 48 8b 04 25 28 00 	mov    %fs:0x28,%rax
  405133:	00 00 
  405135:	48 89 45 f8          	mov    %rax,-0x8(%rbp)
  405139:	31 c0                	xor    %eax,%eax
  40513b:	48 c7 45 d0 00 00 00 	movq   $0x0,-0x30(%rbp)
  405142:	00 
  405143:	48 8b 45 a8          	mov    -0x58(%rbp),%rax
  405147:	48 89 c7             	mov    %rax,%rdi
  40514a:	e8 69 fb ff ff       	callq  404cb8 <_ZNK10tensorflow9StepStats9dev_statsEv>
  40514f:	48 89 45 d8          	mov    %rax,-0x28(%rbp)
  405153:	48 8b 45 d8          	mov    -0x28(%rbp),%rax
  405157:	48 89 c7             	mov    %rax,%rdi
  40515a:	e8 c5 0a 00 00       	callq  405c24 <_ZNK6google8protobuf16RepeatedPtrFieldIN10tensorflow15DeviceStepStatsEE5beginEv>
  40515f:	48 89 45 b0          	mov    %rax,-0x50(%rbp)
  405163:	48 8b 45 d8          	mov    -0x28(%rbp),%rax
  405167:	48 89 c7             	mov    %rax,%rdi
  40516a:	e8 1b 0b 00 00       	callq  405c8a <_ZNK6google8protobuf16RepeatedPtrFieldIN10tensorflow15DeviceStepStatsEE3endEv>
  40516f:	48 89 45 b8          	mov    %rax,-0x48(%rbp)
  405173:	48 8d 55 b8          	lea    -0x48(%rbp),%rdx
  405177:	48 8d 45 b0          	lea    -0x50(%rbp),%rax
  40517b:	48 89 d6             	mov    %rdx,%rsi
  40517e:	48 89 c7             	mov    %rax,%rdi
  405181:	e8 86 0b 00 00       	callq  405d0c <_ZNK6google8protobuf8internal19RepeatedPtrIteratorIKN10tensorflow15DeviceStepStatsEEneERKS6_>
  405186:	84 c0                	test   %al,%al
  405188:	0f 84 c4 00 00 00    	je     405252 <_ZN2CK2TF16get_node_time_msERKN10tensorflow9StepStatsEPKc+0x136>
  40518e:	48 8d 45 b0          	lea    -0x50(%rbp),%rax
  405192:	48 89 c7             	mov    %rax,%rdi
  405195:	e8 b4 0b 00 00       	callq  405d4e <_ZNK6google8protobuf8internal19RepeatedPtrIteratorIKN10tensorflow15DeviceStepStatsEEdeEv>
  40519a:	48 89 45 e0          	mov    %rax,-0x20(%rbp)
  40519e:	48 8b 45 e0          	mov    -0x20(%rbp),%rax
  4051a2:	48 89 c7             	mov    %rax,%rdi
  4051a5:	e8 fc fa ff ff       	callq  404ca6 <_ZNK10tensorflow15DeviceStepStats10node_statsEv>
  4051aa:	48 89 45 e8          	mov    %rax,-0x18(%rbp)
  4051ae:	48 8b 45 e8          	mov    -0x18(%rbp),%rax
  4051b2:	48 89 c7             	mov    %rax,%rdi
  4051b5:	e8 a8 0b 00 00       	callq  405d62 <_ZNK6google8protobuf16RepeatedPtrFieldIN10tensorflow13NodeExecStatsEE5beginEv>
  4051ba:	48 89 45 c0          	mov    %rax,-0x40(%rbp)
  4051be:	48 8b 45 e8          	mov    -0x18(%rbp),%rax
  4051c2:	48 89 c7             	mov    %rax,%rdi
  4051c5:	e8 fe 0b 00 00       	callq  405dc8 <_ZNK6google8protobuf16RepeatedPtrFieldIN10tensorflow13NodeExecStatsEE3endEv>
  4051ca:	48 89 45 c8          	mov    %rax,-0x38(%rbp)
  4051ce:	48 8d 55 c8          	lea    -0x38(%rbp),%rdx
  4051d2:	48 8d 45 c0          	lea    -0x40(%rbp),%rax
  4051d6:	48 89 d6             	mov    %rdx,%rsi
  4051d9:	48 89 c7             	mov    %rax,%rdi
  4051dc:	e8 69 0c 00 00       	callq  405e4a <_ZNK6google8protobuf8internal19RepeatedPtrIteratorIKN10tensorflow13NodeExecStatsEEneERKS6_>
  4051e1:	84 c0                	test   %al,%al
  4051e3:	74 5c                	je     405241 <_ZN2CK2TF16get_node_time_msERKN10tensorflow9StepStatsEPKc+0x125>
  4051e5:	48 8d 45 c0          	lea    -0x40(%rbp),%rax
  4051e9:	48 89 c7             	mov    %rax,%rdi
  4051ec:	e8 9b 0c 00 00       	callq  405e8c <_ZNK6google8protobuf8internal19RepeatedPtrIteratorIKN10tensorflow13NodeExecStatsEEdeEv>
  4051f1:	48 89 45 f0          	mov    %rax,-0x10(%rbp)
  4051f5:	48 8b 45 f0          	mov    -0x10(%rbp),%rax
  4051f9:	48 89 c7             	mov    %rax,%rdi
  4051fc:	e8 71 fa ff ff       	callq  404c72 <_ZNK10tensorflow13NodeExecStats9node_nameB5cxx11Ev>
  405201:	48 89 c1             	mov    %rax,%rcx
  405204:	48 8b 45 a0          	mov    -0x60(%rbp),%rax
  405208:	ba 00 00 00 00       	mov    $0x0,%edx
  40520d:	48 89 c6             	mov    %rax,%rsi
  405210:	48 89 cf             	mov    %rcx,%rdi
  405213:	e8 38 dd ff ff       	callq  402f50 <_ZNKSt7__cxx1112basic_stringIcSt11char_traitsIcESaIcEE4findEPKcm@plt>
  405218:	48 83 f8 ff          	cmp    $0xffffffffffffffff,%rax
  40521c:	0f 95 c0             	setne  %al
  40521f:	84 c0                	test   %al,%al
  405221:	74 10                	je     405233 <_ZN2CK2TF16get_node_time_msERKN10tensorflow9StepStatsEPKc+0x117>
  405223:	48 8b 45 f0          	mov    -0x10(%rbp),%rax
  405227:	48 89 c7             	mov    %rax,%rdi
  40522a:	e8 61 fa ff ff       	callq  404c90 <_ZNK10tensorflow13NodeExecStats18all_end_rel_microsEv>
  40522f:	48 01 45 d0          	add    %rax,-0x30(%rbp)
  405233:	48 8d 45 c0          	lea    -0x40(%rbp),%rax
  405237:	48 89 c7             	mov    %rax,%rdi
  40523a:	e8 2d 0c 00 00       	callq  405e6c <_ZN6google8protobuf8internal19RepeatedPtrIteratorIKN10tensorflow13NodeExecStatsEEppEv>
  40523f:	eb 8d                	jmp    4051ce <_ZN2CK2TF16get_node_time_msERKN10tensorflow9StepStatsEPKc+0xb2>
  405241:	48 8d 45 b0          	lea    -0x50(%rbp),%rax
  405245:	48 89 c7             	mov    %rax,%rdi
  405248:	e8 e1 0a 00 00       	callq  405d2e <_ZN6google8protobuf8internal19RepeatedPtrIteratorIKN10tensorflow15DeviceStepStatsEEppEv>
  40524d:	e9 21 ff ff ff       	jmpq   405173 <_ZN2CK2TF16get_node_time_msERKN10tensorflow9StepStatsEPKc+0x57>
  405252:	66 0f ef c0          	pxor   %xmm0,%xmm0
  405256:	f3 48 0f 2a 45 d0    	cvtsi2ssq -0x30(%rbp),%xmm0
  40525c:	f3 0f 10 0d 28 42 00 	movss  0x4228(%rip),%xmm1        # 40948c <_ZZN2CK2TF16process_metadataERKN10tensorflow11RunMetadataEPKcE19__PRETTY_FUNCTION__+0x4c>
  405263:	00 
  405264:	f3 0f 5e c1          	divss  %xmm1,%xmm0
  405268:	48 8b 45 f8          	mov    -0x8(%rbp),%rax
  40526c:	64 48 33 04 25 28 00 	xor    %fs:0x28,%rax
  405273:	00 00 
  405275:	74 05                	je     40527c <_ZN2CK2TF16get_node_time_msERKN10tensorflow9StepStatsEPKc+0x160>
  405277:	e8 e4 da ff ff       	callq  402d60 <__stack_chk_fail@plt>
  40527c:	c9                   	leaveq 
  40527d:	c3                   	retq   

000000000040527e <_ZN2CK2TF14print_all_statERKN10tensorflow9StepStatsE>:
  40527e:	55                   	push   %rbp
  40527f:	48 89 e5             	mov    %rsp,%rbp
  405282:	53                   	push   %rbx
  405283:	48 81 ec 08 01 00 00 	sub    $0x108,%rsp
  40528a:	48 89 bd f8 fe ff ff 	mov    %rdi,-0x108(%rbp)
  405291:	64 48 8b 04 25 28 00 	mov    %fs:0x28,%rax
  405298:	00 00 
  40529a:	48 89 45 e8          	mov    %rax,-0x18(%rbp)
  40529e:	31 c0                	xor    %eax,%eax
  4052a0:	48 8d 85 00 ff ff ff 	lea    -0x100(%rbp),%rax
  4052a7:	48 89 c7             	mov    %rax,%rdi
  4052aa:	e8 99 fa ff ff       	callq  404d48 <_ZN10tensorflow21StatSummarizerOptionsC1Ev>
  4052af:	48 8d 95 00 ff ff ff 	lea    -0x100(%rbp),%rdx
  4052b6:	48 8d 85 20 ff ff ff 	lea    -0xe0(%rbp),%rax
  4052bd:	48 89 d6             	mov    %rdx,%rsi
  4052c0:	48 89 c7             	mov    %rax,%rdi
  4052c3:	e8 58 df ff ff       	callq  403220 <_ZN10tensorflow14StatSummarizerC1ERKNS_21StatSummarizerOptionsE@plt>
  4052c8:	48 8b 95 f8 fe ff ff 	mov    -0x108(%rbp),%rdx
  4052cf:	48 8d 85 20 ff ff ff 	lea    -0xe0(%rbp),%rax
  4052d6:	48 89 d6             	mov    %rdx,%rsi
  4052d9:	48 89 c7             	mov    %rax,%rdi
  4052dc:	e8 af de ff ff       	callq  403190 <_ZN10tensorflow14StatSummarizer16ProcessStepStatsERKNS_9StepStatsE@plt>
  4052e1:	48 8d 85 20 ff ff ff 	lea    -0xe0(%rbp),%rax
  4052e8:	48 89 c7             	mov    %rax,%rdi
  4052eb:	e8 20 de ff ff       	callq  403110 <_ZNK10tensorflow14StatSummarizer14PrintStepStatsEv@plt>
  4052f0:	48 8d 85 20 ff ff ff 	lea    -0xe0(%rbp),%rax
  4052f7:	48 89 c7             	mov    %rax,%rdi
  4052fa:	e8 d1 db ff ff       	callq  402ed0 <_ZN10tensorflow14StatSummarizerD1Ev@plt>
  4052ff:	90                   	nop
  405300:	48 8b 45 e8          	mov    -0x18(%rbp),%rax
  405304:	64 48 33 04 25 28 00 	xor    %fs:0x28,%rax
  40530b:	00 00 
  40530d:	74 24                	je     405333 <_ZN2CK2TF14print_all_statERKN10tensorflow9StepStatsE+0xb5>
  40530f:	eb 1d                	jmp    40532e <_ZN2CK2TF14print_all_statERKN10tensorflow9StepStatsE+0xb0>
  405311:	48 89 c3             	mov    %rax,%rbx
  405314:	48 8d 85 20 ff ff ff 	lea    -0xe0(%rbp),%rax
  40531b:	48 89 c7             	mov    %rax,%rdi
  40531e:	e8 ad db ff ff       	callq  402ed0 <_ZN10tensorflow14StatSummarizerD1Ev@plt>
  405323:	48 89 d8             	mov    %rbx,%rax
  405326:	48 89 c7             	mov    %rax,%rdi
  405329:	e8 e2 dc ff ff       	callq  403010 <_Unwind_Resume@plt>
  40532e:	e8 2d da ff ff       	callq  402d60 <__stack_chk_fail@plt>
  405333:	48 81 c4 08 01 00 00 	add    $0x108,%rsp
  40533a:	5b                   	pop    %rbx
  40533b:	5d                   	pop    %rbp
  40533c:	c3                   	retq   
  40533d:	90                   	nop

000000000040533e <_ZN10tensorflow11TensorShapeC1ESt16initializer_listIxE>:
  40533e:	55                   	push   %rbp
  40533f:	48 89 e5             	mov    %rsp,%rbp
  405342:	48 83 ec 20          	sub    $0x20,%rsp
  405346:	48 89 7d f8          	mov    %rdi,-0x8(%rbp)
  40534a:	48 89 f0             	mov    %rsi,%rax
  40534d:	48 89 d1             	mov    %rdx,%rcx
  405350:	48 89 ca             	mov    %rcx,%rdx
  405353:	48 89 45 e0          	mov    %rax,-0x20(%rbp)
  405357:	48 89 55 e8          	mov    %rdx,-0x18(%rbp)
  40535b:	48 8b 45 f8          	mov    -0x8(%rbp),%rax
  40535f:	48 8b 4d e0          	mov    -0x20(%rbp),%rcx
  405363:	48 8b 55 e8          	mov    -0x18(%rbp),%rdx
  405367:	48 89 ce             	mov    %rcx,%rsi
  40536a:	48 89 c7             	mov    %rax,%rdi
  40536d:	e8 3e da ff ff       	callq  402db0 <_ZN10tensorflow15TensorShapeBaseINS_11TensorShapeEEC2ESt16initializer_listIxE@plt>
  405372:	90                   	nop
  405373:	c9                   	leaveq 
  405374:	c3                   	retq   

0000000000405375 <_ZN2CK2TF16process_metadataERKN10tensorflow11RunMetadataEPKc>:
  405375:	55                   	push   %rbp
  405376:	48 89 e5             	mov    %rsp,%rbp
  405379:	48 83 ec 30          	sub    $0x30,%rsp
  40537d:	48 89 7d e8          	mov    %rdi,-0x18(%rbp)
  405381:	48 89 75 e0          	mov    %rsi,-0x20(%rbp)
  405385:	48 8b 45 e8          	mov    -0x18(%rbp),%rax
  405389:	48 89 c7             	mov    %rax,%rdi
  40538c:	e8 5d f9 ff ff       	callq  404cee <_ZNK10tensorflow11RunMetadata14has_step_statsEv>
  405391:	84 c0                	test   %al,%al
  405393:	75 19                	jne    4053ae <_ZN2CK2TF16process_metadataERKN10tensorflow11RunMetadataEPKc+0x39>
  405395:	b9 40 94 40 00       	mov    $0x409440,%ecx
  40539a:	ba 53 00 00 00       	mov    $0x53,%edx
  40539f:	be 80 91 40 00       	mov    $0x409180,%esi
  4053a4:	bf e0 91 40 00       	mov    $0x4091e0,%edi
  4053a9:	e8 a2 d9 ff ff       	callq  402d50 <__assert_fail@plt>
  4053ae:	48 8b 45 e8          	mov    -0x18(%rbp),%rax
  4053b2:	48 89 c7             	mov    %rax,%rdi
  4053b5:	e8 66 f9 ff ff       	callq  404d20 <_ZNK10tensorflow11RunMetadata10step_statsEv>
  4053ba:	48 89 45 f8          	mov    %rax,-0x8(%rbp)
  4053be:	be 00 00 00 00       	mov    $0x0,%esi
  4053c3:	bf fe 91 40 00       	mov    $0x4091fe,%edi
  4053c8:	e8 7a fa ff ff       	callq  404e47 <_ZN2CK8getenv_iEPKci>
  4053cd:	85 c0                	test   %eax,%eax
  4053cf:	0f 95 c0             	setne  %al
  4053d2:	84 c0                	test   %al,%al
  4053d4:	74 0c                	je     4053e2 <_ZN2CK2TF16process_metadataERKN10tensorflow11RunMetadataEPKc+0x6d>
  4053d6:	48 8b 45 f8          	mov    -0x8(%rbp),%rax
  4053da:	48 89 c7             	mov    %rax,%rdi
  4053dd:	e8 9c fe ff ff       	callq  40527e <_ZN2CK2TF14print_all_statERKN10tensorflow9StepStatsE>
  4053e2:	48 8b 55 e0          	mov    -0x20(%rbp),%rdx
  4053e6:	48 8b 45 f8          	mov    -0x8(%rbp),%rax
  4053ea:	48 89 d6             	mov    %rdx,%rsi
  4053ed:	48 89 c7             	mov    %rax,%rdi
  4053f0:	e8 27 fd ff ff       	callq  40511c <_ZN2CK2TF16get_node_time_msERKN10tensorflow9StepStatsEPKc>
  4053f5:	66 0f 7e c0          	movd   %xmm0,%eax
  4053f9:	89 45 f4             	mov    %eax,-0xc(%rbp)
  4053fc:	f3 0f 5a 45 f4       	cvtss2sd -0xc(%rbp),%xmm0
  405401:	48 8b 45 e0          	mov    -0x20(%rbp),%rax
  405405:	48 89 c6             	mov    %rax,%rsi
  405408:	bf 10 92 40 00       	mov    $0x409210,%edi
  40540d:	b8 01 00 00 00       	mov    $0x1,%eax
  405412:	e8 29 da ff ff       	callq  402e40 <printf@plt>
  405417:	8b 45 f4             	mov    -0xc(%rbp),%eax
  40541a:	89 45 dc             	mov    %eax,-0x24(%rbp)
  40541d:	f3 0f 10 45 dc       	movss  -0x24(%rbp),%xmm0
  405422:	e8 ae df ff ff       	callq  4033d5 <_ZN2CK15store_test_timeEf>
  405427:	90                   	nop
  405428:	c9                   	leaveq 
  405429:	c3                   	retq   

000000000040542a <_ZN10tensorflow3ops14ResizeBilinearD1Ev>:
  40542a:	55                   	push   %rbp
  40542b:	48 89 e5             	mov    %rsp,%rbp
  40542e:	48 83 ec 10          	sub    $0x10,%rsp
  405432:	48 89 7d f8          	mov    %rdi,-0x8(%rbp)
  405436:	48 8b 45 f8          	mov    -0x8(%rbp),%rax
  40543a:	48 89 c7             	mov    %rax,%rdi
  40543d:	e8 84 f4 ff ff       	callq  4048c6 <_ZN10tensorflow6OutputD1Ev>
  405442:	90                   	nop
  405443:	c9                   	leaveq 
  405444:	c3                   	retq   
  405445:	90                   	nop

0000000000405446 <_ZNSt8__detail10_Select1stC1Ev>:
  405446:	55                   	push   %rbp
  405447:	48 89 e5             	mov    %rsp,%rbp
  40544a:	48 89 7d f8          	mov    %rdi,-0x8(%rbp)
  40544e:	90                   	nop
  40544f:	5d                   	pop    %rbp
  405450:	c3                   	retq   
  405451:	90                   	nop

0000000000405452 <_ZNSt8__detail21_Hashtable_ebo_helperILi0ENS_10_Select1stELb1EEC1Ev>:
  405452:	55                   	push   %rbp
  405453:	48 89 e5             	mov    %rsp,%rbp
  405456:	48 83 ec 10          	sub    $0x10,%rsp
  40545a:	48 89 7d f8          	mov    %rdi,-0x8(%rbp)
  40545e:	48 8b 45 f8          	mov    -0x8(%rbp),%rax
  405462:	48 89 c7             	mov    %rax,%rdi
  405465:	e8 dc ff ff ff       	callq  405446 <_ZNSt8__detail10_Select1stC1Ev>
  40546a:	90                   	nop
  40546b:	c9                   	leaveq 
  40546c:	c3                   	retq   
  40546d:	90                   	nop

000000000040546e <_ZN10tensorflow10OutputHashC1Ev>:
  40546e:	55                   	push   %rbp
  40546f:	48 89 e5             	mov    %rsp,%rbp
  405472:	48 89 7d f8          	mov    %rdi,-0x8(%rbp)
  405476:	90                   	nop
  405477:	5d                   	pop    %rbp
  405478:	c3                   	retq   
  405479:	90                   	nop

000000000040547a <_ZNSt8__detail21_Hashtable_ebo_helperILi1EN10tensorflow10OutputHashELb1EEC1Ev>:
  40547a:	55                   	push   %rbp
  40547b:	48 89 e5             	mov    %rsp,%rbp
  40547e:	48 83 ec 10          	sub    $0x10,%rsp
  405482:	48 89 7d f8          	mov    %rdi,-0x8(%rbp)
  405486:	48 8b 45 f8          	mov    -0x8(%rbp),%rax
  40548a:	48 89 c7             	mov    %rax,%rdi
  40548d:	e8 dc ff ff ff       	callq  40546e <_ZN10tensorflow10OutputHashC1Ev>
  405492:	90                   	nop
  405493:	c9                   	leaveq 
  405494:	c3                   	retq   
  405495:	90                   	nop

0000000000405496 <_ZNSt8__detail18_Mod_range_hashingC1Ev>:
  405496:	55                   	push   %rbp
  405497:	48 89 e5             	mov    %rsp,%rbp
  40549a:	48 89 7d f8          	mov    %rdi,-0x8(%rbp)
  40549e:	90                   	nop
  40549f:	5d                   	pop    %rbp
  4054a0:	c3                   	retq   
  4054a1:	90                   	nop

00000000004054a2 <_ZNSt8__detail21_Hashtable_ebo_helperILi2ENS_18_Mod_range_hashingELb1EEC1Ev>:
  4054a2:	55                   	push   %rbp
  4054a3:	48 89 e5             	mov    %rsp,%rbp
  4054a6:	48 83 ec 10          	sub    $0x10,%rsp
  4054aa:	48 89 7d f8          	mov    %rdi,-0x8(%rbp)
  4054ae:	48 8b 45 f8          	mov    -0x8(%rbp),%rax
  4054b2:	48 89 c7             	mov    %rax,%rdi
  4054b5:	e8 dc ff ff ff       	callq  405496 <_ZNSt8__detail18_Mod_range_hashingC1Ev>
  4054ba:	90                   	nop
  4054bb:	c9                   	leaveq 
  4054bc:	c3                   	retq   
  4054bd:	90                   	nop

00000000004054be <_ZNSt8__detail15_Hash_code_baseIN10tensorflow6OutputESt4pairIKS2_NS1_5Input11InitializerEENS_10_Select1stENS1_10OutputHashENS_18_Mod_range_hashingENS_20_Default_ranged_hashELb1EEC1Ev>:
  4054be:	55                   	push   %rbp
  4054bf:	48 89 e5             	mov    %rsp,%rbp
  4054c2:	48 83 ec 10          	sub    $0x10,%rsp
  4054c6:	48 89 7d f8          	mov    %rdi,-0x8(%rbp)
  4054ca:	48 8b 45 f8          	mov    -0x8(%rbp),%rax
  4054ce:	48 89 c7             	mov    %rax,%rdi
  4054d1:	e8 7c ff ff ff       	callq  405452 <_ZNSt8__detail21_Hashtable_ebo_helperILi0ENS_10_Select1stELb1EEC1Ev>
  4054d6:	48 8b 45 f8          	mov    -0x8(%rbp),%rax
  4054da:	48 89 c7             	mov    %rax,%rdi
  4054dd:	e8 98 ff ff ff       	callq  40547a <_ZNSt8__detail21_Hashtable_ebo_helperILi1EN10tensorflow10OutputHashELb1EEC1Ev>
  4054e2:	48 8b 45 f8          	mov    -0x8(%rbp),%rax
  4054e6:	48 89 c7             	mov    %rax,%rdi
  4054e9:	e8 b4 ff ff ff       	callq  4054a2 <_ZNSt8__detail21_Hashtable_ebo_helperILi2ENS_18_Mod_range_hashingELb1EEC1Ev>
  4054ee:	90                   	nop
  4054ef:	c9                   	leaveq 
  4054f0:	c3                   	retq   
  4054f1:	90                   	nop

00000000004054f2 <_ZNSt15binary_functionIN10tensorflow6OutputES1_bEC1Ev>:
  4054f2:	55                   	push   %rbp
  4054f3:	48 89 e5             	mov    %rsp,%rbp
  4054f6:	48 89 7d f8          	mov    %rdi,-0x8(%rbp)
  4054fa:	90                   	nop
  4054fb:	5d                   	pop    %rbp
  4054fc:	c3                   	retq   
  4054fd:	90                   	nop

00000000004054fe <_ZNSt8equal_toIN10tensorflow6OutputEEC1Ev>:
  4054fe:	55                   	push   %rbp
  4054ff:	48 89 e5             	mov    %rsp,%rbp
  405502:	48 83 ec 10          	sub    $0x10,%rsp
  405506:	48 89 7d f8          	mov    %rdi,-0x8(%rbp)
  40550a:	48 8b 45 f8          	mov    -0x8(%rbp),%rax
  40550e:	48 89 c7             	mov    %rax,%rdi
  405511:	e8 dc ff ff ff       	callq  4054f2 <_ZNSt15binary_functionIN10tensorflow6OutputES1_bEC1Ev>
  405516:	90                   	nop
  405517:	c9                   	leaveq 
  405518:	c3                   	retq   
  405519:	90                   	nop

000000000040551a <_ZNSt8__detail21_Hashtable_ebo_helperILi0ESt8equal_toIN10tensorflow6OutputEELb1EEC1Ev>:
  40551a:	55                   	push   %rbp
  40551b:	48 89 e5             	mov    %rsp,%rbp
  40551e:	48 83 ec 10          	sub    $0x10,%rsp
  405522:	48 89 7d f8          	mov    %rdi,-0x8(%rbp)
  405526:	48 8b 45 f8          	mov    -0x8(%rbp),%rax
  40552a:	48 89 c7             	mov    %rax,%rdi
  40552d:	e8 cc ff ff ff       	callq  4054fe <_ZNSt8equal_toIN10tensorflow6OutputEEC1Ev>
  405532:	90                   	nop
  405533:	c9                   	leaveq 
  405534:	c3                   	retq   
  405535:	90                   	nop

0000000000405536 <_ZNSt8__detail15_Hashtable_baseIN10tensorflow6OutputESt4pairIKS2_NS1_5Input11InitializerEENS_10_Select1stESt8equal_toIS2_ENS1_10OutputHashENS_18_Mod_range_hashingENS_20_Default_ranged_hashENS_17_Hashtable_traitsILb1ELb0ELb1EEEEC1Ev>:
  405536:	55                   	push   %rbp
  405537:	48 89 e5             	mov    %rsp,%rbp
  40553a:	48 83 ec 10          	sub    $0x10,%rsp
  40553e:	48 89 7d f8          	mov    %rdi,-0x8(%rbp)
  405542:	48 8b 45 f8          	mov    -0x8(%rbp),%rax
  405546:	48 89 c7             	mov    %rax,%rdi
  405549:	e8 70 ff ff ff       	callq  4054be <_ZNSt8__detail15_Hash_code_baseIN10tensorflow6OutputESt4pairIKS2_NS1_5Input11InitializerEENS_10_Select1stENS1_10OutputHashENS_18_Mod_range_hashingENS_20_Default_ranged_hashELb1EEC1Ev>
  40554e:	48 8b 45 f8          	mov    -0x8(%rbp),%rax
  405552:	48 89 c7             	mov    %rax,%rdi
  405555:	e8 c0 ff ff ff       	callq  40551a <_ZNSt8__detail21_Hashtable_ebo_helperILi0ESt8equal_toIN10tensorflow6OutputEELb1EEC1Ev>
  40555a:	90                   	nop
  40555b:	c9                   	leaveq 
  40555c:	c3                   	retq   
  40555d:	90                   	nop

000000000040555e <_ZNSt8__detail9_Map_baseIN10tensorflow6OutputESt4pairIKS2_NS1_5Input11InitializerEESaIS7_ENS_10_Select1stESt8equal_toIS2_ENS1_10OutputHashENS_18_Mod_range_hashingENS_20_Default_ranged_hashENS_20_Prime_rehash_policyENS_17_Hashtable_traitsILb1ELb0ELb1EEELb1EEC1Ev>:
  40555e:	55                   	push   %rbp
  40555f:	48 89 e5             	mov    %rsp,%rbp
  405562:	48 89 7d f8          	mov    %rdi,-0x8(%rbp)
  405566:	90                   	nop
  405567:	5d                   	pop    %rbp
  405568:	c3                   	retq   
  405569:	90                   	nop

000000000040556a <_ZNSt8__detail12_Insert_baseIN10tensorflow6OutputESt4pairIKS2_NS1_5Input11InitializerEESaIS7_ENS_10_Select1stESt8equal_toIS2_ENS1_10OutputHashENS_18_Mod_range_hashingENS_20_Default_ranged_hashENS_20_Prime_rehash_policyENS_17_Hashtable_traitsILb1ELb0ELb1EEEEC1Ev>:
  40556a:	55                   	push   %rbp
  40556b:	48 89 e5             	mov    %rsp,%rbp
  40556e:	48 89 7d f8          	mov    %rdi,-0x8(%rbp)
  405572:	90                   	nop
  405573:	5d                   	pop    %rbp
  405574:	c3                   	retq   
  405575:	90                   	nop

0000000000405576 <_ZNSt8__detail7_InsertIN10tensorflow6OutputESt4pairIKS2_NS1_5Input11InitializerEESaIS7_ENS_10_Select1stESt8equal_toIS2_ENS1_10OutputHashENS_18_Mod_range_hashingENS_20_Default_ranged_hashENS_20_Prime_rehash_policyENS_17_Hashtable_traitsILb1ELb0ELb1EEELb0ELb1EEC1Ev>:
  405576:	55                   	push   %rbp
  405577:	48 89 e5             	mov    %rsp,%rbp
  40557a:	48 83 ec 10          	sub    $0x10,%rsp
  40557e:	48 89 7d f8          	mov    %rdi,-0x8(%rbp)
  405582:	48 8b 45 f8          	mov    -0x8(%rbp),%rax
  405586:	48 89 c7             	mov    %rax,%rdi
  405589:	e8 dc ff ff ff       	callq  40556a <_ZNSt8__detail12_Insert_baseIN10tensorflow6OutputESt4pairIKS2_NS1_5Input11InitializerEESaIS7_ENS_10_Select1stESt8equal_toIS2_ENS1_10OutputHashENS_18_Mod_range_hashingENS_20_Default_ranged_hashENS_20_Prime_rehash_policyENS_17_Hashtable_traitsILb1ELb0ELb1EEEEC1Ev>
  40558e:	90                   	nop
  40558f:	c9                   	leaveq 
  405590:	c3                   	retq   
  405591:	90                   	nop

0000000000405592 <_ZNSt8__detail12_Rehash_baseIN10tensorflow6OutputESt4pairIKS2_NS1_5Input11InitializerEESaIS7_ENS_10_Select1stESt8equal_toIS2_ENS1_10OutputHashENS_18_Mod_range_hashingENS_20_Default_ranged_hashENS_20_Prime_rehash_policyENS_17_Hashtable_traitsILb1ELb0ELb1EEEEC1Ev>:
  405592:	55                   	push   %rbp
  405593:	48 89 e5             	mov    %rsp,%rbp
  405596:	48 89 7d f8          	mov    %rdi,-0x8(%rbp)
  40559a:	90                   	nop
  40559b:	5d                   	pop    %rbp
  40559c:	c3                   	retq   
  40559d:	90                   	nop

000000000040559e <_ZNSt8__detail9_EqualityIN10tensorflow6OutputESt4pairIKS2_NS1_5Input11InitializerEESaIS7_ENS_10_Select1stESt8equal_toIS2_ENS1_10OutputHashENS_18_Mod_range_hashingENS_20_Default_ranged_hashENS_20_Prime_rehash_policyENS_17_Hashtable_traitsILb1ELb0ELb1EEELb1EEC1Ev>:
  40559e:	55                   	push   %rbp
  40559f:	48 89 e5             	mov    %rsp,%rbp
  4055a2:	48 89 7d f8          	mov    %rdi,-0x8(%rbp)
  4055a6:	90                   	nop
  4055a7:	5d                   	pop    %rbp
  4055a8:	c3                   	retq   
  4055a9:	90                   	nop

00000000004055aa <_ZNSt8__detail21_Hashtable_ebo_helperILi0ESaINS_10_Hash_nodeISt4pairIKN10tensorflow6OutputENS3_5Input11InitializerEELb1EEEELb1EEC1Ev>:
  4055aa:	55                   	push   %rbp
  4055ab:	48 89 e5             	mov    %rsp,%rbp
  4055ae:	48 83 ec 10          	sub    $0x10,%rsp
  4055b2:	48 89 7d f8          	mov    %rdi,-0x8(%rbp)
  4055b6:	48 8b 45 f8          	mov    -0x8(%rbp),%rax
  4055ba:	48 89 c7             	mov    %rax,%rdi
  4055bd:	e8 92 0c 00 00       	callq  406254 <_ZNSaINSt8__detail10_Hash_nodeISt4pairIKN10tensorflow6OutputENS2_5Input11InitializerEELb1EEEEC1Ev>
  4055c2:	90                   	nop
  4055c3:	c9                   	leaveq 
  4055c4:	c3                   	retq   
  4055c5:	90                   	nop

00000000004055c6 <_ZNSt8__detail21_Hashtable_ebo_helperILi0ESaINS_10_Hash_nodeISt4pairIKN10tensorflow6OutputENS3_5Input11InitializerEELb1EEEELb1EED1Ev>:
  4055c6:	55                   	push   %rbp
  4055c7:	48 89 e5             	mov    %rsp,%rbp
  4055ca:	48 83 ec 10          	sub    $0x10,%rsp
  4055ce:	48 89 7d f8          	mov    %rdi,-0x8(%rbp)
  4055d2:	48 8b 45 f8          	mov    -0x8(%rbp),%rax
  4055d6:	48 89 c7             	mov    %rax,%rdi
  4055d9:	e8 92 0c 00 00       	callq  406270 <_ZNSaINSt8__detail10_Hash_nodeISt4pairIKN10tensorflow6OutputENS2_5Input11InitializerEELb1EEEED1Ev>
  4055de:	90                   	nop
  4055df:	c9                   	leaveq 
  4055e0:	c3                   	retq   
  4055e1:	90                   	nop

00000000004055e2 <_ZNSt8__detail16_Hashtable_allocISaINS_10_Hash_nodeISt4pairIKN10tensorflow6OutputENS3_5Input11InitializerEELb1EEEEEC1Ev>:
  4055e2:	55                   	push   %rbp
  4055e3:	48 89 e5             	mov    %rsp,%rbp
  4055e6:	48 83 ec 10          	sub    $0x10,%rsp
  4055ea:	48 89 7d f8          	mov    %rdi,-0x8(%rbp)
  4055ee:	48 8b 45 f8          	mov    -0x8(%rbp),%rax
  4055f2:	48 89 c7             	mov    %rax,%rdi
  4055f5:	e8 b0 ff ff ff       	callq  4055aa <_ZNSt8__detail21_Hashtable_ebo_helperILi0ESaINS_10_Hash_nodeISt4pairIKN10tensorflow6OutputENS3_5Input11InitializerEELb1EEEELb1EEC1Ev>
  4055fa:	90                   	nop
  4055fb:	c9                   	leaveq 
  4055fc:	c3                   	retq   
  4055fd:	90                   	nop

00000000004055fe <_ZNSt8__detail16_Hashtable_allocISaINS_10_Hash_nodeISt4pairIKN10tensorflow6OutputENS3_5Input11InitializerEELb1EEEEED1Ev>:
  4055fe:	55                   	push   %rbp
  4055ff:	48 89 e5             	mov    %rsp,%rbp
  405602:	48 83 ec 10          	sub    $0x10,%rsp
  405606:	48 89 7d f8          	mov    %rdi,-0x8(%rbp)
  40560a:	48 8b 45 f8          	mov    -0x8(%rbp),%rax
  40560e:	48 89 c7             	mov    %rax,%rdi
  405611:	e8 b0 ff ff ff       	callq  4055c6 <_ZNSt8__detail21_Hashtable_ebo_helperILi0ESaINS_10_Hash_nodeISt4pairIKN10tensorflow6OutputENS3_5Input11InitializerEELb1EEEELb1EED1Ev>
  405616:	90                   	nop
  405617:	c9                   	leaveq 
  405618:	c3                   	retq   
  405619:	90                   	nop

000000000040561a <_ZNSt10_HashtableIN10tensorflow6OutputESt4pairIKS1_NS0_5Input11InitializerEESaIS6_ENSt8__detail10_Select1stESt8equal_toIS1_ENS0_10OutputHashENS8_18_Mod_range_hashingENS8_20_Default_ranged_hashENS8_20_Prime_rehash_policyENS8_17_Hashtable_traitsILb1ELb0ELb1EEEEC1Ev>:
  40561a:	55                   	push   %rbp
  40561b:	48 89 e5             	mov    %rsp,%rbp
  40561e:	48 83 ec 10          	sub    $0x10,%rsp
  405622:	48 89 7d f8          	mov    %rdi,-0x8(%rbp)
  405626:	48 8b 45 f8          	mov    -0x8(%rbp),%rax
  40562a:	48 89 c7             	mov    %rax,%rdi
  40562d:	e8 04 ff ff ff       	callq  405536 <_ZNSt8__detail15_Hashtable_baseIN10tensorflow6OutputESt4pairIKS2_NS1_5Input11InitializerEENS_10_Select1stESt8equal_toIS2_ENS1_10OutputHashENS_18_Mod_range_hashingENS_20_Default_ranged_hashENS_17_Hashtable_traitsILb1ELb0ELb1EEEEC1Ev>
  405632:	48 8b 45 f8          	mov    -0x8(%rbp),%rax
  405636:	48 89 c7             	mov    %rax,%rdi
  405639:	e8 20 ff ff ff       	callq  40555e <_ZNSt8__detail9_Map_baseIN10tensorflow6OutputESt4pairIKS2_NS1_5Input11InitializerEESaIS7_ENS_10_Select1stESt8equal_toIS2_ENS1_10OutputHashENS_18_Mod_range_hashingENS_20_Default_ranged_hashENS_20_Prime_rehash_policyENS_17_Hashtable_traitsILb1ELb0ELb1EEELb1EEC1Ev>
  40563e:	48 8b 45 f8          	mov    -0x8(%rbp),%rax
  405642:	48 89 c7             	mov    %rax,%rdi
  405645:	e8 2c ff ff ff       	callq  405576 <_ZNSt8__detail7_InsertIN10tensorflow6OutputESt4pairIKS2_NS1_5Input11InitializerEESaIS7_ENS_10_Select1stESt8equal_toIS2_ENS1_10OutputHashENS_18_Mod_range_hashingENS_20_Default_ranged_hashENS_20_Prime_rehash_policyENS_17_Hashtable_traitsILb1ELb0ELb1EEELb0ELb1EEC1Ev>
  40564a:	48 8b 45 f8          	mov    -0x8(%rbp),%rax
  40564e:	48 89 c7             	mov    %rax,%rdi
  405651:	e8 3c ff ff ff       	callq  405592 <_ZNSt8__detail12_Rehash_baseIN10tensorflow6OutputESt4pairIKS2_NS1_5Input11InitializerEESaIS7_ENS_10_Select1stESt8equal_toIS2_ENS1_10OutputHashENS_18_Mod_range_hashingENS_20_Default_ranged_hashENS_20_Prime_rehash_policyENS_17_Hashtable_traitsILb1ELb0ELb1EEEEC1Ev>
  405656:	48 8b 45 f8          	mov    -0x8(%rbp),%rax
  40565a:	48 89 c7             	mov    %rax,%rdi
  40565d:	e8 3c ff ff ff       	callq  40559e <_ZNSt8__detail9_EqualityIN10tensorflow6OutputESt4pairIKS2_NS1_5Input11InitializerEESaIS7_ENS_10_Select1stESt8equal_toIS2_ENS1_10OutputHashENS_18_Mod_range_hashingENS_20_Default_ranged_hashENS_20_Prime_rehash_policyENS_17_Hashtable_traitsILb1ELb0ELb1EEELb1EEC1Ev>
  405662:	48 8b 45 f8          	mov    -0x8(%rbp),%rax
  405666:	48 89 c7             	mov    %rax,%rdi
  405669:	e8 74 ff ff ff       	callq  4055e2 <_ZNSt8__detail16_Hashtable_allocISaINS_10_Hash_nodeISt4pairIKN10tensorflow6OutputENS3_5Input11InitializerEELb1EEEEEC1Ev>
  40566e:	48 8b 45 f8          	mov    -0x8(%rbp),%rax
  405672:	48 8d 50 30          	lea    0x30(%rax),%rdx
  405676:	48 8b 45 f8          	mov    -0x8(%rbp),%rax
  40567a:	48 89 10             	mov    %rdx,(%rax)
  40567d:	48 8b 45 f8          	mov    -0x8(%rbp),%rax
  405681:	48 c7 40 08 01 00 00 	movq   $0x1,0x8(%rax)
  405688:	00 
  405689:	48 8b 45 f8          	mov    -0x8(%rbp),%rax
  40568d:	48 83 c0 10          	add    $0x10,%rax
  405691:	48 89 c7             	mov    %rax,%rdi
  405694:	e8 dd e8 ff ff       	callq  403f76 <_ZNSt8__detail15_Hash_node_baseC1Ev>
  405699:	48 8b 45 f8          	mov    -0x8(%rbp),%rax
  40569d:	48 c7 40 18 00 00 00 	movq   $0x0,0x18(%rax)
  4056a4:	00 
  4056a5:	48 8b 45 f8          	mov    -0x8(%rbp),%rax
  4056a9:	48 83 c0 20          	add    $0x20,%rax
  4056ad:	f3 0f 10 05 db 3d 00 	movss  0x3ddb(%rip),%xmm0        # 409490 <_ZZN2CK2TF16process_metadataERKN10tensorflow11RunMetadataEPKcE19__PRETTY_FUNCTION__+0x50>
  4056b4:	00 
  4056b5:	48 89 c7             	mov    %rax,%rdi
  4056b8:	e8 cf e8 ff ff       	callq  403f8c <_ZNSt8__detail20_Prime_rehash_policyC1Ef>
  4056bd:	48 8b 45 f8          	mov    -0x8(%rbp),%rax
  4056c1:	48 c7 40 30 00 00 00 	movq   $0x0,0x30(%rax)
  4056c8:	00 
  4056c9:	90                   	nop
  4056ca:	c9                   	leaveq 
  4056cb:	c3                   	retq   

00000000004056cc <_ZNSt13unordered_mapIN10tensorflow6OutputENS0_5Input11InitializerENS0_10OutputHashESt8equal_toIS1_ESaISt4pairIKS1_S3_EEEC1Ev>:
  4056cc:	55                   	push   %rbp
  4056cd:	48 89 e5             	mov    %rsp,%rbp
  4056d0:	48 83 ec 10          	sub    $0x10,%rsp
  4056d4:	48 89 7d f8          	mov    %rdi,-0x8(%rbp)
  4056d8:	48 8b 45 f8          	mov    -0x8(%rbp),%rax
  4056dc:	48 89 c7             	mov    %rax,%rdi
  4056df:	e8 36 ff ff ff       	callq  40561a <_ZNSt10_HashtableIN10tensorflow6OutputESt4pairIKS1_NS0_5Input11InitializerEESaIS6_ENSt8__detail10_Select1stESt8equal_toIS1_ENS0_10OutputHashENS8_18_Mod_range_hashingENS8_20_Default_ranged_hashENS8_20_Prime_rehash_policyENS8_17_Hashtable_traitsILb1ELb0ELb1EEEEC1Ev>
  4056e4:	90                   	nop
  4056e5:	c9                   	leaveq 
  4056e6:	c3                   	retq   
  4056e7:	90                   	nop

00000000004056e8 <_ZNSt13unordered_mapIN10tensorflow6OutputENS0_5Input11InitializerENS0_10OutputHashESt8equal_toIS1_ESaISt4pairIKS1_S3_EEED1Ev>:
  4056e8:	55                   	push   %rbp
  4056e9:	48 89 e5             	mov    %rsp,%rbp
  4056ec:	48 83 ec 10          	sub    $0x10,%rsp
  4056f0:	48 89 7d f8          	mov    %rdi,-0x8(%rbp)
  4056f4:	48 8b 45 f8          	mov    -0x8(%rbp),%rax
  4056f8:	48 89 c7             	mov    %rax,%rdi
  4056fb:	e8 8c 0b 00 00       	callq  40628c <_ZNSt10_HashtableIN10tensorflow6OutputESt4pairIKS1_NS0_5Input11InitializerEESaIS6_ENSt8__detail10_Select1stESt8equal_toIS1_ENS0_10OutputHashENS8_18_Mod_range_hashingENS8_20_Default_ranged_hashENS8_20_Prime_rehash_policyENS8_17_Hashtable_traitsILb1ELb0ELb1EEEED1Ev>
  405700:	90                   	nop
  405701:	c9                   	leaveq 
  405702:	c3                   	retq   
  405703:	90                   	nop

0000000000405704 <_ZN5Eigen8Symbolic8BaseExprINS0_10SymbolExprINS_12placeholders8internal17symbolic_last_tagEEEEC1Ev>:
  405704:	55                   	push   %rbp
  405705:	48 89 e5             	mov    %rsp,%rbp
  405708:	48 89 7d f8          	mov    %rdi,-0x8(%rbp)
  40570c:	90                   	nop
  40570d:	5d                   	pop    %rbp
  40570e:	c3                   	retq   
  40570f:	90                   	nop

0000000000405710 <_ZN5Eigen8Symbolic10SymbolExprINS_12placeholders8internal17symbolic_last_tagEEC1Ev>:
  405710:	55                   	push   %rbp
  405711:	48 89 e5             	mov    %rsp,%rbp
  405714:	48 83 ec 10          	sub    $0x10,%rsp
  405718:	48 89 7d f8          	mov    %rdi,-0x8(%rbp)
  40571c:	48 8b 45 f8          	mov    -0x8(%rbp),%rax
  405720:	48 89 c7             	mov    %rax,%rdi
  405723:	e8 dc ff ff ff       	callq  405704 <_ZN5Eigen8Symbolic8BaseExprINS0_10SymbolExprINS_12placeholders8internal17symbolic_last_tagEEEEC1Ev>
  405728:	90                   	nop
  405729:	c9                   	leaveq 
  40572a:	c3                   	retq   

000000000040572b <_ZN5Eigen3fixILi1EEENS_8internal8FixedIntIXT_EEEv>:
  40572b:	55                   	push   %rbp
  40572c:	48 89 e5             	mov    %rsp,%rbp
  40572f:	53                   	push   %rbx
  405730:	48 83 ec 18          	sub    $0x18,%rsp
  405734:	64 48 8b 04 25 28 00 	mov    %fs:0x28,%rax
  40573b:	00 00 
  40573d:	48 89 45 e8          	mov    %rax,-0x18(%rbp)
  405741:	31 c0                	xor    %eax,%eax
  405743:	48 8d 45 e7          	lea    -0x19(%rbp),%rax
  405747:	48 89 c7             	mov    %rax,%rdi
  40574a:	e8 09 0e 00 00       	callq  406558 <_ZN5Eigen8internal8FixedIntILi1EEC1Ev>
  40574f:	89 d8                	mov    %ebx,%eax
  405751:	48 8b 55 e8          	mov    -0x18(%rbp),%rdx
  405755:	64 48 33 14 25 28 00 	xor    %fs:0x28,%rdx
  40575c:	00 00 
  40575e:	74 05                	je     405765 <_ZN5Eigen3fixILi1EEENS_8internal8FixedIntIXT_EEEv+0x3a>
  405760:	e8 fb d5 ff ff       	callq  402d60 <__stack_chk_fail@plt>
  405765:	48 83 c4 18          	add    $0x18,%rsp
  405769:	5b                   	pop    %rbx
  40576a:	5d                   	pop    %rbp
  40576b:	c3                   	retq   

000000000040576c <_ZNK5Eigen8Symbolic8BaseExprINS0_10SymbolExprINS_12placeholders8internal17symbolic_last_tagEEEEplILi1EEENS0_7AddExprIS6_NS0_9ValueExprINS_8internal8FixedIntIXT_EEEEEEESD_>:
  40576c:	55                   	push   %rbp
  40576d:	48 89 e5             	mov    %rsp,%rbp
  405770:	53                   	push   %rbx
  405771:	48 83 ec 28          	sub    $0x28,%rsp
  405775:	48 89 7d d8          	mov    %rdi,-0x28(%rbp)
  405779:	64 48 8b 04 25 28 00 	mov    %fs:0x28,%rax
  405780:	00 00 
  405782:	48 89 45 e8          	mov    %rax,-0x18(%rbp)
  405786:	31 c0                	xor    %eax,%eax
  405788:	48 8d 45 e5          	lea    -0x1b(%rbp),%rax
  40578c:	48 89 c7             	mov    %rax,%rdi
  40578f:	e8 de 0d 00 00       	callq  406572 <_ZN5Eigen8Symbolic9ValueExprINS_8internal8FixedIntILi1EEEEC1Ev>
  405794:	48 8b 45 d8          	mov    -0x28(%rbp),%rax
  405798:	48 89 c7             	mov    %rax,%rdi
  40579b:	e8 c4 0d 00 00       	callq  406564 <_ZNK5Eigen8Symbolic8BaseExprINS0_10SymbolExprINS_12placeholders8internal17symbolic_last_tagEEEE7derivedEv>
  4057a0:	48 89 c1             	mov    %rax,%rcx
  4057a3:	48 8d 55 e5          	lea    -0x1b(%rbp),%rdx
  4057a7:	48 8d 45 e6          	lea    -0x1a(%rbp),%rax
  4057ab:	48 89 ce             	mov    %rcx,%rsi
  4057ae:	48 89 c7             	mov    %rax,%rdi
  4057b1:	e8 d4 0d 00 00       	callq  40658a <_ZN5Eigen8Symbolic7AddExprINS0_10SymbolExprINS_12placeholders8internal17symbolic_last_tagEEENS0_9ValueExprINS_8internal8FixedIntILi1EEEEEEC1ERKS6_RKSB_>
  4057b6:	89 d8                	mov    %ebx,%eax
  4057b8:	48 8b 75 e8          	mov    -0x18(%rbp),%rsi
  4057bc:	64 48 33 34 25 28 00 	xor    %fs:0x28,%rsi
  4057c3:	00 00 
  4057c5:	74 05                	je     4057cc <_ZNK5Eigen8Symbolic8BaseExprINS0_10SymbolExprINS_12placeholders8internal17symbolic_last_tagEEEEplILi1EEENS0_7AddExprIS6_NS0_9ValueExprINS_8internal8FixedIntIXT_EEEEEEESD_+0x60>
  4057c7:	e8 94 d5 ff ff       	callq  402d60 <__stack_chk_fail@plt>
  4057cc:	48 83 c4 28          	add    $0x28,%rsp
  4057d0:	5b                   	pop    %rbx
  4057d1:	5d                   	pop    %rbp
  4057d2:	c3                   	retq   

00000000004057d3 <_ZN10tensorflow8internal12Check_EQImplImmEEPNSt7__cxx1112basic_stringIcSt11char_traitsIcESaIcEEERKT_RKT0_PKc>:
  4057d3:	55                   	push   %rbp
  4057d4:	48 89 e5             	mov    %rsp,%rbp
  4057d7:	48 83 ec 20          	sub    $0x20,%rsp
  4057db:	48 89 7d f8          	mov    %rdi,-0x8(%rbp)
  4057df:	48 89 75 f0          	mov    %rsi,-0x10(%rbp)
  4057e3:	48 89 55 e8          	mov    %rdx,-0x18(%rbp)
  4057e7:	48 8b 45 f8          	mov    -0x8(%rbp),%rax
  4057eb:	48 8b 10             	mov    (%rax),%rdx
  4057ee:	48 8b 45 f0          	mov    -0x10(%rbp),%rax
  4057f2:	48 8b 00             	mov    (%rax),%rax
  4057f5:	48 39 c2             	cmp    %rax,%rdx
  4057f8:	75 07                	jne    405801 <_ZN10tensorflow8internal12Check_EQImplImmEEPNSt7__cxx1112basic_stringIcSt11char_traitsIcESaIcEEERKT_RKT0_PKc+0x2e>
  4057fa:	b8 00 00 00 00       	mov    $0x0,%eax
  4057ff:	eb 17                	jmp    405818 <_ZN10tensorflow8internal12Check_EQImplImmEEPNSt7__cxx1112basic_stringIcSt11char_traitsIcESaIcEEERKT_RKT0_PKc+0x45>
  405801:	48 8b 55 e8          	mov    -0x18(%rbp),%rdx
  405805:	48 8b 4d f0          	mov    -0x10(%rbp),%rcx
  405809:	48 8b 45 f8          	mov    -0x8(%rbp),%rax
  40580d:	48 89 ce             	mov    %rcx,%rsi
  405810:	48 89 c7             	mov    %rax,%rdi
  405813:	e8 e5 0d 00 00       	callq  4065fd <_ZN10tensorflow8internal17MakeCheckOpStringImmEEPNSt7__cxx1112basic_stringIcSt11char_traitsIcESaIcEEERKT_RKT0_PKc>
  405818:	c9                   	leaveq 
  405819:	c3                   	retq   

000000000040581a <_ZNSt10_Head_baseILm0EPN10tensorflow6Status5StateELb0EE7_M_headERS4_>:
  40581a:	55                   	push   %rbp
  40581b:	48 89 e5             	mov    %rsp,%rbp
  40581e:	48 89 7d f8          	mov    %rdi,-0x8(%rbp)
  405822:	48 8b 45 f8          	mov    -0x8(%rbp),%rax
  405826:	5d                   	pop    %rbp
  405827:	c3                   	retq   

0000000000405828 <_ZNSt11_Tuple_implILm0EJPN10tensorflow6Status5StateESt14default_deleteIS2_EEE7_M_headERS6_>:
  405828:	55                   	push   %rbp
  405829:	48 89 e5             	mov    %rsp,%rbp
  40582c:	48 83 ec 10          	sub    $0x10,%rsp
  405830:	48 89 7d f8          	mov    %rdi,-0x8(%rbp)
  405834:	48 8b 45 f8          	mov    -0x8(%rbp),%rax
  405838:	48 89 c7             	mov    %rax,%rdi
  40583b:	e8 da ff ff ff       	callq  40581a <_ZNSt10_Head_baseILm0EPN10tensorflow6Status5StateELb0EE7_M_headERS4_>
  405840:	c9                   	leaveq 
  405841:	c3                   	retq   

0000000000405842 <_ZSt12__get_helperILm0EPN10tensorflow6Status5StateEJSt14default_deleteIS2_EEERT0_RSt11_Tuple_implIXT_EJS6_DpT1_EE>:
  405842:	55                   	push   %rbp
  405843:	48 89 e5             	mov    %rsp,%rbp
  405846:	48 83 ec 10          	sub    $0x10,%rsp
  40584a:	48 89 7d f8          	mov    %rdi,-0x8(%rbp)
  40584e:	48 8b 45 f8          	mov    -0x8(%rbp),%rax
  405852:	48 89 c7             	mov    %rax,%rdi
  405855:	e8 ce ff ff ff       	callq  405828 <_ZNSt11_Tuple_implILm0EJPN10tensorflow6Status5StateESt14default_deleteIS2_EEE7_M_headERS6_>
  40585a:	c9                   	leaveq 
  40585b:	c3                   	retq   

000000000040585c <_ZSt3getILm0EJPN10tensorflow6Status5StateESt14default_deleteIS2_EEERNSt13tuple_elementIXT_ESt5tupleIJDpT0_EEE4typeERSA_>:
  40585c:	55                   	push   %rbp
  40585d:	48 89 e5             	mov    %rsp,%rbp
  405860:	48 83 ec 10          	sub    $0x10,%rsp
  405864:	48 89 7d f8          	mov    %rdi,-0x8(%rbp)
  405868:	48 8b 45 f8          	mov    -0x8(%rbp),%rax
  40586c:	48 89 c7             	mov    %rax,%rdi
  40586f:	e8 ce ff ff ff       	callq  405842 <_ZSt12__get_helperILm0EPN10tensorflow6Status5StateEJSt14default_deleteIS2_EEERT0_RSt11_Tuple_implIXT_EJS6_DpT1_EE>
  405874:	c9                   	leaveq 
  405875:	c3                   	retq   

0000000000405876 <_ZNSt10unique_ptrIN10tensorflow6Status5StateESt14default_deleteIS2_EED1Ev>:
  405876:	55                   	push   %rbp
  405877:	48 89 e5             	mov    %rsp,%rbp
  40587a:	53                   	push   %rbx
  40587b:	48 83 ec 28          	sub    $0x28,%rsp
  40587f:	48 89 7d d8          	mov    %rdi,-0x28(%rbp)
  405883:	48 8b 45 d8          	mov    -0x28(%rbp),%rax
  405887:	48 89 c7             	mov    %rax,%rdi
  40588a:	e8 cd ff ff ff       	callq  40585c <_ZSt3getILm0EJPN10tensorflow6Status5StateESt14default_deleteIS2_EEERNSt13tuple_elementIXT_ESt5tupleIJDpT0_EEE4typeERSA_>
  40588f:	48 89 45 e8          	mov    %rax,-0x18(%rbp)
  405893:	48 8b 45 e8          	mov    -0x18(%rbp),%rax
  405897:	48 8b 00             	mov    (%rax),%rax
  40589a:	48 85 c0             	test   %rax,%rax
  40589d:	74 1e                	je     4058bd <_ZNSt10unique_ptrIN10tensorflow6Status5StateESt14default_deleteIS2_EED1Ev+0x47>
  40589f:	48 8b 45 e8          	mov    -0x18(%rbp),%rax
  4058a3:	48 8b 18             	mov    (%rax),%rbx
  4058a6:	48 8b 45 d8          	mov    -0x28(%rbp),%rax
  4058aa:	48 89 c7             	mov    %rax,%rdi
  4058ad:	e8 70 0e 00 00       	callq  406722 <_ZNSt10unique_ptrIN10tensorflow6Status5StateESt14default_deleteIS2_EE11get_deleterEv>
  4058b2:	48 89 de             	mov    %rbx,%rsi
  4058b5:	48 89 c7             	mov    %rax,%rdi
  4058b8:	e8 9f 0e 00 00       	callq  40675c <_ZNKSt14default_deleteIN10tensorflow6Status5StateEEclEPS2_>
  4058bd:	48 8b 45 e8          	mov    -0x18(%rbp),%rax
  4058c1:	48 c7 00 00 00 00 00 	movq   $0x0,(%rax)
  4058c8:	90                   	nop
  4058c9:	48 83 c4 28          	add    $0x28,%rsp
  4058cd:	5b                   	pop    %rbx
  4058ce:	5d                   	pop    %rbp
  4058cf:	c3                   	retq   

00000000004058d0 <_ZSteqIN10tensorflow6Status5StateESt14default_deleteIS2_EEbRKSt10unique_ptrIT_T0_EDn>:
  4058d0:	55                   	push   %rbp
  4058d1:	48 89 e5             	mov    %rsp,%rbp
  4058d4:	48 83 ec 10          	sub    $0x10,%rsp
  4058d8:	48 89 7d f8          	mov    %rdi,-0x8(%rbp)
  4058dc:	48 89 75 f0          	mov    %rsi,-0x10(%rbp)
  4058e0:	48 8b 45 f8          	mov    -0x8(%rbp),%rax
  4058e4:	48 89 c7             	mov    %rax,%rdi
  4058e7:	e8 a2 0e 00 00       	callq  40678e <_ZNKSt10unique_ptrIN10tensorflow6Status5StateESt14default_deleteIS2_EEcvbEv>
  4058ec:	83 f0 01             	xor    $0x1,%eax
  4058ef:	c9                   	leaveq 
  4058f0:	c3                   	retq   
  4058f1:	90                   	nop

00000000004058f2 <_ZNKSt10unique_ptrIN10tensorflow6Status5StateESt14default_deleteIS2_EEdeEv>:
  4058f2:	55                   	push   %rbp
  4058f3:	48 89 e5             	mov    %rsp,%rbp
  4058f6:	48 83 ec 10          	sub    $0x10,%rsp
  4058fa:	48 89 7d f8          	mov    %rdi,-0x8(%rbp)
  4058fe:	48 8b 45 f8          	mov    -0x8(%rbp),%rax
  405902:	48 89 c7             	mov    %rax,%rdi
  405905:	e8 94 00 00 00       	callq  40599e <_ZNKSt10unique_ptrIN10tensorflow6Status5StateESt14default_deleteIS2_EE3getEv>
  40590a:	c9                   	leaveq 
  40590b:	c3                   	retq   

000000000040590c <_ZNSt10unique_ptrIN10tensorflow6Status5StateESt14default_deleteIS2_EEC1EPS2_>:
  40590c:	55                   	push   %rbp
  40590d:	48 89 e5             	mov    %rsp,%rbp
  405910:	48 83 ec 10          	sub    $0x10,%rsp
  405914:	48 89 7d f8          	mov    %rdi,-0x8(%rbp)
  405918:	48 89 75 f0          	mov    %rsi,-0x10(%rbp)
  40591c:	48 8b 45 f8          	mov    -0x8(%rbp),%rax
  405920:	48 89 c7             	mov    %rax,%rdi
  405923:	e8 d8 e7 ff ff       	callq  404100 <_ZNSt5tupleIJPN10tensorflow6Status5StateESt14default_deleteIS2_EEEC1IS3_S5_Lb1EEEv>
  405928:	48 8b 45 f8          	mov    -0x8(%rbp),%rax
  40592c:	48 89 c7             	mov    %rax,%rdi
  40592f:	e8 28 ff ff ff       	callq  40585c <_ZSt3getILm0EJPN10tensorflow6Status5StateESt14default_deleteIS2_EEERNSt13tuple_elementIXT_ESt5tupleIJDpT0_EEE4typeERSA_>
  405934:	48 89 c2             	mov    %rax,%rdx
  405937:	48 8b 45 f0          	mov    -0x10(%rbp),%rax
  40593b:	48 89 02             	mov    %rax,(%rdx)
  40593e:	90                   	nop
  40593f:	c9                   	leaveq 
  405940:	c3                   	retq   

0000000000405941 <_ZNSt10_Head_baseILm0EPN10tensorflow6Status5StateELb0EE7_M_headERKS4_>:
  405941:	55                   	push   %rbp
  405942:	48 89 e5             	mov    %rsp,%rbp
  405945:	48 89 7d f8          	mov    %rdi,-0x8(%rbp)
  405949:	48 8b 45 f8          	mov    -0x8(%rbp),%rax
  40594d:	5d                   	pop    %rbp
  40594e:	c3                   	retq   

000000000040594f <_ZNSt11_Tuple_implILm0EJPN10tensorflow6Status5StateESt14default_deleteIS2_EEE7_M_headERKS6_>:
  40594f:	55                   	push   %rbp
  405950:	48 89 e5             	mov    %rsp,%rbp
  405953:	48 83 ec 10          	sub    $0x10,%rsp
  405957:	48 89 7d f8          	mov    %rdi,-0x8(%rbp)
  40595b:	48 8b 45 f8          	mov    -0x8(%rbp),%rax
  40595f:	48 89 c7             	mov    %rax,%rdi
  405962:	e8 da ff ff ff       	callq  405941 <_ZNSt10_Head_baseILm0EPN10tensorflow6Status5StateELb0EE7_M_headERKS4_>
  405967:	c9                   	leaveq 
  405968:	c3                   	retq   

0000000000405969 <_ZSt12__get_helperILm0EPN10tensorflow6Status5StateEJSt14default_deleteIS2_EEERKT0_RKSt11_Tuple_implIXT_EJS6_DpT1_EE>:
  405969:	55                   	push   %rbp
  40596a:	48 89 e5             	mov    %rsp,%rbp
  40596d:	48 83 ec 10          	sub    $0x10,%rsp
  405971:	48 89 7d f8          	mov    %rdi,-0x8(%rbp)
  405975:	48 8b 45 f8          	mov    -0x8(%rbp),%rax
  405979:	48 89 c7             	mov    %rax,%rdi
  40597c:	e8 ce ff ff ff       	callq  40594f <_ZNSt11_Tuple_implILm0EJPN10tensorflow6Status5StateESt14default_deleteIS2_EEE7_M_headERKS6_>
  405981:	c9                   	leaveq 
  405982:	c3                   	retq   

0000000000405983 <_ZSt3getILm0EJPN10tensorflow6Status5StateESt14default_deleteIS2_EEERKNSt13tuple_elementIXT_ESt5tupleIJDpT0_EEE4typeERKSA_>:
  405983:	55                   	push   %rbp
  405984:	48 89 e5             	mov    %rsp,%rbp
  405987:	48 83 ec 10          	sub    $0x10,%rsp
  40598b:	48 89 7d f8          	mov    %rdi,-0x8(%rbp)
  40598f:	48 8b 45 f8          	mov    -0x8(%rbp),%rax
  405993:	48 89 c7             	mov    %rax,%rdi
  405996:	e8 ce ff ff ff       	callq  405969 <_ZSt12__get_helperILm0EPN10tensorflow6Status5StateEJSt14default_deleteIS2_EEERKT0_RKSt11_Tuple_implIXT_EJS6_DpT1_EE>
  40599b:	c9                   	leaveq 
  40599c:	c3                   	retq   
  40599d:	90                   	nop

000000000040599e <_ZNKSt10unique_ptrIN10tensorflow6Status5StateESt14default_deleteIS2_EE3getEv>:
  40599e:	55                   	push   %rbp
  40599f:	48 89 e5             	mov    %rsp,%rbp
  4059a2:	48 83 ec 10          	sub    $0x10,%rsp
  4059a6:	48 89 7d f8          	mov    %rdi,-0x8(%rbp)
  4059aa:	48 8b 45 f8          	mov    -0x8(%rbp),%rax
  4059ae:	48 89 c7             	mov    %rax,%rdi
  4059b1:	e8 cd ff ff ff       	callq  405983 <_ZSt3getILm0EJPN10tensorflow6Status5StateESt14default_deleteIS2_EEERKNSt13tuple_elementIXT_ESt5tupleIJDpT0_EEE4typeERKSA_>
  4059b6:	48 8b 00             	mov    (%rax),%rax
  4059b9:	c9                   	leaveq 
  4059ba:	c3                   	retq   

00000000004059bb <_ZStlsIcSt11char_traitsIcENSt7__cxx1112basic_stringIcS1_SaIcEEEERSt13basic_ostreamIT_T0_EOS9_RKT1_>:
  4059bb:	55                   	push   %rbp
  4059bc:	48 89 e5             	mov    %rsp,%rbp
  4059bf:	48 83 ec 10          	sub    $0x10,%rsp
  4059c3:	48 89 7d f8          	mov    %rdi,-0x8(%rbp)
  4059c7:	48 89 75 f0          	mov    %rsi,-0x10(%rbp)
  4059cb:	48 8b 55 f0          	mov    -0x10(%rbp),%rdx
  4059cf:	48 8b 45 f8          	mov    -0x8(%rbp),%rax
  4059d3:	48 89 d6             	mov    %rdx,%rsi
  4059d6:	48 89 c7             	mov    %rax,%rdi
  4059d9:	e8 92 d4 ff ff       	callq  402e70 <_ZStlsIcSt11char_traitsIcESaIcEERSt13basic_ostreamIT_T0_ES7_RKNSt7__cxx1112basic_stringIS4_S5_T1_EE@plt>
  4059de:	48 8b 45 f8          	mov    -0x8(%rbp),%rax
  4059e2:	c9                   	leaveq 
  4059e3:	c3                   	retq   

00000000004059e4 <_ZN10tensorflow8internal12Check_EQImplIliEEPNSt7__cxx1112basic_stringIcSt11char_traitsIcESaIcEEERKT_RKT0_PKc>:
  4059e4:	55                   	push   %rbp
  4059e5:	48 89 e5             	mov    %rsp,%rbp
  4059e8:	48 83 ec 20          	sub    $0x20,%rsp
  4059ec:	48 89 7d f8          	mov    %rdi,-0x8(%rbp)
  4059f0:	48 89 75 f0          	mov    %rsi,-0x10(%rbp)
  4059f4:	48 89 55 e8          	mov    %rdx,-0x18(%rbp)
  4059f8:	48 8b 45 f8          	mov    -0x8(%rbp),%rax
  4059fc:	48 8b 10             	mov    (%rax),%rdx
  4059ff:	48 8b 45 f0          	mov    -0x10(%rbp),%rax
  405a03:	8b 00                	mov    (%rax),%eax
  405a05:	48 98                	cltq   
  405a07:	48 39 c2             	cmp    %rax,%rdx
  405a0a:	75 07                	jne    405a13 <_ZN10tensorflow8internal12Check_EQImplIliEEPNSt7__cxx1112basic_stringIcSt11char_traitsIcESaIcEEERKT_RKT0_PKc+0x2f>
  405a0c:	b8 00 00 00 00       	mov    $0x0,%eax
  405a11:	eb 17                	jmp    405a2a <_ZN10tensorflow8internal12Check_EQImplIliEEPNSt7__cxx1112basic_stringIcSt11char_traitsIcESaIcEEERKT_RKT0_PKc+0x46>
  405a13:	48 8b 55 e8          	mov    -0x18(%rbp),%rdx
  405a17:	48 8b 4d f0          	mov    -0x10(%rbp),%rcx
  405a1b:	48 8b 45 f8          	mov    -0x8(%rbp),%rax
  405a1f:	48 89 ce             	mov    %rcx,%rsi
  405a22:	48 89 c7             	mov    %rax,%rdi
  405a25:	e8 84 0d 00 00       	callq  4067ae <_ZN10tensorflow8internal17MakeCheckOpStringIliEEPNSt7__cxx1112basic_stringIcSt11char_traitsIcESaIcEEERKT_RKT0_PKc>
  405a2a:	c9                   	leaveq 
  405a2b:	c3                   	retq   

0000000000405a2c <_ZN10tensorflow8internal12Check_GEImplIliEEPNSt7__cxx1112basic_stringIcSt11char_traitsIcESaIcEEERKT_RKT0_PKc>:
  405a2c:	55                   	push   %rbp
  405a2d:	48 89 e5             	mov    %rsp,%rbp
  405a30:	48 83 ec 20          	sub    $0x20,%rsp
  405a34:	48 89 7d f8          	mov    %rdi,-0x8(%rbp)
  405a38:	48 89 75 f0          	mov    %rsi,-0x10(%rbp)
  405a3c:	48 89 55 e8          	mov    %rdx,-0x18(%rbp)
  405a40:	48 8b 45 f8          	mov    -0x8(%rbp),%rax
  405a44:	48 8b 10             	mov    (%rax),%rdx
  405a47:	48 8b 45 f0          	mov    -0x10(%rbp),%rax
  405a4b:	8b 00                	mov    (%rax),%eax
  405a4d:	48 98                	cltq   
  405a4f:	48 39 c2             	cmp    %rax,%rdx
  405a52:	7c 07                	jl     405a5b <_ZN10tensorflow8internal12Check_GEImplIliEEPNSt7__cxx1112basic_stringIcSt11char_traitsIcESaIcEEERKT_RKT0_PKc+0x2f>
  405a54:	b8 00 00 00 00       	mov    $0x0,%eax
  405a59:	eb 17                	jmp    405a72 <_ZN10tensorflow8internal12Check_GEImplIliEEPNSt7__cxx1112basic_stringIcSt11char_traitsIcESaIcEEERKT_RKT0_PKc+0x46>
  405a5b:	48 8b 55 e8          	mov    -0x18(%rbp),%rdx
  405a5f:	48 8b 4d f0          	mov    -0x10(%rbp),%rcx
  405a63:	48 8b 45 f8          	mov    -0x8(%rbp),%rax
  405a67:	48 89 ce             	mov    %rcx,%rsi
  405a6a:	48 89 c7             	mov    %rax,%rdi
  405a6d:	e8 3c 0d 00 00       	callq  4067ae <_ZN10tensorflow8internal17MakeCheckOpStringIliEEPNSt7__cxx1112basic_stringIcSt11char_traitsIcESaIcEEERKT_RKT0_PKc>
  405a72:	c9                   	leaveq 
  405a73:	c3                   	retq   

0000000000405a74 <_ZNSt6vectorISt4pairIPN10tensorflow4NodeEiESaIS4_EED1Ev>:
  405a74:	55                   	push   %rbp
  405a75:	48 89 e5             	mov    %rsp,%rbp
  405a78:	48 83 ec 10          	sub    $0x10,%rsp
  405a7c:	48 89 7d f8          	mov    %rdi,-0x8(%rbp)
  405a80:	48 8b 45 f8          	mov    -0x8(%rbp),%rax
  405a84:	48 89 c7             	mov    %rax,%rdi
  405a87:	e8 56 0e 00 00       	callq  4068e2 <_ZNSt12_Vector_baseISt4pairIPN10tensorflow4NodeEiESaIS4_EE19_M_get_Tp_allocatorEv>
  405a8c:	48 89 c2             	mov    %rax,%rdx
  405a8f:	48 8b 45 f8          	mov    -0x8(%rbp),%rax
  405a93:	48 8b 48 08          	mov    0x8(%rax),%rcx
  405a97:	48 8b 45 f8          	mov    -0x8(%rbp),%rax
  405a9b:	48 8b 00             	mov    (%rax),%rax
  405a9e:	48 89 ce             	mov    %rcx,%rsi
  405aa1:	48 89 c7             	mov    %rax,%rdi
  405aa4:	e8 47 0e 00 00       	callq  4068f0 <_ZSt8_DestroyIPSt4pairIPN10tensorflow4NodeEiES4_EvT_S6_RSaIT0_E>
  405aa9:	48 8b 45 f8          	mov    -0x8(%rbp),%rax
  405aad:	48 89 c7             	mov    %rax,%rdi
  405ab0:	e8 dd 0d 00 00       	callq  406892 <_ZNSt12_Vector_baseISt4pairIPN10tensorflow4NodeEiESaIS4_EED1Ev>
  405ab5:	90                   	nop
  405ab6:	c9                   	leaveq 
  405ab7:	c3                   	retq   

0000000000405ab8 <_ZNSt6vectorISt4pairIPN10tensorflow4NodeEiESaIS4_EEC1ERKS6_>:
  405ab8:	55                   	push   %rbp
  405ab9:	48 89 e5             	mov    %rsp,%rbp
  405abc:	41 55                	push   %r13
  405abe:	41 54                	push   %r12
  405ac0:	53                   	push   %rbx
  405ac1:	48 83 ec 28          	sub    $0x28,%rsp
  405ac5:	48 89 7d c8          	mov    %rdi,-0x38(%rbp)
  405ac9:	48 89 75 c0          	mov    %rsi,-0x40(%rbp)
  405acd:	64 48 8b 04 25 28 00 	mov    %fs:0x28,%rax
  405ad4:	00 00 
  405ad6:	48 89 45 d8          	mov    %rax,-0x28(%rbp)
  405ada:	31 c0                	xor    %eax,%eax
  405adc:	48 8b 45 c0          	mov    -0x40(%rbp),%rax
  405ae0:	48 89 c7             	mov    %rax,%rdi
  405ae3:	e8 a4 0e 00 00       	callq  40698c <_ZNKSt12_Vector_baseISt4pairIPN10tensorflow4NodeEiESaIS4_EE19_M_get_Tp_allocatorEv>
  405ae8:	48 89 c2             	mov    %rax,%rdx
  405aeb:	48 8d 45 d7          	lea    -0x29(%rbp),%rax
  405aef:	48 89 d6             	mov    %rdx,%rsi
  405af2:	48 89 c7             	mov    %rax,%rdi
  405af5:	e8 46 0e 00 00       	callq  406940 <_ZN9__gnu_cxx14__alloc_traitsISaISt4pairIPN10tensorflow4NodeEiEEE17_S_select_on_copyERKS6_>
  405afa:	48 8b 45 c0          	mov    -0x40(%rbp),%rax
  405afe:	48 89 c7             	mov    %rax,%rdi
  405b01:	e8 14 0e 00 00       	callq  40691a <_ZNKSt6vectorISt4pairIPN10tensorflow4NodeEiESaIS4_EE4sizeEv>
  405b06:	48 89 c1             	mov    %rax,%rcx
  405b09:	48 8b 45 c8          	mov    -0x38(%rbp),%rax
  405b0d:	48 8d 55 d7          	lea    -0x29(%rbp),%rdx
  405b11:	48 89 ce             	mov    %rcx,%rsi
  405b14:	48 89 c7             	mov    %rax,%rdi
  405b17:	e8 9a 0e 00 00       	callq  4069b6 <_ZNSt12_Vector_baseISt4pairIPN10tensorflow4NodeEiESaIS4_EEC1EmRKS5_>
  405b1c:	48 8d 45 d7          	lea    -0x29(%rbp),%rax
  405b20:	48 89 c7             	mov    %rax,%rdi
  405b23:	e8 72 0e 00 00       	callq  40699a <_ZNSaISt4pairIPN10tensorflow4NodeEiEED1Ev>
  405b28:	48 8b 45 c8          	mov    -0x38(%rbp),%rax
  405b2c:	48 89 c7             	mov    %rax,%rdi
  405b2f:	e8 ae 0d 00 00       	callq  4068e2 <_ZNSt12_Vector_baseISt4pairIPN10tensorflow4NodeEiESaIS4_EE19_M_get_Tp_allocatorEv>
  405b34:	49 89 c5             	mov    %rax,%r13
  405b37:	48 8b 45 c8          	mov    -0x38(%rbp),%rax
  405b3b:	48 8b 18             	mov    (%rax),%rbx
  405b3e:	48 8b 45 c0          	mov    -0x40(%rbp),%rax
  405b42:	48 89 c7             	mov    %rax,%rdi
  405b45:	e8 1e 0f 00 00       	callq  406a68 <_ZNKSt6vectorISt4pairIPN10tensorflow4NodeEiESaIS4_EE3endEv>
  405b4a:	49 89 c4             	mov    %rax,%r12
  405b4d:	48 8b 45 c0          	mov    -0x40(%rbp),%rax
  405b51:	48 89 c7             	mov    %rax,%rdi
  405b54:	e8 bb 0e 00 00       	callq  406a14 <_ZNKSt6vectorISt4pairIPN10tensorflow4NodeEiESaIS4_EE5beginEv>
  405b59:	4c 89 e9             	mov    %r13,%rcx
  405b5c:	48 89 da             	mov    %rbx,%rdx
  405b5f:	4c 89 e6             	mov    %r12,%rsi
  405b62:	48 89 c7             	mov    %rax,%rdi
  405b65:	e8 52 0f 00 00       	callq  406abc <_ZSt22__uninitialized_copy_aIN9__gnu_cxx17__normal_iteratorIPKSt4pairIPN10tensorflow4NodeEiESt6vectorIS6_SaIS6_EEEEPS6_S6_ET0_T_SF_SE_RSaIT1_E>
  405b6a:	48 89 c2             	mov    %rax,%rdx
  405b6d:	48 8b 45 c8          	mov    -0x38(%rbp),%rax
  405b71:	48 89 50 08          	mov    %rdx,0x8(%rax)
  405b75:	90                   	nop
  405b76:	48 8b 45 d8          	mov    -0x28(%rbp),%rax
  405b7a:	64 48 33 04 25 28 00 	xor    %fs:0x28,%rax
  405b81:	00 00 
  405b83:	74 3b                	je     405bc0 <_ZNSt6vectorISt4pairIPN10tensorflow4NodeEiESaIS4_EEC1ERKS6_+0x108>
  405b85:	eb 34                	jmp    405bbb <_ZNSt6vectorISt4pairIPN10tensorflow4NodeEiESaIS4_EEC1ERKS6_+0x103>
  405b87:	48 89 c3             	mov    %rax,%rbx
  405b8a:	48 8d 45 d7          	lea    -0x29(%rbp),%rax
  405b8e:	48 89 c7             	mov    %rax,%rdi
  405b91:	e8 04 0e 00 00       	callq  40699a <_ZNSaISt4pairIPN10tensorflow4NodeEiEED1Ev>
  405b96:	48 89 d8             	mov    %rbx,%rax
  405b99:	48 89 c7             	mov    %rax,%rdi
  405b9c:	e8 6f d4 ff ff       	callq  403010 <_Unwind_Resume@plt>
  405ba1:	48 89 c3             	mov    %rax,%rbx
  405ba4:	48 8b 45 c8          	mov    -0x38(%rbp),%rax
  405ba8:	48 89 c7             	mov    %rax,%rdi
  405bab:	e8 e2 0c 00 00       	callq  406892 <_ZNSt12_Vector_baseISt4pairIPN10tensorflow4NodeEiESaIS4_EED1Ev>
  405bb0:	48 89 d8             	mov    %rbx,%rax
  405bb3:	48 89 c7             	mov    %rax,%rdi
  405bb6:	e8 55 d4 ff ff       	callq  403010 <_Unwind_Resume@plt>
  405bbb:	e8 a0 d1 ff ff       	callq  402d60 <__stack_chk_fail@plt>
  405bc0:	48 83 c4 28          	add    $0x28,%rsp
  405bc4:	5b                   	pop    %rbx
  405bc5:	41 5c                	pop    %r12
  405bc7:	41 5d                	pop    %r13
  405bc9:	5d                   	pop    %rbp
  405bca:	c3                   	retq   
  405bcb:	90                   	nop

0000000000405bcc <_ZNK6google8protobuf16RepeatedPtrFieldIN10tensorflow13NodeExecStatsEE4sizeEv>:
  405bcc:	55                   	push   %rbp
  405bcd:	48 89 e5             	mov    %rsp,%rbp
  405bd0:	48 83 ec 10          	sub    $0x10,%rsp
  405bd4:	48 89 7d f8          	mov    %rdi,-0x8(%rbp)
  405bd8:	48 8b 45 f8          	mov    -0x8(%rbp),%rax
  405bdc:	48 89 c7             	mov    %rax,%rdi
  405bdf:	e8 e4 e3 ff ff       	callq  403fc8 <_ZNK6google8protobuf8internal20RepeatedPtrFieldBase4sizeEv>
  405be4:	c9                   	leaveq 
  405be5:	c3                   	retq   

0000000000405be6 <_ZNK6google8protobuf16RepeatedPtrFieldIN10tensorflow15DeviceStepStatsEE4sizeEv>:
  405be6:	55                   	push   %rbp
  405be7:	48 89 e5             	mov    %rsp,%rbp
  405bea:	48 83 ec 10          	sub    $0x10,%rsp
  405bee:	48 89 7d f8          	mov    %rdi,-0x8(%rbp)
  405bf2:	48 8b 45 f8          	mov    -0x8(%rbp),%rax
  405bf6:	48 89 c7             	mov    %rax,%rdi
  405bf9:	e8 ca e3 ff ff       	callq  403fc8 <_ZNK6google8protobuf8internal20RepeatedPtrFieldBase4sizeEv>
  405bfe:	c9                   	leaveq 
  405bff:	c3                   	retq   

0000000000405c00 <_ZNKSt16initializer_listIiE5beginEv>:
  405c00:	55                   	push   %rbp
  405c01:	48 89 e5             	mov    %rsp,%rbp
  405c04:	48 89 7d f8          	mov    %rdi,-0x8(%rbp)
  405c08:	48 8b 45 f8          	mov    -0x8(%rbp),%rax
  405c0c:	48 8b 00             	mov    (%rax),%rax
  405c0f:	5d                   	pop    %rbp
  405c10:	c3                   	retq   
  405c11:	90                   	nop

0000000000405c12 <_ZNKSt16initializer_listIiE4sizeEv>:
  405c12:	55                   	push   %rbp
  405c13:	48 89 e5             	mov    %rsp,%rbp
  405c16:	48 89 7d f8          	mov    %rdi,-0x8(%rbp)
  405c1a:	48 8b 45 f8          	mov    -0x8(%rbp),%rax
  405c1e:	48 8b 40 08          	mov    0x8(%rax),%rax
  405c22:	5d                   	pop    %rbp
  405c23:	c3                   	retq   

0000000000405c24 <_ZNK6google8protobuf16RepeatedPtrFieldIN10tensorflow15DeviceStepStatsEE5beginEv>:
  405c24:	55                   	push   %rbp
  405c25:	48 89 e5             	mov    %rsp,%rbp
  405c28:	48 83 ec 30          	sub    $0x30,%rsp
  405c2c:	48 89 7d d8          	mov    %rdi,-0x28(%rbp)
  405c30:	64 48 8b 04 25 28 00 	mov    %fs:0x28,%rax
  405c37:	00 00 
  405c39:	48 89 45 f8          	mov    %rax,-0x8(%rbp)
  405c3d:	31 c0                	xor    %eax,%eax
  405c3f:	48 8b 45 d8          	mov    -0x28(%rbp),%rax
  405c43:	48 89 c7             	mov    %rax,%rdi
  405c46:	e8 8f e3 ff ff       	callq  403fda <_ZNK6google8protobuf8internal20RepeatedPtrFieldBase8raw_dataEv>
  405c4b:	48 89 c2             	mov    %rax,%rdx
  405c4e:	48 8d 45 e8          	lea    -0x18(%rbp),%rax
  405c52:	48 89 d6             	mov    %rdx,%rsi
  405c55:	48 89 c7             	mov    %rax,%rdi
  405c58:	e8 9d 0e 00 00       	callq  406afa <_ZN6google8protobuf8internal19RepeatedPtrIteratorIN10tensorflow15DeviceStepStatsEEC1EPKPv>
  405c5d:	48 8d 55 e8          	lea    -0x18(%rbp),%rdx
  405c61:	48 8d 45 f0          	lea    -0x10(%rbp),%rax
  405c65:	48 89 d6             	mov    %rdx,%rsi
  405c68:	48 89 c7             	mov    %rax,%rdi
  405c6b:	e8 c0 0e 00 00       	callq  406b30 <_ZN6google8protobuf8internal19RepeatedPtrIteratorIKN10tensorflow15DeviceStepStatsEEC1IS4_EERKNS2_IT_EE>
  405c70:	48 8b 45 f0          	mov    -0x10(%rbp),%rax
  405c74:	48 8b 4d f8          	mov    -0x8(%rbp),%rcx
  405c78:	64 48 33 0c 25 28 00 	xor    %fs:0x28,%rcx
  405c7f:	00 00 
  405c81:	74 05                	je     405c88 <_ZNK6google8protobuf16RepeatedPtrFieldIN10tensorflow15DeviceStepStatsEE5beginEv+0x64>
  405c83:	e8 d8 d0 ff ff       	callq  402d60 <__stack_chk_fail@plt>
  405c88:	c9                   	leaveq 
  405c89:	c3                   	retq   

0000000000405c8a <_ZNK6google8protobuf16RepeatedPtrFieldIN10tensorflow15DeviceStepStatsEE3endEv>:
  405c8a:	55                   	push   %rbp
  405c8b:	48 89 e5             	mov    %rsp,%rbp
  405c8e:	53                   	push   %rbx
  405c8f:	48 83 ec 38          	sub    $0x38,%rsp
  405c93:	48 89 7d c8          	mov    %rdi,-0x38(%rbp)
  405c97:	64 48 8b 04 25 28 00 	mov    %fs:0x28,%rax
  405c9e:	00 00 
  405ca0:	48 89 45 e8          	mov    %rax,-0x18(%rbp)
  405ca4:	31 c0                	xor    %eax,%eax
  405ca6:	48 8b 45 c8          	mov    -0x38(%rbp),%rax
  405caa:	48 89 c7             	mov    %rax,%rdi
  405cad:	e8 28 e3 ff ff       	callq  403fda <_ZNK6google8protobuf8internal20RepeatedPtrFieldBase8raw_dataEv>
  405cb2:	48 89 c3             	mov    %rax,%rbx
  405cb5:	48 8b 45 c8          	mov    -0x38(%rbp),%rax
  405cb9:	48 89 c7             	mov    %rax,%rdi
  405cbc:	e8 25 ff ff ff       	callq  405be6 <_ZNK6google8protobuf16RepeatedPtrFieldIN10tensorflow15DeviceStepStatsEE4sizeEv>
  405cc1:	48 98                	cltq   
  405cc3:	48 c1 e0 03          	shl    $0x3,%rax
  405cc7:	48 8d 14 03          	lea    (%rbx,%rax,1),%rdx
  405ccb:	48 8d 45 d8          	lea    -0x28(%rbp),%rax
  405ccf:	48 89 d6             	mov    %rdx,%rsi
  405cd2:	48 89 c7             	mov    %rax,%rdi
  405cd5:	e8 20 0e 00 00       	callq  406afa <_ZN6google8protobuf8internal19RepeatedPtrIteratorIN10tensorflow15DeviceStepStatsEEC1EPKPv>
  405cda:	48 8d 55 d8          	lea    -0x28(%rbp),%rdx
  405cde:	48 8d 45 e0          	lea    -0x20(%rbp),%rax
  405ce2:	48 89 d6             	mov    %rdx,%rsi
  405ce5:	48 89 c7             	mov    %rax,%rdi
  405ce8:	e8 43 0e 00 00       	callq  406b30 <_ZN6google8protobuf8internal19RepeatedPtrIteratorIKN10tensorflow15DeviceStepStatsEEC1IS4_EERKNS2_IT_EE>
  405ced:	48 8b 45 e0          	mov    -0x20(%rbp),%rax
  405cf1:	48 8b 4d e8          	mov    -0x18(%rbp),%rcx
  405cf5:	64 48 33 0c 25 28 00 	xor    %fs:0x28,%rcx
  405cfc:	00 00 
  405cfe:	74 05                	je     405d05 <_ZNK6google8protobuf16RepeatedPtrFieldIN10tensorflow15DeviceStepStatsEE3endEv+0x7b>
  405d00:	e8 5b d0 ff ff       	callq  402d60 <__stack_chk_fail@plt>
  405d05:	48 83 c4 38          	add    $0x38,%rsp
  405d09:	5b                   	pop    %rbx
  405d0a:	5d                   	pop    %rbp
  405d0b:	c3                   	retq   

0000000000405d0c <_ZNK6google8protobuf8internal19RepeatedPtrIteratorIKN10tensorflow15DeviceStepStatsEEneERKS6_>:
  405d0c:	55                   	push   %rbp
  405d0d:	48 89 e5             	mov    %rsp,%rbp
  405d10:	48 89 7d f8          	mov    %rdi,-0x8(%rbp)
  405d14:	48 89 75 f0          	mov    %rsi,-0x10(%rbp)
  405d18:	48 8b 45 f8          	mov    -0x8(%rbp),%rax
  405d1c:	48 8b 10             	mov    (%rax),%rdx
  405d1f:	48 8b 45 f0          	mov    -0x10(%rbp),%rax
  405d23:	48 8b 00             	mov    (%rax),%rax
  405d26:	48 39 c2             	cmp    %rax,%rdx
  405d29:	0f 95 c0             	setne  %al
  405d2c:	5d                   	pop    %rbp
  405d2d:	c3                   	retq   

0000000000405d2e <_ZN6google8protobuf8internal19RepeatedPtrIteratorIKN10tensorflow15DeviceStepStatsEEppEv>:
  405d2e:	55                   	push   %rbp
  405d2f:	48 89 e5             	mov    %rsp,%rbp
  405d32:	48 89 7d f8          	mov    %rdi,-0x8(%rbp)
  405d36:	48 8b 45 f8          	mov    -0x8(%rbp),%rax
  405d3a:	48 8b 00             	mov    (%rax),%rax
  405d3d:	48 8d 50 08          	lea    0x8(%rax),%rdx
  405d41:	48 8b 45 f8          	mov    -0x8(%rbp),%rax
  405d45:	48 89 10             	mov    %rdx,(%rax)
  405d48:	48 8b 45 f8          	mov    -0x8(%rbp),%rax
  405d4c:	5d                   	pop    %rbp
  405d4d:	c3                   	retq   

0000000000405d4e <_ZNK6google8protobuf8internal19RepeatedPtrIteratorIKN10tensorflow15DeviceStepStatsEEdeEv>:
  405d4e:	55                   	push   %rbp
  405d4f:	48 89 e5             	mov    %rsp,%rbp
  405d52:	48 89 7d f8          	mov    %rdi,-0x8(%rbp)
  405d56:	48 8b 45 f8          	mov    -0x8(%rbp),%rax
  405d5a:	48 8b 00             	mov    (%rax),%rax
  405d5d:	48 8b 00             	mov    (%rax),%rax
  405d60:	5d                   	pop    %rbp
  405d61:	c3                   	retq   

0000000000405d62 <_ZNK6google8protobuf16RepeatedPtrFieldIN10tensorflow13NodeExecStatsEE5beginEv>:
  405d62:	55                   	push   %rbp
  405d63:	48 89 e5             	mov    %rsp,%rbp
  405d66:	48 83 ec 30          	sub    $0x30,%rsp
  405d6a:	48 89 7d d8          	mov    %rdi,-0x28(%rbp)
  405d6e:	64 48 8b 04 25 28 00 	mov    %fs:0x28,%rax
  405d75:	00 00 
  405d77:	48 89 45 f8          	mov    %rax,-0x8(%rbp)
  405d7b:	31 c0                	xor    %eax,%eax
  405d7d:	48 8b 45 d8          	mov    -0x28(%rbp),%rax
  405d81:	48 89 c7             	mov    %rax,%rdi
  405d84:	e8 51 e2 ff ff       	callq  403fda <_ZNK6google8protobuf8internal20RepeatedPtrFieldBase8raw_dataEv>
  405d89:	48 89 c2             	mov    %rax,%rdx
  405d8c:	48 8d 45 e8          	lea    -0x18(%rbp),%rax
  405d90:	48 89 d6             	mov    %rdx,%rsi
  405d93:	48 89 c7             	mov    %rax,%rdi
  405d96:	e8 f1 0d 00 00       	callq  406b8c <_ZN6google8protobuf8internal19RepeatedPtrIteratorIN10tensorflow13NodeExecStatsEEC1EPKPv>
  405d9b:	48 8d 55 e8          	lea    -0x18(%rbp),%rdx
  405d9f:	48 8d 45 f0          	lea    -0x10(%rbp),%rax
  405da3:	48 89 d6             	mov    %rdx,%rsi
  405da6:	48 89 c7             	mov    %rax,%rdi
  405da9:	e8 14 0e 00 00       	callq  406bc2 <_ZN6google8protobuf8internal19RepeatedPtrIteratorIKN10tensorflow13NodeExecStatsEEC1IS4_EERKNS2_IT_EE>
  405dae:	48 8b 45 f0          	mov    -0x10(%rbp),%rax
  405db2:	48 8b 4d f8          	mov    -0x8(%rbp),%rcx
  405db6:	64 48 33 0c 25 28 00 	xor    %fs:0x28,%rcx
  405dbd:	00 00 
  405dbf:	74 05                	je     405dc6 <_ZNK6google8protobuf16RepeatedPtrFieldIN10tensorflow13NodeExecStatsEE5beginEv+0x64>
  405dc1:	e8 9a cf ff ff       	callq  402d60 <__stack_chk_fail@plt>
  405dc6:	c9                   	leaveq 
  405dc7:	c3                   	retq   

0000000000405dc8 <_ZNK6google8protobuf16RepeatedPtrFieldIN10tensorflow13NodeExecStatsEE3endEv>:
  405dc8:	55                   	push   %rbp
  405dc9:	48 89 e5             	mov    %rsp,%rbp
  405dcc:	53                   	push   %rbx
  405dcd:	48 83 ec 38          	sub    $0x38,%rsp
  405dd1:	48 89 7d c8          	mov    %rdi,-0x38(%rbp)
  405dd5:	64 48 8b 04 25 28 00 	mov    %fs:0x28,%rax
  405ddc:	00 00 
  405dde:	48 89 45 e8          	mov    %rax,-0x18(%rbp)
  405de2:	31 c0                	xor    %eax,%eax
  405de4:	48 8b 45 c8          	mov    -0x38(%rbp),%rax
  405de8:	48 89 c7             	mov    %rax,%rdi
  405deb:	e8 ea e1 ff ff       	callq  403fda <_ZNK6google8protobuf8internal20RepeatedPtrFieldBase8raw_dataEv>
  405df0:	48 89 c3             	mov    %rax,%rbx
  405df3:	48 8b 45 c8          	mov    -0x38(%rbp),%rax
  405df7:	48 89 c7             	mov    %rax,%rdi
  405dfa:	e8 cd fd ff ff       	callq  405bcc <_ZNK6google8protobuf16RepeatedPtrFieldIN10tensorflow13NodeExecStatsEE4sizeEv>
  405dff:	48 98                	cltq   
  405e01:	48 c1 e0 03          	shl    $0x3,%rax
  405e05:	48 8d 14 03          	lea    (%rbx,%rax,1),%rdx
  405e09:	48 8d 45 d8          	lea    -0x28(%rbp),%rax
  405e0d:	48 89 d6             	mov    %rdx,%rsi
  405e10:	48 89 c7             	mov    %rax,%rdi
  405e13:	e8 74 0d 00 00       	callq  406b8c <_ZN6google8protobuf8internal19RepeatedPtrIteratorIN10tensorflow13NodeExecStatsEEC1EPKPv>
  405e18:	48 8d 55 d8          	lea    -0x28(%rbp),%rdx
  405e1c:	48 8d 45 e0          	lea    -0x20(%rbp),%rax
  405e20:	48 89 d6             	mov    %rdx,%rsi
  405e23:	48 89 c7             	mov    %rax,%rdi
  405e26:	e8 97 0d 00 00       	callq  406bc2 <_ZN6google8protobuf8internal19RepeatedPtrIteratorIKN10tensorflow13NodeExecStatsEEC1IS4_EERKNS2_IT_EE>
  405e2b:	48 8b 45 e0          	mov    -0x20(%rbp),%rax
  405e2f:	48 8b 4d e8          	mov    -0x18(%rbp),%rcx
  405e33:	64 48 33 0c 25 28 00 	xor    %fs:0x28,%rcx
  405e3a:	00 00 
  405e3c:	74 05                	je     405e43 <_ZNK6google8protobuf16RepeatedPtrFieldIN10tensorflow13NodeExecStatsEE3endEv+0x7b>
  405e3e:	e8 1d cf ff ff       	callq  402d60 <__stack_chk_fail@plt>
  405e43:	48 83 c4 38          	add    $0x38,%rsp
  405e47:	5b                   	pop    %rbx
  405e48:	5d                   	pop    %rbp
  405e49:	c3                   	retq   

0000000000405e4a <_ZNK6google8protobuf8internal19RepeatedPtrIteratorIKN10tensorflow13NodeExecStatsEEneERKS6_>:
  405e4a:	55                   	push   %rbp
  405e4b:	48 89 e5             	mov    %rsp,%rbp
  405e4e:	48 89 7d f8          	mov    %rdi,-0x8(%rbp)
  405e52:	48 89 75 f0          	mov    %rsi,-0x10(%rbp)
  405e56:	48 8b 45 f8          	mov    -0x8(%rbp),%rax
  405e5a:	48 8b 10             	mov    (%rax),%rdx
  405e5d:	48 8b 45 f0          	mov    -0x10(%rbp),%rax
  405e61:	48 8b 00             	mov    (%rax),%rax
  405e64:	48 39 c2             	cmp    %rax,%rdx
  405e67:	0f 95 c0             	setne  %al
  405e6a:	5d                   	pop    %rbp
  405e6b:	c3                   	retq   

0000000000405e6c <_ZN6google8protobuf8internal19RepeatedPtrIteratorIKN10tensorflow13NodeExecStatsEEppEv>:
  405e6c:	55                   	push   %rbp
  405e6d:	48 89 e5             	mov    %rsp,%rbp
  405e70:	48 89 7d f8          	mov    %rdi,-0x8(%rbp)
  405e74:	48 8b 45 f8          	mov    -0x8(%rbp),%rax
  405e78:	48 8b 00             	mov    (%rax),%rax
  405e7b:	48 8d 50 08          	lea    0x8(%rax),%rdx
  405e7f:	48 8b 45 f8          	mov    -0x8(%rbp),%rax
  405e83:	48 89 10             	mov    %rdx,(%rax)
  405e86:	48 8b 45 f8          	mov    -0x8(%rbp),%rax
  405e8a:	5d                   	pop    %rbp
  405e8b:	c3                   	retq   

0000000000405e8c <_ZNK6google8protobuf8internal19RepeatedPtrIteratorIKN10tensorflow13NodeExecStatsEEdeEv>:
  405e8c:	55                   	push   %rbp
  405e8d:	48 89 e5             	mov    %rsp,%rbp
  405e90:	48 89 7d f8          	mov    %rdi,-0x8(%rbp)
  405e94:	48 8b 45 f8          	mov    -0x8(%rbp),%rax
  405e98:	48 8b 00             	mov    (%rax),%rax
  405e9b:	48 8b 00             	mov    (%rax),%rax
  405e9e:	5d                   	pop    %rbp
  405e9f:	c3                   	retq   

0000000000405ea0 <_ZN2CK19get_random_raw_dataIfEEPT_RKNS_5ShapeE>:
  405ea0:	55                   	push   %rbp
  405ea1:	48 89 e5             	mov    %rsp,%rbp
  405ea4:	53                   	push   %rbx
  405ea5:	48 83 ec 38          	sub    $0x38,%rsp
  405ea9:	48 89 7d c8          	mov    %rdi,-0x38(%rbp)
  405ead:	ba 20 00 00 00       	mov    $0x20,%edx
  405eb2:	be 9b 92 40 00       	mov    $0x40929b,%esi
  405eb7:	bf 09 00 00 00       	mov    $0x9,%edi
  405ebc:	e8 c1 ef ff ff       	callq  404e82 <_ZN2CK13store_value_iEiPKci>
  405ec1:	c7 45 dc 40 42 0f 00 	movl   $0xf4240,-0x24(%rbp)
  405ec8:	c7 45 e0 81 84 1e 00 	movl   $0x1e8481,-0x20(%rbp)
  405ecf:	48 8b 45 c8          	mov    -0x38(%rbp),%rax
  405ed3:	48 89 c7             	mov    %rax,%rdi
  405ed6:	e8 c1 ee ff ff       	callq  404d9c <_ZNK2CK5Shape10data_countEv>
  405edb:	89 45 e4             	mov    %eax,-0x1c(%rbp)
  405ede:	8b 45 e4             	mov    -0x1c(%rbp),%eax
  405ee1:	48 63 d0             	movslq %eax,%rdx
  405ee4:	48 b8 fe ff ff ff ff 	movabs $0x1ffffffffffffffe,%rax
  405eeb:	ff ff 1f 
  405eee:	48 39 c2             	cmp    %rax,%rdx
  405ef1:	77 1e                	ja     405f11 <_ZN2CK19get_random_raw_dataIfEEPT_RKNS_5ShapeE+0x71>
  405ef3:	8b 45 e4             	mov    -0x1c(%rbp),%eax
  405ef6:	48 98                	cltq   
  405ef8:	48 c1 e0 02          	shl    $0x2,%rax
  405efc:	48 89 c7             	mov    %rax,%rdi
  405eff:	e8 5c d2 ff ff       	callq  403160 <_Znam@plt>
  405f04:	48 89 45 e8          	mov    %rax,-0x18(%rbp)
  405f08:	c7 45 d8 00 00 00 00 	movl   $0x0,-0x28(%rbp)
  405f0f:	eb 05                	jmp    405f16 <_ZN2CK19get_random_raw_dataIfEEPT_RKNS_5ShapeE+0x76>
  405f11:	e8 aa d2 ff ff       	callq  4031c0 <__cxa_throw_bad_array_new_length@plt>
  405f16:	8b 45 d8             	mov    -0x28(%rbp),%eax
  405f19:	3b 45 e4             	cmp    -0x1c(%rbp),%eax
  405f1c:	7d 5e                	jge    405f7c <_ZN2CK19get_random_raw_dataIfEEPT_RKNS_5ShapeE+0xdc>
  405f1e:	8b 45 d8             	mov    -0x28(%rbp),%eax
  405f21:	48 98                	cltq   
  405f23:	48 8d 14 85 00 00 00 	lea    0x0(,%rax,4),%rdx
  405f2a:	00 
  405f2b:	48 8b 45 e8          	mov    -0x18(%rbp),%rax
  405f2f:	48 8d 1c 02          	lea    (%rdx,%rax,1),%rbx
  405f33:	e8 c8 d2 ff ff       	callq  403200 <rand@plt>
  405f38:	89 c1                	mov    %eax,%ecx
  405f3a:	ba c5 bd 31 04       	mov    $0x431bdc5,%edx
  405f3f:	89 c8                	mov    %ecx,%eax
  405f41:	f7 ea                	imul   %edx
  405f43:	c1 fa 0f             	sar    $0xf,%edx
  405f46:	89 c8                	mov    %ecx,%eax
  405f48:	c1 f8 1f             	sar    $0x1f,%eax
  405f4b:	29 c2                	sub    %eax,%edx
  405f4d:	89 d0                	mov    %edx,%eax
  405f4f:	69 c0 81 84 1e 00    	imul   $0x1e8481,%eax,%eax
  405f55:	29 c1                	sub    %eax,%ecx
  405f57:	89 c8                	mov    %ecx,%eax
  405f59:	2d 40 42 0f 00       	sub    $0xf4240,%eax
  405f5e:	66 0f ef c0          	pxor   %xmm0,%xmm0
  405f62:	f3 0f 2a c0          	cvtsi2ss %eax,%xmm0
  405f66:	f3 0f 10 0d 26 35 00 	movss  0x3526(%rip),%xmm1        # 409494 <_ZZN2CK2TF16process_metadataERKN10tensorflow11RunMetadataEPKcE19__PRETTY_FUNCTION__+0x54>
  405f6d:	00 
  405f6e:	f3 0f 5e c1          	divss  %xmm1,%xmm0
  405f72:	f3 0f 11 03          	movss  %xmm0,(%rbx)
  405f76:	83 45 d8 01          	addl   $0x1,-0x28(%rbp)
  405f7a:	eb 9a                	jmp    405f16 <_ZN2CK19get_random_raw_dataIfEEPT_RKNS_5ShapeE+0x76>
  405f7c:	48 8b 45 e8          	mov    -0x18(%rbp),%rax
  405f80:	48 83 c4 38          	add    $0x38,%rsp
  405f84:	5b                   	pop    %rbx
  405f85:	5d                   	pop    %rbp
  405f86:	c3                   	retq   

0000000000405f87 <_ZN2CK20print_input_raw_dataIfEEvPT_RKNS_5ShapeE>:
  405f87:	55                   	push   %rbp
  405f88:	48 89 e5             	mov    %rsp,%rbp
  405f8b:	48 83 ec 10          	sub    $0x10,%rsp
  405f8f:	48 89 7d f8          	mov    %rdi,-0x8(%rbp)
  405f93:	48 89 75 f0          	mov    %rsi,-0x10(%rbp)
  405f97:	48 8b 75 f0          	mov    -0x10(%rbp),%rsi
  405f9b:	48 8b 45 f8          	mov    -0x8(%rbp),%rax
  405f9f:	b9 a5 92 40 00       	mov    $0x4092a5,%ecx
  405fa4:	ba ab 92 40 00       	mov    $0x4092ab,%edx
  405fa9:	48 89 c7             	mov    %rax,%rdi
  405fac:	e8 09 0d 00 00       	callq  406cba <_ZN2CK12log_raw_dataIfEEvPT_RKNS_5ShapeEPKcS7_>
  405fb1:	90                   	nop
  405fb2:	c9                   	leaveq 
  405fb3:	c3                   	retq   

0000000000405fb4 <_ZN10tensorflow6Tensor4flatIfEENS_6TTypesIT_Li1ElE4FlatEv>:
  405fb4:	55                   	push   %rbp
  405fb5:	48 89 e5             	mov    %rsp,%rbp
  405fb8:	41 55                	push   %r13
  405fba:	41 54                	push   %r12
  405fbc:	53                   	push   %rbx
  405fbd:	48 83 ec 38          	sub    $0x38,%rsp
  405fc1:	48 89 7d b8          	mov    %rdi,-0x48(%rbp)
  405fc5:	64 48 8b 04 25 28 00 	mov    %fs:0x28,%rax
  405fcc:	00 00 
  405fce:	48 89 45 d8          	mov    %rax,-0x28(%rbp)
  405fd2:	31 c0                	xor    %eax,%eax
  405fd4:	48 8b 45 b8          	mov    -0x48(%rbp),%rax
  405fd8:	48 89 c7             	mov    %rax,%rdi
  405fdb:	e8 02 e7 ff ff       	callq  4046e2 <_ZNK10tensorflow6Tensor11NumElementsEv>
  405fe0:	48 89 45 d0          	mov    %rax,-0x30(%rbp)
  405fe4:	48 8d 45 d0          	lea    -0x30(%rbp),%rax
  405fe8:	49 89 c4             	mov    %rax,%r12
  405feb:	41 bd 01 00 00 00    	mov    $0x1,%r13d
  405ff1:	4c 89 e1             	mov    %r12,%rcx
  405ff4:	4c 89 eb             	mov    %r13,%rbx
  405ff7:	4c 89 e0             	mov    %r12,%rax
  405ffa:	4c 89 ea             	mov    %r13,%rdx
  405ffd:	48 8d 45 c0          	lea    -0x40(%rbp),%rax
  406001:	48 89 ce             	mov    %rcx,%rsi
  406004:	48 89 c7             	mov    %rax,%rdi
  406007:	e8 58 0c 00 00       	callq  406c64 <_ZN10tensorflow3gtl10ArraySliceIxEC1ESt16initializer_listIxE>
  40600c:	48 8b 4d c0          	mov    -0x40(%rbp),%rcx
  406010:	48 8b 55 c8          	mov    -0x38(%rbp),%rdx
  406014:	48 8b 45 b8          	mov    -0x48(%rbp),%rax
  406018:	48 89 ce             	mov    %rcx,%rsi
  40601b:	48 89 c7             	mov    %rax,%rdi
  40601e:	e8 0f 0d 00 00       	callq  406d32 <_ZN10tensorflow6Tensor6shapedIfLm1EEENS_6TTypesIT_XT0_ElE6TensorENS_3gtl10ArraySliceIxEE>
  406023:	48 8b 5d d8          	mov    -0x28(%rbp),%rbx
  406027:	64 48 33 1c 25 28 00 	xor    %fs:0x28,%rbx
  40602e:	00 00 
  406030:	74 05                	je     406037 <_ZN10tensorflow6Tensor4flatIfEENS_6TTypesIT_Li1ElE4FlatEv+0x83>
  406032:	e8 29 cd ff ff       	callq  402d60 <__stack_chk_fail@plt>
  406037:	48 83 c4 38          	add    $0x38,%rsp
  40603b:	5b                   	pop    %rbx
  40603c:	41 5c                	pop    %r12
  40603e:	41 5d                	pop    %r13
  406040:	5d                   	pop    %rbp
  406041:	c3                   	retq   

0000000000406042 <_ZN5Eigen9TensorMapINS_6TensorIfLi1ELi1ElEELi16ENS_11MakePointerEE4dataEv>:
  406042:	55                   	push   %rbp
  406043:	48 89 e5             	mov    %rsp,%rbp
  406046:	48 89 7d f8          	mov    %rdi,-0x8(%rbp)
  40604a:	48 8b 45 f8          	mov    -0x8(%rbp),%rax
  40604e:	48 8b 00             	mov    (%rax),%rax
  406051:	5d                   	pop    %rbp
  406052:	c3                   	retq   
  406053:	90                   	nop

0000000000406054 <_ZNSt6vectorIN10tensorflow6TensorESaIS1_EEC1Ev>:
  406054:	55                   	push   %rbp
  406055:	48 89 e5             	mov    %rsp,%rbp
  406058:	48 83 ec 10          	sub    $0x10,%rsp
  40605c:	48 89 7d f8          	mov    %rdi,-0x8(%rbp)
  406060:	48 8b 45 f8          	mov    -0x8(%rbp),%rax
  406064:	48 89 c7             	mov    %rax,%rdi
  406067:	e8 7c 0d 00 00       	callq  406de8 <_ZNSt12_Vector_baseIN10tensorflow6TensorESaIS1_EEC1Ev>
  40606c:	90                   	nop
  40606d:	c9                   	leaveq 
  40606e:	c3                   	retq   
  40606f:	90                   	nop

0000000000406070 <_ZNSt6vectorIN10tensorflow6TensorESaIS1_EED1Ev>:
  406070:	55                   	push   %rbp
  406071:	48 89 e5             	mov    %rsp,%rbp
  406074:	48 83 ec 10          	sub    $0x10,%rsp
  406078:	48 89 7d f8          	mov    %rdi,-0x8(%rbp)
  40607c:	48 8b 45 f8          	mov    -0x8(%rbp),%rax
  406080:	48 89 c7             	mov    %rax,%rdi
  406083:	e8 cc 0d 00 00       	callq  406e54 <_ZNSt12_Vector_baseIN10tensorflow6TensorESaIS1_EE19_M_get_Tp_allocatorEv>
  406088:	48 89 c2             	mov    %rax,%rdx
  40608b:	48 8b 45 f8          	mov    -0x8(%rbp),%rax
  40608f:	48 8b 48 08          	mov    0x8(%rax),%rcx
  406093:	48 8b 45 f8          	mov    -0x8(%rbp),%rax
  406097:	48 8b 00             	mov    (%rax),%rax
  40609a:	48 89 ce             	mov    %rcx,%rsi
  40609d:	48 89 c7             	mov    %rax,%rdi
  4060a0:	e8 bd 0d 00 00       	callq  406e62 <_ZSt8_DestroyIPN10tensorflow6TensorES1_EvT_S3_RSaIT0_E>
  4060a5:	48 8b 45 f8          	mov    -0x8(%rbp),%rax
  4060a9:	48 89 c7             	mov    %rax,%rdi
  4060ac:	e8 53 0d 00 00       	callq  406e04 <_ZNSt12_Vector_baseIN10tensorflow6TensorESaIS1_EED1Ev>
  4060b1:	90                   	nop
  4060b2:	c9                   	leaveq 
  4060b3:	c3                   	retq   

00000000004060b4 <_ZN10tensorflow5Input11InitializerC1IivEERKSt16initializer_listIT_E>:
  4060b4:	55                   	push   %rbp
  4060b5:	48 89 e5             	mov    %rsp,%rbp
  4060b8:	41 55                	push   %r13
  4060ba:	41 54                	push   %r12
  4060bc:	53                   	push   %rbx
  4060bd:	48 83 ec 78          	sub    $0x78,%rsp
  4060c1:	48 89 bd 78 ff ff ff 	mov    %rdi,-0x88(%rbp)
  4060c8:	48 89 b5 70 ff ff ff 	mov    %rsi,-0x90(%rbp)
  4060cf:	64 48 8b 04 25 28 00 	mov    %fs:0x28,%rax
  4060d6:	00 00 
  4060d8:	48 89 45 d8          	mov    %rax,-0x28(%rbp)
  4060dc:	31 c0                	xor    %eax,%eax
  4060de:	48 8b 85 78 ff ff ff 	mov    -0x88(%rbp),%rax
  4060e5:	48 89 c7             	mov    %rax,%rdi
  4060e8:	e8 4b e0 ff ff       	callq  404138 <_ZN10tensorflow6StatusC1Ev>
  4060ed:	48 8b 85 78 ff ff ff 	mov    -0x88(%rbp),%rax
  4060f4:	48 83 c0 08          	add    $0x8,%rax
  4060f8:	48 89 c7             	mov    %rax,%rdi
  4060fb:	e8 30 cd ff ff       	callq  402e30 <_ZN10tensorflow6TensorC1Ev@plt>
  406100:	48 8b 85 70 ff ff ff 	mov    -0x90(%rbp),%rax
  406107:	48 89 c7             	mov    %rax,%rdi
  40610a:	e8 03 fb ff ff       	callq  405c12 <_ZNKSt16initializer_listIiE4sizeEv>
  40610f:	48 98                	cltq   
  406111:	48 89 45 88          	mov    %rax,-0x78(%rbp)
  406115:	48 8d 45 88          	lea    -0x78(%rbp),%rax
  406119:	49 89 c4             	mov    %rax,%r12
  40611c:	41 bd 01 00 00 00    	mov    $0x1,%r13d
  406122:	4c 89 e1             	mov    %r12,%rcx
  406125:	4c 89 eb             	mov    %r13,%rbx
  406128:	4c 89 e0             	mov    %r12,%rax
  40612b:	4c 89 ea             	mov    %r13,%rdx
  40612e:	48 8d 45 90          	lea    -0x70(%rbp),%rax
  406132:	48 89 ce             	mov    %rcx,%rsi
  406135:	48 89 c7             	mov    %rax,%rdi
  406138:	e8 01 f2 ff ff       	callq  40533e <_ZN10tensorflow11TensorShapeC1ESt16initializer_listIxE>
  40613d:	e8 b4 e2 ff ff       	callq  4043f6 <_ZN10tensorflow14DataTypeToEnumIiE1vEv>
  406142:	89 c1                	mov    %eax,%ecx
  406144:	48 8d 55 90          	lea    -0x70(%rbp),%rdx
  406148:	48 8d 45 b0          	lea    -0x50(%rbp),%rax
  40614c:	89 ce                	mov    %ecx,%esi
  40614e:	48 89 c7             	mov    %rax,%rdi
  406151:	e8 ba cc ff ff       	callq  402e10 <_ZN10tensorflow6TensorC1ENS_8DataTypeERKNS_11TensorShapeE@plt>
  406156:	48 8d 45 90          	lea    -0x70(%rbp),%rax
  40615a:	48 89 c7             	mov    %rax,%rdi
  40615d:	e8 42 e6 ff ff       	callq  4047a4 <_ZN10tensorflow11TensorShapeD1Ev>
  406162:	48 8d 45 b0          	lea    -0x50(%rbp),%rax
  406166:	48 89 c7             	mov    %rax,%rdi
  406169:	e8 1e 0d 00 00       	callq  406e8c <_ZN10tensorflow6Tensor4flatIiEENS_6TTypesIT_Li1ElE4FlatEv>
  40616e:	48 89 45 90          	mov    %rax,-0x70(%rbp)
  406172:	48 89 55 98          	mov    %rdx,-0x68(%rbp)
  406176:	48 8d 45 90          	lea    -0x70(%rbp),%rax
  40617a:	48 89 c7             	mov    %rax,%rdi
  40617d:	e8 98 0d 00 00       	callq  406f1a <_ZN5Eigen9TensorMapINS_6TensorIiLi1ELi1ElEELi16ENS_11MakePointerEE4dataEv>
  406182:	49 89 c4             	mov    %rax,%r12
  406185:	48 8b 85 70 ff ff ff 	mov    -0x90(%rbp),%rax
  40618c:	48 89 c7             	mov    %rax,%rdi
  40618f:	e8 7e fa ff ff       	callq  405c12 <_ZNKSt16initializer_listIiE4sizeEv>
  406194:	48 89 c3             	mov    %rax,%rbx
  406197:	48 8b 85 70 ff ff ff 	mov    -0x90(%rbp),%rax
  40619e:	48 89 c7             	mov    %rax,%rdi
  4061a1:	e8 5a fa ff ff       	callq  405c00 <_ZNKSt16initializer_listIiE5beginEv>
  4061a6:	4c 89 e2             	mov    %r12,%rdx
  4061a9:	48 89 de             	mov    %rbx,%rsi
  4061ac:	48 89 c7             	mov    %rax,%rdi
  4061af:	e8 77 0d 00 00       	callq  406f2b <_ZSt6copy_nIPKimPiET1_T_T0_S3_>
  4061b4:	48 8b 85 78 ff ff ff 	mov    -0x88(%rbp),%rax
  4061bb:	48 8d 50 08          	lea    0x8(%rax),%rdx
  4061bf:	48 8d 45 b0          	lea    -0x50(%rbp),%rax
  4061c3:	48 89 c6             	mov    %rax,%rsi
  4061c6:	48 89 d7             	mov    %rdx,%rdi
  4061c9:	e8 36 e5 ff ff       	callq  404704 <_ZN10tensorflow6TensoraSERKS0_>
  4061ce:	48 8d 45 b0          	lea    -0x50(%rbp),%rax
  4061d2:	48 89 c7             	mov    %rax,%rdi
  4061d5:	e8 f6 cb ff ff       	callq  402dd0 <_ZN10tensorflow6TensorD1Ev@plt>
  4061da:	90                   	nop
  4061db:	48 8b 45 d8          	mov    -0x28(%rbp),%rax
  4061df:	64 48 33 04 25 28 00 	xor    %fs:0x28,%rax
  4061e6:	00 00 
  4061e8:	74 5e                	je     406248 <_ZN10tensorflow5Input11InitializerC1IivEERKSt16initializer_listIT_E+0x194>
  4061ea:	eb 57                	jmp    406243 <_ZN10tensorflow5Input11InitializerC1IivEERKSt16initializer_listIT_E+0x18f>
  4061ec:	48 89 c3             	mov    %rax,%rbx
  4061ef:	48 8d 45 90          	lea    -0x70(%rbp),%rax
  4061f3:	48 89 c7             	mov    %rax,%rdi
  4061f6:	e8 a9 e5 ff ff       	callq  4047a4 <_ZN10tensorflow11TensorShapeD1Ev>
  4061fb:	eb 14                	jmp    406211 <_ZN10tensorflow5Input11InitializerC1IivEERKSt16initializer_listIT_E+0x15d>
  4061fd:	48 89 c3             	mov    %rax,%rbx
  406200:	48 8d 45 b0          	lea    -0x50(%rbp),%rax
  406204:	48 89 c7             	mov    %rax,%rdi
  406207:	e8 c4 cb ff ff       	callq  402dd0 <_ZN10tensorflow6TensorD1Ev@plt>
  40620c:	eb 03                	jmp    406211 <_ZN10tensorflow5Input11InitializerC1IivEERKSt16initializer_listIT_E+0x15d>
  40620e:	48 89 c3             	mov    %rax,%rbx
  406211:	48 8b 85 78 ff ff ff 	mov    -0x88(%rbp),%rax
  406218:	48 83 c0 08          	add    $0x8,%rax
  40621c:	48 89 c7             	mov    %rax,%rdi
  40621f:	e8 ac cb ff ff       	callq  402dd0 <_ZN10tensorflow6TensorD1Ev@plt>
  406224:	eb 03                	jmp    406229 <_ZN10tensorflow5Input11InitializerC1IivEERKSt16initializer_listIT_E+0x175>
  406226:	48 89 c3             	mov    %rax,%rbx
  406229:	48 8b 85 78 ff ff ff 	mov    -0x88(%rbp),%rax
  406230:	48 89 c7             	mov    %rax,%rdi
  406233:	e8 1c df ff ff       	callq  404154 <_ZN10tensorflow6StatusD1Ev>
  406238:	48 89 d8             	mov    %rbx,%rax
  40623b:	48 89 c7             	mov    %rax,%rdi
  40623e:	e8 cd cd ff ff       	callq  403010 <_Unwind_Resume@plt>
  406243:	e8 18 cb ff ff       	callq  402d60 <__stack_chk_fail@plt>
  406248:	48 83 c4 78          	add    $0x78,%rsp
  40624c:	5b                   	pop    %rbx
  40624d:	41 5c                	pop    %r12
  40624f:	41 5d                	pop    %r13
  406251:	5d                   	pop    %rbp
  406252:	c3                   	retq   
  406253:	90                   	nop

0000000000406254 <_ZNSaINSt8__detail10_Hash_nodeISt4pairIKN10tensorflow6OutputENS2_5Input11InitializerEELb1EEEEC1Ev>:
  406254:	55                   	push   %rbp
  406255:	48 89 e5             	mov    %rsp,%rbp
  406258:	48 83 ec 10          	sub    $0x10,%rsp
  40625c:	48 89 7d f8          	mov    %rdi,-0x8(%rbp)
  406260:	48 8b 45 f8          	mov    -0x8(%rbp),%rax
  406264:	48 89 c7             	mov    %rax,%rdi
  406267:	e8 2a 0d 00 00       	callq  406f96 <_ZN9__gnu_cxx13new_allocatorINSt8__detail10_Hash_nodeISt4pairIKN10tensorflow6OutputENS4_5Input11InitializerEELb1EEEEC1Ev>
  40626c:	90                   	nop
  40626d:	c9                   	leaveq 
  40626e:	c3                   	retq   
  40626f:	90                   	nop

0000000000406270 <_ZNSaINSt8__detail10_Hash_nodeISt4pairIKN10tensorflow6OutputENS2_5Input11InitializerEELb1EEEED1Ev>:
  406270:	55                   	push   %rbp
  406271:	48 89 e5             	mov    %rsp,%rbp
  406274:	48 83 ec 10          	sub    $0x10,%rsp
  406278:	48 89 7d f8          	mov    %rdi,-0x8(%rbp)
  40627c:	48 8b 45 f8          	mov    -0x8(%rbp),%rax
  406280:	48 89 c7             	mov    %rax,%rdi
  406283:	e8 1a 0d 00 00       	callq  406fa2 <_ZN9__gnu_cxx13new_allocatorINSt8__detail10_Hash_nodeISt4pairIKN10tensorflow6OutputENS4_5Input11InitializerEELb1EEEED1Ev>
  406288:	90                   	nop
  406289:	c9                   	leaveq 
  40628a:	c3                   	retq   
  40628b:	90                   	nop

000000000040628c <_ZNSt10_HashtableIN10tensorflow6OutputESt4pairIKS1_NS0_5Input11InitializerEESaIS6_ENSt8__detail10_Select1stESt8equal_toIS1_ENS0_10OutputHashENS8_18_Mod_range_hashingENS8_20_Default_ranged_hashENS8_20_Prime_rehash_policyENS8_17_Hashtable_traitsILb1ELb0ELb1EEEED1Ev>:
  40628c:	55                   	push   %rbp
  40628d:	48 89 e5             	mov    %rsp,%rbp
  406290:	48 83 ec 10          	sub    $0x10,%rsp
  406294:	48 89 7d f8          	mov    %rdi,-0x8(%rbp)
  406298:	48 8b 45 f8          	mov    -0x8(%rbp),%rax
  40629c:	48 89 c7             	mov    %rax,%rdi
  40629f:	e8 0a 0d 00 00       	callq  406fae <_ZNSt10_HashtableIN10tensorflow6OutputESt4pairIKS1_NS0_5Input11InitializerEESaIS6_ENSt8__detail10_Select1stESt8equal_toIS1_ENS0_10OutputHashENS8_18_Mod_range_hashingENS8_20_Default_ranged_hashENS8_20_Prime_rehash_policyENS8_17_Hashtable_traitsILb1ELb0ELb1EEEE5clearEv>
  4062a4:	48 8b 45 f8          	mov    -0x8(%rbp),%rax
  4062a8:	48 89 c7             	mov    %rax,%rdi
  4062ab:	e8 68 0d 00 00       	callq  407018 <_ZNSt10_HashtableIN10tensorflow6OutputESt4pairIKS1_NS0_5Input11InitializerEESaIS6_ENSt8__detail10_Select1stESt8equal_toIS1_ENS0_10OutputHashENS8_18_Mod_range_hashingENS8_20_Default_ranged_hashENS8_20_Prime_rehash_policyENS8_17_Hashtable_traitsILb1ELb0ELb1EEEE21_M_deallocate_bucketsEv>
  4062b0:	48 8b 45 f8          	mov    -0x8(%rbp),%rax
  4062b4:	48 89 c7             	mov    %rax,%rdi
  4062b7:	e8 42 f3 ff ff       	callq  4055fe <_ZNSt8__detail16_Hashtable_allocISaINS_10_Hash_nodeISt4pairIKN10tensorflow6OutputENS3_5Input11InitializerEELb1EEEEED1Ev>
  4062bc:	90                   	nop
  4062bd:	c9                   	leaveq 
  4062be:	c3                   	retq   
  4062bf:	90                   	nop

00000000004062c0 <_ZNSaIN10tensorflow6OutputEEC1Ev>:
  4062c0:	55                   	push   %rbp
  4062c1:	48 89 e5             	mov    %rsp,%rbp
  4062c4:	48 83 ec 10          	sub    $0x10,%rsp
  4062c8:	48 89 7d f8          	mov    %rdi,-0x8(%rbp)
  4062cc:	48 8b 45 f8          	mov    -0x8(%rbp),%rax
  4062d0:	48 89 c7             	mov    %rax,%rdi
  4062d3:	e8 6e 0d 00 00       	callq  407046 <_ZN9__gnu_cxx13new_allocatorIN10tensorflow6OutputEEC1Ev>
  4062d8:	90                   	nop
  4062d9:	c9                   	leaveq 
  4062da:	c3                   	retq   
  4062db:	90                   	nop

00000000004062dc <_ZNSaIN10tensorflow6OutputEED1Ev>:
  4062dc:	55                   	push   %rbp
  4062dd:	48 89 e5             	mov    %rsp,%rbp
  4062e0:	48 83 ec 10          	sub    $0x10,%rsp
  4062e4:	48 89 7d f8          	mov    %rdi,-0x8(%rbp)
  4062e8:	48 8b 45 f8          	mov    -0x8(%rbp),%rax
  4062ec:	48 89 c7             	mov    %rax,%rdi
  4062ef:	e8 5e 0d 00 00       	callq  407052 <_ZN9__gnu_cxx13new_allocatorIN10tensorflow6OutputEED1Ev>
  4062f4:	90                   	nop
  4062f5:	c9                   	leaveq 
  4062f6:	c3                   	retq   
  4062f7:	90                   	nop

00000000004062f8 <_ZNSt6vectorIN10tensorflow6OutputESaIS1_EEC1ESt16initializer_listIS1_ERKS2_>:
  4062f8:	55                   	push   %rbp
  4062f9:	48 89 e5             	mov    %rsp,%rbp
  4062fc:	41 54                	push   %r12
  4062fe:	53                   	push   %rbx
  4062ff:	48 83 ec 30          	sub    $0x30,%rsp
  406303:	48 89 7d d8          	mov    %rdi,-0x28(%rbp)
  406307:	48 89 f0             	mov    %rsi,%rax
  40630a:	48 89 d6             	mov    %rdx,%rsi
  40630d:	48 89 f2             	mov    %rsi,%rdx
  406310:	48 89 45 c0          	mov    %rax,-0x40(%rbp)
  406314:	48 89 55 c8          	mov    %rdx,-0x38(%rbp)
  406318:	48 89 4d d0          	mov    %rcx,-0x30(%rbp)
  40631c:	64 48 8b 04 25 28 00 	mov    %fs:0x28,%rax
  406323:	00 00 
  406325:	48 89 45 e8          	mov    %rax,-0x18(%rbp)
  406329:	31 c0                	xor    %eax,%eax
  40632b:	48 8b 45 d8          	mov    -0x28(%rbp),%rax
  40632f:	48 8b 55 d0          	mov    -0x30(%rbp),%rdx
  406333:	48 89 d6             	mov    %rdx,%rsi
  406336:	48 89 c7             	mov    %rax,%rdi
  406339:	e8 3c 0d 00 00       	callq  40707a <_ZNSt12_Vector_baseIN10tensorflow6OutputESaIS1_EEC1ERKS2_>
  40633e:	48 8d 45 c0          	lea    -0x40(%rbp),%rax
  406342:	48 89 c7             	mov    %rax,%rdi
  406345:	e8 ba e8 ff ff       	callq  404c04 <_ZNKSt16initializer_listIN10tensorflow6OutputEE3endEv>
  40634a:	48 89 c3             	mov    %rax,%rbx
  40634d:	48 8d 45 c0          	lea    -0x40(%rbp),%rax
  406351:	48 89 c7             	mov    %rax,%rdi
  406354:	e8 87 e8 ff ff       	callq  404be0 <_ZNKSt16initializer_listIN10tensorflow6OutputEE5beginEv>
  406359:	48 89 c1             	mov    %rax,%rcx
  40635c:	48 8b 45 d8          	mov    -0x28(%rbp),%rax
  406360:	48 83 ec 08          	sub    $0x8,%rsp
  406364:	41 54                	push   %r12
  406366:	48 89 da             	mov    %rbx,%rdx
  406369:	48 89 ce             	mov    %rcx,%rsi
  40636c:	48 89 c7             	mov    %rax,%rdi
  40636f:	e8 8e 0d 00 00       	callq  407102 <_ZNSt6vectorIN10tensorflow6OutputESaIS1_EE19_M_range_initializeIPKS1_EEvT_S7_St20forward_iterator_tag>
  406374:	48 83 c4 10          	add    $0x10,%rsp
  406378:	90                   	nop
  406379:	48 8b 45 e8          	mov    -0x18(%rbp),%rax
  40637d:	64 48 33 04 25 28 00 	xor    %fs:0x28,%rax
  406384:	00 00 
  406386:	74 21                	je     4063a9 <_ZNSt6vectorIN10tensorflow6OutputESaIS1_EEC1ESt16initializer_listIS1_ERKS2_+0xb1>
  406388:	eb 1a                	jmp    4063a4 <_ZNSt6vectorIN10tensorflow6OutputESaIS1_EEC1ESt16initializer_listIS1_ERKS2_+0xac>
  40638a:	48 89 c3             	mov    %rax,%rbx
  40638d:	48 8b 45 d8          	mov    -0x28(%rbp),%rax
  406391:	48 89 c7             	mov    %rax,%rdi
  406394:	e8 07 0d 00 00       	callq  4070a0 <_ZNSt12_Vector_baseIN10tensorflow6OutputESaIS1_EED1Ev>
  406399:	48 89 d8             	mov    %rbx,%rax
  40639c:	48 89 c7             	mov    %rax,%rdi
  40639f:	e8 6c cc ff ff       	callq  403010 <_Unwind_Resume@plt>
  4063a4:	e8 b7 c9 ff ff       	callq  402d60 <__stack_chk_fail@plt>
  4063a9:	48 8d 65 f0          	lea    -0x10(%rbp),%rsp
  4063ad:	5b                   	pop    %rbx
  4063ae:	41 5c                	pop    %r12
  4063b0:	5d                   	pop    %rbp
  4063b1:	c3                   	retq   

00000000004063b2 <_ZNSt6vectorIN10tensorflow6OutputESaIS1_EED1Ev>:
  4063b2:	55                   	push   %rbp
  4063b3:	48 89 e5             	mov    %rsp,%rbp
  4063b6:	48 83 ec 10          	sub    $0x10,%rsp
  4063ba:	48 89 7d f8          	mov    %rdi,-0x8(%rbp)
  4063be:	48 8b 45 f8          	mov    -0x8(%rbp),%rax
  4063c2:	48 89 c7             	mov    %rax,%rdi
  4063c5:	e8 da 0d 00 00       	callq  4071a4 <_ZNSt12_Vector_baseIN10tensorflow6OutputESaIS1_EE19_M_get_Tp_allocatorEv>
  4063ca:	48 89 c2             	mov    %rax,%rdx
  4063cd:	48 8b 45 f8          	mov    -0x8(%rbp),%rax
  4063d1:	48 8b 48 08          	mov    0x8(%rax),%rcx
  4063d5:	48 8b 45 f8          	mov    -0x8(%rbp),%rax
  4063d9:	48 8b 00             	mov    (%rax),%rax
  4063dc:	48 89 ce             	mov    %rcx,%rsi
  4063df:	48 89 c7             	mov    %rax,%rdi
  4063e2:	e8 cb 0d 00 00       	callq  4071b2 <_ZSt8_DestroyIPN10tensorflow6OutputES1_EvT_S3_RSaIT0_E>
  4063e7:	48 8b 45 f8          	mov    -0x8(%rbp),%rax
  4063eb:	48 89 c7             	mov    %rax,%rdi
  4063ee:	e8 ad 0c 00 00       	callq  4070a0 <_ZNSt12_Vector_baseIN10tensorflow6OutputESaIS1_EED1Ev>
  4063f3:	90                   	nop
  4063f4:	c9                   	leaveq 
  4063f5:	c3                   	retq   

00000000004063f6 <_ZNSt6vectorIN10tensorflow9OperationESaIS1_EEC1Ev>:
  4063f6:	55                   	push   %rbp
  4063f7:	48 89 e5             	mov    %rsp,%rbp
  4063fa:	48 83 ec 10          	sub    $0x10,%rsp
  4063fe:	48 89 7d f8          	mov    %rdi,-0x8(%rbp)
  406402:	48 8b 45 f8          	mov    -0x8(%rbp),%rax
  406406:	48 89 c7             	mov    %rax,%rdi
  406409:	e8 ea 0d 00 00       	callq  4071f8 <_ZNSt12_Vector_baseIN10tensorflow9OperationESaIS1_EEC1Ev>
  40640e:	90                   	nop
  40640f:	c9                   	leaveq 
  406410:	c3                   	retq   
  406411:	90                   	nop

0000000000406412 <_ZNSt6vectorIN10tensorflow9OperationESaIS1_EED1Ev>:
  406412:	55                   	push   %rbp
  406413:	48 89 e5             	mov    %rsp,%rbp
  406416:	48 83 ec 10          	sub    $0x10,%rsp
  40641a:	48 89 7d f8          	mov    %rdi,-0x8(%rbp)
  40641e:	48 8b 45 f8          	mov    -0x8(%rbp),%rax
  406422:	48 89 c7             	mov    %rax,%rdi
  406425:	e8 3a 0e 00 00       	callq  407264 <_ZNSt12_Vector_baseIN10tensorflow9OperationESaIS1_EE19_M_get_Tp_allocatorEv>
  40642a:	48 89 c2             	mov    %rax,%rdx
  40642d:	48 8b 45 f8          	mov    -0x8(%rbp),%rax
  406431:	48 8b 48 08          	mov    0x8(%rax),%rcx
  406435:	48 8b 45 f8          	mov    -0x8(%rbp),%rax
  406439:	48 8b 00             	mov    (%rax),%rax
  40643c:	48 89 ce             	mov    %rcx,%rsi
  40643f:	48 89 c7             	mov    %rax,%rdi
  406442:	e8 2b 0e 00 00       	callq  407272 <_ZSt8_DestroyIPN10tensorflow9OperationES1_EvT_S3_RSaIT0_E>
  406447:	48 8b 45 f8          	mov    -0x8(%rbp),%rax
  40644b:	48 89 c7             	mov    %rax,%rdi
  40644e:	e8 c1 0d 00 00       	callq  407214 <_ZNSt12_Vector_baseIN10tensorflow9OperationESaIS1_EED1Ev>
  406453:	90                   	nop
  406454:	c9                   	leaveq 
  406455:	c3                   	retq   

0000000000406456 <_ZNSt6vectorIN10tensorflow6TensorESaIS1_EEixEm>:
  406456:	55                   	push   %rbp
  406457:	48 89 e5             	mov    %rsp,%rbp
  40645a:	48 89 7d f8          	mov    %rdi,-0x8(%rbp)
  40645e:	48 89 75 f0          	mov    %rsi,-0x10(%rbp)
  406462:	48 8b 45 f8          	mov    -0x8(%rbp),%rax
  406466:	48 8b 00             	mov    (%rax),%rax
  406469:	48 8b 55 f0          	mov    -0x10(%rbp),%rdx
  40646d:	48 c1 e2 05          	shl    $0x5,%rdx
  406471:	48 01 d0             	add    %rdx,%rax
  406474:	5d                   	pop    %rbp
  406475:	c3                   	retq   

0000000000406476 <_ZN2CK21print_output_raw_dataIfEEvPT_RKNS_5ShapeE>:
  406476:	55                   	push   %rbp
  406477:	48 89 e5             	mov    %rsp,%rbp
  40647a:	48 83 ec 10          	sub    $0x10,%rsp
  40647e:	48 89 7d f8          	mov    %rdi,-0x8(%rbp)
  406482:	48 89 75 f0          	mov    %rsi,-0x10(%rbp)
  406486:	48 8b 75 f0          	mov    -0x10(%rbp),%rsi
  40648a:	48 8b 45 f8          	mov    -0x8(%rbp),%rax
  40648e:	b9 be 92 40 00       	mov    $0x4092be,%ecx
  406493:	ba c5 92 40 00       	mov    $0x4092c5,%edx
  406498:	48 89 c7             	mov    %rax,%rdi
  40649b:	e8 1a 08 00 00       	callq  406cba <_ZN2CK12log_raw_dataIfEEvPT_RKNS_5ShapeEPKcS7_>
  4064a0:	90                   	nop
  4064a1:	c9                   	leaveq 
  4064a2:	c3                   	retq   

00000000004064a3 <_ZN2CK20dump_output_raw_dataIfEEvPT_RKNS_5ShapeE>:
  4064a3:	55                   	push   %rbp
  4064a4:	48 89 e5             	mov    %rsp,%rbp
  4064a7:	48 83 ec 20          	sub    $0x20,%rsp
  4064ab:	48 89 7d e8          	mov    %rdi,-0x18(%rbp)
  4064af:	48 89 75 e0          	mov    %rsi,-0x20(%rbp)
  4064b3:	bf d9 92 40 00       	mov    $0x4092d9,%edi
  4064b8:	e8 03 ca ff ff       	callq  402ec0 <getenv@plt>
  4064bd:	48 89 45 f8          	mov    %rax,-0x8(%rbp)
  4064c1:	48 83 7d f8 00       	cmpq   $0x0,-0x8(%rbp)
  4064c6:	0f 84 89 00 00 00    	je     406555 <_ZN2CK20dump_output_raw_dataIfEEvPT_RKNS_5ShapeE+0xb2>
  4064cc:	48 8b 45 e0          	mov    -0x20(%rbp),%rax
  4064d0:	48 89 c7             	mov    %rax,%rdi
  4064d3:	e8 c4 e8 ff ff       	callq  404d9c <_ZNK2CK5Shape10data_countEv>
  4064d8:	48 98                	cltq   
  4064da:	48 c1 e0 02          	shl    $0x2,%rax
  4064de:	48 89 c2             	mov    %rax,%rdx
  4064e1:	48 8b 4d e8          	mov    -0x18(%rbp),%rcx
  4064e5:	48 8b 45 f8          	mov    -0x8(%rbp),%rax
  4064e9:	48 89 ce             	mov    %rcx,%rsi
  4064ec:	48 89 c7             	mov    %rax,%rdi
  4064ef:	e8 4c ca ff ff       	callq  402f40 <xopenme_dump_memory@plt>
  4064f4:	48 8b 45 e0          	mov    -0x20(%rbp),%rax
  4064f8:	8b 00                	mov    (%rax),%eax
  4064fa:	89 c2                	mov    %eax,%edx
  4064fc:	be e9 92 40 00       	mov    $0x4092e9,%esi
  406501:	bf 00 00 00 00       	mov    $0x0,%edi
  406506:	e8 77 e9 ff ff       	callq  404e82 <_ZN2CK13store_value_iEiPKci>
  40650b:	48 8b 45 e0          	mov    -0x20(%rbp),%rax
  40650f:	8b 40 04             	mov    0x4(%rax),%eax
  406512:	89 c2                	mov    %eax,%edx
  406514:	be f5 92 40 00       	mov    $0x4092f5,%esi
  406519:	bf 01 00 00 00       	mov    $0x1,%edi
  40651e:	e8 5f e9 ff ff       	callq  404e82 <_ZN2CK13store_value_iEiPKci>
  406523:	48 8b 45 e0          	mov    -0x20(%rbp),%rax
  406527:	8b 40 08             	mov    0x8(%rax),%eax
  40652a:	89 c2                	mov    %eax,%edx
  40652c:	be 01 93 40 00       	mov    $0x409301,%esi
  406531:	bf 02 00 00 00       	mov    $0x2,%edi
  406536:	e8 47 e9 ff ff       	callq  404e82 <_ZN2CK13store_value_iEiPKci>
  40653b:	48 8b 45 e0          	mov    -0x20(%rbp),%rax
  40653f:	8b 40 0c             	mov    0xc(%rax),%eax
  406542:	89 c2                	mov    %eax,%edx
  406544:	be 0d 93 40 00       	mov    $0x40930d,%esi
  406549:	bf 03 00 00 00       	mov    $0x3,%edi
  40654e:	e8 2f e9 ff ff       	callq  404e82 <_ZN2CK13store_value_iEiPKci>
  406553:	eb 01                	jmp    406556 <_ZN2CK20dump_output_raw_dataIfEEvPT_RKNS_5ShapeE+0xb3>
  406555:	90                   	nop
  406556:	c9                   	leaveq 
  406557:	c3                   	retq   

0000000000406558 <_ZN5Eigen8internal8FixedIntILi1EEC1Ev>:
  406558:	55                   	push   %rbp
  406559:	48 89 e5             	mov    %rsp,%rbp
  40655c:	48 89 7d f8          	mov    %rdi,-0x8(%rbp)
  406560:	90                   	nop
  406561:	5d                   	pop    %rbp
  406562:	c3                   	retq   
  406563:	90                   	nop

0000000000406564 <_ZNK5Eigen8Symbolic8BaseExprINS0_10SymbolExprINS_12placeholders8internal17symbolic_last_tagEEEE7derivedEv>:
  406564:	55                   	push   %rbp
  406565:	48 89 e5             	mov    %rsp,%rbp
  406568:	48 89 7d f8          	mov    %rdi,-0x8(%rbp)
  40656c:	48 8b 45 f8          	mov    -0x8(%rbp),%rax
  406570:	5d                   	pop    %rbp
  406571:	c3                   	retq   

0000000000406572 <_ZN5Eigen8Symbolic9ValueExprINS_8internal8FixedIntILi1EEEEC1Ev>:
  406572:	55                   	push   %rbp
  406573:	48 89 e5             	mov    %rsp,%rbp
  406576:	48 89 7d f8          	mov    %rdi,-0x8(%rbp)
  40657a:	90                   	nop
  40657b:	5d                   	pop    %rbp
  40657c:	c3                   	retq   
  40657d:	90                   	nop

000000000040657e <_ZN5Eigen8Symbolic8BaseExprINS0_7AddExprINS0_10SymbolExprINS_12placeholders8internal17symbolic_last_tagEEENS0_9ValueExprINS_8internal8FixedIntILi1EEEEEEEEC1Ev>:
  40657e:	55                   	push   %rbp
  40657f:	48 89 e5             	mov    %rsp,%rbp
  406582:	48 89 7d f8          	mov    %rdi,-0x8(%rbp)
  406586:	90                   	nop
  406587:	5d                   	pop    %rbp
  406588:	c3                   	retq   
  406589:	90                   	nop

000000000040658a <_ZN5Eigen8Symbolic7AddExprINS0_10SymbolExprINS_12placeholders8internal17symbolic_last_tagEEENS0_9ValueExprINS_8internal8FixedIntILi1EEEEEEC1ERKS6_RKSB_>:
  40658a:	55                   	push   %rbp
  40658b:	48 89 e5             	mov    %rsp,%rbp
  40658e:	48 83 ec 20          	sub    $0x20,%rsp
  406592:	48 89 7d f8          	mov    %rdi,-0x8(%rbp)
  406596:	48 89 75 f0          	mov    %rsi,-0x10(%rbp)
  40659a:	48 89 55 e8          	mov    %rdx,-0x18(%rbp)
  40659e:	48 8b 45 f8          	mov    -0x8(%rbp),%rax
  4065a2:	48 89 c7             	mov    %rax,%rdi
  4065a5:	e8 d4 ff ff ff       	callq  40657e <_ZN5Eigen8Symbolic8BaseExprINS0_7AddExprINS0_10SymbolExprINS_12placeholders8internal17symbolic_last_tagEEENS0_9ValueExprINS_8internal8FixedIntILi1EEEEEEEEC1Ev>
  4065aa:	90                   	nop
  4065ab:	c9                   	leaveq 
  4065ac:	c3                   	retq   

00000000004065ad <_ZN10tensorflow8internal22MakeCheckOpValueStringImEEvPSoRKT_>:
  4065ad:	55                   	push   %rbp
  4065ae:	48 89 e5             	mov    %rsp,%rbp
  4065b1:	48 83 ec 10          	sub    $0x10,%rsp
  4065b5:	48 89 7d f8          	mov    %rdi,-0x8(%rbp)
  4065b9:	48 89 75 f0          	mov    %rsi,-0x10(%rbp)
  4065bd:	48 8b 45 f0          	mov    -0x10(%rbp),%rax
  4065c1:	48 8b 10             	mov    (%rax),%rdx
  4065c4:	48 8b 45 f8          	mov    -0x8(%rbp),%rax
  4065c8:	48 89 d6             	mov    %rdx,%rsi
  4065cb:	48 89 c7             	mov    %rax,%rdi
  4065ce:	e8 9d ca ff ff       	callq  403070 <_ZNSolsEm@plt>
  4065d3:	90                   	nop
  4065d4:	c9                   	leaveq 
  4065d5:	c3                   	retq   

00000000004065d6 <_ZN10tensorflow8internal22MakeCheckOpValueStringIiEEvPSoRKT_>:
  4065d6:	55                   	push   %rbp
  4065d7:	48 89 e5             	mov    %rsp,%rbp
  4065da:	48 83 ec 10          	sub    $0x10,%rsp
  4065de:	48 89 7d f8          	mov    %rdi,-0x8(%rbp)
  4065e2:	48 89 75 f0          	mov    %rsi,-0x10(%rbp)
  4065e6:	48 8b 45 f0          	mov    -0x10(%rbp),%rax
  4065ea:	8b 10                	mov    (%rax),%edx
  4065ec:	48 8b 45 f8          	mov    -0x8(%rbp),%rax
  4065f0:	89 d6                	mov    %edx,%esi
  4065f2:	48 89 c7             	mov    %rax,%rdi
  4065f5:	e8 86 c8 ff ff       	callq  402e80 <_ZNSolsEi@plt>
  4065fa:	90                   	nop
  4065fb:	c9                   	leaveq 
  4065fc:	c3                   	retq   

00000000004065fd <_ZN10tensorflow8internal17MakeCheckOpStringImmEEPNSt7__cxx1112basic_stringIcSt11char_traitsIcESaIcEEERKT_RKT0_PKc>:
  4065fd:	55                   	push   %rbp
  4065fe:	48 89 e5             	mov    %rsp,%rbp
  406601:	53                   	push   %rbx
  406602:	48 83 ec 38          	sub    $0x38,%rsp
  406606:	48 89 7d d8          	mov    %rdi,-0x28(%rbp)
  40660a:	48 89 75 d0          	mov    %rsi,-0x30(%rbp)
  40660e:	48 89 55 c8          	mov    %rdx,-0x38(%rbp)
  406612:	64 48 8b 04 25 28 00 	mov    %fs:0x28,%rax
  406619:	00 00 
  40661b:	48 89 45 e8          	mov    %rax,-0x18(%rbp)
  40661f:	31 c0                	xor    %eax,%eax
  406621:	48 8b 55 c8          	mov    -0x38(%rbp),%rdx
  406625:	48 8d 45 e0          	lea    -0x20(%rbp),%rax
  406629:	48 89 d6             	mov    %rdx,%rsi
  40662c:	48 89 c7             	mov    %rax,%rdi
  40662f:	e8 ac c9 ff ff       	callq  402fe0 <_ZN10tensorflow8internal21CheckOpMessageBuilderC1EPKc@plt>
  406634:	48 8d 45 e0          	lea    -0x20(%rbp),%rax
  406638:	48 89 c7             	mov    %rax,%rdi
  40663b:	e8 2c da ff ff       	callq  40406c <_ZN10tensorflow8internal21CheckOpMessageBuilder7ForVar1Ev>
  406640:	48 89 c2             	mov    %rax,%rdx
  406643:	48 8b 45 d8          	mov    -0x28(%rbp),%rax
  406647:	48 89 c6             	mov    %rax,%rsi
  40664a:	48 89 d7             	mov    %rdx,%rdi
  40664d:	e8 5b ff ff ff       	callq  4065ad <_ZN10tensorflow8internal22MakeCheckOpValueStringImEEvPSoRKT_>
  406652:	48 8d 45 e0          	lea    -0x20(%rbp),%rax
  406656:	48 89 c7             	mov    %rax,%rdi
  406659:	e8 82 ca ff ff       	callq  4030e0 <_ZN10tensorflow8internal21CheckOpMessageBuilder7ForVar2Ev@plt>
  40665e:	48 89 c2             	mov    %rax,%rdx
  406661:	48 8b 45 d0          	mov    -0x30(%rbp),%rax
  406665:	48 89 c6             	mov    %rax,%rsi
  406668:	48 89 d7             	mov    %rdx,%rdi
  40666b:	e8 3d ff ff ff       	callq  4065ad <_ZN10tensorflow8internal22MakeCheckOpValueStringImEEvPSoRKT_>
  406670:	48 8d 45 e0          	lea    -0x20(%rbp),%rax
  406674:	48 89 c7             	mov    %rax,%rdi
  406677:	e8 a4 c9 ff ff       	callq  403020 <_ZN10tensorflow8internal21CheckOpMessageBuilder9NewStringB5cxx11Ev@plt>
  40667c:	48 89 c3             	mov    %rax,%rbx
  40667f:	48 8d 45 e0          	lea    -0x20(%rbp),%rax
  406683:	48 89 c7             	mov    %rax,%rdi
  406686:	e8 75 c9 ff ff       	callq  403000 <_ZN10tensorflow8internal21CheckOpMessageBuilderD1Ev@plt>
  40668b:	48 89 d8             	mov    %rbx,%rax
  40668e:	48 8b 4d e8          	mov    -0x18(%rbp),%rcx
  406692:	64 48 33 0c 25 28 00 	xor    %fs:0x28,%rcx
  406699:	00 00 
  40669b:	74 21                	je     4066be <_ZN10tensorflow8internal17MakeCheckOpStringImmEEPNSt7__cxx1112basic_stringIcSt11char_traitsIcESaIcEEERKT_RKT0_PKc+0xc1>
  40669d:	eb 1a                	jmp    4066b9 <_ZN10tensorflow8internal17MakeCheckOpStringImmEEPNSt7__cxx1112basic_stringIcSt11char_traitsIcESaIcEEERKT_RKT0_PKc+0xbc>
  40669f:	48 89 c3             	mov    %rax,%rbx
  4066a2:	48 8d 45 e0          	lea    -0x20(%rbp),%rax
  4066a6:	48 89 c7             	mov    %rax,%rdi
  4066a9:	e8 52 c9 ff ff       	callq  403000 <_ZN10tensorflow8internal21CheckOpMessageBuilderD1Ev@plt>
  4066ae:	48 89 d8             	mov    %rbx,%rax
  4066b1:	48 89 c7             	mov    %rax,%rdi
  4066b4:	e8 57 c9 ff ff       	callq  403010 <_Unwind_Resume@plt>
  4066b9:	e8 a2 c6 ff ff       	callq  402d60 <__stack_chk_fail@plt>
  4066be:	48 83 c4 38          	add    $0x38,%rsp
  4066c2:	5b                   	pop    %rbx
  4066c3:	5d                   	pop    %rbp
  4066c4:	c3                   	retq   

00000000004066c5 <_ZNSt10_Head_baseILm1ESt14default_deleteIN10tensorflow6Status5StateEELb1EE7_M_headERS5_>:
  4066c5:	55                   	push   %rbp
  4066c6:	48 89 e5             	mov    %rsp,%rbp
  4066c9:	48 89 7d f8          	mov    %rdi,-0x8(%rbp)
  4066cd:	48 8b 45 f8          	mov    -0x8(%rbp),%rax
  4066d1:	5d                   	pop    %rbp
  4066d2:	c3                   	retq   

00000000004066d3 <_ZNSt11_Tuple_implILm1EJSt14default_deleteIN10tensorflow6Status5StateEEEE7_M_headERS5_>:
  4066d3:	55                   	push   %rbp
  4066d4:	48 89 e5             	mov    %rsp,%rbp
  4066d7:	48 83 ec 10          	sub    $0x10,%rsp
  4066db:	48 89 7d f8          	mov    %rdi,-0x8(%rbp)
  4066df:	48 8b 45 f8          	mov    -0x8(%rbp),%rax
  4066e3:	48 89 c7             	mov    %rax,%rdi
  4066e6:	e8 da ff ff ff       	callq  4066c5 <_ZNSt10_Head_baseILm1ESt14default_deleteIN10tensorflow6Status5StateEELb1EE7_M_headERS5_>
  4066eb:	c9                   	leaveq 
  4066ec:	c3                   	retq   

00000000004066ed <_ZSt12__get_helperILm1ESt14default_deleteIN10tensorflow6Status5StateEEJEERT0_RSt11_Tuple_implIXT_EJS5_DpT1_EE>:
  4066ed:	55                   	push   %rbp
  4066ee:	48 89 e5             	mov    %rsp,%rbp
  4066f1:	48 83 ec 10          	sub    $0x10,%rsp
  4066f5:	48 89 7d f8          	mov    %rdi,-0x8(%rbp)
  4066f9:	48 8b 45 f8          	mov    -0x8(%rbp),%rax
  4066fd:	48 89 c7             	mov    %rax,%rdi
  406700:	e8 ce ff ff ff       	callq  4066d3 <_ZNSt11_Tuple_implILm1EJSt14default_deleteIN10tensorflow6Status5StateEEEE7_M_headERS5_>
  406705:	c9                   	leaveq 
  406706:	c3                   	retq   

0000000000406707 <_ZSt3getILm1EJPN10tensorflow6Status5StateESt14default_deleteIS2_EEERNSt13tuple_elementIXT_ESt5tupleIJDpT0_EEE4typeERSA_>:
  406707:	55                   	push   %rbp
  406708:	48 89 e5             	mov    %rsp,%rbp
  40670b:	48 83 ec 10          	sub    $0x10,%rsp
  40670f:	48 89 7d f8          	mov    %rdi,-0x8(%rbp)
  406713:	48 8b 45 f8          	mov    -0x8(%rbp),%rax
  406717:	48 89 c7             	mov    %rax,%rdi
  40671a:	e8 ce ff ff ff       	callq  4066ed <_ZSt12__get_helperILm1ESt14default_deleteIN10tensorflow6Status5StateEEJEERT0_RSt11_Tuple_implIXT_EJS5_DpT1_EE>
  40671f:	c9                   	leaveq 
  406720:	c3                   	retq   
  406721:	90                   	nop

0000000000406722 <_ZNSt10unique_ptrIN10tensorflow6Status5StateESt14default_deleteIS2_EE11get_deleterEv>:
  406722:	55                   	push   %rbp
  406723:	48 89 e5             	mov    %rsp,%rbp
  406726:	48 83 ec 10          	sub    $0x10,%rsp
  40672a:	48 89 7d f8          	mov    %rdi,-0x8(%rbp)
  40672e:	48 8b 45 f8          	mov    -0x8(%rbp),%rax
  406732:	48 89 c7             	mov    %rax,%rdi
  406735:	e8 cd ff ff ff       	callq  406707 <_ZSt3getILm1EJPN10tensorflow6Status5StateESt14default_deleteIS2_EEERNSt13tuple_elementIXT_ESt5tupleIJDpT0_EEE4typeERSA_>
  40673a:	c9                   	leaveq 
  40673b:	c3                   	retq   

000000000040673c <_ZN10tensorflow6Status5StateD1Ev>:
  40673c:	55                   	push   %rbp
  40673d:	48 89 e5             	mov    %rsp,%rbp
  406740:	48 83 ec 10          	sub    $0x10,%rsp
  406744:	48 89 7d f8          	mov    %rdi,-0x8(%rbp)
  406748:	48 8b 45 f8          	mov    -0x8(%rbp),%rax
  40674c:	48 83 c0 08          	add    $0x8,%rax
  406750:	48 89 c7             	mov    %rax,%rdi
  406753:	e8 58 c7 ff ff       	callq  402eb0 <_ZNSt7__cxx1112basic_stringIcSt11char_traitsIcESaIcEED1Ev@plt>
  406758:	90                   	nop
  406759:	c9                   	leaveq 
  40675a:	c3                   	retq   
  40675b:	90                   	nop

000000000040675c <_ZNKSt14default_deleteIN10tensorflow6Status5StateEEclEPS2_>:
  40675c:	55                   	push   %rbp
  40675d:	48 89 e5             	mov    %rsp,%rbp
  406760:	53                   	push   %rbx
  406761:	48 83 ec 18          	sub    $0x18,%rsp
  406765:	48 89 7d e8          	mov    %rdi,-0x18(%rbp)
  406769:	48 89 75 e0          	mov    %rsi,-0x20(%rbp)
  40676d:	48 8b 5d e0          	mov    -0x20(%rbp),%rbx
  406771:	48 85 db             	test   %rbx,%rbx
  406774:	74 10                	je     406786 <_ZNKSt14default_deleteIN10tensorflow6Status5StateEEclEPS2_+0x2a>
  406776:	48 89 df             	mov    %rbx,%rdi
  406779:	e8 be ff ff ff       	callq  40673c <_ZN10tensorflow6Status5StateD1Ev>
  40677e:	48 89 df             	mov    %rbx,%rdi
  406781:	e8 0a c6 ff ff       	callq  402d90 <_ZdlPv@plt>
  406786:	90                   	nop
  406787:	48 83 c4 18          	add    $0x18,%rsp
  40678b:	5b                   	pop    %rbx
  40678c:	5d                   	pop    %rbp
  40678d:	c3                   	retq   

000000000040678e <_ZNKSt10unique_ptrIN10tensorflow6Status5StateESt14default_deleteIS2_EEcvbEv>:
  40678e:	55                   	push   %rbp
  40678f:	48 89 e5             	mov    %rsp,%rbp
  406792:	48 83 ec 10          	sub    $0x10,%rsp
  406796:	48 89 7d f8          	mov    %rdi,-0x8(%rbp)
  40679a:	48 8b 45 f8          	mov    -0x8(%rbp),%rax
  40679e:	48 89 c7             	mov    %rax,%rdi
  4067a1:	e8 f8 f1 ff ff       	callq  40599e <_ZNKSt10unique_ptrIN10tensorflow6Status5StateESt14default_deleteIS2_EE3getEv>
  4067a6:	48 85 c0             	test   %rax,%rax
  4067a9:	0f 95 c0             	setne  %al
  4067ac:	c9                   	leaveq 
  4067ad:	c3                   	retq   

00000000004067ae <_ZN10tensorflow8internal17MakeCheckOpStringIliEEPNSt7__cxx1112basic_stringIcSt11char_traitsIcESaIcEEERKT_RKT0_PKc>:
  4067ae:	55                   	push   %rbp
  4067af:	48 89 e5             	mov    %rsp,%rbp
  4067b2:	53                   	push   %rbx
  4067b3:	48 83 ec 38          	sub    $0x38,%rsp
  4067b7:	48 89 7d d8          	mov    %rdi,-0x28(%rbp)
  4067bb:	48 89 75 d0          	mov    %rsi,-0x30(%rbp)
  4067bf:	48 89 55 c8          	mov    %rdx,-0x38(%rbp)
  4067c3:	64 48 8b 04 25 28 00 	mov    %fs:0x28,%rax
  4067ca:	00 00 
  4067cc:	48 89 45 e8          	mov    %rax,-0x18(%rbp)
  4067d0:	31 c0                	xor    %eax,%eax
  4067d2:	48 8b 55 c8          	mov    -0x38(%rbp),%rdx
  4067d6:	48 8d 45 e0          	lea    -0x20(%rbp),%rax
  4067da:	48 89 d6             	mov    %rdx,%rsi
  4067dd:	48 89 c7             	mov    %rax,%rdi
  4067e0:	e8 fb c7 ff ff       	callq  402fe0 <_ZN10tensorflow8internal21CheckOpMessageBuilderC1EPKc@plt>
  4067e5:	48 8d 45 e0          	lea    -0x20(%rbp),%rax
  4067e9:	48 89 c7             	mov    %rax,%rdi
  4067ec:	e8 7b d8 ff ff       	callq  40406c <_ZN10tensorflow8internal21CheckOpMessageBuilder7ForVar1Ev>
  4067f1:	48 89 c2             	mov    %rax,%rdx
  4067f4:	48 8b 45 d8          	mov    -0x28(%rbp),%rax
  4067f8:	48 89 c6             	mov    %rax,%rsi
  4067fb:	48 89 d7             	mov    %rdx,%rdi
  4067fe:	e8 99 0a 00 00       	callq  40729c <_ZN10tensorflow8internal22MakeCheckOpValueStringIlEEvPSoRKT_>
  406803:	48 8d 45 e0          	lea    -0x20(%rbp),%rax
  406807:	48 89 c7             	mov    %rax,%rdi
  40680a:	e8 d1 c8 ff ff       	callq  4030e0 <_ZN10tensorflow8internal21CheckOpMessageBuilder7ForVar2Ev@plt>
  40680f:	48 89 c2             	mov    %rax,%rdx
  406812:	48 8b 45 d0          	mov    -0x30(%rbp),%rax
  406816:	48 89 c6             	mov    %rax,%rsi
  406819:	48 89 d7             	mov    %rdx,%rdi
  40681c:	e8 b5 fd ff ff       	callq  4065d6 <_ZN10tensorflow8internal22MakeCheckOpValueStringIiEEvPSoRKT_>
  406821:	48 8d 45 e0          	lea    -0x20(%rbp),%rax
  406825:	48 89 c7             	mov    %rax,%rdi
  406828:	e8 f3 c7 ff ff       	callq  403020 <_ZN10tensorflow8internal21CheckOpMessageBuilder9NewStringB5cxx11Ev@plt>
  40682d:	48 89 c3             	mov    %rax,%rbx
  406830:	48 8d 45 e0          	lea    -0x20(%rbp),%rax
  406834:	48 89 c7             	mov    %rax,%rdi
  406837:	e8 c4 c7 ff ff       	callq  403000 <_ZN10tensorflow8internal21CheckOpMessageBuilderD1Ev@plt>
  40683c:	48 89 d8             	mov    %rbx,%rax
  40683f:	48 8b 4d e8          	mov    -0x18(%rbp),%rcx
  406843:	64 48 33 0c 25 28 00 	xor    %fs:0x28,%rcx
  40684a:	00 00 
  40684c:	74 21                	je     40686f <_ZN10tensorflow8internal17MakeCheckOpStringIliEEPNSt7__cxx1112basic_stringIcSt11char_traitsIcESaIcEEERKT_RKT0_PKc+0xc1>
  40684e:	eb 1a                	jmp    40686a <_ZN10tensorflow8internal17MakeCheckOpStringIliEEPNSt7__cxx1112basic_stringIcSt11char_traitsIcESaIcEEERKT_RKT0_PKc+0xbc>
  406850:	48 89 c3             	mov    %rax,%rbx
  406853:	48 8d 45 e0          	lea    -0x20(%rbp),%rax
  406857:	48 89 c7             	mov    %rax,%rdi
  40685a:	e8 a1 c7 ff ff       	callq  403000 <_ZN10tensorflow8internal21CheckOpMessageBuilderD1Ev@plt>
  40685f:	48 89 d8             	mov    %rbx,%rax
  406862:	48 89 c7             	mov    %rax,%rdi
  406865:	e8 a6 c7 ff ff       	callq  403010 <_Unwind_Resume@plt>
  40686a:	e8 f1 c4 ff ff       	callq  402d60 <__stack_chk_fail@plt>
  40686f:	48 83 c4 38          	add    $0x38,%rsp
  406873:	5b                   	pop    %rbx
  406874:	5d                   	pop    %rbp
  406875:	c3                   	retq   

0000000000406876 <_ZNSt12_Vector_baseISt4pairIPN10tensorflow4NodeEiESaIS4_EE12_Vector_implD1Ev>:
  406876:	55                   	push   %rbp
  406877:	48 89 e5             	mov    %rsp,%rbp
  40687a:	48 83 ec 10          	sub    $0x10,%rsp
  40687e:	48 89 7d f8          	mov    %rdi,-0x8(%rbp)
  406882:	48 8b 45 f8          	mov    -0x8(%rbp),%rax
  406886:	48 89 c7             	mov    %rax,%rdi
  406889:	e8 0c 01 00 00       	callq  40699a <_ZNSaISt4pairIPN10tensorflow4NodeEiEED1Ev>
  40688e:	90                   	nop
  40688f:	c9                   	leaveq 
  406890:	c3                   	retq   
  406891:	90                   	nop

0000000000406892 <_ZNSt12_Vector_baseISt4pairIPN10tensorflow4NodeEiESaIS4_EED1Ev>:
  406892:	55                   	push   %rbp
  406893:	48 89 e5             	mov    %rsp,%rbp
  406896:	48 83 ec 10          	sub    $0x10,%rsp
  40689a:	48 89 7d f8          	mov    %rdi,-0x8(%rbp)
  40689e:	48 8b 45 f8          	mov    -0x8(%rbp),%rax
  4068a2:	48 8b 40 10          	mov    0x10(%rax),%rax
  4068a6:	48 89 c2             	mov    %rax,%rdx
  4068a9:	48 8b 45 f8          	mov    -0x8(%rbp),%rax
  4068ad:	48 8b 00             	mov    (%rax),%rax
  4068b0:	48 29 c2             	sub    %rax,%rdx
  4068b3:	48 89 d0             	mov    %rdx,%rax
  4068b6:	48 c1 f8 04          	sar    $0x4,%rax
  4068ba:	48 89 c2             	mov    %rax,%rdx
  4068bd:	48 8b 45 f8          	mov    -0x8(%rbp),%rax
  4068c1:	48 8b 08             	mov    (%rax),%rcx
  4068c4:	48 8b 45 f8          	mov    -0x8(%rbp),%rax
  4068c8:	48 89 ce             	mov    %rcx,%rsi
  4068cb:	48 89 c7             	mov    %rax,%rdi
  4068ce:	e8 1b 0a 00 00       	callq  4072ee <_ZNSt12_Vector_baseISt4pairIPN10tensorflow4NodeEiESaIS4_EE13_M_deallocateEPS4_m>
  4068d3:	48 8b 45 f8          	mov    -0x8(%rbp),%rax
  4068d7:	48 89 c7             	mov    %rax,%rdi
  4068da:	e8 97 ff ff ff       	callq  406876 <_ZNSt12_Vector_baseISt4pairIPN10tensorflow4NodeEiESaIS4_EE12_Vector_implD1Ev>
  4068df:	90                   	nop
  4068e0:	c9                   	leaveq 
  4068e1:	c3                   	retq   

00000000004068e2 <_ZNSt12_Vector_baseISt4pairIPN10tensorflow4NodeEiESaIS4_EE19_M_get_Tp_allocatorEv>:
  4068e2:	55                   	push   %rbp
  4068e3:	48 89 e5             	mov    %rsp,%rbp
  4068e6:	48 89 7d f8          	mov    %rdi,-0x8(%rbp)
  4068ea:	48 8b 45 f8          	mov    -0x8(%rbp),%rax
  4068ee:	5d                   	pop    %rbp
  4068ef:	c3                   	retq   

00000000004068f0 <_ZSt8_DestroyIPSt4pairIPN10tensorflow4NodeEiES4_EvT_S6_RSaIT0_E>:
  4068f0:	55                   	push   %rbp
  4068f1:	48 89 e5             	mov    %rsp,%rbp
  4068f4:	48 83 ec 20          	sub    $0x20,%rsp
  4068f8:	48 89 7d f8          	mov    %rdi,-0x8(%rbp)
  4068fc:	48 89 75 f0          	mov    %rsi,-0x10(%rbp)
  406900:	48 89 55 e8          	mov    %rdx,-0x18(%rbp)
  406904:	48 8b 55 f0          	mov    -0x10(%rbp),%rdx
  406908:	48 8b 45 f8          	mov    -0x8(%rbp),%rax
  40690c:	48 89 d6             	mov    %rdx,%rsi
  40690f:	48 89 c7             	mov    %rax,%rdi
  406912:	e8 0c 0a 00 00       	callq  407323 <_ZSt8_DestroyIPSt4pairIPN10tensorflow4NodeEiEEvT_S6_>
  406917:	90                   	nop
  406918:	c9                   	leaveq 
  406919:	c3                   	retq   

000000000040691a <_ZNKSt6vectorISt4pairIPN10tensorflow4NodeEiESaIS4_EE4sizeEv>:
  40691a:	55                   	push   %rbp
  40691b:	48 89 e5             	mov    %rsp,%rbp
  40691e:	48 89 7d f8          	mov    %rdi,-0x8(%rbp)
  406922:	48 8b 45 f8          	mov    -0x8(%rbp),%rax
  406926:	48 8b 40 08          	mov    0x8(%rax),%rax
  40692a:	48 89 c2             	mov    %rax,%rdx
  40692d:	48 8b 45 f8          	mov    -0x8(%rbp),%rax
  406931:	48 8b 00             	mov    (%rax),%rax
  406934:	48 29 c2             	sub    %rax,%rdx
  406937:	48 89 d0             	mov    %rdx,%rax
  40693a:	48 c1 f8 04          	sar    $0x4,%rax
  40693e:	5d                   	pop    %rbp
  40693f:	c3                   	retq   

0000000000406940 <_ZN9__gnu_cxx14__alloc_traitsISaISt4pairIPN10tensorflow4NodeEiEEE17_S_select_on_copyERKS6_>:
  406940:	55                   	push   %rbp
  406941:	48 89 e5             	mov    %rsp,%rbp
  406944:	48 83 ec 20          	sub    $0x20,%rsp
  406948:	48 89 7d e8          	mov    %rdi,-0x18(%rbp)
  40694c:	48 89 75 e0          	mov    %rsi,-0x20(%rbp)
  406950:	64 48 8b 04 25 28 00 	mov    %fs:0x28,%rax
  406957:	00 00 
  406959:	48 89 45 f8          	mov    %rax,-0x8(%rbp)
  40695d:	31 c0                	xor    %eax,%eax
  40695f:	48 8b 45 e8          	mov    -0x18(%rbp),%rax
  406963:	48 8b 55 e0          	mov    -0x20(%rbp),%rdx
  406967:	48 89 d6             	mov    %rdx,%rsi
  40696a:	48 89 c7             	mov    %rax,%rdi
  40696d:	e8 d7 09 00 00       	callq  407349 <_ZNSt16allocator_traitsISaISt4pairIPN10tensorflow4NodeEiEEE37select_on_container_copy_constructionERKS5_>
  406972:	48 8b 45 e8          	mov    -0x18(%rbp),%rax
  406976:	48 8b 4d f8          	mov    -0x8(%rbp),%rcx
  40697a:	64 48 33 0c 25 28 00 	xor    %fs:0x28,%rcx
  406981:	00 00 
  406983:	74 05                	je     40698a <_ZN9__gnu_cxx14__alloc_traitsISaISt4pairIPN10tensorflow4NodeEiEEE17_S_select_on_copyERKS6_+0x4a>
  406985:	e8 d6 c3 ff ff       	callq  402d60 <__stack_chk_fail@plt>
  40698a:	c9                   	leaveq 
  40698b:	c3                   	retq   

000000000040698c <_ZNKSt12_Vector_baseISt4pairIPN10tensorflow4NodeEiESaIS4_EE19_M_get_Tp_allocatorEv>:
  40698c:	55                   	push   %rbp
  40698d:	48 89 e5             	mov    %rsp,%rbp
  406990:	48 89 7d f8          	mov    %rdi,-0x8(%rbp)
  406994:	48 8b 45 f8          	mov    -0x8(%rbp),%rax
  406998:	5d                   	pop    %rbp
  406999:	c3                   	retq   

000000000040699a <_ZNSaISt4pairIPN10tensorflow4NodeEiEED1Ev>:
  40699a:	55                   	push   %rbp
  40699b:	48 89 e5             	mov    %rsp,%rbp
  40699e:	48 83 ec 10          	sub    $0x10,%rsp
  4069a2:	48 89 7d f8          	mov    %rdi,-0x8(%rbp)
  4069a6:	48 8b 45 f8          	mov    -0x8(%rbp),%rax
  4069aa:	48 89 c7             	mov    %rax,%rdi
  4069ad:	e8 e6 09 00 00       	callq  407398 <_ZN9__gnu_cxx13new_allocatorISt4pairIPN10tensorflow4NodeEiEED1Ev>
  4069b2:	90                   	nop
  4069b3:	c9                   	leaveq 
  4069b4:	c3                   	retq   
  4069b5:	90                   	nop

00000000004069b6 <_ZNSt12_Vector_baseISt4pairIPN10tensorflow4NodeEiESaIS4_EEC1EmRKS5_>:
  4069b6:	55                   	push   %rbp
  4069b7:	48 89 e5             	mov    %rsp,%rbp
  4069ba:	53                   	push   %rbx
  4069bb:	48 83 ec 28          	sub    $0x28,%rsp
  4069bf:	48 89 7d e8          	mov    %rdi,-0x18(%rbp)
  4069c3:	48 89 75 e0          	mov    %rsi,-0x20(%rbp)
  4069c7:	48 89 55 d8          	mov    %rdx,-0x28(%rbp)
  4069cb:	48 8b 45 e8          	mov    -0x18(%rbp),%rax
  4069cf:	48 8b 55 d8          	mov    -0x28(%rbp),%rdx
  4069d3:	48 89 d6             	mov    %rdx,%rsi
  4069d6:	48 89 c7             	mov    %rax,%rdi
  4069d9:	e8 c6 09 00 00       	callq  4073a4 <_ZNSt12_Vector_baseISt4pairIPN10tensorflow4NodeEiESaIS4_EE12_Vector_implC1ERKS5_>
  4069de:	48 8b 55 e0          	mov    -0x20(%rbp),%rdx
  4069e2:	48 8b 45 e8          	mov    -0x18(%rbp),%rax
  4069e6:	48 89 d6             	mov    %rdx,%rsi
  4069e9:	48 89 c7             	mov    %rax,%rdi
  4069ec:	e8 fd 09 00 00       	callq  4073ee <_ZNSt12_Vector_baseISt4pairIPN10tensorflow4NodeEiESaIS4_EE17_M_create_storageEm>
  4069f1:	eb 1a                	jmp    406a0d <_ZNSt12_Vector_baseISt4pairIPN10tensorflow4NodeEiESaIS4_EEC1EmRKS5_+0x57>
  4069f3:	48 89 c3             	mov    %rax,%rbx
  4069f6:	48 8b 45 e8          	mov    -0x18(%rbp),%rax
  4069fa:	48 89 c7             	mov    %rax,%rdi
  4069fd:	e8 74 fe ff ff       	callq  406876 <_ZNSt12_Vector_baseISt4pairIPN10tensorflow4NodeEiESaIS4_EE12_Vector_implD1Ev>
  406a02:	48 89 d8             	mov    %rbx,%rax
  406a05:	48 89 c7             	mov    %rax,%rdi
  406a08:	e8 03 c6 ff ff       	callq  403010 <_Unwind_Resume@plt>
  406a0d:	48 83 c4 28          	add    $0x28,%rsp
  406a11:	5b                   	pop    %rbx
  406a12:	5d                   	pop    %rbp
  406a13:	c3                   	retq   

0000000000406a14 <_ZNKSt6vectorISt4pairIPN10tensorflow4NodeEiESaIS4_EE5beginEv>:
  406a14:	55                   	push   %rbp
  406a15:	48 89 e5             	mov    %rsp,%rbp
  406a18:	48 83 ec 30          	sub    $0x30,%rsp
  406a1c:	48 89 7d d8          	mov    %rdi,-0x28(%rbp)
  406a20:	64 48 8b 04 25 28 00 	mov    %fs:0x28,%rax
  406a27:	00 00 
  406a29:	48 89 45 f8          	mov    %rax,-0x8(%rbp)
  406a2d:	31 c0                	xor    %eax,%eax
  406a2f:	48 8b 45 d8          	mov    -0x28(%rbp),%rax
  406a33:	48 8b 00             	mov    (%rax),%rax
  406a36:	48 89 45 e8          	mov    %rax,-0x18(%rbp)
  406a3a:	48 8d 55 e8          	lea    -0x18(%rbp),%rdx
  406a3e:	48 8d 45 f0          	lea    -0x10(%rbp),%rax
  406a42:	48 89 d6             	mov    %rdx,%rsi
  406a45:	48 89 c7             	mov    %rax,%rdi
  406a48:	e8 fb 09 00 00       	callq  407448 <_ZN9__gnu_cxx17__normal_iteratorIPKSt4pairIPN10tensorflow4NodeEiESt6vectorIS5_SaIS5_EEEC1ERKS7_>
  406a4d:	48 8b 45 f0          	mov    -0x10(%rbp),%rax
  406a51:	48 8b 4d f8          	mov    -0x8(%rbp),%rcx
  406a55:	64 48 33 0c 25 28 00 	xor    %fs:0x28,%rcx
  406a5c:	00 00 
  406a5e:	74 05                	je     406a65 <_ZNKSt6vectorISt4pairIPN10tensorflow4NodeEiESaIS4_EE5beginEv+0x51>
  406a60:	e8 fb c2 ff ff       	callq  402d60 <__stack_chk_fail@plt>
  406a65:	c9                   	leaveq 
  406a66:	c3                   	retq   
  406a67:	90                   	nop

0000000000406a68 <_ZNKSt6vectorISt4pairIPN10tensorflow4NodeEiESaIS4_EE3endEv>:
  406a68:	55                   	push   %rbp
  406a69:	48 89 e5             	mov    %rsp,%rbp
  406a6c:	48 83 ec 30          	sub    $0x30,%rsp
  406a70:	48 89 7d d8          	mov    %rdi,-0x28(%rbp)
  406a74:	64 48 8b 04 25 28 00 	mov    %fs:0x28,%rax
  406a7b:	00 00 
  406a7d:	48 89 45 f8          	mov    %rax,-0x8(%rbp)
  406a81:	31 c0                	xor    %eax,%eax
  406a83:	48 8b 45 d8          	mov    -0x28(%rbp),%rax
  406a87:	48 8b 40 08          	mov    0x8(%rax),%rax
  406a8b:	48 89 45 e8          	mov    %rax,-0x18(%rbp)
  406a8f:	48 8d 55 e8          	lea    -0x18(%rbp),%rdx
  406a93:	48 8d 45 f0          	lea    -0x10(%rbp),%rax
  406a97:	48 89 d6             	mov    %rdx,%rsi
  406a9a:	48 89 c7             	mov    %rax,%rdi
  406a9d:	e8 a6 09 00 00       	callq  407448 <_ZN9__gnu_cxx17__normal_iteratorIPKSt4pairIPN10tensorflow4NodeEiESt6vectorIS5_SaIS5_EEEC1ERKS7_>
  406aa2:	48 8b 45 f0          	mov    -0x10(%rbp),%rax
  406aa6:	48 8b 4d f8          	mov    -0x8(%rbp),%rcx
  406aaa:	64 48 33 0c 25 28 00 	xor    %fs:0x28,%rcx
  406ab1:	00 00 
  406ab3:	74 05                	je     406aba <_ZNKSt6vectorISt4pairIPN10tensorflow4NodeEiESaIS4_EE3endEv+0x52>
  406ab5:	e8 a6 c2 ff ff       	callq  402d60 <__stack_chk_fail@plt>
  406aba:	c9                   	leaveq 
  406abb:	c3                   	retq   

0000000000406abc <_ZSt22__uninitialized_copy_aIN9__gnu_cxx17__normal_iteratorIPKSt4pairIPN10tensorflow4NodeEiESt6vectorIS6_SaIS6_EEEEPS6_S6_ET0_T_SF_SE_RSaIT1_E>:
  406abc:	55                   	push   %rbp
  406abd:	48 89 e5             	mov    %rsp,%rbp
  406ac0:	48 83 ec 20          	sub    $0x20,%rsp
  406ac4:	48 89 7d f8          	mov    %rdi,-0x8(%rbp)
  406ac8:	48 89 75 f0          	mov    %rsi,-0x10(%rbp)
  406acc:	48 89 55 e8          	mov    %rdx,-0x18(%rbp)
  406ad0:	48 89 4d e0          	mov    %rcx,-0x20(%rbp)
  406ad4:	48 8b 55 e8          	mov    -0x18(%rbp),%rdx
  406ad8:	48 8b 4d f0          	mov    -0x10(%rbp),%rcx
  406adc:	48 8b 45 f8          	mov    -0x8(%rbp),%rax
  406ae0:	48 89 ce             	mov    %rcx,%rsi
  406ae3:	48 89 c7             	mov    %rax,%rdi
  406ae6:	e8 7a 09 00 00       	callq  407465 <_ZSt18uninitialized_copyIN9__gnu_cxx17__normal_iteratorIPKSt4pairIPN10tensorflow4NodeEiESt6vectorIS6_SaIS6_EEEEPS6_ET0_T_SF_SE_>
  406aeb:	c9                   	leaveq 
  406aec:	c3                   	retq   
  406aed:	90                   	nop

0000000000406aee <_ZNSt8iteratorISt26random_access_iterator_tagN10tensorflow15DeviceStepStatsElPS2_RS2_EC1Ev>:
  406aee:	55                   	push   %rbp
  406aef:	48 89 e5             	mov    %rsp,%rbp
  406af2:	48 89 7d f8          	mov    %rdi,-0x8(%rbp)
  406af6:	90                   	nop
  406af7:	5d                   	pop    %rbp
  406af8:	c3                   	retq   
  406af9:	90                   	nop

0000000000406afa <_ZN6google8protobuf8internal19RepeatedPtrIteratorIN10tensorflow15DeviceStepStatsEEC1EPKPv>:
  406afa:	55                   	push   %rbp
  406afb:	48 89 e5             	mov    %rsp,%rbp
  406afe:	48 83 ec 10          	sub    $0x10,%rsp
  406b02:	48 89 7d f8          	mov    %rdi,-0x8(%rbp)
  406b06:	48 89 75 f0          	mov    %rsi,-0x10(%rbp)
  406b0a:	48 8b 45 f8          	mov    -0x8(%rbp),%rax
  406b0e:	48 89 c7             	mov    %rax,%rdi
  406b11:	e8 d8 ff ff ff       	callq  406aee <_ZNSt8iteratorISt26random_access_iterator_tagN10tensorflow15DeviceStepStatsElPS2_RS2_EC1Ev>
  406b16:	48 8b 45 f8          	mov    -0x8(%rbp),%rax
  406b1a:	48 8b 55 f0          	mov    -0x10(%rbp),%rdx
  406b1e:	48 89 10             	mov    %rdx,(%rax)
  406b21:	90                   	nop
  406b22:	c9                   	leaveq 
  406b23:	c3                   	retq   

0000000000406b24 <_ZNSt8iteratorISt26random_access_iterator_tagKN10tensorflow15DeviceStepStatsElPS3_RS3_EC1Ev>:
  406b24:	55                   	push   %rbp
  406b25:	48 89 e5             	mov    %rsp,%rbp
  406b28:	48 89 7d f8          	mov    %rdi,-0x8(%rbp)
  406b2c:	90                   	nop
  406b2d:	5d                   	pop    %rbp
  406b2e:	c3                   	retq   
  406b2f:	90                   	nop

0000000000406b30 <_ZN6google8protobuf8internal19RepeatedPtrIteratorIKN10tensorflow15DeviceStepStatsEEC1IS4_EERKNS2_IT_EE>:
  406b30:	55                   	push   %rbp
  406b31:	48 89 e5             	mov    %rsp,%rbp
  406b34:	48 83 ec 20          	sub    $0x20,%rsp
  406b38:	48 89 7d e8          	mov    %rdi,-0x18(%rbp)
  406b3c:	48 89 75 e0          	mov    %rsi,-0x20(%rbp)
  406b40:	64 48 8b 04 25 28 00 	mov    %fs:0x28,%rax
  406b47:	00 00 
  406b49:	48 89 45 f8          	mov    %rax,-0x8(%rbp)
  406b4d:	31 c0                	xor    %eax,%eax
  406b4f:	48 8b 45 e8          	mov    -0x18(%rbp),%rax
  406b53:	48 89 c7             	mov    %rax,%rdi
  406b56:	e8 c9 ff ff ff       	callq  406b24 <_ZNSt8iteratorISt26random_access_iterator_tagKN10tensorflow15DeviceStepStatsElPS3_RS3_EC1Ev>
  406b5b:	48 8b 45 e0          	mov    -0x20(%rbp),%rax
  406b5f:	48 8b 10             	mov    (%rax),%rdx
  406b62:	48 8b 45 e8          	mov    -0x18(%rbp),%rax
  406b66:	48 89 10             	mov    %rdx,(%rax)
  406b69:	90                   	nop
  406b6a:	48 8b 45 f8          	mov    -0x8(%rbp),%rax
  406b6e:	64 48 33 04 25 28 00 	xor    %fs:0x28,%rax
  406b75:	00 00 
  406b77:	74 05                	je     406b7e <_ZN6google8protobuf8internal19RepeatedPtrIteratorIKN10tensorflow15DeviceStepStatsEEC1IS4_EERKNS2_IT_EE+0x4e>
  406b79:	e8 e2 c1 ff ff       	callq  402d60 <__stack_chk_fail@plt>
  406b7e:	c9                   	leaveq 
  406b7f:	c3                   	retq   

0000000000406b80 <_ZNSt8iteratorISt26random_access_iterator_tagN10tensorflow13NodeExecStatsElPS2_RS2_EC1Ev>:
  406b80:	55                   	push   %rbp
  406b81:	48 89 e5             	mov    %rsp,%rbp
  406b84:	48 89 7d f8          	mov    %rdi,-0x8(%rbp)
  406b88:	90                   	nop
  406b89:	5d                   	pop    %rbp
  406b8a:	c3                   	retq   
  406b8b:	90                   	nop

0000000000406b8c <_ZN6google8protobuf8internal19RepeatedPtrIteratorIN10tensorflow13NodeExecStatsEEC1EPKPv>:
  406b8c:	55                   	push   %rbp
  406b8d:	48 89 e5             	mov    %rsp,%rbp
  406b90:	48 83 ec 10          	sub    $0x10,%rsp
  406b94:	48 89 7d f8          	mov    %rdi,-0x8(%rbp)
  406b98:	48 89 75 f0          	mov    %rsi,-0x10(%rbp)
  406b9c:	48 8b 45 f8          	mov    -0x8(%rbp),%rax
  406ba0:	48 89 c7             	mov    %rax,%rdi
  406ba3:	e8 d8 ff ff ff       	callq  406b80 <_ZNSt8iteratorISt26random_access_iterator_tagN10tensorflow13NodeExecStatsElPS2_RS2_EC1Ev>
  406ba8:	48 8b 45 f8          	mov    -0x8(%rbp),%rax
  406bac:	48 8b 55 f0          	mov    -0x10(%rbp),%rdx
  406bb0:	48 89 10             	mov    %rdx,(%rax)
  406bb3:	90                   	nop
  406bb4:	c9                   	leaveq 
  406bb5:	c3                   	retq   

0000000000406bb6 <_ZNSt8iteratorISt26random_access_iterator_tagKN10tensorflow13NodeExecStatsElPS3_RS3_EC1Ev>:
  406bb6:	55                   	push   %rbp
  406bb7:	48 89 e5             	mov    %rsp,%rbp
  406bba:	48 89 7d f8          	mov    %rdi,-0x8(%rbp)
  406bbe:	90                   	nop
  406bbf:	5d                   	pop    %rbp
  406bc0:	c3                   	retq   
  406bc1:	90                   	nop

0000000000406bc2 <_ZN6google8protobuf8internal19RepeatedPtrIteratorIKN10tensorflow13NodeExecStatsEEC1IS4_EERKNS2_IT_EE>:
  406bc2:	55                   	push   %rbp
  406bc3:	48 89 e5             	mov    %rsp,%rbp
  406bc6:	48 83 ec 20          	sub    $0x20,%rsp
  406bca:	48 89 7d e8          	mov    %rdi,-0x18(%rbp)
  406bce:	48 89 75 e0          	mov    %rsi,-0x20(%rbp)
  406bd2:	64 48 8b 04 25 28 00 	mov    %fs:0x28,%rax
  406bd9:	00 00 
  406bdb:	48 89 45 f8          	mov    %rax,-0x8(%rbp)
  406bdf:	31 c0                	xor    %eax,%eax
  406be1:	48 8b 45 e8          	mov    -0x18(%rbp),%rax
  406be5:	48 89 c7             	mov    %rax,%rdi
  406be8:	e8 c9 ff ff ff       	callq  406bb6 <_ZNSt8iteratorISt26random_access_iterator_tagKN10tensorflow13NodeExecStatsElPS3_RS3_EC1Ev>
  406bed:	48 8b 45 e0          	mov    -0x20(%rbp),%rax
  406bf1:	48 8b 10             	mov    (%rax),%rdx
  406bf4:	48 8b 45 e8          	mov    -0x18(%rbp),%rax
  406bf8:	48 89 10             	mov    %rdx,(%rax)
  406bfb:	90                   	nop
  406bfc:	48 8b 45 f8          	mov    -0x8(%rbp),%rax
  406c00:	64 48 33 04 25 28 00 	xor    %fs:0x28,%rax
  406c07:	00 00 
  406c09:	74 05                	je     406c10 <_ZN6google8protobuf8internal19RepeatedPtrIteratorIKN10tensorflow13NodeExecStatsEEC1IS4_EERKNS2_IT_EE+0x4e>
  406c0b:	e8 50 c1 ff ff       	callq  402d60 <__stack_chk_fail@plt>
  406c10:	c9                   	leaveq 
  406c11:	c3                   	retq   

0000000000406c12 <_ZNKSt16initializer_listIxE5beginEv>:
  406c12:	55                   	push   %rbp
  406c13:	48 89 e5             	mov    %rsp,%rbp
  406c16:	48 89 7d f8          	mov    %rdi,-0x8(%rbp)
  406c1a:	48 8b 45 f8          	mov    -0x8(%rbp),%rax
  406c1e:	48 8b 00             	mov    (%rax),%rax
  406c21:	5d                   	pop    %rbp
  406c22:	c3                   	retq   
  406c23:	90                   	nop

0000000000406c24 <_ZNKSt16initializer_listIxE4sizeEv>:
  406c24:	55                   	push   %rbp
  406c25:	48 89 e5             	mov    %rsp,%rbp
  406c28:	48 89 7d f8          	mov    %rdi,-0x8(%rbp)
  406c2c:	48 8b 45 f8          	mov    -0x8(%rbp),%rax
  406c30:	48 8b 40 08          	mov    0x8(%rax),%rax
  406c34:	5d                   	pop    %rbp
  406c35:	c3                   	retq   

0000000000406c36 <_ZN10tensorflow3gtl20array_slice_internal14ArraySliceImplIxEC1EPKxm>:
  406c36:	55                   	push   %rbp
  406c37:	48 89 e5             	mov    %rsp,%rbp
  406c3a:	48 83 ec 20          	sub    $0x20,%rsp
  406c3e:	48 89 7d f8          	mov    %rdi,-0x8(%rbp)
  406c42:	48 89 75 f0          	mov    %rsi,-0x10(%rbp)
  406c46:	48 89 55 e8          	mov    %rdx,-0x18(%rbp)
  406c4a:	48 8b 55 e8          	mov    -0x18(%rbp),%rdx
  406c4e:	48 8b 4d f0          	mov    -0x10(%rbp),%rcx
  406c52:	48 8b 45 f8          	mov    -0x8(%rbp),%rax
  406c56:	48 89 ce             	mov    %rcx,%rsi
  406c59:	48 89 c7             	mov    %rax,%rdi
  406c5c:	e8 35 08 00 00       	callq  407496 <_ZN10tensorflow3gtl20array_slice_internal18ArraySliceImplBaseIKxEC1EPS3_m>
  406c61:	90                   	nop
  406c62:	c9                   	leaveq 
  406c63:	c3                   	retq   

0000000000406c64 <_ZN10tensorflow3gtl10ArraySliceIxEC1ESt16initializer_listIxE>:
  406c64:	55                   	push   %rbp
  406c65:	48 89 e5             	mov    %rsp,%rbp
  406c68:	53                   	push   %rbx
  406c69:	48 83 ec 28          	sub    $0x28,%rsp
  406c6d:	48 89 7d e8          	mov    %rdi,-0x18(%rbp)
  406c71:	48 89 f0             	mov    %rsi,%rax
  406c74:	48 89 d1             	mov    %rdx,%rcx
  406c77:	48 89 ca             	mov    %rcx,%rdx
  406c7a:	48 89 45 d0          	mov    %rax,-0x30(%rbp)
  406c7e:	48 89 55 d8          	mov    %rdx,-0x28(%rbp)
  406c82:	48 8d 45 d0          	lea    -0x30(%rbp),%rax
  406c86:	48 89 c7             	mov    %rax,%rdi
  406c89:	e8 96 ff ff ff       	callq  406c24 <_ZNKSt16initializer_listIxE4sizeEv>
  406c8e:	48 89 c3             	mov    %rax,%rbx
  406c91:	48 8d 45 d0          	lea    -0x30(%rbp),%rax
  406c95:	48 89 c7             	mov    %rax,%rdi
  406c98:	e8 75 ff ff ff       	callq  406c12 <_ZNKSt16initializer_listIxE5beginEv>
  406c9d:	48 89 c1             	mov    %rax,%rcx
  406ca0:	48 8b 45 e8          	mov    -0x18(%rbp),%rax
  406ca4:	48 89 da             	mov    %rbx,%rdx
  406ca7:	48 89 ce             	mov    %rcx,%rsi
  406caa:	48 89 c7             	mov    %rax,%rdi
  406cad:	e8 84 ff ff ff       	callq  406c36 <_ZN10tensorflow3gtl20array_slice_internal14ArraySliceImplIxEC1EPKxm>
  406cb2:	90                   	nop
  406cb3:	48 83 c4 28          	add    $0x28,%rsp
  406cb7:	5b                   	pop    %rbx
  406cb8:	5d                   	pop    %rbp
  406cb9:	c3                   	retq   

0000000000406cba <_ZN2CK12log_raw_dataIfEEvPT_RKNS_5ShapeEPKcS7_>:
  406cba:	55                   	push   %rbp
  406cbb:	48 89 e5             	mov    %rsp,%rbp
  406cbe:	48 83 ec 20          	sub    $0x20,%rsp
  406cc2:	48 89 7d f8          	mov    %rdi,-0x8(%rbp)
  406cc6:	48 89 75 f0          	mov    %rsi,-0x10(%rbp)
  406cca:	48 89 55 e8          	mov    %rdx,-0x18(%rbp)
  406cce:	48 89 4d e0          	mov    %rcx,-0x20(%rbp)
  406cd2:	48 83 7d e8 00       	cmpq   $0x0,-0x18(%rbp)
  406cd7:	74 1c                	je     406cf5 <_ZN2CK12log_raw_dataIfEEvPT_RKNS_5ShapeEPKcS7_+0x3b>
  406cd9:	48 8b 45 e8          	mov    -0x18(%rbp),%rax
  406cdd:	be 00 00 00 00       	mov    $0x0,%esi
  406ce2:	48 89 c7             	mov    %rax,%rdi
  406ce5:	e8 5d e1 ff ff       	callq  404e47 <_ZN2CK8getenv_iEPKci>
  406cea:	85 c0                	test   %eax,%eax
  406cec:	74 07                	je     406cf5 <_ZN2CK12log_raw_dataIfEEvPT_RKNS_5ShapeEPKcS7_+0x3b>
  406cee:	b8 01 00 00 00       	mov    $0x1,%eax
  406cf3:	eb 05                	jmp    406cfa <_ZN2CK12log_raw_dataIfEEvPT_RKNS_5ShapeEPKcS7_+0x40>
  406cf5:	b8 00 00 00 00       	mov    $0x0,%eax
  406cfa:	84 c0                	test   %al,%al
  406cfc:	74 30                	je     406d2e <_ZN2CK12log_raw_dataIfEEvPT_RKNS_5ShapeEPKcS7_+0x74>
  406cfe:	48 83 7d e0 00       	cmpq   $0x0,-0x20(%rbp)
  406d03:	74 16                	je     406d1b <_ZN2CK12log_raw_dataIfEEvPT_RKNS_5ShapeEPKcS7_+0x61>
  406d05:	48 8b 45 e0          	mov    -0x20(%rbp),%rax
  406d09:	48 89 c6             	mov    %rax,%rsi
  406d0c:	bf 19 93 40 00       	mov    $0x409319,%edi
  406d11:	b8 00 00 00 00       	mov    $0x0,%eax
  406d16:	e8 25 c1 ff ff       	callq  402e40 <printf@plt>
  406d1b:	48 8b 55 f0          	mov    -0x10(%rbp),%rdx
  406d1f:	48 8b 45 f8          	mov    -0x8(%rbp),%rax
  406d23:	48 89 d6             	mov    %rdx,%rsi
  406d26:	48 89 c7             	mov    %rax,%rdi
  406d29:	e8 92 07 00 00       	callq  4074c0 <_ZN2CK14print_raw_dataIfEEvPT_RKNS_5ShapeE>
  406d2e:	90                   	nop
  406d2f:	c9                   	leaveq 
  406d30:	c3                   	retq   
  406d31:	90                   	nop

0000000000406d32 <_ZN10tensorflow6Tensor6shapedIfLm1EEENS_6TTypesIT_XT0_ElE6TensorENS_3gtl10ArraySliceIxEE>:
  406d32:	55                   	push   %rbp
  406d33:	48 89 e5             	mov    %rsp,%rbp
  406d36:	48 83 ec 50          	sub    $0x50,%rsp
  406d3a:	48 89 7d c8          	mov    %rdi,-0x38(%rbp)
  406d3e:	48 89 f0             	mov    %rsi,%rax
  406d41:	48 89 d1             	mov    %rdx,%rcx
  406d44:	48 89 ca             	mov    %rcx,%rdx
  406d47:	48 89 45 b0          	mov    %rax,-0x50(%rbp)
  406d4b:	48 89 55 b8          	mov    %rdx,-0x48(%rbp)
  406d4f:	64 48 8b 04 25 28 00 	mov    %fs:0x28,%rax
  406d56:	00 00 
  406d58:	48 89 45 f8          	mov    %rax,-0x8(%rbp)
  406d5c:	31 c0                	xor    %eax,%eax
  406d5e:	e8 88 d6 ff ff       	callq  4043eb <_ZN10tensorflow14DataTypeToEnumIfE1vEv>
  406d63:	89 c2                	mov    %eax,%edx
  406d65:	48 8b 45 c8          	mov    -0x38(%rbp),%rax
  406d69:	89 d6                	mov    %edx,%esi
  406d6b:	48 89 c7             	mov    %rax,%rdi
  406d6e:	e8 bd c2 ff ff       	callq  403030 <_ZNK10tensorflow6Tensor21CheckTypeAndIsAlignedENS_8DataTypeE@plt>
  406d73:	48 8d 4d d8          	lea    -0x28(%rbp),%rcx
  406d77:	48 8b 75 b0          	mov    -0x50(%rbp),%rsi
  406d7b:	48 8b 55 b8          	mov    -0x48(%rbp),%rdx
  406d7f:	48 8b 45 c8          	mov    -0x38(%rbp),%rax
  406d83:	48 89 c7             	mov    %rax,%rdi
  406d86:	e8 67 08 00 00       	callq  4075f2 <_ZNK10tensorflow6Tensor34FillDimsAndValidateCompatibleShapeILm1EEEvNS_3gtl10ArraySliceIxEEPSt5arrayIlXT_EE>
  406d8b:	48 8b 45 c8          	mov    -0x38(%rbp),%rax
  406d8f:	48 89 c7             	mov    %rax,%rdi
  406d92:	e8 e3 0a 00 00       	callq  40787a <_ZNK10tensorflow6Tensor4baseIfEEPT_v>
  406d97:	48 89 c1             	mov    %rax,%rcx
  406d9a:	48 8d 55 d8          	lea    -0x28(%rbp),%rdx
  406d9e:	48 8d 45 e0          	lea    -0x20(%rbp),%rax
  406da2:	48 89 ce             	mov    %rcx,%rsi
  406da5:	48 89 c7             	mov    %rax,%rdi
  406da8:	e8 27 0b 00 00       	callq  4078d4 <_ZN5Eigen9TensorMapINS_6TensorIfLi1ELi1ElEELi16ENS_11MakePointerEEC1EPfRKSt5arrayIlLm1EE>
  406dad:	48 8b 45 e0          	mov    -0x20(%rbp),%rax
  406db1:	48 8b 55 e8          	mov    -0x18(%rbp),%rdx
  406db5:	48 8b 7d f8          	mov    -0x8(%rbp),%rdi
  406db9:	64 48 33 3c 25 28 00 	xor    %fs:0x28,%rdi
  406dc0:	00 00 
  406dc2:	74 05                	je     406dc9 <_ZN10tensorflow6Tensor6shapedIfLm1EEENS_6TTypesIT_XT0_ElE6TensorENS_3gtl10ArraySliceIxEE+0x97>
  406dc4:	e8 97 bf ff ff       	callq  402d60 <__stack_chk_fail@plt>
  406dc9:	c9                   	leaveq 
  406dca:	c3                   	retq   
  406dcb:	90                   	nop

0000000000406dcc <_ZNSt12_Vector_baseIN10tensorflow6TensorESaIS1_EE12_Vector_implD1Ev>:
  406dcc:	55                   	push   %rbp
  406dcd:	48 89 e5             	mov    %rsp,%rbp
  406dd0:	48 83 ec 10          	sub    $0x10,%rsp
  406dd4:	48 89 7d f8          	mov    %rdi,-0x8(%rbp)
  406dd8:	48 8b 45 f8          	mov    -0x8(%rbp),%rax
  406ddc:	48 89 c7             	mov    %rax,%rdi
  406ddf:	e8 74 0b 00 00       	callq  407958 <_ZNSaIN10tensorflow6TensorEED1Ev>
  406de4:	90                   	nop
  406de5:	c9                   	leaveq 
  406de6:	c3                   	retq   
  406de7:	90                   	nop

0000000000406de8 <_ZNSt12_Vector_baseIN10tensorflow6TensorESaIS1_EEC1Ev>:
  406de8:	55                   	push   %rbp
  406de9:	48 89 e5             	mov    %rsp,%rbp
  406dec:	48 83 ec 10          	sub    $0x10,%rsp
  406df0:	48 89 7d f8          	mov    %rdi,-0x8(%rbp)
  406df4:	48 8b 45 f8          	mov    -0x8(%rbp),%rax
  406df8:	48 89 c7             	mov    %rax,%rdi
  406dfb:	e8 1a 0b 00 00       	callq  40791a <_ZNSt12_Vector_baseIN10tensorflow6TensorESaIS1_EE12_Vector_implC1Ev>
  406e00:	90                   	nop
  406e01:	c9                   	leaveq 
  406e02:	c3                   	retq   
  406e03:	90                   	nop

0000000000406e04 <_ZNSt12_Vector_baseIN10tensorflow6TensorESaIS1_EED1Ev>:
  406e04:	55                   	push   %rbp
  406e05:	48 89 e5             	mov    %rsp,%rbp
  406e08:	48 83 ec 10          	sub    $0x10,%rsp
  406e0c:	48 89 7d f8          	mov    %rdi,-0x8(%rbp)
  406e10:	48 8b 45 f8          	mov    -0x8(%rbp),%rax
  406e14:	48 8b 40 10          	mov    0x10(%rax),%rax
  406e18:	48 89 c2             	mov    %rax,%rdx
  406e1b:	48 8b 45 f8          	mov    -0x8(%rbp),%rax
  406e1f:	48 8b 00             	mov    (%rax),%rax
  406e22:	48 29 c2             	sub    %rax,%rdx
  406e25:	48 89 d0             	mov    %rdx,%rax
  406e28:	48 c1 f8 05          	sar    $0x5,%rax
  406e2c:	48 89 c2             	mov    %rax,%rdx
  406e2f:	48 8b 45 f8          	mov    -0x8(%rbp),%rax
  406e33:	48 8b 08             	mov    (%rax),%rcx
  406e36:	48 8b 45 f8          	mov    -0x8(%rbp),%rax
  406e3a:	48 89 ce             	mov    %rcx,%rsi
  406e3d:	48 89 c7             	mov    %rax,%rdi
  406e40:	e8 2f 0b 00 00       	callq  407974 <_ZNSt12_Vector_baseIN10tensorflow6TensorESaIS1_EE13_M_deallocateEPS1_m>
  406e45:	48 8b 45 f8          	mov    -0x8(%rbp),%rax
  406e49:	48 89 c7             	mov    %rax,%rdi
  406e4c:	e8 7b ff ff ff       	callq  406dcc <_ZNSt12_Vector_baseIN10tensorflow6TensorESaIS1_EE12_Vector_implD1Ev>
  406e51:	90                   	nop
  406e52:	c9                   	leaveq 
  406e53:	c3                   	retq   

0000000000406e54 <_ZNSt12_Vector_baseIN10tensorflow6TensorESaIS1_EE19_M_get_Tp_allocatorEv>:
  406e54:	55                   	push   %rbp
  406e55:	48 89 e5             	mov    %rsp,%rbp
  406e58:	48 89 7d f8          	mov    %rdi,-0x8(%rbp)
  406e5c:	48 8b 45 f8          	mov    -0x8(%rbp),%rax
  406e60:	5d                   	pop    %rbp
  406e61:	c3                   	retq   

0000000000406e62 <_ZSt8_DestroyIPN10tensorflow6TensorES1_EvT_S3_RSaIT0_E>:
  406e62:	55                   	push   %rbp
  406e63:	48 89 e5             	mov    %rsp,%rbp
  406e66:	48 83 ec 20          	sub    $0x20,%rsp
  406e6a:	48 89 7d f8          	mov    %rdi,-0x8(%rbp)
  406e6e:	48 89 75 f0          	mov    %rsi,-0x10(%rbp)
  406e72:	48 89 55 e8          	mov    %rdx,-0x18(%rbp)
  406e76:	48 8b 55 f0          	mov    -0x10(%rbp),%rdx
  406e7a:	48 8b 45 f8          	mov    -0x8(%rbp),%rax
  406e7e:	48 89 d6             	mov    %rdx,%rsi
  406e81:	48 89 c7             	mov    %rax,%rdi
  406e84:	e8 20 0b 00 00       	callq  4079a9 <_ZSt8_DestroyIPN10tensorflow6TensorEEvT_S3_>
  406e89:	90                   	nop
  406e8a:	c9                   	leaveq 
  406e8b:	c3                   	retq   

0000000000406e8c <_ZN10tensorflow6Tensor4flatIiEENS_6TTypesIT_Li1ElE4FlatEv>:
  406e8c:	55                   	push   %rbp
  406e8d:	48 89 e5             	mov    %rsp,%rbp
  406e90:	41 55                	push   %r13
  406e92:	41 54                	push   %r12
  406e94:	53                   	push   %rbx
  406e95:	48 83 ec 38          	sub    $0x38,%rsp
  406e99:	48 89 7d b8          	mov    %rdi,-0x48(%rbp)
  406e9d:	64 48 8b 04 25 28 00 	mov    %fs:0x28,%rax
  406ea4:	00 00 
  406ea6:	48 89 45 d8          	mov    %rax,-0x28(%rbp)
  406eaa:	31 c0                	xor    %eax,%eax
  406eac:	48 8b 45 b8          	mov    -0x48(%rbp),%rax
  406eb0:	48 89 c7             	mov    %rax,%rdi
  406eb3:	e8 2a d8 ff ff       	callq  4046e2 <_ZNK10tensorflow6Tensor11NumElementsEv>
  406eb8:	48 89 45 d0          	mov    %rax,-0x30(%rbp)
  406ebc:	48 8d 45 d0          	lea    -0x30(%rbp),%rax
  406ec0:	49 89 c4             	mov    %rax,%r12
  406ec3:	41 bd 01 00 00 00    	mov    $0x1,%r13d
  406ec9:	4c 89 e1             	mov    %r12,%rcx
  406ecc:	4c 89 eb             	mov    %r13,%rbx
  406ecf:	4c 89 e0             	mov    %r12,%rax
  406ed2:	4c 89 ea             	mov    %r13,%rdx
  406ed5:	48 8d 45 c0          	lea    -0x40(%rbp),%rax
  406ed9:	48 89 ce             	mov    %rcx,%rsi
  406edc:	48 89 c7             	mov    %rax,%rdi
  406edf:	e8 80 fd ff ff       	callq  406c64 <_ZN10tensorflow3gtl10ArraySliceIxEC1ESt16initializer_listIxE>
  406ee4:	48 8b 4d c0          	mov    -0x40(%rbp),%rcx
  406ee8:	48 8b 55 c8          	mov    -0x38(%rbp),%rdx
  406eec:	48 8b 45 b8          	mov    -0x48(%rbp),%rax
  406ef0:	48 89 ce             	mov    %rcx,%rsi
  406ef3:	48 89 c7             	mov    %rax,%rdi
  406ef6:	e8 d5 0a 00 00       	callq  4079d0 <_ZN10tensorflow6Tensor6shapedIiLm1EEENS_6TTypesIT_XT0_ElE6TensorENS_3gtl10ArraySliceIxEE>
  406efb:	48 8b 5d d8          	mov    -0x28(%rbp),%rbx
  406eff:	64 48 33 1c 25 28 00 	xor    %fs:0x28,%rbx
  406f06:	00 00 
  406f08:	74 05                	je     406f0f <_ZN10tensorflow6Tensor4flatIiEENS_6TTypesIT_Li1ElE4FlatEv+0x83>
  406f0a:	e8 51 be ff ff       	callq  402d60 <__stack_chk_fail@plt>
  406f0f:	48 83 c4 38          	add    $0x38,%rsp
  406f13:	5b                   	pop    %rbx
  406f14:	41 5c                	pop    %r12
  406f16:	41 5d                	pop    %r13
  406f18:	5d                   	pop    %rbp
  406f19:	c3                   	retq   

0000000000406f1a <_ZN5Eigen9TensorMapINS_6TensorIiLi1ELi1ElEELi16ENS_11MakePointerEE4dataEv>:
  406f1a:	55                   	push   %rbp
  406f1b:	48 89 e5             	mov    %rsp,%rbp
  406f1e:	48 89 7d f8          	mov    %rdi,-0x8(%rbp)
  406f22:	48 8b 45 f8          	mov    -0x8(%rbp),%rax
  406f26:	48 8b 00             	mov    (%rax),%rax
  406f29:	5d                   	pop    %rbp
  406f2a:	c3                   	retq   

0000000000406f2b <_ZSt6copy_nIPKimPiET1_T_T0_S3_>:
  406f2b:	55                   	push   %rbp
  406f2c:	48 89 e5             	mov    %rsp,%rbp
  406f2f:	53                   	push   %rbx
  406f30:	48 83 ec 38          	sub    $0x38,%rsp
  406f34:	48 89 7d d8          	mov    %rdi,-0x28(%rbp)
  406f38:	48 89 75 d0          	mov    %rsi,-0x30(%rbp)
  406f3c:	48 89 55 c8          	mov    %rdx,-0x38(%rbp)
  406f40:	64 48 8b 04 25 28 00 	mov    %fs:0x28,%rax
  406f47:	00 00 
  406f49:	48 89 45 e8          	mov    %rax,-0x18(%rbp)
  406f4d:	31 c0                	xor    %eax,%eax
  406f4f:	48 8d 45 d8          	lea    -0x28(%rbp),%rax
  406f53:	48 89 c7             	mov    %rax,%rdi
  406f56:	e8 0e 0b 00 00       	callq  407a69 <_ZSt19__iterator_categoryIPKiENSt15iterator_traitsIT_E17iterator_categoryERKS3_>
  406f5b:	48 8b 45 d8          	mov    -0x28(%rbp),%rax
  406f5f:	48 8b 55 c8          	mov    -0x38(%rbp),%rdx
  406f63:	48 8b 4d d0          	mov    -0x30(%rbp),%rcx
  406f67:	48 83 ec 08          	sub    $0x8,%rsp
  406f6b:	53                   	push   %rbx
  406f6c:	48 89 ce             	mov    %rcx,%rsi
  406f6f:	48 89 c7             	mov    %rax,%rdi
  406f72:	e8 fc 0a 00 00       	callq  407a73 <_ZSt8__copy_nIPKimPiET1_T_T0_S3_St26random_access_iterator_tag>
  406f77:	48 83 c4 10          	add    $0x10,%rsp
  406f7b:	48 8b 5d e8          	mov    -0x18(%rbp),%rbx
  406f7f:	64 48 33 1c 25 28 00 	xor    %fs:0x28,%rbx
  406f86:	00 00 
  406f88:	74 05                	je     406f8f <_ZSt6copy_nIPKimPiET1_T_T0_S3_+0x64>
  406f8a:	e8 d1 bd ff ff       	callq  402d60 <__stack_chk_fail@plt>
  406f8f:	48 8b 5d f8          	mov    -0x8(%rbp),%rbx
  406f93:	c9                   	leaveq 
  406f94:	c3                   	retq   
  406f95:	90                   	nop

0000000000406f96 <_ZN9__gnu_cxx13new_allocatorINSt8__detail10_Hash_nodeISt4pairIKN10tensorflow6OutputENS4_5Input11InitializerEELb1EEEEC1Ev>:
  406f96:	55                   	push   %rbp
  406f97:	48 89 e5             	mov    %rsp,%rbp
  406f9a:	48 89 7d f8          	mov    %rdi,-0x8(%rbp)
  406f9e:	90                   	nop
  406f9f:	5d                   	pop    %rbp
  406fa0:	c3                   	retq   
  406fa1:	90                   	nop

0000000000406fa2 <_ZN9__gnu_cxx13new_allocatorINSt8__detail10_Hash_nodeISt4pairIKN10tensorflow6OutputENS4_5Input11InitializerEELb1EEEED1Ev>:
  406fa2:	55                   	push   %rbp
  406fa3:	48 89 e5             	mov    %rsp,%rbp
  406fa6:	48 89 7d f8          	mov    %rdi,-0x8(%rbp)
  406faa:	90                   	nop
  406fab:	5d                   	pop    %rbp
  406fac:	c3                   	retq   
  406fad:	90                   	nop

0000000000406fae <_ZNSt10_HashtableIN10tensorflow6OutputESt4pairIKS1_NS0_5Input11InitializerEESaIS6_ENSt8__detail10_Select1stESt8equal_toIS1_ENS0_10OutputHashENS8_18_Mod_range_hashingENS8_20_Default_ranged_hashENS8_20_Prime_rehash_policyENS8_17_Hashtable_traitsILb1ELb0ELb1EEEE5clearEv>:
  406fae:	55                   	push   %rbp
  406faf:	48 89 e5             	mov    %rsp,%rbp
  406fb2:	48 83 ec 10          	sub    $0x10,%rsp
  406fb6:	48 89 7d f8          	mov    %rdi,-0x8(%rbp)
  406fba:	48 8b 45 f8          	mov    -0x8(%rbp),%rax
  406fbe:	48 89 c7             	mov    %rax,%rdi
  406fc1:	e8 ea 0a 00 00       	callq  407ab0 <_ZNKSt10_HashtableIN10tensorflow6OutputESt4pairIKS1_NS0_5Input11InitializerEESaIS6_ENSt8__detail10_Select1stESt8equal_toIS1_ENS0_10OutputHashENS8_18_Mod_range_hashingENS8_20_Default_ranged_hashENS8_20_Prime_rehash_policyENS8_17_Hashtable_traitsILb1ELb0ELb1EEEE8_M_beginEv>
  406fc6:	48 89 c2             	mov    %rax,%rdx
  406fc9:	48 8b 45 f8          	mov    -0x8(%rbp),%rax
  406fcd:	48 89 d6             	mov    %rdx,%rsi
  406fd0:	48 89 c7             	mov    %rax,%rdi
  406fd3:	e8 ea 0a 00 00       	callq  407ac2 <_ZNSt8__detail16_Hashtable_allocISaINS_10_Hash_nodeISt4pairIKN10tensorflow6OutputENS3_5Input11InitializerEELb1EEEEE19_M_deallocate_nodesEPS9_>
  406fd8:	48 8b 45 f8          	mov    -0x8(%rbp),%rax
  406fdc:	48 8b 40 08          	mov    0x8(%rax),%rax
  406fe0:	48 8d 14 c5 00 00 00 	lea    0x0(,%rax,8),%rdx
  406fe7:	00 
  406fe8:	48 8b 45 f8          	mov    -0x8(%rbp),%rax
  406fec:	48 8b 00             	mov    (%rax),%rax
  406fef:	be 00 00 00 00       	mov    $0x0,%esi
  406ff4:	48 89 c7             	mov    %rax,%rdi
  406ff7:	e8 74 bd ff ff       	callq  402d70 <memset@plt>
  406ffc:	48 8b 45 f8          	mov    -0x8(%rbp),%rax
  407000:	48 c7 40 18 00 00 00 	movq   $0x0,0x18(%rax)
  407007:	00 
  407008:	48 8b 45 f8          	mov    -0x8(%rbp),%rax
  40700c:	48 c7 40 10 00 00 00 	movq   $0x0,0x10(%rax)
  407013:	00 
  407014:	90                   	nop
  407015:	c9                   	leaveq 
  407016:	c3                   	retq   
  407017:	90                   	nop

0000000000407018 <_ZNSt10_HashtableIN10tensorflow6OutputESt4pairIKS1_NS0_5Input11InitializerEESaIS6_ENSt8__detail10_Select1stESt8equal_toIS1_ENS0_10OutputHashENS8_18_Mod_range_hashingENS8_20_Default_ranged_hashENS8_20_Prime_rehash_policyENS8_17_Hashtable_traitsILb1ELb0ELb1EEEE21_M_deallocate_bucketsEv>:
  407018:	55                   	push   %rbp
  407019:	48 89 e5             	mov    %rsp,%rbp
  40701c:	48 83 ec 10          	sub    $0x10,%rsp
  407020:	48 89 7d f8          	mov    %rdi,-0x8(%rbp)
  407024:	48 8b 45 f8          	mov    -0x8(%rbp),%rax
  407028:	48 8b 50 08          	mov    0x8(%rax),%rdx
  40702c:	48 8b 45 f8          	mov    -0x8(%rbp),%rax
  407030:	48 8b 08             	mov    (%rax),%rcx
  407033:	48 8b 45 f8          	mov    -0x8(%rbp),%rax
  407037:	48 89 ce             	mov    %rcx,%rsi
  40703a:	48 89 c7             	mov    %rax,%rdi
  40703d:	e8 c8 0a 00 00       	callq  407b0a <_ZNSt10_HashtableIN10tensorflow6OutputESt4pairIKS1_NS0_5Input11InitializerEESaIS6_ENSt8__detail10_Select1stESt8equal_toIS1_ENS0_10OutputHashENS8_18_Mod_range_hashingENS8_20_Default_ranged_hashENS8_20_Prime_rehash_policyENS8_17_Hashtable_traitsILb1ELb0ELb1EEEE21_M_deallocate_bucketsEPPNS8_15_Hash_node_baseEm>
  407042:	90                   	nop
  407043:	c9                   	leaveq 
  407044:	c3                   	retq   
  407045:	90                   	nop

0000000000407046 <_ZN9__gnu_cxx13new_allocatorIN10tensorflow6OutputEEC1Ev>:
  407046:	55                   	push   %rbp
  407047:	48 89 e5             	mov    %rsp,%rbp
  40704a:	48 89 7d f8          	mov    %rdi,-0x8(%rbp)
  40704e:	90                   	nop
  40704f:	5d                   	pop    %rbp
  407050:	c3                   	retq   
  407051:	90                   	nop

0000000000407052 <_ZN9__gnu_cxx13new_allocatorIN10tensorflow6OutputEED1Ev>:
  407052:	55                   	push   %rbp
  407053:	48 89 e5             	mov    %rsp,%rbp
  407056:	48 89 7d f8          	mov    %rdi,-0x8(%rbp)
  40705a:	90                   	nop
  40705b:	5d                   	pop    %rbp
  40705c:	c3                   	retq   
  40705d:	90                   	nop

000000000040705e <_ZNSt12_Vector_baseIN10tensorflow6OutputESaIS1_EE12_Vector_implD1Ev>:
  40705e:	55                   	push   %rbp
  40705f:	48 89 e5             	mov    %rsp,%rbp
  407062:	48 83 ec 10          	sub    $0x10,%rsp
  407066:	48 89 7d f8          	mov    %rdi,-0x8(%rbp)
  40706a:	48 8b 45 f8          	mov    -0x8(%rbp),%rax
  40706e:	48 89 c7             	mov    %rax,%rdi
  407071:	e8 66 f2 ff ff       	callq  4062dc <_ZNSaIN10tensorflow6OutputEED1Ev>
  407076:	90                   	nop
  407077:	c9                   	leaveq 
  407078:	c3                   	retq   
  407079:	90                   	nop

000000000040707a <_ZNSt12_Vector_baseIN10tensorflow6OutputESaIS1_EEC1ERKS2_>:
  40707a:	55                   	push   %rbp
  40707b:	48 89 e5             	mov    %rsp,%rbp
  40707e:	48 83 ec 10          	sub    $0x10,%rsp
  407082:	48 89 7d f8          	mov    %rdi,-0x8(%rbp)
  407086:	48 89 75 f0          	mov    %rsi,-0x10(%rbp)
  40708a:	48 8b 45 f8          	mov    -0x8(%rbp),%rax
  40708e:	48 8b 55 f0          	mov    -0x10(%rbp),%rdx
  407092:	48 89 d6             	mov    %rdx,%rsi
  407095:	48 89 c7             	mov    %rax,%rdi
  407098:	e8 b5 0a 00 00       	callq  407b52 <_ZNSt12_Vector_baseIN10tensorflow6OutputESaIS1_EE12_Vector_implC1ERKS2_>
  40709d:	90                   	nop
  40709e:	c9                   	leaveq 
  40709f:	c3                   	retq   

00000000004070a0 <_ZNSt12_Vector_baseIN10tensorflow6OutputESaIS1_EED1Ev>:
  4070a0:	55                   	push   %rbp
  4070a1:	48 89 e5             	mov    %rsp,%rbp
  4070a4:	48 83 ec 10          	sub    $0x10,%rsp
  4070a8:	48 89 7d f8          	mov    %rdi,-0x8(%rbp)
  4070ac:	48 8b 45 f8          	mov    -0x8(%rbp),%rax
  4070b0:	48 8b 40 10          	mov    0x10(%rax),%rax
  4070b4:	48 89 c2             	mov    %rax,%rdx
  4070b7:	48 8b 45 f8          	mov    -0x8(%rbp),%rax
  4070bb:	48 8b 00             	mov    (%rax),%rax
  4070be:	48 29 c2             	sub    %rax,%rdx
  4070c1:	48 89 d0             	mov    %rdx,%rax
  4070c4:	48 c1 f8 03          	sar    $0x3,%rax
  4070c8:	48 89 c2             	mov    %rax,%rdx
  4070cb:	48 b8 cd cc cc cc cc 	movabs $0xcccccccccccccccd,%rax
  4070d2:	cc cc cc 
  4070d5:	48 0f af c2          	imul   %rdx,%rax
  4070d9:	48 89 c2             	mov    %rax,%rdx
  4070dc:	48 8b 45 f8          	mov    -0x8(%rbp),%rax
  4070e0:	48 8b 08             	mov    (%rax),%rcx
  4070e3:	48 8b 45 f8          	mov    -0x8(%rbp),%rax
  4070e7:	48 89 ce             	mov    %rcx,%rsi
  4070ea:	48 89 c7             	mov    %rax,%rdi
  4070ed:	e8 aa 0a 00 00       	callq  407b9c <_ZNSt12_Vector_baseIN10tensorflow6OutputESaIS1_EE13_M_deallocateEPS1_m>
  4070f2:	48 8b 45 f8          	mov    -0x8(%rbp),%rax
  4070f6:	48 89 c7             	mov    %rax,%rdi
  4070f9:	e8 60 ff ff ff       	callq  40705e <_ZNSt12_Vector_baseIN10tensorflow6OutputESaIS1_EE12_Vector_implD1Ev>
  4070fe:	90                   	nop
  4070ff:	c9                   	leaveq 
  407100:	c3                   	retq   
  407101:	90                   	nop

0000000000407102 <_ZNSt6vectorIN10tensorflow6OutputESaIS1_EE19_M_range_initializeIPKS1_EEvT_S7_St20forward_iterator_tag>:
  407102:	55                   	push   %rbp
  407103:	48 89 e5             	mov    %rsp,%rbp
  407106:	48 83 ec 30          	sub    $0x30,%rsp
  40710a:	48 89 7d e8          	mov    %rdi,-0x18(%rbp)
  40710e:	48 89 75 e0          	mov    %rsi,-0x20(%rbp)
  407112:	48 89 55 d8          	mov    %rdx,-0x28(%rbp)
  407116:	48 8b 55 d8          	mov    -0x28(%rbp),%rdx
  40711a:	48 8b 45 e0          	mov    -0x20(%rbp),%rax
  40711e:	48 89 d6             	mov    %rdx,%rsi
  407121:	48 89 c7             	mov    %rax,%rdi
  407124:	e8 a8 0a 00 00       	callq  407bd1 <_ZSt8distanceIPKN10tensorflow6OutputEENSt15iterator_traitsIT_E15difference_typeES5_S5_>
  407129:	48 89 45 f8          	mov    %rax,-0x8(%rbp)
  40712d:	48 8b 45 e8          	mov    -0x18(%rbp),%rax
  407131:	48 8b 55 f8          	mov    -0x8(%rbp),%rdx
  407135:	48 89 d6             	mov    %rdx,%rsi
  407138:	48 89 c7             	mov    %rax,%rdi
  40713b:	e8 f4 0a 00 00       	callq  407c34 <_ZNSt12_Vector_baseIN10tensorflow6OutputESaIS1_EE11_M_allocateEm>
  407140:	48 89 c2             	mov    %rax,%rdx
  407143:	48 8b 45 e8          	mov    -0x18(%rbp),%rax
  407147:	48 89 10             	mov    %rdx,(%rax)
  40714a:	48 8b 45 e8          	mov    -0x18(%rbp),%rax
  40714e:	48 8b 08             	mov    (%rax),%rcx
  407151:	48 8b 55 f8          	mov    -0x8(%rbp),%rdx
  407155:	48 89 d0             	mov    %rdx,%rax
  407158:	48 c1 e0 02          	shl    $0x2,%rax
  40715c:	48 01 d0             	add    %rdx,%rax
  40715f:	48 c1 e0 03          	shl    $0x3,%rax
  407163:	48 8d 14 01          	lea    (%rcx,%rax,1),%rdx
  407167:	48 8b 45 e8          	mov    -0x18(%rbp),%rax
  40716b:	48 89 50 10          	mov    %rdx,0x10(%rax)
  40716f:	48 8b 45 e8          	mov    -0x18(%rbp),%rax
  407173:	48 89 c7             	mov    %rax,%rdi
  407176:	e8 29 00 00 00       	callq  4071a4 <_ZNSt12_Vector_baseIN10tensorflow6OutputESaIS1_EE19_M_get_Tp_allocatorEv>
  40717b:	48 89 c1             	mov    %rax,%rcx
  40717e:	48 8b 45 e8          	mov    -0x18(%rbp),%rax
  407182:	48 8b 10             	mov    (%rax),%rdx
  407185:	48 8b 75 d8          	mov    -0x28(%rbp),%rsi
  407189:	48 8b 45 e0          	mov    -0x20(%rbp),%rax
  40718d:	48 89 c7             	mov    %rax,%rdi
  407190:	e8 d2 0a 00 00       	callq  407c67 <_ZSt22__uninitialized_copy_aIPKN10tensorflow6OutputEPS1_S1_ET0_T_S6_S5_RSaIT1_E>
  407195:	48 89 c2             	mov    %rax,%rdx
  407198:	48 8b 45 e8          	mov    -0x18(%rbp),%rax
  40719c:	48 89 50 08          	mov    %rdx,0x8(%rax)
  4071a0:	90                   	nop
  4071a1:	c9                   	leaveq 
  4071a2:	c3                   	retq   
  4071a3:	90                   	nop

00000000004071a4 <_ZNSt12_Vector_baseIN10tensorflow6OutputESaIS1_EE19_M_get_Tp_allocatorEv>:
  4071a4:	55                   	push   %rbp
  4071a5:	48 89 e5             	mov    %rsp,%rbp
  4071a8:	48 89 7d f8          	mov    %rdi,-0x8(%rbp)
  4071ac:	48 8b 45 f8          	mov    -0x8(%rbp),%rax
  4071b0:	5d                   	pop    %rbp
  4071b1:	c3                   	retq   

00000000004071b2 <_ZSt8_DestroyIPN10tensorflow6OutputES1_EvT_S3_RSaIT0_E>:
  4071b2:	55                   	push   %rbp
  4071b3:	48 89 e5             	mov    %rsp,%rbp
  4071b6:	48 83 ec 20          	sub    $0x20,%rsp
  4071ba:	48 89 7d f8          	mov    %rdi,-0x8(%rbp)
  4071be:	48 89 75 f0          	mov    %rsi,-0x10(%rbp)
  4071c2:	48 89 55 e8          	mov    %rdx,-0x18(%rbp)
  4071c6:	48 8b 55 f0          	mov    -0x10(%rbp),%rdx
  4071ca:	48 8b 45 f8          	mov    -0x8(%rbp),%rax
  4071ce:	48 89 d6             	mov    %rdx,%rsi
  4071d1:	48 89 c7             	mov    %rax,%rdi
  4071d4:	e8 bf 0a 00 00       	callq  407c98 <_ZSt8_DestroyIPN10tensorflow6OutputEEvT_S3_>
  4071d9:	90                   	nop
  4071da:	c9                   	leaveq 
  4071db:	c3                   	retq   

00000000004071dc <_ZNSt12_Vector_baseIN10tensorflow9OperationESaIS1_EE12_Vector_implD1Ev>:
  4071dc:	55                   	push   %rbp
  4071dd:	48 89 e5             	mov    %rsp,%rbp
  4071e0:	48 83 ec 10          	sub    $0x10,%rsp
  4071e4:	48 89 7d f8          	mov    %rdi,-0x8(%rbp)
  4071e8:	48 8b 45 f8          	mov    -0x8(%rbp),%rax
  4071ec:	48 89 c7             	mov    %rax,%rdi
  4071ef:	e8 08 0b 00 00       	callq  407cfc <_ZNSaIN10tensorflow9OperationEED1Ev>
  4071f4:	90                   	nop
  4071f5:	c9                   	leaveq 
  4071f6:	c3                   	retq   
  4071f7:	90                   	nop

00000000004071f8 <_ZNSt12_Vector_baseIN10tensorflow9OperationESaIS1_EEC1Ev>:
  4071f8:	55                   	push   %rbp
  4071f9:	48 89 e5             	mov    %rsp,%rbp
  4071fc:	48 83 ec 10          	sub    $0x10,%rsp
  407200:	48 89 7d f8          	mov    %rdi,-0x8(%rbp)
  407204:	48 8b 45 f8          	mov    -0x8(%rbp),%rax
  407208:	48 89 c7             	mov    %rax,%rdi
  40720b:	e8 ae 0a 00 00       	callq  407cbe <_ZNSt12_Vector_baseIN10tensorflow9OperationESaIS1_EE12_Vector_implC1Ev>
  407210:	90                   	nop
  407211:	c9                   	leaveq 
  407212:	c3                   	retq   
  407213:	90                   	nop

0000000000407214 <_ZNSt12_Vector_baseIN10tensorflow9OperationESaIS1_EED1Ev>:
  407214:	55                   	push   %rbp
  407215:	48 89 e5             	mov    %rsp,%rbp
  407218:	48 83 ec 10          	sub    $0x10,%rsp
  40721c:	48 89 7d f8          	mov    %rdi,-0x8(%rbp)
  407220:	48 8b 45 f8          	mov    -0x8(%rbp),%rax
  407224:	48 8b 40 10          	mov    0x10(%rax),%rax
  407228:	48 89 c2             	mov    %rax,%rdx
  40722b:	48 8b 45 f8          	mov    -0x8(%rbp),%rax
  40722f:	48 8b 00             	mov    (%rax),%rax
  407232:	48 29 c2             	sub    %rax,%rdx
  407235:	48 89 d0             	mov    %rdx,%rax
  407238:	48 c1 f8 05          	sar    $0x5,%rax
  40723c:	48 89 c2             	mov    %rax,%rdx
  40723f:	48 8b 45 f8          	mov    -0x8(%rbp),%rax
  407243:	48 8b 08             	mov    (%rax),%rcx
  407246:	48 8b 45 f8          	mov    -0x8(%rbp),%rax
  40724a:	48 89 ce             	mov    %rcx,%rsi
  40724d:	48 89 c7             	mov    %rax,%rdi
  407250:	e8 c3 0a 00 00       	callq  407d18 <_ZNSt12_Vector_baseIN10tensorflow9OperationESaIS1_EE13_M_deallocateEPS1_m>
  407255:	48 8b 45 f8          	mov    -0x8(%rbp),%rax
  407259:	48 89 c7             	mov    %rax,%rdi
  40725c:	e8 7b ff ff ff       	callq  4071dc <_ZNSt12_Vector_baseIN10tensorflow9OperationESaIS1_EE12_Vector_implD1Ev>
  407261:	90                   	nop
  407262:	c9                   	leaveq 
  407263:	c3                   	retq   

0000000000407264 <_ZNSt12_Vector_baseIN10tensorflow9OperationESaIS1_EE19_M_get_Tp_allocatorEv>:
  407264:	55                   	push   %rbp
  407265:	48 89 e5             	mov    %rsp,%rbp
  407268:	48 89 7d f8          	mov    %rdi,-0x8(%rbp)
  40726c:	48 8b 45 f8          	mov    -0x8(%rbp),%rax
  407270:	5d                   	pop    %rbp
  407271:	c3                   	retq   

0000000000407272 <_ZSt8_DestroyIPN10tensorflow9OperationES1_EvT_S3_RSaIT0_E>:
  407272:	55                   	push   %rbp
  407273:	48 89 e5             	mov    %rsp,%rbp
  407276:	48 83 ec 20          	sub    $0x20,%rsp
  40727a:	48 89 7d f8          	mov    %rdi,-0x8(%rbp)
  40727e:	48 89 75 f0          	mov    %rsi,-0x10(%rbp)
  407282:	48 89 55 e8          	mov    %rdx,-0x18(%rbp)
  407286:	48 8b 55 f0          	mov    -0x10(%rbp),%rdx
  40728a:	48 8b 45 f8          	mov    -0x8(%rbp),%rax
  40728e:	48 89 d6             	mov    %rdx,%rsi
  407291:	48 89 c7             	mov    %rax,%rdi
  407294:	e8 b4 0a 00 00       	callq  407d4d <_ZSt8_DestroyIPN10tensorflow9OperationEEvT_S3_>
  407299:	90                   	nop
  40729a:	c9                   	leaveq 
  40729b:	c3                   	retq   

000000000040729c <_ZN10tensorflow8internal22MakeCheckOpValueStringIlEEvPSoRKT_>:
  40729c:	55                   	push   %rbp
  40729d:	48 89 e5             	mov    %rsp,%rbp
  4072a0:	48 83 ec 10          	sub    $0x10,%rsp
  4072a4:	48 89 7d f8          	mov    %rdi,-0x8(%rbp)
  4072a8:	48 89 75 f0          	mov    %rsi,-0x10(%rbp)
  4072ac:	48 8b 45 f0          	mov    -0x10(%rbp),%rax
  4072b0:	48 8b 10             	mov    (%rax),%rdx
  4072b3:	48 8b 45 f8          	mov    -0x8(%rbp),%rax
  4072b7:	48 89 d6             	mov    %rdx,%rsi
  4072ba:	48 89 c7             	mov    %rax,%rdi
  4072bd:	e8 ee bc ff ff       	callq  402fb0 <_ZNSolsEl@plt>
  4072c2:	90                   	nop
  4072c3:	c9                   	leaveq 
  4072c4:	c3                   	retq   

00000000004072c5 <_ZN10tensorflow8internal22MakeCheckOpValueStringIxEEvPSoRKT_>:
  4072c5:	55                   	push   %rbp
  4072c6:	48 89 e5             	mov    %rsp,%rbp
  4072c9:	48 83 ec 10          	sub    $0x10,%rsp
  4072cd:	48 89 7d f8          	mov    %rdi,-0x8(%rbp)
  4072d1:	48 89 75 f0          	mov    %rsi,-0x10(%rbp)
  4072d5:	48 8b 45 f0          	mov    -0x10(%rbp),%rax
  4072d9:	48 8b 10             	mov    (%rax),%rdx
  4072dc:	48 8b 45 f8          	mov    -0x8(%rbp),%rax
  4072e0:	48 89 d6             	mov    %rdx,%rsi
  4072e3:	48 89 c7             	mov    %rax,%rdi
  4072e6:	e8 05 bd ff ff       	callq  402ff0 <_ZNSolsEx@plt>
  4072eb:	90                   	nop
  4072ec:	c9                   	leaveq 
  4072ed:	c3                   	retq   

00000000004072ee <_ZNSt12_Vector_baseISt4pairIPN10tensorflow4NodeEiESaIS4_EE13_M_deallocateEPS4_m>:
  4072ee:	55                   	push   %rbp
  4072ef:	48 89 e5             	mov    %rsp,%rbp
  4072f2:	48 83 ec 20          	sub    $0x20,%rsp
  4072f6:	48 89 7d f8          	mov    %rdi,-0x8(%rbp)
  4072fa:	48 89 75 f0          	mov    %rsi,-0x10(%rbp)
  4072fe:	48 89 55 e8          	mov    %rdx,-0x18(%rbp)
  407302:	48 83 7d f0 00       	cmpq   $0x0,-0x10(%rbp)
  407307:	74 17                	je     407320 <_ZNSt12_Vector_baseISt4pairIPN10tensorflow4NodeEiESaIS4_EE13_M_deallocateEPS4_m+0x32>
  407309:	48 8b 45 f8          	mov    -0x8(%rbp),%rax
  40730d:	48 8b 55 e8          	mov    -0x18(%rbp),%rdx
  407311:	48 8b 4d f0          	mov    -0x10(%rbp),%rcx
  407315:	48 89 ce             	mov    %rcx,%rsi
  407318:	48 89 c7             	mov    %rax,%rdi
  40731b:	e8 61 0a 00 00       	callq  407d81 <_ZNSt16allocator_traitsISaISt4pairIPN10tensorflow4NodeEiEEE10deallocateERS5_PS4_m>
  407320:	90                   	nop
  407321:	c9                   	leaveq 
  407322:	c3                   	retq   

0000000000407323 <_ZSt8_DestroyIPSt4pairIPN10tensorflow4NodeEiEEvT_S6_>:
  407323:	55                   	push   %rbp
  407324:	48 89 e5             	mov    %rsp,%rbp
  407327:	48 83 ec 10          	sub    $0x10,%rsp
  40732b:	48 89 7d f8          	mov    %rdi,-0x8(%rbp)
  40732f:	48 89 75 f0          	mov    %rsi,-0x10(%rbp)
  407333:	48 8b 55 f0          	mov    -0x10(%rbp),%rdx
  407337:	48 8b 45 f8          	mov    -0x8(%rbp),%rax
  40733b:	48 89 d6             	mov    %rdx,%rsi
  40733e:	48 89 c7             	mov    %rax,%rdi
  407341:	e8 69 0a 00 00       	callq  407daf <_ZNSt12_Destroy_auxILb1EE9__destroyIPSt4pairIPN10tensorflow4NodeEiEEEvT_S8_>
  407346:	90                   	nop
  407347:	c9                   	leaveq 
  407348:	c3                   	retq   

0000000000407349 <_ZNSt16allocator_traitsISaISt4pairIPN10tensorflow4NodeEiEEE37select_on_container_copy_constructionERKS5_>:
  407349:	55                   	push   %rbp
  40734a:	48 89 e5             	mov    %rsp,%rbp
  40734d:	48 83 ec 10          	sub    $0x10,%rsp
  407351:	48 89 7d f8          	mov    %rdi,-0x8(%rbp)
  407355:	48 89 75 f0          	mov    %rsi,-0x10(%rbp)
  407359:	48 8b 55 f0          	mov    -0x10(%rbp),%rdx
  40735d:	48 8b 45 f8          	mov    -0x8(%rbp),%rax
  407361:	48 89 d6             	mov    %rdx,%rsi
  407364:	48 89 c7             	mov    %rax,%rdi
  407367:	e8 06 00 00 00       	callq  407372 <_ZNSaISt4pairIPN10tensorflow4NodeEiEEC1ERKS4_>
  40736c:	48 8b 45 f8          	mov    -0x8(%rbp),%rax
  407370:	c9                   	leaveq 
  407371:	c3                   	retq   

0000000000407372 <_ZNSaISt4pairIPN10tensorflow4NodeEiEEC1ERKS4_>:
  407372:	55                   	push   %rbp
  407373:	48 89 e5             	mov    %rsp,%rbp
  407376:	48 83 ec 10          	sub    $0x10,%rsp
  40737a:	48 89 7d f8          	mov    %rdi,-0x8(%rbp)
  40737e:	48 89 75 f0          	mov    %rsi,-0x10(%rbp)
  407382:	48 8b 55 f0          	mov    -0x10(%rbp),%rdx
  407386:	48 8b 45 f8          	mov    -0x8(%rbp),%rax
  40738a:	48 89 d6             	mov    %rdx,%rsi
  40738d:	48 89 c7             	mov    %rax,%rdi
  407390:	e8 29 0a 00 00       	callq  407dbe <_ZN9__gnu_cxx13new_allocatorISt4pairIPN10tensorflow4NodeEiEEC1ERKS6_>
  407395:	90                   	nop
  407396:	c9                   	leaveq 
  407397:	c3                   	retq   

0000000000407398 <_ZN9__gnu_cxx13new_allocatorISt4pairIPN10tensorflow4NodeEiEED1Ev>:
  407398:	55                   	push   %rbp
  407399:	48 89 e5             	mov    %rsp,%rbp
  40739c:	48 89 7d f8          	mov    %rdi,-0x8(%rbp)
  4073a0:	90                   	nop
  4073a1:	5d                   	pop    %rbp
  4073a2:	c3                   	retq   
  4073a3:	90                   	nop

00000000004073a4 <_ZNSt12_Vector_baseISt4pairIPN10tensorflow4NodeEiESaIS4_EE12_Vector_implC1ERKS5_>:
  4073a4:	55                   	push   %rbp
  4073a5:	48 89 e5             	mov    %rsp,%rbp
  4073a8:	48 83 ec 10          	sub    $0x10,%rsp
  4073ac:	48 89 7d f8          	mov    %rdi,-0x8(%rbp)
  4073b0:	48 89 75 f0          	mov    %rsi,-0x10(%rbp)
  4073b4:	48 8b 55 f0          	mov    -0x10(%rbp),%rdx
  4073b8:	48 8b 45 f8          	mov    -0x8(%rbp),%rax
  4073bc:	48 89 d6             	mov    %rdx,%rsi
  4073bf:	48 89 c7             	mov    %rax,%rdi
  4073c2:	e8 ab ff ff ff       	callq  407372 <_ZNSaISt4pairIPN10tensorflow4NodeEiEEC1ERKS4_>
  4073c7:	48 8b 45 f8          	mov    -0x8(%rbp),%rax
  4073cb:	48 c7 00 00 00 00 00 	movq   $0x0,(%rax)
  4073d2:	48 8b 45 f8          	mov    -0x8(%rbp),%rax
  4073d6:	48 c7 40 08 00 00 00 	movq   $0x0,0x8(%rax)
  4073dd:	00 
  4073de:	48 8b 45 f8          	mov    -0x8(%rbp),%rax
  4073e2:	48 c7 40 10 00 00 00 	movq   $0x0,0x10(%rax)
  4073e9:	00 
  4073ea:	90                   	nop
  4073eb:	c9                   	leaveq 
  4073ec:	c3                   	retq   
  4073ed:	90                   	nop

00000000004073ee <_ZNSt12_Vector_baseISt4pairIPN10tensorflow4NodeEiESaIS4_EE17_M_create_storageEm>:
  4073ee:	55                   	push   %rbp
  4073ef:	48 89 e5             	mov    %rsp,%rbp
  4073f2:	48 83 ec 10          	sub    $0x10,%rsp
  4073f6:	48 89 7d f8          	mov    %rdi,-0x8(%rbp)
  4073fa:	48 89 75 f0          	mov    %rsi,-0x10(%rbp)
  4073fe:	48 8b 55 f0          	mov    -0x10(%rbp),%rdx
  407402:	48 8b 45 f8          	mov    -0x8(%rbp),%rax
  407406:	48 89 d6             	mov    %rdx,%rsi
  407409:	48 89 c7             	mov    %rax,%rdi
  40740c:	e8 bd 09 00 00       	callq  407dce <_ZNSt12_Vector_baseISt4pairIPN10tensorflow4NodeEiESaIS4_EE11_M_allocateEm>
  407411:	48 89 c2             	mov    %rax,%rdx
  407414:	48 8b 45 f8          	mov    -0x8(%rbp),%rax
  407418:	48 89 10             	mov    %rdx,(%rax)
  40741b:	48 8b 45 f8          	mov    -0x8(%rbp),%rax
  40741f:	48 8b 10             	mov    (%rax),%rdx
  407422:	48 8b 45 f8          	mov    -0x8(%rbp),%rax
  407426:	48 89 50 08          	mov    %rdx,0x8(%rax)
  40742a:	48 8b 45 f8          	mov    -0x8(%rbp),%rax
  40742e:	48 8b 00             	mov    (%rax),%rax
  407431:	48 8b 55 f0          	mov    -0x10(%rbp),%rdx
  407435:	48 c1 e2 04          	shl    $0x4,%rdx
  407439:	48 01 c2             	add    %rax,%rdx
  40743c:	48 8b 45 f8          	mov    -0x8(%rbp),%rax
  407440:	48 89 50 10          	mov    %rdx,0x10(%rax)
  407444:	90                   	nop
  407445:	c9                   	leaveq 
  407446:	c3                   	retq   
  407447:	90                   	nop

0000000000407448 <_ZN9__gnu_cxx17__normal_iteratorIPKSt4pairIPN10tensorflow4NodeEiESt6vectorIS5_SaIS5_EEEC1ERKS7_>:
  407448:	55                   	push   %rbp
  407449:	48 89 e5             	mov    %rsp,%rbp
  40744c:	48 89 7d f8          	mov    %rdi,-0x8(%rbp)
  407450:	48 89 75 f0          	mov    %rsi,-0x10(%rbp)
  407454:	48 8b 45 f0          	mov    -0x10(%rbp),%rax
  407458:	48 8b 10             	mov    (%rax),%rdx
  40745b:	48 8b 45 f8          	mov    -0x8(%rbp),%rax
  40745f:	48 89 10             	mov    %rdx,(%rax)
  407462:	90                   	nop
  407463:	5d                   	pop    %rbp
  407464:	c3                   	retq   

0000000000407465 <_ZSt18uninitialized_copyIN9__gnu_cxx17__normal_iteratorIPKSt4pairIPN10tensorflow4NodeEiESt6vectorIS6_SaIS6_EEEEPS6_ET0_T_SF_SE_>:
  407465:	55                   	push   %rbp
  407466:	48 89 e5             	mov    %rsp,%rbp
  407469:	48 83 ec 30          	sub    $0x30,%rsp
  40746d:	48 89 7d e8          	mov    %rdi,-0x18(%rbp)
  407471:	48 89 75 e0          	mov    %rsi,-0x20(%rbp)
  407475:	48 89 55 d8          	mov    %rdx,-0x28(%rbp)
  407479:	c6 45 ff 01          	movb   $0x1,-0x1(%rbp)
  40747d:	48 8b 55 d8          	mov    -0x28(%rbp),%rdx
  407481:	48 8b 4d e0          	mov    -0x20(%rbp),%rcx
  407485:	48 8b 45 e8          	mov    -0x18(%rbp),%rax
  407489:	48 89 ce             	mov    %rcx,%rsi
  40748c:	48 89 c7             	mov    %rax,%rdi
  40748f:	e8 6d 09 00 00       	callq  407e01 <_ZNSt20__uninitialized_copyILb0EE13__uninit_copyIN9__gnu_cxx17__normal_iteratorIPKSt4pairIPN10tensorflow4NodeEiESt6vectorIS8_SaIS8_EEEEPS8_EET0_T_SH_SG_>
  407494:	c9                   	leaveq 
  407495:	c3                   	retq   

0000000000407496 <_ZN10tensorflow3gtl20array_slice_internal18ArraySliceImplBaseIKxEC1EPS3_m>:
  407496:	55                   	push   %rbp
  407497:	48 89 e5             	mov    %rsp,%rbp
  40749a:	48 89 7d f8          	mov    %rdi,-0x8(%rbp)
  40749e:	48 89 75 f0          	mov    %rsi,-0x10(%rbp)
  4074a2:	48 89 55 e8          	mov    %rdx,-0x18(%rbp)
  4074a6:	48 8b 45 f8          	mov    -0x8(%rbp),%rax
  4074aa:	48 8b 55 f0          	mov    -0x10(%rbp),%rdx
  4074ae:	48 89 10             	mov    %rdx,(%rax)
  4074b1:	48 8b 45 f8          	mov    -0x8(%rbp),%rax
  4074b5:	48 8b 55 e8          	mov    -0x18(%rbp),%rdx
  4074b9:	48 89 50 08          	mov    %rdx,0x8(%rax)
  4074bd:	90                   	nop
  4074be:	5d                   	pop    %rbp
  4074bf:	c3                   	retq   

00000000004074c0 <_ZN2CK14print_raw_dataIfEEvPT_RKNS_5ShapeE>:
  4074c0:	55                   	push   %rbp
  4074c1:	48 89 e5             	mov    %rsp,%rbp
  4074c4:	48 83 ec 30          	sub    $0x30,%rsp
  4074c8:	48 89 7d d8          	mov    %rdi,-0x28(%rbp)
  4074cc:	48 89 75 d0          	mov    %rsi,-0x30(%rbp)
  4074d0:	bf 20 93 40 00       	mov    $0x409320,%edi
  4074d5:	e8 26 ba ff ff       	callq  402f00 <puts@plt>
  4074da:	48 8b 45 d0          	mov    -0x30(%rbp),%rax
  4074de:	8b 70 0c             	mov    0xc(%rax),%esi
  4074e1:	48 8b 45 d0          	mov    -0x30(%rbp),%rax
  4074e5:	8b 48 08             	mov    0x8(%rax),%ecx
  4074e8:	48 8b 45 d0          	mov    -0x30(%rbp),%rax
  4074ec:	8b 50 04             	mov    0x4(%rax),%edx
  4074ef:	48 8b 45 d0          	mov    -0x30(%rbp),%rax
  4074f3:	8b 00                	mov    (%rax),%eax
  4074f5:	41 89 f0             	mov    %esi,%r8d
  4074f8:	89 c6                	mov    %eax,%esi
  4074fa:	bf 44 93 40 00       	mov    $0x409344,%edi
  4074ff:	b8 00 00 00 00       	mov    $0x0,%eax
  407504:	e8 37 b9 ff ff       	callq  402e40 <printf@plt>
  407509:	c7 45 ec 00 00 00 00 	movl   $0x0,-0x14(%rbp)
  407510:	48 8b 45 d0          	mov    -0x30(%rbp),%rax
  407514:	8b 00                	mov    (%rax),%eax
  407516:	3b 45 ec             	cmp    -0x14(%rbp),%eax
  407519:	0f 8e c5 00 00 00    	jle    4075e4 <_ZN2CK14print_raw_dataIfEEvPT_RKNS_5ShapeE+0x124>
  40751f:	c7 45 f0 00 00 00 00 	movl   $0x0,-0x10(%rbp)
  407526:	48 8b 45 d0          	mov    -0x30(%rbp),%rax
  40752a:	8b 40 04             	mov    0x4(%rax),%eax
  40752d:	3b 45 f0             	cmp    -0x10(%rbp),%eax
  407530:	0f 8e a5 00 00 00    	jle    4075db <_ZN2CK14print_raw_dataIfEEvPT_RKNS_5ShapeE+0x11b>
  407536:	8b 55 f0             	mov    -0x10(%rbp),%edx
  407539:	8b 45 ec             	mov    -0x14(%rbp),%eax
  40753c:	89 c6                	mov    %eax,%esi
  40753e:	bf 62 93 40 00       	mov    $0x409362,%edi
  407543:	b8 00 00 00 00       	mov    $0x0,%eax
  407548:	e8 f3 b8 ff ff       	callq  402e40 <printf@plt>
  40754d:	c7 45 f4 00 00 00 00 	movl   $0x0,-0xc(%rbp)
  407554:	48 8b 45 d0          	mov    -0x30(%rbp),%rax
  407558:	8b 40 08             	mov    0x8(%rax),%eax
  40755b:	3b 45 f4             	cmp    -0xc(%rbp),%eax
  40755e:	7e 72                	jle    4075d2 <_ZN2CK14print_raw_dataIfEEvPT_RKNS_5ShapeE+0x112>
  407560:	c7 45 f8 00 00 00 00 	movl   $0x0,-0x8(%rbp)
  407567:	48 8b 45 d0          	mov    -0x30(%rbp),%rax
  40756b:	8b 40 0c             	mov    0xc(%rax),%eax
  40756e:	3b 45 f8             	cmp    -0x8(%rbp),%eax
  407571:	7e 4f                	jle    4075c2 <_ZN2CK14print_raw_dataIfEEvPT_RKNS_5ShapeE+0x102>
  407573:	8b 7d f8             	mov    -0x8(%rbp),%edi
  407576:	8b 4d f4             	mov    -0xc(%rbp),%ecx
  407579:	8b 55 f0             	mov    -0x10(%rbp),%edx
  40757c:	8b 75 ec             	mov    -0x14(%rbp),%esi
  40757f:	48 8b 45 d0          	mov    -0x30(%rbp),%rax
  407583:	41 89 f8             	mov    %edi,%r8d
  407586:	48 89 c7             	mov    %rax,%rdi
  407589:	e8 3c d8 ff ff       	callq  404dca <_ZNK2CK5Shape14get_flat_indexEiiii>
  40758e:	89 45 fc             	mov    %eax,-0x4(%rbp)
  407591:	8b 45 fc             	mov    -0x4(%rbp),%eax
  407594:	48 98                	cltq   
  407596:	48 8d 14 85 00 00 00 	lea    0x0(,%rax,4),%rdx
  40759d:	00 
  40759e:	48 8b 45 d8          	mov    -0x28(%rbp),%rax
  4075a2:	48 01 d0             	add    %rdx,%rax
  4075a5:	f3 0f 10 00          	movss  (%rax),%xmm0
  4075a9:	f3 0f 5a c0          	cvtss2sd %xmm0,%xmm0
  4075ad:	bf 6f 93 40 00       	mov    $0x40936f,%edi
  4075b2:	b8 01 00 00 00       	mov    $0x1,%eax
  4075b7:	e8 84 b8 ff ff       	callq  402e40 <printf@plt>
  4075bc:	83 45 f8 01          	addl   $0x1,-0x8(%rbp)
  4075c0:	eb a5                	jmp    407567 <_ZN2CK14print_raw_dataIfEEvPT_RKNS_5ShapeE+0xa7>
  4075c2:	bf 0a 00 00 00       	mov    $0xa,%edi
  4075c7:	e8 54 b8 ff ff       	callq  402e20 <putchar@plt>
  4075cc:	83 45 f4 01          	addl   $0x1,-0xc(%rbp)
  4075d0:	eb 82                	jmp    407554 <_ZN2CK14print_raw_dataIfEEvPT_RKNS_5ShapeE+0x94>
  4075d2:	83 45 f0 01          	addl   $0x1,-0x10(%rbp)
  4075d6:	e9 4b ff ff ff       	jmpq   407526 <_ZN2CK14print_raw_dataIfEEvPT_RKNS_5ShapeE+0x66>
  4075db:	83 45 ec 01          	addl   $0x1,-0x14(%rbp)
  4075df:	e9 2c ff ff ff       	jmpq   407510 <_ZN2CK14print_raw_dataIfEEvPT_RKNS_5ShapeE+0x50>
  4075e4:	bf 20 93 40 00       	mov    $0x409320,%edi
  4075e9:	e8 12 b9 ff ff       	callq  402f00 <puts@plt>
  4075ee:	90                   	nop
  4075ef:	c9                   	leaveq 
  4075f0:	c3                   	retq   
  4075f1:	90                   	nop

00000000004075f2 <_ZNK10tensorflow6Tensor34FillDimsAndValidateCompatibleShapeILm1EEEvNS_3gtl10ArraySliceIxEEPSt5arrayIlXT_EE>:
  4075f2:	55                   	push   %rbp
  4075f3:	48 89 e5             	mov    %rsp,%rbp
  4075f6:	53                   	push   %rbx
  4075f7:	48 81 ec e8 01 00 00 	sub    $0x1e8,%rsp
  4075fe:	48 89 bd 28 fe ff ff 	mov    %rdi,-0x1d8(%rbp)
  407605:	48 89 f0             	mov    %rsi,%rax
  407608:	48 89 d6             	mov    %rdx,%rsi
  40760b:	48 89 f2             	mov    %rsi,%rdx
  40760e:	48 89 85 10 fe ff ff 	mov    %rax,-0x1f0(%rbp)
  407615:	48 89 95 18 fe ff ff 	mov    %rdx,-0x1e8(%rbp)
  40761c:	48 89 8d 20 fe ff ff 	mov    %rcx,-0x1e0(%rbp)
  407623:	64 48 8b 04 25 28 00 	mov    %fs:0x28,%rax
  40762a:	00 00 
  40762c:	48 89 45 e8          	mov    %rax,-0x18(%rbp)
  407630:	31 c0                	xor    %eax,%eax
  407632:	48 8d 85 10 fe ff ff 	lea    -0x1f0(%rbp),%rax
  407639:	48 89 c7             	mov    %rax,%rdi
  40763c:	e8 39 08 00 00       	callq  407e7a <_ZNK10tensorflow3gtl10ArraySliceIxE4sizeEv>
  407641:	48 89 c7             	mov    %rax,%rdi
  407644:	e8 d5 c9 ff ff       	callq  40401e <_ZN10tensorflow8internal21GetReferenceableValueEm>
  407649:	48 89 85 48 fe ff ff 	mov    %rax,-0x1b8(%rbp)
  407650:	bf 01 00 00 00       	mov    $0x1,%edi
  407655:	e8 c4 c9 ff ff       	callq  40401e <_ZN10tensorflow8internal21GetReferenceableValueEm>
  40765a:	48 89 85 40 fe ff ff 	mov    %rax,-0x1c0(%rbp)
  407661:	48 8d 8d 48 fe ff ff 	lea    -0x1b8(%rbp),%rcx
  407668:	48 8d 85 40 fe ff ff 	lea    -0x1c0(%rbp),%rax
  40766f:	ba 75 93 40 00       	mov    $0x409375,%edx
  407674:	48 89 ce             	mov    %rcx,%rsi
  407677:	48 89 c7             	mov    %rax,%rdi
  40767a:	e8 54 e1 ff ff       	callq  4057d3 <_ZN10tensorflow8internal12Check_EQImplImmEEPNSt7__cxx1112basic_stringIcSt11char_traitsIcESaIcEEERKT_RKT0_PKc>
  40767f:	48 89 c2             	mov    %rax,%rdx
  407682:	48 8d 85 38 fe ff ff 	lea    -0x1c8(%rbp),%rax
  407689:	48 89 d6             	mov    %rdx,%rsi
  40768c:	48 89 c7             	mov    %rax,%rdi
  40768f:	e8 a6 c9 ff ff       	callq  40403a <_ZN10tensorflow8internal13CheckOpStringC1EPNSt7__cxx1112basic_stringIcSt11char_traitsIcESaIcEEE>
  407694:	48 8d 85 38 fe ff ff 	lea    -0x1c8(%rbp),%rax
  40769b:	48 89 c7             	mov    %rax,%rdi
  40769e:	e8 b1 c9 ff ff       	callq  404054 <_ZNK10tensorflow8internal13CheckOpStringcvbEv>
  4076a3:	83 f0 01             	xor    $0x1,%eax
  4076a6:	84 c0                	test   %al,%al
  4076a8:	75 41                	jne    4076eb <_ZNK10tensorflow6Tensor34FillDimsAndValidateCompatibleShapeILm1EEEvNS_3gtl10ArraySliceIxEEPSt5arrayIlXT_EE+0xf9>
  4076aa:	48 8b 9d 38 fe ff ff 	mov    -0x1c8(%rbp),%rbx
  4076b1:	48 8d 85 60 fe ff ff 	lea    -0x1a0(%rbp),%rax
  4076b8:	ba 73 02 00 00       	mov    $0x273,%edx
  4076bd:	be 90 93 40 00       	mov    $0x409390,%esi
  4076c2:	48 89 c7             	mov    %rax,%rdi
  4076c5:	e8 76 b6 ff ff       	callq  402d40 <_ZN10tensorflow8internal15LogMessageFatalC1EPKci@plt>
  4076ca:	48 8d 85 60 fe ff ff 	lea    -0x1a0(%rbp),%rax
  4076d1:	48 89 de             	mov    %rbx,%rsi
  4076d4:	48 89 c7             	mov    %rax,%rdi
  4076d7:	e8 df e2 ff ff       	callq  4059bb <_ZStlsIcSt11char_traitsIcENSt7__cxx1112basic_stringIcS1_SaIcEEEERSt13basic_ostreamIT_T0_EOS9_RKT1_>
  4076dc:	48 8d 85 60 fe ff ff 	lea    -0x1a0(%rbp),%rax
  4076e3:	48 89 c7             	mov    %rax,%rdi
  4076e6:	e8 f5 b7 ff ff       	callq  402ee0 <_ZN10tensorflow8internal15LogMessageFatalD1Ev@plt>
  4076eb:	48 c7 85 50 fe ff ff 	movq   $0x1,-0x1b0(%rbp)
  4076f2:	01 00 00 00 
  4076f6:	48 c7 85 58 fe ff ff 	movq   $0x0,-0x1a8(%rbp)
  4076fd:	00 00 00 00 
  407701:	48 83 bd 58 fe ff ff 	cmpq   $0x0,-0x1a8(%rbp)
  407708:	00 
  407709:	75 73                	jne    40777e <_ZNK10tensorflow6Tensor34FillDimsAndValidateCompatibleShapeILm1EEEvNS_3gtl10ArraySliceIxEEPSt5arrayIlXT_EE+0x18c>
  40770b:	48 8b 95 58 fe ff ff 	mov    -0x1a8(%rbp),%rdx
  407712:	48 8d 85 10 fe ff ff 	lea    -0x1f0(%rbp),%rax
  407719:	48 89 d6             	mov    %rdx,%rsi
  40771c:	48 89 c7             	mov    %rax,%rdi
  40771f:	e8 70 07 00 00       	callq  407e94 <_ZNK10tensorflow3gtl10ArraySliceIxEixEm>
  407724:	48 8b 00             	mov    (%rax),%rax
  407727:	48 8b 95 50 fe ff ff 	mov    -0x1b0(%rbp),%rdx
  40772e:	48 0f af c2          	imul   %rdx,%rax
  407732:	48 89 85 50 fe ff ff 	mov    %rax,-0x1b0(%rbp)
  407739:	48 8b 95 58 fe ff ff 	mov    -0x1a8(%rbp),%rdx
  407740:	48 8b 85 20 fe ff ff 	mov    -0x1e0(%rbp),%rax
  407747:	48 89 d6             	mov    %rdx,%rsi
  40774a:	48 89 c7             	mov    %rax,%rdi
  40774d:	e8 88 07 00 00       	callq  407eda <_ZNSt5arrayIlLm1EEixEm>
  407752:	48 89 c3             	mov    %rax,%rbx
  407755:	48 8b 95 58 fe ff ff 	mov    -0x1a8(%rbp),%rdx
  40775c:	48 8d 85 10 fe ff ff 	lea    -0x1f0(%rbp),%rax
  407763:	48 89 d6             	mov    %rdx,%rsi
  407766:	48 89 c7             	mov    %rax,%rdi
  407769:	e8 26 07 00 00       	callq  407e94 <_ZNK10tensorflow3gtl10ArraySliceIxEixEm>
  40776e:	48 8b 00             	mov    (%rax),%rax
  407771:	48 89 03             	mov    %rax,(%rbx)
  407774:	48 83 85 58 fe ff ff 	addq   $0x1,-0x1a8(%rbp)
  40777b:	01 
  40777c:	eb 83                	jmp    407701 <_ZNK10tensorflow6Tensor34FillDimsAndValidateCompatibleShapeILm1EEEvNS_3gtl10ArraySliceIxEEPSt5arrayIlXT_EE+0x10f>
  40777e:	48 8b 85 28 fe ff ff 	mov    -0x1d8(%rbp),%rax
  407785:	48 89 c7             	mov    %rax,%rdi
  407788:	e8 55 cf ff ff       	callq  4046e2 <_ZNK10tensorflow6Tensor11NumElementsEv>
  40778d:	48 89 c7             	mov    %rax,%rdi
  407790:	e8 97 c8 ff ff       	callq  40402c <_ZN10tensorflow8internal21GetReferenceableValueEx>
  407795:	48 89 85 48 fe ff ff 	mov    %rax,-0x1b8(%rbp)
  40779c:	48 8b 85 50 fe ff ff 	mov    -0x1b0(%rbp),%rax
  4077a3:	48 89 c7             	mov    %rax,%rdi
  4077a6:	e8 81 c8 ff ff       	callq  40402c <_ZN10tensorflow8internal21GetReferenceableValueEx>
  4077ab:	48 89 85 40 fe ff ff 	mov    %rax,-0x1c0(%rbp)
  4077b2:	48 8d 8d 48 fe ff ff 	lea    -0x1b8(%rbp),%rcx
  4077b9:	48 8d 85 40 fe ff ff 	lea    -0x1c0(%rbp),%rax
  4077c0:	ba 18 94 40 00       	mov    $0x409418,%edx
  4077c5:	48 89 ce             	mov    %rcx,%rsi
  4077c8:	48 89 c7             	mov    %rax,%rdi
  4077cb:	e8 2f 07 00 00       	callq  407eff <_ZN10tensorflow8internal12Check_EQImplIxxEEPNSt7__cxx1112basic_stringIcSt11char_traitsIcESaIcEEERKT_RKT0_PKc>
  4077d0:	48 89 c2             	mov    %rax,%rdx
  4077d3:	48 8d 85 38 fe ff ff 	lea    -0x1c8(%rbp),%rax
  4077da:	48 89 d6             	mov    %rdx,%rsi
  4077dd:	48 89 c7             	mov    %rax,%rdi
  4077e0:	e8 55 c8 ff ff       	callq  40403a <_ZN10tensorflow8internal13CheckOpStringC1EPNSt7__cxx1112basic_stringIcSt11char_traitsIcESaIcEEE>
  4077e5:	48 8d 85 38 fe ff ff 	lea    -0x1c8(%rbp),%rax
  4077ec:	48 89 c7             	mov    %rax,%rdi
  4077ef:	e8 60 c8 ff ff       	callq  404054 <_ZNK10tensorflow8internal13CheckOpStringcvbEv>
  4077f4:	83 f0 01             	xor    $0x1,%eax
  4077f7:	84 c0                	test   %al,%al
  4077f9:	75 5f                	jne    40785a <_ZNK10tensorflow6Tensor34FillDimsAndValidateCompatibleShapeILm1EEEvNS_3gtl10ArraySliceIxEEPSt5arrayIlXT_EE+0x268>
  4077fb:	48 8b 9d 38 fe ff ff 	mov    -0x1c8(%rbp),%rbx
  407802:	48 8d 85 60 fe ff ff 	lea    -0x1a0(%rbp),%rax
  407809:	ba 79 02 00 00       	mov    $0x279,%edx
  40780e:	be 90 93 40 00       	mov    $0x409390,%esi
  407813:	48 89 c7             	mov    %rax,%rdi
  407816:	e8 25 b5 ff ff       	callq  402d40 <_ZN10tensorflow8internal15LogMessageFatalC1EPKci@plt>
  40781b:	48 8d 85 60 fe ff ff 	lea    -0x1a0(%rbp),%rax
  407822:	48 89 de             	mov    %rbx,%rsi
  407825:	48 89 c7             	mov    %rax,%rdi
  407828:	e8 8e e1 ff ff       	callq  4059bb <_ZStlsIcSt11char_traitsIcENSt7__cxx1112basic_stringIcS1_SaIcEEEERSt13basic_ostreamIT_T0_EOS9_RKT1_>
  40782d:	48 8d 85 60 fe ff ff 	lea    -0x1a0(%rbp),%rax
  407834:	48 89 c7             	mov    %rax,%rdi
  407837:	e8 a4 b6 ff ff       	callq  402ee0 <_ZN10tensorflow8internal15LogMessageFatalD1Ev@plt>
  40783c:	48 8d 85 60 fe ff ff 	lea    -0x1a0(%rbp),%rax
  407843:	48 89 c7             	mov    %rax,%rdi
  407846:	e8 95 b6 ff ff       	callq  402ee0 <_ZN10tensorflow8internal15LogMessageFatalD1Ev@plt>
  40784b:	48 8d 85 60 fe ff ff 	lea    -0x1a0(%rbp),%rax
  407852:	48 89 c7             	mov    %rax,%rdi
  407855:	e8 86 b6 ff ff       	callq  402ee0 <_ZN10tensorflow8internal15LogMessageFatalD1Ev@plt>
  40785a:	90                   	nop
  40785b:	48 8b 45 e8          	mov    -0x18(%rbp),%rax
  40785f:	64 48 33 04 25 28 00 	xor    %fs:0x28,%rax
  407866:	00 00 
  407868:	74 05                	je     40786f <_ZNK10tensorflow6Tensor34FillDimsAndValidateCompatibleShapeILm1EEEvNS_3gtl10ArraySliceIxEEPSt5arrayIlXT_EE+0x27d>
  40786a:	e8 f1 b4 ff ff       	callq  402d60 <__stack_chk_fail@plt>
  40786f:	48 81 c4 e8 01 00 00 	add    $0x1e8,%rsp
  407876:	5b                   	pop    %rbx
  407877:	5d                   	pop    %rbp
  407878:	c3                   	retq   
  407879:	90                   	nop

000000000040787a <_ZNK10tensorflow6Tensor4baseIfEEPT_v>:
  40787a:	55                   	push   %rbp
  40787b:	48 89 e5             	mov    %rsp,%rbp
  40787e:	48 83 ec 10          	sub    $0x10,%rsp
  407882:	48 89 7d f8          	mov    %rdi,-0x8(%rbp)
  407886:	48 8b 45 f8          	mov    -0x8(%rbp),%rax
  40788a:	48 8b 40 18          	mov    0x18(%rax),%rax
  40788e:	48 85 c0             	test   %rax,%rax
  407891:	74 12                	je     4078a5 <_ZNK10tensorflow6Tensor4baseIfEEPT_v+0x2b>
  407893:	48 8b 45 f8          	mov    -0x8(%rbp),%rax
  407897:	48 8b 40 18          	mov    0x18(%rax),%rax
  40789b:	48 89 c7             	mov    %rax,%rdi
  40789e:	e8 a3 06 00 00       	callq  407f46 <_ZNK10tensorflow12TensorBuffer4baseIfEEPT_v>
  4078a3:	eb 05                	jmp    4078aa <_ZNK10tensorflow6Tensor4baseIfEEPT_v+0x30>
  4078a5:	b8 00 00 00 00       	mov    $0x0,%eax
  4078aa:	c9                   	leaveq 
  4078ab:	c3                   	retq   

00000000004078ac <_ZN5Eigen10TensorBaseINS_9TensorMapINS_6TensorIfLi1ELi1ElEELi16ENS_11MakePointerEEELi0EEC1Ev>:
  4078ac:	55                   	push   %rbp
  4078ad:	48 89 e5             	mov    %rsp,%rbp
  4078b0:	48 89 7d f8          	mov    %rdi,-0x8(%rbp)
  4078b4:	90                   	nop
  4078b5:	5d                   	pop    %rbp
  4078b6:	c3                   	retq   
  4078b7:	90                   	nop

00000000004078b8 <_ZN5Eigen10TensorBaseINS_9TensorMapINS_6TensorIfLi1ELi1ElEELi16ENS_11MakePointerEEELi1EEC1Ev>:
  4078b8:	55                   	push   %rbp
  4078b9:	48 89 e5             	mov    %rsp,%rbp
  4078bc:	48 83 ec 10          	sub    $0x10,%rsp
  4078c0:	48 89 7d f8          	mov    %rdi,-0x8(%rbp)
  4078c4:	48 8b 45 f8          	mov    -0x8(%rbp),%rax
  4078c8:	48 89 c7             	mov    %rax,%rdi
  4078cb:	e8 dc ff ff ff       	callq  4078ac <_ZN5Eigen10TensorBaseINS_9TensorMapINS_6TensorIfLi1ELi1ElEELi16ENS_11MakePointerEEELi0EEC1Ev>
  4078d0:	90                   	nop
  4078d1:	c9                   	leaveq 
  4078d2:	c3                   	retq   
  4078d3:	90                   	nop

00000000004078d4 <_ZN5Eigen9TensorMapINS_6TensorIfLi1ELi1ElEELi16ENS_11MakePointerEEC1EPfRKSt5arrayIlLm1EE>:
  4078d4:	55                   	push   %rbp
  4078d5:	48 89 e5             	mov    %rsp,%rbp
  4078d8:	48 83 ec 20          	sub    $0x20,%rsp
  4078dc:	48 89 7d f8          	mov    %rdi,-0x8(%rbp)
  4078e0:	48 89 75 f0          	mov    %rsi,-0x10(%rbp)
  4078e4:	48 89 55 e8          	mov    %rdx,-0x18(%rbp)
  4078e8:	48 8b 45 f8          	mov    -0x8(%rbp),%rax
  4078ec:	48 89 c7             	mov    %rax,%rdi
  4078ef:	e8 c4 ff ff ff       	callq  4078b8 <_ZN5Eigen10TensorBaseINS_9TensorMapINS_6TensorIfLi1ELi1ElEELi16ENS_11MakePointerEEELi1EEC1Ev>
  4078f4:	48 8b 45 f8          	mov    -0x8(%rbp),%rax
  4078f8:	48 8b 55 f0          	mov    -0x10(%rbp),%rdx
  4078fc:	48 89 10             	mov    %rdx,(%rax)
  4078ff:	48 8b 45 f8          	mov    -0x8(%rbp),%rax
  407903:	48 8d 50 08          	lea    0x8(%rax),%rdx
  407907:	48 8b 45 e8          	mov    -0x18(%rbp),%rax
  40790b:	48 89 c6             	mov    %rax,%rsi
  40790e:	48 89 d7             	mov    %rdx,%rdi
  407911:	e8 56 06 00 00       	callq  407f6c <_ZN5Eigen6DSizesIlLi1EEC1ERKSt5arrayIlLm1EE>
  407916:	90                   	nop
  407917:	c9                   	leaveq 
  407918:	c3                   	retq   
  407919:	90                   	nop

000000000040791a <_ZNSt12_Vector_baseIN10tensorflow6TensorESaIS1_EE12_Vector_implC1Ev>:
  40791a:	55                   	push   %rbp
  40791b:	48 89 e5             	mov    %rsp,%rbp
  40791e:	48 83 ec 10          	sub    $0x10,%rsp
  407922:	48 89 7d f8          	mov    %rdi,-0x8(%rbp)
  407926:	48 8b 45 f8          	mov    -0x8(%rbp),%rax
  40792a:	48 89 c7             	mov    %rax,%rdi
  40792d:	e8 58 06 00 00       	callq  407f8a <_ZNSaIN10tensorflow6TensorEEC1Ev>
  407932:	48 8b 45 f8          	mov    -0x8(%rbp),%rax
  407936:	48 c7 00 00 00 00 00 	movq   $0x0,(%rax)
  40793d:	48 8b 45 f8          	mov    -0x8(%rbp),%rax
  407941:	48 c7 40 08 00 00 00 	movq   $0x0,0x8(%rax)
  407948:	00 
  407949:	48 8b 45 f8          	mov    -0x8(%rbp),%rax
  40794d:	48 c7 40 10 00 00 00 	movq   $0x0,0x10(%rax)
  407954:	00 
  407955:	90                   	nop
  407956:	c9                   	leaveq 
  407957:	c3                   	retq   

0000000000407958 <_ZNSaIN10tensorflow6TensorEED1Ev>:
  407958:	55                   	push   %rbp
  407959:	48 89 e5             	mov    %rsp,%rbp
  40795c:	48 83 ec 10          	sub    $0x10,%rsp
  407960:	48 89 7d f8          	mov    %rdi,-0x8(%rbp)
  407964:	48 8b 45 f8          	mov    -0x8(%rbp),%rax
  407968:	48 89 c7             	mov    %rax,%rdi
  40796b:	e8 36 06 00 00       	callq  407fa6 <_ZN9__gnu_cxx13new_allocatorIN10tensorflow6TensorEED1Ev>
  407970:	90                   	nop
  407971:	c9                   	leaveq 
  407972:	c3                   	retq   
  407973:	90                   	nop

0000000000407974 <_ZNSt12_Vector_baseIN10tensorflow6TensorESaIS1_EE13_M_deallocateEPS1_m>:
  407974:	55                   	push   %rbp
  407975:	48 89 e5             	mov    %rsp,%rbp
  407978:	48 83 ec 20          	sub    $0x20,%rsp
  40797c:	48 89 7d f8          	mov    %rdi,-0x8(%rbp)
  407980:	48 89 75 f0          	mov    %rsi,-0x10(%rbp)
  407984:	48 89 55 e8          	mov    %rdx,-0x18(%rbp)
  407988:	48 83 7d f0 00       	cmpq   $0x0,-0x10(%rbp)
  40798d:	74 17                	je     4079a6 <_ZNSt12_Vector_baseIN10tensorflow6TensorESaIS1_EE13_M_deallocateEPS1_m+0x32>
  40798f:	48 8b 45 f8          	mov    -0x8(%rbp),%rax
  407993:	48 8b 55 e8          	mov    -0x18(%rbp),%rdx
  407997:	48 8b 4d f0          	mov    -0x10(%rbp),%rcx
  40799b:	48 89 ce             	mov    %rcx,%rsi
  40799e:	48 89 c7             	mov    %rax,%rdi
  4079a1:	e8 0b 06 00 00       	callq  407fb1 <_ZNSt16allocator_traitsISaIN10tensorflow6TensorEEE10deallocateERS2_PS1_m>
  4079a6:	90                   	nop
  4079a7:	c9                   	leaveq 
  4079a8:	c3                   	retq   

00000000004079a9 <_ZSt8_DestroyIPN10tensorflow6TensorEEvT_S3_>:
  4079a9:	55                   	push   %rbp
  4079aa:	48 89 e5             	mov    %rsp,%rbp
  4079ad:	48 83 ec 10          	sub    $0x10,%rsp
  4079b1:	48 89 7d f8          	mov    %rdi,-0x8(%rbp)
  4079b5:	48 89 75 f0          	mov    %rsi,-0x10(%rbp)
  4079b9:	48 8b 55 f0          	mov    -0x10(%rbp),%rdx
  4079bd:	48 8b 45 f8          	mov    -0x8(%rbp),%rax
  4079c1:	48 89 d6             	mov    %rdx,%rsi
  4079c4:	48 89 c7             	mov    %rax,%rdi
  4079c7:	e8 13 06 00 00       	callq  407fdf <_ZNSt12_Destroy_auxILb0EE9__destroyIPN10tensorflow6TensorEEEvT_S5_>
  4079cc:	90                   	nop
  4079cd:	c9                   	leaveq 
  4079ce:	c3                   	retq   
  4079cf:	90                   	nop

00000000004079d0 <_ZN10tensorflow6Tensor6shapedIiLm1EEENS_6TTypesIT_XT0_ElE6TensorENS_3gtl10ArraySliceIxEE>:
  4079d0:	55                   	push   %rbp
  4079d1:	48 89 e5             	mov    %rsp,%rbp
  4079d4:	48 83 ec 50          	sub    $0x50,%rsp
  4079d8:	48 89 7d c8          	mov    %rdi,-0x38(%rbp)
  4079dc:	48 89 f0             	mov    %rsi,%rax
  4079df:	48 89 d1             	mov    %rdx,%rcx
  4079e2:	48 89 ca             	mov    %rcx,%rdx
  4079e5:	48 89 45 b0          	mov    %rax,-0x50(%rbp)
  4079e9:	48 89 55 b8          	mov    %rdx,-0x48(%rbp)
  4079ed:	64 48 8b 04 25 28 00 	mov    %fs:0x28,%rax
  4079f4:	00 00 
  4079f6:	48 89 45 f8          	mov    %rax,-0x8(%rbp)
  4079fa:	31 c0                	xor    %eax,%eax
  4079fc:	e8 f5 c9 ff ff       	callq  4043f6 <_ZN10tensorflow14DataTypeToEnumIiE1vEv>
  407a01:	89 c2                	mov    %eax,%edx
  407a03:	48 8b 45 c8          	mov    -0x38(%rbp),%rax
  407a07:	89 d6                	mov    %edx,%esi
  407a09:	48 89 c7             	mov    %rax,%rdi
  407a0c:	e8 1f b6 ff ff       	callq  403030 <_ZNK10tensorflow6Tensor21CheckTypeAndIsAlignedENS_8DataTypeE@plt>
  407a11:	48 8d 4d d8          	lea    -0x28(%rbp),%rcx
  407a15:	48 8b 75 b0          	mov    -0x50(%rbp),%rsi
  407a19:	48 8b 55 b8          	mov    -0x48(%rbp),%rdx
  407a1d:	48 8b 45 c8          	mov    -0x38(%rbp),%rax
  407a21:	48 89 c7             	mov    %rax,%rdi
  407a24:	e8 c9 fb ff ff       	callq  4075f2 <_ZNK10tensorflow6Tensor34FillDimsAndValidateCompatibleShapeILm1EEEvNS_3gtl10ArraySliceIxEEPSt5arrayIlXT_EE>
  407a29:	48 8b 45 c8          	mov    -0x38(%rbp),%rax
  407a2d:	48 89 c7             	mov    %rax,%rdi
  407a30:	e8 e3 05 00 00       	callq  408018 <_ZNK10tensorflow6Tensor4baseIiEEPT_v>
  407a35:	48 89 c1             	mov    %rax,%rcx
  407a38:	48 8d 55 d8          	lea    -0x28(%rbp),%rdx
  407a3c:	48 8d 45 e0          	lea    -0x20(%rbp),%rax
  407a40:	48 89 ce             	mov    %rcx,%rsi
  407a43:	48 89 c7             	mov    %rax,%rdi
  407a46:	e8 27 06 00 00       	callq  408072 <_ZN5Eigen9TensorMapINS_6TensorIiLi1ELi1ElEELi16ENS_11MakePointerEEC1EPiRKSt5arrayIlLm1EE>
  407a4b:	48 8b 45 e0          	mov    -0x20(%rbp),%rax
  407a4f:	48 8b 55 e8          	mov    -0x18(%rbp),%rdx
  407a53:	48 8b 7d f8          	mov    -0x8(%rbp),%rdi
  407a57:	64 48 33 3c 25 28 00 	xor    %fs:0x28,%rdi
  407a5e:	00 00 
  407a60:	74 05                	je     407a67 <_ZN10tensorflow6Tensor6shapedIiLm1EEENS_6TTypesIT_XT0_ElE6TensorENS_3gtl10ArraySliceIxEE+0x97>
  407a62:	e8 f9 b2 ff ff       	callq  402d60 <__stack_chk_fail@plt>
  407a67:	c9                   	leaveq 
  407a68:	c3                   	retq   

0000000000407a69 <_ZSt19__iterator_categoryIPKiENSt15iterator_traitsIT_E17iterator_categoryERKS3_>:
  407a69:	55                   	push   %rbp
  407a6a:	48 89 e5             	mov    %rsp,%rbp
  407a6d:	48 89 7d f8          	mov    %rdi,-0x8(%rbp)
  407a71:	5d                   	pop    %rbp
  407a72:	c3                   	retq   

0000000000407a73 <_ZSt8__copy_nIPKimPiET1_T_T0_S3_St26random_access_iterator_tag>:
  407a73:	55                   	push   %rbp
  407a74:	48 89 e5             	mov    %rsp,%rbp
  407a77:	48 83 ec 20          	sub    $0x20,%rsp
  407a7b:	48 89 7d f8          	mov    %rdi,-0x8(%rbp)
  407a7f:	48 89 75 f0          	mov    %rsi,-0x10(%rbp)
  407a83:	48 89 55 e8          	mov    %rdx,-0x18(%rbp)
  407a87:	48 8b 45 f0          	mov    -0x10(%rbp),%rax
  407a8b:	48 8d 14 85 00 00 00 	lea    0x0(,%rax,4),%rdx
  407a92:	00 
  407a93:	48 8b 45 f8          	mov    -0x8(%rbp),%rax
  407a97:	48 8d 0c 02          	lea    (%rdx,%rax,1),%rcx
  407a9b:	48 8b 55 e8          	mov    -0x18(%rbp),%rdx
  407a9f:	48 8b 45 f8          	mov    -0x8(%rbp),%rax
  407aa3:	48 89 ce             	mov    %rcx,%rsi
  407aa6:	48 89 c7             	mov    %rax,%rdi
  407aa9:	e8 09 06 00 00       	callq  4080b7 <_ZSt4copyIPKiPiET0_T_S4_S3_>
  407aae:	c9                   	leaveq 
  407aaf:	c3                   	retq   

0000000000407ab0 <_ZNKSt10_HashtableIN10tensorflow6OutputESt4pairIKS1_NS0_5Input11InitializerEESaIS6_ENSt8__detail10_Select1stESt8equal_toIS1_ENS0_10OutputHashENS8_18_Mod_range_hashingENS8_20_Default_ranged_hashENS8_20_Prime_rehash_policyENS8_17_Hashtable_traitsILb1ELb0ELb1EEEE8_M_beginEv>:
  407ab0:	55                   	push   %rbp
  407ab1:	48 89 e5             	mov    %rsp,%rbp
  407ab4:	48 89 7d f8          	mov    %rdi,-0x8(%rbp)
  407ab8:	48 8b 45 f8          	mov    -0x8(%rbp),%rax
  407abc:	48 8b 40 10          	mov    0x10(%rax),%rax
  407ac0:	5d                   	pop    %rbp
  407ac1:	c3                   	retq   

0000000000407ac2 <_ZNSt8__detail16_Hashtable_allocISaINS_10_Hash_nodeISt4pairIKN10tensorflow6OutputENS3_5Input11InitializerEELb1EEEEE19_M_deallocate_nodesEPS9_>:
  407ac2:	55                   	push   %rbp
  407ac3:	48 89 e5             	mov    %rsp,%rbp
  407ac6:	48 83 ec 20          	sub    $0x20,%rsp
  407aca:	48 89 7d e8          	mov    %rdi,-0x18(%rbp)
  407ace:	48 89 75 e0          	mov    %rsi,-0x20(%rbp)
  407ad2:	48 83 7d e0 00       	cmpq   $0x0,-0x20(%rbp)
  407ad7:	74 2d                	je     407b06 <_ZNSt8__detail16_Hashtable_allocISaINS_10_Hash_nodeISt4pairIKN10tensorflow6OutputENS3_5Input11InitializerEELb1EEEEE19_M_deallocate_nodesEPS9_+0x44>
  407ad9:	48 8b 45 e0          	mov    -0x20(%rbp),%rax
  407add:	48 89 45 f8          	mov    %rax,-0x8(%rbp)
  407ae1:	48 8b 45 e0          	mov    -0x20(%rbp),%rax
  407ae5:	48 89 c7             	mov    %rax,%rdi
  407ae8:	e8 17 06 00 00       	callq  408104 <_ZNKSt8__detail10_Hash_nodeISt4pairIKN10tensorflow6OutputENS2_5Input11InitializerEELb1EE7_M_nextEv>
  407aed:	48 89 45 e0          	mov    %rax,-0x20(%rbp)
  407af1:	48 8b 55 f8          	mov    -0x8(%rbp),%rdx
  407af5:	48 8b 45 e8          	mov    -0x18(%rbp),%rax
  407af9:	48 89 d6             	mov    %rdx,%rsi
  407afc:	48 89 c7             	mov    %rax,%rdi
  407aff:	e8 12 06 00 00       	callq  408116 <_ZNSt8__detail16_Hashtable_allocISaINS_10_Hash_nodeISt4pairIKN10tensorflow6OutputENS3_5Input11InitializerEELb1EEEEE18_M_deallocate_nodeEPS9_>
  407b04:	eb cc                	jmp    407ad2 <_ZNSt8__detail16_Hashtable_allocISaINS_10_Hash_nodeISt4pairIKN10tensorflow6OutputENS3_5Input11InitializerEELb1EEEEE19_M_deallocate_nodesEPS9_+0x10>
  407b06:	90                   	nop
  407b07:	c9                   	leaveq 
  407b08:	c3                   	retq   
  407b09:	90                   	nop

0000000000407b0a <_ZNSt10_HashtableIN10tensorflow6OutputESt4pairIKS1_NS0_5Input11InitializerEESaIS6_ENSt8__detail10_Select1stESt8equal_toIS1_ENS0_10OutputHashENS8_18_Mod_range_hashingENS8_20_Default_ranged_hashENS8_20_Prime_rehash_policyENS8_17_Hashtable_traitsILb1ELb0ELb1EEEE21_M_deallocate_bucketsEPPNS8_15_Hash_node_baseEm>:
  407b0a:	55                   	push   %rbp
  407b0b:	48 89 e5             	mov    %rsp,%rbp
  407b0e:	48 83 ec 20          	sub    $0x20,%rsp
  407b12:	48 89 7d f8          	mov    %rdi,-0x8(%rbp)
  407b16:	48 89 75 f0          	mov    %rsi,-0x10(%rbp)
  407b1a:	48 89 55 e8          	mov    %rdx,-0x18(%rbp)
  407b1e:	48 8b 55 f0          	mov    -0x10(%rbp),%rdx
  407b22:	48 8b 45 f8          	mov    -0x8(%rbp),%rax
  407b26:	48 89 d6             	mov    %rdx,%rsi
  407b29:	48 89 c7             	mov    %rax,%rdi
  407b2c:	e8 b9 06 00 00       	callq  4081ea <_ZNKSt10_HashtableIN10tensorflow6OutputESt4pairIKS1_NS0_5Input11InitializerEESaIS6_ENSt8__detail10_Select1stESt8equal_toIS1_ENS0_10OutputHashENS8_18_Mod_range_hashingENS8_20_Default_ranged_hashENS8_20_Prime_rehash_policyENS8_17_Hashtable_traitsILb1ELb0ELb1EEEE21_M_uses_single_bucketEPPNS8_15_Hash_node_baseE>
  407b31:	84 c0                	test   %al,%al
  407b33:	75 19                	jne    407b4e <_ZNSt10_HashtableIN10tensorflow6OutputESt4pairIKS1_NS0_5Input11InitializerEESaIS6_ENSt8__detail10_Select1stESt8equal_toIS1_ENS0_10OutputHashENS8_18_Mod_range_hashingENS8_20_Default_ranged_hashENS8_20_Prime_rehash_policyENS8_17_Hashtable_traitsILb1ELb0ELb1EEEE21_M_deallocate_bucketsEPPNS8_15_Hash_node_baseEm+0x44>
  407b35:	48 8b 55 e8          	mov    -0x18(%rbp),%rdx
  407b39:	48 8b 4d f0          	mov    -0x10(%rbp),%rcx
  407b3d:	48 8b 45 f8          	mov    -0x8(%rbp),%rax
  407b41:	48 89 ce             	mov    %rcx,%rsi
  407b44:	48 89 c7             	mov    %rax,%rdi
  407b47:	e8 c4 06 00 00       	callq  408210 <_ZNSt8__detail16_Hashtable_allocISaINS_10_Hash_nodeISt4pairIKN10tensorflow6OutputENS3_5Input11InitializerEELb1EEEEE21_M_deallocate_bucketsEPPNS_15_Hash_node_baseEm>
  407b4c:	eb 01                	jmp    407b4f <_ZNSt10_HashtableIN10tensorflow6OutputESt4pairIKS1_NS0_5Input11InitializerEESaIS6_ENSt8__detail10_Select1stESt8equal_toIS1_ENS0_10OutputHashENS8_18_Mod_range_hashingENS8_20_Default_ranged_hashENS8_20_Prime_rehash_policyENS8_17_Hashtable_traitsILb1ELb0ELb1EEEE21_M_deallocate_bucketsEPPNS8_15_Hash_node_baseEm+0x45>
  407b4e:	90                   	nop
  407b4f:	c9                   	leaveq 
  407b50:	c3                   	retq   
  407b51:	90                   	nop

0000000000407b52 <_ZNSt12_Vector_baseIN10tensorflow6OutputESaIS1_EE12_Vector_implC1ERKS2_>:
  407b52:	55                   	push   %rbp
  407b53:	48 89 e5             	mov    %rsp,%rbp
  407b56:	48 83 ec 10          	sub    $0x10,%rsp
  407b5a:	48 89 7d f8          	mov    %rdi,-0x8(%rbp)
  407b5e:	48 89 75 f0          	mov    %rsi,-0x10(%rbp)
  407b62:	48 8b 55 f0          	mov    -0x10(%rbp),%rdx
  407b66:	48 8b 45 f8          	mov    -0x8(%rbp),%rax
  407b6a:	48 89 d6             	mov    %rdx,%rsi
  407b6d:	48 89 c7             	mov    %rax,%rdi
  407b70:	e8 49 07 00 00       	callq  4082be <_ZNSaIN10tensorflow6OutputEEC1ERKS1_>
  407b75:	48 8b 45 f8          	mov    -0x8(%rbp),%rax
  407b79:	48 c7 00 00 00 00 00 	movq   $0x0,(%rax)
  407b80:	48 8b 45 f8          	mov    -0x8(%rbp),%rax
  407b84:	48 c7 40 08 00 00 00 	movq   $0x0,0x8(%rax)
  407b8b:	00 
  407b8c:	48 8b 45 f8          	mov    -0x8(%rbp),%rax
  407b90:	48 c7 40 10 00 00 00 	movq   $0x0,0x10(%rax)
  407b97:	00 
  407b98:	90                   	nop
  407b99:	c9                   	leaveq 
  407b9a:	c3                   	retq   
  407b9b:	90                   	nop

0000000000407b9c <_ZNSt12_Vector_baseIN10tensorflow6OutputESaIS1_EE13_M_deallocateEPS1_m>:
  407b9c:	55                   	push   %rbp
  407b9d:	48 89 e5             	mov    %rsp,%rbp
  407ba0:	48 83 ec 20          	sub    $0x20,%rsp
  407ba4:	48 89 7d f8          	mov    %rdi,-0x8(%rbp)
  407ba8:	48 89 75 f0          	mov    %rsi,-0x10(%rbp)
  407bac:	48 89 55 e8          	mov    %rdx,-0x18(%rbp)
  407bb0:	48 83 7d f0 00       	cmpq   $0x0,-0x10(%rbp)
  407bb5:	74 17                	je     407bce <_ZNSt12_Vector_baseIN10tensorflow6OutputESaIS1_EE13_M_deallocateEPS1_m+0x32>
  407bb7:	48 8b 45 f8          	mov    -0x8(%rbp),%rax
  407bbb:	48 8b 55 e8          	mov    -0x18(%rbp),%rdx
  407bbf:	48 8b 4d f0          	mov    -0x10(%rbp),%rcx
  407bc3:	48 89 ce             	mov    %rcx,%rsi
  407bc6:	48 89 c7             	mov    %rax,%rdi
  407bc9:	e8 16 07 00 00       	callq  4082e4 <_ZNSt16allocator_traitsISaIN10tensorflow6OutputEEE10deallocateERS2_PS1_m>
  407bce:	90                   	nop
  407bcf:	c9                   	leaveq 
  407bd0:	c3                   	retq   

0000000000407bd1 <_ZSt8distanceIPKN10tensorflow6OutputEENSt15iterator_traitsIT_E15difference_typeES5_S5_>:
  407bd1:	55                   	push   %rbp
  407bd2:	48 89 e5             	mov    %rsp,%rbp
  407bd5:	53                   	push   %rbx
  407bd6:	48 83 ec 28          	sub    $0x28,%rsp
  407bda:	48 89 7d d8          	mov    %rdi,-0x28(%rbp)
  407bde:	48 89 75 d0          	mov    %rsi,-0x30(%rbp)
  407be2:	64 48 8b 04 25 28 00 	mov    %fs:0x28,%rax
  407be9:	00 00 
  407beb:	48 89 45 e8          	mov    %rax,-0x18(%rbp)
  407bef:	31 c0                	xor    %eax,%eax
  407bf1:	48 8d 45 d8          	lea    -0x28(%rbp),%rax
  407bf5:	48 89 c7             	mov    %rax,%rdi
  407bf8:	e8 15 07 00 00       	callq  408312 <_ZSt19__iterator_categoryIPKN10tensorflow6OutputEENSt15iterator_traitsIT_E17iterator_categoryERKS5_>
  407bfd:	48 8b 45 d8          	mov    -0x28(%rbp),%rax
  407c01:	48 8b 55 d0          	mov    -0x30(%rbp),%rdx
  407c05:	48 83 ec 08          	sub    $0x8,%rsp
  407c09:	53                   	push   %rbx
  407c0a:	48 89 d6             	mov    %rdx,%rsi
  407c0d:	48 89 c7             	mov    %rax,%rdi
  407c10:	e8 07 07 00 00       	callq  40831c <_ZSt10__distanceIPKN10tensorflow6OutputEENSt15iterator_traitsIT_E15difference_typeES5_S5_St26random_access_iterator_tag>
  407c15:	48 83 c4 10          	add    $0x10,%rsp
  407c19:	48 8b 4d e8          	mov    -0x18(%rbp),%rcx
  407c1d:	64 48 33 0c 25 28 00 	xor    %fs:0x28,%rcx
  407c24:	00 00 
  407c26:	74 05                	je     407c2d <_ZSt8distanceIPKN10tensorflow6OutputEENSt15iterator_traitsIT_E15difference_typeES5_S5_+0x5c>
  407c28:	e8 33 b1 ff ff       	callq  402d60 <__stack_chk_fail@plt>
  407c2d:	48 8b 5d f8          	mov    -0x8(%rbp),%rbx
  407c31:	c9                   	leaveq 
  407c32:	c3                   	retq   
  407c33:	90                   	nop

0000000000407c34 <_ZNSt12_Vector_baseIN10tensorflow6OutputESaIS1_EE11_M_allocateEm>:
  407c34:	55                   	push   %rbp
  407c35:	48 89 e5             	mov    %rsp,%rbp
  407c38:	48 83 ec 10          	sub    $0x10,%rsp
  407c3c:	48 89 7d f8          	mov    %rdi,-0x8(%rbp)
  407c40:	48 89 75 f0          	mov    %rsi,-0x10(%rbp)
  407c44:	48 83 7d f0 00       	cmpq   $0x0,-0x10(%rbp)
  407c49:	74 15                	je     407c60 <_ZNSt12_Vector_baseIN10tensorflow6OutputESaIS1_EE11_M_allocateEm+0x2c>
  407c4b:	48 8b 45 f8          	mov    -0x8(%rbp),%rax
  407c4f:	48 8b 55 f0          	mov    -0x10(%rbp),%rdx
  407c53:	48 89 d6             	mov    %rdx,%rsi
  407c56:	48 89 c7             	mov    %rax,%rdi
  407c59:	e8 ef 06 00 00       	callq  40834d <_ZNSt16allocator_traitsISaIN10tensorflow6OutputEEE8allocateERS2_m>
  407c5e:	eb 05                	jmp    407c65 <_ZNSt12_Vector_baseIN10tensorflow6OutputESaIS1_EE11_M_allocateEm+0x31>
  407c60:	b8 00 00 00 00       	mov    $0x0,%eax
  407c65:	c9                   	leaveq 
  407c66:	c3                   	retq   

0000000000407c67 <_ZSt22__uninitialized_copy_aIPKN10tensorflow6OutputEPS1_S1_ET0_T_S6_S5_RSaIT1_E>:
  407c67:	55                   	push   %rbp
  407c68:	48 89 e5             	mov    %rsp,%rbp
  407c6b:	48 83 ec 20          	sub    $0x20,%rsp
  407c6f:	48 89 7d f8          	mov    %rdi,-0x8(%rbp)
  407c73:	48 89 75 f0          	mov    %rsi,-0x10(%rbp)
  407c77:	48 89 55 e8          	mov    %rdx,-0x18(%rbp)
  407c7b:	48 89 4d e0          	mov    %rcx,-0x20(%rbp)
  407c7f:	48 8b 55 e8          	mov    -0x18(%rbp),%rdx
  407c83:	48 8b 4d f0          	mov    -0x10(%rbp),%rcx
  407c87:	48 8b 45 f8          	mov    -0x8(%rbp),%rax
  407c8b:	48 89 ce             	mov    %rcx,%rsi
  407c8e:	48 89 c7             	mov    %rax,%rdi
  407c91:	e8 e1 06 00 00       	callq  408377 <_ZSt18uninitialized_copyIPKN10tensorflow6OutputEPS1_ET0_T_S6_S5_>
  407c96:	c9                   	leaveq 
  407c97:	c3                   	retq   

0000000000407c98 <_ZSt8_DestroyIPN10tensorflow6OutputEEvT_S3_>:
  407c98:	55                   	push   %rbp
  407c99:	48 89 e5             	mov    %rsp,%rbp
  407c9c:	48 83 ec 10          	sub    $0x10,%rsp
  407ca0:	48 89 7d f8          	mov    %rdi,-0x8(%rbp)
  407ca4:	48 89 75 f0          	mov    %rsi,-0x10(%rbp)
  407ca8:	48 8b 55 f0          	mov    -0x10(%rbp),%rdx
  407cac:	48 8b 45 f8          	mov    -0x8(%rbp),%rax
  407cb0:	48 89 d6             	mov    %rdx,%rsi
  407cb3:	48 89 c7             	mov    %rax,%rdi
  407cb6:	e8 ed 06 00 00       	callq  4083a8 <_ZNSt12_Destroy_auxILb0EE9__destroyIPN10tensorflow6OutputEEEvT_S5_>
  407cbb:	90                   	nop
  407cbc:	c9                   	leaveq 
  407cbd:	c3                   	retq   

0000000000407cbe <_ZNSt12_Vector_baseIN10tensorflow9OperationESaIS1_EE12_Vector_implC1Ev>:
  407cbe:	55                   	push   %rbp
  407cbf:	48 89 e5             	mov    %rsp,%rbp
  407cc2:	48 83 ec 10          	sub    $0x10,%rsp
  407cc6:	48 89 7d f8          	mov    %rdi,-0x8(%rbp)
  407cca:	48 8b 45 f8          	mov    -0x8(%rbp),%rax
  407cce:	48 89 c7             	mov    %rax,%rdi
  407cd1:	e8 0a 07 00 00       	callq  4083e0 <_ZNSaIN10tensorflow9OperationEEC1Ev>
  407cd6:	48 8b 45 f8          	mov    -0x8(%rbp),%rax
  407cda:	48 c7 00 00 00 00 00 	movq   $0x0,(%rax)
  407ce1:	48 8b 45 f8          	mov    -0x8(%rbp),%rax
  407ce5:	48 c7 40 08 00 00 00 	movq   $0x0,0x8(%rax)
  407cec:	00 
  407ced:	48 8b 45 f8          	mov    -0x8(%rbp),%rax
  407cf1:	48 c7 40 10 00 00 00 	movq   $0x0,0x10(%rax)
  407cf8:	00 
  407cf9:	90                   	nop
  407cfa:	c9                   	leaveq 
  407cfb:	c3                   	retq   

0000000000407cfc <_ZNSaIN10tensorflow9OperationEED1Ev>:
  407cfc:	55                   	push   %rbp
  407cfd:	48 89 e5             	mov    %rsp,%rbp
  407d00:	48 83 ec 10          	sub    $0x10,%rsp
  407d04:	48 89 7d f8          	mov    %rdi,-0x8(%rbp)
  407d08:	48 8b 45 f8          	mov    -0x8(%rbp),%rax
  407d0c:	48 89 c7             	mov    %rax,%rdi
  407d0f:	e8 e8 06 00 00       	callq  4083fc <_ZN9__gnu_cxx13new_allocatorIN10tensorflow9OperationEED1Ev>
  407d14:	90                   	nop
  407d15:	c9                   	leaveq 
  407d16:	c3                   	retq   
  407d17:	90                   	nop

0000000000407d18 <_ZNSt12_Vector_baseIN10tensorflow9OperationESaIS1_EE13_M_deallocateEPS1_m>:
  407d18:	55                   	push   %rbp
  407d19:	48 89 e5             	mov    %rsp,%rbp
  407d1c:	48 83 ec 20          	sub    $0x20,%rsp
  407d20:	48 89 7d f8          	mov    %rdi,-0x8(%rbp)
  407d24:	48 89 75 f0          	mov    %rsi,-0x10(%rbp)
  407d28:	48 89 55 e8          	mov    %rdx,-0x18(%rbp)
  407d2c:	48 83 7d f0 00       	cmpq   $0x0,-0x10(%rbp)
  407d31:	74 17                	je     407d4a <_ZNSt12_Vector_baseIN10tensorflow9OperationESaIS1_EE13_M_deallocateEPS1_m+0x32>
  407d33:	48 8b 45 f8          	mov    -0x8(%rbp),%rax
  407d37:	48 8b 55 e8          	mov    -0x18(%rbp),%rdx
  407d3b:	48 8b 4d f0          	mov    -0x10(%rbp),%rcx
  407d3f:	48 89 ce             	mov    %rcx,%rsi
  407d42:	48 89 c7             	mov    %rax,%rdi
  407d45:	e8 bd 06 00 00       	callq  408407 <_ZNSt16allocator_traitsISaIN10tensorflow9OperationEEE10deallocateERS2_PS1_m>
  407d4a:	90                   	nop
  407d4b:	c9                   	leaveq 
  407d4c:	c3                   	retq   

0000000000407d4d <_ZSt8_DestroyIPN10tensorflow9OperationEEvT_S3_>:
  407d4d:	55                   	push   %rbp
  407d4e:	48 89 e5             	mov    %rsp,%rbp
  407d51:	48 83 ec 10          	sub    $0x10,%rsp
  407d55:	48 89 7d f8          	mov    %rdi,-0x8(%rbp)
  407d59:	48 89 75 f0          	mov    %rsi,-0x10(%rbp)
  407d5d:	48 8b 55 f0          	mov    -0x10(%rbp),%rdx
  407d61:	48 8b 45 f8          	mov    -0x8(%rbp),%rax
  407d65:	48 89 d6             	mov    %rdx,%rsi
  407d68:	48 89 c7             	mov    %rax,%rdi
  407d6b:	e8 c5 06 00 00       	callq  408435 <_ZNSt12_Destroy_auxILb0EE9__destroyIPN10tensorflow9OperationEEEvT_S5_>
  407d70:	90                   	nop
  407d71:	c9                   	leaveq 
  407d72:	c3                   	retq   

0000000000407d73 <_ZSt12__niter_baseIPiET_S1_>:
  407d73:	55                   	push   %rbp
  407d74:	48 89 e5             	mov    %rsp,%rbp
  407d77:	48 89 7d f8          	mov    %rdi,-0x8(%rbp)
  407d7b:	48 8b 45 f8          	mov    -0x8(%rbp),%rax
  407d7f:	5d                   	pop    %rbp
  407d80:	c3                   	retq   

0000000000407d81 <_ZNSt16allocator_traitsISaISt4pairIPN10tensorflow4NodeEiEEE10deallocateERS5_PS4_m>:
  407d81:	55                   	push   %rbp
  407d82:	48 89 e5             	mov    %rsp,%rbp
  407d85:	48 83 ec 20          	sub    $0x20,%rsp
  407d89:	48 89 7d f8          	mov    %rdi,-0x8(%rbp)
  407d8d:	48 89 75 f0          	mov    %rsi,-0x10(%rbp)
  407d91:	48 89 55 e8          	mov    %rdx,-0x18(%rbp)
  407d95:	48 8b 55 e8          	mov    -0x18(%rbp),%rdx
  407d99:	48 8b 4d f0          	mov    -0x10(%rbp),%rcx
  407d9d:	48 8b 45 f8          	mov    -0x8(%rbp),%rax
  407da1:	48 89 ce             	mov    %rcx,%rsi
  407da4:	48 89 c7             	mov    %rax,%rdi
  407da7:	e8 c2 06 00 00       	callq  40846e <_ZN9__gnu_cxx13new_allocatorISt4pairIPN10tensorflow4NodeEiEE10deallocateEPS5_m>
  407dac:	90                   	nop
  407dad:	c9                   	leaveq 
  407dae:	c3                   	retq   

0000000000407daf <_ZNSt12_Destroy_auxILb1EE9__destroyIPSt4pairIPN10tensorflow4NodeEiEEEvT_S8_>:
  407daf:	55                   	push   %rbp
  407db0:	48 89 e5             	mov    %rsp,%rbp
  407db3:	48 89 7d f8          	mov    %rdi,-0x8(%rbp)
  407db7:	48 89 75 f0          	mov    %rsi,-0x10(%rbp)
  407dbb:	90                   	nop
  407dbc:	5d                   	pop    %rbp
  407dbd:	c3                   	retq   

0000000000407dbe <_ZN9__gnu_cxx13new_allocatorISt4pairIPN10tensorflow4NodeEiEEC1ERKS6_>:
  407dbe:	55                   	push   %rbp
  407dbf:	48 89 e5             	mov    %rsp,%rbp
  407dc2:	48 89 7d f8          	mov    %rdi,-0x8(%rbp)
  407dc6:	48 89 75 f0          	mov    %rsi,-0x10(%rbp)
  407dca:	90                   	nop
  407dcb:	5d                   	pop    %rbp
  407dcc:	c3                   	retq   
  407dcd:	90                   	nop

0000000000407dce <_ZNSt12_Vector_baseISt4pairIPN10tensorflow4NodeEiESaIS4_EE11_M_allocateEm>:
  407dce:	55                   	push   %rbp
  407dcf:	48 89 e5             	mov    %rsp,%rbp
  407dd2:	48 83 ec 10          	sub    $0x10,%rsp
  407dd6:	48 89 7d f8          	mov    %rdi,-0x8(%rbp)
  407dda:	48 89 75 f0          	mov    %rsi,-0x10(%rbp)
  407dde:	48 83 7d f0 00       	cmpq   $0x0,-0x10(%rbp)
  407de3:	74 15                	je     407dfa <_ZNSt12_Vector_baseISt4pairIPN10tensorflow4NodeEiESaIS4_EE11_M_allocateEm+0x2c>
  407de5:	48 8b 45 f8          	mov    -0x8(%rbp),%rax
  407de9:	48 8b 55 f0          	mov    -0x10(%rbp),%rdx
  407ded:	48 89 d6             	mov    %rdx,%rsi
  407df0:	48 89 c7             	mov    %rax,%rdi
  407df3:	e8 99 06 00 00       	callq  408491 <_ZNSt16allocator_traitsISaISt4pairIPN10tensorflow4NodeEiEEE8allocateERS5_m>
  407df8:	eb 05                	jmp    407dff <_ZNSt12_Vector_baseISt4pairIPN10tensorflow4NodeEiESaIS4_EE11_M_allocateEm+0x31>
  407dfa:	b8 00 00 00 00       	mov    $0x0,%eax
  407dff:	c9                   	leaveq 
  407e00:	c3                   	retq   

0000000000407e01 <_ZNSt20__uninitialized_copyILb0EE13__uninit_copyIN9__gnu_cxx17__normal_iteratorIPKSt4pairIPN10tensorflow4NodeEiESt6vectorIS8_SaIS8_EEEEPS8_EET0_T_SH_SG_>:
  407e01:	55                   	push   %rbp
  407e02:	48 89 e5             	mov    %rsp,%rbp
  407e05:	53                   	push   %rbx
  407e06:	48 83 ec 38          	sub    $0x38,%rsp
  407e0a:	48 89 7d d8          	mov    %rdi,-0x28(%rbp)
  407e0e:	48 89 75 d0          	mov    %rsi,-0x30(%rbp)
  407e12:	48 89 55 c8          	mov    %rdx,-0x38(%rbp)
  407e16:	48 8b 45 c8          	mov    -0x38(%rbp),%rax
  407e1a:	48 89 45 e8          	mov    %rax,-0x18(%rbp)
  407e1e:	48 8d 55 d0          	lea    -0x30(%rbp),%rdx
  407e22:	48 8d 45 d8          	lea    -0x28(%rbp),%rax
  407e26:	48 89 d6             	mov    %rdx,%rsi
  407e29:	48 89 c7             	mov    %rax,%rdi
  407e2c:	e8 8a 06 00 00       	callq  4084bb <_ZN9__gnu_cxxneIPKSt4pairIPN10tensorflow4NodeEiESt6vectorIS5_SaIS5_EEEEbRKNS_17__normal_iteratorIT_T0_EESG_>
  407e31:	84 c0                	test   %al,%al
  407e33:	74 39                	je     407e6e <_ZNSt20__uninitialized_copyILb0EE13__uninit_copyIN9__gnu_cxx17__normal_iteratorIPKSt4pairIPN10tensorflow4NodeEiESt6vectorIS8_SaIS8_EEEEPS8_EET0_T_SH_SG_+0x6d>
  407e35:	48 8d 45 d8          	lea    -0x28(%rbp),%rax
  407e39:	48 89 c7             	mov    %rax,%rdi
  407e3c:	e8 e5 06 00 00       	callq  408526 <_ZNK9__gnu_cxx17__normal_iteratorIPKSt4pairIPN10tensorflow4NodeEiESt6vectorIS5_SaIS5_EEEdeEv>
  407e41:	48 89 c3             	mov    %rax,%rbx
  407e44:	48 8b 45 e8          	mov    -0x18(%rbp),%rax
  407e48:	48 89 c7             	mov    %rax,%rdi
  407e4b:	e8 c8 06 00 00       	callq  408518 <_ZSt11__addressofISt4pairIPN10tensorflow4NodeEiEEPT_RS5_>
  407e50:	48 89 de             	mov    %rbx,%rsi
  407e53:	48 89 c7             	mov    %rax,%rdi
  407e56:	e8 ea 06 00 00       	callq  408545 <_ZSt10_ConstructISt4pairIPN10tensorflow4NodeEiEJRKS4_EEvPT_DpOT0_>
  407e5b:	48 8d 45 d8          	lea    -0x28(%rbp),%rax
  407e5f:	48 89 c7             	mov    %rax,%rdi
  407e62:	e8 91 06 00 00       	callq  4084f8 <_ZN9__gnu_cxx17__normal_iteratorIPKSt4pairIPN10tensorflow4NodeEiESt6vectorIS5_SaIS5_EEEppEv>
  407e67:	48 83 45 e8 10       	addq   $0x10,-0x18(%rbp)
  407e6c:	eb b0                	jmp    407e1e <_ZNSt20__uninitialized_copyILb0EE13__uninit_copyIN9__gnu_cxx17__normal_iteratorIPKSt4pairIPN10tensorflow4NodeEiESt6vectorIS8_SaIS8_EEEEPS8_EET0_T_SH_SG_+0x1d>
  407e6e:	48 8b 45 e8          	mov    -0x18(%rbp),%rax
  407e72:	48 83 c4 38          	add    $0x38,%rsp
  407e76:	5b                   	pop    %rbx
  407e77:	5d                   	pop    %rbp
  407e78:	c3                   	retq   
  407e79:	90                   	nop

0000000000407e7a <_ZNK10tensorflow3gtl10ArraySliceIxE4sizeEv>:
  407e7a:	55                   	push   %rbp
  407e7b:	48 89 e5             	mov    %rsp,%rbp
  407e7e:	48 83 ec 10          	sub    $0x10,%rsp
  407e82:	48 89 7d f8          	mov    %rdi,-0x8(%rbp)
  407e86:	48 8b 45 f8          	mov    -0x8(%rbp),%rax
  407e8a:	48 89 c7             	mov    %rax,%rdi
  407e8d:	e8 02 07 00 00       	callq  408594 <_ZNK10tensorflow3gtl20array_slice_internal18ArraySliceImplBaseIKxE4sizeEv>
  407e92:	c9                   	leaveq 
  407e93:	c3                   	retq   

0000000000407e94 <_ZNK10tensorflow3gtl10ArraySliceIxEixEm>:
  407e94:	55                   	push   %rbp
  407e95:	48 89 e5             	mov    %rsp,%rbp
  407e98:	48 83 ec 10          	sub    $0x10,%rsp
  407e9c:	48 89 7d f8          	mov    %rdi,-0x8(%rbp)
  407ea0:	48 89 75 f0          	mov    %rsi,-0x10(%rbp)
  407ea4:	48 8b 45 f8          	mov    -0x8(%rbp),%rax
  407ea8:	48 8b 55 f0          	mov    -0x10(%rbp),%rdx
  407eac:	48 89 d6             	mov    %rdx,%rsi
  407eaf:	48 89 c7             	mov    %rax,%rdi
  407eb2:	e8 ef 06 00 00       	callq  4085a6 <_ZNK10tensorflow3gtl20array_slice_internal18ArraySliceImplBaseIKxEixEm>
  407eb7:	c9                   	leaveq 
  407eb8:	c3                   	retq   

0000000000407eb9 <_ZNSt14__array_traitsIlLm1EE6_S_refERA1_Klm>:
  407eb9:	55                   	push   %rbp
  407eba:	48 89 e5             	mov    %rsp,%rbp
  407ebd:	48 89 7d f8          	mov    %rdi,-0x8(%rbp)
  407ec1:	48 89 75 f0          	mov    %rsi,-0x10(%rbp)
  407ec5:	48 8b 45 f0          	mov    -0x10(%rbp),%rax
  407ec9:	48 8d 14 c5 00 00 00 	lea    0x0(,%rax,8),%rdx
  407ed0:	00 
  407ed1:	48 8b 45 f8          	mov    -0x8(%rbp),%rax
  407ed5:	48 01 d0             	add    %rdx,%rax
  407ed8:	5d                   	pop    %rbp
  407ed9:	c3                   	retq   

0000000000407eda <_ZNSt5arrayIlLm1EEixEm>:
  407eda:	55                   	push   %rbp
  407edb:	48 89 e5             	mov    %rsp,%rbp
  407ede:	48 83 ec 10          	sub    $0x10,%rsp
  407ee2:	48 89 7d f8          	mov    %rdi,-0x8(%rbp)
  407ee6:	48 89 75 f0          	mov    %rsi,-0x10(%rbp)
  407eea:	48 8b 45 f8          	mov    -0x8(%rbp),%rax
  407eee:	48 8b 55 f0          	mov    -0x10(%rbp),%rdx
  407ef2:	48 89 d6             	mov    %rdx,%rsi
  407ef5:	48 89 c7             	mov    %rax,%rdi
  407ef8:	e8 bc ff ff ff       	callq  407eb9 <_ZNSt14__array_traitsIlLm1EE6_S_refERA1_Klm>
  407efd:	c9                   	leaveq 
  407efe:	c3                   	retq   

0000000000407eff <_ZN10tensorflow8internal12Check_EQImplIxxEEPNSt7__cxx1112basic_stringIcSt11char_traitsIcESaIcEEERKT_RKT0_PKc>:
  407eff:	55                   	push   %rbp
  407f00:	48 89 e5             	mov    %rsp,%rbp
  407f03:	48 83 ec 20          	sub    $0x20,%rsp
  407f07:	48 89 7d f8          	mov    %rdi,-0x8(%rbp)
  407f0b:	48 89 75 f0          	mov    %rsi,-0x10(%rbp)
  407f0f:	48 89 55 e8          	mov    %rdx,-0x18(%rbp)
  407f13:	48 8b 45 f8          	mov    -0x8(%rbp),%rax
  407f17:	48 8b 10             	mov    (%rax),%rdx
  407f1a:	48 8b 45 f0          	mov    -0x10(%rbp),%rax
  407f1e:	48 8b 00             	mov    (%rax),%rax
  407f21:	48 39 c2             	cmp    %rax,%rdx
  407f24:	75 07                	jne    407f2d <_ZN10tensorflow8internal12Check_EQImplIxxEEPNSt7__cxx1112basic_stringIcSt11char_traitsIcESaIcEEERKT_RKT0_PKc+0x2e>
  407f26:	b8 00 00 00 00       	mov    $0x0,%eax
  407f2b:	eb 17                	jmp    407f44 <_ZN10tensorflow8internal12Check_EQImplIxxEEPNSt7__cxx1112basic_stringIcSt11char_traitsIcESaIcEEERKT_RKT0_PKc+0x45>
  407f2d:	48 8b 55 e8          	mov    -0x18(%rbp),%rdx
  407f31:	48 8b 4d f0          	mov    -0x10(%rbp),%rcx
  407f35:	48 8b 45 f8          	mov    -0x8(%rbp),%rax
  407f39:	48 89 ce             	mov    %rcx,%rsi
  407f3c:	48 89 c7             	mov    %rax,%rdi
  407f3f:	e8 82 06 00 00       	callq  4085c6 <_ZN10tensorflow8internal17MakeCheckOpStringIxxEEPNSt7__cxx1112basic_stringIcSt11char_traitsIcESaIcEEERKT_RKT0_PKc>
  407f44:	c9                   	leaveq 
  407f45:	c3                   	retq   

0000000000407f46 <_ZNK10tensorflow12TensorBuffer4baseIfEEPT_v>:
  407f46:	55                   	push   %rbp
  407f47:	48 89 e5             	mov    %rsp,%rbp
  407f4a:	48 83 ec 10          	sub    $0x10,%rsp
  407f4e:	48 89 7d f8          	mov    %rdi,-0x8(%rbp)
  407f52:	48 8b 45 f8          	mov    -0x8(%rbp),%rax
  407f56:	48 8b 00             	mov    (%rax),%rax
  407f59:	48 83 c0 10          	add    $0x10,%rax
  407f5d:	48 8b 00             	mov    (%rax),%rax
  407f60:	48 8b 55 f8          	mov    -0x8(%rbp),%rdx
  407f64:	48 89 d7             	mov    %rdx,%rdi
  407f67:	ff d0                	callq  *%rax
  407f69:	c9                   	leaveq 
  407f6a:	c3                   	retq   
  407f6b:	90                   	nop

0000000000407f6c <_ZN5Eigen6DSizesIlLi1EEC1ERKSt5arrayIlLm1EE>:
  407f6c:	55                   	push   %rbp
  407f6d:	48 89 e5             	mov    %rsp,%rbp
  407f70:	48 89 7d f8          	mov    %rdi,-0x8(%rbp)
  407f74:	48 89 75 f0          	mov    %rsi,-0x10(%rbp)
  407f78:	48 8b 45 f8          	mov    -0x8(%rbp),%rax
  407f7c:	48 8b 55 f0          	mov    -0x10(%rbp),%rdx
  407f80:	48 8b 12             	mov    (%rdx),%rdx
  407f83:	48 89 10             	mov    %rdx,(%rax)
  407f86:	90                   	nop
  407f87:	5d                   	pop    %rbp
  407f88:	c3                   	retq   
  407f89:	90                   	nop

0000000000407f8a <_ZNSaIN10tensorflow6TensorEEC1Ev>:
  407f8a:	55                   	push   %rbp
  407f8b:	48 89 e5             	mov    %rsp,%rbp
  407f8e:	48 83 ec 10          	sub    $0x10,%rsp
  407f92:	48 89 7d f8          	mov    %rdi,-0x8(%rbp)
  407f96:	48 8b 45 f8          	mov    -0x8(%rbp),%rax
  407f9a:	48 89 c7             	mov    %rax,%rdi
  407f9d:	e8 ec 06 00 00       	callq  40868e <_ZN9__gnu_cxx13new_allocatorIN10tensorflow6TensorEEC1Ev>
  407fa2:	90                   	nop
  407fa3:	c9                   	leaveq 
  407fa4:	c3                   	retq   
  407fa5:	90                   	nop

0000000000407fa6 <_ZN9__gnu_cxx13new_allocatorIN10tensorflow6TensorEED1Ev>:
  407fa6:	55                   	push   %rbp
  407fa7:	48 89 e5             	mov    %rsp,%rbp
  407faa:	48 89 7d f8          	mov    %rdi,-0x8(%rbp)
  407fae:	90                   	nop
  407faf:	5d                   	pop    %rbp
  407fb0:	c3                   	retq   

0000000000407fb1 <_ZNSt16allocator_traitsISaIN10tensorflow6TensorEEE10deallocateERS2_PS1_m>:
  407fb1:	55                   	push   %rbp
  407fb2:	48 89 e5             	mov    %rsp,%rbp
  407fb5:	48 83 ec 20          	sub    $0x20,%rsp
  407fb9:	48 89 7d f8          	mov    %rdi,-0x8(%rbp)
  407fbd:	48 89 75 f0          	mov    %rsi,-0x10(%rbp)
  407fc1:	48 89 55 e8          	mov    %rdx,-0x18(%rbp)
  407fc5:	48 8b 55 e8          	mov    -0x18(%rbp),%rdx
  407fc9:	48 8b 4d f0          	mov    -0x10(%rbp),%rcx
  407fcd:	48 8b 45 f8          	mov    -0x8(%rbp),%rax
  407fd1:	48 89 ce             	mov    %rcx,%rsi
  407fd4:	48 89 c7             	mov    %rax,%rdi
  407fd7:	e8 be 06 00 00       	callq  40869a <_ZN9__gnu_cxx13new_allocatorIN10tensorflow6TensorEE10deallocateEPS2_m>
  407fdc:	90                   	nop
  407fdd:	c9                   	leaveq 
  407fde:	c3                   	retq   

0000000000407fdf <_ZNSt12_Destroy_auxILb0EE9__destroyIPN10tensorflow6TensorEEEvT_S5_>:
  407fdf:	55                   	push   %rbp
  407fe0:	48 89 e5             	mov    %rsp,%rbp
  407fe3:	48 83 ec 10          	sub    $0x10,%rsp
  407fe7:	48 89 7d f8          	mov    %rdi,-0x8(%rbp)
  407feb:	48 89 75 f0          	mov    %rsi,-0x10(%rbp)
  407fef:	48 8b 45 f8          	mov    -0x8(%rbp),%rax
  407ff3:	48 3b 45 f0          	cmp    -0x10(%rbp),%rax
  407ff7:	74 1b                	je     408014 <_ZNSt12_Destroy_auxILb0EE9__destroyIPN10tensorflow6TensorEEEvT_S5_+0x35>
  407ff9:	48 8b 45 f8          	mov    -0x8(%rbp),%rax
  407ffd:	48 89 c7             	mov    %rax,%rdi
  408000:	e8 b8 06 00 00       	callq  4086bd <_ZSt11__addressofIN10tensorflow6TensorEEPT_RS2_>
  408005:	48 89 c7             	mov    %rax,%rdi
  408008:	e8 be 06 00 00       	callq  4086cb <_ZSt8_DestroyIN10tensorflow6TensorEEvPT_>
  40800d:	48 83 45 f8 20       	addq   $0x20,-0x8(%rbp)
  408012:	eb db                	jmp    407fef <_ZNSt12_Destroy_auxILb0EE9__destroyIPN10tensorflow6TensorEEEvT_S5_+0x10>
  408014:	90                   	nop
  408015:	c9                   	leaveq 
  408016:	c3                   	retq   
  408017:	90                   	nop

0000000000408018 <_ZNK10tensorflow6Tensor4baseIiEEPT_v>:
  408018:	55                   	push   %rbp
  408019:	48 89 e5             	mov    %rsp,%rbp
  40801c:	48 83 ec 10          	sub    $0x10,%rsp
  408020:	48 89 7d f8          	mov    %rdi,-0x8(%rbp)
  408024:	48 8b 45 f8          	mov    -0x8(%rbp),%rax
  408028:	48 8b 40 18          	mov    0x18(%rax),%rax
  40802c:	48 85 c0             	test   %rax,%rax
  40802f:	74 12                	je     408043 <_ZNK10tensorflow6Tensor4baseIiEEPT_v+0x2b>
  408031:	48 8b 45 f8          	mov    -0x8(%rbp),%rax
  408035:	48 8b 40 18          	mov    0x18(%rax),%rax
  408039:	48 89 c7             	mov    %rax,%rdi
  40803c:	e8 a5 06 00 00       	callq  4086e6 <_ZNK10tensorflow12TensorBuffer4baseIiEEPT_v>
  408041:	eb 05                	jmp    408048 <_ZNK10tensorflow6Tensor4baseIiEEPT_v+0x30>
  408043:	b8 00 00 00 00       	mov    $0x0,%eax
  408048:	c9                   	leaveq 
  408049:	c3                   	retq   

000000000040804a <_ZN5Eigen10TensorBaseINS_9TensorMapINS_6TensorIiLi1ELi1ElEELi16ENS_11MakePointerEEELi0EEC1Ev>:
  40804a:	55                   	push   %rbp
  40804b:	48 89 e5             	mov    %rsp,%rbp
  40804e:	48 89 7d f8          	mov    %rdi,-0x8(%rbp)
  408052:	90                   	nop
  408053:	5d                   	pop    %rbp
  408054:	c3                   	retq   
  408055:	90                   	nop

0000000000408056 <_ZN5Eigen10TensorBaseINS_9TensorMapINS_6TensorIiLi1ELi1ElEELi16ENS_11MakePointerEEELi1EEC1Ev>:
  408056:	55                   	push   %rbp
  408057:	48 89 e5             	mov    %rsp,%rbp
  40805a:	48 83 ec 10          	sub    $0x10,%rsp
  40805e:	48 89 7d f8          	mov    %rdi,-0x8(%rbp)
  408062:	48 8b 45 f8          	mov    -0x8(%rbp),%rax
  408066:	48 89 c7             	mov    %rax,%rdi
  408069:	e8 dc ff ff ff       	callq  40804a <_ZN5Eigen10TensorBaseINS_9TensorMapINS_6TensorIiLi1ELi1ElEELi16ENS_11MakePointerEEELi0EEC1Ev>
  40806e:	90                   	nop
  40806f:	c9                   	leaveq 
  408070:	c3                   	retq   
  408071:	90                   	nop

0000000000408072 <_ZN5Eigen9TensorMapINS_6TensorIiLi1ELi1ElEELi16ENS_11MakePointerEEC1EPiRKSt5arrayIlLm1EE>:
  408072:	55                   	push   %rbp
  408073:	48 89 e5             	mov    %rsp,%rbp
  408076:	48 83 ec 20          	sub    $0x20,%rsp
  40807a:	48 89 7d f8          	mov    %rdi,-0x8(%rbp)
  40807e:	48 89 75 f0          	mov    %rsi,-0x10(%rbp)
  408082:	48 89 55 e8          	mov    %rdx,-0x18(%rbp)
  408086:	48 8b 45 f8          	mov    -0x8(%rbp),%rax
  40808a:	48 89 c7             	mov    %rax,%rdi
  40808d:	e8 c4 ff ff ff       	callq  408056 <_ZN5Eigen10TensorBaseINS_9TensorMapINS_6TensorIiLi1ELi1ElEELi16ENS_11MakePointerEEELi1EEC1Ev>
  408092:	48 8b 45 f8          	mov    -0x8(%rbp),%rax
  408096:	48 8b 55 f0          	mov    -0x10(%rbp),%rdx
  40809a:	48 89 10             	mov    %rdx,(%rax)
  40809d:	48 8b 45 f8          	mov    -0x8(%rbp),%rax
  4080a1:	48 8d 50 08          	lea    0x8(%rax),%rdx
  4080a5:	48 8b 45 e8          	mov    -0x18(%rbp),%rax
  4080a9:	48 89 c6             	mov    %rax,%rsi
  4080ac:	48 89 d7             	mov    %rdx,%rdi
  4080af:	e8 b8 fe ff ff       	callq  407f6c <_ZN5Eigen6DSizesIlLi1EEC1ERKSt5arrayIlLm1EE>
  4080b4:	90                   	nop
  4080b5:	c9                   	leaveq 
  4080b6:	c3                   	retq   

00000000004080b7 <_ZSt4copyIPKiPiET0_T_S4_S3_>:
  4080b7:	55                   	push   %rbp
  4080b8:	48 89 e5             	mov    %rsp,%rbp
  4080bb:	53                   	push   %rbx
  4080bc:	48 83 ec 28          	sub    $0x28,%rsp
  4080c0:	48 89 7d e8          	mov    %rdi,-0x18(%rbp)
  4080c4:	48 89 75 e0          	mov    %rsi,-0x20(%rbp)
  4080c8:	48 89 55 d8          	mov    %rdx,-0x28(%rbp)
  4080cc:	48 8b 45 e0          	mov    -0x20(%rbp),%rax
  4080d0:	48 89 c7             	mov    %rax,%rdi
  4080d3:	e8 33 06 00 00       	callq  40870b <_ZSt12__miter_baseIPKiET_S2_>
  4080d8:	48 89 c3             	mov    %rax,%rbx
  4080db:	48 8b 45 e8          	mov    -0x18(%rbp),%rax
  4080df:	48 89 c7             	mov    %rax,%rdi
  4080e2:	e8 24 06 00 00       	callq  40870b <_ZSt12__miter_baseIPKiET_S2_>
  4080e7:	48 89 c1             	mov    %rax,%rcx
  4080ea:	48 8b 45 d8          	mov    -0x28(%rbp),%rax
  4080ee:	48 89 c2             	mov    %rax,%rdx
  4080f1:	48 89 de             	mov    %rbx,%rsi
  4080f4:	48 89 cf             	mov    %rcx,%rdi
  4080f7:	e8 1d 06 00 00       	callq  408719 <_ZSt14__copy_move_a2ILb0EPKiPiET1_T0_S4_S3_>
  4080fc:	48 83 c4 28          	add    $0x28,%rsp
  408100:	5b                   	pop    %rbx
  408101:	5d                   	pop    %rbp
  408102:	c3                   	retq   
  408103:	90                   	nop

0000000000408104 <_ZNKSt8__detail10_Hash_nodeISt4pairIKN10tensorflow6OutputENS2_5Input11InitializerEELb1EE7_M_nextEv>:
  408104:	55                   	push   %rbp
  408105:	48 89 e5             	mov    %rsp,%rbp
  408108:	48 89 7d f8          	mov    %rdi,-0x8(%rbp)
  40810c:	48 8b 45 f8          	mov    -0x8(%rbp),%rax
  408110:	48 8b 00             	mov    (%rax),%rax
  408113:	5d                   	pop    %rbp
  408114:	c3                   	retq   
  408115:	90                   	nop

0000000000408116 <_ZNSt8__detail16_Hashtable_allocISaINS_10_Hash_nodeISt4pairIKN10tensorflow6OutputENS3_5Input11InitializerEELb1EEEEE18_M_deallocate_nodeEPS9_>:
  408116:	55                   	push   %rbp
  408117:	48 89 e5             	mov    %rsp,%rbp
  40811a:	53                   	push   %rbx
  40811b:	48 83 ec 38          	sub    $0x38,%rsp
  40811f:	48 89 7d c8          	mov    %rdi,-0x38(%rbp)
  408123:	48 89 75 c0          	mov    %rsi,-0x40(%rbp)
  408127:	64 48 8b 04 25 28 00 	mov    %fs:0x28,%rax
  40812e:	00 00 
  408130:	48 89 45 e8          	mov    %rax,-0x18(%rbp)
  408134:	31 c0                	xor    %eax,%eax
  408136:	48 8b 45 c0          	mov    -0x40(%rbp),%rax
  40813a:	48 89 c7             	mov    %rax,%rdi
  40813d:	e8 2f 06 00 00       	callq  408771 <_ZNSt14pointer_traitsIPNSt8__detail10_Hash_nodeISt4pairIKN10tensorflow6OutputENS3_5Input11InitializerEELb1EEEE10pointer_toERS9_>
  408142:	48 89 45 e0          	mov    %rax,-0x20(%rbp)
  408146:	48 8b 45 c8          	mov    -0x38(%rbp),%rax
  40814a:	48 89 c7             	mov    %rax,%rdi
  40814d:	e8 3a 06 00 00       	callq  40878c <_ZNSt8__detail16_Hashtable_allocISaINS_10_Hash_nodeISt4pairIKN10tensorflow6OutputENS3_5Input11InitializerEELb1EEEEE17_M_node_allocatorEv>
  408152:	48 89 c2             	mov    %rax,%rdx
  408155:	48 8d 45 df          	lea    -0x21(%rbp),%rax
  408159:	48 89 d6             	mov    %rdx,%rsi
  40815c:	48 89 c7             	mov    %rax,%rdi
  40815f:	e8 42 06 00 00       	callq  4087a6 <_ZNSaISt4pairIKN10tensorflow6OutputENS0_5Input11InitializerEEEC1INSt8__detail10_Hash_nodeIS5_Lb1EEEEERKSaIT_E>
  408164:	48 8b 45 c0          	mov    -0x40(%rbp),%rax
  408168:	48 89 c7             	mov    %rax,%rdi
  40816b:	e8 72 06 00 00       	callq  4087e2 <_ZNSt8__detail21_Hash_node_value_baseISt4pairIKN10tensorflow6OutputENS2_5Input11InitializerEEE9_M_valptrEv>
  408170:	48 89 c2             	mov    %rax,%rdx
  408173:	48 8d 45 df          	lea    -0x21(%rbp),%rax
  408177:	48 89 d6             	mov    %rdx,%rsi
  40817a:	48 89 c7             	mov    %rax,%rdi
  40817d:	e8 7e 06 00 00       	callq  408800 <_ZNSt16allocator_traitsISaISt4pairIKN10tensorflow6OutputENS1_5Input11InitializerEEEE7destroyIS6_EEvRS7_PT_>
  408182:	48 8b 45 c8          	mov    -0x38(%rbp),%rax
  408186:	48 89 c7             	mov    %rax,%rdi
  408189:	e8 fe 05 00 00       	callq  40878c <_ZNSt8__detail16_Hashtable_allocISaINS_10_Hash_nodeISt4pairIKN10tensorflow6OutputENS3_5Input11InitializerEELb1EEEEE17_M_node_allocatorEv>
  40818e:	48 89 c1             	mov    %rax,%rcx
  408191:	48 8b 45 e0          	mov    -0x20(%rbp),%rax
  408195:	ba 01 00 00 00       	mov    $0x1,%edx
  40819a:	48 89 c6             	mov    %rax,%rsi
  40819d:	48 89 cf             	mov    %rcx,%rdi
  4081a0:	e8 81 06 00 00       	callq  408826 <_ZNSt16allocator_traitsISaINSt8__detail10_Hash_nodeISt4pairIKN10tensorflow6OutputENS3_5Input11InitializerEELb1EEEEE10deallocateERSA_PS9_m>
  4081a5:	48 8d 45 df          	lea    -0x21(%rbp),%rax
  4081a9:	48 89 c7             	mov    %rax,%rdi
  4081ac:	e8 15 06 00 00       	callq  4087c6 <_ZNSaISt4pairIKN10tensorflow6OutputENS0_5Input11InitializerEEED1Ev>
  4081b1:	90                   	nop
  4081b2:	48 8b 45 e8          	mov    -0x18(%rbp),%rax
  4081b6:	64 48 33 04 25 28 00 	xor    %fs:0x28,%rax
  4081bd:	00 00 
  4081bf:	74 21                	je     4081e2 <_ZNSt8__detail16_Hashtable_allocISaINS_10_Hash_nodeISt4pairIKN10tensorflow6OutputENS3_5Input11InitializerEELb1EEEEE18_M_deallocate_nodeEPS9_+0xcc>
  4081c1:	eb 1a                	jmp    4081dd <_ZNSt8__detail16_Hashtable_allocISaINS_10_Hash_nodeISt4pairIKN10tensorflow6OutputENS3_5Input11InitializerEELb1EEEEE18_M_deallocate_nodeEPS9_+0xc7>
  4081c3:	48 89 c3             	mov    %rax,%rbx
  4081c6:	48 8d 45 df          	lea    -0x21(%rbp),%rax
  4081ca:	48 89 c7             	mov    %rax,%rdi
  4081cd:	e8 f4 05 00 00       	callq  4087c6 <_ZNSaISt4pairIKN10tensorflow6OutputENS0_5Input11InitializerEEED1Ev>
  4081d2:	48 89 d8             	mov    %rbx,%rax
  4081d5:	48 89 c7             	mov    %rax,%rdi
  4081d8:	e8 33 ae ff ff       	callq  403010 <_Unwind_Resume@plt>
  4081dd:	e8 7e ab ff ff       	callq  402d60 <__stack_chk_fail@plt>
  4081e2:	48 83 c4 38          	add    $0x38,%rsp
  4081e6:	5b                   	pop    %rbx
  4081e7:	5d                   	pop    %rbp
  4081e8:	c3                   	retq   
  4081e9:	90                   	nop

00000000004081ea <_ZNKSt10_HashtableIN10tensorflow6OutputESt4pairIKS1_NS0_5Input11InitializerEESaIS6_ENSt8__detail10_Select1stESt8equal_toIS1_ENS0_10OutputHashENS8_18_Mod_range_hashingENS8_20_Default_ranged_hashENS8_20_Prime_rehash_policyENS8_17_Hashtable_traitsILb1ELb0ELb1EEEE21_M_uses_single_bucketEPPNS8_15_Hash_node_baseE>:
  4081ea:	55                   	push   %rbp
  4081eb:	48 89 e5             	mov    %rsp,%rbp
  4081ee:	48 89 7d f8          	mov    %rdi,-0x8(%rbp)
  4081f2:	48 89 75 f0          	mov    %rsi,-0x10(%rbp)
  4081f6:	48 8b 45 f8          	mov    -0x8(%rbp),%rax
  4081fa:	48 83 c0 30          	add    $0x30,%rax
  4081fe:	48 3b 45 f0          	cmp    -0x10(%rbp),%rax
  408202:	0f 94 c0             	sete   %al
  408205:	0f b6 c0             	movzbl %al,%eax
  408208:	48 85 c0             	test   %rax,%rax
  40820b:	0f 95 c0             	setne  %al
  40820e:	5d                   	pop    %rbp
  40820f:	c3                   	retq   

0000000000408210 <_ZNSt8__detail16_Hashtable_allocISaINS_10_Hash_nodeISt4pairIKN10tensorflow6OutputENS3_5Input11InitializerEELb1EEEEE21_M_deallocate_bucketsEPPNS_15_Hash_node_baseEm>:
  408210:	55                   	push   %rbp
  408211:	48 89 e5             	mov    %rsp,%rbp
  408214:	53                   	push   %rbx
  408215:	48 83 ec 48          	sub    $0x48,%rsp
  408219:	48 89 7d c8          	mov    %rdi,-0x38(%rbp)
  40821d:	48 89 75 c0          	mov    %rsi,-0x40(%rbp)
  408221:	48 89 55 b8          	mov    %rdx,-0x48(%rbp)
  408225:	64 48 8b 04 25 28 00 	mov    %fs:0x28,%rax
  40822c:	00 00 
  40822e:	48 89 45 e8          	mov    %rax,-0x18(%rbp)
  408232:	31 c0                	xor    %eax,%eax
  408234:	48 8b 45 c0          	mov    -0x40(%rbp),%rax
  408238:	48 89 c7             	mov    %rax,%rdi
  40823b:	e8 14 06 00 00       	callq  408854 <_ZNSt14pointer_traitsIPPNSt8__detail15_Hash_node_baseEE10pointer_toERS2_>
  408240:	48 89 45 e0          	mov    %rax,-0x20(%rbp)
  408244:	48 8b 45 c8          	mov    -0x38(%rbp),%rax
  408248:	48 89 c7             	mov    %rax,%rdi
  40824b:	e8 3c 05 00 00       	callq  40878c <_ZNSt8__detail16_Hashtable_allocISaINS_10_Hash_nodeISt4pairIKN10tensorflow6OutputENS3_5Input11InitializerEELb1EEEEE17_M_node_allocatorEv>
  408250:	48 89 c2             	mov    %rax,%rdx
  408253:	48 8d 45 df          	lea    -0x21(%rbp),%rax
  408257:	48 89 d6             	mov    %rdx,%rsi
  40825a:	48 89 c7             	mov    %rax,%rdi
  40825d:	e8 0c 06 00 00       	callq  40886e <_ZNSaIPNSt8__detail15_Hash_node_baseEEC1INS_10_Hash_nodeISt4pairIKN10tensorflow6OutputENS6_5Input11InitializerEELb1EEEEERKSaIT_E>
  408262:	48 8b 55 b8          	mov    -0x48(%rbp),%rdx
  408266:	48 8b 4d e0          	mov    -0x20(%rbp),%rcx
  40826a:	48 8d 45 df          	lea    -0x21(%rbp),%rax
  40826e:	48 89 ce             	mov    %rcx,%rsi
  408271:	48 89 c7             	mov    %rax,%rdi
  408274:	e8 30 06 00 00       	callq  4088a9 <_ZNSt16allocator_traitsISaIPNSt8__detail15_Hash_node_baseEEE10deallocateERS3_PS2_m>
  408279:	48 8d 45 df          	lea    -0x21(%rbp),%rax
  40827d:	48 89 c7             	mov    %rax,%rdi
  408280:	e8 09 06 00 00       	callq  40888e <_ZNSaIPNSt8__detail15_Hash_node_baseEED1Ev>
  408285:	90                   	nop
  408286:	48 8b 45 e8          	mov    -0x18(%rbp),%rax
  40828a:	64 48 33 04 25 28 00 	xor    %fs:0x28,%rax
  408291:	00 00 
  408293:	74 21                	je     4082b6 <_ZNSt8__detail16_Hashtable_allocISaINS_10_Hash_nodeISt4pairIKN10tensorflow6OutputENS3_5Input11InitializerEELb1EEEEE21_M_deallocate_bucketsEPPNS_15_Hash_node_baseEm+0xa6>
  408295:	eb 1a                	jmp    4082b1 <_ZNSt8__detail16_Hashtable_allocISaINS_10_Hash_nodeISt4pairIKN10tensorflow6OutputENS3_5Input11InitializerEELb1EEEEE21_M_deallocate_bucketsEPPNS_15_Hash_node_baseEm+0xa1>
  408297:	48 89 c3             	mov    %rax,%rbx
  40829a:	48 8d 45 df          	lea    -0x21(%rbp),%rax
  40829e:	48 89 c7             	mov    %rax,%rdi
  4082a1:	e8 e8 05 00 00       	callq  40888e <_ZNSaIPNSt8__detail15_Hash_node_baseEED1Ev>
  4082a6:	48 89 d8             	mov    %rbx,%rax
  4082a9:	48 89 c7             	mov    %rax,%rdi
  4082ac:	e8 5f ad ff ff       	callq  403010 <_Unwind_Resume@plt>
  4082b1:	e8 aa aa ff ff       	callq  402d60 <__stack_chk_fail@plt>
  4082b6:	48 83 c4 48          	add    $0x48,%rsp
  4082ba:	5b                   	pop    %rbx
  4082bb:	5d                   	pop    %rbp
  4082bc:	c3                   	retq   
  4082bd:	90                   	nop

00000000004082be <_ZNSaIN10tensorflow6OutputEEC1ERKS1_>:
  4082be:	55                   	push   %rbp
  4082bf:	48 89 e5             	mov    %rsp,%rbp
  4082c2:	48 83 ec 10          	sub    $0x10,%rsp
  4082c6:	48 89 7d f8          	mov    %rdi,-0x8(%rbp)
  4082ca:	48 89 75 f0          	mov    %rsi,-0x10(%rbp)
  4082ce:	48 8b 55 f0          	mov    -0x10(%rbp),%rdx
  4082d2:	48 8b 45 f8          	mov    -0x8(%rbp),%rax
  4082d6:	48 89 d6             	mov    %rdx,%rsi
  4082d9:	48 89 c7             	mov    %rax,%rdi
  4082dc:	e8 f7 05 00 00       	callq  4088d8 <_ZN9__gnu_cxx13new_allocatorIN10tensorflow6OutputEEC1ERKS3_>
  4082e1:	90                   	nop
  4082e2:	c9                   	leaveq 
  4082e3:	c3                   	retq   

00000000004082e4 <_ZNSt16allocator_traitsISaIN10tensorflow6OutputEEE10deallocateERS2_PS1_m>:
  4082e4:	55                   	push   %rbp
  4082e5:	48 89 e5             	mov    %rsp,%rbp
  4082e8:	48 83 ec 20          	sub    $0x20,%rsp
  4082ec:	48 89 7d f8          	mov    %rdi,-0x8(%rbp)
  4082f0:	48 89 75 f0          	mov    %rsi,-0x10(%rbp)
  4082f4:	48 89 55 e8          	mov    %rdx,-0x18(%rbp)
  4082f8:	48 8b 55 e8          	mov    -0x18(%rbp),%rdx
  4082fc:	48 8b 4d f0          	mov    -0x10(%rbp),%rcx
  408300:	48 8b 45 f8          	mov    -0x8(%rbp),%rax
  408304:	48 89 ce             	mov    %rcx,%rsi
  408307:	48 89 c7             	mov    %rax,%rdi
  40830a:	e8 d9 05 00 00       	callq  4088e8 <_ZN9__gnu_cxx13new_allocatorIN10tensorflow6OutputEE10deallocateEPS2_m>
  40830f:	90                   	nop
  408310:	c9                   	leaveq 
  408311:	c3                   	retq   

0000000000408312 <_ZSt19__iterator_categoryIPKN10tensorflow6OutputEENSt15iterator_traitsIT_E17iterator_categoryERKS5_>:
  408312:	55                   	push   %rbp
  408313:	48 89 e5             	mov    %rsp,%rbp
  408316:	48 89 7d f8          	mov    %rdi,-0x8(%rbp)
  40831a:	5d                   	pop    %rbp
  40831b:	c3                   	retq   

000000000040831c <_ZSt10__distanceIPKN10tensorflow6OutputEENSt15iterator_traitsIT_E15difference_typeES5_S5_St26random_access_iterator_tag>:
  40831c:	55                   	push   %rbp
  40831d:	48 89 e5             	mov    %rsp,%rbp
  408320:	48 89 7d f8          	mov    %rdi,-0x8(%rbp)
  408324:	48 89 75 f0          	mov    %rsi,-0x10(%rbp)
  408328:	48 8b 55 f0          	mov    -0x10(%rbp),%rdx
  40832c:	48 8b 45 f8          	mov    -0x8(%rbp),%rax
  408330:	48 29 c2             	sub    %rax,%rdx
  408333:	48 89 d0             	mov    %rdx,%rax
  408336:	48 c1 f8 03          	sar    $0x3,%rax
  40833a:	48 89 c2             	mov    %rax,%rdx
  40833d:	48 b8 cd cc cc cc cc 	movabs $0xcccccccccccccccd,%rax
  408344:	cc cc cc 
  408347:	48 0f af c2          	imul   %rdx,%rax
  40834b:	5d                   	pop    %rbp
  40834c:	c3                   	retq   

000000000040834d <_ZNSt16allocator_traitsISaIN10tensorflow6OutputEEE8allocateERS2_m>:
  40834d:	55                   	push   %rbp
  40834e:	48 89 e5             	mov    %rsp,%rbp
  408351:	48 83 ec 10          	sub    $0x10,%rsp
  408355:	48 89 7d f8          	mov    %rdi,-0x8(%rbp)
  408359:	48 89 75 f0          	mov    %rsi,-0x10(%rbp)
  40835d:	48 8b 4d f0          	mov    -0x10(%rbp),%rcx
  408361:	48 8b 45 f8          	mov    -0x8(%rbp),%rax
  408365:	ba 00 00 00 00       	mov    $0x0,%edx
  40836a:	48 89 ce             	mov    %rcx,%rsi
  40836d:	48 89 c7             	mov    %rax,%rdi
  408370:	e8 97 05 00 00       	callq  40890c <_ZN9__gnu_cxx13new_allocatorIN10tensorflow6OutputEE8allocateEmPKv>
  408375:	c9                   	leaveq 
  408376:	c3                   	retq   

0000000000408377 <_ZSt18uninitialized_copyIPKN10tensorflow6OutputEPS1_ET0_T_S6_S5_>:
  408377:	55                   	push   %rbp
  408378:	48 89 e5             	mov    %rsp,%rbp
  40837b:	48 83 ec 30          	sub    $0x30,%rsp
  40837f:	48 89 7d e8          	mov    %rdi,-0x18(%rbp)
  408383:	48 89 75 e0          	mov    %rsi,-0x20(%rbp)
  408387:	48 89 55 d8          	mov    %rdx,-0x28(%rbp)
  40838b:	c6 45 ff 01          	movb   $0x1,-0x1(%rbp)
  40838f:	48 8b 55 d8          	mov    -0x28(%rbp),%rdx
  408393:	48 8b 4d e0          	mov    -0x20(%rbp),%rcx
  408397:	48 8b 45 e8          	mov    -0x18(%rbp),%rax
  40839b:	48 89 ce             	mov    %rcx,%rsi
  40839e:	48 89 c7             	mov    %rax,%rdi
  4083a1:	e8 b2 05 00 00       	callq  408958 <_ZNSt20__uninitialized_copyILb0EE13__uninit_copyIPKN10tensorflow6OutputEPS3_EET0_T_S8_S7_>
  4083a6:	c9                   	leaveq 
  4083a7:	c3                   	retq   

00000000004083a8 <_ZNSt12_Destroy_auxILb0EE9__destroyIPN10tensorflow6OutputEEEvT_S5_>:
  4083a8:	55                   	push   %rbp
  4083a9:	48 89 e5             	mov    %rsp,%rbp
  4083ac:	48 83 ec 10          	sub    $0x10,%rsp
  4083b0:	48 89 7d f8          	mov    %rdi,-0x8(%rbp)
  4083b4:	48 89 75 f0          	mov    %rsi,-0x10(%rbp)
  4083b8:	48 8b 45 f8          	mov    -0x8(%rbp),%rax
  4083bc:	48 3b 45 f0          	cmp    -0x10(%rbp),%rax
  4083c0:	74 1b                	je     4083dd <_ZNSt12_Destroy_auxILb0EE9__destroyIPN10tensorflow6OutputEEEvT_S5_+0x35>
  4083c2:	48 8b 45 f8          	mov    -0x8(%rbp),%rax
  4083c6:	48 89 c7             	mov    %rax,%rdi
  4083c9:	e8 1b 06 00 00       	callq  4089e9 <_ZSt11__addressofIN10tensorflow6OutputEEPT_RS2_>
  4083ce:	48 89 c7             	mov    %rax,%rdi
  4083d1:	e8 21 06 00 00       	callq  4089f7 <_ZSt8_DestroyIN10tensorflow6OutputEEvPT_>
  4083d6:	48 83 45 f8 28       	addq   $0x28,-0x8(%rbp)
  4083db:	eb db                	jmp    4083b8 <_ZNSt12_Destroy_auxILb0EE9__destroyIPN10tensorflow6OutputEEEvT_S5_+0x10>
  4083dd:	90                   	nop
  4083de:	c9                   	leaveq 
  4083df:	c3                   	retq   

00000000004083e0 <_ZNSaIN10tensorflow9OperationEEC1Ev>:
  4083e0:	55                   	push   %rbp
  4083e1:	48 89 e5             	mov    %rsp,%rbp
  4083e4:	48 83 ec 10          	sub    $0x10,%rsp
  4083e8:	48 89 7d f8          	mov    %rdi,-0x8(%rbp)
  4083ec:	48 8b 45 f8          	mov    -0x8(%rbp),%rax
  4083f0:	48 89 c7             	mov    %rax,%rdi
  4083f3:	e8 1a 06 00 00       	callq  408a12 <_ZN9__gnu_cxx13new_allocatorIN10tensorflow9OperationEEC1Ev>
  4083f8:	90                   	nop
  4083f9:	c9                   	leaveq 
  4083fa:	c3                   	retq   
  4083fb:	90                   	nop

00000000004083fc <_ZN9__gnu_cxx13new_allocatorIN10tensorflow9OperationEED1Ev>:
  4083fc:	55                   	push   %rbp
  4083fd:	48 89 e5             	mov    %rsp,%rbp
  408400:	48 89 7d f8          	mov    %rdi,-0x8(%rbp)
  408404:	90                   	nop
  408405:	5d                   	pop    %rbp
  408406:	c3                   	retq   

0000000000408407 <_ZNSt16allocator_traitsISaIN10tensorflow9OperationEEE10deallocateERS2_PS1_m>:
  408407:	55                   	push   %rbp
  408408:	48 89 e5             	mov    %rsp,%rbp
  40840b:	48 83 ec 20          	sub    $0x20,%rsp
  40840f:	48 89 7d f8          	mov    %rdi,-0x8(%rbp)
  408413:	48 89 75 f0          	mov    %rsi,-0x10(%rbp)
  408417:	48 89 55 e8          	mov    %rdx,-0x18(%rbp)
  40841b:	48 8b 55 e8          	mov    -0x18(%rbp),%rdx
  40841f:	48 8b 4d f0          	mov    -0x10(%rbp),%rcx
  408423:	48 8b 45 f8          	mov    -0x8(%rbp),%rax
  408427:	48 89 ce             	mov    %rcx,%rsi
  40842a:	48 89 c7             	mov    %rax,%rdi
  40842d:	e8 ec 05 00 00       	callq  408a1e <_ZN9__gnu_cxx13new_allocatorIN10tensorflow9OperationEE10deallocateEPS2_m>
  408432:	90                   	nop
  408433:	c9                   	leaveq 
  408434:	c3                   	retq   

0000000000408435 <_ZNSt12_Destroy_auxILb0EE9__destroyIPN10tensorflow9OperationEEEvT_S5_>:
  408435:	55                   	push   %rbp
  408436:	48 89 e5             	mov    %rsp,%rbp
  408439:	48 83 ec 10          	sub    $0x10,%rsp
  40843d:	48 89 7d f8          	mov    %rdi,-0x8(%rbp)
  408441:	48 89 75 f0          	mov    %rsi,-0x10(%rbp)
  408445:	48 8b 45 f8          	mov    -0x8(%rbp),%rax
  408449:	48 3b 45 f0          	cmp    -0x10(%rbp),%rax
  40844d:	74 1b                	je     40846a <_ZNSt12_Destroy_auxILb0EE9__destroyIPN10tensorflow9OperationEEEvT_S5_+0x35>
  40844f:	48 8b 45 f8          	mov    -0x8(%rbp),%rax
  408453:	48 89 c7             	mov    %rax,%rdi
  408456:	e8 e6 05 00 00       	callq  408a41 <_ZSt11__addressofIN10tensorflow9OperationEEPT_RS2_>
  40845b:	48 89 c7             	mov    %rax,%rdi
  40845e:	e8 ec 05 00 00       	callq  408a4f <_ZSt8_DestroyIN10tensorflow9OperationEEvPT_>
  408463:	48 83 45 f8 20       	addq   $0x20,-0x8(%rbp)
  408468:	eb db                	jmp    408445 <_ZNSt12_Destroy_auxILb0EE9__destroyIPN10tensorflow9OperationEEEvT_S5_+0x10>
  40846a:	90                   	nop
  40846b:	c9                   	leaveq 
  40846c:	c3                   	retq   
  40846d:	90                   	nop

000000000040846e <_ZN9__gnu_cxx13new_allocatorISt4pairIPN10tensorflow4NodeEiEE10deallocateEPS5_m>:
  40846e:	55                   	push   %rbp
  40846f:	48 89 e5             	mov    %rsp,%rbp
  408472:	48 83 ec 20          	sub    $0x20,%rsp
  408476:	48 89 7d f8          	mov    %rdi,-0x8(%rbp)
  40847a:	48 89 75 f0          	mov    %rsi,-0x10(%rbp)
  40847e:	48 89 55 e8          	mov    %rdx,-0x18(%rbp)
  408482:	48 8b 45 f0          	mov    -0x10(%rbp),%rax
  408486:	48 89 c7             	mov    %rax,%rdi
  408489:	e8 02 a9 ff ff       	callq  402d90 <_ZdlPv@plt>
  40848e:	90                   	nop
  40848f:	c9                   	leaveq 
  408490:	c3                   	retq   

0000000000408491 <_ZNSt16allocator_traitsISaISt4pairIPN10tensorflow4NodeEiEEE8allocateERS5_m>:
  408491:	55                   	push   %rbp
  408492:	48 89 e5             	mov    %rsp,%rbp
  408495:	48 83 ec 10          	sub    $0x10,%rsp
  408499:	48 89 7d f8          	mov    %rdi,-0x8(%rbp)
  40849d:	48 89 75 f0          	mov    %rsi,-0x10(%rbp)
  4084a1:	48 8b 4d f0          	mov    -0x10(%rbp),%rcx
  4084a5:	48 8b 45 f8          	mov    -0x8(%rbp),%rax
  4084a9:	ba 00 00 00 00       	mov    $0x0,%edx
  4084ae:	48 89 ce             	mov    %rcx,%rsi
  4084b1:	48 89 c7             	mov    %rax,%rdi
  4084b4:	e8 b1 05 00 00       	callq  408a6a <_ZN9__gnu_cxx13new_allocatorISt4pairIPN10tensorflow4NodeEiEE8allocateEmPKv>
  4084b9:	c9                   	leaveq 
  4084ba:	c3                   	retq   

00000000004084bb <_ZN9__gnu_cxxneIPKSt4pairIPN10tensorflow4NodeEiESt6vectorIS5_SaIS5_EEEEbRKNS_17__normal_iteratorIT_T0_EESG_>:
  4084bb:	55                   	push   %rbp
  4084bc:	48 89 e5             	mov    %rsp,%rbp
  4084bf:	53                   	push   %rbx
  4084c0:	48 83 ec 18          	sub    $0x18,%rsp
  4084c4:	48 89 7d e8          	mov    %rdi,-0x18(%rbp)
  4084c8:	48 89 75 e0          	mov    %rsi,-0x20(%rbp)
  4084cc:	48 8b 45 e8          	mov    -0x18(%rbp),%rax
  4084d0:	48 89 c7             	mov    %rax,%rdi
  4084d3:	e8 d4 05 00 00       	callq  408aac <_ZNK9__gnu_cxx17__normal_iteratorIPKSt4pairIPN10tensorflow4NodeEiESt6vectorIS5_SaIS5_EEE4baseEv>
  4084d8:	48 8b 18             	mov    (%rax),%rbx
  4084db:	48 8b 45 e0          	mov    -0x20(%rbp),%rax
  4084df:	48 89 c7             	mov    %rax,%rdi
  4084e2:	e8 c5 05 00 00       	callq  408aac <_ZNK9__gnu_cxx17__normal_iteratorIPKSt4pairIPN10tensorflow4NodeEiESt6vectorIS5_SaIS5_EEE4baseEv>
  4084e7:	48 8b 00             	mov    (%rax),%rax
  4084ea:	48 39 c3             	cmp    %rax,%rbx
  4084ed:	0f 95 c0             	setne  %al
  4084f0:	48 83 c4 18          	add    $0x18,%rsp
  4084f4:	5b                   	pop    %rbx
  4084f5:	5d                   	pop    %rbp
  4084f6:	c3                   	retq   
  4084f7:	90                   	nop

00000000004084f8 <_ZN9__gnu_cxx17__normal_iteratorIPKSt4pairIPN10tensorflow4NodeEiESt6vectorIS5_SaIS5_EEEppEv>:
  4084f8:	55                   	push   %rbp
  4084f9:	48 89 e5             	mov    %rsp,%rbp
  4084fc:	48 89 7d f8          	mov    %rdi,-0x8(%rbp)
  408500:	48 8b 45 f8          	mov    -0x8(%rbp),%rax
  408504:	48 8b 00             	mov    (%rax),%rax
  408507:	48 8d 50 10          	lea    0x10(%rax),%rdx
  40850b:	48 8b 45 f8          	mov    -0x8(%rbp),%rax
  40850f:	48 89 10             	mov    %rdx,(%rax)
  408512:	48 8b 45 f8          	mov    -0x8(%rbp),%rax
  408516:	5d                   	pop    %rbp
  408517:	c3                   	retq   

0000000000408518 <_ZSt11__addressofISt4pairIPN10tensorflow4NodeEiEEPT_RS5_>:
  408518:	55                   	push   %rbp
  408519:	48 89 e5             	mov    %rsp,%rbp
  40851c:	48 89 7d f8          	mov    %rdi,-0x8(%rbp)
  408520:	48 8b 45 f8          	mov    -0x8(%rbp),%rax
  408524:	5d                   	pop    %rbp
  408525:	c3                   	retq   

0000000000408526 <_ZNK9__gnu_cxx17__normal_iteratorIPKSt4pairIPN10tensorflow4NodeEiESt6vectorIS5_SaIS5_EEEdeEv>:
  408526:	55                   	push   %rbp
  408527:	48 89 e5             	mov    %rsp,%rbp
  40852a:	48 89 7d f8          	mov    %rdi,-0x8(%rbp)
  40852e:	48 8b 45 f8          	mov    -0x8(%rbp),%rax
  408532:	48 8b 00             	mov    (%rax),%rax
  408535:	5d                   	pop    %rbp
  408536:	c3                   	retq   

0000000000408537 <_ZSt7forwardIRKSt4pairIPN10tensorflow4NodeEiEEOT_RNSt16remove_referenceIS7_E4typeE>:
  408537:	55                   	push   %rbp
  408538:	48 89 e5             	mov    %rsp,%rbp
  40853b:	48 89 7d f8          	mov    %rdi,-0x8(%rbp)
  40853f:	48 8b 45 f8          	mov    -0x8(%rbp),%rax
  408543:	5d                   	pop    %rbp
  408544:	c3                   	retq   

0000000000408545 <_ZSt10_ConstructISt4pairIPN10tensorflow4NodeEiEJRKS4_EEvPT_DpOT0_>:
  408545:	55                   	push   %rbp
  408546:	48 89 e5             	mov    %rsp,%rbp
  408549:	53                   	push   %rbx
  40854a:	48 83 ec 18          	sub    $0x18,%rsp
  40854e:	48 89 7d e8          	mov    %rdi,-0x18(%rbp)
  408552:	48 89 75 e0          	mov    %rsi,-0x20(%rbp)
  408556:	48 8b 45 e0          	mov    -0x20(%rbp),%rax
  40855a:	48 89 c7             	mov    %rax,%rdi
  40855d:	e8 d5 ff ff ff       	callq  408537 <_ZSt7forwardIRKSt4pairIPN10tensorflow4NodeEiEEOT_RNSt16remove_referenceIS7_E4typeE>
  408562:	48 89 c3             	mov    %rax,%rbx
  408565:	48 8b 45 e8          	mov    -0x18(%rbp),%rax
  408569:	48 89 c6             	mov    %rax,%rsi
  40856c:	bf 10 00 00 00       	mov    $0x10,%edi
  408571:	e8 be b9 ff ff       	callq  403f34 <_ZnwmPv>
  408576:	48 89 c1             	mov    %rax,%rcx
  408579:	48 85 c9             	test   %rcx,%rcx
  40857c:	74 0e                	je     40858c <_ZSt10_ConstructISt4pairIPN10tensorflow4NodeEiEJRKS4_EEvPT_DpOT0_+0x47>
  40857e:	48 8b 03             	mov    (%rbx),%rax
  408581:	48 8b 53 08          	mov    0x8(%rbx),%rdx
  408585:	48 89 01             	mov    %rax,(%rcx)
  408588:	48 89 51 08          	mov    %rdx,0x8(%rcx)
  40858c:	90                   	nop
  40858d:	48 83 c4 18          	add    $0x18,%rsp
  408591:	5b                   	pop    %rbx
  408592:	5d                   	pop    %rbp
  408593:	c3                   	retq   

0000000000408594 <_ZNK10tensorflow3gtl20array_slice_internal18ArraySliceImplBaseIKxE4sizeEv>:
  408594:	55                   	push   %rbp
  408595:	48 89 e5             	mov    %rsp,%rbp
  408598:	48 89 7d f8          	mov    %rdi,-0x8(%rbp)
  40859c:	48 8b 45 f8          	mov    -0x8(%rbp),%rax
  4085a0:	48 8b 40 08          	mov    0x8(%rax),%rax
  4085a4:	5d                   	pop    %rbp
  4085a5:	c3                   	retq   

00000000004085a6 <_ZNK10tensorflow3gtl20array_slice_internal18ArraySliceImplBaseIKxEixEm>:
  4085a6:	55                   	push   %rbp
  4085a7:	48 89 e5             	mov    %rsp,%rbp
  4085aa:	48 89 7d f8          	mov    %rdi,-0x8(%rbp)
  4085ae:	48 89 75 f0          	mov    %rsi,-0x10(%rbp)
  4085b2:	48 8b 45 f8          	mov    -0x8(%rbp),%rax
  4085b6:	48 8b 00             	mov    (%rax),%rax
  4085b9:	48 8b 55 f0          	mov    -0x10(%rbp),%rdx
  4085bd:	48 c1 e2 03          	shl    $0x3,%rdx
  4085c1:	48 01 d0             	add    %rdx,%rax
  4085c4:	5d                   	pop    %rbp
  4085c5:	c3                   	retq   

00000000004085c6 <_ZN10tensorflow8internal17MakeCheckOpStringIxxEEPNSt7__cxx1112basic_stringIcSt11char_traitsIcESaIcEEERKT_RKT0_PKc>:
  4085c6:	55                   	push   %rbp
  4085c7:	48 89 e5             	mov    %rsp,%rbp
  4085ca:	53                   	push   %rbx
  4085cb:	48 83 ec 38          	sub    $0x38,%rsp
  4085cf:	48 89 7d d8          	mov    %rdi,-0x28(%rbp)
  4085d3:	48 89 75 d0          	mov    %rsi,-0x30(%rbp)
  4085d7:	48 89 55 c8          	mov    %rdx,-0x38(%rbp)
  4085db:	64 48 8b 04 25 28 00 	mov    %fs:0x28,%rax
  4085e2:	00 00 
  4085e4:	48 89 45 e8          	mov    %rax,-0x18(%rbp)
  4085e8:	31 c0                	xor    %eax,%eax
  4085ea:	48 8b 55 c8          	mov    -0x38(%rbp),%rdx
  4085ee:	48 8d 45 e0          	lea    -0x20(%rbp),%rax
  4085f2:	48 89 d6             	mov    %rdx,%rsi
  4085f5:	48 89 c7             	mov    %rax,%rdi
  4085f8:	e8 e3 a9 ff ff       	callq  402fe0 <_ZN10tensorflow8internal21CheckOpMessageBuilderC1EPKc@plt>
  4085fd:	48 8d 45 e0          	lea    -0x20(%rbp),%rax
  408601:	48 89 c7             	mov    %rax,%rdi
  408604:	e8 63 ba ff ff       	callq  40406c <_ZN10tensorflow8internal21CheckOpMessageBuilder7ForVar1Ev>
  408609:	48 89 c2             	mov    %rax,%rdx
  40860c:	48 8b 45 d8          	mov    -0x28(%rbp),%rax
  408610:	48 89 c6             	mov    %rax,%rsi
  408613:	48 89 d7             	mov    %rdx,%rdi
  408616:	e8 aa ec ff ff       	callq  4072c5 <_ZN10tensorflow8internal22MakeCheckOpValueStringIxEEvPSoRKT_>
  40861b:	48 8d 45 e0          	lea    -0x20(%rbp),%rax
  40861f:	48 89 c7             	mov    %rax,%rdi
  408622:	e8 b9 aa ff ff       	callq  4030e0 <_ZN10tensorflow8internal21CheckOpMessageBuilder7ForVar2Ev@plt>
  408627:	48 89 c2             	mov    %rax,%rdx
  40862a:	48 8b 45 d0          	mov    -0x30(%rbp),%rax
  40862e:	48 89 c6             	mov    %rax,%rsi
  408631:	48 89 d7             	mov    %rdx,%rdi
  408634:	e8 8c ec ff ff       	callq  4072c5 <_ZN10tensorflow8internal22MakeCheckOpValueStringIxEEvPSoRKT_>
  408639:	48 8d 45 e0          	lea    -0x20(%rbp),%rax
  40863d:	48 89 c7             	mov    %rax,%rdi
  408640:	e8 db a9 ff ff       	callq  403020 <_ZN10tensorflow8internal21CheckOpMessageBuilder9NewStringB5cxx11Ev@plt>
  408645:	48 89 c3             	mov    %rax,%rbx
  408648:	48 8d 45 e0          	lea    -0x20(%rbp),%rax
  40864c:	48 89 c7             	mov    %rax,%rdi
  40864f:	e8 ac a9 ff ff       	callq  403000 <_ZN10tensorflow8internal21CheckOpMessageBuilderD1Ev@plt>
  408654:	48 89 d8             	mov    %rbx,%rax
  408657:	48 8b 4d e8          	mov    -0x18(%rbp),%rcx
  40865b:	64 48 33 0c 25 28 00 	xor    %fs:0x28,%rcx
  408662:	00 00 
  408664:	74 21                	je     408687 <_ZN10tensorflow8internal17MakeCheckOpStringIxxEEPNSt7__cxx1112basic_stringIcSt11char_traitsIcESaIcEEERKT_RKT0_PKc+0xc1>
  408666:	eb 1a                	jmp    408682 <_ZN10tensorflow8internal17MakeCheckOpStringIxxEEPNSt7__cxx1112basic_stringIcSt11char_traitsIcESaIcEEERKT_RKT0_PKc+0xbc>
  408668:	48 89 c3             	mov    %rax,%rbx
  40866b:	48 8d 45 e0          	lea    -0x20(%rbp),%rax
  40866f:	48 89 c7             	mov    %rax,%rdi
  408672:	e8 89 a9 ff ff       	callq  403000 <_ZN10tensorflow8internal21CheckOpMessageBuilderD1Ev@plt>
  408677:	48 89 d8             	mov    %rbx,%rax
  40867a:	48 89 c7             	mov    %rax,%rdi
  40867d:	e8 8e a9 ff ff       	callq  403010 <_Unwind_Resume@plt>
  408682:	e8 d9 a6 ff ff       	callq  402d60 <__stack_chk_fail@plt>
  408687:	48 83 c4 38          	add    $0x38,%rsp
  40868b:	5b                   	pop    %rbx
  40868c:	5d                   	pop    %rbp
  40868d:	c3                   	retq   

000000000040868e <_ZN9__gnu_cxx13new_allocatorIN10tensorflow6TensorEEC1Ev>:
  40868e:	55                   	push   %rbp
  40868f:	48 89 e5             	mov    %rsp,%rbp
  408692:	48 89 7d f8          	mov    %rdi,-0x8(%rbp)
  408696:	90                   	nop
  408697:	5d                   	pop    %rbp
  408698:	c3                   	retq   
  408699:	90                   	nop

000000000040869a <_ZN9__gnu_cxx13new_allocatorIN10tensorflow6TensorEE10deallocateEPS2_m>:
  40869a:	55                   	push   %rbp
  40869b:	48 89 e5             	mov    %rsp,%rbp
  40869e:	48 83 ec 20          	sub    $0x20,%rsp
  4086a2:	48 89 7d f8          	mov    %rdi,-0x8(%rbp)
  4086a6:	48 89 75 f0          	mov    %rsi,-0x10(%rbp)
  4086aa:	48 89 55 e8          	mov    %rdx,-0x18(%rbp)
  4086ae:	48 8b 45 f0          	mov    -0x10(%rbp),%rax
  4086b2:	48 89 c7             	mov    %rax,%rdi
  4086b5:	e8 d6 a6 ff ff       	callq  402d90 <_ZdlPv@plt>
  4086ba:	90                   	nop
  4086bb:	c9                   	leaveq 
  4086bc:	c3                   	retq   

00000000004086bd <_ZSt11__addressofIN10tensorflow6TensorEEPT_RS2_>:
  4086bd:	55                   	push   %rbp
  4086be:	48 89 e5             	mov    %rsp,%rbp
  4086c1:	48 89 7d f8          	mov    %rdi,-0x8(%rbp)
  4086c5:	48 8b 45 f8          	mov    -0x8(%rbp),%rax
  4086c9:	5d                   	pop    %rbp
  4086ca:	c3                   	retq   

00000000004086cb <_ZSt8_DestroyIN10tensorflow6TensorEEvPT_>:
  4086cb:	55                   	push   %rbp
  4086cc:	48 89 e5             	mov    %rsp,%rbp
  4086cf:	48 83 ec 10          	sub    $0x10,%rsp
  4086d3:	48 89 7d f8          	mov    %rdi,-0x8(%rbp)
  4086d7:	48 8b 45 f8          	mov    -0x8(%rbp),%rax
  4086db:	48 89 c7             	mov    %rax,%rdi
  4086de:	e8 ed a6 ff ff       	callq  402dd0 <_ZN10tensorflow6TensorD1Ev@plt>
  4086e3:	90                   	nop
  4086e4:	c9                   	leaveq 
  4086e5:	c3                   	retq   

00000000004086e6 <_ZNK10tensorflow12TensorBuffer4baseIiEEPT_v>:
  4086e6:	55                   	push   %rbp
  4086e7:	48 89 e5             	mov    %rsp,%rbp
  4086ea:	48 83 ec 10          	sub    $0x10,%rsp
  4086ee:	48 89 7d f8          	mov    %rdi,-0x8(%rbp)
  4086f2:	48 8b 45 f8          	mov    -0x8(%rbp),%rax
  4086f6:	48 8b 00             	mov    (%rax),%rax
  4086f9:	48 83 c0 10          	add    $0x10,%rax
  4086fd:	48 8b 00             	mov    (%rax),%rax
  408700:	48 8b 55 f8          	mov    -0x8(%rbp),%rdx
  408704:	48 89 d7             	mov    %rdx,%rdi
  408707:	ff d0                	callq  *%rax
  408709:	c9                   	leaveq 
  40870a:	c3                   	retq   

000000000040870b <_ZSt12__miter_baseIPKiET_S2_>:
  40870b:	55                   	push   %rbp
  40870c:	48 89 e5             	mov    %rsp,%rbp
  40870f:	48 89 7d f8          	mov    %rdi,-0x8(%rbp)
  408713:	48 8b 45 f8          	mov    -0x8(%rbp),%rax
  408717:	5d                   	pop    %rbp
  408718:	c3                   	retq   

0000000000408719 <_ZSt14__copy_move_a2ILb0EPKiPiET1_T0_S4_S3_>:
  408719:	55                   	push   %rbp
  40871a:	48 89 e5             	mov    %rsp,%rbp
  40871d:	41 54                	push   %r12
  40871f:	53                   	push   %rbx
  408720:	48 83 ec 20          	sub    $0x20,%rsp
  408724:	48 89 7d e8          	mov    %rdi,-0x18(%rbp)
  408728:	48 89 75 e0          	mov    %rsi,-0x20(%rbp)
  40872c:	48 89 55 d8          	mov    %rdx,-0x28(%rbp)
  408730:	48 8b 45 d8          	mov    -0x28(%rbp),%rax
  408734:	48 89 c7             	mov    %rax,%rdi
  408737:	e8 37 f6 ff ff       	callq  407d73 <_ZSt12__niter_baseIPiET_S1_>
  40873c:	49 89 c4             	mov    %rax,%r12
  40873f:	48 8b 45 e0          	mov    -0x20(%rbp),%rax
  408743:	48 89 c7             	mov    %rax,%rdi
  408746:	e8 6f 03 00 00       	callq  408aba <_ZSt12__niter_baseIPKiET_S2_>
  40874b:	48 89 c3             	mov    %rax,%rbx
  40874e:	48 8b 45 e8          	mov    -0x18(%rbp),%rax
  408752:	48 89 c7             	mov    %rax,%rdi
  408755:	e8 60 03 00 00       	callq  408aba <_ZSt12__niter_baseIPKiET_S2_>
  40875a:	4c 89 e2             	mov    %r12,%rdx
  40875d:	48 89 de             	mov    %rbx,%rsi
  408760:	48 89 c7             	mov    %rax,%rdi
  408763:	e8 60 03 00 00       	callq  408ac8 <_ZSt13__copy_move_aILb0EPKiPiET1_T0_S4_S3_>
  408768:	48 83 c4 20          	add    $0x20,%rsp
  40876c:	5b                   	pop    %rbx
  40876d:	41 5c                	pop    %r12
  40876f:	5d                   	pop    %rbp
  408770:	c3                   	retq   

0000000000408771 <_ZNSt14pointer_traitsIPNSt8__detail10_Hash_nodeISt4pairIKN10tensorflow6OutputENS3_5Input11InitializerEELb1EEEE10pointer_toERS9_>:
  408771:	55                   	push   %rbp
  408772:	48 89 e5             	mov    %rsp,%rbp
  408775:	48 83 ec 10          	sub    $0x10,%rsp
  408779:	48 89 7d f8          	mov    %rdi,-0x8(%rbp)
  40877d:	48 8b 45 f8          	mov    -0x8(%rbp),%rax
  408781:	48 89 c7             	mov    %rax,%rdi
  408784:	e8 70 03 00 00       	callq  408af9 <_ZSt9addressofINSt8__detail10_Hash_nodeISt4pairIKN10tensorflow6OutputENS3_5Input11InitializerEELb1EEEEPT_RSA_>
  408789:	c9                   	leaveq 
  40878a:	c3                   	retq   
  40878b:	90                   	nop

000000000040878c <_ZNSt8__detail16_Hashtable_allocISaINS_10_Hash_nodeISt4pairIKN10tensorflow6OutputENS3_5Input11InitializerEELb1EEEEE17_M_node_allocatorEv>:
  40878c:	55                   	push   %rbp
  40878d:	48 89 e5             	mov    %rsp,%rbp
  408790:	48 83 ec 10          	sub    $0x10,%rsp
  408794:	48 89 7d f8          	mov    %rdi,-0x8(%rbp)
  408798:	48 8b 45 f8          	mov    -0x8(%rbp),%rax
  40879c:	48 89 c7             	mov    %rax,%rdi
  40879f:	e8 6f 03 00 00       	callq  408b13 <_ZNSt8__detail21_Hashtable_ebo_helperILi0ESaINS_10_Hash_nodeISt4pairIKN10tensorflow6OutputENS3_5Input11InitializerEELb1EEEELb1EE6_S_getERSB_>
  4087a4:	c9                   	leaveq 
  4087a5:	c3                   	retq   

00000000004087a6 <_ZNSaISt4pairIKN10tensorflow6OutputENS0_5Input11InitializerEEEC1INSt8__detail10_Hash_nodeIS5_Lb1EEEEERKSaIT_E>:
  4087a6:	55                   	push   %rbp
  4087a7:	48 89 e5             	mov    %rsp,%rbp
  4087aa:	48 83 ec 10          	sub    $0x10,%rsp
  4087ae:	48 89 7d f8          	mov    %rdi,-0x8(%rbp)
  4087b2:	48 89 75 f0          	mov    %rsi,-0x10(%rbp)
  4087b6:	48 8b 45 f8          	mov    -0x8(%rbp),%rax
  4087ba:	48 89 c7             	mov    %rax,%rdi
  4087bd:	e8 60 03 00 00       	callq  408b22 <_ZN9__gnu_cxx13new_allocatorISt4pairIKN10tensorflow6OutputENS2_5Input11InitializerEEEC1Ev>
  4087c2:	90                   	nop
  4087c3:	c9                   	leaveq 
  4087c4:	c3                   	retq   
  4087c5:	90                   	nop

00000000004087c6 <_ZNSaISt4pairIKN10tensorflow6OutputENS0_5Input11InitializerEEED1Ev>:
  4087c6:	55                   	push   %rbp
  4087c7:	48 89 e5             	mov    %rsp,%rbp
  4087ca:	48 83 ec 10          	sub    $0x10,%rsp
  4087ce:	48 89 7d f8          	mov    %rdi,-0x8(%rbp)
  4087d2:	48 8b 45 f8          	mov    -0x8(%rbp),%rax
  4087d6:	48 89 c7             	mov    %rax,%rdi
  4087d9:	e8 50 03 00 00       	callq  408b2e <_ZN9__gnu_cxx13new_allocatorISt4pairIKN10tensorflow6OutputENS2_5Input11InitializerEEED1Ev>
  4087de:	90                   	nop
  4087df:	c9                   	leaveq 
  4087e0:	c3                   	retq   
  4087e1:	90                   	nop

00000000004087e2 <_ZNSt8__detail21_Hash_node_value_baseISt4pairIKN10tensorflow6OutputENS2_5Input11InitializerEEE9_M_valptrEv>:
  4087e2:	55                   	push   %rbp
  4087e3:	48 89 e5             	mov    %rsp,%rbp
  4087e6:	48 83 ec 10          	sub    $0x10,%rsp
  4087ea:	48 89 7d f8          	mov    %rdi,-0x8(%rbp)
  4087ee:	48 8b 45 f8          	mov    -0x8(%rbp),%rax
  4087f2:	48 83 c0 08          	add    $0x8,%rax
  4087f6:	48 89 c7             	mov    %rax,%rdi
  4087f9:	e8 3c 03 00 00       	callq  408b3a <_ZN9__gnu_cxx16__aligned_bufferISt4pairIKN10tensorflow6OutputENS2_5Input11InitializerEEE6_M_ptrEv>
  4087fe:	c9                   	leaveq 
  4087ff:	c3                   	retq   

0000000000408800 <_ZNSt16allocator_traitsISaISt4pairIKN10tensorflow6OutputENS1_5Input11InitializerEEEE7destroyIS6_EEvRS7_PT_>:
  408800:	55                   	push   %rbp
  408801:	48 89 e5             	mov    %rsp,%rbp
  408804:	48 83 ec 10          	sub    $0x10,%rsp
  408808:	48 89 7d f8          	mov    %rdi,-0x8(%rbp)
  40880c:	48 89 75 f0          	mov    %rsi,-0x10(%rbp)
  408810:	48 8b 55 f0          	mov    -0x10(%rbp),%rdx
  408814:	48 8b 45 f8          	mov    -0x8(%rbp),%rax
  408818:	48 89 d6             	mov    %rdx,%rsi
  40881b:	48 89 c7             	mov    %rax,%rdi
  40881e:	e8 5d 03 00 00       	callq  408b80 <_ZN9__gnu_cxx13new_allocatorISt4pairIKN10tensorflow6OutputENS2_5Input11InitializerEEE7destroyIS7_EEvPT_>
  408823:	90                   	nop
  408824:	c9                   	leaveq 
  408825:	c3                   	retq   

0000000000408826 <_ZNSt16allocator_traitsISaINSt8__detail10_Hash_nodeISt4pairIKN10tensorflow6OutputENS3_5Input11InitializerEELb1EEEEE10deallocateERSA_PS9_m>:
  408826:	55                   	push   %rbp
  408827:	48 89 e5             	mov    %rsp,%rbp
  40882a:	48 83 ec 20          	sub    $0x20,%rsp
  40882e:	48 89 7d f8          	mov    %rdi,-0x8(%rbp)
  408832:	48 89 75 f0          	mov    %rsi,-0x10(%rbp)
  408836:	48 89 55 e8          	mov    %rdx,-0x18(%rbp)
  40883a:	48 8b 55 e8          	mov    -0x18(%rbp),%rdx
  40883e:	48 8b 4d f0          	mov    -0x10(%rbp),%rcx
  408842:	48 8b 45 f8          	mov    -0x8(%rbp),%rax
  408846:	48 89 ce             	mov    %rcx,%rsi
  408849:	48 89 c7             	mov    %rax,%rdi
  40884c:	e8 4f 03 00 00       	callq  408ba0 <_ZN9__gnu_cxx13new_allocatorINSt8__detail10_Hash_nodeISt4pairIKN10tensorflow6OutputENS4_5Input11InitializerEELb1EEEE10deallocateEPSA_m>
  408851:	90                   	nop
  408852:	c9                   	leaveq 
  408853:	c3                   	retq   

0000000000408854 <_ZNSt14pointer_traitsIPPNSt8__detail15_Hash_node_baseEE10pointer_toERS2_>:
  408854:	55                   	push   %rbp
  408855:	48 89 e5             	mov    %rsp,%rbp
  408858:	48 83 ec 10          	sub    $0x10,%rsp
  40885c:	48 89 7d f8          	mov    %rdi,-0x8(%rbp)
  408860:	48 8b 45 f8          	mov    -0x8(%rbp),%rax
  408864:	48 89 c7             	mov    %rax,%rdi
  408867:	e8 57 03 00 00       	callq  408bc3 <_ZSt9addressofIPNSt8__detail15_Hash_node_baseEEPT_RS3_>
  40886c:	c9                   	leaveq 
  40886d:	c3                   	retq   

000000000040886e <_ZNSaIPNSt8__detail15_Hash_node_baseEEC1INS_10_Hash_nodeISt4pairIKN10tensorflow6OutputENS6_5Input11InitializerEELb1EEEEERKSaIT_E>:
  40886e:	55                   	push   %rbp
  40886f:	48 89 e5             	mov    %rsp,%rbp
  408872:	48 83 ec 10          	sub    $0x10,%rsp
  408876:	48 89 7d f8          	mov    %rdi,-0x8(%rbp)
  40887a:	48 89 75 f0          	mov    %rsi,-0x10(%rbp)
  40887e:	48 8b 45 f8          	mov    -0x8(%rbp),%rax
  408882:	48 89 c7             	mov    %rax,%rdi
  408885:	e8 54 03 00 00       	callq  408bde <_ZN9__gnu_cxx13new_allocatorIPNSt8__detail15_Hash_node_baseEEC1Ev>
  40888a:	90                   	nop
  40888b:	c9                   	leaveq 
  40888c:	c3                   	retq   
  40888d:	90                   	nop

000000000040888e <_ZNSaIPNSt8__detail15_Hash_node_baseEED1Ev>:
  40888e:	55                   	push   %rbp
  40888f:	48 89 e5             	mov    %rsp,%rbp
  408892:	48 83 ec 10          	sub    $0x10,%rsp
  408896:	48 89 7d f8          	mov    %rdi,-0x8(%rbp)
  40889a:	48 8b 45 f8          	mov    -0x8(%rbp),%rax
  40889e:	48 89 c7             	mov    %rax,%rdi
  4088a1:	e8 44 03 00 00       	callq  408bea <_ZN9__gnu_cxx13new_allocatorIPNSt8__detail15_Hash_node_baseEED1Ev>
  4088a6:	90                   	nop
  4088a7:	c9                   	leaveq 
  4088a8:	c3                   	retq   

00000000004088a9 <_ZNSt16allocator_traitsISaIPNSt8__detail15_Hash_node_baseEEE10deallocateERS3_PS2_m>:
  4088a9:	55                   	push   %rbp
  4088aa:	48 89 e5             	mov    %rsp,%rbp
  4088ad:	48 83 ec 20          	sub    $0x20,%rsp
  4088b1:	48 89 7d f8          	mov    %rdi,-0x8(%rbp)
  4088b5:	48 89 75 f0          	mov    %rsi,-0x10(%rbp)
  4088b9:	48 89 55 e8          	mov    %rdx,-0x18(%rbp)
  4088bd:	48 8b 55 e8          	mov    -0x18(%rbp),%rdx
  4088c1:	48 8b 4d f0          	mov    -0x10(%rbp),%rcx
  4088c5:	48 8b 45 f8          	mov    -0x8(%rbp),%rax
  4088c9:	48 89 ce             	mov    %rcx,%rsi
  4088cc:	48 89 c7             	mov    %rax,%rdi
  4088cf:	e8 22 03 00 00       	callq  408bf6 <_ZN9__gnu_cxx13new_allocatorIPNSt8__detail15_Hash_node_baseEE10deallocateEPS3_m>
  4088d4:	90                   	nop
  4088d5:	c9                   	leaveq 
  4088d6:	c3                   	retq   
  4088d7:	90                   	nop

00000000004088d8 <_ZN9__gnu_cxx13new_allocatorIN10tensorflow6OutputEEC1ERKS3_>:
  4088d8:	55                   	push   %rbp
  4088d9:	48 89 e5             	mov    %rsp,%rbp
  4088dc:	48 89 7d f8          	mov    %rdi,-0x8(%rbp)
  4088e0:	48 89 75 f0          	mov    %rsi,-0x10(%rbp)
  4088e4:	90                   	nop
  4088e5:	5d                   	pop    %rbp
  4088e6:	c3                   	retq   
  4088e7:	90                   	nop

00000000004088e8 <_ZN9__gnu_cxx13new_allocatorIN10tensorflow6OutputEE10deallocateEPS2_m>:
  4088e8:	55                   	push   %rbp
  4088e9:	48 89 e5             	mov    %rsp,%rbp
  4088ec:	48 83 ec 20          	sub    $0x20,%rsp
  4088f0:	48 89 7d f8          	mov    %rdi,-0x8(%rbp)
  4088f4:	48 89 75 f0          	mov    %rsi,-0x10(%rbp)
  4088f8:	48 89 55 e8          	mov    %rdx,-0x18(%rbp)
  4088fc:	48 8b 45 f0          	mov    -0x10(%rbp),%rax
  408900:	48 89 c7             	mov    %rax,%rdi
  408903:	e8 88 a4 ff ff       	callq  402d90 <_ZdlPv@plt>
  408908:	90                   	nop
  408909:	c9                   	leaveq 
  40890a:	c3                   	retq   
  40890b:	90                   	nop

000000000040890c <_ZN9__gnu_cxx13new_allocatorIN10tensorflow6OutputEE8allocateEmPKv>:
  40890c:	55                   	push   %rbp
  40890d:	48 89 e5             	mov    %rsp,%rbp
  408910:	48 83 ec 20          	sub    $0x20,%rsp
  408914:	48 89 7d f8          	mov    %rdi,-0x8(%rbp)
  408918:	48 89 75 f0          	mov    %rsi,-0x10(%rbp)
  40891c:	48 89 55 e8          	mov    %rdx,-0x18(%rbp)
  408920:	48 8b 45 f8          	mov    -0x8(%rbp),%rax
  408924:	48 89 c7             	mov    %rax,%rdi
  408927:	e8 ee 02 00 00       	callq  408c1a <_ZNK9__gnu_cxx13new_allocatorIN10tensorflow6OutputEE8max_sizeEv>
  40892c:	48 3b 45 f0          	cmp    -0x10(%rbp),%rax
  408930:	0f 92 c0             	setb   %al
  408933:	84 c0                	test   %al,%al
  408935:	74 05                	je     40893c <_ZN9__gnu_cxx13new_allocatorIN10tensorflow6OutputEE8allocateEmPKv+0x30>
  408937:	e8 84 a7 ff ff       	callq  4030c0 <_ZSt17__throw_bad_allocv@plt>
  40893c:	48 8b 55 f0          	mov    -0x10(%rbp),%rdx
  408940:	48 89 d0             	mov    %rdx,%rax
  408943:	48 c1 e0 02          	shl    $0x2,%rax
  408947:	48 01 d0             	add    %rdx,%rax
  40894a:	48 c1 e0 03          	shl    $0x3,%rax
  40894e:	48 89 c7             	mov    %rax,%rdi
  408951:	e8 ca a7 ff ff       	callq  403120 <_Znwm@plt>
  408956:	c9                   	leaveq 
  408957:	c3                   	retq   

0000000000408958 <_ZNSt20__uninitialized_copyILb0EE13__uninit_copyIPKN10tensorflow6OutputEPS3_EET0_T_S8_S7_>:
  408958:	55                   	push   %rbp
  408959:	48 89 e5             	mov    %rsp,%rbp
  40895c:	53                   	push   %rbx
  40895d:	48 83 ec 38          	sub    $0x38,%rsp
  408961:	48 89 7d d8          	mov    %rdi,-0x28(%rbp)
  408965:	48 89 75 d0          	mov    %rsi,-0x30(%rbp)
  408969:	48 89 55 c8          	mov    %rdx,-0x38(%rbp)
  40896d:	48 8b 45 c8          	mov    -0x38(%rbp),%rax
  408971:	48 89 45 e8          	mov    %rax,-0x18(%rbp)
  408975:	48 8b 45 d8          	mov    -0x28(%rbp),%rax
  408979:	48 3b 45 d0          	cmp    -0x30(%rbp),%rax
  40897d:	74 2a                	je     4089a9 <_ZNSt20__uninitialized_copyILb0EE13__uninit_copyIPKN10tensorflow6OutputEPS3_EET0_T_S8_S7_+0x51>
  40897f:	48 8b 45 e8          	mov    -0x18(%rbp),%rax
  408983:	48 89 c7             	mov    %rax,%rdi
  408986:	e8 5e 00 00 00       	callq  4089e9 <_ZSt11__addressofIN10tensorflow6OutputEEPT_RS2_>
  40898b:	48 89 c2             	mov    %rax,%rdx
  40898e:	48 8b 45 d8          	mov    -0x28(%rbp),%rax
  408992:	48 89 c6             	mov    %rax,%rsi
  408995:	48 89 d7             	mov    %rdx,%rdi
  408998:	e8 9f 02 00 00       	callq  408c3c <_ZSt10_ConstructIN10tensorflow6OutputEJRKS1_EEvPT_DpOT0_>
  40899d:	48 83 45 d8 28       	addq   $0x28,-0x28(%rbp)
  4089a2:	48 83 45 e8 28       	addq   $0x28,-0x18(%rbp)
  4089a7:	eb cc                	jmp    408975 <_ZNSt20__uninitialized_copyILb0EE13__uninit_copyIPKN10tensorflow6OutputEPS3_EET0_T_S8_S7_+0x1d>
  4089a9:	48 8b 45 e8          	mov    -0x18(%rbp),%rax
  4089ad:	eb 33                	jmp    4089e2 <_ZNSt20__uninitialized_copyILb0EE13__uninit_copyIPKN10tensorflow6OutputEPS3_EET0_T_S8_S7_+0x8a>
  4089af:	48 89 c7             	mov    %rax,%rdi
  4089b2:	e8 b9 a5 ff ff       	callq  402f70 <__cxa_begin_catch@plt>
  4089b7:	48 8b 55 e8          	mov    -0x18(%rbp),%rdx
  4089bb:	48 8b 45 c8          	mov    -0x38(%rbp),%rax
  4089bf:	48 89 d6             	mov    %rdx,%rsi
  4089c2:	48 89 c7             	mov    %rax,%rdi
  4089c5:	e8 ce f2 ff ff       	callq  407c98 <_ZSt8_DestroyIPN10tensorflow6OutputEEvT_S3_>
  4089ca:	e8 01 a8 ff ff       	callq  4031d0 <__cxa_rethrow@plt>
  4089cf:	48 89 c3             	mov    %rax,%rbx
  4089d2:	e8 d9 a7 ff ff       	callq  4031b0 <__cxa_end_catch@plt>
  4089d7:	48 89 d8             	mov    %rbx,%rax
  4089da:	48 89 c7             	mov    %rax,%rdi
  4089dd:	e8 2e a6 ff ff       	callq  403010 <_Unwind_Resume@plt>
  4089e2:	48 83 c4 38          	add    $0x38,%rsp
  4089e6:	5b                   	pop    %rbx
  4089e7:	5d                   	pop    %rbp
  4089e8:	c3                   	retq   

00000000004089e9 <_ZSt11__addressofIN10tensorflow6OutputEEPT_RS2_>:
  4089e9:	55                   	push   %rbp
  4089ea:	48 89 e5             	mov    %rsp,%rbp
  4089ed:	48 89 7d f8          	mov    %rdi,-0x8(%rbp)
  4089f1:	48 8b 45 f8          	mov    -0x8(%rbp),%rax
  4089f5:	5d                   	pop    %rbp
  4089f6:	c3                   	retq   

00000000004089f7 <_ZSt8_DestroyIN10tensorflow6OutputEEvPT_>:
  4089f7:	55                   	push   %rbp
  4089f8:	48 89 e5             	mov    %rsp,%rbp
  4089fb:	48 83 ec 10          	sub    $0x10,%rsp
  4089ff:	48 89 7d f8          	mov    %rdi,-0x8(%rbp)
  408a03:	48 8b 45 f8          	mov    -0x8(%rbp),%rax
  408a07:	48 89 c7             	mov    %rax,%rdi
  408a0a:	e8 b7 be ff ff       	callq  4048c6 <_ZN10tensorflow6OutputD1Ev>
  408a0f:	90                   	nop
  408a10:	c9                   	leaveq 
  408a11:	c3                   	retq   

0000000000408a12 <_ZN9__gnu_cxx13new_allocatorIN10tensorflow9OperationEEC1Ev>:
  408a12:	55                   	push   %rbp
  408a13:	48 89 e5             	mov    %rsp,%rbp
  408a16:	48 89 7d f8          	mov    %rdi,-0x8(%rbp)
  408a1a:	90                   	nop
  408a1b:	5d                   	pop    %rbp
  408a1c:	c3                   	retq   
  408a1d:	90                   	nop

0000000000408a1e <_ZN9__gnu_cxx13new_allocatorIN10tensorflow9OperationEE10deallocateEPS2_m>:
  408a1e:	55                   	push   %rbp
  408a1f:	48 89 e5             	mov    %rsp,%rbp
  408a22:	48 83 ec 20          	sub    $0x20,%rsp
  408a26:	48 89 7d f8          	mov    %rdi,-0x8(%rbp)
  408a2a:	48 89 75 f0          	mov    %rsi,-0x10(%rbp)
  408a2e:	48 89 55 e8          	mov    %rdx,-0x18(%rbp)
  408a32:	48 8b 45 f0          	mov    -0x10(%rbp),%rax
  408a36:	48 89 c7             	mov    %rax,%rdi
  408a39:	e8 52 a3 ff ff       	callq  402d90 <_ZdlPv@plt>
  408a3e:	90                   	nop
  408a3f:	c9                   	leaveq 
  408a40:	c3                   	retq   

0000000000408a41 <_ZSt11__addressofIN10tensorflow9OperationEEPT_RS2_>:
  408a41:	55                   	push   %rbp
  408a42:	48 89 e5             	mov    %rsp,%rbp
  408a45:	48 89 7d f8          	mov    %rdi,-0x8(%rbp)
  408a49:	48 8b 45 f8          	mov    -0x8(%rbp),%rax
  408a4d:	5d                   	pop    %rbp
  408a4e:	c3                   	retq   

0000000000408a4f <_ZSt8_DestroyIN10tensorflow9OperationEEvPT_>:
  408a4f:	55                   	push   %rbp
  408a50:	48 89 e5             	mov    %rsp,%rbp
  408a53:	48 83 ec 10          	sub    $0x10,%rsp
  408a57:	48 89 7d f8          	mov    %rdi,-0x8(%rbp)
  408a5b:	48 8b 45 f8          	mov    -0x8(%rbp),%rax
  408a5f:	48 89 c7             	mov    %rax,%rdi
  408a62:	e8 d9 bd ff ff       	callq  404840 <_ZN10tensorflow9OperationD1Ev>
  408a67:	90                   	nop
  408a68:	c9                   	leaveq 
  408a69:	c3                   	retq   

0000000000408a6a <_ZN9__gnu_cxx13new_allocatorISt4pairIPN10tensorflow4NodeEiEE8allocateEmPKv>:
  408a6a:	55                   	push   %rbp
  408a6b:	48 89 e5             	mov    %rsp,%rbp
  408a6e:	48 83 ec 20          	sub    $0x20,%rsp
  408a72:	48 89 7d f8          	mov    %rdi,-0x8(%rbp)
  408a76:	48 89 75 f0          	mov    %rsi,-0x10(%rbp)
  408a7a:	48 89 55 e8          	mov    %rdx,-0x18(%rbp)
  408a7e:	48 8b 45 f8          	mov    -0x8(%rbp),%rax
  408a82:	48 89 c7             	mov    %rax,%rdi
  408a85:	e8 22 02 00 00       	callq  408cac <_ZNK9__gnu_cxx13new_allocatorISt4pairIPN10tensorflow4NodeEiEE8max_sizeEv>
  408a8a:	48 3b 45 f0          	cmp    -0x10(%rbp),%rax
  408a8e:	0f 92 c0             	setb   %al
  408a91:	84 c0                	test   %al,%al
  408a93:	74 05                	je     408a9a <_ZN9__gnu_cxx13new_allocatorISt4pairIPN10tensorflow4NodeEiEE8allocateEmPKv+0x30>
  408a95:	e8 26 a6 ff ff       	callq  4030c0 <_ZSt17__throw_bad_allocv@plt>
  408a9a:	48 8b 45 f0          	mov    -0x10(%rbp),%rax
  408a9e:	48 c1 e0 04          	shl    $0x4,%rax
  408aa2:	48 89 c7             	mov    %rax,%rdi
  408aa5:	e8 76 a6 ff ff       	callq  403120 <_Znwm@plt>
  408aaa:	c9                   	leaveq 
  408aab:	c3                   	retq   

0000000000408aac <_ZNK9__gnu_cxx17__normal_iteratorIPKSt4pairIPN10tensorflow4NodeEiESt6vectorIS5_SaIS5_EEE4baseEv>:
  408aac:	55                   	push   %rbp
  408aad:	48 89 e5             	mov    %rsp,%rbp
  408ab0:	48 89 7d f8          	mov    %rdi,-0x8(%rbp)
  408ab4:	48 8b 45 f8          	mov    -0x8(%rbp),%rax
  408ab8:	5d                   	pop    %rbp
  408ab9:	c3                   	retq   

0000000000408aba <_ZSt12__niter_baseIPKiET_S2_>:
  408aba:	55                   	push   %rbp
  408abb:	48 89 e5             	mov    %rsp,%rbp
  408abe:	48 89 7d f8          	mov    %rdi,-0x8(%rbp)
  408ac2:	48 8b 45 f8          	mov    -0x8(%rbp),%rax
  408ac6:	5d                   	pop    %rbp
  408ac7:	c3                   	retq   

0000000000408ac8 <_ZSt13__copy_move_aILb0EPKiPiET1_T0_S4_S3_>:
  408ac8:	55                   	push   %rbp
  408ac9:	48 89 e5             	mov    %rsp,%rbp
  408acc:	48 83 ec 30          	sub    $0x30,%rsp
  408ad0:	48 89 7d e8          	mov    %rdi,-0x18(%rbp)
  408ad4:	48 89 75 e0          	mov    %rsi,-0x20(%rbp)
  408ad8:	48 89 55 d8          	mov    %rdx,-0x28(%rbp)
  408adc:	c6 45 ff 01          	movb   $0x1,-0x1(%rbp)
  408ae0:	48 8b 55 d8          	mov    -0x28(%rbp),%rdx
  408ae4:	48 8b 4d e0          	mov    -0x20(%rbp),%rcx
  408ae8:	48 8b 45 e8          	mov    -0x18(%rbp),%rax
  408aec:	48 89 ce             	mov    %rcx,%rsi
  408aef:	48 89 c7             	mov    %rax,%rdi
  408af2:	e8 c9 01 00 00       	callq  408cc0 <_ZNSt11__copy_moveILb0ELb1ESt26random_access_iterator_tagE8__copy_mIiEEPT_PKS3_S6_S4_>
  408af7:	c9                   	leaveq 
  408af8:	c3                   	retq   

0000000000408af9 <_ZSt9addressofINSt8__detail10_Hash_nodeISt4pairIKN10tensorflow6OutputENS3_5Input11InitializerEELb1EEEEPT_RSA_>:
  408af9:	55                   	push   %rbp
  408afa:	48 89 e5             	mov    %rsp,%rbp
  408afd:	48 83 ec 10          	sub    $0x10,%rsp
  408b01:	48 89 7d f8          	mov    %rdi,-0x8(%rbp)
  408b05:	48 8b 45 f8          	mov    -0x8(%rbp),%rax
  408b09:	48 89 c7             	mov    %rax,%rdi
  408b0c:	e8 14 02 00 00       	callq  408d25 <_ZSt11__addressofINSt8__detail10_Hash_nodeISt4pairIKN10tensorflow6OutputENS3_5Input11InitializerEELb1EEEEPT_RSA_>
  408b11:	c9                   	leaveq 
  408b12:	c3                   	retq   

0000000000408b13 <_ZNSt8__detail21_Hashtable_ebo_helperILi0ESaINS_10_Hash_nodeISt4pairIKN10tensorflow6OutputENS3_5Input11InitializerEELb1EEEELb1EE6_S_getERSB_>:
  408b13:	55                   	push   %rbp
  408b14:	48 89 e5             	mov    %rsp,%rbp
  408b17:	48 89 7d f8          	mov    %rdi,-0x8(%rbp)
  408b1b:	48 8b 45 f8          	mov    -0x8(%rbp),%rax
  408b1f:	5d                   	pop    %rbp
  408b20:	c3                   	retq   
  408b21:	90                   	nop

0000000000408b22 <_ZN9__gnu_cxx13new_allocatorISt4pairIKN10tensorflow6OutputENS2_5Input11InitializerEEEC1Ev>:
  408b22:	55                   	push   %rbp
  408b23:	48 89 e5             	mov    %rsp,%rbp
  408b26:	48 89 7d f8          	mov    %rdi,-0x8(%rbp)
  408b2a:	90                   	nop
  408b2b:	5d                   	pop    %rbp
  408b2c:	c3                   	retq   
  408b2d:	90                   	nop

0000000000408b2e <_ZN9__gnu_cxx13new_allocatorISt4pairIKN10tensorflow6OutputENS2_5Input11InitializerEEED1Ev>:
  408b2e:	55                   	push   %rbp
  408b2f:	48 89 e5             	mov    %rsp,%rbp
  408b32:	48 89 7d f8          	mov    %rdi,-0x8(%rbp)
  408b36:	90                   	nop
  408b37:	5d                   	pop    %rbp
  408b38:	c3                   	retq   
  408b39:	90                   	nop

0000000000408b3a <_ZN9__gnu_cxx16__aligned_bufferISt4pairIKN10tensorflow6OutputENS2_5Input11InitializerEEE6_M_ptrEv>:
  408b3a:	55                   	push   %rbp
  408b3b:	48 89 e5             	mov    %rsp,%rbp
  408b3e:	48 83 ec 10          	sub    $0x10,%rsp
  408b42:	48 89 7d f8          	mov    %rdi,-0x8(%rbp)
  408b46:	48 8b 45 f8          	mov    -0x8(%rbp),%rax
  408b4a:	48 89 c7             	mov    %rax,%rdi
  408b4d:	e8 e2 01 00 00       	callq  408d34 <_ZN9__gnu_cxx16__aligned_bufferISt4pairIKN10tensorflow6OutputENS2_5Input11InitializerEEE7_M_addrEv>
  408b52:	c9                   	leaveq 
  408b53:	c3                   	retq   

0000000000408b54 <_ZNSt4pairIKN10tensorflow6OutputENS0_5Input11InitializerEED1Ev>:
  408b54:	55                   	push   %rbp
  408b55:	48 89 e5             	mov    %rsp,%rbp
  408b58:	48 83 ec 10          	sub    $0x10,%rsp
  408b5c:	48 89 7d f8          	mov    %rdi,-0x8(%rbp)
  408b60:	48 8b 45 f8          	mov    -0x8(%rbp),%rax
  408b64:	48 83 c0 28          	add    $0x28,%rax
  408b68:	48 89 c7             	mov    %rax,%rdi
  408b6b:	e8 f8 bf ff ff       	callq  404b68 <_ZN10tensorflow5Input11InitializerD1Ev>
  408b70:	48 8b 45 f8          	mov    -0x8(%rbp),%rax
  408b74:	48 89 c7             	mov    %rax,%rdi
  408b77:	e8 4a bd ff ff       	callq  4048c6 <_ZN10tensorflow6OutputD1Ev>
  408b7c:	90                   	nop
  408b7d:	c9                   	leaveq 
  408b7e:	c3                   	retq   
  408b7f:	90                   	nop

0000000000408b80 <_ZN9__gnu_cxx13new_allocatorISt4pairIKN10tensorflow6OutputENS2_5Input11InitializerEEE7destroyIS7_EEvPT_>:
  408b80:	55                   	push   %rbp
  408b81:	48 89 e5             	mov    %rsp,%rbp
  408b84:	48 83 ec 10          	sub    $0x10,%rsp
  408b88:	48 89 7d f8          	mov    %rdi,-0x8(%rbp)
  408b8c:	48 89 75 f0          	mov    %rsi,-0x10(%rbp)
  408b90:	48 8b 45 f0          	mov    -0x10(%rbp),%rax
  408b94:	48 89 c7             	mov    %rax,%rdi
  408b97:	e8 b8 ff ff ff       	callq  408b54 <_ZNSt4pairIKN10tensorflow6OutputENS0_5Input11InitializerEED1Ev>
  408b9c:	90                   	nop
  408b9d:	c9                   	leaveq 
  408b9e:	c3                   	retq   
  408b9f:	90                   	nop

0000000000408ba0 <_ZN9__gnu_cxx13new_allocatorINSt8__detail10_Hash_nodeISt4pairIKN10tensorflow6OutputENS4_5Input11InitializerEELb1EEEE10deallocateEPSA_m>:
  408ba0:	55                   	push   %rbp
  408ba1:	48 89 e5             	mov    %rsp,%rbp
  408ba4:	48 83 ec 20          	sub    $0x20,%rsp
  408ba8:	48 89 7d f8          	mov    %rdi,-0x8(%rbp)
  408bac:	48 89 75 f0          	mov    %rsi,-0x10(%rbp)
  408bb0:	48 89 55 e8          	mov    %rdx,-0x18(%rbp)
  408bb4:	48 8b 45 f0          	mov    -0x10(%rbp),%rax
  408bb8:	48 89 c7             	mov    %rax,%rdi
  408bbb:	e8 d0 a1 ff ff       	callq  402d90 <_ZdlPv@plt>
  408bc0:	90                   	nop
  408bc1:	c9                   	leaveq 
  408bc2:	c3                   	retq   

0000000000408bc3 <_ZSt9addressofIPNSt8__detail15_Hash_node_baseEEPT_RS3_>:
  408bc3:	55                   	push   %rbp
  408bc4:	48 89 e5             	mov    %rsp,%rbp
  408bc7:	48 83 ec 10          	sub    $0x10,%rsp
  408bcb:	48 89 7d f8          	mov    %rdi,-0x8(%rbp)
  408bcf:	48 8b 45 f8          	mov    -0x8(%rbp),%rax
  408bd3:	48 89 c7             	mov    %rax,%rdi
  408bd6:	e8 67 01 00 00       	callq  408d42 <_ZSt11__addressofIPNSt8__detail15_Hash_node_baseEEPT_RS3_>
  408bdb:	c9                   	leaveq 
  408bdc:	c3                   	retq   
  408bdd:	90                   	nop

0000000000408bde <_ZN9__gnu_cxx13new_allocatorIPNSt8__detail15_Hash_node_baseEEC1Ev>:
  408bde:	55                   	push   %rbp
  408bdf:	48 89 e5             	mov    %rsp,%rbp
  408be2:	48 89 7d f8          	mov    %rdi,-0x8(%rbp)
  408be6:	90                   	nop
  408be7:	5d                   	pop    %rbp
  408be8:	c3                   	retq   
  408be9:	90                   	nop

0000000000408bea <_ZN9__gnu_cxx13new_allocatorIPNSt8__detail15_Hash_node_baseEED1Ev>:
  408bea:	55                   	push   %rbp
  408beb:	48 89 e5             	mov    %rsp,%rbp
  408bee:	48 89 7d f8          	mov    %rdi,-0x8(%rbp)
  408bf2:	90                   	nop
  408bf3:	5d                   	pop    %rbp
  408bf4:	c3                   	retq   
  408bf5:	90                   	nop

0000000000408bf6 <_ZN9__gnu_cxx13new_allocatorIPNSt8__detail15_Hash_node_baseEE10deallocateEPS3_m>:
  408bf6:	55                   	push   %rbp
  408bf7:	48 89 e5             	mov    %rsp,%rbp
  408bfa:	48 83 ec 20          	sub    $0x20,%rsp
  408bfe:	48 89 7d f8          	mov    %rdi,-0x8(%rbp)
  408c02:	48 89 75 f0          	mov    %rsi,-0x10(%rbp)
  408c06:	48 89 55 e8          	mov    %rdx,-0x18(%rbp)
  408c0a:	48 8b 45 f0          	mov    -0x10(%rbp),%rax
  408c0e:	48 89 c7             	mov    %rax,%rdi
  408c11:	e8 7a a1 ff ff       	callq  402d90 <_ZdlPv@plt>
  408c16:	90                   	nop
  408c17:	c9                   	leaveq 
  408c18:	c3                   	retq   
  408c19:	90                   	nop

0000000000408c1a <_ZNK9__gnu_cxx13new_allocatorIN10tensorflow6OutputEE8max_sizeEv>:
  408c1a:	55                   	push   %rbp
  408c1b:	48 89 e5             	mov    %rsp,%rbp
  408c1e:	48 89 7d f8          	mov    %rdi,-0x8(%rbp)
  408c22:	48 b8 66 66 66 66 66 	movabs $0x666666666666666,%rax
  408c29:	66 66 06 
  408c2c:	5d                   	pop    %rbp
  408c2d:	c3                   	retq   

0000000000408c2e <_ZSt7forwardIRKN10tensorflow6OutputEEOT_RNSt16remove_referenceIS4_E4typeE>:
  408c2e:	55                   	push   %rbp
  408c2f:	48 89 e5             	mov    %rsp,%rbp
  408c32:	48 89 7d f8          	mov    %rdi,-0x8(%rbp)
  408c36:	48 8b 45 f8          	mov    -0x8(%rbp),%rax
  408c3a:	5d                   	pop    %rbp
  408c3b:	c3                   	retq   

0000000000408c3c <_ZSt10_ConstructIN10tensorflow6OutputEJRKS1_EEvPT_DpOT0_>:
  408c3c:	55                   	push   %rbp
  408c3d:	48 89 e5             	mov    %rsp,%rbp
  408c40:	41 55                	push   %r13
  408c42:	41 54                	push   %r12
  408c44:	53                   	push   %rbx
  408c45:	48 83 ec 18          	sub    $0x18,%rsp
  408c49:	48 89 7d d8          	mov    %rdi,-0x28(%rbp)
  408c4d:	48 89 75 d0          	mov    %rsi,-0x30(%rbp)
  408c51:	48 8b 45 d0          	mov    -0x30(%rbp),%rax
  408c55:	48 89 c7             	mov    %rax,%rdi
  408c58:	e8 d1 ff ff ff       	callq  408c2e <_ZSt7forwardIRKN10tensorflow6OutputEEOT_RNSt16remove_referenceIS4_E4typeE>
  408c5d:	49 89 c5             	mov    %rax,%r13
  408c60:	4c 8b 65 d8          	mov    -0x28(%rbp),%r12
  408c64:	4c 89 e6             	mov    %r12,%rsi
  408c67:	bf 28 00 00 00       	mov    $0x28,%edi
  408c6c:	e8 c3 b2 ff ff       	callq  403f34 <_ZnwmPv>
  408c71:	48 89 c3             	mov    %rax,%rbx
  408c74:	48 85 db             	test   %rbx,%rbx
  408c77:	74 26                	je     408c9f <_ZSt10_ConstructIN10tensorflow6OutputEJRKS1_EEvPT_DpOT0_+0x63>
  408c79:	4c 89 ee             	mov    %r13,%rsi
  408c7c:	48 89 df             	mov    %rbx,%rdi
  408c7f:	e8 5e bc ff ff       	callq  4048e2 <_ZN10tensorflow6OutputC1ERKS0_>
  408c84:	eb 19                	jmp    408c9f <_ZSt10_ConstructIN10tensorflow6OutputEJRKS1_EEvPT_DpOT0_+0x63>
  408c86:	49 89 c5             	mov    %rax,%r13
  408c89:	4c 89 e6             	mov    %r12,%rsi
  408c8c:	48 89 df             	mov    %rbx,%rdi
  408c8f:	e8 b2 b2 ff ff       	callq  403f46 <_ZdlPvS_>
  408c94:	4c 89 e8             	mov    %r13,%rax
  408c97:	48 89 c7             	mov    %rax,%rdi
  408c9a:	e8 71 a3 ff ff       	callq  403010 <_Unwind_Resume@plt>
  408c9f:	90                   	nop
  408ca0:	48 83 c4 18          	add    $0x18,%rsp
  408ca4:	5b                   	pop    %rbx
  408ca5:	41 5c                	pop    %r12
  408ca7:	41 5d                	pop    %r13
  408ca9:	5d                   	pop    %rbp
  408caa:	c3                   	retq   
  408cab:	90                   	nop

0000000000408cac <_ZNK9__gnu_cxx13new_allocatorISt4pairIPN10tensorflow4NodeEiEE8max_sizeEv>:
  408cac:	55                   	push   %rbp
  408cad:	48 89 e5             	mov    %rsp,%rbp
  408cb0:	48 89 7d f8          	mov    %rdi,-0x8(%rbp)
  408cb4:	48 b8 ff ff ff ff ff 	movabs $0xfffffffffffffff,%rax
  408cbb:	ff ff 0f 
  408cbe:	5d                   	pop    %rbp
  408cbf:	c3                   	retq   

0000000000408cc0 <_ZNSt11__copy_moveILb0ELb1ESt26random_access_iterator_tagE8__copy_mIiEEPT_PKS3_S6_S4_>:
  408cc0:	55                   	push   %rbp
  408cc1:	48 89 e5             	mov    %rsp,%rbp
  408cc4:	48 83 ec 30          	sub    $0x30,%rsp
  408cc8:	48 89 7d e8          	mov    %rdi,-0x18(%rbp)
  408ccc:	48 89 75 e0          	mov    %rsi,-0x20(%rbp)
  408cd0:	48 89 55 d8          	mov    %rdx,-0x28(%rbp)
  408cd4:	48 8b 55 e0          	mov    -0x20(%rbp),%rdx
  408cd8:	48 8b 45 e8          	mov    -0x18(%rbp),%rax
  408cdc:	48 29 c2             	sub    %rax,%rdx
  408cdf:	48 89 d0             	mov    %rdx,%rax
  408ce2:	48 c1 f8 02          	sar    $0x2,%rax
  408ce6:	48 89 45 f8          	mov    %rax,-0x8(%rbp)
  408cea:	48 83 7d f8 00       	cmpq   $0x0,-0x8(%rbp)
  408cef:	74 1f                	je     408d10 <_ZNSt11__copy_moveILb0ELb1ESt26random_access_iterator_tagE8__copy_mIiEEPT_PKS3_S6_S4_+0x50>
  408cf1:	48 8b 45 f8          	mov    -0x8(%rbp),%rax
  408cf5:	48 8d 14 85 00 00 00 	lea    0x0(,%rax,4),%rdx
  408cfc:	00 
  408cfd:	48 8b 4d e8          	mov    -0x18(%rbp),%rcx
  408d01:	48 8b 45 d8          	mov    -0x28(%rbp),%rax
  408d05:	48 89 ce             	mov    %rcx,%rsi
  408d08:	48 89 c7             	mov    %rax,%rdi
  408d0b:	e8 70 a2 ff ff       	callq  402f80 <memmove@plt>
  408d10:	48 8b 45 f8          	mov    -0x8(%rbp),%rax
  408d14:	48 8d 14 85 00 00 00 	lea    0x0(,%rax,4),%rdx
  408d1b:	00 
  408d1c:	48 8b 45 d8          	mov    -0x28(%rbp),%rax
  408d20:	48 01 d0             	add    %rdx,%rax
  408d23:	c9                   	leaveq 
  408d24:	c3                   	retq   

0000000000408d25 <_ZSt11__addressofINSt8__detail10_Hash_nodeISt4pairIKN10tensorflow6OutputENS3_5Input11InitializerEELb1EEEEPT_RSA_>:
  408d25:	55                   	push   %rbp
  408d26:	48 89 e5             	mov    %rsp,%rbp
  408d29:	48 89 7d f8          	mov    %rdi,-0x8(%rbp)
  408d2d:	48 8b 45 f8          	mov    -0x8(%rbp),%rax
  408d31:	5d                   	pop    %rbp
  408d32:	c3                   	retq   
  408d33:	90                   	nop

0000000000408d34 <_ZN9__gnu_cxx16__aligned_bufferISt4pairIKN10tensorflow6OutputENS2_5Input11InitializerEEE7_M_addrEv>:
  408d34:	55                   	push   %rbp
  408d35:	48 89 e5             	mov    %rsp,%rbp
  408d38:	48 89 7d f8          	mov    %rdi,-0x8(%rbp)
  408d3c:	48 8b 45 f8          	mov    -0x8(%rbp),%rax
  408d40:	5d                   	pop    %rbp
  408d41:	c3                   	retq   

0000000000408d42 <_ZSt11__addressofIPNSt8__detail15_Hash_node_baseEEPT_RS3_>:
  408d42:	55                   	push   %rbp
  408d43:	48 89 e5             	mov    %rsp,%rbp
  408d46:	48 89 7d f8          	mov    %rdi,-0x8(%rbp)
  408d4a:	48 8b 45 f8          	mov    -0x8(%rbp),%rax
  408d4e:	5d                   	pop    %rbp
  408d4f:	c3                   	retq   

0000000000408d50 <__libc_csu_init>:
  408d50:	41 57                	push   %r15
  408d52:	41 56                	push   %r14
  408d54:	41 89 ff             	mov    %edi,%r15d
  408d57:	41 55                	push   %r13
  408d59:	41 54                	push   %r12
  408d5b:	4c 8d 25 66 50 20 00 	lea    0x205066(%rip),%r12        # 60ddc8 <__frame_dummy_init_array_entry>
  408d62:	55                   	push   %rbp
  408d63:	48 8d 2d 6e 50 20 00 	lea    0x20506e(%rip),%rbp        # 60ddd8 <__init_array_end>
  408d6a:	53                   	push   %rbx
  408d6b:	49 89 f6             	mov    %rsi,%r14
  408d6e:	49 89 d5             	mov    %rdx,%r13
  408d71:	4c 29 e5             	sub    %r12,%rbp
  408d74:	48 83 ec 08          	sub    $0x8,%rsp
  408d78:	48 c1 fd 03          	sar    $0x3,%rbp
  408d7c:	e8 67 9f ff ff       	callq  402ce8 <_init>
  408d81:	48 85 ed             	test   %rbp,%rbp
  408d84:	74 20                	je     408da6 <__libc_csu_init+0x56>
  408d86:	31 db                	xor    %ebx,%ebx
  408d88:	0f 1f 84 00 00 00 00 	nopl   0x0(%rax,%rax,1)
  408d8f:	00 
  408d90:	4c 89 ea             	mov    %r13,%rdx
  408d93:	4c 89 f6             	mov    %r14,%rsi
  408d96:	44 89 ff             	mov    %r15d,%edi
  408d99:	41 ff 14 dc          	callq  *(%r12,%rbx,8)
  408d9d:	48 83 c3 01          	add    $0x1,%rbx
  408da1:	48 39 eb             	cmp    %rbp,%rbx
  408da4:	75 ea                	jne    408d90 <__libc_csu_init+0x40>
  408da6:	48 83 c4 08          	add    $0x8,%rsp
  408daa:	5b                   	pop    %rbx
  408dab:	5d                   	pop    %rbp
  408dac:	41 5c                	pop    %r12
  408dae:	41 5d                	pop    %r13
  408db0:	41 5e                	pop    %r14
  408db2:	41 5f                	pop    %r15
  408db4:	c3                   	retq   
  408db5:	90                   	nop
  408db6:	66 2e 0f 1f 84 00 00 	nopw   %cs:0x0(%rax,%rax,1)
  408dbd:	00 00 00 

0000000000408dc0 <__libc_csu_fini>:
  408dc0:	f3 c3                	repz retq 

Disassembly of section .fini:

0000000000408dc4 <_fini>:
  408dc4:	48 83 ec 08          	sub    $0x8,%rsp
  408dc8:	48 83 c4 08          	add    $0x8,%rsp
  408dcc:	c3                   	retq   
