
resizebilinear:     file format elf64-x86-64


Disassembly of section .init:

0000000000402ce8 <_init>:
  402ce8:	48 83 ec 08          	sub    $0x8,%rsp
  402cec:	48 8b 05 05 b3 20 00 	mov    0x20b305(%rip),%rax        # 60dff8 <_DYNAMIC+0x210>
  402cf3:	48 85 c0             	test   %rax,%rax
  402cf6:	74 05                	je     402cfd <_init+0x15>
  402cf8:	e8 53 05 00 00       	callq  403250 <_ZNSaIcED1Ev@plt+0x10>
  402cfd:	48 83 c4 08          	add    $0x8,%rsp
  402d01:	c3                   	retq   

Disassembly of section .plt:

0000000000402d10 <_ZNSt7__cxx1112basic_stringIcSt11char_traitsIcESaIcEEC1ERKS4_@plt-0x10>:
  402d10:	ff 35 f2 b2 20 00    	pushq  0x20b2f2(%rip)        # 60e008 <_GLOBAL_OFFSET_TABLE_+0x8>
  402d16:	ff 25 f4 b2 20 00    	jmpq   *0x20b2f4(%rip)        # 60e010 <_GLOBAL_OFFSET_TABLE_+0x10>
  402d1c:	0f 1f 40 00          	nopl   0x0(%rax)

0000000000402d20 <_ZNSt7__cxx1112basic_stringIcSt11char_traitsIcESaIcEEC1ERKS4_@plt>:
  402d20:	ff 25 f2 b2 20 00    	jmpq   *0x20b2f2(%rip)        # 60e018 <_GLOBAL_OFFSET_TABLE_+0x18>
  402d26:	68 00 00 00 00       	pushq  $0x0
  402d2b:	e9 e0 ff ff ff       	jmpq   402d10 <_init+0x28>

0000000000402d30 <_ZN10tensorflow10RunOptionsD1Ev@plt>:
  402d30:	ff 25 ea b2 20 00    	jmpq   *0x20b2ea(%rip)        # 60e020 <_GLOBAL_OFFSET_TABLE_+0x20>
  402d36:	68 01 00 00 00       	pushq  $0x1
  402d3b:	e9 d0 ff ff ff       	jmpq   402d10 <_init+0x28>

0000000000402d40 <_ZN10tensorflow8internal15LogMessageFatalC1EPKci@plt>:
  402d40:	ff 25 e2 b2 20 00    	jmpq   *0x20b2e2(%rip)        # 60e028 <_GLOBAL_OFFSET_TABLE_+0x28>
  402d46:	68 02 00 00 00       	pushq  $0x2
  402d4b:	e9 c0 ff ff ff       	jmpq   402d10 <_init+0x28>

0000000000402d50 <__assert_fail@plt>:
  402d50:	ff 25 da b2 20 00    	jmpq   *0x20b2da(%rip)        # 60e030 <_GLOBAL_OFFSET_TABLE_+0x30>
  402d56:	68 03 00 00 00       	pushq  $0x3
  402d5b:	e9 b0 ff ff ff       	jmpq   402d10 <_init+0x28>

0000000000402d60 <__stack_chk_fail@plt>:
  402d60:	ff 25 d2 b2 20 00    	jmpq   *0x20b2d2(%rip)        # 60e038 <_GLOBAL_OFFSET_TABLE_+0x38>
  402d66:	68 04 00 00 00       	pushq  $0x4
  402d6b:	e9 a0 ff ff ff       	jmpq   402d10 <_init+0x28>

0000000000402d70 <memset@plt>:
  402d70:	ff 25 ca b2 20 00    	jmpq   *0x20b2ca(%rip)        # 60e040 <_GLOBAL_OFFSET_TABLE_+0x40>
  402d76:	68 05 00 00 00       	pushq  $0x5
  402d7b:	e9 90 ff ff ff       	jmpq   402d10 <_init+0x28>

0000000000402d80 <clock_gettime@plt>:
  402d80:	ff 25 c2 b2 20 00    	jmpq   *0x20b2c2(%rip)        # 60e048 <_GLOBAL_OFFSET_TABLE_+0x48>
  402d86:	68 06 00 00 00       	pushq  $0x6
  402d8b:	e9 80 ff ff ff       	jmpq   402d10 <_init+0x28>

0000000000402d90 <_ZdlPv@plt>:
  402d90:	ff 25 ba b2 20 00    	jmpq   *0x20b2ba(%rip)        # 60e050 <_GLOBAL_OFFSET_TABLE_+0x50>
  402d96:	68 07 00 00 00       	pushq  $0x7
  402d9b:	e9 70 ff ff ff       	jmpq   402d10 <_init+0x28>

0000000000402da0 <xopenme_clock_start@plt>:
  402da0:	ff 25 b2 b2 20 00    	jmpq   *0x20b2b2(%rip)        # 60e058 <_GLOBAL_OFFSET_TABLE_+0x58>
  402da6:	68 08 00 00 00       	pushq  $0x8
  402dab:	e9 60 ff ff ff       	jmpq   402d10 <_init+0x28>

0000000000402db0 <_ZN10tensorflow15TensorShapeBaseINS_11TensorShapeEEC2ESt16initializer_listIxE@plt>:
  402db0:	ff 25 aa b2 20 00    	jmpq   *0x20b2aa(%rip)        # 60e060 <_GLOBAL_OFFSET_TABLE_+0x60>
  402db6:	68 09 00 00 00       	pushq  $0x9
  402dbb:	e9 50 ff ff ff       	jmpq   402d10 <_init+0x28>

0000000000402dc0 <_ZN10tensorflow11RunMetadataD1Ev@plt>:
  402dc0:	ff 25 a2 b2 20 00    	jmpq   *0x20b2a2(%rip)        # 60e068 <_GLOBAL_OFFSET_TABLE_+0x68>
  402dc6:	68 0a 00 00 00       	pushq  $0xa
  402dcb:	e9 40 ff ff ff       	jmpq   402d10 <_init+0x28>

0000000000402dd0 <_ZN10tensorflow6TensorD1Ev@plt>:
  402dd0:	ff 25 9a b2 20 00    	jmpq   *0x20b29a(%rip)        # 60e070 <_GLOBAL_OFFSET_TABLE_+0x70>
  402dd6:	68 0b 00 00 00       	pushq  $0xb
  402ddb:	e9 30 ff ff ff       	jmpq   402d10 <_init+0x28>

0000000000402de0 <__cxa_atexit@plt>:
  402de0:	ff 25 92 b2 20 00    	jmpq   *0x20b292(%rip)        # 60e078 <_GLOBAL_OFFSET_TABLE_+0x78>
  402de6:	68 0c 00 00 00       	pushq  $0xc
  402deb:	e9 20 ff ff ff       	jmpq   402d10 <_init+0x28>

0000000000402df0 <_ZNSaIcEC1Ev@plt>:
  402df0:	ff 25 8a b2 20 00    	jmpq   *0x20b28a(%rip)        # 60e080 <_GLOBAL_OFFSET_TABLE_+0x80>
  402df6:	68 0d 00 00 00       	pushq  $0xd
  402dfb:	e9 10 ff ff ff       	jmpq   402d10 <_init+0x28>

0000000000402e00 <sprintf@plt>:
  402e00:	ff 25 82 b2 20 00    	jmpq   *0x20b282(%rip)        # 60e088 <_GLOBAL_OFFSET_TABLE_+0x88>
  402e06:	68 0e 00 00 00       	pushq  $0xe
  402e0b:	e9 00 ff ff ff       	jmpq   402d10 <_init+0x28>

0000000000402e10 <_ZN10tensorflow6TensorC1ENS_8DataTypeERKNS_11TensorShapeE@plt>:
  402e10:	ff 25 7a b2 20 00    	jmpq   *0x20b27a(%rip)        # 60e090 <_GLOBAL_OFFSET_TABLE_+0x90>
  402e16:	68 0f 00 00 00       	pushq  $0xf
  402e1b:	e9 f0 fe ff ff       	jmpq   402d10 <_init+0x28>

0000000000402e20 <putchar@plt>:
  402e20:	ff 25 72 b2 20 00    	jmpq   *0x20b272(%rip)        # 60e098 <_GLOBAL_OFFSET_TABLE_+0x98>
  402e26:	68 10 00 00 00       	pushq  $0x10
  402e2b:	e9 e0 fe ff ff       	jmpq   402d10 <_init+0x28>

0000000000402e30 <_ZN10tensorflow6TensorC1Ev@plt>:
  402e30:	ff 25 6a b2 20 00    	jmpq   *0x20b26a(%rip)        # 60e0a0 <_GLOBAL_OFFSET_TABLE_+0xa0>
  402e36:	68 11 00 00 00       	pushq  $0x11
  402e3b:	e9 d0 fe ff ff       	jmpq   402d10 <_init+0x28>

0000000000402e40 <printf@plt>:
  402e40:	ff 25 62 b2 20 00    	jmpq   *0x20b262(%rip)        # 60e0a8 <_GLOBAL_OFFSET_TABLE_+0xa8>
  402e46:	68 12 00 00 00       	pushq  $0x12
  402e4b:	e9 c0 fe ff ff       	jmpq   402d10 <_init+0x28>

0000000000402e50 <_ZN10tensorflow6Tensor16CopyFromInternalERKS0_RKNS_11TensorShapeE@plt>:
  402e50:	ff 25 5a b2 20 00    	jmpq   *0x20b25a(%rip)        # 60e0b0 <_GLOBAL_OFFSET_TABLE_+0xb0>
  402e56:	68 13 00 00 00       	pushq  $0x13
  402e5b:	e9 b0 fe ff ff       	jmpq   402d10 <_init+0x28>

0000000000402e60 <_ZN10tensorflow14TensorShapeRep19DestructorOutOfLineEv@plt>:
  402e60:	ff 25 52 b2 20 00    	jmpq   *0x20b252(%rip)        # 60e0b8 <_GLOBAL_OFFSET_TABLE_+0xb8>
  402e66:	68 14 00 00 00       	pushq  $0x14
  402e6b:	e9 a0 fe ff ff       	jmpq   402d10 <_init+0x28>

0000000000402e70 <_ZStlsIcSt11char_traitsIcESaIcEERSt13basic_ostreamIT_T0_ES7_RKNSt7__cxx1112basic_stringIS4_S5_T1_EE@plt>:
  402e70:	ff 25 4a b2 20 00    	jmpq   *0x20b24a(%rip)        # 60e0c0 <_GLOBAL_OFFSET_TABLE_+0xc0>
  402e76:	68 15 00 00 00       	pushq  $0x15
  402e7b:	e9 90 fe ff ff       	jmpq   402d10 <_init+0x28>

0000000000402e80 <_ZNSolsEi@plt>:
  402e80:	ff 25 42 b2 20 00    	jmpq   *0x20b242(%rip)        # 60e0c8 <_GLOBAL_OFFSET_TABLE_+0xc8>
  402e86:	68 16 00 00 00       	pushq  $0x16
  402e8b:	e9 80 fe ff ff       	jmpq   402d10 <_init+0x28>

0000000000402e90 <__gxx_personality_v0@plt>:
  402e90:	ff 25 3a b2 20 00    	jmpq   *0x20b23a(%rip)        # 60e0d0 <_GLOBAL_OFFSET_TABLE_+0xd0>
  402e96:	68 17 00 00 00       	pushq  $0x17
  402e9b:	e9 70 fe ff ff       	jmpq   402d10 <_init+0x28>

0000000000402ea0 <_ZN10tensorflow5ScopeD1Ev@plt>:
  402ea0:	ff 25 32 b2 20 00    	jmpq   *0x20b232(%rip)        # 60e0d8 <_GLOBAL_OFFSET_TABLE_+0xd8>
  402ea6:	68 18 00 00 00       	pushq  $0x18
  402eab:	e9 60 fe ff ff       	jmpq   402d10 <_init+0x28>

0000000000402eb0 <_ZNSt7__cxx1112basic_stringIcSt11char_traitsIcESaIcEED1Ev@plt>:
  402eb0:	ff 25 2a b2 20 00    	jmpq   *0x20b22a(%rip)        # 60e0e0 <_GLOBAL_OFFSET_TABLE_+0xe0>
  402eb6:	68 19 00 00 00       	pushq  $0x19
  402ebb:	e9 50 fe ff ff       	jmpq   402d10 <_init+0x28>

0000000000402ec0 <getenv@plt>:
  402ec0:	ff 25 22 b2 20 00    	jmpq   *0x20b222(%rip)        # 60e0e8 <_GLOBAL_OFFSET_TABLE_+0xe8>
  402ec6:	68 1a 00 00 00       	pushq  $0x1a
  402ecb:	e9 40 fe ff ff       	jmpq   402d10 <_init+0x28>

0000000000402ed0 <_ZN10tensorflow14StatSummarizerD1Ev@plt>:
  402ed0:	ff 25 1a b2 20 00    	jmpq   *0x20b21a(%rip)        # 60e0f0 <_GLOBAL_OFFSET_TABLE_+0xf0>
  402ed6:	68 1b 00 00 00       	pushq  $0x1b
  402edb:	e9 30 fe ff ff       	jmpq   402d10 <_init+0x28>

0000000000402ee0 <_ZN10tensorflow8internal15LogMessageFatalD1Ev@plt>:
  402ee0:	ff 25 12 b2 20 00    	jmpq   *0x20b212(%rip)        # 60e0f8 <_GLOBAL_OFFSET_TABLE_+0xf8>
  402ee6:	68 1c 00 00 00       	pushq  $0x1c
  402eeb:	e9 20 fe ff ff       	jmpq   402d10 <_init+0x28>

0000000000402ef0 <__libc_start_main@plt>:
  402ef0:	ff 25 0a b2 20 00    	jmpq   *0x20b20a(%rip)        # 60e100 <_GLOBAL_OFFSET_TABLE_+0x100>
  402ef6:	68 1d 00 00 00       	pushq  $0x1d
  402efb:	e9 10 fe ff ff       	jmpq   402d10 <_init+0x28>

0000000000402f00 <puts@plt>:
  402f00:	ff 25 02 b2 20 00    	jmpq   *0x20b202(%rip)        # 60e108 <_GLOBAL_OFFSET_TABLE_+0x108>
  402f06:	68 1e 00 00 00       	pushq  $0x1e
  402f0b:	e9 00 fe ff ff       	jmpq   402d10 <_init+0x28>

0000000000402f10 <_ZN10tensorflow5Scope12NewRootScopeEv@plt>:
  402f10:	ff 25 fa b1 20 00    	jmpq   *0x20b1fa(%rip)        # 60e110 <_GLOBAL_OFFSET_TABLE_+0x110>
  402f16:	68 1f 00 00 00       	pushq  $0x1f
  402f1b:	e9 f0 fd ff ff       	jmpq   402d10 <_init+0x28>

0000000000402f20 <srand@plt>:
  402f20:	ff 25 f2 b1 20 00    	jmpq   *0x20b1f2(%rip)        # 60e118 <_GLOBAL_OFFSET_TABLE_+0x118>
  402f26:	68 20 00 00 00       	pushq  $0x20
  402f2b:	e9 e0 fd ff ff       	jmpq   402d10 <_init+0x28>

0000000000402f30 <xopenme_finish@plt>:
  402f30:	ff 25 ea b1 20 00    	jmpq   *0x20b1ea(%rip)        # 60e120 <_GLOBAL_OFFSET_TABLE_+0x120>
  402f36:	68 21 00 00 00       	pushq  $0x21
  402f3b:	e9 d0 fd ff ff       	jmpq   402d10 <_init+0x28>

0000000000402f40 <xopenme_dump_memory@plt>:
  402f40:	ff 25 e2 b1 20 00    	jmpq   *0x20b1e2(%rip)        # 60e128 <_GLOBAL_OFFSET_TABLE_+0x128>
  402f46:	68 22 00 00 00       	pushq  $0x22
  402f4b:	e9 c0 fd ff ff       	jmpq   402d10 <_init+0x28>

0000000000402f50 <_ZNKSt7__cxx1112basic_stringIcSt11char_traitsIcESaIcEE4findEPKcm@plt>:
  402f50:	ff 25 da b1 20 00    	jmpq   *0x20b1da(%rip)        # 60e130 <_GLOBAL_OFFSET_TABLE_+0x130>
  402f56:	68 23 00 00 00       	pushq  $0x23
  402f5b:	e9 b0 fd ff ff       	jmpq   402d10 <_init+0x28>

0000000000402f60 <xopenme_init@plt>:
  402f60:	ff 25 d2 b1 20 00    	jmpq   *0x20b1d2(%rip)        # 60e138 <_GLOBAL_OFFSET_TABLE_+0x138>
  402f66:	68 24 00 00 00       	pushq  $0x24
  402f6b:	e9 a0 fd ff ff       	jmpq   402d10 <_init+0x28>

0000000000402f70 <__cxa_begin_catch@plt>:
  402f70:	ff 25 ca b1 20 00    	jmpq   *0x20b1ca(%rip)        # 60e140 <_GLOBAL_OFFSET_TABLE_+0x140>
  402f76:	68 25 00 00 00       	pushq  $0x25
  402f7b:	e9 90 fd ff ff       	jmpq   402d10 <_init+0x28>

0000000000402f80 <memmove@plt>:
  402f80:	ff 25 c2 b1 20 00    	jmpq   *0x20b1c2(%rip)        # 60e148 <_GLOBAL_OFFSET_TABLE_+0x148>
  402f86:	68 26 00 00 00       	pushq  $0x26
  402f8b:	e9 80 fd ff ff       	jmpq   402d10 <_init+0x28>

0000000000402f90 <atoi@plt>:
  402f90:	ff 25 ba b1 20 00    	jmpq   *0x20b1ba(%rip)        # 60e150 <_GLOBAL_OFFSET_TABLE_+0x150>
  402f96:	68 27 00 00 00       	pushq  $0x27
  402f9b:	e9 70 fd ff ff       	jmpq   402d10 <_init+0x28>

0000000000402fa0 <_ZdaPv@plt>:
  402fa0:	ff 25 b2 b1 20 00    	jmpq   *0x20b1b2(%rip)        # 60e158 <_GLOBAL_OFFSET_TABLE_+0x158>
  402fa6:	68 28 00 00 00       	pushq  $0x28
  402fab:	e9 60 fd ff ff       	jmpq   402d10 <_init+0x28>

0000000000402fb0 <_ZNSolsEl@plt>:
  402fb0:	ff 25 aa b1 20 00    	jmpq   *0x20b1aa(%rip)        # 60e160 <_GLOBAL_OFFSET_TABLE_+0x160>
  402fb6:	68 29 00 00 00       	pushq  $0x29
  402fbb:	e9 50 fd ff ff       	jmpq   402d10 <_init+0x28>

0000000000402fc0 <strlen@plt>:
  402fc0:	ff 25 a2 b1 20 00    	jmpq   *0x20b1a2(%rip)        # 60e168 <_GLOBAL_OFFSET_TABLE_+0x168>
  402fc6:	68 2a 00 00 00       	pushq  $0x2a
  402fcb:	e9 40 fd ff ff       	jmpq   402d10 <_init+0x28>

0000000000402fd0 <xopenme_add_var_i@plt>:
  402fd0:	ff 25 9a b1 20 00    	jmpq   *0x20b19a(%rip)        # 60e170 <_GLOBAL_OFFSET_TABLE_+0x170>
  402fd6:	68 2b 00 00 00       	pushq  $0x2b
  402fdb:	e9 30 fd ff ff       	jmpq   402d10 <_init+0x28>

0000000000402fe0 <_ZN10tensorflow8internal21CheckOpMessageBuilderC1EPKc@plt>:
  402fe0:	ff 25 92 b1 20 00    	jmpq   *0x20b192(%rip)        # 60e178 <_GLOBAL_OFFSET_TABLE_+0x178>
  402fe6:	68 2c 00 00 00       	pushq  $0x2c
  402feb:	e9 20 fd ff ff       	jmpq   402d10 <_init+0x28>

0000000000402ff0 <_ZNSolsEx@plt>:
  402ff0:	ff 25 8a b1 20 00    	jmpq   *0x20b18a(%rip)        # 60e180 <_GLOBAL_OFFSET_TABLE_+0x180>
  402ff6:	68 2d 00 00 00       	pushq  $0x2d
  402ffb:	e9 10 fd ff ff       	jmpq   402d10 <_init+0x28>

0000000000403000 <_ZN10tensorflow8internal21CheckOpMessageBuilderD1Ev@plt>:
  403000:	ff 25 82 b1 20 00    	jmpq   *0x20b182(%rip)        # 60e188 <_GLOBAL_OFFSET_TABLE_+0x188>
  403006:	68 2e 00 00 00       	pushq  $0x2e
  40300b:	e9 00 fd ff ff       	jmpq   402d10 <_init+0x28>

0000000000403010 <_Unwind_Resume@plt>:
  403010:	ff 25 7a b1 20 00    	jmpq   *0x20b17a(%rip)        # 60e190 <_GLOBAL_OFFSET_TABLE_+0x190>
  403016:	68 2f 00 00 00       	pushq  $0x2f
  40301b:	e9 f0 fc ff ff       	jmpq   402d10 <_init+0x28>

0000000000403020 <_ZN10tensorflow8internal21CheckOpMessageBuilder9NewStringB5cxx11Ev@plt>:
  403020:	ff 25 72 b1 20 00    	jmpq   *0x20b172(%rip)        # 60e198 <_GLOBAL_OFFSET_TABLE_+0x198>
  403026:	68 30 00 00 00       	pushq  $0x30
  40302b:	e9 e0 fc ff ff       	jmpq   402d10 <_init+0x28>

0000000000403030 <_ZNK10tensorflow6Tensor21CheckTypeAndIsAlignedENS_8DataTypeE@plt>:
  403030:	ff 25 6a b1 20 00    	jmpq   *0x20b16a(%rip)        # 60e1a0 <_GLOBAL_OFFSET_TABLE_+0x1a0>
  403036:	68 31 00 00 00       	pushq  $0x31
  40303b:	e9 d0 fc ff ff       	jmpq   402d10 <_init+0x28>

0000000000403040 <_ZNSt7__cxx1112basic_stringIcSt11char_traitsIcESaIcEEC1EPKcRKS3_@plt>:
  403040:	ff 25 62 b1 20 00    	jmpq   *0x20b162(%rip)        # 60e1a8 <_GLOBAL_OFFSET_TABLE_+0x1a8>
  403046:	68 32 00 00 00       	pushq  $0x32
  40304b:	e9 c0 fc ff ff       	jmpq   402d10 <_init+0x28>

0000000000403050 <_ZN10tensorflow11RunMetadataC1Ev@plt>:
  403050:	ff 25 5a b1 20 00    	jmpq   *0x20b15a(%rip)        # 60e1b0 <_GLOBAL_OFFSET_TABLE_+0x1b0>
  403056:	68 33 00 00 00       	pushq  $0x33
  40305b:	e9 b0 fc ff ff       	jmpq   402d10 <_init+0x28>

0000000000403060 <_ZN10tensorflow14TensorShapeRep12SlowCopyFromERKS0_@plt>:
  403060:	ff 25 52 b1 20 00    	jmpq   *0x20b152(%rip)        # 60e1b8 <_GLOBAL_OFFSET_TABLE_+0x1b8>
  403066:	68 34 00 00 00       	pushq  $0x34
  40306b:	e9 a0 fc ff ff       	jmpq   402d10 <_init+0x28>

0000000000403070 <_ZNSolsEm@plt>:
  403070:	ff 25 4a b1 20 00    	jmpq   *0x20b14a(%rip)        # 60e1c0 <_GLOBAL_OFFSET_TABLE_+0x1c0>
  403076:	68 35 00 00 00       	pushq  $0x35
  40307b:	e9 90 fc ff ff       	jmpq   402d10 <_init+0x28>

0000000000403080 <random@plt>:
  403080:	ff 25 42 b1 20 00    	jmpq   *0x20b142(%rip)        # 60e1c8 <_GLOBAL_OFFSET_TABLE_+0x1c8>
  403086:	68 36 00 00 00       	pushq  $0x36
  40308b:	e9 80 fc ff ff       	jmpq   402d10 <_init+0x28>

0000000000403090 <xopenme_dump_state@plt>:
  403090:	ff 25 3a b1 20 00    	jmpq   *0x20b13a(%rip)        # 60e1d0 <_GLOBAL_OFFSET_TABLE_+0x1d0>
  403096:	68 37 00 00 00       	pushq  $0x37
  40309b:	e9 70 fc ff ff       	jmpq   402d10 <_init+0x28>

00000000004030a0 <_ZN10tensorflow9OperationC1EPNS_4NodeE@plt>:
  4030a0:	ff 25 32 b1 20 00    	jmpq   *0x20b132(%rip)        # 60e1d8 <_GLOBAL_OFFSET_TABLE_+0x1d8>
  4030a6:	68 38 00 00 00       	pushq  $0x38
  4030ab:	e9 60 fc ff ff       	jmpq   402d10 <_init+0x28>

00000000004030b0 <xopenme_add_var_f@plt>:
  4030b0:	ff 25 2a b1 20 00    	jmpq   *0x20b12a(%rip)        # 60e1e0 <_GLOBAL_OFFSET_TABLE_+0x1e0>
  4030b6:	68 39 00 00 00       	pushq  $0x39
  4030bb:	e9 50 fc ff ff       	jmpq   402d10 <_init+0x28>

00000000004030c0 <_ZSt17__throw_bad_allocv@plt>:
  4030c0:	ff 25 22 b1 20 00    	jmpq   *0x20b122(%rip)        # 60e1e8 <_GLOBAL_OFFSET_TABLE_+0x1e8>
  4030c6:	68 3a 00 00 00       	pushq  $0x3a
  4030cb:	e9 40 fc ff ff       	jmpq   402d10 <_init+0x28>

00000000004030d0 <memcpy@plt>:
  4030d0:	ff 25 1a b1 20 00    	jmpq   *0x20b11a(%rip)        # 60e1f0 <_GLOBAL_OFFSET_TABLE_+0x1f0>
  4030d6:	68 3b 00 00 00       	pushq  $0x3b
  4030db:	e9 30 fc ff ff       	jmpq   402d10 <_init+0x28>

00000000004030e0 <_ZN10tensorflow8internal21CheckOpMessageBuilder7ForVar2Ev@plt>:
  4030e0:	ff 25 12 b1 20 00    	jmpq   *0x20b112(%rip)        # 60e1f8 <_GLOBAL_OFFSET_TABLE_+0x1f8>
  4030e6:	68 3c 00 00 00       	pushq  $0x3c
  4030eb:	e9 20 fc ff ff       	jmpq   402d10 <_init+0x28>

00000000004030f0 <_ZN10tensorflow3ops14ResizeBilinearC1ERKNS_5ScopeENS_5InputES5_@plt>:
  4030f0:	ff 25 0a b1 20 00    	jmpq   *0x20b10a(%rip)        # 60e200 <_GLOBAL_OFFSET_TABLE_+0x200>
  4030f6:	68 3d 00 00 00       	pushq  $0x3d
  4030fb:	e9 10 fc ff ff       	jmpq   402d10 <_init+0x28>

0000000000403100 <_ZN10tensorflow13ClientSessionC1ERKNS_5ScopeE@plt>:
  403100:	ff 25 02 b1 20 00    	jmpq   *0x20b102(%rip)        # 60e208 <_GLOBAL_OFFSET_TABLE_+0x208>
  403106:	68 3e 00 00 00       	pushq  $0x3e
  40310b:	e9 00 fc ff ff       	jmpq   402d10 <_init+0x28>

0000000000403110 <_ZNK10tensorflow14StatSummarizer14PrintStepStatsEv@plt>:
  403110:	ff 25 fa b0 20 00    	jmpq   *0x20b0fa(%rip)        # 60e210 <_GLOBAL_OFFSET_TABLE_+0x210>
  403116:	68 3f 00 00 00       	pushq  $0x3f
  40311b:	e9 f0 fb ff ff       	jmpq   402d10 <_init+0x28>

0000000000403120 <_Znwm@plt>:
  403120:	ff 25 f2 b0 20 00    	jmpq   *0x20b0f2(%rip)        # 60e218 <_GLOBAL_OFFSET_TABLE_+0x218>
  403126:	68 40 00 00 00       	pushq  $0x40
  40312b:	e9 e0 fb ff ff       	jmpq   402d10 <_init+0x28>

0000000000403130 <_ZNK10tensorflow13ClientSession3RunERKNS_10RunOptionsERKSt13unordered_mapINS_6OutputENS_5Input11InitializerENS_10OutputHashESt8equal_toIS5_ESaISt4pairIKS5_S7_EEERKSt6vectorIS5_SaIS5_EERKSI_INS_9OperationESaISN_EEPSI_INS_6TensorESaISS_EEPNS_11RunMetadataE@plt>:
  403130:	ff 25 ea b0 20 00    	jmpq   *0x20b0ea(%rip)        # 60e220 <_GLOBAL_OFFSET_TABLE_+0x220>
  403136:	68 41 00 00 00       	pushq  $0x41
  40313b:	e9 d0 fb ff ff       	jmpq   402d10 <_init+0x28>

0000000000403140 <_ZN10tensorflow10RunOptionsC1Ev@plt>:
  403140:	ff 25 e2 b0 20 00    	jmpq   *0x20b0e2(%rip)        # 60e228 <_GLOBAL_OFFSET_TABLE_+0x228>
  403146:	68 42 00 00 00       	pushq  $0x42
  40314b:	e9 c0 fb ff ff       	jmpq   402d10 <_init+0x28>

0000000000403150 <_ZN10tensorflow13ClientSessionD1Ev@plt>:
  403150:	ff 25 da b0 20 00    	jmpq   *0x20b0da(%rip)        # 60e230 <_GLOBAL_OFFSET_TABLE_+0x230>
  403156:	68 43 00 00 00       	pushq  $0x43
  40315b:	e9 b0 fb ff ff       	jmpq   402d10 <_init+0x28>

0000000000403160 <_Znam@plt>:
  403160:	ff 25 d2 b0 20 00    	jmpq   *0x20b0d2(%rip)        # 60e238 <_GLOBAL_OFFSET_TABLE_+0x238>
  403166:	68 44 00 00 00       	pushq  $0x44
  40316b:	e9 a0 fb ff ff       	jmpq   402d10 <_init+0x28>

0000000000403170 <xopenme_get_timer@plt>:
  403170:	ff 25 ca b0 20 00    	jmpq   *0x20b0ca(%rip)        # 60e240 <_GLOBAL_OFFSET_TABLE_+0x240>
  403176:	68 45 00 00 00       	pushq  $0x45
  40317b:	e9 90 fb ff ff       	jmpq   402d10 <_init+0x28>

0000000000403180 <xopenme_clock_end@plt>:
  403180:	ff 25 c2 b0 20 00    	jmpq   *0x20b0c2(%rip)        # 60e248 <_GLOBAL_OFFSET_TABLE_+0x248>
  403186:	68 46 00 00 00       	pushq  $0x46
  40318b:	e9 80 fb ff ff       	jmpq   402d10 <_init+0x28>

0000000000403190 <_ZN10tensorflow14StatSummarizer16ProcessStepStatsERKNS_9StepStatsE@plt>:
  403190:	ff 25 ba b0 20 00    	jmpq   *0x20b0ba(%rip)        # 60e250 <_GLOBAL_OFFSET_TABLE_+0x250>
  403196:	68 47 00 00 00       	pushq  $0x47
  40319b:	e9 70 fb ff ff       	jmpq   402d10 <_init+0x28>

00000000004031a0 <_ZNSt8ios_base4InitD1Ev@plt>:
  4031a0:	ff 25 b2 b0 20 00    	jmpq   *0x20b0b2(%rip)        # 60e258 <_GLOBAL_OFFSET_TABLE_+0x258>
  4031a6:	68 48 00 00 00       	pushq  $0x48
  4031ab:	e9 60 fb ff ff       	jmpq   402d10 <_init+0x28>

00000000004031b0 <__cxa_end_catch@plt>:
  4031b0:	ff 25 aa b0 20 00    	jmpq   *0x20b0aa(%rip)        # 60e260 <_GLOBAL_OFFSET_TABLE_+0x260>
  4031b6:	68 49 00 00 00       	pushq  $0x49
  4031bb:	e9 50 fb ff ff       	jmpq   402d10 <_init+0x28>

00000000004031c0 <__cxa_throw_bad_array_new_length@plt>:
  4031c0:	ff 25 a2 b0 20 00    	jmpq   *0x20b0a2(%rip)        # 60e268 <_GLOBAL_OFFSET_TABLE_+0x268>
  4031c6:	68 4a 00 00 00       	pushq  $0x4a
  4031cb:	e9 40 fb ff ff       	jmpq   402d10 <_init+0x28>

00000000004031d0 <__cxa_rethrow@plt>:
  4031d0:	ff 25 9a b0 20 00    	jmpq   *0x20b09a(%rip)        # 60e270 <_GLOBAL_OFFSET_TABLE_+0x270>
  4031d6:	68 4b 00 00 00       	pushq  $0x4b
  4031db:	e9 30 fb ff ff       	jmpq   402d10 <_init+0x28>

00000000004031e0 <_ZN10tensorflow24TfCheckOpHelperOutOfLineB5cxx11ERKNS_6StatusEPKc@plt>:
  4031e0:	ff 25 92 b0 20 00    	jmpq   *0x20b092(%rip)        # 60e278 <_GLOBAL_OFFSET_TABLE_+0x278>
  4031e6:	68 4c 00 00 00       	pushq  $0x4c
  4031eb:	e9 20 fb ff ff       	jmpq   402d10 <_init+0x28>

00000000004031f0 <_ZNK10tensorflow5Scope10WithOpNameERKNSt7__cxx1112basic_stringIcSt11char_traitsIcESaIcEEE@plt>:
  4031f0:	ff 25 8a b0 20 00    	jmpq   *0x20b08a(%rip)        # 60e280 <_GLOBAL_OFFSET_TABLE_+0x280>
  4031f6:	68 4d 00 00 00       	pushq  $0x4d
  4031fb:	e9 10 fb ff ff       	jmpq   402d10 <_init+0x28>

0000000000403200 <rand@plt>:
  403200:	ff 25 82 b0 20 00    	jmpq   *0x20b082(%rip)        # 60e288 <_GLOBAL_OFFSET_TABLE_+0x288>
  403206:	68 4e 00 00 00       	pushq  $0x4e
  40320b:	e9 00 fb ff ff       	jmpq   402d10 <_init+0x28>

0000000000403210 <_ZNSt8ios_base4InitC1Ev@plt>:
  403210:	ff 25 7a b0 20 00    	jmpq   *0x20b07a(%rip)        # 60e290 <_GLOBAL_OFFSET_TABLE_+0x290>
  403216:	68 4f 00 00 00       	pushq  $0x4f
  40321b:	e9 f0 fa ff ff       	jmpq   402d10 <_init+0x28>

0000000000403220 <_ZN10tensorflow14StatSummarizerC1ERKNS_21StatSummarizerOptionsE@plt>:
  403220:	ff 25 72 b0 20 00    	jmpq   *0x20b072(%rip)        # 60e298 <_GLOBAL_OFFSET_TABLE_+0x298>
  403226:	68 50 00 00 00       	pushq  $0x50
  40322b:	e9 e0 fa ff ff       	jmpq   402d10 <_init+0x28>

0000000000403230 <_ZN10tensorflow3ops5ConstERKNS_5ScopeERKNS_5Input11InitializerE@plt>:
  403230:	ff 25 6a b0 20 00    	jmpq   *0x20b06a(%rip)        # 60e2a0 <_GLOBAL_OFFSET_TABLE_+0x2a0>
  403236:	68 51 00 00 00       	pushq  $0x51
  40323b:	e9 d0 fa ff ff       	jmpq   402d10 <_init+0x28>

0000000000403240 <_ZNSaIcED1Ev@plt>:
  403240:	ff 25 62 b0 20 00    	jmpq   *0x20b062(%rip)        # 60e2a8 <_GLOBAL_OFFSET_TABLE_+0x2a8>
  403246:	68 52 00 00 00       	pushq  $0x52
  40324b:	e9 c0 fa ff ff       	jmpq   402d10 <_init+0x28>

Disassembly of section .plt.got:

0000000000403250 <.plt.got>:
  403250:	ff 25 a2 ad 20 00    	jmpq   *0x20ada2(%rip)        # 60dff8 <_DYNAMIC+0x210>
  403256:	66 90                	xchg   %ax,%ax

Disassembly of section .text:

0000000000403260 <_start>:
  403260:	31 ed                	xor    %ebp,%ebp
  403262:	49 89 d1             	mov    %rdx,%r9
  403265:	5e                   	pop    %rsi
  403266:	48 89 e2             	mov    %rsp,%rdx
  403269:	48 83 e4 f0          	and    $0xfffffffffffffff0,%rsp
  40326d:	50                   	push   %rax
  40326e:	54                   	push   %rsp
  40326f:	49 c7 c0 c0 8d 40 00 	mov    $0x408dc0,%r8
  403276:	48 c7 c1 50 8d 40 00 	mov    $0x408d50,%rcx
  40327d:	48 c7 c7 36 37 40 00 	mov    $0x403736,%rdi
  403284:	e8 67 fc ff ff       	callq  402ef0 <__libc_start_main@plt>
  403289:	f4                   	hlt    
  40328a:	66 0f 1f 44 00 00    	nopw   0x0(%rax,%rax,1)

0000000000403290 <deregister_tm_clones>:
  403290:	b8 c7 e2 60 00       	mov    $0x60e2c7,%eax
  403295:	55                   	push   %rbp
  403296:	48 2d c0 e2 60 00    	sub    $0x60e2c0,%rax
  40329c:	48 83 f8 0e          	cmp    $0xe,%rax
  4032a0:	48 89 e5             	mov    %rsp,%rbp
  4032a3:	76 1b                	jbe    4032c0 <deregister_tm_clones+0x30>
  4032a5:	b8 00 00 00 00       	mov    $0x0,%eax
  4032aa:	48 85 c0             	test   %rax,%rax
  4032ad:	74 11                	je     4032c0 <deregister_tm_clones+0x30>
  4032af:	5d                   	pop    %rbp
  4032b0:	bf c0 e2 60 00       	mov    $0x60e2c0,%edi
  4032b5:	ff e0                	jmpq   *%rax
  4032b7:	66 0f 1f 84 00 00 00 	nopw   0x0(%rax,%rax,1)
  4032be:	00 00 
  4032c0:	5d                   	pop    %rbp
  4032c1:	c3                   	retq   
  4032c2:	0f 1f 40 00          	nopl   0x0(%rax)
  4032c6:	66 2e 0f 1f 84 00 00 	nopw   %cs:0x0(%rax,%rax,1)
  4032cd:	00 00 00 

00000000004032d0 <register_tm_clones>:
  4032d0:	be c0 e2 60 00       	mov    $0x60e2c0,%esi
  4032d5:	55                   	push   %rbp
  4032d6:	48 81 ee c0 e2 60 00 	sub    $0x60e2c0,%rsi
  4032dd:	48 c1 fe 03          	sar    $0x3,%rsi
  4032e1:	48 89 e5             	mov    %rsp,%rbp
  4032e4:	48 89 f0             	mov    %rsi,%rax
  4032e7:	48 c1 e8 3f          	shr    $0x3f,%rax
  4032eb:	48 01 c6             	add    %rax,%rsi
  4032ee:	48 d1 fe             	sar    %rsi
  4032f1:	74 15                	je     403308 <register_tm_clones+0x38>
  4032f3:	b8 00 00 00 00       	mov    $0x0,%eax
  4032f8:	48 85 c0             	test   %rax,%rax
  4032fb:	74 0b                	je     403308 <register_tm_clones+0x38>
  4032fd:	5d                   	pop    %rbp
  4032fe:	bf c0 e2 60 00       	mov    $0x60e2c0,%edi
  403303:	ff e0                	jmpq   *%rax
  403305:	0f 1f 00             	nopl   (%rax)
  403308:	5d                   	pop    %rbp
  403309:	c3                   	retq   
  40330a:	66 0f 1f 44 00 00    	nopw   0x0(%rax,%rax,1)

0000000000403310 <__do_global_dtors_aux>:
  403310:	80 3d 71 b0 20 00 00 	cmpb   $0x0,0x20b071(%rip)        # 60e388 <completed.7593>
  403317:	75 11                	jne    40332a <__do_global_dtors_aux+0x1a>
  403319:	55                   	push   %rbp
  40331a:	48 89 e5             	mov    %rsp,%rbp
  40331d:	e8 6e ff ff ff       	callq  403290 <deregister_tm_clones>
  403322:	5d                   	pop    %rbp
  403323:	c6 05 5e b0 20 00 01 	movb   $0x1,0x20b05e(%rip)        # 60e388 <completed.7593>
  40332a:	f3 c3                	repz retq 
  40332c:	0f 1f 40 00          	nopl   0x0(%rax)

0000000000403330 <frame_dummy>:
  403330:	bf e0 dd 60 00       	mov    $0x60dde0,%edi
  403335:	48 83 3f 00          	cmpq   $0x0,(%rdi)
  403339:	75 05                	jne    403340 <frame_dummy+0x10>
  40333b:	eb 93                	jmp    4032d0 <register_tm_clones>
  40333d:	0f 1f 00             	nopl   (%rax)
  403340:	b8 00 00 00 00       	mov    $0x0,%eax
  403345:	48 85 c0             	test   %rax,%rax
  403348:	74 f1                	je     40333b <frame_dummy+0xb>
  40334a:	55                   	push   %rbp
  40334b:	48 89 e5             	mov    %rsp,%rbp
  40334e:	ff d0                	callq  *%rax
  403350:	5d                   	pop    %rbp
  403351:	e9 7a ff ff ff       	jmpq   4032d0 <register_tm_clones>

0000000000403356 <_ZN5Eigen8internal12_GLOBAL__N_115get_random_seedEv>:
  403356:	55                   	push   %rbp
  403357:	48 89 e5             	mov    %rsp,%rbp
  40335a:	48 83 ec 30          	sub    $0x30,%rsp
  40335e:	64 48 8b 04 25 28 00 	mov    %fs:0x28,%rax
  403365:	00 00 
  403367:	48 89 45 f8          	mov    %rax,-0x8(%rbp)
  40336b:	31 c0                	xor    %eax,%eax
  40336d:	48 8d 45 e0          	lea    -0x20(%rbp),%rax
  403371:	48 89 c6             	mov    %rax,%rsi
  403374:	bf 00 00 00 00       	mov    $0x0,%edi
  403379:	e8 02 fa ff ff       	callq  402d80 <clock_gettime@plt>
  40337e:	e8 fd fc ff ff       	callq  403080 <random@plt>
  403383:	48 89 c2             	mov    %rax,%rdx
  403386:	48 8b 45 e8          	mov    -0x18(%rbp),%rax
  40338a:	48 31 d0             	xor    %rdx,%rax
  40338d:	48 89 45 d8          	mov    %rax,-0x28(%rbp)
  403391:	48 8b 45 d8          	mov    -0x28(%rbp),%rax
  403395:	48 8b 4d f8          	mov    -0x8(%rbp),%rcx
  403399:	64 48 33 0c 25 28 00 	xor    %fs:0x28,%rcx
  4033a0:	00 00 
  4033a2:	74 05                	je     4033a9 <_ZN5Eigen8internal12_GLOBAL__N_115get_random_seedEv+0x53>
  4033a4:	e8 b7 f9 ff ff       	callq  402d60 <__stack_chk_fail@plt>
  4033a9:	c9                   	leaveq 
  4033aa:	c3                   	retq   

00000000004033ab <_ZN2CK16store_setup_timeEf>:
  4033ab:	55                   	push   %rbp
  4033ac:	48 89 e5             	mov    %rsp,%rbp
  4033af:	48 83 ec 10          	sub    $0x10,%rsp
  4033b3:	f3 0f 11 45 fc       	movss  %xmm0,-0x4(%rbp)
  4033b8:	8b 45 fc             	mov    -0x4(%rbp),%eax
  4033bb:	89 45 f8             	mov    %eax,-0x8(%rbp)
  4033be:	f3 0f 10 45 f8       	movss  -0x8(%rbp),%xmm0
  4033c3:	be 68 91 40 00       	mov    $0x409168,%esi
  4033c8:	bf 0a 00 00 00       	mov    $0xa,%edi
  4033cd:	e8 22 1b 00 00       	callq  404ef4 <_ZN2CK13store_value_fEiPKcf>
  4033d2:	90                   	nop
  4033d3:	c9                   	leaveq 
  4033d4:	c3                   	retq   

00000000004033d5 <_ZN2CK15store_test_timeEf>:
  4033d5:	55                   	push   %rbp
  4033d6:	48 89 e5             	mov    %rsp,%rbp
  4033d9:	48 83 ec 10          	sub    $0x10,%rsp
  4033dd:	f3 0f 11 45 fc       	movss  %xmm0,-0x4(%rbp)
  4033e2:	8b 45 fc             	mov    -0x4(%rbp),%eax
  4033e5:	89 45 f8             	mov    %eax,-0x8(%rbp)
  4033e8:	f3 0f 10 45 f8       	movss  -0x8(%rbp),%xmm0
  4033ed:	be 73 91 40 00       	mov    $0x409173,%esi
  4033f2:	bf 0b 00 00 00       	mov    $0xb,%edi
  4033f7:	e8 f8 1a 00 00       	callq  404ef4 <_ZN2CK13store_value_fEiPKcf>
  4033fc:	90                   	nop
  4033fd:	c9                   	leaveq 
  4033fe:	c3                   	retq   
  4033ff:	90                   	nop

0000000000403400 <_ZZ4mainENKUlvE_clEv>:
  403400:	55                   	push   %rbp
  403401:	48 89 e5             	mov    %rsp,%rbp
  403404:	41 56                	push   %r14
  403406:	41 55                	push   %r13
  403408:	41 54                	push   %r12
  40340a:	53                   	push   %rbx
  40340b:	48 81 ec 70 02 00 00 	sub    $0x270,%rsp
  403412:	48 89 bd 78 fd ff ff 	mov    %rdi,-0x288(%rbp)
  403419:	64 48 8b 04 25 28 00 	mov    %fs:0x28,%rax
  403420:	00 00 
  403422:	48 89 45 d8          	mov    %rax,-0x28(%rbp)
  403426:	31 c0                	xor    %eax,%eax
  403428:	48 8b 85 78 fd ff ff 	mov    -0x288(%rbp),%rax
  40342f:	48 8b 10             	mov    (%rax),%rdx
  403432:	48 8d 85 88 fd ff ff 	lea    -0x278(%rbp),%rax
  403439:	48 89 d6             	mov    %rdx,%rsi
  40343c:	48 89 c7             	mov    %rax,%rdi
  40343f:	e8 bc fc ff ff       	callq  403100 <_ZN10tensorflow13ClientSessionC1ERKNS_5ScopeE@plt>
  403444:	48 8b 85 78 fd ff ff 	mov    -0x288(%rbp),%rax
  40344b:	4c 8b 70 20          	mov    0x20(%rax),%r14
  40344f:	48 8b 85 78 fd ff ff 	mov    -0x288(%rbp),%rax
  403456:	48 8b 58 18          	mov    0x18(%rax),%rbx
  40345a:	48 8d 85 c0 fd ff ff 	lea    -0x240(%rbp),%rax
  403461:	48 89 c7             	mov    %rax,%rdi
  403464:	e8 8d 2f 00 00       	callq  4063f6 <_ZNSt6vectorIN10tensorflow9OperationESaIS1_EEC1Ev>
  403469:	48 8b 85 78 fd ff ff 	mov    -0x288(%rbp),%rax
  403470:	48 8b 50 10          	mov    0x10(%rax),%rdx
  403474:	48 8d 85 20 fe ff ff 	lea    -0x1e0(%rbp),%rax
  40347b:	48 89 d6             	mov    %rdx,%rsi
  40347e:	48 89 c7             	mov    %rax,%rdi
  403481:	e8 c2 17 00 00       	callq  404c48 <_ZNK10tensorflow3ops14ResizeBilinearcvNS_6OutputEEv>
  403486:	48 8d 85 20 fe ff ff 	lea    -0x1e0(%rbp),%rax
  40348d:	49 89 c4             	mov    %rax,%r12
  403490:	41 bd 01 00 00 00    	mov    $0x1,%r13d
  403496:	48 8d 85 87 fd ff ff 	lea    -0x279(%rbp),%rax
  40349d:	48 89 c7             	mov    %rax,%rdi
  4034a0:	e8 1b 2e 00 00       	callq  4062c0 <_ZNSaIN10tensorflow6OutputEEC1Ev>
  4034a5:	48 8d 95 87 fd ff ff 	lea    -0x279(%rbp),%rdx
  4034ac:	4d 89 e0             	mov    %r12,%r8
  4034af:	4d 89 e9             	mov    %r13,%r9
  4034b2:	4c 89 e6             	mov    %r12,%rsi
  4034b5:	4c 89 ef             	mov    %r13,%rdi
  4034b8:	48 8d 85 a0 fd ff ff 	lea    -0x260(%rbp),%rax
  4034bf:	48 89 d1             	mov    %rdx,%rcx
  4034c2:	4c 89 c6             	mov    %r8,%rsi
  4034c5:	48 89 fa             	mov    %rdi,%rdx
  4034c8:	48 89 c7             	mov    %rax,%rdi
  4034cb:	e8 28 2e 00 00       	callq  4062f8 <_ZNSt6vectorIN10tensorflow6OutputESaIS1_EEC1ESt16initializer_listIS1_ERKS2_>
  4034d0:	48 8d 95 e0 fd ff ff 	lea    -0x220(%rbp),%rdx
  4034d7:	b8 00 00 00 00       	mov    $0x0,%eax
  4034dc:	b9 07 00 00 00       	mov    $0x7,%ecx
  4034e1:	48 89 d7             	mov    %rdx,%rdi
  4034e4:	f3 48 ab             	rep stos %rax,%es:(%rdi)
  4034e7:	48 8d 85 e0 fd ff ff 	lea    -0x220(%rbp),%rax
  4034ee:	48 89 c7             	mov    %rax,%rdi
  4034f1:	e8 d6 21 00 00       	callq  4056cc <_ZNSt13unordered_mapIN10tensorflow6OutputENS0_5Input11InitializerENS0_10OutputHashESt8equal_toIS1_ESaISt4pairIKS1_S3_EEEC1Ev>
  4034f6:	48 8b 85 78 fd ff ff 	mov    -0x288(%rbp),%rax
  4034fd:	48 8b 50 08          	mov    0x8(%rax),%rdx
  403501:	48 8d 85 90 fd ff ff 	lea    -0x270(%rbp),%rax
  403508:	4c 8d 85 c0 fd ff ff 	lea    -0x240(%rbp),%r8
  40350f:	48 8d bd a0 fd ff ff 	lea    -0x260(%rbp),%rdi
  403516:	48 8d 8d e0 fd ff ff 	lea    -0x220(%rbp),%rcx
  40351d:	48 8d b5 88 fd ff ff 	lea    -0x278(%rbp),%rsi
  403524:	41 56                	push   %r14
  403526:	53                   	push   %rbx
  403527:	4d 89 c1             	mov    %r8,%r9
  40352a:	49 89 f8             	mov    %rdi,%r8
  40352d:	48 89 c7             	mov    %rax,%rdi
  403530:	e8 fb fb ff ff       	callq  403130 <_ZNK10tensorflow13ClientSession3RunERKNS_10RunOptionsERKSt13unordered_mapINS_6OutputENS_5Input11InitializerENS_10OutputHashESt8equal_toIS5_ESaISt4pairIKS5_S7_EEERKSt6vectorIS5_SaIS5_EERKSI_INS_9OperationESaISN_EEPSI_INS_6TensorESaISS_EEPNS_11RunMetadataE@plt>
  403535:	48 83 c4 10          	add    $0x10,%rsp
  403539:	48 8d 85 e0 fd ff ff 	lea    -0x220(%rbp),%rax
  403540:	48 89 c7             	mov    %rax,%rdi
  403543:	e8 a0 21 00 00       	callq  4056e8 <_ZNSt13unordered_mapIN10tensorflow6OutputENS0_5Input11InitializerENS0_10OutputHashESt8equal_toIS1_ESaISt4pairIKS1_S3_EEED1Ev>
  403548:	48 8d 85 a0 fd ff ff 	lea    -0x260(%rbp),%rax
  40354f:	48 89 c7             	mov    %rax,%rdi
  403552:	e8 5b 2e 00 00       	callq  4063b2 <_ZNSt6vectorIN10tensorflow6OutputESaIS1_EED1Ev>
  403557:	48 8d 85 87 fd ff ff 	lea    -0x279(%rbp),%rax
  40355e:	48 89 c7             	mov    %rax,%rdi
  403561:	e8 76 2d 00 00       	callq  4062dc <_ZNSaIN10tensorflow6OutputEED1Ev>
  403566:	48 8d 9d 20 fe ff ff 	lea    -0x1e0(%rbp),%rbx
  40356d:	48 83 c3 28          	add    $0x28,%rbx
  403571:	48 8d 85 20 fe ff ff 	lea    -0x1e0(%rbp),%rax
  403578:	48 39 c3             	cmp    %rax,%rbx
  40357b:	74 0e                	je     40358b <_ZZ4mainENKUlvE_clEv+0x18b>
  40357d:	48 83 eb 28          	sub    $0x28,%rbx
  403581:	48 89 df             	mov    %rbx,%rdi
  403584:	e8 3d 13 00 00       	callq  4048c6 <_ZN10tensorflow6OutputD1Ev>
  403589:	eb e6                	jmp    403571 <_ZZ4mainENKUlvE_clEv+0x171>
  40358b:	48 8d 85 c0 fd ff ff 	lea    -0x240(%rbp),%rax
  403592:	48 89 c7             	mov    %rax,%rdi
  403595:	e8 78 2e 00 00       	callq  406412 <_ZNSt6vectorIN10tensorflow9OperationESaIS1_EED1Ev>
  40359a:	48 8d 95 90 fd ff ff 	lea    -0x270(%rbp),%rdx
  4035a1:	48 8d 85 e0 fd ff ff 	lea    -0x220(%rbp),%rax
  4035a8:	48 89 d6             	mov    %rdx,%rsi
  4035ab:	48 89 c7             	mov    %rax,%rdi
  4035ae:	e8 35 0c 00 00       	callq  4041e8 <_ZN10tensorflow6StatusC1ERKS0_>
  4035b3:	48 8d 85 e0 fd ff ff 	lea    -0x220(%rbp),%rax
  4035ba:	be 3c 92 40 00       	mov    $0x40923c,%esi
  4035bf:	48 89 c7             	mov    %rax,%rdi
  4035c2:	e8 aa 0c 00 00       	callq  404271 <_ZN10tensorflow15TfCheckOpHelperB5cxx11ENS_6StatusEPKc>
  4035c7:	48 89 85 98 fd ff ff 	mov    %rax,-0x268(%rbp)
  4035ce:	48 8d 85 e0 fd ff ff 	lea    -0x220(%rbp),%rax
  4035d5:	48 89 c7             	mov    %rax,%rdi
  4035d8:	e8 77 0b 00 00       	callq  404154 <_ZN10tensorflow6StatusD1Ev>
  4035dd:	48 83 bd 98 fd ff ff 	cmpq   $0x0,-0x268(%rbp)
  4035e4:	00 
  4035e5:	74 41                	je     403628 <_ZZ4mainENKUlvE_clEv+0x228>
  4035e7:	48 8d 85 50 fe ff ff 	lea    -0x1b0(%rbp),%rax
  4035ee:	ba 39 00 00 00       	mov    $0x39,%edx
  4035f3:	be 43 92 40 00       	mov    $0x409243,%esi
  4035f8:	48 89 c7             	mov    %rax,%rdi
  4035fb:	e8 40 f7 ff ff       	callq  402d40 <_ZN10tensorflow8internal15LogMessageFatalC1EPKci@plt>
  403600:	48 8b 95 98 fd ff ff 	mov    -0x268(%rbp),%rdx
  403607:	48 8d 85 50 fe ff ff 	lea    -0x1b0(%rbp),%rax
  40360e:	48 89 d6             	mov    %rdx,%rsi
  403611:	48 89 c7             	mov    %rax,%rdi
  403614:	e8 a2 23 00 00       	callq  4059bb <_ZStlsIcSt11char_traitsIcENSt7__cxx1112basic_stringIcS1_SaIcEEEERSt13basic_ostreamIT_T0_EOS9_RKT1_>
  403619:	48 8d 85 50 fe ff ff 	lea    -0x1b0(%rbp),%rax
  403620:	48 89 c7             	mov    %rax,%rdi
  403623:	e8 b8 f8 ff ff       	callq  402ee0 <_ZN10tensorflow8internal15LogMessageFatalD1Ev@plt>
  403628:	48 8d 85 90 fd ff ff 	lea    -0x270(%rbp),%rax
  40362f:	48 89 c7             	mov    %rax,%rdi
  403632:	e8 1d 0b 00 00       	callq  404154 <_ZN10tensorflow6StatusD1Ev>
  403637:	48 8d 85 88 fd ff ff 	lea    -0x278(%rbp),%rax
  40363e:	48 89 c7             	mov    %rax,%rdi
  403641:	e8 0a fb ff ff       	callq  403150 <_ZN10tensorflow13ClientSessionD1Ev@plt>
  403646:	90                   	nop
  403647:	48 8b 45 d8          	mov    -0x28(%rbp),%rax
  40364b:	64 48 33 04 25 28 00 	xor    %fs:0x28,%rax
  403652:	00 00 
  403654:	0f 84 cf 00 00 00    	je     403729 <_ZZ4mainENKUlvE_clEv+0x329>
  40365a:	e9 c5 00 00 00       	jmpq   403724 <_ZZ4mainENKUlvE_clEv+0x324>
  40365f:	48 89 c3             	mov    %rax,%rbx
  403662:	48 8d 85 e0 fd ff ff 	lea    -0x220(%rbp),%rax
  403669:	48 89 c7             	mov    %rax,%rdi
  40366c:	e8 77 20 00 00       	callq  4056e8 <_ZNSt13unordered_mapIN10tensorflow6OutputENS0_5Input11InitializerENS0_10OutputHashESt8equal_toIS1_ESaISt4pairIKS1_S3_EEED1Ev>
  403671:	48 8d 85 a0 fd ff ff 	lea    -0x260(%rbp),%rax
  403678:	48 89 c7             	mov    %rax,%rdi
  40367b:	e8 32 2d 00 00       	callq  4063b2 <_ZNSt6vectorIN10tensorflow6OutputESaIS1_EED1Ev>
  403680:	eb 03                	jmp    403685 <_ZZ4mainENKUlvE_clEv+0x285>
  403682:	48 89 c3             	mov    %rax,%rbx
  403685:	48 8d 85 87 fd ff ff 	lea    -0x279(%rbp),%rax
  40368c:	48 89 c7             	mov    %rax,%rdi
  40368f:	e8 48 2c 00 00       	callq  4062dc <_ZNSaIN10tensorflow6OutputEED1Ev>
  403694:	49 89 dc             	mov    %rbx,%r12
  403697:	48 8d 9d 20 fe ff ff 	lea    -0x1e0(%rbp),%rbx
  40369e:	48 83 c3 28          	add    $0x28,%rbx
  4036a2:	48 8d 85 20 fe ff ff 	lea    -0x1e0(%rbp),%rax
  4036a9:	48 39 c3             	cmp    %rax,%rbx
  4036ac:	74 0e                	je     4036bc <_ZZ4mainENKUlvE_clEv+0x2bc>
  4036ae:	48 83 eb 28          	sub    $0x28,%rbx
  4036b2:	48 89 df             	mov    %rbx,%rdi
  4036b5:	e8 0c 12 00 00       	callq  4048c6 <_ZN10tensorflow6OutputD1Ev>
  4036ba:	eb e6                	jmp    4036a2 <_ZZ4mainENKUlvE_clEv+0x2a2>
  4036bc:	4c 89 e3             	mov    %r12,%rbx
  4036bf:	eb 03                	jmp    4036c4 <_ZZ4mainENKUlvE_clEv+0x2c4>
  4036c1:	48 89 c3             	mov    %rax,%rbx
  4036c4:	48 8d 85 c0 fd ff ff 	lea    -0x240(%rbp),%rax
  4036cb:	48 89 c7             	mov    %rax,%rdi
  4036ce:	e8 3f 2d 00 00       	callq  406412 <_ZNSt6vectorIN10tensorflow9OperationESaIS1_EED1Ev>
  4036d3:	eb 35                	jmp    40370a <_ZZ4mainENKUlvE_clEv+0x30a>
  4036d5:	48 89 c3             	mov    %rax,%rbx
  4036d8:	48 8d 85 e0 fd ff ff 	lea    -0x220(%rbp),%rax
  4036df:	48 89 c7             	mov    %rax,%rdi
  4036e2:	e8 6d 0a 00 00       	callq  404154 <_ZN10tensorflow6StatusD1Ev>
  4036e7:	eb 12                	jmp    4036fb <_ZZ4mainENKUlvE_clEv+0x2fb>
  4036e9:	48 8d 85 50 fe ff ff 	lea    -0x1b0(%rbp),%rax
  4036f0:	48 89 c7             	mov    %rax,%rdi
  4036f3:	e8 e8 f7 ff ff       	callq  402ee0 <_ZN10tensorflow8internal15LogMessageFatalD1Ev@plt>
  4036f8:	48 89 c3             	mov    %rax,%rbx
  4036fb:	48 8d 85 90 fd ff ff 	lea    -0x270(%rbp),%rax
  403702:	48 89 c7             	mov    %rax,%rdi
  403705:	e8 4a 0a 00 00       	callq  404154 <_ZN10tensorflow6StatusD1Ev>
  40370a:	48 8d 85 88 fd ff ff 	lea    -0x278(%rbp),%rax
  403711:	48 89 c7             	mov    %rax,%rdi
  403714:	e8 37 fa ff ff       	callq  403150 <_ZN10tensorflow13ClientSessionD1Ev@plt>
  403719:	48 89 d8             	mov    %rbx,%rax
  40371c:	48 89 c7             	mov    %rax,%rdi
  40371f:	e8 ec f8 ff ff       	callq  403010 <_Unwind_Resume@plt>
  403724:	e8 37 f6 ff ff       	callq  402d60 <__stack_chk_fail@plt>
  403729:	48 8d 65 e0          	lea    -0x20(%rbp),%rsp
  40372d:	5b                   	pop    %rbx
  40372e:	41 5c                	pop    %r12
  403730:	41 5d                	pop    %r13
  403732:	41 5e                	pop    %r14
  403734:	5d                   	pop    %rbp
  403735:	c3                   	retq   

0000000000403736 <main>:
  403736:	55                   	push   %rbp
  403737:	48 89 e5             	mov    %rsp,%rbp
  40373a:	41 55                	push   %r13
  40373c:	41 54                	push   %r12
  40373e:	53                   	push   %rbx
  40373f:	48 81 ec f8 02 00 00 	sub    $0x2f8,%rsp
  403746:	64 48 8b 04 25 28 00 	mov    %fs:0x28,%rax
  40374d:	00 00 
  40374f:	48 89 45 d8          	mov    %rax,-0x28(%rbp)
  403753:	31 c0                	xor    %eax,%eax
  403755:	e8 2b 19 00 00       	callq  405085 <_ZN2CK9init_testEv>
  40375a:	48 8d 85 f8 fc ff ff 	lea    -0x308(%rbp),%rax
  403761:	48 89 c7             	mov    %rax,%rdi
  403764:	e8 a7 f7 ff ff       	callq  402f10 <_ZN10tensorflow5Scope12NewRootScopeEv@plt>
  403769:	b9 01 00 00 00       	mov    $0x1,%ecx
  40376e:	ba 01 00 00 00       	mov    $0x1,%edx
  403773:	be 03 00 00 00       	mov    $0x3,%esi
  403778:	bf 01 00 00 00       	mov    $0x1,%edi
  40377d:	e8 ee 17 00 00       	callq  404f70 <_ZN2CK24get_input_shape_from_envEiiii>
  403782:	48 89 85 20 fd ff ff 	mov    %rax,-0x2e0(%rbp)
  403789:	48 89 95 28 fd ff ff 	mov    %rdx,-0x2d8(%rbp)
  403790:	8b 85 20 fd ff ff    	mov    -0x2e0(%rbp),%eax
  403796:	48 98                	cltq   
  403798:	48 89 85 60 ff ff ff 	mov    %rax,-0xa0(%rbp)
  40379f:	8b 85 28 fd ff ff    	mov    -0x2d8(%rbp),%eax
  4037a5:	48 98                	cltq   
  4037a7:	48 89 85 68 ff ff ff 	mov    %rax,-0x98(%rbp)
  4037ae:	8b 85 2c fd ff ff    	mov    -0x2d4(%rbp),%eax
  4037b4:	48 98                	cltq   
  4037b6:	48 89 85 70 ff ff ff 	mov    %rax,-0x90(%rbp)
  4037bd:	8b 85 24 fd ff ff    	mov    -0x2dc(%rbp),%eax
  4037c3:	48 98                	cltq   
  4037c5:	48 89 85 78 ff ff ff 	mov    %rax,-0x88(%rbp)
  4037cc:	48 8d 85 60 ff ff ff 	lea    -0xa0(%rbp),%rax
  4037d3:	49 89 c4             	mov    %rax,%r12
  4037d6:	41 bd 04 00 00 00    	mov    $0x4,%r13d
  4037dc:	4c 89 e1             	mov    %r12,%rcx
  4037df:	4c 89 eb             	mov    %r13,%rbx
  4037e2:	4c 89 e0             	mov    %r12,%rax
  4037e5:	4c 89 ea             	mov    %r13,%rdx
  4037e8:	48 8d 85 50 fe ff ff 	lea    -0x1b0(%rbp),%rax
  4037ef:	48 89 ce             	mov    %rcx,%rsi
  4037f2:	48 89 c7             	mov    %rax,%rdi
  4037f5:	e8 44 1b 00 00       	callq  40533e <_ZN10tensorflow11TensorShapeC1ESt16initializer_listIxE>
  4037fa:	48 8d 95 50 fe ff ff 	lea    -0x1b0(%rbp),%rdx
  403801:	48 8d 85 70 fe ff ff 	lea    -0x190(%rbp),%rax
  403808:	be 01 00 00 00       	mov    $0x1,%esi
  40380d:	48 89 c7             	mov    %rax,%rdi
  403810:	e8 fb f5 ff ff       	callq  402e10 <_ZN10tensorflow6TensorC1ENS_8DataTypeERKNS_11TensorShapeE@plt>
  403815:	48 8d 85 50 fe ff ff 	lea    -0x1b0(%rbp),%rax
  40381c:	48 89 c7             	mov    %rax,%rdi
  40381f:	e8 80 0f 00 00       	callq  4047a4 <_ZN10tensorflow11TensorShapeD1Ev>
  403824:	48 8d 85 20 fd ff ff 	lea    -0x2e0(%rbp),%rax
  40382b:	48 89 c7             	mov    %rax,%rdi
  40382e:	e8 6d 26 00 00       	callq  405ea0 <_ZN2CK19get_random_raw_dataIfEEPT_RKNS_5ShapeE>
  403833:	48 89 85 08 fd ff ff 	mov    %rax,-0x2f8(%rbp)
  40383a:	48 8d 95 20 fd ff ff 	lea    -0x2e0(%rbp),%rdx
  403841:	48 8b 85 08 fd ff ff 	mov    -0x2f8(%rbp),%rax
  403848:	48 89 d6             	mov    %rdx,%rsi
  40384b:	48 89 c7             	mov    %rax,%rdi
  40384e:	e8 34 27 00 00       	callq  405f87 <_ZN2CK20print_input_raw_dataIfEEvPT_RKNS_5ShapeE>
  403853:	48 8d 85 20 fd ff ff 	lea    -0x2e0(%rbp),%rax
  40385a:	48 89 c7             	mov    %rax,%rdi
  40385d:	e8 3a 15 00 00       	callq  404d9c <_ZNK2CK5Shape10data_countEv>
  403862:	48 98                	cltq   
  403864:	48 8d 1c 85 00 00 00 	lea    0x0(,%rax,4),%rbx
  40386b:	00 
  40386c:	48 8d 85 70 fe ff ff 	lea    -0x190(%rbp),%rax
  403873:	48 89 c7             	mov    %rax,%rdi
  403876:	e8 39 27 00 00       	callq  405fb4 <_ZN10tensorflow6Tensor4flatIfEENS_6TTypesIT_Li1ElE4FlatEv>
  40387b:	48 89 85 30 fe ff ff 	mov    %rax,-0x1d0(%rbp)
  403882:	48 89 95 38 fe ff ff 	mov    %rdx,-0x1c8(%rbp)
  403889:	48 8d 85 30 fe ff ff 	lea    -0x1d0(%rbp),%rax
  403890:	48 89 c7             	mov    %rax,%rdi
  403893:	e8 aa 27 00 00       	callq  406042 <_ZN5Eigen9TensorMapINS_6TensorIfLi1ELi1ElEELi16ENS_11MakePointerEE4dataEv>
  403898:	48 89 c1             	mov    %rax,%rcx
  40389b:	48 8b 85 08 fd ff ff 	mov    -0x2f8(%rbp),%rax
  4038a2:	48 89 da             	mov    %rbx,%rdx
  4038a5:	48 89 c6             	mov    %rax,%rsi
  4038a8:	48 89 cf             	mov    %rcx,%rdi
  4038ab:	e8 20 f8 ff ff       	callq  4030d0 <memcpy@plt>
  4038b0:	48 83 bd 08 fd ff ff 	cmpq   $0x0,-0x2f8(%rbp)
  4038b7:	00 
  4038b8:	74 0f                	je     4038c9 <main+0x193>
  4038ba:	48 8b 85 08 fd ff ff 	mov    -0x2f8(%rbp),%rax
  4038c1:	48 89 c7             	mov    %rax,%rdi
  4038c4:	e8 d7 f6 ff ff       	callq  402fa0 <_ZdaPv@plt>
  4038c9:	c7 85 30 fd ff ff 01 	movl   $0x1,-0x2d0(%rbp)
  4038d0:	00 00 00 
  4038d3:	c7 85 34 fd ff ff 01 	movl   $0x1,-0x2cc(%rbp)
  4038da:	00 00 00 
  4038dd:	c7 85 38 fd ff ff 01 	movl   $0x1,-0x2c8(%rbp)
  4038e4:	00 00 00 
  4038e7:	c7 85 3c fd ff ff 01 	movl   $0x1,-0x2c4(%rbp)
  4038ee:	00 00 00 
  4038f1:	8b 85 20 fd ff ff    	mov    -0x2e0(%rbp),%eax
  4038f7:	89 85 30 fd ff ff    	mov    %eax,-0x2d0(%rbp)
  4038fd:	be 01 00 00 00       	mov    $0x1,%esi
  403902:	bf 59 92 40 00       	mov    $0x409259,%edi
  403907:	e8 3b 15 00 00       	callq  404e47 <_ZN2CK8getenv_iEPKci>
  40390c:	89 85 38 fd ff ff    	mov    %eax,-0x2c8(%rbp)
  403912:	be 01 00 00 00       	mov    $0x1,%esi
  403917:	bf 68 92 40 00       	mov    $0x409268,%edi
  40391c:	e8 26 15 00 00       	callq  404e47 <_ZN2CK8getenv_iEPKci>
  403921:	89 85 3c fd ff ff    	mov    %eax,-0x2c4(%rbp)
  403927:	be 01 00 00 00       	mov    $0x1,%esi
  40392c:	bf 77 92 40 00       	mov    $0x409277,%edi
  403931:	e8 11 15 00 00       	callq  404e47 <_ZN2CK8getenv_iEPKci>
  403936:	89 85 34 fd ff ff    	mov    %eax,-0x2cc(%rbp)
  40393c:	8b 85 38 fd ff ff    	mov    -0x2c8(%rbp),%eax
  403942:	89 85 f0 fc ff ff    	mov    %eax,-0x310(%rbp)
  403948:	8b 85 3c fd ff ff    	mov    -0x2c4(%rbp),%eax
  40394e:	89 85 f4 fc ff ff    	mov    %eax,-0x30c(%rbp)
  403954:	48 8d 85 40 fd ff ff 	lea    -0x2c0(%rbp),%rax
  40395b:	48 89 c7             	mov    %rax,%rdi
  40395e:	e8 f1 26 00 00       	callq  406054 <_ZNSt6vectorIN10tensorflow6TensorESaIS1_EEC1Ev>
  403963:	48 c7 85 10 fd ff ff 	movq   $0x409286,-0x2f0(%rbp)
  40396a:	86 92 40 00 
  40396e:	8b 85 f0 fc ff ff    	mov    -0x310(%rbp),%eax
  403974:	89 85 50 fe ff ff    	mov    %eax,-0x1b0(%rbp)
  40397a:	8b 85 f4 fc ff ff    	mov    -0x30c(%rbp),%eax
  403980:	89 85 54 fe ff ff    	mov    %eax,-0x1ac(%rbp)
  403986:	48 8d 85 50 fe ff ff 	lea    -0x1b0(%rbp),%rax
  40398d:	48 89 85 f0 fd ff ff 	mov    %rax,-0x210(%rbp)
  403994:	48 c7 85 f8 fd ff ff 	movq   $0x2,-0x208(%rbp)
  40399b:	02 00 00 00 
  40399f:	48 8d 95 f0 fd ff ff 	lea    -0x210(%rbp),%rdx
  4039a6:	48 8d 85 b0 fe ff ff 	lea    -0x150(%rbp),%rax
  4039ad:	48 89 d6             	mov    %rdx,%rsi
  4039b0:	48 89 c7             	mov    %rax,%rdi
  4039b3:	e8 fc 26 00 00       	callq  4060b4 <_ZN10tensorflow5Input11InitializerC1IivEERKSt16initializer_listIT_E>
  4039b8:	48 8d 85 90 fd ff ff 	lea    -0x270(%rbp),%rax
  4039bf:	48 8d 95 b0 fe ff ff 	lea    -0x150(%rbp),%rdx
  4039c6:	48 8d 8d f8 fc ff ff 	lea    -0x308(%rbp),%rcx
  4039cd:	48 89 ce             	mov    %rcx,%rsi
  4039d0:	48 89 c7             	mov    %rax,%rdi
  4039d3:	e8 58 f8 ff ff       	callq  403230 <_ZN10tensorflow3ops5ConstERKNS_5ScopeERKNS_5Input11InitializerE@plt>
  4039d8:	48 8d 95 90 fd ff ff 	lea    -0x270(%rbp),%rdx
  4039df:	48 8d 85 60 ff ff ff 	lea    -0xa0(%rbp),%rax
  4039e6:	48 89 d6             	mov    %rdx,%rsi
  4039e9:	48 89 c7             	mov    %rax,%rdi
  4039ec:	e8 25 0f 00 00       	callq  404916 <_ZN10tensorflow5InputC1ERKNS_6OutputE>
  4039f1:	48 8d 95 70 fe ff ff 	lea    -0x190(%rbp),%rdx
  4039f8:	48 8d 85 e0 fe ff ff 	lea    -0x120(%rbp),%rax
  4039ff:	48 89 d6             	mov    %rdx,%rsi
  403a02:	48 89 c7             	mov    %rax,%rdi
  403a05:	e8 18 10 00 00       	callq  404a22 <_ZN10tensorflow5InputC1ERKNS_6TensorE>
  403a0a:	48 8d 85 c0 fd ff ff 	lea    -0x240(%rbp),%rax
  403a11:	48 89 c7             	mov    %rax,%rdi
  403a14:	e8 d7 f3 ff ff       	callq  402df0 <_ZNSaIcEC1Ev@plt>
  403a19:	48 8d 95 c0 fd ff ff 	lea    -0x240(%rbp),%rdx
  403a20:	48 8b 8d 10 fd ff ff 	mov    -0x2f0(%rbp),%rcx
  403a27:	48 8d 85 90 fe ff ff 	lea    -0x170(%rbp),%rax
  403a2e:	48 89 ce             	mov    %rcx,%rsi
  403a31:	48 89 c7             	mov    %rax,%rdi
  403a34:	e8 07 f6 ff ff       	callq  403040 <_ZNSt7__cxx1112basic_stringIcSt11char_traitsIcESaIcEEC1EPKcRKS3_@plt>
  403a39:	48 8d 85 00 fd ff ff 	lea    -0x300(%rbp),%rax
  403a40:	48 8d 95 90 fe ff ff 	lea    -0x170(%rbp),%rdx
  403a47:	48 8d 8d f8 fc ff ff 	lea    -0x308(%rbp),%rcx
  403a4e:	48 89 ce             	mov    %rcx,%rsi
  403a51:	48 89 c7             	mov    %rax,%rdi
  403a54:	e8 97 f7 ff ff       	callq  4031f0 <_ZNK10tensorflow5Scope10WithOpNameERKNSt7__cxx1112basic_stringIcSt11char_traitsIcESaIcEEE@plt>
  403a59:	48 8d 8d 60 ff ff ff 	lea    -0xa0(%rbp),%rcx
  403a60:	48 8d 95 e0 fe ff ff 	lea    -0x120(%rbp),%rdx
  403a67:	48 8d b5 00 fd ff ff 	lea    -0x300(%rbp),%rsi
  403a6e:	48 8d 85 60 fd ff ff 	lea    -0x2a0(%rbp),%rax
  403a75:	48 89 c7             	mov    %rax,%rdi
  403a78:	e8 73 f6 ff ff       	callq  4030f0 <_ZN10tensorflow3ops14ResizeBilinearC1ERKNS_5ScopeENS_5InputES5_@plt>
  403a7d:	48 8d 85 00 fd ff ff 	lea    -0x300(%rbp),%rax
  403a84:	48 89 c7             	mov    %rax,%rdi
  403a87:	e8 14 f4 ff ff       	callq  402ea0 <_ZN10tensorflow5ScopeD1Ev@plt>
  403a8c:	48 8d 85 90 fe ff ff 	lea    -0x170(%rbp),%rax
  403a93:	48 89 c7             	mov    %rax,%rdi
  403a96:	e8 15 f4 ff ff       	callq  402eb0 <_ZNSt7__cxx1112basic_stringIcSt11char_traitsIcESaIcEED1Ev@plt>
  403a9b:	48 8d 85 c0 fd ff ff 	lea    -0x240(%rbp),%rax
  403aa2:	48 89 c7             	mov    %rax,%rdi
  403aa5:	e8 96 f7 ff ff       	callq  403240 <_ZNSaIcED1Ev@plt>
  403aaa:	48 8d 85 e0 fe ff ff 	lea    -0x120(%rbp),%rax
  403ab1:	48 89 c7             	mov    %rax,%rdi
  403ab4:	e8 db 10 00 00       	callq  404b94 <_ZN10tensorflow5InputD1Ev>
  403ab9:	48 8d 85 60 ff ff ff 	lea    -0xa0(%rbp),%rax
  403ac0:	48 89 c7             	mov    %rax,%rdi
  403ac3:	e8 cc 10 00 00       	callq  404b94 <_ZN10tensorflow5InputD1Ev>
  403ac8:	48 8d 85 90 fd ff ff 	lea    -0x270(%rbp),%rax
  403acf:	48 89 c7             	mov    %rax,%rdi
  403ad2:	e8 ef 0d 00 00       	callq  4048c6 <_ZN10tensorflow6OutputD1Ev>
  403ad7:	48 8d 85 b0 fe ff ff 	lea    -0x150(%rbp),%rax
  403ade:	48 89 c7             	mov    %rax,%rdi
  403ae1:	e8 82 10 00 00       	callq  404b68 <_ZN10tensorflow5Input11InitializerD1Ev>
  403ae6:	48 8d 85 c0 fd ff ff 	lea    -0x240(%rbp),%rax
  403aed:	48 89 c7             	mov    %rax,%rdi
  403af0:	e8 4b f6 ff ff       	callq  403140 <_ZN10tensorflow10RunOptionsC1Ev@plt>
  403af5:	48 8d 85 c0 fd ff ff 	lea    -0x240(%rbp),%rax
  403afc:	be 03 00 00 00       	mov    $0x3,%esi
  403b01:	48 89 c7             	mov    %rax,%rdi
  403b04:	e8 cd 11 00 00       	callq  404cd6 <_ZN10tensorflow10RunOptions15set_trace_levelENS_21RunOptions_TraceLevelE>
  403b09:	48 8d 85 f0 fd ff ff 	lea    -0x210(%rbp),%rax
  403b10:	48 89 c7             	mov    %rax,%rdi
  403b13:	e8 38 f5 ff ff       	callq  403050 <_ZN10tensorflow11RunMetadataC1Ev@plt>
  403b18:	48 8d 85 f8 fc ff ff 	lea    -0x308(%rbp),%rax
  403b1f:	48 89 85 90 fd ff ff 	mov    %rax,-0x270(%rbp)
  403b26:	48 8d 85 c0 fd ff ff 	lea    -0x240(%rbp),%rax
  403b2d:	48 89 85 98 fd ff ff 	mov    %rax,-0x268(%rbp)
  403b34:	48 8d 85 60 fd ff ff 	lea    -0x2a0(%rbp),%rax
  403b3b:	48 89 85 a0 fd ff ff 	mov    %rax,-0x260(%rbp)
  403b42:	48 8d 85 40 fd ff ff 	lea    -0x2c0(%rbp),%rax
  403b49:	48 89 85 a8 fd ff ff 	mov    %rax,-0x258(%rbp)
  403b50:	48 8d 85 f0 fd ff ff 	lea    -0x210(%rbp),%rax
  403b57:	48 89 85 b0 fd ff ff 	mov    %rax,-0x250(%rbp)
  403b5e:	48 8d 85 90 fd ff ff 	lea    -0x270(%rbp),%rax
  403b65:	48 89 c7             	mov    %rax,%rdi
  403b68:	e8 bb 02 00 00       	callq  403e28 <_ZN2CK12measure_testIZ4mainEUlvE_EEvOT_>
  403b6d:	48 8d 85 30 fd ff ff 	lea    -0x2d0(%rbp),%rax
  403b74:	48 89 c7             	mov    %rax,%rdi
  403b77:	e8 20 12 00 00       	callq  404d9c <_ZNK2CK5Shape10data_countEv>
  403b7c:	48 98                	cltq   
  403b7e:	48 ba fe ff ff ff ff 	movabs $0x1ffffffffffffffe,%rdx
  403b85:	ff ff 1f 
  403b88:	48 39 d0             	cmp    %rdx,%rax
  403b8b:	77 0e                	ja     403b9b <main+0x465>
  403b8d:	48 c1 e0 02          	shl    $0x2,%rax
  403b91:	48 89 c7             	mov    %rax,%rdi
  403b94:	e8 c7 f5 ff ff       	callq  403160 <_Znam@plt>
  403b99:	eb 05                	jmp    403ba0 <main+0x46a>
  403b9b:	e8 20 f6 ff ff       	callq  4031c0 <__cxa_throw_bad_array_new_length@plt>
  403ba0:	48 89 85 18 fd ff ff 	mov    %rax,-0x2e8(%rbp)
  403ba7:	48 8d 85 30 fd ff ff 	lea    -0x2d0(%rbp),%rax
  403bae:	48 89 c7             	mov    %rax,%rdi
  403bb1:	e8 e6 11 00 00       	callq  404d9c <_ZNK2CK5Shape10data_countEv>
  403bb6:	48 98                	cltq   
  403bb8:	48 8d 1c 85 00 00 00 	lea    0x0(,%rax,4),%rbx
  403bbf:	00 
  403bc0:	48 8d 85 40 fd ff ff 	lea    -0x2c0(%rbp),%rax
  403bc7:	be 00 00 00 00       	mov    $0x0,%esi
  403bcc:	48 89 c7             	mov    %rax,%rdi
  403bcf:	e8 82 28 00 00       	callq  406456 <_ZNSt6vectorIN10tensorflow6TensorESaIS1_EEixEm>
  403bd4:	48 89 c7             	mov    %rax,%rdi
  403bd7:	e8 d8 23 00 00       	callq  405fb4 <_ZN10tensorflow6Tensor4flatIfEENS_6TTypesIT_Li1ElE4FlatEv>
  403bdc:	48 89 85 40 fe ff ff 	mov    %rax,-0x1c0(%rbp)
  403be3:	48 89 95 48 fe ff ff 	mov    %rdx,-0x1b8(%rbp)
  403bea:	48 8d 85 40 fe ff ff 	lea    -0x1c0(%rbp),%rax
  403bf1:	48 89 c7             	mov    %rax,%rdi
  403bf4:	e8 49 24 00 00       	callq  406042 <_ZN5Eigen9TensorMapINS_6TensorIfLi1ELi1ElEELi16ENS_11MakePointerEE4dataEv>
  403bf9:	48 89 c1             	mov    %rax,%rcx
  403bfc:	48 8b 85 18 fd ff ff 	mov    -0x2e8(%rbp),%rax
  403c03:	48 89 da             	mov    %rbx,%rdx
  403c06:	48 89 ce             	mov    %rcx,%rsi
  403c09:	48 89 c7             	mov    %rax,%rdi
  403c0c:	e8 bf f4 ff ff       	callq  4030d0 <memcpy@plt>
  403c11:	48 8d 95 30 fd ff ff 	lea    -0x2d0(%rbp),%rdx
  403c18:	48 8b 85 18 fd ff ff 	mov    -0x2e8(%rbp),%rax
  403c1f:	48 89 d6             	mov    %rdx,%rsi
  403c22:	48 89 c7             	mov    %rax,%rdi
  403c25:	e8 4c 28 00 00       	callq  406476 <_ZN2CK21print_output_raw_dataIfEEvPT_RKNS_5ShapeE>
  403c2a:	48 8d 95 30 fd ff ff 	lea    -0x2d0(%rbp),%rdx
  403c31:	48 8b 85 18 fd ff ff 	mov    -0x2e8(%rbp),%rax
  403c38:	48 89 d6             	mov    %rdx,%rsi
  403c3b:	48 89 c7             	mov    %rax,%rdi
  403c3e:	e8 60 28 00 00       	callq  4064a3 <_ZN2CK20dump_output_raw_dataIfEEvPT_RKNS_5ShapeE>
  403c43:	48 83 bd 18 fd ff ff 	cmpq   $0x0,-0x2e8(%rbp)
  403c4a:	00 
  403c4b:	74 0f                	je     403c5c <main+0x526>
  403c4d:	48 8b 85 18 fd ff ff 	mov    -0x2e8(%rbp),%rax
  403c54:	48 89 c7             	mov    %rax,%rdi
  403c57:	e8 44 f3 ff ff       	callq  402fa0 <_ZdaPv@plt>
  403c5c:	48 8b 95 10 fd ff ff 	mov    -0x2f0(%rbp),%rdx
  403c63:	48 8d 85 f0 fd ff ff 	lea    -0x210(%rbp),%rax
  403c6a:	48 89 d6             	mov    %rdx,%rsi
  403c6d:	48 89 c7             	mov    %rax,%rdi
  403c70:	e8 00 17 00 00       	callq  405375 <_ZN2CK2TF16process_metadataERKN10tensorflow11RunMetadataEPKc>
  403c75:	e8 55 14 00 00       	callq  4050cf <_ZN2CK11finish_testEv>
  403c7a:	bb 00 00 00 00       	mov    $0x0,%ebx
  403c7f:	48 8d 85 f0 fd ff ff 	lea    -0x210(%rbp),%rax
  403c86:	48 89 c7             	mov    %rax,%rdi
  403c89:	e8 32 f1 ff ff       	callq  402dc0 <_ZN10tensorflow11RunMetadataD1Ev@plt>
  403c8e:	48 8d 85 c0 fd ff ff 	lea    -0x240(%rbp),%rax
  403c95:	48 89 c7             	mov    %rax,%rdi
  403c98:	e8 93 f0 ff ff       	callq  402d30 <_ZN10tensorflow10RunOptionsD1Ev@plt>
  403c9d:	48 8d 85 60 fd ff ff 	lea    -0x2a0(%rbp),%rax
  403ca4:	48 89 c7             	mov    %rax,%rdi
  403ca7:	e8 7e 17 00 00       	callq  40542a <_ZN10tensorflow3ops14ResizeBilinearD1Ev>
  403cac:	48 8d 85 40 fd ff ff 	lea    -0x2c0(%rbp),%rax
  403cb3:	48 89 c7             	mov    %rax,%rdi
  403cb6:	e8 b5 23 00 00       	callq  406070 <_ZNSt6vectorIN10tensorflow6TensorESaIS1_EED1Ev>
  403cbb:	48 8d 85 70 fe ff ff 	lea    -0x190(%rbp),%rax
  403cc2:	48 89 c7             	mov    %rax,%rdi
  403cc5:	e8 06 f1 ff ff       	callq  402dd0 <_ZN10tensorflow6TensorD1Ev@plt>
  403cca:	48 8d 85 f8 fc ff ff 	lea    -0x308(%rbp),%rax
  403cd1:	48 89 c7             	mov    %rax,%rdi
  403cd4:	e8 c7 f1 ff ff       	callq  402ea0 <_ZN10tensorflow5ScopeD1Ev@plt>
  403cd9:	89 d8                	mov    %ebx,%eax
  403cdb:	48 8b 4d d8          	mov    -0x28(%rbp),%rcx
  403cdf:	64 48 33 0c 25 28 00 	xor    %fs:0x28,%rcx
  403ce6:	00 00 
  403ce8:	0f 84 2c 01 00 00    	je     403e1a <main+0x6e4>
  403cee:	e9 22 01 00 00       	jmpq   403e15 <main+0x6df>
  403cf3:	48 89 c3             	mov    %rax,%rbx
  403cf6:	48 8d 85 50 fe ff ff 	lea    -0x1b0(%rbp),%rax
  403cfd:	48 89 c7             	mov    %rax,%rdi
  403d00:	e8 9f 0a 00 00       	callq  4047a4 <_ZN10tensorflow11TensorShapeD1Ev>
  403d05:	e9 f1 00 00 00       	jmpq   403dfb <main+0x6c5>
  403d0a:	48 89 c3             	mov    %rax,%rbx
  403d0d:	48 8d 85 00 fd ff ff 	lea    -0x300(%rbp),%rax
  403d14:	48 89 c7             	mov    %rax,%rdi
  403d17:	e8 84 f1 ff ff       	callq  402ea0 <_ZN10tensorflow5ScopeD1Ev@plt>
  403d1c:	eb 03                	jmp    403d21 <main+0x5eb>
  403d1e:	48 89 c3             	mov    %rax,%rbx
  403d21:	48 8d 85 90 fe ff ff 	lea    -0x170(%rbp),%rax
  403d28:	48 89 c7             	mov    %rax,%rdi
  403d2b:	e8 80 f1 ff ff       	callq  402eb0 <_ZNSt7__cxx1112basic_stringIcSt11char_traitsIcESaIcEED1Ev@plt>
  403d30:	eb 03                	jmp    403d35 <main+0x5ff>
  403d32:	48 89 c3             	mov    %rax,%rbx
  403d35:	48 8d 85 c0 fd ff ff 	lea    -0x240(%rbp),%rax
  403d3c:	48 89 c7             	mov    %rax,%rdi
  403d3f:	e8 fc f4 ff ff       	callq  403240 <_ZNSaIcED1Ev@plt>
  403d44:	48 8d 85 e0 fe ff ff 	lea    -0x120(%rbp),%rax
  403d4b:	48 89 c7             	mov    %rax,%rdi
  403d4e:	e8 41 0e 00 00       	callq  404b94 <_ZN10tensorflow5InputD1Ev>
  403d53:	eb 03                	jmp    403d58 <main+0x622>
  403d55:	48 89 c3             	mov    %rax,%rbx
  403d58:	48 8d 85 60 ff ff ff 	lea    -0xa0(%rbp),%rax
  403d5f:	48 89 c7             	mov    %rax,%rdi
  403d62:	e8 2d 0e 00 00       	callq  404b94 <_ZN10tensorflow5InputD1Ev>
  403d67:	eb 03                	jmp    403d6c <main+0x636>
  403d69:	48 89 c3             	mov    %rax,%rbx
  403d6c:	48 8d 85 90 fd ff ff 	lea    -0x270(%rbp),%rax
  403d73:	48 89 c7             	mov    %rax,%rdi
  403d76:	e8 4b 0b 00 00       	callq  4048c6 <_ZN10tensorflow6OutputD1Ev>
  403d7b:	eb 03                	jmp    403d80 <main+0x64a>
  403d7d:	48 89 c3             	mov    %rax,%rbx
  403d80:	48 8d 85 b0 fe ff ff 	lea    -0x150(%rbp),%rax
  403d87:	48 89 c7             	mov    %rax,%rdi
  403d8a:	e8 d9 0d 00 00       	callq  404b68 <_ZN10tensorflow5Input11InitializerD1Ev>
  403d8f:	48 89 d8             	mov    %rbx,%rax
  403d92:	eb 00                	jmp    403d94 <main+0x65e>
  403d94:	48 89 c3             	mov    %rax,%rbx
  403d97:	eb 3a                	jmp    403dd3 <main+0x69d>
  403d99:	48 89 c3             	mov    %rax,%rbx
  403d9c:	48 8d 85 f0 fd ff ff 	lea    -0x210(%rbp),%rax
  403da3:	48 89 c7             	mov    %rax,%rdi
  403da6:	e8 15 f0 ff ff       	callq  402dc0 <_ZN10tensorflow11RunMetadataD1Ev@plt>
  403dab:	eb 03                	jmp    403db0 <main+0x67a>
  403dad:	48 89 c3             	mov    %rax,%rbx
  403db0:	48 8d 85 c0 fd ff ff 	lea    -0x240(%rbp),%rax
  403db7:	48 89 c7             	mov    %rax,%rdi
  403dba:	e8 71 ef ff ff       	callq  402d30 <_ZN10tensorflow10RunOptionsD1Ev@plt>
  403dbf:	eb 03                	jmp    403dc4 <main+0x68e>
  403dc1:	48 89 c3             	mov    %rax,%rbx
  403dc4:	48 8d 85 60 fd ff ff 	lea    -0x2a0(%rbp),%rax
  403dcb:	48 89 c7             	mov    %rax,%rdi
  403dce:	e8 57 16 00 00       	callq  40542a <_ZN10tensorflow3ops14ResizeBilinearD1Ev>
  403dd3:	48 8d 85 40 fd ff ff 	lea    -0x2c0(%rbp),%rax
  403dda:	48 89 c7             	mov    %rax,%rdi
  403ddd:	e8 8e 22 00 00       	callq  406070 <_ZNSt6vectorIN10tensorflow6TensorESaIS1_EED1Ev>
  403de2:	eb 03                	jmp    403de7 <main+0x6b1>
  403de4:	48 89 c3             	mov    %rax,%rbx
  403de7:	48 8d 85 70 fe ff ff 	lea    -0x190(%rbp),%rax
  403dee:	48 89 c7             	mov    %rax,%rdi
  403df1:	e8 da ef ff ff       	callq  402dd0 <_ZN10tensorflow6TensorD1Ev@plt>
  403df6:	eb 03                	jmp    403dfb <main+0x6c5>
  403df8:	48 89 c3             	mov    %rax,%rbx
  403dfb:	48 8d 85 f8 fc ff ff 	lea    -0x308(%rbp),%rax
  403e02:	48 89 c7             	mov    %rax,%rdi
  403e05:	e8 96 f0 ff ff       	callq  402ea0 <_ZN10tensorflow5ScopeD1Ev@plt>
  403e0a:	48 89 d8             	mov    %rbx,%rax
  403e0d:	48 89 c7             	mov    %rax,%rdi
  403e10:	e8 fb f1 ff ff       	callq  403010 <_Unwind_Resume@plt>
  403e15:	e8 46 ef ff ff       	callq  402d60 <__stack_chk_fail@plt>
  403e1a:	48 81 c4 f8 02 00 00 	add    $0x2f8,%rsp
  403e21:	5b                   	pop    %rbx
  403e22:	41 5c                	pop    %r12
  403e24:	41 5d                	pop    %r13
  403e26:	5d                   	pop    %rbp
  403e27:	c3                   	retq   

0000000000403e28 <_ZN2CK12measure_testIZ4mainEUlvE_EEvOT_>:
  403e28:	55                   	push   %rbp
  403e29:	48 89 e5             	mov    %rsp,%rbp
  403e2c:	48 83 ec 10          	sub    $0x10,%rsp
  403e30:	48 89 7d f8          	mov    %rdi,-0x8(%rbp)
  403e34:	48 8b 45 f8          	mov    -0x8(%rbp),%rax
  403e38:	be 01 00 00 00       	mov    $0x1,%esi
  403e3d:	48 89 c7             	mov    %rax,%rdi
  403e40:	e8 16 00 00 00       	callq  403e5b <_ZN2CK11do_measuredIRZ4mainEUlvE_EEvOT_i>
  403e45:	bf 01 00 00 00       	mov    $0x1,%edi
  403e4a:	e8 21 f3 ff ff       	callq  403170 <xopenme_get_timer@plt>
  403e4f:	f2 0f 5a c0          	cvtsd2ss %xmm0,%xmm0
  403e53:	e8 7d f5 ff ff       	callq  4033d5 <_ZN2CK15store_test_timeEf>
  403e58:	90                   	nop
  403e59:	c9                   	leaveq 
  403e5a:	c3                   	retq   

0000000000403e5b <_ZN2CK11do_measuredIRZ4mainEUlvE_EEvOT_i>:
  403e5b:	55                   	push   %rbp
  403e5c:	48 89 e5             	mov    %rsp,%rbp
  403e5f:	48 83 ec 10          	sub    $0x10,%rsp
  403e63:	48 89 7d f8          	mov    %rdi,-0x8(%rbp)
  403e67:	89 75 f4             	mov    %esi,-0xc(%rbp)
  403e6a:	8b 45 f4             	mov    -0xc(%rbp),%eax
  403e6d:	89 c7                	mov    %eax,%edi
  403e6f:	e8 2c ef ff ff       	callq  402da0 <xopenme_clock_start@plt>
  403e74:	48 8b 45 f8          	mov    -0x8(%rbp),%rax
  403e78:	48 89 c7             	mov    %rax,%rdi
  403e7b:	e8 80 f5 ff ff       	callq  403400 <_ZZ4mainENKUlvE_clEv>
  403e80:	8b 45 f4             	mov    -0xc(%rbp),%eax
  403e83:	89 c7                	mov    %eax,%edi
  403e85:	e8 f6 f2 ff ff       	callq  403180 <xopenme_clock_end@plt>
  403e8a:	90                   	nop
  403e8b:	c9                   	leaveq 
  403e8c:	c3                   	retq   

0000000000403e8d <_Z41__static_initialization_and_destruction_0ii>:
  403e8d:	55                   	push   %rbp
  403e8e:	48 89 e5             	mov    %rsp,%rbp
  403e91:	53                   	push   %rbx
  403e92:	48 83 ec 28          	sub    $0x28,%rsp
  403e96:	89 7d dc             	mov    %edi,-0x24(%rbp)
  403e99:	89 75 d8             	mov    %esi,-0x28(%rbp)
  403e9c:	64 48 8b 04 25 28 00 	mov    %fs:0x28,%rax
  403ea3:	00 00 
  403ea5:	48 89 45 e8          	mov    %rax,-0x18(%rbp)
  403ea9:	31 c0                	xor    %eax,%eax
  403eab:	83 7d dc 01          	cmpl   $0x1,-0x24(%rbp)
  403eaf:	75 53                	jne    403f04 <_Z41__static_initialization_and_destruction_0ii+0x77>
  403eb1:	81 7d d8 ff ff 00 00 	cmpl   $0xffff,-0x28(%rbp)
  403eb8:	75 4a                	jne    403f04 <_Z41__static_initialization_and_destruction_0ii+0x77>
  403eba:	bf 89 e3 60 00       	mov    $0x60e389,%edi
  403ebf:	e8 4c 18 00 00       	callq  405710 <_ZN5Eigen8Symbolic10SymbolExprINS_12placeholders8internal17symbolic_last_tagEEC1Ev>
  403ec4:	e8 62 18 00 00       	callq  40572b <_ZN5Eigen3fixILi1EEENS_8internal8FixedIntIXT_EEEv>
  403ec9:	48 83 ec 08          	sub    $0x8,%rsp
  403ecd:	53                   	push   %rbx
  403ece:	bf 89 e3 60 00       	mov    $0x60e389,%edi
  403ed3:	e8 94 18 00 00       	callq  40576c <_ZNK5Eigen8Symbolic8BaseExprINS0_10SymbolExprINS_12placeholders8internal17symbolic_last_tagEEEEplILi1EEENS0_7AddExprIS6_NS0_9ValueExprINS_8internal8FixedIntIXT_EEEEEEESD_>
  403ed8:	48 83 c4 10          	add    $0x10,%rsp
  403edc:	bf 8c e3 60 00       	mov    $0x60e38c,%edi
  403ee1:	e8 70 00 00 00       	callq  403f56 <_ZN5Eigen8internal5all_tC1Ev>
  403ee6:	bf 8d e3 60 00       	mov    $0x60e38d,%edi
  403eeb:	e8 20 f3 ff ff       	callq  403210 <_ZNSt8ios_base4InitC1Ev@plt>
  403ef0:	ba b8 e2 60 00       	mov    $0x60e2b8,%edx
  403ef5:	be 8d e3 60 00       	mov    $0x60e38d,%esi
  403efa:	bf a0 31 40 00       	mov    $0x4031a0,%edi
  403eff:	e8 dc ee ff ff       	callq  402de0 <__cxa_atexit@plt>
  403f04:	90                   	nop
  403f05:	48 8b 45 e8          	mov    -0x18(%rbp),%rax
  403f09:	64 48 33 04 25 28 00 	xor    %fs:0x28,%rax
  403f10:	00 00 
  403f12:	74 05                	je     403f19 <_Z41__static_initialization_and_destruction_0ii+0x8c>
  403f14:	e8 47 ee ff ff       	callq  402d60 <__stack_chk_fail@plt>
  403f19:	48 8b 5d f8          	mov    -0x8(%rbp),%rbx
  403f1d:	c9                   	leaveq 
  403f1e:	c3                   	retq   

0000000000403f1f <_GLOBAL__sub_I__ZN2CK16store_setup_timeEf>:
  403f1f:	55                   	push   %rbp
  403f20:	48 89 e5             	mov    %rsp,%rbp
  403f23:	be ff ff 00 00       	mov    $0xffff,%esi
  403f28:	bf 01 00 00 00       	mov    $0x1,%edi
  403f2d:	e8 5b ff ff ff       	callq  403e8d <_Z41__static_initialization_and_destruction_0ii>
  403f32:	5d                   	pop    %rbp
  403f33:	c3                   	retq   

0000000000403f34 <_ZnwmPv>:
  403f34:	55                   	push   %rbp
  403f35:	48 89 e5             	mov    %rsp,%rbp
  403f38:	48 89 7d f8          	mov    %rdi,-0x8(%rbp)
  403f3c:	48 89 75 f0          	mov    %rsi,-0x10(%rbp)
  403f40:	48 8b 45 f0          	mov    -0x10(%rbp),%rax
  403f44:	5d                   	pop    %rbp
  403f45:	c3                   	retq   

0000000000403f46 <_ZdlPvS_>:
  403f46:	55                   	push   %rbp
  403f47:	48 89 e5             	mov    %rsp,%rbp
  403f4a:	48 89 7d f8          	mov    %rdi,-0x8(%rbp)
  403f4e:	48 89 75 f0          	mov    %rsi,-0x10(%rbp)
  403f52:	90                   	nop
  403f53:	5d                   	pop    %rbp
  403f54:	c3                   	retq   
  403f55:	90                   	nop

0000000000403f56 <_ZN5Eigen8internal5all_tC1Ev>:
  403f56:	55                   	push   %rbp
  403f57:	48 89 e5             	mov    %rsp,%rbp
  403f5a:	48 89 7d f8          	mov    %rdi,-0x8(%rbp)
  403f5e:	90                   	nop
  403f5f:	5d                   	pop    %rbp
  403f60:	c3                   	retq   

0000000000403f61 <_ZStanSt12memory_orderSt23__memory_order_modifier>:
  403f61:	55                   	push   %rbp
  403f62:	48 89 e5             	mov    %rsp,%rbp
  403f65:	89 7d fc             	mov    %edi,-0x4(%rbp)
  403f68:	89 75 f8             	mov    %esi,-0x8(%rbp)
  403f6b:	8b 55 fc             	mov    -0x4(%rbp),%edx
  403f6e:	8b 45 f8             	mov    -0x8(%rbp),%eax
  403f71:	21 d0                	and    %edx,%eax
  403f73:	5d                   	pop    %rbp
  403f74:	c3                   	retq   
  403f75:	90                   	nop

0000000000403f76 <_ZNSt8__detail15_Hash_node_baseC1Ev>:
  403f76:	55                   	push   %rbp
  403f77:	48 89 e5             	mov    %rsp,%rbp
  403f7a:	48 89 7d f8          	mov    %rdi,-0x8(%rbp)
  403f7e:	48 8b 45 f8          	mov    -0x8(%rbp),%rax
  403f82:	48 c7 00 00 00 00 00 	movq   $0x0,(%rax)
  403f89:	90                   	nop
  403f8a:	5d                   	pop    %rbp
  403f8b:	c3                   	retq   

0000000000403f8c <_ZNSt8__detail20_Prime_rehash_policyC1Ef>:
  403f8c:	55                   	push   %rbp
  403f8d:	48 89 e5             	mov    %rsp,%rbp
  403f90:	48 89 7d f8          	mov    %rdi,-0x8(%rbp)
  403f94:	f3 0f 11 45 f4       	movss  %xmm0,-0xc(%rbp)
  403f99:	48 8b 45 f8          	mov    -0x8(%rbp),%rax
  403f9d:	f3 0f 10 45 f4       	movss  -0xc(%rbp),%xmm0
  403fa2:	f3 0f 11 00          	movss  %xmm0,(%rax)
  403fa6:	48 8b 45 f8          	mov    -0x8(%rbp),%rax
  403faa:	48 c7 40 08 00 00 00 	movq   $0x0,0x8(%rax)
  403fb1:	00 
  403fb2:	90                   	nop
  403fb3:	5d                   	pop    %rbp
  403fb4:	c3                   	retq   
  403fb5:	90                   	nop

0000000000403fb6 <_ZNK6google8protobuf8internal14ArenaStringPtr3GetB5cxx11Ev>:
  403fb6:	55                   	push   %rbp
  403fb7:	48 89 e5             	mov    %rsp,%rbp
  403fba:	48 89 7d f8          	mov    %rdi,-0x8(%rbp)
  403fbe:	48 8b 45 f8          	mov    -0x8(%rbp),%rax
  403fc2:	48 8b 00             	mov    (%rax),%rax
  403fc5:	5d                   	pop    %rbp
  403fc6:	c3                   	retq   
  403fc7:	90                   	nop

0000000000403fc8 <_ZNK6google8protobuf8internal20RepeatedPtrFieldBase4sizeEv>:
  403fc8:	55                   	push   %rbp
  403fc9:	48 89 e5             	mov    %rsp,%rbp
  403fcc:	48 89 7d f8          	mov    %rdi,-0x8(%rbp)
  403fd0:	48 8b 45 f8          	mov    -0x8(%rbp),%rax
  403fd4:	8b 40 08             	mov    0x8(%rax),%eax
  403fd7:	5d                   	pop    %rbp
  403fd8:	c3                   	retq   
  403fd9:	90                   	nop

0000000000403fda <_ZNK6google8protobuf8internal20RepeatedPtrFieldBase8raw_dataEv>:
  403fda:	55                   	push   %rbp
  403fdb:	48 89 e5             	mov    %rsp,%rbp
  403fde:	48 89 7d f8          	mov    %rdi,-0x8(%rbp)
  403fe2:	48 8b 45 f8          	mov    -0x8(%rbp),%rax
  403fe6:	48 8b 40 10          	mov    0x10(%rax),%rax
  403fea:	48 85 c0             	test   %rax,%rax
  403fed:	74 0e                	je     403ffd <_ZNK6google8protobuf8internal20RepeatedPtrFieldBase8raw_dataEv+0x23>
  403fef:	48 8b 45 f8          	mov    -0x8(%rbp),%rax
  403ff3:	48 8b 40 10          	mov    0x10(%rax),%rax
  403ff7:	48 83 c0 08          	add    $0x8,%rax
  403ffb:	eb 05                	jmp    404002 <_ZNK6google8protobuf8internal20RepeatedPtrFieldBase8raw_dataEv+0x28>
  403ffd:	b8 00 00 00 00       	mov    $0x0,%eax
  404002:	5d                   	pop    %rbp
  404003:	c3                   	retq   

0000000000404004 <_ZN10tensorflow8internal21GetReferenceableValueEi>:
  404004:	55                   	push   %rbp
  404005:	48 89 e5             	mov    %rsp,%rbp
  404008:	89 7d fc             	mov    %edi,-0x4(%rbp)
  40400b:	8b 45 fc             	mov    -0x4(%rbp),%eax
  40400e:	5d                   	pop    %rbp
  40400f:	c3                   	retq   

0000000000404010 <_ZN10tensorflow8internal21GetReferenceableValueEl>:
  404010:	55                   	push   %rbp
  404011:	48 89 e5             	mov    %rsp,%rbp
  404014:	48 89 7d f8          	mov    %rdi,-0x8(%rbp)
  404018:	48 8b 45 f8          	mov    -0x8(%rbp),%rax
  40401c:	5d                   	pop    %rbp
  40401d:	c3                   	retq   

000000000040401e <_ZN10tensorflow8internal21GetReferenceableValueEm>:
  40401e:	55                   	push   %rbp
  40401f:	48 89 e5             	mov    %rsp,%rbp
  404022:	48 89 7d f8          	mov    %rdi,-0x8(%rbp)
  404026:	48 8b 45 f8          	mov    -0x8(%rbp),%rax
  40402a:	5d                   	pop    %rbp
  40402b:	c3                   	retq   

000000000040402c <_ZN10tensorflow8internal21GetReferenceableValueEx>:
  40402c:	55                   	push   %rbp
  40402d:	48 89 e5             	mov    %rsp,%rbp
  404030:	48 89 7d f8          	mov    %rdi,-0x8(%rbp)
  404034:	48 8b 45 f8          	mov    -0x8(%rbp),%rax
  404038:	5d                   	pop    %rbp
  404039:	c3                   	retq   

000000000040403a <_ZN10tensorflow8internal13CheckOpStringC1EPNSt7__cxx1112basic_stringIcSt11char_traitsIcESaIcEEE>:
  40403a:	55                   	push   %rbp
  40403b:	48 89 e5             	mov    %rsp,%rbp
  40403e:	48 89 7d f8          	mov    %rdi,-0x8(%rbp)
  404042:	48 89 75 f0          	mov    %rsi,-0x10(%rbp)
  404046:	48 8b 45 f8          	mov    -0x8(%rbp),%rax
  40404a:	48 8b 55 f0          	mov    -0x10(%rbp),%rdx
  40404e:	48 89 10             	mov    %rdx,(%rax)
  404051:	90                   	nop
  404052:	5d                   	pop    %rbp
  404053:	c3                   	retq   

0000000000404054 <_ZNK10tensorflow8internal13CheckOpStringcvbEv>:
  404054:	55                   	push   %rbp
  404055:	48 89 e5             	mov    %rsp,%rbp
  404058:	48 89 7d f8          	mov    %rdi,-0x8(%rbp)
  40405c:	48 8b 45 f8          	mov    -0x8(%rbp),%rax
  404060:	48 8b 00             	mov    (%rax),%rax
  404063:	48 85 c0             	test   %rax,%rax
  404066:	0f 95 c0             	setne  %al
  404069:	5d                   	pop    %rbp
  40406a:	c3                   	retq   
  40406b:	90                   	nop

000000000040406c <_ZN10tensorflow8internal21CheckOpMessageBuilder7ForVar1Ev>:
  40406c:	55                   	push   %rbp
  40406d:	48 89 e5             	mov    %rsp,%rbp
  404070:	48 89 7d f8          	mov    %rdi,-0x8(%rbp)
  404074:	48 8b 45 f8          	mov    -0x8(%rbp),%rax
  404078:	48 8b 00             	mov    (%rax),%rax
  40407b:	5d                   	pop    %rbp
  40407c:	c3                   	retq   
  40407d:	90                   	nop

000000000040407e <_ZNSt14default_deleteIN10tensorflow6Status5StateEEC1Ev>:
  40407e:	55                   	push   %rbp
  40407f:	48 89 e5             	mov    %rsp,%rbp
  404082:	48 89 7d f8          	mov    %rdi,-0x8(%rbp)
  404086:	90                   	nop
  404087:	5d                   	pop    %rbp
  404088:	c3                   	retq   
  404089:	90                   	nop

000000000040408a <_ZNSt10_Head_baseILm1ESt14default_deleteIN10tensorflow6Status5StateEELb1EEC2Ev>:
  40408a:	55                   	push   %rbp
  40408b:	48 89 e5             	mov    %rsp,%rbp
  40408e:	48 83 ec 10          	sub    $0x10,%rsp
  404092:	48 89 7d f8          	mov    %rdi,-0x8(%rbp)
  404096:	48 8b 45 f8          	mov    -0x8(%rbp),%rax
  40409a:	48 89 c7             	mov    %rax,%rdi
  40409d:	e8 dc ff ff ff       	callq  40407e <_ZNSt14default_deleteIN10tensorflow6Status5StateEEC1Ev>
  4040a2:	90                   	nop
  4040a3:	c9                   	leaveq 
  4040a4:	c3                   	retq   
  4040a5:	90                   	nop

00000000004040a6 <_ZNSt11_Tuple_implILm1EJSt14default_deleteIN10tensorflow6Status5StateEEEEC2Ev>:
  4040a6:	55                   	push   %rbp
  4040a7:	48 89 e5             	mov    %rsp,%rbp
  4040aa:	48 83 ec 10          	sub    $0x10,%rsp
  4040ae:	48 89 7d f8          	mov    %rdi,-0x8(%rbp)
  4040b2:	48 8b 45 f8          	mov    -0x8(%rbp),%rax
  4040b6:	48 89 c7             	mov    %rax,%rdi
  4040b9:	e8 cc ff ff ff       	callq  40408a <_ZNSt10_Head_baseILm1ESt14default_deleteIN10tensorflow6Status5StateEELb1EEC2Ev>
  4040be:	90                   	nop
  4040bf:	c9                   	leaveq 
  4040c0:	c3                   	retq   
  4040c1:	90                   	nop

00000000004040c2 <_ZNSt10_Head_baseILm0EPN10tensorflow6Status5StateELb0EEC2Ev>:
  4040c2:	55                   	push   %rbp
  4040c3:	48 89 e5             	mov    %rsp,%rbp
  4040c6:	48 89 7d f8          	mov    %rdi,-0x8(%rbp)
  4040ca:	48 8b 45 f8          	mov    -0x8(%rbp),%rax
  4040ce:	48 c7 00 00 00 00 00 	movq   $0x0,(%rax)
  4040d5:	90                   	nop
  4040d6:	5d                   	pop    %rbp
  4040d7:	c3                   	retq   

00000000004040d8 <_ZNSt11_Tuple_implILm0EJPN10tensorflow6Status5StateESt14default_deleteIS2_EEEC2Ev>:
  4040d8:	55                   	push   %rbp
  4040d9:	48 89 e5             	mov    %rsp,%rbp
  4040dc:	48 83 ec 10          	sub    $0x10,%rsp
  4040e0:	48 89 7d f8          	mov    %rdi,-0x8(%rbp)
  4040e4:	48 8b 45 f8          	mov    -0x8(%rbp),%rax
  4040e8:	48 89 c7             	mov    %rax,%rdi
  4040eb:	e8 b6 ff ff ff       	callq  4040a6 <_ZNSt11_Tuple_implILm1EJSt14default_deleteIN10tensorflow6Status5StateEEEEC2Ev>
  4040f0:	48 8b 45 f8          	mov    -0x8(%rbp),%rax
  4040f4:	48 89 c7             	mov    %rax,%rdi
  4040f7:	e8 c6 ff ff ff       	callq  4040c2 <_ZNSt10_Head_baseILm0EPN10tensorflow6Status5StateELb0EEC2Ev>
  4040fc:	90                   	nop
  4040fd:	c9                   	leaveq 
  4040fe:	c3                   	retq   
  4040ff:	90                   	nop

0000000000404100 <_ZNSt5tupleIJPN10tensorflow6Status5StateESt14default_deleteIS2_EEEC1IS3_S5_Lb1EEEv>:
  404100:	55                   	push   %rbp
  404101:	48 89 e5             	mov    %rsp,%rbp
  404104:	48 83 ec 10          	sub    $0x10,%rsp
  404108:	48 89 7d f8          	mov    %rdi,-0x8(%rbp)
  40410c:	48 8b 45 f8          	mov    -0x8(%rbp),%rax
  404110:	48 89 c7             	mov    %rax,%rdi
  404113:	e8 c0 ff ff ff       	callq  4040d8 <_ZNSt11_Tuple_implILm0EJPN10tensorflow6Status5StateESt14default_deleteIS2_EEEC2Ev>
  404118:	90                   	nop
  404119:	c9                   	leaveq 
  40411a:	c3                   	retq   
  40411b:	90                   	nop

000000000040411c <_ZNSt10unique_ptrIN10tensorflow6Status5StateESt14default_deleteIS2_EEC1Ev>:
  40411c:	55                   	push   %rbp
  40411d:	48 89 e5             	mov    %rsp,%rbp
  404120:	48 83 ec 10          	sub    $0x10,%rsp
  404124:	48 89 7d f8          	mov    %rdi,-0x8(%rbp)
  404128:	48 8b 45 f8          	mov    -0x8(%rbp),%rax
  40412c:	48 89 c7             	mov    %rax,%rdi
  40412f:	e8 cc ff ff ff       	callq  404100 <_ZNSt5tupleIJPN10tensorflow6Status5StateESt14default_deleteIS2_EEEC1IS3_S5_Lb1EEEv>
  404134:	90                   	nop
  404135:	c9                   	leaveq 
  404136:	c3                   	retq   
  404137:	90                   	nop

0000000000404138 <_ZN10tensorflow6StatusC1Ev>:
  404138:	55                   	push   %rbp
  404139:	48 89 e5             	mov    %rsp,%rbp
  40413c:	48 83 ec 10          	sub    $0x10,%rsp
  404140:	48 89 7d f8          	mov    %rdi,-0x8(%rbp)
  404144:	48 8b 45 f8          	mov    -0x8(%rbp),%rax
  404148:	48 89 c7             	mov    %rax,%rdi
  40414b:	e8 cc ff ff ff       	callq  40411c <_ZNSt10unique_ptrIN10tensorflow6Status5StateESt14default_deleteIS2_EEC1Ev>
  404150:	90                   	nop
  404151:	c9                   	leaveq 
  404152:	c3                   	retq   
  404153:	90                   	nop

0000000000404154 <_ZN10tensorflow6StatusD1Ev>:
  404154:	55                   	push   %rbp
  404155:	48 89 e5             	mov    %rsp,%rbp
  404158:	48 83 ec 10          	sub    $0x10,%rsp
  40415c:	48 89 7d f8          	mov    %rdi,-0x8(%rbp)
  404160:	48 8b 45 f8          	mov    -0x8(%rbp),%rax
  404164:	48 89 c7             	mov    %rax,%rdi
  404167:	e8 0a 17 00 00       	callq  405876 <_ZNSt10unique_ptrIN10tensorflow6Status5StateESt14default_deleteIS2_EED1Ev>
  40416c:	90                   	nop
  40416d:	c9                   	leaveq 
  40416e:	c3                   	retq   

000000000040416f <_ZN10tensorflow6Status2OKEv>:
  40416f:	55                   	push   %rbp
  404170:	48 89 e5             	mov    %rsp,%rbp
  404173:	48 83 ec 10          	sub    $0x10,%rsp
  404177:	48 89 7d f8          	mov    %rdi,-0x8(%rbp)
  40417b:	48 8b 45 f8          	mov    -0x8(%rbp),%rax
  40417f:	48 89 c7             	mov    %rax,%rdi
  404182:	e8 b1 ff ff ff       	callq  404138 <_ZN10tensorflow6StatusC1Ev>
  404187:	48 8b 45 f8          	mov    -0x8(%rbp),%rax
  40418b:	c9                   	leaveq 
  40418c:	c3                   	retq   
  40418d:	90                   	nop

000000000040418e <_ZNK10tensorflow6Status2okEv>:
  40418e:	55                   	push   %rbp
  40418f:	48 89 e5             	mov    %rsp,%rbp
  404192:	48 83 ec 10          	sub    $0x10,%rsp
  404196:	48 89 7d f8          	mov    %rdi,-0x8(%rbp)
  40419a:	48 8b 45 f8          	mov    -0x8(%rbp),%rax
  40419e:	be 00 00 00 00       	mov    $0x0,%esi
  4041a3:	48 89 c7             	mov    %rax,%rdi
  4041a6:	e8 25 17 00 00       	callq  4058d0 <_ZSteqIN10tensorflow6Status5StateESt14default_deleteIS2_EEbRKSt10unique_ptrIT_T0_EDn>
  4041ab:	c9                   	leaveq 
  4041ac:	c3                   	retq   
  4041ad:	90                   	nop

00000000004041ae <_ZN10tensorflow6Status5StateC1ERKS1_>:
  4041ae:	55                   	push   %rbp
  4041af:	48 89 e5             	mov    %rsp,%rbp
  4041b2:	48 83 ec 10          	sub    $0x10,%rsp
  4041b6:	48 89 7d f8          	mov    %rdi,-0x8(%rbp)
  4041ba:	48 89 75 f0          	mov    %rsi,-0x10(%rbp)
  4041be:	48 8b 45 f0          	mov    -0x10(%rbp),%rax
  4041c2:	8b 10                	mov    (%rax),%edx
  4041c4:	48 8b 45 f8          	mov    -0x8(%rbp),%rax
  4041c8:	89 10                	mov    %edx,(%rax)
  4041ca:	48 8b 45 f0          	mov    -0x10(%rbp),%rax
  4041ce:	48 8d 50 08          	lea    0x8(%rax),%rdx
  4041d2:	48 8b 45 f8          	mov    -0x8(%rbp),%rax
  4041d6:	48 83 c0 08          	add    $0x8,%rax
  4041da:	48 89 d6             	mov    %rdx,%rsi
  4041dd:	48 89 c7             	mov    %rax,%rdi
  4041e0:	e8 3b eb ff ff       	callq  402d20 <_ZNSt7__cxx1112basic_stringIcSt11char_traitsIcESaIcEEC1ERKS4_@plt>
  4041e5:	90                   	nop
  4041e6:	c9                   	leaveq 
  4041e7:	c3                   	retq   

00000000004041e8 <_ZN10tensorflow6StatusC1ERKS0_>:
  4041e8:	55                   	push   %rbp
  4041e9:	48 89 e5             	mov    %rsp,%rbp
  4041ec:	41 54                	push   %r12
  4041ee:	53                   	push   %rbx
  4041ef:	48 83 ec 10          	sub    $0x10,%rsp
  4041f3:	48 89 7d e8          	mov    %rdi,-0x18(%rbp)
  4041f7:	48 89 75 e0          	mov    %rsi,-0x20(%rbp)
  4041fb:	48 8b 45 e0          	mov    -0x20(%rbp),%rax
  4041ff:	be 00 00 00 00       	mov    $0x0,%esi
  404204:	48 89 c7             	mov    %rax,%rdi
  404207:	e8 c4 16 00 00       	callq  4058d0 <_ZSteqIN10tensorflow6Status5StateESt14default_deleteIS2_EEbRKSt10unique_ptrIT_T0_EDn>
  40420c:	84 c0                	test   %al,%al
  40420e:	74 07                	je     404217 <_ZN10tensorflow6StatusC1ERKS0_+0x2f>
  404210:	ba 00 00 00 00       	mov    $0x0,%edx
  404215:	eb 2a                	jmp    404241 <_ZN10tensorflow6StatusC1ERKS0_+0x59>
  404217:	48 8b 45 e0          	mov    -0x20(%rbp),%rax
  40421b:	48 89 c7             	mov    %rax,%rdi
  40421e:	e8 cf 16 00 00       	callq  4058f2 <_ZNKSt10unique_ptrIN10tensorflow6Status5StateESt14default_deleteIS2_EEdeEv>
  404223:	49 89 c4             	mov    %rax,%r12
  404226:	bf 28 00 00 00       	mov    $0x28,%edi
  40422b:	e8 f0 ee ff ff       	callq  403120 <_Znwm@plt>
  404230:	48 89 c3             	mov    %rax,%rbx
  404233:	4c 89 e6             	mov    %r12,%rsi
  404236:	48 89 df             	mov    %rbx,%rdi
  404239:	e8 70 ff ff ff       	callq  4041ae <_ZN10tensorflow6Status5StateC1ERKS1_>
  40423e:	48 89 da             	mov    %rbx,%rdx
  404241:	48 8b 45 e8          	mov    -0x18(%rbp),%rax
  404245:	48 89 d6             	mov    %rdx,%rsi
  404248:	48 89 c7             	mov    %rax,%rdi
  40424b:	e8 bc 16 00 00       	callq  40590c <_ZNSt10unique_ptrIN10tensorflow6Status5StateESt14default_deleteIS2_EEC1EPS2_>
  404250:	eb 16                	jmp    404268 <_ZN10tensorflow6StatusC1ERKS0_+0x80>
  404252:	49 89 c4             	mov    %rax,%r12
  404255:	48 89 df             	mov    %rbx,%rdi
  404258:	e8 33 eb ff ff       	callq  402d90 <_ZdlPv@plt>
  40425d:	4c 89 e0             	mov    %r12,%rax
  404260:	48 89 c7             	mov    %rax,%rdi
  404263:	e8 a8 ed ff ff       	callq  403010 <_Unwind_Resume@plt>
  404268:	48 83 c4 10          	add    $0x10,%rsp
  40426c:	5b                   	pop    %rbx
  40426d:	41 5c                	pop    %r12
  40426f:	5d                   	pop    %rbp
  404270:	c3                   	retq   

0000000000404271 <_ZN10tensorflow15TfCheckOpHelperB5cxx11ENS_6StatusEPKc>:
  404271:	55                   	push   %rbp
  404272:	48 89 e5             	mov    %rsp,%rbp
  404275:	48 83 ec 10          	sub    $0x10,%rsp
  404279:	48 89 7d f8          	mov    %rdi,-0x8(%rbp)
  40427d:	48 89 75 f0          	mov    %rsi,-0x10(%rbp)
  404281:	48 8b 45 f8          	mov    -0x8(%rbp),%rax
  404285:	48 89 c7             	mov    %rax,%rdi
  404288:	e8 01 ff ff ff       	callq  40418e <_ZNK10tensorflow6Status2okEv>
  40428d:	84 c0                	test   %al,%al
  40428f:	74 07                	je     404298 <_ZN10tensorflow15TfCheckOpHelperB5cxx11ENS_6StatusEPKc+0x27>
  404291:	b8 00 00 00 00       	mov    $0x0,%eax
  404296:	eb 13                	jmp    4042ab <_ZN10tensorflow15TfCheckOpHelperB5cxx11ENS_6StatusEPKc+0x3a>
  404298:	48 8b 55 f0          	mov    -0x10(%rbp),%rdx
  40429c:	48 8b 45 f8          	mov    -0x8(%rbp),%rax
  4042a0:	48 89 d6             	mov    %rdx,%rsi
  4042a3:	48 89 c7             	mov    %rax,%rdi
  4042a6:	e8 35 ef ff ff       	callq  4031e0 <_ZN10tensorflow24TfCheckOpHelperOutOfLineB5cxx11ERKNS_6StatusEPKc@plt>
  4042ab:	c9                   	leaveq 
  4042ac:	c3                   	retq   
  4042ad:	90                   	nop

00000000004042ae <_ZNK10tensorflow14TensorShapeRep12num_elementsEv>:
  4042ae:	55                   	push   %rbp
  4042af:	48 89 e5             	mov    %rsp,%rbp
  4042b2:	48 89 7d f8          	mov    %rdi,-0x8(%rbp)
  4042b6:	48 8b 45 f8          	mov    -0x8(%rbp),%rax
  4042ba:	48 8b 40 10          	mov    0x10(%rax),%rax
  4042be:	5d                   	pop    %rbp
  4042bf:	c3                   	retq   

00000000004042c0 <_ZNK10tensorflow14TensorShapeRep3tagEv>:
  4042c0:	55                   	push   %rbp
  4042c1:	48 89 e5             	mov    %rsp,%rbp
  4042c4:	48 83 ec 10          	sub    $0x10,%rsp
  4042c8:	48 89 7d f8          	mov    %rdi,-0x8(%rbp)
  4042cc:	48 8b 45 f8          	mov    -0x8(%rbp),%rax
  4042d0:	48 89 c7             	mov    %rax,%rdi
  4042d3:	e8 42 00 00 00       	callq  40431a <_ZNK10tensorflow14TensorShapeRep3bufEv>
  4042d8:	48 83 c0 0f          	add    $0xf,%rax
  4042dc:	0f b6 00             	movzbl (%rax),%eax
  4042df:	0f b6 c0             	movzbl %al,%eax
  4042e2:	c9                   	leaveq 
  4042e3:	c3                   	retq   

00000000004042e4 <_ZN10tensorflow14TensorShapeRep7set_tagENS0_6RepTagE>:
  4042e4:	55                   	push   %rbp
  4042e5:	48 89 e5             	mov    %rsp,%rbp
  4042e8:	48 83 ec 10          	sub    $0x10,%rsp
  4042ec:	48 89 7d f8          	mov    %rdi,-0x8(%rbp)
  4042f0:	89 75 f4             	mov    %esi,-0xc(%rbp)
  4042f3:	48 8b 45 f8          	mov    -0x8(%rbp),%rax
  4042f7:	48 89 c7             	mov    %rax,%rdi
  4042fa:	e8 0d 00 00 00       	callq  40430c <_ZN10tensorflow14TensorShapeRep3bufEv>
  4042ff:	48 83 c0 0f          	add    $0xf,%rax
  404303:	8b 55 f4             	mov    -0xc(%rbp),%edx
  404306:	88 10                	mov    %dl,(%rax)
  404308:	90                   	nop
  404309:	c9                   	leaveq 
  40430a:	c3                   	retq   
  40430b:	90                   	nop

000000000040430c <_ZN10tensorflow14TensorShapeRep3bufEv>:
  40430c:	55                   	push   %rbp
  40430d:	48 89 e5             	mov    %rsp,%rbp
  404310:	48 89 7d f8          	mov    %rdi,-0x8(%rbp)
  404314:	48 8b 45 f8          	mov    -0x8(%rbp),%rax
  404318:	5d                   	pop    %rbp
  404319:	c3                   	retq   

000000000040431a <_ZNK10tensorflow14TensorShapeRep3bufEv>:
  40431a:	55                   	push   %rbp
  40431b:	48 89 e5             	mov    %rsp,%rbp
  40431e:	48 89 7d f8          	mov    %rdi,-0x8(%rbp)
  404322:	48 8b 45 f8          	mov    -0x8(%rbp),%rax
  404326:	5d                   	pop    %rbp
  404327:	c3                   	retq   

0000000000404328 <_ZN10tensorflow14TensorShapeRepC1ERKS0_>:
  404328:	55                   	push   %rbp
  404329:	48 89 e5             	mov    %rsp,%rbp
  40432c:	53                   	push   %rbx
  40432d:	48 83 ec 18          	sub    $0x18,%rsp
  404331:	48 89 7d e8          	mov    %rdi,-0x18(%rbp)
  404335:	48 89 75 e0          	mov    %rsi,-0x20(%rbp)
  404339:	48 8b 45 e0          	mov    -0x20(%rbp),%rax
  40433d:	48 8b 50 10          	mov    0x10(%rax),%rdx
  404341:	48 8b 45 e8          	mov    -0x18(%rbp),%rax
  404345:	48 89 50 10          	mov    %rdx,0x10(%rax)
  404349:	48 8b 45 e0          	mov    -0x20(%rbp),%rax
  40434d:	48 89 c7             	mov    %rax,%rdi
  404350:	e8 6b ff ff ff       	callq  4042c0 <_ZNK10tensorflow14TensorShapeRep3tagEv>
  404355:	83 f8 02             	cmp    $0x2,%eax
  404358:	0f 95 c0             	setne  %al
  40435b:	84 c0                	test   %al,%al
  40435d:	74 2e                	je     40438d <_ZN10tensorflow14TensorShapeRepC1ERKS0_+0x65>
  40435f:	48 8b 45 e0          	mov    -0x20(%rbp),%rax
  404363:	48 89 c7             	mov    %rax,%rdi
  404366:	e8 af ff ff ff       	callq  40431a <_ZNK10tensorflow14TensorShapeRep3bufEv>
  40436b:	48 89 c3             	mov    %rax,%rbx
  40436e:	48 8b 45 e8          	mov    -0x18(%rbp),%rax
  404372:	48 89 c7             	mov    %rax,%rdi
  404375:	e8 92 ff ff ff       	callq  40430c <_ZN10tensorflow14TensorShapeRep3bufEv>
  40437a:	48 89 c1             	mov    %rax,%rcx
  40437d:	48 8b 03             	mov    (%rbx),%rax
  404380:	48 8b 53 08          	mov    0x8(%rbx),%rdx
  404384:	48 89 01             	mov    %rax,(%rcx)
  404387:	48 89 51 08          	mov    %rdx,0x8(%rcx)
  40438b:	eb 24                	jmp    4043b1 <_ZN10tensorflow14TensorShapeRepC1ERKS0_+0x89>
  40438d:	48 8b 45 e8          	mov    -0x18(%rbp),%rax
  404391:	be 00 00 00 00       	mov    $0x0,%esi
  404396:	48 89 c7             	mov    %rax,%rdi
  404399:	e8 46 ff ff ff       	callq  4042e4 <_ZN10tensorflow14TensorShapeRep7set_tagENS0_6RepTagE>
  40439e:	48 8b 55 e0          	mov    -0x20(%rbp),%rdx
  4043a2:	48 8b 45 e8          	mov    -0x18(%rbp),%rax
  4043a6:	48 89 d6             	mov    %rdx,%rsi
  4043a9:	48 89 c7             	mov    %rax,%rdi
  4043ac:	e8 af ec ff ff       	callq  403060 <_ZN10tensorflow14TensorShapeRep12SlowCopyFromERKS0_@plt>
  4043b1:	90                   	nop
  4043b2:	48 83 c4 18          	add    $0x18,%rsp
  4043b6:	5b                   	pop    %rbx
  4043b7:	5d                   	pop    %rbp
  4043b8:	c3                   	retq   
  4043b9:	90                   	nop

00000000004043ba <_ZN10tensorflow14TensorShapeRepD1Ev>:
  4043ba:	55                   	push   %rbp
  4043bb:	48 89 e5             	mov    %rsp,%rbp
  4043be:	48 83 ec 10          	sub    $0x10,%rsp
  4043c2:	48 89 7d f8          	mov    %rdi,-0x8(%rbp)
  4043c6:	48 8b 45 f8          	mov    -0x8(%rbp),%rax
  4043ca:	48 89 c7             	mov    %rax,%rdi
  4043cd:	e8 ee fe ff ff       	callq  4042c0 <_ZNK10tensorflow14TensorShapeRep3tagEv>
  4043d2:	83 f8 02             	cmp    $0x2,%eax
  4043d5:	0f 94 c0             	sete   %al
  4043d8:	84 c0                	test   %al,%al
  4043da:	74 0c                	je     4043e8 <_ZN10tensorflow14TensorShapeRepD1Ev+0x2e>
  4043dc:	48 8b 45 f8          	mov    -0x8(%rbp),%rax
  4043e0:	48 89 c7             	mov    %rax,%rdi
  4043e3:	e8 78 ea ff ff       	callq  402e60 <_ZN10tensorflow14TensorShapeRep19DestructorOutOfLineEv@plt>
  4043e8:	90                   	nop
  4043e9:	c9                   	leaveq 
  4043ea:	c3                   	retq   

00000000004043eb <_ZN10tensorflow14DataTypeToEnumIfE1vEv>:
  4043eb:	55                   	push   %rbp
  4043ec:	48 89 e5             	mov    %rsp,%rbp
  4043ef:	b8 01 00 00 00       	mov    $0x1,%eax
  4043f4:	5d                   	pop    %rbp
  4043f5:	c3                   	retq   

00000000004043f6 <_ZN10tensorflow14DataTypeToEnumIiE1vEv>:
  4043f6:	55                   	push   %rbp
  4043f7:	48 89 e5             	mov    %rsp,%rbp
  4043fa:	b8 03 00 00 00       	mov    $0x3,%eax
  4043ff:	5d                   	pop    %rbp
  404400:	c3                   	retq   
  404401:	90                   	nop

0000000000404402 <_ZN10tensorflow4core10RefCountedD1Ev>:
  404402:	55                   	push   %rbp
  404403:	48 89 e5             	mov    %rsp,%rbp
  404406:	53                   	push   %rbx
  404407:	48 81 ec d8 01 00 00 	sub    $0x1d8,%rsp
  40440e:	48 89 bd 28 fe ff ff 	mov    %rdi,-0x1d8(%rbp)
  404415:	64 48 8b 04 25 28 00 	mov    %fs:0x28,%rax
  40441c:	00 00 
  40441e:	48 89 45 e8          	mov    %rax,-0x18(%rbp)
  404422:	31 c0                	xor    %eax,%eax
  404424:	ba a8 94 40 00       	mov    $0x4094a8,%edx
  404429:	48 8b 85 28 fe ff ff 	mov    -0x1d8(%rbp),%rax
  404430:	48 89 10             	mov    %rdx,(%rax)
  404433:	bf 00 00 00 00       	mov    $0x0,%edi
  404438:	e8 c7 fb ff ff       	callq  404004 <_ZN10tensorflow8internal21GetReferenceableValueEi>
  40443d:	89 85 3c fe ff ff    	mov    %eax,-0x1c4(%rbp)
  404443:	48 8b 85 28 fe ff ff 	mov    -0x1d8(%rbp),%rax
  40444a:	48 83 c0 08          	add    $0x8,%rax
  40444e:	48 89 85 58 fe ff ff 	mov    %rax,-0x1a8(%rbp)
  404455:	c7 85 40 fe ff ff 05 	movl   $0x5,-0x1c0(%rbp)
  40445c:	00 00 00 
  40445f:	8b 85 40 fe ff ff    	mov    -0x1c0(%rbp),%eax
  404465:	be ff ff 00 00       	mov    $0xffff,%esi
  40446a:	89 c7                	mov    %eax,%edi
  40446c:	e8 f0 fa ff ff       	callq  403f61 <_ZStanSt12memory_orderSt23__memory_order_modifier>
  404471:	89 85 44 fe ff ff    	mov    %eax,-0x1bc(%rbp)
  404477:	48 8b 85 58 fe ff ff 	mov    -0x1a8(%rbp),%rax
  40447e:	48 8b 00             	mov    (%rax),%rax
  404481:	48 89 c7             	mov    %rax,%rdi
  404484:	e8 87 fb ff ff       	callq  404010 <_ZN10tensorflow8internal21GetReferenceableValueEl>
  404489:	48 89 85 50 fe ff ff 	mov    %rax,-0x1b0(%rbp)
  404490:	48 8d 8d 3c fe ff ff 	lea    -0x1c4(%rbp),%rcx
  404497:	48 8d 85 50 fe ff ff 	lea    -0x1b0(%rbp),%rax
  40449e:	ba 3c 8f 40 00       	mov    $0x408f3c,%edx
  4044a3:	48 89 ce             	mov    %rcx,%rsi
  4044a6:	48 89 c7             	mov    %rax,%rdi
  4044a9:	e8 36 15 00 00       	callq  4059e4 <_ZN10tensorflow8internal12Check_EQImplIliEEPNSt7__cxx1112basic_stringIcSt11char_traitsIcESaIcEEERKT_RKT0_PKc>
  4044ae:	48 89 c2             	mov    %rax,%rdx
  4044b1:	48 8d 85 48 fe ff ff 	lea    -0x1b8(%rbp),%rax
  4044b8:	48 89 d6             	mov    %rdx,%rsi
  4044bb:	48 89 c7             	mov    %rax,%rdi
  4044be:	e8 77 fb ff ff       	callq  40403a <_ZN10tensorflow8internal13CheckOpStringC1EPNSt7__cxx1112basic_stringIcSt11char_traitsIcESaIcEEE>
  4044c3:	48 8d 85 48 fe ff ff 	lea    -0x1b8(%rbp),%rax
  4044ca:	48 89 c7             	mov    %rax,%rdi
  4044cd:	e8 82 fb ff ff       	callq  404054 <_ZNK10tensorflow8internal13CheckOpStringcvbEv>
  4044d2:	83 f0 01             	xor    $0x1,%eax
  4044d5:	84 c0                	test   %al,%al
  4044d7:	75 41                	jne    40451a <_ZN10tensorflow4core10RefCountedD1Ev+0x118>
  4044d9:	48 8b 9d 48 fe ff ff 	mov    -0x1b8(%rbp),%rbx
  4044e0:	48 8d 85 60 fe ff ff 	lea    -0x1a0(%rbp),%rax
  4044e7:	ba 4f 00 00 00       	mov    $0x4f,%edx
  4044ec:	be 50 8f 40 00       	mov    $0x408f50,%esi
  4044f1:	48 89 c7             	mov    %rax,%rdi
  4044f4:	e8 47 e8 ff ff       	callq  402d40 <_ZN10tensorflow8internal15LogMessageFatalC1EPKci@plt>
  4044f9:	48 8d 85 60 fe ff ff 	lea    -0x1a0(%rbp),%rax
  404500:	48 89 de             	mov    %rbx,%rsi
  404503:	48 89 c7             	mov    %rax,%rdi
  404506:	e8 b0 14 00 00       	callq  4059bb <_ZStlsIcSt11char_traitsIcENSt7__cxx1112basic_stringIcS1_SaIcEEEERSt13basic_ostreamIT_T0_EOS9_RKT1_>
  40450b:	48 8d 85 60 fe ff ff 	lea    -0x1a0(%rbp),%rax
  404512:	48 89 c7             	mov    %rax,%rdi
  404515:	e8 c6 e9 ff ff       	callq  402ee0 <_ZN10tensorflow8internal15LogMessageFatalD1Ev@plt>
  40451a:	90                   	nop
  40451b:	48 8b 45 e8          	mov    -0x18(%rbp),%rax
  40451f:	64 48 33 04 25 28 00 	xor    %fs:0x28,%rax
  404526:	00 00 
  404528:	74 05                	je     40452f <_ZN10tensorflow4core10RefCountedD1Ev+0x12d>
  40452a:	e8 31 e8 ff ff       	callq  402d60 <__stack_chk_fail@plt>
  40452f:	48 81 c4 d8 01 00 00 	add    $0x1d8,%rsp
  404536:	5b                   	pop    %rbx
  404537:	5d                   	pop    %rbp
  404538:	c3                   	retq   
  404539:	90                   	nop

000000000040453a <_ZN10tensorflow4core10RefCountedD0Ev>:
  40453a:	55                   	push   %rbp
  40453b:	48 89 e5             	mov    %rsp,%rbp
  40453e:	48 83 ec 10          	sub    $0x10,%rsp
  404542:	48 89 7d f8          	mov    %rdi,-0x8(%rbp)
  404546:	48 8b 45 f8          	mov    -0x8(%rbp),%rax
  40454a:	48 89 c7             	mov    %rax,%rdi
  40454d:	e8 b0 fe ff ff       	callq  404402 <_ZN10tensorflow4core10RefCountedD1Ev>
  404552:	48 8b 45 f8          	mov    -0x8(%rbp),%rax
  404556:	48 89 c7             	mov    %rax,%rdi
  404559:	e8 32 e8 ff ff       	callq  402d90 <_ZdlPv@plt>
  40455e:	c9                   	leaveq 
  40455f:	c3                   	retq   

0000000000404560 <_ZNK10tensorflow4core10RefCounted3RefEv>:
  404560:	55                   	push   %rbp
  404561:	48 89 e5             	mov    %rsp,%rbp
  404564:	53                   	push   %rbx
  404565:	48 81 ec e8 01 00 00 	sub    $0x1e8,%rsp
  40456c:	48 89 bd 18 fe ff ff 	mov    %rdi,-0x1e8(%rbp)
  404573:	64 48 8b 04 25 28 00 	mov    %fs:0x28,%rax
  40457a:	00 00 
  40457c:	48 89 45 e8          	mov    %rax,-0x18(%rbp)
  404580:	31 c0                	xor    %eax,%eax
  404582:	bf 01 00 00 00       	mov    $0x1,%edi
  404587:	e8 78 fa ff ff       	callq  404004 <_ZN10tensorflow8internal21GetReferenceableValueEi>
  40458c:	89 85 28 fe ff ff    	mov    %eax,-0x1d8(%rbp)
  404592:	48 8b 85 18 fe ff ff 	mov    -0x1e8(%rbp),%rax
  404599:	48 83 c0 08          	add    $0x8,%rax
  40459d:	48 89 85 48 fe ff ff 	mov    %rax,-0x1b8(%rbp)
  4045a4:	c7 85 2c fe ff ff 05 	movl   $0x5,-0x1d4(%rbp)
  4045ab:	00 00 00 
  4045ae:	8b 85 2c fe ff ff    	mov    -0x1d4(%rbp),%eax
  4045b4:	be ff ff 00 00       	mov    $0xffff,%esi
  4045b9:	89 c7                	mov    %eax,%edi
  4045bb:	e8 a1 f9 ff ff       	callq  403f61 <_ZStanSt12memory_orderSt23__memory_order_modifier>
  4045c0:	89 85 30 fe ff ff    	mov    %eax,-0x1d0(%rbp)
  4045c6:	48 8b 85 48 fe ff ff 	mov    -0x1b8(%rbp),%rax
  4045cd:	48 8b 00             	mov    (%rax),%rax
  4045d0:	48 89 c7             	mov    %rax,%rdi
  4045d3:	e8 38 fa ff ff       	callq  404010 <_ZN10tensorflow8internal21GetReferenceableValueEl>
  4045d8:	48 89 85 40 fe ff ff 	mov    %rax,-0x1c0(%rbp)
  4045df:	48 8d 8d 28 fe ff ff 	lea    -0x1d8(%rbp),%rcx
  4045e6:	48 8d 85 40 fe ff ff 	lea    -0x1c0(%rbp),%rax
  4045ed:	ba d6 8f 40 00       	mov    $0x408fd6,%edx
  4045f2:	48 89 ce             	mov    %rcx,%rsi
  4045f5:	48 89 c7             	mov    %rax,%rdi
  4045f8:	e8 2f 14 00 00       	callq  405a2c <_ZN10tensorflow8internal12Check_GEImplIliEEPNSt7__cxx1112basic_stringIcSt11char_traitsIcESaIcEEERKT_RKT0_PKc>
  4045fd:	48 89 c2             	mov    %rax,%rdx
  404600:	48 8d 85 38 fe ff ff 	lea    -0x1c8(%rbp),%rax
  404607:	48 89 d6             	mov    %rdx,%rsi
  40460a:	48 89 c7             	mov    %rax,%rdi
  40460d:	e8 28 fa ff ff       	callq  40403a <_ZN10tensorflow8internal13CheckOpStringC1EPNSt7__cxx1112basic_stringIcSt11char_traitsIcESaIcEEE>
  404612:	48 8d 85 38 fe ff ff 	lea    -0x1c8(%rbp),%rax
  404619:	48 89 c7             	mov    %rax,%rdi
  40461c:	e8 33 fa ff ff       	callq  404054 <_ZNK10tensorflow8internal13CheckOpStringcvbEv>
  404621:	83 f0 01             	xor    $0x1,%eax
  404624:	84 c0                	test   %al,%al
  404626:	75 41                	jne    404669 <_ZNK10tensorflow4core10RefCounted3RefEv+0x109>
  404628:	48 8b 9d 38 fe ff ff 	mov    -0x1c8(%rbp),%rbx
  40462f:	48 8d 85 60 fe ff ff 	lea    -0x1a0(%rbp),%rax
  404636:	ba 52 00 00 00       	mov    $0x52,%edx
  40463b:	be 50 8f 40 00       	mov    $0x408f50,%esi
  404640:	48 89 c7             	mov    %rax,%rdi
  404643:	e8 f8 e6 ff ff       	callq  402d40 <_ZN10tensorflow8internal15LogMessageFatalC1EPKci@plt>
  404648:	48 8d 85 60 fe ff ff 	lea    -0x1a0(%rbp),%rax
  40464f:	48 89 de             	mov    %rbx,%rsi
  404652:	48 89 c7             	mov    %rax,%rdi
  404655:	e8 61 13 00 00       	callq  4059bb <_ZStlsIcSt11char_traitsIcENSt7__cxx1112basic_stringIcS1_SaIcEEEERSt13basic_ostreamIT_T0_EOS9_RKT1_>
  40465a:	48 8d 85 60 fe ff ff 	lea    -0x1a0(%rbp),%rax
  404661:	48 89 c7             	mov    %rax,%rdi
  404664:	e8 77 e8 ff ff       	callq  402ee0 <_ZN10tensorflow8internal15LogMessageFatalD1Ev@plt>
  404669:	48 8b 85 18 fe ff ff 	mov    -0x1e8(%rbp),%rax
  404670:	48 83 c0 08          	add    $0x8,%rax
  404674:	48 89 85 50 fe ff ff 	mov    %rax,-0x1b0(%rbp)
  40467b:	48 c7 85 58 fe ff ff 	movq   $0x1,-0x1a8(%rbp)
  404682:	01 00 00 00 
  404686:	c7 85 34 fe ff ff 00 	movl   $0x0,-0x1cc(%rbp)
  40468d:	00 00 00 
  404690:	48 8b 95 58 fe ff ff 	mov    -0x1a8(%rbp),%rdx
  404697:	48 8b 85 50 fe ff ff 	mov    -0x1b0(%rbp),%rax
  40469e:	f0 48 0f c1 10       	lock xadd %rdx,(%rax)
  4046a3:	90                   	nop
  4046a4:	48 8b 45 e8          	mov    -0x18(%rbp),%rax
  4046a8:	64 48 33 04 25 28 00 	xor    %fs:0x28,%rax
  4046af:	00 00 
  4046b1:	74 16                	je     4046c9 <_ZNK10tensorflow4core10RefCounted3RefEv+0x169>
  4046b3:	eb 0f                	jmp    4046c4 <_ZNK10tensorflow4core10RefCounted3RefEv+0x164>
  4046b5:	48 8d 85 60 fe ff ff 	lea    -0x1a0(%rbp),%rax
  4046bc:	48 89 c7             	mov    %rax,%rdi
  4046bf:	e8 1c e8 ff ff       	callq  402ee0 <_ZN10tensorflow8internal15LogMessageFatalD1Ev@plt>
  4046c4:	e8 97 e6 ff ff       	callq  402d60 <__stack_chk_fail@plt>
  4046c9:	48 81 c4 e8 01 00 00 	add    $0x1e8,%rsp
  4046d0:	5b                   	pop    %rbx
  4046d1:	5d                   	pop    %rbp
  4046d2:	c3                   	retq   
  4046d3:	90                   	nop

00000000004046d4 <_ZNK10tensorflow6Tensor5shapeEv>:
  4046d4:	55                   	push   %rbp
  4046d5:	48 89 e5             	mov    %rsp,%rbp
  4046d8:	48 89 7d f8          	mov    %rdi,-0x8(%rbp)
  4046dc:	48 8b 45 f8          	mov    -0x8(%rbp),%rax
  4046e0:	5d                   	pop    %rbp
  4046e1:	c3                   	retq   

00000000004046e2 <_ZNK10tensorflow6Tensor11NumElementsEv>:
  4046e2:	55                   	push   %rbp
  4046e3:	48 89 e5             	mov    %rsp,%rbp
  4046e6:	48 83 ec 10          	sub    $0x10,%rsp
  4046ea:	48 89 7d f8          	mov    %rdi,-0x8(%rbp)
  4046ee:	48 8b 45 f8          	mov    -0x8(%rbp),%rax
  4046f2:	48 89 c7             	mov    %rax,%rdi
  4046f5:	e8 da ff ff ff       	callq  4046d4 <_ZNK10tensorflow6Tensor5shapeEv>
  4046fa:	48 89 c7             	mov    %rax,%rdi
  4046fd:	e8 ac fb ff ff       	callq  4042ae <_ZNK10tensorflow14TensorShapeRep12num_elementsEv>
  404702:	c9                   	leaveq 
  404703:	c3                   	retq   

0000000000404704 <_ZN10tensorflow6TensoraSERKS0_>:
  404704:	55                   	push   %rbp
  404705:	48 89 e5             	mov    %rsp,%rbp
  404708:	48 83 ec 10          	sub    $0x10,%rsp
  40470c:	48 89 7d f8          	mov    %rdi,-0x8(%rbp)
  404710:	48 89 75 f0          	mov    %rsi,-0x10(%rbp)
  404714:	48 8b 45 f0          	mov    -0x10(%rbp),%rax
  404718:	48 89 c7             	mov    %rax,%rdi
  40471b:	e8 b4 ff ff ff       	callq  4046d4 <_ZNK10tensorflow6Tensor5shapeEv>
  404720:	48 89 c2             	mov    %rax,%rdx
  404723:	48 8b 4d f0          	mov    -0x10(%rbp),%rcx
  404727:	48 8b 45 f8          	mov    -0x8(%rbp),%rax
  40472b:	48 89 ce             	mov    %rcx,%rsi
  40472e:	48 89 c7             	mov    %rax,%rdi
  404731:	e8 1a e7 ff ff       	callq  402e50 <_ZN10tensorflow6Tensor16CopyFromInternalERKS0_RKNS_11TensorShapeE@plt>
  404736:	48 8b 45 f8          	mov    -0x8(%rbp),%rax
  40473a:	c9                   	leaveq 
  40473b:	c3                   	retq   

000000000040473c <_ZN10tensorflow15TensorShapeBaseINS_11TensorShapeEEC1ERKS2_>:
  40473c:	55                   	push   %rbp
  40473d:	48 89 e5             	mov    %rsp,%rbp
  404740:	48 83 ec 10          	sub    $0x10,%rsp
  404744:	48 89 7d f8          	mov    %rdi,-0x8(%rbp)
  404748:	48 89 75 f0          	mov    %rsi,-0x10(%rbp)
  40474c:	48 8b 55 f0          	mov    -0x10(%rbp),%rdx
  404750:	48 8b 45 f8          	mov    -0x8(%rbp),%rax
  404754:	48 89 d6             	mov    %rdx,%rsi
  404757:	48 89 c7             	mov    %rax,%rdi
  40475a:	e8 c9 fb ff ff       	callq  404328 <_ZN10tensorflow14TensorShapeRepC1ERKS0_>
  40475f:	90                   	nop
  404760:	c9                   	leaveq 
  404761:	c3                   	retq   

0000000000404762 <_ZN10tensorflow15TensorShapeBaseINS_11TensorShapeEED1Ev>:
  404762:	55                   	push   %rbp
  404763:	48 89 e5             	mov    %rsp,%rbp
  404766:	48 83 ec 10          	sub    $0x10,%rsp
  40476a:	48 89 7d f8          	mov    %rdi,-0x8(%rbp)
  40476e:	48 8b 45 f8          	mov    -0x8(%rbp),%rax
  404772:	48 89 c7             	mov    %rax,%rdi
  404775:	e8 40 fc ff ff       	callq  4043ba <_ZN10tensorflow14TensorShapeRepD1Ev>
  40477a:	90                   	nop
  40477b:	c9                   	leaveq 
  40477c:	c3                   	retq   
  40477d:	90                   	nop

000000000040477e <_ZN10tensorflow11TensorShapeC1ERKS0_>:
  40477e:	55                   	push   %rbp
  40477f:	48 89 e5             	mov    %rsp,%rbp
  404782:	48 83 ec 10          	sub    $0x10,%rsp
  404786:	48 89 7d f8          	mov    %rdi,-0x8(%rbp)
  40478a:	48 89 75 f0          	mov    %rsi,-0x10(%rbp)
  40478e:	48 8b 55 f0          	mov    -0x10(%rbp),%rdx
  404792:	48 8b 45 f8          	mov    -0x8(%rbp),%rax
  404796:	48 89 d6             	mov    %rdx,%rsi
  404799:	48 89 c7             	mov    %rax,%rdi
  40479c:	e8 9b ff ff ff       	callq  40473c <_ZN10tensorflow15TensorShapeBaseINS_11TensorShapeEEC1ERKS2_>
  4047a1:	90                   	nop
  4047a2:	c9                   	leaveq 
  4047a3:	c3                   	retq   

00000000004047a4 <_ZN10tensorflow11TensorShapeD1Ev>:
  4047a4:	55                   	push   %rbp
  4047a5:	48 89 e5             	mov    %rsp,%rbp
  4047a8:	48 83 ec 10          	sub    $0x10,%rsp
  4047ac:	48 89 7d f8          	mov    %rdi,-0x8(%rbp)
  4047b0:	48 8b 45 f8          	mov    -0x8(%rbp),%rax
  4047b4:	48 89 c7             	mov    %rax,%rdi
  4047b7:	e8 a6 ff ff ff       	callq  404762 <_ZN10tensorflow15TensorShapeBaseINS_11TensorShapeEED1Ev>
  4047bc:	90                   	nop
  4047bd:	c9                   	leaveq 
  4047be:	c3                   	retq   
  4047bf:	90                   	nop

00000000004047c0 <_ZN10tensorflow6TensorC1ERKS0_>:
  4047c0:	55                   	push   %rbp
  4047c1:	48 89 e5             	mov    %rsp,%rbp
  4047c4:	53                   	push   %rbx
  4047c5:	48 83 ec 18          	sub    $0x18,%rsp
  4047c9:	48 89 7d e8          	mov    %rdi,-0x18(%rbp)
  4047cd:	48 89 75 e0          	mov    %rsi,-0x20(%rbp)
  4047d1:	48 8b 45 e0          	mov    -0x20(%rbp),%rax
  4047d5:	48 89 c7             	mov    %rax,%rdi
  4047d8:	e8 f7 fe ff ff       	callq  4046d4 <_ZNK10tensorflow6Tensor5shapeEv>
  4047dd:	48 89 c2             	mov    %rax,%rdx
  4047e0:	48 8b 45 e8          	mov    -0x18(%rbp),%rax
  4047e4:	48 89 d6             	mov    %rdx,%rsi
  4047e7:	48 89 c7             	mov    %rax,%rdi
  4047ea:	e8 8f ff ff ff       	callq  40477e <_ZN10tensorflow11TensorShapeC1ERKS0_>
  4047ef:	48 8b 45 e0          	mov    -0x20(%rbp),%rax
  4047f3:	48 8b 50 18          	mov    0x18(%rax),%rdx
  4047f7:	48 8b 45 e8          	mov    -0x18(%rbp),%rax
  4047fb:	48 89 50 18          	mov    %rdx,0x18(%rax)
  4047ff:	48 8b 45 e8          	mov    -0x18(%rbp),%rax
  404803:	48 8b 40 18          	mov    0x18(%rax),%rax
  404807:	48 85 c0             	test   %rax,%rax
  40480a:	74 2c                	je     404838 <_ZN10tensorflow6TensorC1ERKS0_+0x78>
  40480c:	48 8b 45 e8          	mov    -0x18(%rbp),%rax
  404810:	48 8b 40 18          	mov    0x18(%rax),%rax
  404814:	48 89 c7             	mov    %rax,%rdi
  404817:	e8 44 fd ff ff       	callq  404560 <_ZNK10tensorflow4core10RefCounted3RefEv>
  40481c:	eb 1a                	jmp    404838 <_ZN10tensorflow6TensorC1ERKS0_+0x78>
  40481e:	48 89 c3             	mov    %rax,%rbx
  404821:	48 8b 45 e8          	mov    -0x18(%rbp),%rax
  404825:	48 89 c7             	mov    %rax,%rdi
  404828:	e8 77 ff ff ff       	callq  4047a4 <_ZN10tensorflow11TensorShapeD1Ev>
  40482d:	48 89 d8             	mov    %rbx,%rax
  404830:	48 89 c7             	mov    %rax,%rdi
  404833:	e8 d8 e7 ff ff       	callq  403010 <_Unwind_Resume@plt>
  404838:	90                   	nop
  404839:	48 83 c4 18          	add    $0x18,%rsp
  40483d:	5b                   	pop    %rbx
  40483e:	5d                   	pop    %rbp
  40483f:	c3                   	retq   

0000000000404840 <_ZN10tensorflow9OperationD1Ev>:
  404840:	55                   	push   %rbp
  404841:	48 89 e5             	mov    %rsp,%rbp
  404844:	48 83 ec 10          	sub    $0x10,%rsp
  404848:	48 89 7d f8          	mov    %rdi,-0x8(%rbp)
  40484c:	48 8b 45 f8          	mov    -0x8(%rbp),%rax
  404850:	48 89 c7             	mov    %rax,%rdi
  404853:	e8 1c 12 00 00       	callq  405a74 <_ZNSt6vectorISt4pairIPN10tensorflow4NodeEiESaIS4_EED1Ev>
  404858:	90                   	nop
  404859:	c9                   	leaveq 
  40485a:	c3                   	retq   
  40485b:	90                   	nop

000000000040485c <_ZN10tensorflow9OperationC1ERKS0_>:
  40485c:	55                   	push   %rbp
  40485d:	48 89 e5             	mov    %rsp,%rbp
  404860:	48 83 ec 10          	sub    $0x10,%rsp
  404864:	48 89 7d f8          	mov    %rdi,-0x8(%rbp)
  404868:	48 89 75 f0          	mov    %rsi,-0x10(%rbp)
  40486c:	48 8b 55 f0          	mov    -0x10(%rbp),%rdx
  404870:	48 8b 45 f8          	mov    -0x8(%rbp),%rax
  404874:	48 89 d6             	mov    %rdx,%rsi
  404877:	48 89 c7             	mov    %rax,%rdi
  40487a:	e8 39 12 00 00       	callq  405ab8 <_ZNSt6vectorISt4pairIPN10tensorflow4NodeEiESaIS4_EEC1ERKS6_>
  40487f:	48 8b 45 f0          	mov    -0x10(%rbp),%rax
  404883:	48 8b 50 18          	mov    0x18(%rax),%rdx
  404887:	48 8b 45 f8          	mov    -0x8(%rbp),%rax
  40488b:	48 89 50 18          	mov    %rdx,0x18(%rax)
  40488f:	90                   	nop
  404890:	c9                   	leaveq 
  404891:	c3                   	retq   

0000000000404892 <_ZN10tensorflow6OutputC1ERKNS_9OperationEi>:
  404892:	55                   	push   %rbp
  404893:	48 89 e5             	mov    %rsp,%rbp
  404896:	48 83 ec 20          	sub    $0x20,%rsp
  40489a:	48 89 7d f8          	mov    %rdi,-0x8(%rbp)
  40489e:	48 89 75 f0          	mov    %rsi,-0x10(%rbp)
  4048a2:	89 55 ec             	mov    %edx,-0x14(%rbp)
  4048a5:	48 8b 45 f8          	mov    -0x8(%rbp),%rax
  4048a9:	48 8b 55 f0          	mov    -0x10(%rbp),%rdx
  4048ad:	48 89 d6             	mov    %rdx,%rsi
  4048b0:	48 89 c7             	mov    %rax,%rdi
  4048b3:	e8 a4 ff ff ff       	callq  40485c <_ZN10tensorflow9OperationC1ERKS0_>
  4048b8:	48 8b 45 f8          	mov    -0x8(%rbp),%rax
  4048bc:	8b 55 ec             	mov    -0x14(%rbp),%edx
  4048bf:	89 50 20             	mov    %edx,0x20(%rax)
  4048c2:	90                   	nop
  4048c3:	c9                   	leaveq 
  4048c4:	c3                   	retq   
  4048c5:	90                   	nop

00000000004048c6 <_ZN10tensorflow6OutputD1Ev>:
  4048c6:	55                   	push   %rbp
  4048c7:	48 89 e5             	mov    %rsp,%rbp
  4048ca:	48 83 ec 10          	sub    $0x10,%rsp
  4048ce:	48 89 7d f8          	mov    %rdi,-0x8(%rbp)
  4048d2:	48 8b 45 f8          	mov    -0x8(%rbp),%rax
  4048d6:	48 89 c7             	mov    %rax,%rdi
  4048d9:	e8 62 ff ff ff       	callq  404840 <_ZN10tensorflow9OperationD1Ev>
  4048de:	90                   	nop
  4048df:	c9                   	leaveq 
  4048e0:	c3                   	retq   
  4048e1:	90                   	nop

00000000004048e2 <_ZN10tensorflow6OutputC1ERKS0_>:
  4048e2:	55                   	push   %rbp
  4048e3:	48 89 e5             	mov    %rsp,%rbp
  4048e6:	48 83 ec 10          	sub    $0x10,%rsp
  4048ea:	48 89 7d f8          	mov    %rdi,-0x8(%rbp)
  4048ee:	48 89 75 f0          	mov    %rsi,-0x10(%rbp)
  4048f2:	48 8b 55 f0          	mov    -0x10(%rbp),%rdx
  4048f6:	48 8b 45 f8          	mov    -0x8(%rbp),%rax
  4048fa:	48 89 d6             	mov    %rdx,%rsi
  4048fd:	48 89 c7             	mov    %rax,%rdi
  404900:	e8 57 ff ff ff       	callq  40485c <_ZN10tensorflow9OperationC1ERKS0_>
  404905:	48 8b 45 f0          	mov    -0x10(%rbp),%rax
  404909:	8b 50 20             	mov    0x20(%rax),%edx
  40490c:	48 8b 45 f8          	mov    -0x8(%rbp),%rax
  404910:	89 50 20             	mov    %edx,0x20(%rax)
  404913:	90                   	nop
  404914:	c9                   	leaveq 
  404915:	c3                   	retq   

0000000000404916 <_ZN10tensorflow5InputC1ERKNS_6OutputE>:
  404916:	55                   	push   %rbp
  404917:	48 89 e5             	mov    %rsp,%rbp
  40491a:	53                   	push   %rbx
  40491b:	48 83 ec 28          	sub    $0x28,%rsp
  40491f:	48 89 7d d8          	mov    %rdi,-0x28(%rbp)
  404923:	48 89 75 d0          	mov    %rsi,-0x30(%rbp)
  404927:	64 48 8b 04 25 28 00 	mov    %fs:0x28,%rax
  40492e:	00 00 
  404930:	48 89 45 e8          	mov    %rax,-0x18(%rbp)
  404934:	31 c0                	xor    %eax,%eax
  404936:	48 8b 45 d8          	mov    -0x28(%rbp),%rax
  40493a:	48 89 c7             	mov    %rax,%rdi
  40493d:	e8 f6 f7 ff ff       	callq  404138 <_ZN10tensorflow6StatusC1Ev>
  404942:	48 8b 45 d8          	mov    -0x28(%rbp),%rax
  404946:	48 8d 50 08          	lea    0x8(%rax),%rdx
  40494a:	48 8b 45 d0          	mov    -0x30(%rbp),%rax
  40494e:	48 89 c6             	mov    %rax,%rsi
  404951:	48 89 d7             	mov    %rdx,%rdi
  404954:	e8 89 ff ff ff       	callq  4048e2 <_ZN10tensorflow6OutputC1ERKS0_>
  404959:	48 8b 45 d8          	mov    -0x28(%rbp),%rax
  40495d:	48 83 c0 30          	add    $0x30,%rax
  404961:	48 89 c7             	mov    %rax,%rdi
  404964:	e8 c7 e4 ff ff       	callq  402e30 <_ZN10tensorflow6TensorC1Ev@plt>
  404969:	48 8d 45 e7          	lea    -0x19(%rbp),%rax
  40496d:	48 89 c7             	mov    %rax,%rdi
  404970:	e8 7b e4 ff ff       	callq  402df0 <_ZNSaIcEC1Ev@plt>
  404975:	48 8b 45 d8          	mov    -0x28(%rbp),%rax
  404979:	48 8d 48 50          	lea    0x50(%rax),%rcx
  40497d:	48 8d 45 e7          	lea    -0x19(%rbp),%rax
  404981:	48 89 c2             	mov    %rax,%rdx
  404984:	be 40 90 40 00       	mov    $0x409040,%esi
  404989:	48 89 cf             	mov    %rcx,%rdi
  40498c:	e8 af e6 ff ff       	callq  403040 <_ZNSt7__cxx1112basic_stringIcSt11char_traitsIcESaIcEEC1EPKcRKS3_@plt>
  404991:	48 8d 45 e7          	lea    -0x19(%rbp),%rax
  404995:	48 89 c7             	mov    %rax,%rdi
  404998:	e8 a3 e8 ff ff       	callq  403240 <_ZNSaIcED1Ev@plt>
  40499d:	48 8b 45 d8          	mov    -0x28(%rbp),%rax
  4049a1:	c7 40 70 00 00 00 00 	movl   $0x0,0x70(%rax)
  4049a8:	48 8b 45 d8          	mov    -0x28(%rbp),%rax
  4049ac:	c7 40 74 00 00 00 00 	movl   $0x0,0x74(%rax)
  4049b3:	90                   	nop
  4049b4:	48 8b 45 e8          	mov    -0x18(%rbp),%rax
  4049b8:	64 48 33 04 25 28 00 	xor    %fs:0x28,%rax
  4049bf:	00 00 
  4049c1:	74 57                	je     404a1a <_ZN10tensorflow5InputC1ERKNS_6OutputE+0x104>
  4049c3:	eb 50                	jmp    404a15 <_ZN10tensorflow5InputC1ERKNS_6OutputE+0xff>
  4049c5:	48 89 c3             	mov    %rax,%rbx
  4049c8:	48 8d 45 e7          	lea    -0x19(%rbp),%rax
  4049cc:	48 89 c7             	mov    %rax,%rdi
  4049cf:	e8 6c e8 ff ff       	callq  403240 <_ZNSaIcED1Ev@plt>
  4049d4:	48 8b 45 d8          	mov    -0x28(%rbp),%rax
  4049d8:	48 83 c0 30          	add    $0x30,%rax
  4049dc:	48 89 c7             	mov    %rax,%rdi
  4049df:	e8 ec e3 ff ff       	callq  402dd0 <_ZN10tensorflow6TensorD1Ev@plt>
  4049e4:	eb 03                	jmp    4049e9 <_ZN10tensorflow5InputC1ERKNS_6OutputE+0xd3>
  4049e6:	48 89 c3             	mov    %rax,%rbx
  4049e9:	48 8b 45 d8          	mov    -0x28(%rbp),%rax
  4049ed:	48 83 c0 08          	add    $0x8,%rax
  4049f1:	48 89 c7             	mov    %rax,%rdi
  4049f4:	e8 cd fe ff ff       	callq  4048c6 <_ZN10tensorflow6OutputD1Ev>
  4049f9:	eb 03                	jmp    4049fe <_ZN10tensorflow5InputC1ERKNS_6OutputE+0xe8>
  4049fb:	48 89 c3             	mov    %rax,%rbx
  4049fe:	48 8b 45 d8          	mov    -0x28(%rbp),%rax
  404a02:	48 89 c7             	mov    %rax,%rdi
  404a05:	e8 4a f7 ff ff       	callq  404154 <_ZN10tensorflow6StatusD1Ev>
  404a0a:	48 89 d8             	mov    %rbx,%rax
  404a0d:	48 89 c7             	mov    %rax,%rdi
  404a10:	e8 fb e5 ff ff       	callq  403010 <_Unwind_Resume@plt>
  404a15:	e8 46 e3 ff ff       	callq  402d60 <__stack_chk_fail@plt>
  404a1a:	48 83 c4 28          	add    $0x28,%rsp
  404a1e:	5b                   	pop    %rbx
  404a1f:	5d                   	pop    %rbp
  404a20:	c3                   	retq   
  404a21:	90                   	nop

0000000000404a22 <_ZN10tensorflow5InputC1ERKNS_6TensorE>:
  404a22:	55                   	push   %rbp
  404a23:	48 89 e5             	mov    %rsp,%rbp
  404a26:	53                   	push   %rbx
  404a27:	48 83 ec 48          	sub    $0x48,%rsp
  404a2b:	48 89 7d b8          	mov    %rdi,-0x48(%rbp)
  404a2f:	48 89 75 b0          	mov    %rsi,-0x50(%rbp)
  404a33:	64 48 8b 04 25 28 00 	mov    %fs:0x28,%rax
  404a3a:	00 00 
  404a3c:	48 89 45 e8          	mov    %rax,-0x18(%rbp)
  404a40:	31 c0                	xor    %eax,%eax
  404a42:	48 8b 45 b8          	mov    -0x48(%rbp),%rax
  404a46:	48 89 c7             	mov    %rax,%rdi
  404a49:	e8 21 f7 ff ff       	callq  40416f <_ZN10tensorflow6Status2OKEv>
  404a4e:	48 8d 45 c0          	lea    -0x40(%rbp),%rax
  404a52:	be 00 00 00 00       	mov    $0x0,%esi
  404a57:	48 89 c7             	mov    %rax,%rdi
  404a5a:	e8 41 e6 ff ff       	callq  4030a0 <_ZN10tensorflow9OperationC1EPNS_4NodeE@plt>
  404a5f:	48 8b 45 b8          	mov    -0x48(%rbp),%rax
  404a63:	48 8d 48 08          	lea    0x8(%rax),%rcx
  404a67:	48 8d 45 c0          	lea    -0x40(%rbp),%rax
  404a6b:	ba 00 00 00 00       	mov    $0x0,%edx
  404a70:	48 89 c6             	mov    %rax,%rsi
  404a73:	48 89 cf             	mov    %rcx,%rdi
  404a76:	e8 17 fe ff ff       	callq  404892 <_ZN10tensorflow6OutputC1ERKNS_9OperationEi>
  404a7b:	48 8d 45 c0          	lea    -0x40(%rbp),%rax
  404a7f:	48 89 c7             	mov    %rax,%rdi
  404a82:	e8 b9 fd ff ff       	callq  404840 <_ZN10tensorflow9OperationD1Ev>
  404a87:	48 8b 45 b8          	mov    -0x48(%rbp),%rax
  404a8b:	48 8d 50 30          	lea    0x30(%rax),%rdx
  404a8f:	48 8b 45 b0          	mov    -0x50(%rbp),%rax
  404a93:	48 89 c6             	mov    %rax,%rsi
  404a96:	48 89 d7             	mov    %rdx,%rdi
  404a99:	e8 22 fd ff ff       	callq  4047c0 <_ZN10tensorflow6TensorC1ERKS0_>
  404a9e:	48 8d 45 c0          	lea    -0x40(%rbp),%rax
  404aa2:	48 89 c7             	mov    %rax,%rdi
  404aa5:	e8 46 e3 ff ff       	callq  402df0 <_ZNSaIcEC1Ev@plt>
  404aaa:	48 8b 45 b8          	mov    -0x48(%rbp),%rax
  404aae:	48 8d 48 50          	lea    0x50(%rax),%rcx
  404ab2:	48 8d 45 c0          	lea    -0x40(%rbp),%rax
  404ab6:	48 89 c2             	mov    %rax,%rdx
  404ab9:	be 40 90 40 00       	mov    $0x409040,%esi
  404abe:	48 89 cf             	mov    %rcx,%rdi
  404ac1:	e8 7a e5 ff ff       	callq  403040 <_ZNSt7__cxx1112basic_stringIcSt11char_traitsIcESaIcEEC1EPKcRKS3_@plt>
  404ac6:	48 8d 45 c0          	lea    -0x40(%rbp),%rax
  404aca:	48 89 c7             	mov    %rax,%rdi
  404acd:	e8 6e e7 ff ff       	callq  403240 <_ZNSaIcED1Ev@plt>
  404ad2:	48 8b 45 b8          	mov    -0x48(%rbp),%rax
  404ad6:	c7 40 70 00 00 00 00 	movl   $0x0,0x70(%rax)
  404add:	48 8b 45 b8          	mov    -0x48(%rbp),%rax
  404ae1:	c7 40 74 00 00 00 00 	movl   $0x0,0x74(%rax)
  404ae8:	90                   	nop
  404ae9:	48 8b 45 e8          	mov    -0x18(%rbp),%rax
  404aed:	64 48 33 04 25 28 00 	xor    %fs:0x28,%rax
  404af4:	00 00 
  404af6:	74 68                	je     404b60 <_ZN10tensorflow5InputC1ERKNS_6TensorE+0x13e>
  404af8:	eb 61                	jmp    404b5b <_ZN10tensorflow5InputC1ERKNS_6TensorE+0x139>
  404afa:	48 89 c3             	mov    %rax,%rbx
  404afd:	48 8d 45 c0          	lea    -0x40(%rbp),%rax
  404b01:	48 89 c7             	mov    %rax,%rdi
  404b04:	e8 37 fd ff ff       	callq  404840 <_ZN10tensorflow9OperationD1Ev>
  404b09:	eb 39                	jmp    404b44 <_ZN10tensorflow5InputC1ERKNS_6TensorE+0x122>
  404b0b:	48 89 c3             	mov    %rax,%rbx
  404b0e:	48 8d 45 c0          	lea    -0x40(%rbp),%rax
  404b12:	48 89 c7             	mov    %rax,%rdi
  404b15:	e8 26 e7 ff ff       	callq  403240 <_ZNSaIcED1Ev@plt>
  404b1a:	48 8b 45 b8          	mov    -0x48(%rbp),%rax
  404b1e:	48 83 c0 30          	add    $0x30,%rax
  404b22:	48 89 c7             	mov    %rax,%rdi
  404b25:	e8 a6 e2 ff ff       	callq  402dd0 <_ZN10tensorflow6TensorD1Ev@plt>
  404b2a:	eb 03                	jmp    404b2f <_ZN10tensorflow5InputC1ERKNS_6TensorE+0x10d>
  404b2c:	48 89 c3             	mov    %rax,%rbx
  404b2f:	48 8b 45 b8          	mov    -0x48(%rbp),%rax
  404b33:	48 83 c0 08          	add    $0x8,%rax
  404b37:	48 89 c7             	mov    %rax,%rdi
  404b3a:	e8 87 fd ff ff       	callq  4048c6 <_ZN10tensorflow6OutputD1Ev>
  404b3f:	eb 03                	jmp    404b44 <_ZN10tensorflow5InputC1ERKNS_6TensorE+0x122>
  404b41:	48 89 c3             	mov    %rax,%rbx
  404b44:	48 8b 45 b8          	mov    -0x48(%rbp),%rax
  404b48:	48 89 c7             	mov    %rax,%rdi
  404b4b:	e8 04 f6 ff ff       	callq  404154 <_ZN10tensorflow6StatusD1Ev>
  404b50:	48 89 d8             	mov    %rbx,%rax
  404b53:	48 89 c7             	mov    %rax,%rdi
  404b56:	e8 b5 e4 ff ff       	callq  403010 <_Unwind_Resume@plt>
  404b5b:	e8 00 e2 ff ff       	callq  402d60 <__stack_chk_fail@plt>
  404b60:	48 83 c4 48          	add    $0x48,%rsp
  404b64:	5b                   	pop    %rbx
  404b65:	5d                   	pop    %rbp
  404b66:	c3                   	retq   
  404b67:	90                   	nop

0000000000404b68 <_ZN10tensorflow5Input11InitializerD1Ev>:
  404b68:	55                   	push   %rbp
  404b69:	48 89 e5             	mov    %rsp,%rbp
  404b6c:	48 83 ec 10          	sub    $0x10,%rsp
  404b70:	48 89 7d f8          	mov    %rdi,-0x8(%rbp)
  404b74:	48 8b 45 f8          	mov    -0x8(%rbp),%rax
  404b78:	48 83 c0 08          	add    $0x8,%rax
  404b7c:	48 89 c7             	mov    %rax,%rdi
  404b7f:	e8 4c e2 ff ff       	callq  402dd0 <_ZN10tensorflow6TensorD1Ev@plt>
  404b84:	48 8b 45 f8          	mov    -0x8(%rbp),%rax
  404b88:	48 89 c7             	mov    %rax,%rdi
  404b8b:	e8 c4 f5 ff ff       	callq  404154 <_ZN10tensorflow6StatusD1Ev>
  404b90:	90                   	nop
  404b91:	c9                   	leaveq 
  404b92:	c3                   	retq   
  404b93:	90                   	nop

0000000000404b94 <_ZN10tensorflow5InputD1Ev>:
  404b94:	55                   	push   %rbp
  404b95:	48 89 e5             	mov    %rsp,%rbp
  404b98:	48 83 ec 10          	sub    $0x10,%rsp
  404b9c:	48 89 7d f8          	mov    %rdi,-0x8(%rbp)
  404ba0:	48 8b 45 f8          	mov    -0x8(%rbp),%rax
  404ba4:	48 83 c0 50          	add    $0x50,%rax
  404ba8:	48 89 c7             	mov    %rax,%rdi
  404bab:	e8 00 e3 ff ff       	callq  402eb0 <_ZNSt7__cxx1112basic_stringIcSt11char_traitsIcESaIcEED1Ev@plt>
  404bb0:	48 8b 45 f8          	mov    -0x8(%rbp),%rax
  404bb4:	48 83 c0 30          	add    $0x30,%rax
  404bb8:	48 89 c7             	mov    %rax,%rdi
  404bbb:	e8 10 e2 ff ff       	callq  402dd0 <_ZN10tensorflow6TensorD1Ev@plt>
  404bc0:	48 8b 45 f8          	mov    -0x8(%rbp),%rax
  404bc4:	48 83 c0 08          	add    $0x8,%rax
  404bc8:	48 89 c7             	mov    %rax,%rdi
  404bcb:	e8 f6 fc ff ff       	callq  4048c6 <_ZN10tensorflow6OutputD1Ev>
  404bd0:	48 8b 45 f8          	mov    -0x8(%rbp),%rax
  404bd4:	48 89 c7             	mov    %rax,%rdi
  404bd7:	e8 78 f5 ff ff       	callq  404154 <_ZN10tensorflow6StatusD1Ev>
  404bdc:	90                   	nop
  404bdd:	c9                   	leaveq 
  404bde:	c3                   	retq   
  404bdf:	90                   	nop

0000000000404be0 <_ZNKSt16initializer_listIN10tensorflow6OutputEE5beginEv>:
  404be0:	55                   	push   %rbp
  404be1:	48 89 e5             	mov    %rsp,%rbp
  404be4:	48 89 7d f8          	mov    %rdi,-0x8(%rbp)
  404be8:	48 8b 45 f8          	mov    -0x8(%rbp),%rax
  404bec:	48 8b 00             	mov    (%rax),%rax
  404bef:	5d                   	pop    %rbp
  404bf0:	c3                   	retq   
  404bf1:	90                   	nop

0000000000404bf2 <_ZNKSt16initializer_listIN10tensorflow6OutputEE4sizeEv>:
  404bf2:	55                   	push   %rbp
  404bf3:	48 89 e5             	mov    %rsp,%rbp
  404bf6:	48 89 7d f8          	mov    %rdi,-0x8(%rbp)
  404bfa:	48 8b 45 f8          	mov    -0x8(%rbp),%rax
  404bfe:	48 8b 40 08          	mov    0x8(%rax),%rax
  404c02:	5d                   	pop    %rbp
  404c03:	c3                   	retq   

0000000000404c04 <_ZNKSt16initializer_listIN10tensorflow6OutputEE3endEv>:
  404c04:	55                   	push   %rbp
  404c05:	48 89 e5             	mov    %rsp,%rbp
  404c08:	53                   	push   %rbx
  404c09:	48 83 ec 18          	sub    $0x18,%rsp
  404c0d:	48 89 7d e8          	mov    %rdi,-0x18(%rbp)
  404c11:	48 8b 45 e8          	mov    -0x18(%rbp),%rax
  404c15:	48 89 c7             	mov    %rax,%rdi
  404c18:	e8 c3 ff ff ff       	callq  404be0 <_ZNKSt16initializer_listIN10tensorflow6OutputEE5beginEv>
  404c1d:	48 89 c3             	mov    %rax,%rbx
  404c20:	48 8b 45 e8          	mov    -0x18(%rbp),%rax
  404c24:	48 89 c7             	mov    %rax,%rdi
  404c27:	e8 c6 ff ff ff       	callq  404bf2 <_ZNKSt16initializer_listIN10tensorflow6OutputEE4sizeEv>
  404c2c:	48 89 c2             	mov    %rax,%rdx
  404c2f:	48 89 d0             	mov    %rdx,%rax
  404c32:	48 c1 e0 02          	shl    $0x2,%rax
  404c36:	48 01 d0             	add    %rdx,%rax
  404c39:	48 c1 e0 03          	shl    $0x3,%rax
  404c3d:	48 01 d8             	add    %rbx,%rax
  404c40:	48 83 c4 18          	add    $0x18,%rsp
  404c44:	5b                   	pop    %rbx
  404c45:	5d                   	pop    %rbp
  404c46:	c3                   	retq   
  404c47:	90                   	nop

0000000000404c48 <_ZNK10tensorflow3ops14ResizeBilinearcvNS_6OutputEEv>:
  404c48:	55                   	push   %rbp
  404c49:	48 89 e5             	mov    %rsp,%rbp
  404c4c:	48 83 ec 10          	sub    $0x10,%rsp
  404c50:	48 89 7d f8          	mov    %rdi,-0x8(%rbp)
  404c54:	48 89 75 f0          	mov    %rsi,-0x10(%rbp)
  404c58:	48 8b 55 f0          	mov    -0x10(%rbp),%rdx
  404c5c:	48 8b 45 f8          	mov    -0x8(%rbp),%rax
  404c60:	48 89 d6             	mov    %rdx,%rsi
  404c63:	48 89 c7             	mov    %rax,%rdi
  404c66:	e8 77 fc ff ff       	callq  4048e2 <_ZN10tensorflow6OutputC1ERKS0_>
  404c6b:	48 8b 45 f8          	mov    -0x8(%rbp),%rax
  404c6f:	c9                   	leaveq 
  404c70:	c3                   	retq   
  404c71:	90                   	nop

0000000000404c72 <_ZNK10tensorflow13NodeExecStats9node_nameB5cxx11Ev>:
  404c72:	55                   	push   %rbp
  404c73:	48 89 e5             	mov    %rsp,%rbp
  404c76:	48 83 ec 10          	sub    $0x10,%rsp
  404c7a:	48 89 7d f8          	mov    %rdi,-0x8(%rbp)
  404c7e:	48 8b 45 f8          	mov    -0x8(%rbp),%rax
  404c82:	48 83 c0 58          	add    $0x58,%rax
  404c86:	48 89 c7             	mov    %rax,%rdi
  404c89:	e8 28 f3 ff ff       	callq  403fb6 <_ZNK6google8protobuf8internal14ArenaStringPtr3GetB5cxx11Ev>
  404c8e:	c9                   	leaveq 
  404c8f:	c3                   	retq   

0000000000404c90 <_ZNK10tensorflow13NodeExecStats18all_end_rel_microsEv>:
  404c90:	55                   	push   %rbp
  404c91:	48 89 e5             	mov    %rsp,%rbp
  404c94:	48 89 7d f8          	mov    %rdi,-0x8(%rbp)
  404c98:	48 8b 45 f8          	mov    -0x8(%rbp),%rax
  404c9c:	48 8b 80 88 00 00 00 	mov    0x88(%rax),%rax
  404ca3:	5d                   	pop    %rbp
  404ca4:	c3                   	retq   
  404ca5:	90                   	nop

0000000000404ca6 <_ZNK10tensorflow15DeviceStepStats10node_statsEv>:
  404ca6:	55                   	push   %rbp
  404ca7:	48 89 e5             	mov    %rsp,%rbp
  404caa:	48 89 7d f8          	mov    %rdi,-0x8(%rbp)
  404cae:	48 8b 45 f8          	mov    -0x8(%rbp),%rax
  404cb2:	48 83 c0 10          	add    $0x10,%rax
  404cb6:	5d                   	pop    %rbp
  404cb7:	c3                   	retq   

0000000000404cb8 <_ZNK10tensorflow9StepStats9dev_statsEv>:
  404cb8:	55                   	push   %rbp
  404cb9:	48 89 e5             	mov    %rsp,%rbp
  404cbc:	48 89 7d f8          	mov    %rdi,-0x8(%rbp)
  404cc0:	48 8b 45 f8          	mov    -0x8(%rbp),%rax
  404cc4:	48 83 c0 10          	add    $0x10,%rax
  404cc8:	5d                   	pop    %rbp
  404cc9:	c3                   	retq   

0000000000404cca <_ZN10tensorflow11RunMetadata25internal_default_instanceEv>:
  404cca:	55                   	push   %rbp
  404ccb:	48 89 e5             	mov    %rsp,%rbp
  404cce:	b8 c0 e2 60 00       	mov    $0x60e2c0,%eax
  404cd3:	5d                   	pop    %rbp
  404cd4:	c3                   	retq   
  404cd5:	90                   	nop

0000000000404cd6 <_ZN10tensorflow10RunOptions15set_trace_levelENS_21RunOptions_TraceLevelE>:
  404cd6:	55                   	push   %rbp
  404cd7:	48 89 e5             	mov    %rsp,%rbp
  404cda:	48 89 7d f8          	mov    %rdi,-0x8(%rbp)
  404cde:	89 75 f4             	mov    %esi,-0xc(%rbp)
  404ce1:	48 8b 45 f8          	mov    -0x8(%rbp),%rax
  404ce5:	8b 55 f4             	mov    -0xc(%rbp),%edx
  404ce8:	89 50 20             	mov    %edx,0x20(%rax)
  404ceb:	90                   	nop
  404cec:	5d                   	pop    %rbp
  404ced:	c3                   	retq   

0000000000404cee <_ZNK10tensorflow11RunMetadata14has_step_statsEv>:
  404cee:	55                   	push   %rbp
  404cef:	48 89 e5             	mov    %rsp,%rbp
  404cf2:	48 83 ec 10          	sub    $0x10,%rsp
  404cf6:	48 89 7d f8          	mov    %rdi,-0x8(%rbp)
  404cfa:	e8 cb ff ff ff       	callq  404cca <_ZN10tensorflow11RunMetadata25internal_default_instanceEv>
  404cff:	48 3b 45 f8          	cmp    -0x8(%rbp),%rax
  404d03:	74 14                	je     404d19 <_ZNK10tensorflow11RunMetadata14has_step_statsEv+0x2b>
  404d05:	48 8b 45 f8          	mov    -0x8(%rbp),%rax
  404d09:	48 8b 40 28          	mov    0x28(%rax),%rax
  404d0d:	48 85 c0             	test   %rax,%rax
  404d10:	74 07                	je     404d19 <_ZNK10tensorflow11RunMetadata14has_step_statsEv+0x2b>
  404d12:	b8 01 00 00 00       	mov    $0x1,%eax
  404d17:	eb 05                	jmp    404d1e <_ZNK10tensorflow11RunMetadata14has_step_statsEv+0x30>
  404d19:	b8 00 00 00 00       	mov    $0x0,%eax
  404d1e:	c9                   	leaveq 
  404d1f:	c3                   	retq   

0000000000404d20 <_ZNK10tensorflow11RunMetadata10step_statsEv>:
  404d20:	55                   	push   %rbp
  404d21:	48 89 e5             	mov    %rsp,%rbp
  404d24:	48 89 7d e8          	mov    %rdi,-0x18(%rbp)
  404d28:	48 8b 45 e8          	mov    -0x18(%rbp),%rax
  404d2c:	48 8b 40 28          	mov    0x28(%rax),%rax
  404d30:	48 89 45 f8          	mov    %rax,-0x8(%rbp)
  404d34:	48 83 7d f8 00       	cmpq   $0x0,-0x8(%rbp)
  404d39:	74 06                	je     404d41 <_ZNK10tensorflow11RunMetadata10step_statsEv+0x21>
  404d3b:	48 8b 45 f8          	mov    -0x8(%rbp),%rax
  404d3f:	eb 05                	jmp    404d46 <_ZNK10tensorflow11RunMetadata10step_statsEv+0x26>
  404d41:	b8 00 e3 60 00       	mov    $0x60e300,%eax
  404d46:	5d                   	pop    %rbp
  404d47:	c3                   	retq   

0000000000404d48 <_ZN10tensorflow21StatSummarizerOptionsC1Ev>:
  404d48:	55                   	push   %rbp
  404d49:	48 89 e5             	mov    %rsp,%rbp
  404d4c:	48 89 7d f8          	mov    %rdi,-0x8(%rbp)
  404d50:	48 8b 45 f8          	mov    -0x8(%rbp),%rax
  404d54:	c6 00 01             	movb   $0x1,(%rax)
  404d57:	48 8b 45 f8          	mov    -0x8(%rbp),%rax
  404d5b:	c7 40 04 00 00 00 00 	movl   $0x0,0x4(%rax)
  404d62:	48 8b 45 f8          	mov    -0x8(%rbp),%rax
  404d66:	c6 40 08 01          	movb   $0x1,0x8(%rax)
  404d6a:	48 8b 45 f8          	mov    -0x8(%rbp),%rax
  404d6e:	c7 40 0c 0a 00 00 00 	movl   $0xa,0xc(%rax)
  404d75:	48 8b 45 f8          	mov    -0x8(%rbp),%rax
  404d79:	c6 40 10 01          	movb   $0x1,0x10(%rax)
  404d7d:	48 8b 45 f8          	mov    -0x8(%rbp),%rax
  404d81:	c7 40 14 0a 00 00 00 	movl   $0xa,0x14(%rax)
  404d88:	48 8b 45 f8          	mov    -0x8(%rbp),%rax
  404d8c:	c6 40 18 01          	movb   $0x1,0x18(%rax)
  404d90:	48 8b 45 f8          	mov    -0x8(%rbp),%rax
  404d94:	c6 40 19 01          	movb   $0x1,0x19(%rax)
  404d98:	90                   	nop
  404d99:	5d                   	pop    %rbp
  404d9a:	c3                   	retq   
  404d9b:	90                   	nop

0000000000404d9c <_ZNK2CK5Shape10data_countEv>:
  404d9c:	55                   	push   %rbp
  404d9d:	48 89 e5             	mov    %rsp,%rbp
  404da0:	48 89 7d f8          	mov    %rdi,-0x8(%rbp)
  404da4:	48 8b 45 f8          	mov    -0x8(%rbp),%rax
  404da8:	8b 10                	mov    (%rax),%edx
  404daa:	48 8b 45 f8          	mov    -0x8(%rbp),%rax
  404dae:	8b 40 04             	mov    0x4(%rax),%eax
  404db1:	0f af d0             	imul   %eax,%edx
  404db4:	48 8b 45 f8          	mov    -0x8(%rbp),%rax
  404db8:	8b 40 08             	mov    0x8(%rax),%eax
  404dbb:	0f af d0             	imul   %eax,%edx
  404dbe:	48 8b 45 f8          	mov    -0x8(%rbp),%rax
  404dc2:	8b 40 0c             	mov    0xc(%rax),%eax
  404dc5:	0f af c2             	imul   %edx,%eax
  404dc8:	5d                   	pop    %rbp
  404dc9:	c3                   	retq   

0000000000404dca <_ZNK2CK5Shape14get_flat_indexEiiii>:
  404dca:	55                   	push   %rbp
  404dcb:	48 89 e5             	mov    %rsp,%rbp
  404dce:	48 83 ec 20          	sub    $0x20,%rsp
  404dd2:	48 89 7d f8          	mov    %rdi,-0x8(%rbp)
  404dd6:	89 75 f4             	mov    %esi,-0xc(%rbp)
  404dd9:	89 55 f0             	mov    %edx,-0x10(%rbp)
  404ddc:	89 4d ec             	mov    %ecx,-0x14(%rbp)
  404ddf:	44 89 45 e8          	mov    %r8d,-0x18(%rbp)
  404de3:	8b 7d e8             	mov    -0x18(%rbp),%edi
  404de6:	8b 4d ec             	mov    -0x14(%rbp),%ecx
  404de9:	8b 55 f0             	mov    -0x10(%rbp),%edx
  404dec:	8b 75 f4             	mov    -0xc(%rbp),%esi
  404def:	48 8b 45 f8          	mov    -0x8(%rbp),%rax
  404df3:	41 89 f8             	mov    %edi,%r8d
  404df6:	48 89 c7             	mov    %rax,%rdi
  404df9:	e8 02 00 00 00       	callq  404e00 <_ZNK2CK5Shape19get_flat_index_nchwEiiii>
  404dfe:	c9                   	leaveq 
  404dff:	c3                   	retq   

0000000000404e00 <_ZNK2CK5Shape19get_flat_index_nchwEiiii>:
  404e00:	55                   	push   %rbp
  404e01:	48 89 e5             	mov    %rsp,%rbp
  404e04:	48 89 7d f8          	mov    %rdi,-0x8(%rbp)
  404e08:	89 75 f4             	mov    %esi,-0xc(%rbp)
  404e0b:	89 55 f0             	mov    %edx,-0x10(%rbp)
  404e0e:	89 4d ec             	mov    %ecx,-0x14(%rbp)
  404e11:	44 89 45 e8          	mov    %r8d,-0x18(%rbp)
  404e15:	48 8b 45 f8          	mov    -0x8(%rbp),%rax
  404e19:	8b 40 04             	mov    0x4(%rax),%eax
  404e1c:	0f af 45 f4          	imul   -0xc(%rbp),%eax
  404e20:	89 c2                	mov    %eax,%edx
  404e22:	8b 45 f0             	mov    -0x10(%rbp),%eax
  404e25:	01 c2                	add    %eax,%edx
  404e27:	48 8b 45 f8          	mov    -0x8(%rbp),%rax
  404e2b:	8b 40 08             	mov    0x8(%rax),%eax
  404e2e:	0f af d0             	imul   %eax,%edx
  404e31:	8b 45 ec             	mov    -0x14(%rbp),%eax
  404e34:	01 c2                	add    %eax,%edx
  404e36:	48 8b 45 f8          	mov    -0x8(%rbp),%rax
  404e3a:	8b 40 0c             	mov    0xc(%rax),%eax
  404e3d:	0f af d0             	imul   %eax,%edx
  404e40:	8b 45 e8             	mov    -0x18(%rbp),%eax
  404e43:	01 d0                	add    %edx,%eax
  404e45:	5d                   	pop    %rbp
  404e46:	c3                   	retq   

0000000000404e47 <_ZN2CK8getenv_iEPKci>:
  404e47:	55                   	push   %rbp
  404e48:	48 89 e5             	mov    %rsp,%rbp
  404e4b:	48 83 ec 10          	sub    $0x10,%rsp
  404e4f:	48 89 7d f8          	mov    %rdi,-0x8(%rbp)
  404e53:	89 75 f4             	mov    %esi,-0xc(%rbp)
  404e56:	48 8b 45 f8          	mov    -0x8(%rbp),%rax
  404e5a:	48 89 c7             	mov    %rax,%rdi
  404e5d:	e8 5e e0 ff ff       	callq  402ec0 <getenv@plt>
  404e62:	48 85 c0             	test   %rax,%rax
  404e65:	74 16                	je     404e7d <_ZN2CK8getenv_iEPKci+0x36>
  404e67:	48 8b 45 f8          	mov    -0x8(%rbp),%rax
  404e6b:	48 89 c7             	mov    %rax,%rdi
  404e6e:	e8 4d e0 ff ff       	callq  402ec0 <getenv@plt>
  404e73:	48 89 c7             	mov    %rax,%rdi
  404e76:	e8 15 e1 ff ff       	callq  402f90 <atoi@plt>
  404e7b:	eb 03                	jmp    404e80 <_ZN2CK8getenv_iEPKci+0x39>
  404e7d:	8b 45 f4             	mov    -0xc(%rbp),%eax
  404e80:	c9                   	leaveq 
  404e81:	c3                   	retq   

0000000000404e82 <_ZN2CK13store_value_iEiPKci>:
  404e82:	55                   	push   %rbp
  404e83:	48 89 e5             	mov    %rsp,%rbp
  404e86:	48 83 ec 20          	sub    $0x20,%rsp
  404e8a:	89 7d ec             	mov    %edi,-0x14(%rbp)
  404e8d:	48 89 75 e0          	mov    %rsi,-0x20(%rbp)
  404e91:	89 55 e8             	mov    %edx,-0x18(%rbp)
  404e94:	48 8b 45 e0          	mov    -0x20(%rbp),%rax
  404e98:	48 89 c7             	mov    %rax,%rdi
  404e9b:	e8 20 e1 ff ff       	callq  402fc0 <strlen@plt>
  404ea0:	48 83 c0 06          	add    $0x6,%rax
  404ea4:	48 89 c7             	mov    %rax,%rdi
  404ea7:	e8 b4 e2 ff ff       	callq  403160 <_Znam@plt>
  404eac:	48 89 45 f8          	mov    %rax,-0x8(%rbp)
  404eb0:	48 8b 55 e0          	mov    -0x20(%rbp),%rdx
  404eb4:	48 8b 45 f8          	mov    -0x8(%rbp),%rax
  404eb8:	be 80 90 40 00       	mov    $0x409080,%esi
  404ebd:	48 89 c7             	mov    %rax,%rdi
  404ec0:	b8 00 00 00 00       	mov    $0x0,%eax
  404ec5:	e8 36 df ff ff       	callq  402e00 <sprintf@plt>
  404eca:	8b 55 e8             	mov    -0x18(%rbp),%edx
  404ecd:	48 8b 4d f8          	mov    -0x8(%rbp),%rcx
  404ed1:	8b 45 ec             	mov    -0x14(%rbp),%eax
  404ed4:	48 89 ce             	mov    %rcx,%rsi
  404ed7:	89 c7                	mov    %eax,%edi
  404ed9:	e8 f2 e0 ff ff       	callq  402fd0 <xopenme_add_var_i@plt>
  404ede:	48 83 7d f8 00       	cmpq   $0x0,-0x8(%rbp)
  404ee3:	74 0c                	je     404ef1 <_ZN2CK13store_value_iEiPKci+0x6f>
  404ee5:	48 8b 45 f8          	mov    -0x8(%rbp),%rax
  404ee9:	48 89 c7             	mov    %rax,%rdi
  404eec:	e8 af e0 ff ff       	callq  402fa0 <_ZdaPv@plt>
  404ef1:	90                   	nop
  404ef2:	c9                   	leaveq 
  404ef3:	c3                   	retq   

0000000000404ef4 <_ZN2CK13store_value_fEiPKcf>:
  404ef4:	55                   	push   %rbp
  404ef5:	48 89 e5             	mov    %rsp,%rbp
  404ef8:	48 83 ec 30          	sub    $0x30,%rsp
  404efc:	89 7d ec             	mov    %edi,-0x14(%rbp)
  404eff:	48 89 75 e0          	mov    %rsi,-0x20(%rbp)
  404f03:	f3 0f 11 45 e8       	movss  %xmm0,-0x18(%rbp)
  404f08:	48 8b 45 e0          	mov    -0x20(%rbp),%rax
  404f0c:	48 89 c7             	mov    %rax,%rdi
  404f0f:	e8 ac e0 ff ff       	callq  402fc0 <strlen@plt>
  404f14:	48 83 c0 06          	add    $0x6,%rax
  404f18:	48 89 c7             	mov    %rax,%rdi
  404f1b:	e8 40 e2 ff ff       	callq  403160 <_Znam@plt>
  404f20:	48 89 45 f8          	mov    %rax,-0x8(%rbp)
  404f24:	48 8b 55 e0          	mov    -0x20(%rbp),%rdx
  404f28:	48 8b 45 f8          	mov    -0x8(%rbp),%rax
  404f2c:	be 89 90 40 00       	mov    $0x409089,%esi
  404f31:	48 89 c7             	mov    %rax,%rdi
  404f34:	b8 00 00 00 00       	mov    $0x0,%eax
  404f39:	e8 c2 de ff ff       	callq  402e00 <sprintf@plt>
  404f3e:	8b 4d e8             	mov    -0x18(%rbp),%ecx
  404f41:	48 8b 55 f8          	mov    -0x8(%rbp),%rdx
  404f45:	8b 45 ec             	mov    -0x14(%rbp),%eax
  404f48:	89 4d dc             	mov    %ecx,-0x24(%rbp)
  404f4b:	f3 0f 10 45 dc       	movss  -0x24(%rbp),%xmm0
  404f50:	48 89 d6             	mov    %rdx,%rsi
  404f53:	89 c7                	mov    %eax,%edi
  404f55:	e8 56 e1 ff ff       	callq  4030b0 <xopenme_add_var_f@plt>
  404f5a:	48 83 7d f8 00       	cmpq   $0x0,-0x8(%rbp)
  404f5f:	74 0c                	je     404f6d <_ZN2CK13store_value_fEiPKcf+0x79>
  404f61:	48 8b 45 f8          	mov    -0x8(%rbp),%rax
  404f65:	48 89 c7             	mov    %rax,%rdi
  404f68:	e8 33 e0 ff ff       	callq  402fa0 <_ZdaPv@plt>
  404f6d:	90                   	nop
  404f6e:	c9                   	leaveq 
  404f6f:	c3                   	retq   

0000000000404f70 <_ZN2CK24get_input_shape_from_envEiiii>:
  404f70:	55                   	push   %rbp
  404f71:	48 89 e5             	mov    %rsp,%rbp
  404f74:	48 83 ec 30          	sub    $0x30,%rsp
  404f78:	89 7d dc             	mov    %edi,-0x24(%rbp)
  404f7b:	89 75 d8             	mov    %esi,-0x28(%rbp)
  404f7e:	89 55 d4             	mov    %edx,-0x2c(%rbp)
  404f81:	89 4d d0             	mov    %ecx,-0x30(%rbp)
  404f84:	64 48 8b 04 25 28 00 	mov    %fs:0x28,%rax
  404f8b:	00 00 
  404f8d:	48 89 45 f8          	mov    %rax,-0x8(%rbp)
  404f91:	31 c0                	xor    %eax,%eax
  404f93:	c7 45 e0 01 00 00 00 	movl   $0x1,-0x20(%rbp)
  404f9a:	c7 45 e4 01 00 00 00 	movl   $0x1,-0x1c(%rbp)
  404fa1:	c7 45 e8 01 00 00 00 	movl   $0x1,-0x18(%rbp)
  404fa8:	c7 45 ec 01 00 00 00 	movl   $0x1,-0x14(%rbp)
  404faf:	8b 45 dc             	mov    -0x24(%rbp),%eax
  404fb2:	89 c6                	mov    %eax,%esi
  404fb4:	bf 92 90 40 00       	mov    $0x409092,%edi
  404fb9:	e8 89 fe ff ff       	callq  404e47 <_ZN2CK8getenv_iEPKci>
  404fbe:	89 45 e0             	mov    %eax,-0x20(%rbp)
  404fc1:	8b 45 d8             	mov    -0x28(%rbp),%eax
  404fc4:	89 c6                	mov    %eax,%esi
  404fc6:	bf a0 90 40 00       	mov    $0x4090a0,%edi
  404fcb:	e8 77 fe ff ff       	callq  404e47 <_ZN2CK8getenv_iEPKci>
  404fd0:	89 45 e4             	mov    %eax,-0x1c(%rbp)
  404fd3:	8b 45 d4             	mov    -0x2c(%rbp),%eax
  404fd6:	89 c6                	mov    %eax,%esi
  404fd8:	bf ae 90 40 00       	mov    $0x4090ae,%edi
  404fdd:	e8 65 fe ff ff       	callq  404e47 <_ZN2CK8getenv_iEPKci>
  404fe2:	89 45 e8             	mov    %eax,-0x18(%rbp)
  404fe5:	8b 45 d0             	mov    -0x30(%rbp),%eax
  404fe8:	89 c6                	mov    %eax,%esi
  404fea:	bf bc 90 40 00       	mov    $0x4090bc,%edi
  404fef:	e8 53 fe ff ff       	callq  404e47 <_ZN2CK8getenv_iEPKci>
  404ff4:	89 45 ec             	mov    %eax,-0x14(%rbp)
  404ff7:	8b 45 e0             	mov    -0x20(%rbp),%eax
  404ffa:	89 c2                	mov    %eax,%edx
  404ffc:	be ca 90 40 00       	mov    $0x4090ca,%esi
  405001:	bf 04 00 00 00       	mov    $0x4,%edi
  405006:	e8 77 fe ff ff       	callq  404e82 <_ZN2CK13store_value_iEiPKci>
  40500b:	8b 45 e4             	mov    -0x1c(%rbp),%eax
  40500e:	89 c2                	mov    %eax,%edx
  405010:	be d5 90 40 00       	mov    $0x4090d5,%esi
  405015:	bf 05 00 00 00       	mov    $0x5,%edi
  40501a:	e8 63 fe ff ff       	callq  404e82 <_ZN2CK13store_value_iEiPKci>
  40501f:	8b 45 e8             	mov    -0x18(%rbp),%eax
  405022:	89 c2                	mov    %eax,%edx
  405024:	be e0 90 40 00       	mov    $0x4090e0,%esi
  405029:	bf 06 00 00 00       	mov    $0x6,%edi
  40502e:	e8 4f fe ff ff       	callq  404e82 <_ZN2CK13store_value_iEiPKci>
  405033:	8b 45 ec             	mov    -0x14(%rbp),%eax
  405036:	89 c2                	mov    %eax,%edx
  405038:	be eb 90 40 00       	mov    $0x4090eb,%esi
  40503d:	bf 07 00 00 00       	mov    $0x7,%edi
  405042:	e8 3b fe ff ff       	callq  404e82 <_ZN2CK13store_value_iEiPKci>
  405047:	8b 75 ec             	mov    -0x14(%rbp),%esi
  40504a:	8b 4d e8             	mov    -0x18(%rbp),%ecx
  40504d:	8b 55 e4             	mov    -0x1c(%rbp),%edx
  405050:	8b 45 e0             	mov    -0x20(%rbp),%eax
  405053:	41 89 f0             	mov    %esi,%r8d
  405056:	89 c6                	mov    %eax,%esi
  405058:	bf f8 90 40 00       	mov    $0x4090f8,%edi
  40505d:	b8 00 00 00 00       	mov    $0x0,%eax
  405062:	e8 d9 dd ff ff       	callq  402e40 <printf@plt>
  405067:	48 8b 45 e0          	mov    -0x20(%rbp),%rax
  40506b:	48 8b 55 e8          	mov    -0x18(%rbp),%rdx
  40506f:	48 8b 4d f8          	mov    -0x8(%rbp),%rcx
  405073:	64 48 33 0c 25 28 00 	xor    %fs:0x28,%rcx
  40507a:	00 00 
  40507c:	74 05                	je     405083 <_ZN2CK24get_input_shape_from_envEiiii+0x113>
  40507e:	e8 dd dc ff ff       	callq  402d60 <__stack_chk_fail@plt>
  405083:	c9                   	leaveq 
  405084:	c3                   	retq   

0000000000405085 <_ZN2CK9init_testEv>:
  405085:	55                   	push   %rbp
  405086:	48 89 e5             	mov    %rsp,%rbp
  405089:	48 83 ec 10          	sub    $0x10,%rsp
  40508d:	be 0c 00 00 00       	mov    $0xc,%esi
  405092:	bf 02 00 00 00       	mov    $0x2,%edi
  405097:	e8 c4 de ff ff       	callq  402f60 <xopenme_init@plt>
  40509c:	be 2a 00 00 00       	mov    $0x2a,%esi
  4050a1:	bf 2f 91 40 00       	mov    $0x40912f,%edi
  4050a6:	e8 9c fd ff ff       	callq  404e47 <_ZN2CK8getenv_iEPKci>
  4050ab:	89 45 fc             	mov    %eax,-0x4(%rbp)
  4050ae:	8b 45 fc             	mov    -0x4(%rbp),%eax
  4050b1:	89 c2                	mov    %eax,%edx
  4050b3:	be 37 91 40 00       	mov    $0x409137,%esi
  4050b8:	bf 08 00 00 00       	mov    $0x8,%edi
  4050bd:	e8 c0 fd ff ff       	callq  404e82 <_ZN2CK13store_value_iEiPKci>
  4050c2:	8b 45 fc             	mov    -0x4(%rbp),%eax
  4050c5:	89 c7                	mov    %eax,%edi
  4050c7:	e8 54 de ff ff       	callq  402f20 <srand@plt>
  4050cc:	90                   	nop
  4050cd:	c9                   	leaveq 
  4050ce:	c3                   	retq   

00000000004050cf <_ZN2CK11finish_testEv>:
  4050cf:	55                   	push   %rbp
  4050d0:	48 89 e5             	mov    %rsp,%rbp
  4050d3:	bf 00 00 00 00       	mov    $0x0,%edi
  4050d8:	e8 93 e0 ff ff       	callq  403170 <xopenme_get_timer@plt>
  4050dd:	be 00 00 00 00       	mov    $0x0,%esi
  4050e2:	bf 40 91 40 00       	mov    $0x409140,%edi
  4050e7:	b8 01 00 00 00       	mov    $0x1,%eax
  4050ec:	e8 4f dd ff ff       	callq  402e40 <printf@plt>
  4050f1:	bf 01 00 00 00       	mov    $0x1,%edi
  4050f6:	e8 75 e0 ff ff       	callq  403170 <xopenme_get_timer@plt>
  4050fb:	be 01 00 00 00       	mov    $0x1,%esi
  405100:	bf 54 91 40 00       	mov    $0x409154,%edi
  405105:	b8 01 00 00 00       	mov    $0x1,%eax
  40510a:	e8 31 dd ff ff       	callq  402e40 <printf@plt>
  40510f:	e8 7c df ff ff       	callq  403090 <xopenme_dump_state@plt>
  405114:	e8 17 de ff ff       	callq  402f30 <xopenme_finish@plt>
  405119:	90                   	nop
  40511a:	5d                   	pop    %rbp
  40511b:	c3                   	retq   

000000000040511c <_ZN2CK2TF16get_node_time_msERKN10tensorflow9StepStatsEPKc>:
  40511c:	55                   	push   %rbp
  40511d:	48 89 e5             	mov    %rsp,%rbp
  405120:	48 83 ec 60          	sub    $0x60,%rsp
  405124:	48 89 7d a8          	mov    %rdi,-0x58(%rbp)
  405128:	48 89 75 a0          	mov    %rsi,-0x60(%rbp)
  40512c:	64 48 8b 04 25 28 00 	mov    %fs:0x28,%rax
  405133:	00 00 
  405135:	48 89 45 f8          	mov    %rax,-0x8(%rbp)
  405139:	31 c0                	xor    %eax,%eax
  40513b:	48 c7 45 d0 00 00 00 	movq   $0x0,-0x30(%rbp)
  405142:	00 
  405143:	48 8b 45 a8          	mov    -0x58(%rbp),%rax
  405147:	48 89 c7             	mov    %rax,%rdi
  40514a:	e8 69 fb ff ff       	callq  404cb8 <_ZNK10tensorflow9StepStats9dev_statsEv>
  40514f:	48 89 45 d8          	mov    %rax,-0x28(%rbp)
  405153:	48 8b 45 d8          	mov    -0x28(%rbp),%rax
  405157:	48 89 c7             	mov    %rax,%rdi
  40515a:	e8 c5 0a 00 00       	callq  405c24 <_ZNK6google8protobuf16RepeatedPtrFieldIN10tensorflow15DeviceStepStatsEE5beginEv>
  40515f:	48 89 45 b0          	mov    %rax,-0x50(%rbp)
  405163:	48 8b 45 d8          	mov    -0x28(%rbp),%rax
  405167:	48 89 c7             	mov    %rax,%rdi
  40516a:	e8 1b 0b 00 00       	callq  405c8a <_ZNK6google8protobuf16RepeatedPtrFieldIN10tensorflow15DeviceStepStatsEE3endEv>
  40516f:	48 89 45 b8          	mov    %rax,-0x48(%rbp)
  405173:	48 8d 55 b8          	lea    -0x48(%rbp),%rdx
  405177:	48 8d 45 b0          	lea    -0x50(%rbp),%rax
  40517b:	48 89 d6             	mov    %rdx,%rsi
  40517e:	48 89 c7             	mov    %rax,%rdi
  405181:	e8 86 0b 00 00       	callq  405d0c <_ZNK6google8protobuf8internal19RepeatedPtrIteratorIKN10tensorflow15DeviceStepStatsEEneERKS6_>
  405186:	84 c0                	test   %al,%al
  405188:	0f 84 c4 00 00 00    	je     405252 <_ZN2CK2TF16get_node_time_msERKN10tensorflow9StepStatsEPKc+0x136>
  40518e:	48 8d 45 b0          	lea    -0x50(%rbp),%rax
  405192:	48 89 c7             	mov    %rax,%rdi
  405195:	e8 b4 0b 00 00       	callq  405d4e <_ZNK6google8protobuf8internal19RepeatedPtrIteratorIKN10tensorflow15DeviceStepStatsEEdeEv>
  40519a:	48 89 45 e0          	mov    %rax,-0x20(%rbp)
  40519e:	48 8b 45 e0          	mov    -0x20(%rbp),%rax
  4051a2:	48 89 c7             	mov    %rax,%rdi
  4051a5:	e8 fc fa ff ff       	callq  404ca6 <_ZNK10tensorflow15DeviceStepStats10node_statsEv>
  4051aa:	48 89 45 e8          	mov    %rax,-0x18(%rbp)
  4051ae:	48 8b 45 e8          	mov    -0x18(%rbp),%rax
  4051b2:	48 89 c7             	mov    %rax,%rdi
  4051b5:	e8 a8 0b 00 00       	callq  405d62 <_ZNK6google8protobuf16RepeatedPtrFieldIN10tensorflow13NodeExecStatsEE5beginEv>
  4051ba:	48 89 45 c0          	mov    %rax,-0x40(%rbp)
  4051be:	48 8b 45 e8          	mov    -0x18(%rbp),%rax
  4051c2:	48 89 c7             	mov    %rax,%rdi
  4051c5:	e8 fe 0b 00 00       	callq  405dc8 <_ZNK6google8protobuf16RepeatedPtrFieldIN10tensorflow13NodeExecStatsEE3endEv>
  4051ca:	48 89 45 c8          	mov    %rax,-0x38(%rbp)
  4051ce:	48 8d 55 c8          	lea    -0x38(%rbp),%rdx
  4051d2:	48 8d 45 c0          	lea    -0x40(%rbp),%rax
  4051d6:	48 89 d6             	mov    %rdx,%rsi
  4051d9:	48 89 c7             	mov    %rax,%rdi
  4051dc:	e8 69 0c 00 00       	callq  405e4a <_ZNK6google8protobuf8internal19RepeatedPtrIteratorIKN10tensorflow13NodeExecStatsEEneERKS6_>
  4051e1:	84 c0                	test   %al,%al
  4051e3:	74 5c                	je     405241 <_ZN2CK2TF16get_node_time_msERKN10tensorflow9StepStatsEPKc+0x125>
  4051e5:	48 8d 45 c0          	lea    -0x40(%rbp),%rax
  4051e9:	48 89 c7             	mov    %rax,%rdi
  4051ec:	e8 9b 0c 00 00       	callq  405e8c <_ZNK6google8protobuf8internal19RepeatedPtrIteratorIKN10tensorflow13NodeExecStatsEEdeEv>
  4051f1:	48 89 45 f0          	mov    %rax,-0x10(%rbp)
  4051f5:	48 8b 45 f0          	mov    -0x10(%rbp),%rax
  4051f9:	48 89 c7             	mov    %rax,%rdi
  4051fc:	e8 71 fa ff ff       	callq  404c72 <_ZNK10tensorflow13NodeExecStats9node_nameB5cxx11Ev>
  405201:	48 89 c1             	mov    %rax,%rcx
  405204:	48 8b 45 a0          	mov    -0x60(%rbp),%rax
  405208:	ba 00 00 00 00       	mov    $0x0,%edx
  40520d:	48 89 c6             	mov    %rax,%rsi
  405210:	48 89 cf             	mov    %rcx,%rdi
  405213:	e8 38 dd ff ff       	callq  402f50 <_ZNKSt7__cxx1112basic_stringIcSt11char_traitsIcESaIcEE4findEPKcm@plt>
  405218:	48 83 f8 ff          	cmp    $0xffffffffffffffff,%rax
  40521c:	0f 95 c0             	setne  %al
  40521f:	84 c0                	test   %al,%al
  405221:	74 10                	je     405233 <_ZN2CK2TF16get_node_time_msERKN10tensorflow9StepStatsEPKc+0x117>
  405223:	48 8b 45 f0          	mov    -0x10(%rbp),%rax
  405227:	48 89 c7             	mov    %rax,%rdi
  40522a:	e8 61 fa ff ff       	callq  404c90 <_ZNK10tensorflow13NodeExecStats18all_end_rel_microsEv>
  40522f:	48 01 45 d0          	add    %rax,-0x30(%rbp)
  405233:	48 8d 45 c0          	lea    -0x40(%rbp),%rax
  405237:	48 89 c7             	mov    %rax,%rdi
  40523a:	e8 2d 0c 00 00       	callq  405e6c <_ZN6google8protobuf8internal19RepeatedPtrIteratorIKN10tensorflow13NodeExecStatsEEppEv>
  40523f:	eb 8d                	jmp    4051ce <_ZN2CK2TF16get_node_time_msERKN10tensorflow9StepStatsEPKc+0xb2>
  405241:	48 8d 45 b0          	lea    -0x50(%rbp),%rax
  405245:	48 89 c7             	mov    %rax,%rdi
  405248:	e8 e1 0a 00 00       	callq  405d2e <_ZN6google8protobuf8internal19RepeatedPtrIteratorIKN10tensorflow15DeviceStepStatsEEppEv>
  40524d:	e9 21 ff ff ff       	jmpq   405173 <_ZN2CK2TF16get_node_time_msERKN10tensorflow9StepStatsEPKc+0x57>
  405252:	66 0f ef c0          	pxor   %xmm0,%xmm0
  405256:	f3 48 0f 2a 45 d0    	cvtsi2ssq -0x30(%rbp),%xmm0
  40525c:	f3 0f 10 0d 28 42 00 	movss  0x4228(%rip),%xmm1        # 40948c <_ZZN2CK2TF16process_metadataERKN10tensorflow11RunMetadataEPKcE19__PRETTY_FUNCTION__+0x4c>
  405263:	00 
  405264:	f3 0f 5e c1          	divss  %xmm1,%xmm0
  405268:	48 8b 45 f8          	mov    -0x8(%rbp),%rax
  40526c:	64 48 33 04 25 28 00 	xor    %fs:0x28,%rax
  405273:	00 00 
  405275:	74 05                	je     40527c <_ZN2CK2TF16get_node_time_msERKN10tensorflow9StepStatsEPKc+0x160>
  405277:	e8 e4 da ff ff       	callq  402d60 <__stack_chk_fail@plt>
  40527c:	c9                   	leaveq 
  40527d:	c3                   	retq   

000000000040527e <_ZN2CK2TF14print_all_statERKN10tensorflow9StepStatsE>:
  40527e:	55                   	push   %rbp
  40527f:	48 89 e5             	mov    %rsp,%rbp
  405282:	53                   	push   %rbx
  405283:	48 81 ec 08 01 00 00 	sub    $0x108,%rsp
  40528a:	48 89 bd f8 fe ff ff 	mov    %rdi,-0x108(%rbp)
  405291:	64 48 8b 04 25 28 00 	mov    %fs:0x28,%rax
  405298:	00 00 
  40529a:	48 89 45 e8          	mov    %rax,-0x18(%rbp)
  40529e:	31 c0                	xor    %eax,%eax
  4052a0:	48 8d 85 00 ff ff ff 	lea    -0x100(%rbp),%rax
  4052a7:	48 89 c7             	mov    %rax,%rdi
  4052aa:	e8 99 fa ff ff       	callq  404d48 <_ZN10tensorflow21StatSummarizerOptionsC1Ev>
  4052af:	48 8d 95 00 ff ff ff 	lea    -0x100(%rbp),%rdx
  4052b6:	48 8d 85 20 ff ff ff 	lea    -0xe0(%rbp),%rax
  4052bd:	48 89 d6             	mov    %rdx,%rsi
  4052c0:	48 89 c7             	mov    %rax,%rdi
  4052c3:	e8 58 df ff ff       	callq  403220 <_ZN10tensorflow14StatSummarizerC1ERKNS_21StatSummarizerOptionsE@plt>
  4052c8:	48 8b 95 f8 fe ff ff 	mov    -0x108(%rbp),%rdx
  4052cf:	48 8d 85 20 ff ff ff 	lea    -0xe0(%rbp),%rax
  4052d6:	48 89 d6             	mov    %rdx,%rsi
  4052d9:	48 89 c7             	mov    %rax,%rdi
  4052dc:	e8 af de ff ff       	callq  403190 <_ZN10tensorflow14StatSummarizer16ProcessStepStatsERKNS_9StepStatsE@plt>
  4052e1:	48 8d 85 20 ff ff ff 	lea    -0xe0(%rbp),%rax
  4052e8:	48 89 c7             	mov    %rax,%rdi
  4052eb:	e8 20 de ff ff       	callq  403110 <_ZNK10tensorflow14StatSummarizer14PrintStepStatsEv@plt>
  4052f0:	48 8d 85 20 ff ff ff 	lea    -0xe0(%rbp),%rax
  4052f7:	48 89 c7             	mov    %rax,%rdi
  4052fa:	e8 d1 db ff ff       	callq  402ed0 <_ZN10tensorflow14StatSummarizerD1Ev@plt>
  4052ff:	90                   	nop
  405300:	48 8b 45 e8          	mov    -0x18(%rbp),%rax
  405304:	64 48 33 04 25 28 00 	xor    %fs:0x28,%rax
  40530b:	00 00 
  40530d:	74 24                	je     405333 <_ZN2CK2TF14print_all_statERKN10tensorflow9StepStatsE+0xb5>
  40530f:	eb 1d                	jmp    40532e <_ZN2CK2TF14print_all_statERKN10tensorflow9StepStatsE+0xb0>
  405311:	48 89 c3             	mov    %rax,%rbx
  405314:	48 8d 85 20 ff ff ff 	lea    -0xe0(%rbp),%rax
  40531b:	48 89 c7             	mov    %rax,%rdi
  40531e:	e8 ad db ff ff       	callq  402ed0 <_ZN10tensorflow14StatSummarizerD1Ev@plt>
  405323:	48 89 d8             	mov    %rbx,%rax
  405326:	48 89 c7             	mov    %rax,%rdi
  405329:	e8 e2 dc ff ff       	callq  403010 <_Unwind_Resume@plt>
  40532e:	e8 2d da ff ff       	callq  402d60 <__stack_chk_fail@plt>
  405333:	48 81 c4 08 01 00 00 	add    $0x108,%rsp
  40533a:	5b                   	pop    %rbx
  40533b:	5d                   	pop    %rbp
  40533c:	c3                   	retq   
  40533d:	90                   	nop

000000000040533e <_ZN10tensorflow11TensorShapeC1ESt16initializer_listIxE>:
  40533e:	55                   	push   %rbp
  40533f:	48 89 e5             	mov    %rsp,%rbp
  405342:	48 83 ec 20          	sub    $0x20,%rsp
  405346:	48 89 7d f8          	mov    %rdi,-0x8(%rbp)
  40534a:	48 89 f0             	mov    %rsi,%rax
  40534d:	48 89 d1             	mov    %rdx,%rcx
  405350:	48 89 ca             	mov    %rcx,%rdx
  405353:	48 89 45 e0          	mov    %rax,-0x20(%rbp)
  405357:	48 89 55 e8          	mov    %rdx,-0x18(%rbp)
  40535b:	48 8b 45 f8          	mov    -0x8(%rbp),%rax
  40535f:	48 8b 4d e0          	mov    -0x20(%rbp),%rcx
  405363:	48 8b 55 e8          	mov    -0x18(%rbp),%rdx
  405367:	48 89 ce             	mov    %rcx,%rsi
  40536a:	48 89 c7             	mov    %rax,%rdi
  40536d:	e8 3e da ff ff       	callq  402db0 <_ZN10tensorflow15TensorShapeBaseINS_11TensorShapeEEC2ESt16initializer_listIxE@plt>
  405372:	90                   	nop
  405373:	c9                   	leaveq 
  405374:	c3                   	retq   

0000000000405375 <_ZN2CK2TF16process_metadataERKN10tensorflow11RunMetadataEPKc>:
  405375:	55                   	push   %rbp
  405376:	48 89 e5             	mov    %rsp,%rbp
  405379:	48 83 ec 30          	sub    $0x30,%rsp
  40537d:	48 89 7d e8          	mov    %rdi,-0x18(%rbp)
  405381:	48 89 75 e0          	mov    %rsi,-0x20(%rbp)
  405385:	48 8b 45 e8          	mov    -0x18(%rbp),%rax
  405389:	48 89 c7             	mov    %rax,%rdi
  40538c:	e8 5d f9 ff ff       	callq  404cee <_ZNK10tensorflow11RunMetadata14has_step_statsEv>
  405391:	84 c0                	test   %al,%al
  405393:	75 19                	jne    4053ae <_ZN2CK2TF16process_metadataERKN10tensorflow11RunMetadataEPKc+0x39>
  405395:	b9 40 94 40 00       	mov    $0x409440,%ecx
  40539a:	ba 53 00 00 00       	mov    $0x53,%edx
  40539f:	be 80 91 40 00       	mov    $0x409180,%esi
  4053a4:	bf e0 91 40 00       	mov    $0x4091e0,%edi
  4053a9:	e8 a2 d9 ff ff       	callq  402d50 <__assert_fail@plt>
  4053ae:	48 8b 45 e8          	mov    -0x18(%rbp),%rax
  4053b2:	48 89 c7             	mov    %rax,%rdi
  4053b5:	e8 66 f9 ff ff       	callq  404d20 <_ZNK10tensorflow11RunMetadata10step_statsEv>
  4053ba:	48 89 45 f8          	mov    %rax,-0x8(%rbp)
  4053be:	be 00 00 00 00       	mov    $0x0,%esi
  4053c3:	bf fe 91 40 00       	mov    $0x4091fe,%edi
  4053c8:	e8 7a fa ff ff       	callq  404e47 <_ZN2CK8getenv_iEPKci>
  4053cd:	85 c0                	test   %eax,%eax
  4053cf:	0f 95 c0             	setne  %al
  4053d2:	84 c0                	test   %al,%al
  4053d4:	74 0c                	je     4053e2 <_ZN2CK2TF16process_metadataERKN10tensorflow11RunMetadataEPKc+0x6d>
  4053d6:	48 8b 45 f8          	mov    -0x8(%rbp),%rax
  4053da:	48 89 c7             	mov    %rax,%rdi
  4053dd:	e8 9c fe ff ff       	callq  40527e <_ZN2CK2TF14print_all_statERKN10tensorflow9StepStatsE>
  4053e2:	48 8b 55 e0          	mov    -0x20(%rbp),%rdx
  4053e6:	48 8b 45 f8          	mov    -0x8(%rbp),%rax
  4053ea:	48 89 d6             	mov    %rdx,%rsi
  4053ed:	48 89 c7             	mov    %rax,%rdi
  4053f0:	e8 27 fd ff ff       	callq  40511c <_ZN2CK2TF16get_node_time_msERKN10tensorflow9StepStatsEPKc>
  4053f5:	66 0f 7e c0          	movd   %xmm0,%eax
  4053f9:	89 45 f4             	mov    %eax,-0xc(%rbp)
  4053fc:	f3 0f 5a 45 f4       	cvtss2sd -0xc(%rbp),%xmm0
  405401:	48 8b 45 e0          	mov    -0x20(%rbp),%rax
  405405:	48 89 c6             	mov    %rax,%rsi
  405408:	bf 10 92 40 00       	mov    $0x409210,%edi
  40540d:	b8 01 00 00 00       	mov    $0x1,%eax
  405412:	e8 29 da ff ff       	callq  402e40 <printf@plt>
  405417:	8b 45 f4             	mov    -0xc(%rbp),%eax
  40541a:	89 45 dc             	mov    %eax,-0x24(%rbp)
  40541d:	f3 0f 10 45 dc       	movss  -0x24(%rbp),%xmm0
  405422:	e8 ae df ff ff       	callq  4033d5 <_ZN2CK15store_test_timeEf>
  405427:	90                   	nop
  405428:	c9                   	leaveq 
  405429:	c3                   	retq   

000000000040542a <_ZN10tensorflow3ops14ResizeBilinearD1Ev>:
  40542a:	55                   	push   %rbp
  40542b:	48 89 e5             	mov    %rsp,%rbp
  40542e:	48 83 ec 10          	sub    $0x10,%rsp
  405432:	48 89 7d f8          	mov    %rdi,-0x8(%rbp)
  405436:	48 8b 45 f8          	mov    -0x8(%rbp),%rax
  40543a:	48 89 c7             	mov    %rax,%rdi
  40543d:	e8 84 f4 ff ff       	callq  4048c6 <_ZN10tensorflow6OutputD1Ev>
  405442:	90                   	nop
  405443:	c9                   	leaveq 
  405444:	c3                   	retq   
  405445:	90                   	nop

0000000000405446 <_ZNSt8__detail10_Select1stC1Ev>:
  405446:	55                   	push   %rbp
  405447:	48 89 e5             	mov    %rsp,%rbp
  40544a:	48 89 7d f8          	mov    %rdi,-0x8(%rbp)
  40544e:	90                   	nop
  40544f:	5d                   	pop    %rbp
  405450:	c3                   	retq   
  405451:	90                   	nop

0000000000405452 <_ZNSt8__detail21_Hashtable_ebo_helperILi0ENS_10_Select1stELb1EEC1Ev>:
  405452:	55                   	push   %rbp
  405453:	48 89 e5             	mov    %rsp,%rbp
  405456:	48 83 ec 10          	sub    $0x10,%rsp
  40545a:	48 89 7d f8          	mov    %rdi,-0x8(%rbp)
  40545e:	48 8b 45 f8          	mov    -0x8(%rbp),%rax
  405462:	48 89 c7             	mov    %rax,%rdi
  405465:	e8 dc ff ff ff       	callq  405446 <_ZNSt8__detail10_Select1stC1Ev>
  40546a:	90                   	nop
  40546b:	c9                   	leaveq 
  40546c:	c3                   	retq   
  40546d:	90                   	nop

000000000040546e <_ZN10tensorflow10OutputHashC1Ev>:
  40546e:	55                   	push   %rbp
  40546f:	48 89 e5             	mov    %rsp,%rbp
  405472:	48 89 7d f8          	mov    %rdi,-0x8(%rbp)
  405476:	90                   	nop
  405477:	5d                   	pop    %rbp
  405478:	c3                   	retq   
  405479:	90                   	nop

000000000040547a <_ZNSt8__detail21_Hashtable_ebo_helperILi1EN10tensorflow10OutputHashELb1EEC1Ev>:
  40547a:	55                   	push   %rbp
  40547b:	48 89 e5             	mov    %rsp,%rbp
  40547e:	48 83 ec 10          	sub    $0x10,%rsp
  405482:	48 89 7d f8          	mov    %rdi,-0x8(%rbp)
  405486:	48 8b 45 f8          	mov    -0x8(%rbp),%rax
  40548a:	48 89 c7             	mov    %rax,%rdi
  40548d:	e8 dc ff ff ff       	callq  40546e <_ZN10tensorflow10OutputHashC1Ev>
  405492:	90                   	nop
  405493:	c9                   	leaveq 
  405494:	c3                   	retq   
  405495:	90                   	nop

0000000000405496 <_ZNSt8__detail18_Mod_range_hashingC1Ev>:
  405496:	55                   	push   %rbp
  405497:	48 89 e5             	mov    %rsp,%rbp
  40549a:	48 89 7d f8          	mov    %rdi,-0x8(%rbp)
  40549e:	90                   	nop
  40549f:	5d                   	pop    %rbp
  4054a0:	c3                   	retq   
  4054a1:	90                   	nop

00000000004054a2 <_ZNSt8__detail21_Hashtable_ebo_helperILi2ENS_18_Mod_range_hashingELb1EEC1Ev>:
  4054a2:	55                   	push   %rbp
  4054a3:	48 89 e5             	mov    %rsp,%rbp
  4054a6:	48 83 ec 10          	sub    $0x10,%rsp
  4054aa:	48 89 7d f8          	mov    %rdi,-0x8(%rbp)
  4054ae:	48 8b 45 f8          	mov    -0x8(%rbp),%rax
  4054b2:	48 89 c7             	mov    %rax,%rdi
  4054b5:	e8 dc ff ff ff       	callq  405496 <_ZNSt8__detail18_Mod_range_hashingC1Ev>
  4054ba:	90                   	nop
  4054bb:	c9                   	leaveq 
  4054bc:	c3                   	retq   
  4054bd:	90                   	nop

00000000004054be <_ZNSt8__detail15_Hash_code_baseIN10tensorflow6OutputESt4pairIKS2_NS1_5Input11InitializerEENS_10_Select1stENS1_10OutputHashENS_18_Mod_range_hashingENS_20_Default_ranged_hashELb1EEC1Ev>:
  4054be:	55                   	push   %rbp
  4054bf:	48 89 e5             	mov    %rsp,%rbp
  4054c2:	48 83 ec 10          	sub    $0x10,%rsp
  4054c6:	48 89 7d f8          	mov    %rdi,-0x8(%rbp)
  4054ca:	48 8b 45 f8          	mov    -0x8(%rbp),%rax
  4054ce:	48 89 c7             	mov    %rax,%rdi
  4054d1:	e8 7c ff ff ff       	callq  405452 <_ZNSt8__detail21_Hashtable_ebo_helperILi0ENS_10_Select1stELb1EEC1Ev>
  4054d6:	48 8b 45 f8          	mov    -0x8(%rbp),%rax
  4054da:	48 89 c7             	mov    %rax,%rdi
  4054dd:	e8 98 ff ff ff       	callq  40547a <_ZNSt8__detail21_Hashtable_ebo_helperILi1EN10tensorflow10OutputHashELb1EEC1Ev>
  4054e2:	48 8b 45 f8          	mov    -0x8(%rbp),%rax
  4054e6:	48 89 c7             	mov    %rax,%rdi
  4054e9:	e8 b4 ff ff ff       	callq  4054a2 <_ZNSt8__detail21_Hashtable_ebo_helperILi2ENS_18_Mod_range_hashingELb1EEC1Ev>
  4054ee:	90                   	nop
  4054ef:	c9                   	leaveq 
  4054f0:	c3                   	retq   
  4054f1:	90                   	nop

00000000004054f2 <_ZNSt15binary_functionIN10tensorflow6OutputES1_bEC1Ev>:
  4054f2:	55                   	push   %rbp
  4054f3:	48 89 e5             	mov    %rsp,%rbp
  4054f6:	48 89 7d f8          	mov    %rdi,-0x8(%rbp)
  4054fa:	90                   	nop
  4054fb:	5d                   	pop    %rbp
  4054fc:	c3                   	retq   
  4054fd:	90                   	nop

00000000004054fe <_ZNSt8equal_toIN10tensorflow6OutputEEC1Ev>:
  4054fe:	55                   	push   %rbp
  4054ff:	48 89 e5             	mov    %rsp,%rbp
  405502:	48 83 ec 10          	sub    $0x10,%rsp
  405506:	48 89 7d f8          	mov    %rdi,-0x8(%rbp)
  40550a:	48 8b 45 f8          	mov    -0x8(%rbp),%rax
  40550e:	48 89 c7             	mov    %rax,%rdi
  405511:	e8 dc ff ff ff       	callq  4054f2 <_ZNSt15binary_functionIN10tensorflow6OutputES1_bEC1Ev>
  405516:	90                   	nop
  405517:	c9                   	leaveq 
  405518:	c3                   	retq   
  405519:	90                   	nop

000000000040551a <_ZNSt8__detail21_Hashtable_ebo_helperILi0ESt8equal_toIN10tensorflow6OutputEELb1EEC1Ev>:
  40551a:	55                   	push   %rbp
  40551b:	48 89 e5             	mov    %rsp,%rbp
  40551e:	48 83 ec 10          	sub    $0x10,%rsp
  405522:	48 89 7d f8          	mov    %rdi,-0x8(%rbp)
  405526:	48 8b 45 f8          	mov    -0x8(%rbp),%rax
  40552a:	48 89 c7             	mov    %rax,%rdi
  40552d:	e8 cc ff ff ff       	callq  4054fe <_ZNSt8equal_toIN10tensorflow6OutputEEC1Ev>
  405532:	90                   	nop
  405533:	c9                   	leaveq 
  405534:	c3                   	retq   
  405535:	90                   	nop

0000000000405536 <_ZNSt8__detail15_Hashtable_baseIN10tensorflow6OutputESt4pairIKS2_NS1_5Input11InitializerEENS_10_Select1stESt8equal_toIS2_ENS1_10OutputHashENS_18_Mod_range_hashingENS_20_Default_ranged_hashENS_17_Hashtable_traitsILb1ELb0ELb1EEEEC1Ev>:
  405536:	55                   	push   %rbp
  405537:	48 89 e5             	mov    %rsp,%rbp
  40553a:	48 83 ec 10          	sub    $0x10,%rsp
  40553e:	48 89 7d f8          	mov    %rdi,-0x8(%rbp)
  405542:	48 8b 45 f8          	mov    -0x8(%rbp),%rax
  405546:	48 89 c7             	mov    %rax,%rdi
  405549:	e8 70 ff ff ff       	callq  4054be <_ZNSt8__detail15_Hash_code_baseIN10tensorflow6OutputESt4pairIKS2_NS1_5Input11InitializerEENS_10_Select1stENS1_10OutputHashENS_18_Mod_range_hashingENS_20_Default_ranged_hashELb1EEC1Ev>
  40554e:	48 8b 45 f8          	mov    -0x8(%rbp),%rax
  405552:	48 89 c7             	mov    %rax,%rdi
  405555:	e8 c0 ff ff ff       	callq  40551a <_ZNSt8__detail21_Hashtable_ebo_helperILi0ESt8equal_toIN10tensorflow6OutputEELb1EEC1Ev>
  40555a:	90                   	nop
  40555b:	c9                   	leaveq 
  40555c:	c3                   	retq   
  40555d:	90                   	nop

000000000040555e <_ZNSt8__detail9_Map_baseIN10tensorflow6OutputESt4pairIKS2_NS1_5Input11InitializerEESaIS7_ENS_10_Select1stESt8equal_toIS2_ENS1_10OutputHashENS_18_Mod_range_hashingENS_20_Default_ranged_hashENS_20_Prime_rehash_policyENS_17_Hashtable_traitsILb1ELb0ELb1EEELb1EEC1Ev>:
  40555e:	55                   	push   %rbp
  40555f:	48 89 e5             	mov    %rsp,%rbp
  405562:	48 89 7d f8          	mov    %rdi,-0x8(%rbp)
  405566:	90                   	nop
  405567:	5d                   	pop    %rbp
  405568:	c3                   	retq   
  405569:	90                   	nop

000000000040556a <_ZNSt8__detail12_Insert_baseIN10tensorflow6OutputESt4pairIKS2_NS1_5Input11InitializerEESaIS7_ENS_10_Select1stESt8equal_toIS2_ENS1_10OutputHashENS_18_Mod_range_hashingENS_20_Default_ranged_hashENS_20_Prime_rehash_policyENS_17_Hashtable_traitsILb1ELb0ELb1EEEEC1Ev>:
  40556a:	55                   	push   %rbp
  40556b:	48 89 e5             	mov    %rsp,%rbp
  40556e:	48 89 7d f8          	mov    %rdi,-0x8(%rbp)
  405572:	90                   	nop
  405573:	5d                   	pop    %rbp
  405574:	c3                   	retq   
  405575:	90                   	nop

0000000000405576 <_ZNSt8__detail7_InsertIN10tensorflow6OutputESt4pairIKS2_NS1_5Input11InitializerEESaIS7_ENS_10_Select1stESt8equal_toIS2_ENS1_10OutputHashENS_18_Mod_range_hashingENS_20_Default_ranged_hashENS_20_Prime_rehash_policyENS_17_Hashtable_traitsILb1ELb0ELb1EEELb0ELb1EEC1Ev>:
  405576:	55                   	push   %rbp
  405577:	48 89 e5             	mov    %rsp,%rbp
  40557a:	48 83 ec 10          	sub    $0x10,%rsp
  40557e:	48 89 7d f8          	mov    %rdi,-0x8(%rbp)
  405582:	48 8b 45 f8          	mov    -0x8(%rbp),%rax
  405586:	48 89 c7             	mov    %rax,%rdi
  405589:	e8 dc ff ff ff       	callq  40556a <_ZNSt8__detail12_Insert_baseIN10tensorflow6OutputESt4pairIKS2_NS1_5Input11InitializerEESaIS7_ENS_10_Select1stESt8equal_toIS2_ENS1_10OutputHashENS_18_Mod_range_hashingENS_20_Default_ranged_hashENS_20_Prime_rehash_policyENS_17_Hashtable_traitsILb1ELb0ELb1EEEEC1Ev>
  40558e:	90                   	nop
  40558f:	c9                   	leaveq 
  405590:	c3                   	retq   
  405591:	90                   	nop

0000000000405592 <_ZNSt8__detail12_Rehash_baseIN10tensorflow6OutputESt4pairIKS2_NS1_5Input11InitializerEESaIS7_ENS_10_Select1stESt8equal_toIS2_ENS1_10OutputHashENS_18_Mod_range_hashingENS_20_Default_ranged_hashENS_20_Prime_rehash_policyENS_17_Hashtable_traitsILb1ELb0ELb1EEEEC1Ev>:
  405592:	55                   	push   %rbp
  405593:	48 89 e5             	mov    %rsp,%rbp
  405596:	48 89 7d f8          	mov    %rdi,-0x8(%rbp)
  40559a:	90                   	nop
  40559b:	5d                   	pop    %rbp
  40559c:	c3                   	retq   
  40559d:	90                   	nop

000000000040559e <_ZNSt8__detail9_EqualityIN10tensorflow6OutputESt4pairIKS2_NS1_5Input11InitializerEESaIS7_ENS_10_Select1stESt8equal_toIS2_ENS1_10OutputHashENS_18_Mod_range_hashingENS_20_Default_ranged_hashENS_20_Prime_rehash_policyENS_17_Hashtable_traitsILb1ELb0ELb1EEELb1EEC1Ev>:
  40559e:	55                   	push   %rbp
  40559f:	48 89 e5             	mov    %rsp,%rbp
  4055a2:	48 89 7d f8          	mov    %rdi,-0x8(%rbp)
  4055a6:	90                   	nop
  4055a7:	5d                   	pop    %rbp
  4055a8:	c3                   	retq   
  4055a9:	90                   	nop

00000000004055aa <_ZNSt8__detail21_Hashtable_ebo_helperILi0ESaINS_10_Hash_nodeISt4pairIKN10tensorflow6OutputENS3_5Input11InitializerEELb1EEEELb1EEC1Ev>:
  4055aa:	55                   	push   %rbp
  4055ab:	48 89 e5             	mov    %rsp,%rbp
  4055ae:	48 83 ec 10          	sub    $0x10,%rsp
  4055b2:	48 89 7d f8          	mov    %rdi,-0x8(%rbp)
  4055b6:	48 8b 45 f8          	mov    -0x8(%rbp),%rax
  4055ba:	48 89 c7             	mov    %rax,%rdi
  4055bd:	e8 92 0c 00 00       	callq  406254 <_ZNSaINSt8__detail10_Hash_nodeISt4pairIKN10tensorflow6OutputENS2_5Input11InitializerEELb1EEEEC1Ev>
  4055c2:	90                   	nop
  4055c3:	c9                   	leaveq 
  4055c4:	c3                   	retq   
  4055c5:	90                   	nop

00000000004055c6 <_ZNSt8__detail21_Hashtable_ebo_helperILi0ESaINS_10_Hash_nodeISt4pairIKN10tensorflow6OutputENS3_5Input11InitializerEELb1EEEELb1EED1Ev>:
  4055c6:	55                   	push   %rbp
  4055c7:	48 89 e5             	mov    %rsp,%rbp
  4055ca:	48 83 ec 10          	sub    $0x10,%rsp
  4055ce:	48 89 7d f8          	mov    %rdi,-0x8(%rbp)
  4055d2:	48 8b 45 f8          	mov    -0x8(%rbp),%rax
  4055d6:	48 89 c7             	mov    %rax,%rdi
  4055d9:	e8 92 0c 00 00       	callq  406270 <_ZNSaINSt8__detail10_Hash_nodeISt4pairIKN10tensorflow6OutputENS2_5Input11InitializerEELb1EEEED1Ev>
  4055de:	90                   	nop
  4055df:	c9                   	leaveq 
  4055e0:	c3                   	retq   
  4055e1:	90                   	nop

00000000004055e2 <_ZNSt8__detail16_Hashtable_allocISaINS_10_Hash_nodeISt4pairIKN10tensorflow6OutputENS3_5Input11InitializerEELb1EEEEEC1Ev>:
  4055e2:	55                   	push   %rbp
  4055e3:	48 89 e5             	mov    %rsp,%rbp
  4055e6:	48 83 ec 10          	sub    $0x10,%rsp
  4055ea:	48 89 7d f8          	mov    %rdi,-0x8(%rbp)
  4055ee:	48 8b 45 f8          	mov    -0x8(%rbp),%rax
  4055f2:	48 89 c7             	mov    %rax,%rdi
  4055f5:	e8 b0 ff ff ff       	callq  4055aa <_ZNSt8__detail21_Hashtable_ebo_helperILi0ESaINS_10_Hash_nodeISt4pairIKN10tensorflow6OutputENS3_5Input11InitializerEELb1EEEELb1EEC1Ev>
  4055fa:	90                   	nop
  4055fb:	c9                   	leaveq 
  4055fc:	c3                   	retq   
  4055fd:	90                   	nop

00000000004055fe <_ZNSt8__detail16_Hashtable_allocISaINS_10_Hash_nodeISt4pairIKN10tensorflow6OutputENS3_5Input11InitializerEELb1EEEEED1Ev>:
  4055fe:	55                   	push   %rbp
  4055ff:	48 89 e5             	mov    %rsp,%rbp
  405602:	48 83 ec 10          	sub    $0x10,%rsp
  405606:	48 89 7d f8          	mov    %rdi,-0x8(%rbp)
  40560a:	48 8b 45 f8          	mov    -0x8(%rbp),%rax
  40560e:	48 89 c7             	mov    %rax,%rdi
  405611:	e8 b0 ff ff ff       	callq  4055c6 <_ZNSt8__detail21_Hashtable_ebo_helperILi0ESaINS_10_Hash_nodeISt4pairIKN10tensorflow6OutputENS3_5Input11InitializerEELb1EEEELb1EED1Ev>
  405616:	90                   	nop
  405617:	c9                   	leaveq 
  405618:	c3                   	retq   
  405619:	90                   	nop

000000000040561a <_ZNSt10_HashtableIN10tensorflow6OutputESt4pairIKS1_NS0_5Input11InitializerEESaIS6_ENSt8__detail10_Select1stESt8equal_toIS1_ENS0_10OutputHashENS8_18_Mod_range_hashingENS8_20_Default_ranged_hashENS8_20_Prime_rehash_policyENS8_17_Hashtable_traitsILb1ELb0ELb1EEEEC1Ev>:
  40561a:	55                   	push   %rbp
  40561b:	48 89 e5             	mov    %rsp,%rbp
  40561e:	48 83 ec 10          	sub    $0x10,%rsp
  405622:	48 89 7d f8          	mov    %rdi,-0x8(%rbp)
  405626:	48 8b 45 f8          	mov    -0x8(%rbp),%rax
  40562a:	48 89 c7             	mov    %rax,%rdi
  40562d:	e8 04 ff ff ff       	callq  405536 <_ZNSt8__detail15_Hashtable_baseIN10tensorflow6OutputESt4pairIKS2_NS1_5Input11InitializerEENS_10_Select1stESt8equal_toIS2_ENS1_10OutputHashENS_18_Mod_range_hashingENS_20_Default_ranged_hashENS_17_Hashtable_traitsILb1ELb0ELb1EEEEC1Ev>
  405632:	48 8b 45 f8          	mov    -0x8(%rbp),%rax
  405636:	48 89 c7             	mov    %rax,%rdi
  405639:	e8 20 ff ff ff       	callq  40555e <_ZNSt8__detail9_Map_baseIN10tensorflow6OutputESt4pairIKS2_NS1_5Input11InitializerEESaIS7_ENS_10_Select1stESt8equal_toIS2_ENS1_10OutputHashENS_18_Mod_range_hashingENS_20_Default_ranged_hashENS_20_Prime_rehash_policyENS_17_Hashtable_traitsILb1ELb0ELb1EEELb1EEC1Ev>
  40563e:	48 8b 45 f8          	mov    -0x8(%rbp),%rax
  405642:	48 89 c7             	mov    %rax,%rdi
  405645:	e8 2c ff ff ff       	callq  405576 <_ZNSt8__detail7_InsertIN10tensorflow6OutputESt4pairIKS2_NS1_5Input11InitializerEESaIS7_ENS_10_Select1stESt8equal_toIS2_ENS1_10OutputHashENS_18_Mod_range_hashingENS_20_Default_ranged_hashENS_20_Prime_rehash_policyENS_17_Hashtable_traitsILb1ELb0ELb1EEELb0ELb1EEC1Ev>
  40564a:	48 8b 45 f8          	mov    -0x8(%rbp),%rax
  40564e:	48 89 c7             	mov    %rax,%rdi
  405651:	e8 3c ff ff ff       	callq  405592 <_ZNSt8__detail12_Rehash_baseIN10tensorflow6OutputESt4pairIKS2_NS1_5Input11InitializerEESaIS7_ENS_10_Select1stESt8equal_toIS2_ENS1_10OutputHashENS_18_Mod_range_hashingENS_20_Default_ranged_hashENS_20_Prime_rehash_policyENS_17_Hashtable_traitsILb1ELb0ELb1EEEEC1Ev>
  405656:	48 8b 45 f8          	mov    -0x8(%rbp),%rax
  40565a:	48 89 c7             	mov    %rax,%rdi
  40565d:	e8 3c ff ff ff       	callq  40559e <_ZNSt8__detail9_EqualityIN10tensorflow6OutputESt4pairIKS2_NS1_5Input11InitializerEESaIS7_ENS_10_Select1stESt8equal_toIS2_ENS1_10OutputHashENS_18_Mod_range_hashingENS_20_Default_ranged_hashENS_20_Prime_rehash_policyENS_17_Hashtable_traitsILb1ELb0ELb1EEELb1EEC1Ev>
  405662:	48 8b 45 f8          	mov    -0x8(%rbp),%rax
  405666:	48 89 c7             	mov    %rax,%rdi
  405669:	e8 74 ff ff ff       	callq  4055e2 <_ZNSt8__detail16_Hashtable_allocISaINS_10_Hash_nodeISt4pairIKN10tensorflow6OutputENS3_5Input11InitializerEELb1EEEEEC1Ev>
  40566e:	48 8b 45 f8          	mov    -0x8(%rbp),%rax
  405672:	48 8d 50 30          	lea    0x30(%rax),%rdx
  405676:	48 8b 45 f8          	mov    -0x8(%rbp),%rax
  40567a:	48 89 10             	mov    %rdx,(%rax)
  40567d:	48 8b 45 f8          	mov    -0x8(%rbp),%rax
  405681:	48 c7 40 08 01 00 00 	movq   $0x1,0x8(%rax)
  405688:	00 
  405689:	48 8b 45 f8          	mov    -0x8(%rbp),%rax
  40568d:	48 83 c0 10          	add    $0x10,%rax
  405691:	48 89 c7             	mov    %rax,%rdi
  405694:	e8 dd e8 ff ff       	callq  403f76 <_ZNSt8__detail15_Hash_node_baseC1Ev>
  405699:	48 8b 45 f8          	mov    -0x8(%rbp),%rax
  40569d:	48 c7 40 18 00 00 00 	movq   $0x0,0x18(%rax)
  4056a4:	00 
  4056a5:	48 8b 45 f8          	mov    -0x8(%rbp),%rax
  4056a9:	48 83 c0 20          	add    $0x20,%rax
  4056ad:	f3 0f 10 05 db 3d 00 	movss  0x3ddb(%rip),%xmm0        # 409490 <_ZZN2CK2TF16process_metadataERKN10tensorflow11RunMetadataEPKcE19__PRETTY_FUNCTION__+0x50>
  4056b4:	00 
  4056b5:	48 89 c7             	mov    %rax,%rdi
  4056b8:	e8 cf e8 ff ff       	callq  403f8c <_ZNSt8__detail20_Prime_rehash_policyC1Ef>
  4056bd:	48 8b 45 f8          	mov    -0x8(%rbp),%rax
  4056c1:	48 c7 40 30 00 00 00 	movq   $0x0,0x30(%rax)
  4056c8:	00 
  4056c9:	90                   	nop
  4056ca:	c9                   	leaveq 
  4056cb:	c3                   	retq   

00000000004056cc <_ZNSt13unordered_mapIN10tensorflow6OutputENS0_5Input11InitializerENS0_10OutputHashESt8equal_toIS1_ESaISt4pairIKS1_S3_EEEC1Ev>:
  4056cc:	55                   	push   %rbp
  4056cd:	48 89 e5             	mov    %rsp,%rbp
  4056d0:	48 83 ec 10          	sub    $0x10,%rsp
  4056d4:	48 89 7d f8          	mov    %rdi,-0x8(%rbp)
  4056d8:	48 8b 45 f8          	mov    -0x8(%rbp),%rax
  4056dc:	48 89 c7             	mov    %rax,%rdi
  4056df:	e8 36 ff ff ff       	callq  40561a <_ZNSt10_HashtableIN10tensorflow6OutputESt4pairIKS1_NS0_5Input11InitializerEESaIS6_ENSt8__detail10_Select1stESt8equal_toIS1_ENS0_10OutputHashENS8_18_Mod_range_hashingENS8_20_Default_ranged_hashENS8_20_Prime_rehash_policyENS8_17_Hashtable_traitsILb1ELb0ELb1EEEEC1Ev>
  4056e4:	90                   	nop
  4056e5:	c9                   	leaveq 
  4056e6:	c3                   	retq   
  4056e7:	90                   	nop

00000000004056e8 <_ZNSt13unordered_mapIN10tensorflow6OutputENS0_5Input11InitializerENS0_10OutputHashESt8equal_toIS1_ESaISt4pairIKS1_S3_EEED1Ev>:
  4056e8:	55                   	push   %rbp
  4056e9:	48 89 e5             	mov    %rsp,%rbp
  4056ec:	48 83 ec 10          	sub    $0x10,%rsp
  4056f0:	48 89 7d f8          	mov    %rdi,-0x8(%rbp)
  4056f4:	48 8b 45 f8          	mov    -0x8(%rbp),%rax
  4056f8:	48 89 c7             	mov    %rax,%rdi
  4056fb:	e8 8c 0b 00 00       	callq  40628c <_ZNSt10_HashtableIN10tensorflow6OutputESt4pairIKS1_NS0_5Input11InitializerEESaIS6_ENSt8__detail10_Select1stESt8equal_toIS1_ENS0_10OutputHashENS8_18_Mod_range_hashingENS8_20_Default_ranged_hashENS8_20_Prime_rehash_policyENS8_17_Hashtable_traitsILb1ELb0ELb1EEEED1Ev>
  405700:	90                   	nop
  405701:	c9                   	leaveq 
  405702:	c3                   	retq   
  405703:	90                   	nop

0000000000405704 <_ZN5Eigen8Symbolic8BaseExprINS0_10SymbolExprINS_12placeholders8internal17symbolic_last_tagEEEEC1Ev>:
  405704:	55                   	push   %rbp
  405705:	48 89 e5             	mov    %rsp,%rbp
  405708:	48 89 7d f8          	mov    %rdi,-0x8(%rbp)
  40570c:	90                   	nop
  40570d:	5d                   	pop    %rbp
  40570e:	c3                   	retq   
  40570f:	90                   	nop

0000000000405710 <_ZN5Eigen8Symbolic10SymbolExprINS_12placeholders8internal17symbolic_last_tagEEC1Ev>:
  405710:	55                   	push   %rbp
  405711:	48 89 e5             	mov    %rsp,%rbp
  405714:	48 83 ec 10          	sub    $0x10,%rsp
  405718:	48 89 7d f8          	mov    %rdi,-0x8(%rbp)
  40571c:	48 8b 45 f8          	mov    -0x8(%rbp),%rax
  405720:	48 89 c7             	mov    %rax,%rdi
  405723:	e8 dc ff ff ff       	callq  405704 <_ZN5Eigen8Symbolic8BaseExprINS0_10SymbolExprINS_12placeholders8internal17symbolic_last_tagEEEEC1Ev>
  405728:	90                   	nop
  405729:	c9                   	leaveq 
  40572a:	c3                   	retq   

000000000040572b <_ZN5Eigen3fixILi1EEENS_8internal8FixedIntIXT_EEEv>:
  40572b:	55                   	push   %rbp
  40572c:	48 89 e5             	mov    %rsp,%rbp
  40572f:	53                   	push   %rbx
  405730:	48 83 ec 18          	sub    $0x18,%rsp
  405734:	64 48 8b 04 25 28 00 	mov    %fs:0x28,%rax
  40573b:	00 00 
  40573d:	48 89 45 e8          	mov    %rax,-0x18(%rbp)
  405741:	31 c0                	xor    %eax,%eax
  405743:	48 8d 45 e7          	lea    -0x19(%rbp),%rax
  405747:	48 89 c7             	mov    %rax,%rdi
  40574a:	e8 09 0e 00 00       	callq  406558 <_ZN5Eigen8internal8FixedIntILi1EEC1Ev>
  40574f:	89 d8                	mov    %ebx,%eax
  405751:	48 8b 55 e8          	mov    -0x18(%rbp),%rdx
  405755:	64 48 33 14 25 28 00 	xor    %fs:0x28,%rdx
  40575c:	00 00 
  40575e:	74 05                	je     405765 <_ZN5Eigen3fixILi1EEENS_8internal8FixedIntIXT_EEEv+0x3a>
  405760:	e8 fb d5 ff ff       	callq  402d60 <__stack_chk_fail@plt>
  405765:	48 83 c4 18          	add    $0x18,%rsp
  405769:	5b                   	pop    %rbx
  40576a:	5d                   	pop    %rbp
  40576b:	c3                   	retq   

000000000040576c <_ZNK5Eigen8Symbolic8BaseExprINS0_10SymbolExprINS_12placeholders8internal17symbolic_last_tagEEEEplILi1EEENS0_7AddExprIS6_NS0_9ValueExprINS_8internal8FixedIntIXT_EEEEEEESD_>:
  40576c:	55                   	push   %rbp
  40576d:	48 89 e5             	mov    %rsp,%rbp
  405770:	53                   	push   %rbx
  405771:	48 83 ec 28          	sub    $0x28,%rsp
  405775:	48 89 7d d8          	mov    %rdi,-0x28(%rbp)
  405779:	64 48 8b 04 25 28 00 	mov    %fs:0x28,%rax
  405780:	00 00 
  405782:	48 89 45 e8          	mov    %rax,-0x18(%rbp)
  405786:	31 c0                	xor    %eax,%eax
  405788:	48 8d 45 e5          	lea    -0x1b(%rbp),%rax
  40578c:	48 89 c7             	mov    %rax,%rdi
  40578f:	e8 de 0d 00 00       	callq  406572 <_ZN5Eigen8Symbolic9ValueExprINS_8internal8FixedIntILi1EEEEC1Ev>
  405794:	48 8b 45 d8          	mov    -0x28(%rbp),%rax
  405798:	48 89 c7             	mov    %rax,%rdi
  40579b:	e8 c4 0d 00 00       	callq  406564 <_ZNK5Eigen8Symbolic8BaseExprINS0_10SymbolExprINS_12placeholders8internal17symbolic_last_tagEEEE7derivedEv>
  4057a0:	48 89 c1             	mov    %rax,%rcx
  4057a3:	48 8d 55 e5          	lea    -0x1b(%rbp),%rdx
  4057a7:	48 8d 45 e6          	lea    -0x1a(%rbp),%rax
  4057ab:	48 89 ce             	mov    %rcx,%rsi
  4057ae:	48 89 c7             	mov    %rax,%rdi
  4057b1:	e8 d4 0d 00 00       	callq  40658a <_ZN5Eigen8Symbolic7AddExprINS0_10SymbolExprINS_12placeholders8internal17symbolic_last_tagEEENS0_9ValueExprINS_8internal8FixedIntILi1EEEEEEC1ERKS6_RKSB_>
  4057b6:	89 d8                	mov    %ebx,%eax
  4057b8:	48 8b 75 e8          	mov    -0x18(%rbp),%rsi
  4057bc:	64 48 33 34 25 28 00 	xor    %fs:0x28,%rsi
  4057c3:	00 00 
  4057c5:	74 05                	je     4057cc <_ZNK5Eigen8Symbolic8BaseExprINS0_10SymbolExprINS_12placeholders8internal17symbolic_last_tagEEEEplILi1EEENS0_7AddExprIS6_NS0_9ValueExprINS_8internal8FixedIntIXT_EEEEEEESD_+0x60>
  4057c7:	e8 94 d5 ff ff       	callq  402d60 <__stack_chk_fail@plt>
  4057cc:	48 83 c4 28          	add    $0x28,%rsp
  4057d0:	5b                   	pop    %rbx
  4057d1:	5d                   	pop    %rbp
  4057d2:	c3                   	retq   

00000000004057d3 <_ZN10tensorflow8internal12Check_EQImplImmEEPNSt7__cxx1112basic_stringIcSt11char_traitsIcESaIcEEERKT_RKT0_PKc>:
  4057d3:	55                   	push   %rbp
  4057d4:	48 89 e5             	mov    %rsp,%rbp
  4057d7:	48 83 ec 20          	sub    $0x20,%rsp
  4057db:	48 89 7d f8          	mov    %rdi,-0x8(%rbp)
  4057df:	48 89 75 f0          	mov    %rsi,-0x10(%rbp)
  4057e3:	48 89 55 e8          	mov    %rdx,-0x18(%rbp)
  4057e7:	48 8b 45 f8          	mov    -0x8(%rbp),%rax
  4057eb:	48 8b 10             	mov    (%rax),%rdx
  4057ee:	48 8b 45 f0          	mov    -0x10(%rbp),%rax
  4057f2:	48 8b 00             	mov    (%rax),%rax
  4057f5:	48 39 c2             	cmp    %rax,%rdx
  4057f8:	75 07                	jne    405801 <_ZN10tensorflow8internal12Check_EQImplImmEEPNSt7__cxx1112basic_stringIcSt11char_traitsIcESaIcEEERKT_RKT0_PKc+0x2e>
  4057fa:	b8 00 00 00 00       	mov    $0x0,%eax
  4057ff:	eb 17                	jmp    405818 <_ZN10tensorflow8internal12Check_EQImplImmEEPNSt7__cxx1112basic_stringIcSt11char_traitsIcESaIcEEERKT_RKT0_PKc+0x45>
  405801:	48 8b 55 e8          	mov    -0x18(%rbp),%rdx
  405805:	48 8b 4d f0          	mov    -0x10(%rbp),%rcx
  405809:	48 8b 45 f8          	mov    -0x8(%rbp),%rax
  40580d:	48 89 ce             	mov    %rcx,%rsi
  405810:	48 89 c7             	mov    %rax,%rdi
  405813:	e8 e5 0d 00 00       	callq  4065fd <_ZN10tensorflow8internal17MakeCheckOpStringImmEEPNSt7__cxx1112basic_stringIcSt11char_traitsIcESaIcEEERKT_RKT0_PKc>
  405818:	c9                   	leaveq 
  405819:	c3                   	retq   

000000000040581a <_ZNSt10_Head_baseILm0EPN10tensorflow6Status5StateELb0EE7_M_headERS4_>:
  40581a:	55                   	push   %rbp
  40581b:	48 89 e5             	mov    %rsp,%rbp
  40581e:	48 89 7d f8          	mov    %rdi,-0x8(%rbp)
  405822:	48 8b 45 f8          	mov    -0x8(%rbp),%rax
  405826:	5d                   	pop    %rbp
  405827:	c3                   	retq   

0000000000405828 <_ZNSt11_Tuple_implILm0EJPN10tensorflow6Status5StateESt14default_deleteIS2_EEE7_M_headERS6_>:
  405828:	55                   	push   %rbp
  405829:	48 89 e5             	mov    %rsp,%rbp
  40582c:	48 83 ec 10          	sub    $0x10,%rsp
  405830:	48 89 7d f8          	mov    %rdi,-0x8(%rbp)
  405834:	48 8b 45 f8          	mov    -0x8(%rbp),%rax
  405838:	48 89 c7             	mov    %rax,%rdi
  40583b:	e8 da ff ff ff       	callq  40581a <_ZNSt10_Head_baseILm0EPN10tensorflow6Status5StateELb0EE7_M_headERS4_>
  405840:	c9                   	leaveq 
  405841:	c3                   	retq   

0000000000405842 <_ZSt12__get_helperILm0EPN10tensorflow6Status5StateEJSt14default_deleteIS2_EEERT0_RSt11_Tuple_implIXT_EJS6_DpT1_EE>:
  405842:	55                   	push   %rbp
  405843:	48 89 e5             	mov    %rsp,%rbp
  405846:	48 83 ec 10          	sub    $0x10,%rsp
  40584a:	48 89 7d f8          	mov    %rdi,-0x8(%rbp)
  40584e:	48 8b 45 f8          	mov    -0x8(%rbp),%rax
  405852:	48 89 c7             	mov    %rax,%rdi
  405855:	e8 ce ff ff ff       	callq  405828 <_ZNSt11_Tuple_implILm0EJPN10tensorflow6Status5StateESt14default_deleteIS2_EEE7_M_headERS6_>
  40585a:	c9                   	leaveq 
  40585b:	c3                   	retq   

000000000040585c <_ZSt3getILm0EJPN10tensorflow6Status5StateESt14default_deleteIS2_EEERNSt13tuple_elementIXT_ESt5tupleIJDpT0_EEE4typeERSA_>:
  40585c:	55                   	push   %rbp
  40585d:	48 89 e5             	mov    %rsp,%rbp
  405860:	48 83 ec 10          	sub    $0x10,%rsp
  405864:	48 89 7d f8          	mov    %rdi,-0x8(%rbp)
  405868:	48 8b 45 f8          	mov    -0x8(%rbp),%rax
  40586c:	48 89 c7             	mov    %rax,%rdi
  40586f:	e8 ce ff ff ff       	callq  405842 <_ZSt12__get_helperILm0EPN10tensorflow6Status5StateEJSt14default_deleteIS2_EEERT0_RSt11_Tuple_implIXT_EJS6_DpT1_EE>
  405874:	c9                   	leaveq 
  405875:	c3                   	retq   

0000000000405876 <_ZNSt10unique_ptrIN10tensorflow6Status5StateESt14default_deleteIS2_EED1Ev>:
  405876:	55                   	push   %rbp
  405877:	48 89 e5             	mov    %rsp,%rbp
  40587a:	53                   	push   %rbx
  40587b:	48 83 ec 28          	sub    $0x28,%rsp
  40587f:	48 89 7d d8          	mov    %rdi,-0x28(%rbp)
  405883:	48 8b 45 d8          	mov    -0x28(%rbp),%rax
  405887:	48 89 c7             	mov    %rax,%rdi
  40588a:	e8 cd ff ff ff       	callq  40585c <_ZSt3getILm0EJPN10tensorflow6Status5StateESt14default_deleteIS2_EEERNSt13tuple_elementIXT_ESt5tupleIJDpT0_EEE4typeERSA_>
  40588f:	48 89 45 e8          	mov    %rax,-0x18(%rbp)
  405893:	48 8b 45 e8          	mov    -0x18(%rbp),%rax
  405897:	48 8b 00             	mov    (%rax),%rax
  40589a:	48 85 c0             	test   %rax,%rax
  40589d:	74 1e                	je     4058bd <_ZNSt10unique_ptrIN10tensorflow6Status5StateESt14default_deleteIS2_EED1Ev+0x47>
  40589f:	48 8b 45 e8          	mov    -0x18(%rbp),%rax
  4058a3:	48 8b 18             	mov    (%rax),%rbx
  4058a6:	48 8b 45 d8          	mov    -0x28(%rbp),%rax
  4058aa:	48 89 c7             	mov    %rax,%rdi
  4058ad:	e8 70 0e 00 00       	callq  406722 <_ZNSt10unique_ptrIN10tensorflow6Status5StateESt14default_deleteIS2_EE11get_deleterEv>
  4058b2:	48 89 de             	mov    %rbx,%rsi
  4058b5:	48 89 c7             	mov    %rax,%rdi
  4058b8:	e8 9f 0e 00 00       	callq  40675c <_ZNKSt14default_deleteIN10tensorflow6Status5StateEEclEPS2_>
  4058bd:	48 8b 45 e8          	mov    -0x18(%rbp),%rax
  4058c1:	48 c7 00 00 00 00 00 	movq   $0x0,(%rax)
  4058c8:	90                   	nop
  4058c9:	48 83 c4 28          	add    $0x28,%rsp
  4058cd:	5b                   	pop    %rbx
  4058ce:	5d                   	pop    %rbp
  4058cf:	c3                   	retq   

00000000004058d0 <_ZSteqIN10tensorflow6Status5StateESt14default_deleteIS2_EEbRKSt10unique_ptrIT_T0_EDn>:
  4058d0:	55                   	push   %rbp
  4058d1:	48 89 e5             	mov    %rsp,%rbp
  4058d4:	48 83 ec 10          	sub    $0x10,%rsp
  4058d8:	48 89 7d f8          	mov    %rdi,-0x8(%rbp)
  4058dc:	48 89 75 f0          	mov    %rsi,-0x10(%rbp)
  4058e0:	48 8b 45 f8          	mov    -0x8(%rbp),%rax
  4058e4:	48 89 c7             	mov    %rax,%rdi
  4058e7:	e8 a2 0e 00 00       	callq  40678e <_ZNKSt10unique_ptrIN10tensorflow6Status5StateESt14default_deleteIS2_EEcvbEv>
  4058ec:	83 f0 01             	xor    $0x1,%eax
  4058ef:	c9                   	leaveq 
  4058f0:	c3                   	retq   
  4058f1:	90                   	nop

00000000004058f2 <_ZNKSt10unique_ptrIN10tensorflow6Status5StateESt14default_deleteIS2_EEdeEv>:
  4058f2:	55                   	push   %rbp
  4058f3:	48 89 e5             	mov    %rsp,%rbp
  4058f6:	48 83 ec 10          	sub    $0x10,%rsp
  4058fa:	48 89 7d f8          	mov    %rdi,-0x8(%rbp)
  4058fe:	48 8b 45 f8          	mov    -0x8(%rbp),%rax
  405902:	48 89 c7             	mov    %rax,%rdi
  405905:	e8 94 00 00 00       	callq  40599e <_ZNKSt10unique_ptrIN10tensorflow6Status5StateESt14default_deleteIS2_EE3getEv>
  40590a:	c9                   	leaveq 
  40590b:	c3                   	retq   

000000000040590c <_ZNSt10unique_ptrIN10tensorflow6Status5StateESt14default_deleteIS2_EEC1EPS2_>:
  40590c:	55                   	push   %rbp
  40590d:	48 89 e5             	mov    %rsp,%rbp
  405910:	48 83 ec 10          	sub    $0x10,%rsp
  405914:	48 89 7d f8          	mov    %rdi,-0x8(%rbp)
  405918:	48 89 75 f0          	mov    %rsi,-0x10(%rbp)
  40591c:	48 8b 45 f8          	mov    -0x8(%rbp),%rax
  405920:	48 89 c7             	mov    %rax,%rdi
  405923:	e8 d8 e7 ff ff       	callq  404100 <_ZNSt5tupleIJPN10tensorflow6Status5StateESt14default_deleteIS2_EEEC1IS3_S5_Lb1EEEv>
  405928:	48 8b 45 f8          	mov    -0x8(%rbp),%rax
  40592c:	48 89 c7             	mov    %rax,%rdi
  40592f:	e8 28 ff ff ff       	callq  40585c <_ZSt3getILm0EJPN10tensorflow6Status5StateESt14default_deleteIS2_EEERNSt13tuple_elementIXT_ESt5tupleIJDpT0_EEE4typeERSA_>
  405934:	48 89 c2             	mov    %rax,%rdx
  405937:	48 8b 45 f0          	mov    -0x10(%rbp),%rax
  40593b:	48 89 02             	mov    %rax,(%rdx)
  40593e:	90                   	nop
  40593f:	c9                   	leaveq 
  405940:	c3                   	retq   

0000000000405941 <_ZNSt10_Head_baseILm0EPN10tensorflow6Status5StateELb0EE7_M_headERKS4_>:
  405941:	55                   	push   %rbp
  405942:	48 89 e5             	mov    %rsp,%rbp
  405945:	48 89 7d f8          	mov    %rdi,-0x8(%rbp)
  405949:	48 8b 45 f8          	mov    -0x8(%rbp),%rax
  40594d:	5d                   	pop    %rbp
  40594e:	c3                   	retq   

000000000040594f <_ZNSt11_Tuple_implILm0EJPN10tensorflow6Status5StateESt14default_deleteIS2_EEE7_M_headERKS6_>:
  40594f:	55                   	push   %rbp
  405950:	48 89 e5             	mov    %rsp,%rbp
  405953:	48 83 ec 10          	sub    $0x10,%rsp
  405957:	48 89 7d f8          	mov    %rdi,-0x8(%rbp)
  40595b:	48 8b 45 f8          	mov    -0x8(%rbp),%rax
  40595f:	48 89 c7             	mov    %rax,%rdi
  405962:	e8 da ff ff ff       	callq  405941 <_ZNSt10_Head_baseILm0EPN10tensorflow6Status5StateELb0EE7_M_headERKS4_>
  405967:	c9                   	leaveq 
  405968:	c3                   	retq   

0000000000405969 <_ZSt12__get_helperILm0EPN10tensorflow6Status5StateEJSt14default_deleteIS2_EEERKT0_RKSt11_Tuple_implIXT_EJS6_DpT1_EE>:
  405969:	55                   	push   %rbp
  40596a:	48 89 e5             	mov    %rsp,%rbp
  40596d:	48 83 ec 10          	sub    $0x10,%rsp
  405971:	48 89 7d f8          	mov    %rdi,-0x8(%rbp)
  405975:	48 8b 45 f8          	mov    -0x8(%rbp),%rax
  405979:	48 89 c7             	mov    %rax,%rdi
  40597c:	e8 ce ff ff ff       	callq  40594f <_ZNSt11_Tuple_implILm0EJPN10tensorflow6Status5StateESt14default_deleteIS2_EEE7_M_headERKS6_>
  405981:	c9                   	leaveq 
  405982:	c3                   	retq   

0000000000405983 <_ZSt3getILm0EJPN10tensorflow6Status5StateESt14default_deleteIS2_EEERKNSt13tuple_elementIXT_ESt5tupleIJDpT0_EEE4typeERKSA_>:
  405983:	55                   	push   %rbp
  405984:	48 89 e5             	mov    %rsp,%rbp
  405987:	48 83 ec 10          	sub    $0x10,%rsp
  40598b:	48 89 7d f8          	mov    %rdi,-0x8(%rbp)
  40598f:	48 8b 45 f8          	mov    -0x8(%rbp),%rax
  405993:	48 89 c7             	mov    %rax,%rdi
  405996:	e8 ce ff ff ff       	callq  405969 <_ZSt12__get_helperILm0EPN10tensorflow6Status5StateEJSt14default_deleteIS2_EEERKT0_RKSt11_Tuple_implIXT_EJS6_DpT1_EE>
  40599b:	c9                   	leaveq 
  40599c:	c3                   	retq   
  40599d:	90                   	nop

000000000040599e <_ZNKSt10unique_ptrIN10tensorflow6Status5StateESt14default_deleteIS2_EE3getEv>:
  40599e:	55                   	push   %rbp
  40599f:	48 89 e5             	mov    %rsp,%rbp
  4059a2:	48 83 ec 10          	sub    $0x10,%rsp
  4059a6:	48 89 7d f8          	mov    %rdi,-0x8(%rbp)
  4059aa:	48 8b 45 f8          	mov    -0x8(%rbp),%rax
  4059ae:	48 89 c7             	mov    %rax,%rdi
  4059b1:	e8 cd ff ff ff       	callq  405983 <_ZSt3getILm0EJPN10tensorflow6Status5StateESt14default_deleteIS2_EEERKNSt13tuple_elementIXT_ESt5tupleIJDpT0_EEE4typeERKSA_>
  4059b6:	48 8b 00             	mov    (%rax),%rax
  4059b9:	c9                   	leaveq 
  4059ba:	c3                   	retq   

00000000004059bb <_ZStlsIcSt11char_traitsIcENSt7__cxx1112basic_stringIcS1_SaIcEEEERSt13basic_ostreamIT_T0_EOS9_RKT1_>:
  4059bb:	55                   	push   %rbp
  4059bc:	48 89 e5             	mov    %rsp,%rbp
  4059bf:	48 83 ec 10          	sub    $0x10,%rsp
  4059c3:	48 89 7d f8          	mov    %rdi,-0x8(%rbp)
  4059c7:	48 89 75 f0          	mov    %rsi,-0x10(%rbp)
  4059cb:	48 8b 55 f0          	mov    -0x10(%rbp),%rdx
  4059cf:	48 8b 45 f8          	mov    -0x8(%rbp),%rax
  4059d3:	48 89 d6             	mov    %rdx,%rsi
  4059d6:	48 89 c7             	mov    %rax,%rdi
  4059d9:	e8 92 d4 ff ff       	callq  402e70 <_ZStlsIcSt11char_traitsIcESaIcEERSt13basic_ostreamIT_T0_ES7_RKNSt7__cxx1112basic_stringIS4_S5_T1_EE@plt>
  4059de:	48 8b 45 f8          	mov    -0x8(%rbp),%rax
  4059e2:	c9                   	leaveq 
  4059e3:	c3                   	retq   

00000000004059e4 <_ZN10tensorflow8internal12Check_EQImplIliEEPNSt7__cxx1112basic_stringIcSt11char_traitsIcESaIcEEERKT_RKT0_PKc>:
  4059e4:	55                   	push   %rbp
  4059e5:	48 89 e5             	mov    %rsp,%rbp
  4059e8:	48 83 ec 20          	sub    $0x20,%rsp
  4059ec:	48 89 7d f8          	mov    %rdi,-0x8(%rbp)
  4059f0:	48 89 75 f0          	mov    %rsi,-0x10(%rbp)
  4059f4:	48 89 55 e8          	mov    %rdx,-0x18(%rbp)
  4059f8:	48 8b 45 f8          	mov    -0x8(%rbp),%rax
  4059fc:	48 8b 10             	mov    (%rax),%rdx
  4059ff:	48 8b 45 f0          	mov    -0x10(%rbp),%rax
  405a03:	8b 00                	mov    (%rax),%eax
  405a05:	48 98                	cltq   
  405a07:	48 39 c2             	cmp    %rax,%rdx
  405a0a:	75 07                	jne    405a13 <_ZN10tensorflow8internal12Check_EQImplIliEEPNSt7__cxx1112basic_stringIcSt11char_traitsIcESaIcEEERKT_RKT0_PKc+0x2f>
  405a0c:	b8 00 00 00 00       	mov    $0x0,%eax
  405a11:	eb 17                	jmp    405a2a <_ZN10tensorflow8internal12Check_EQImplIliEEPNSt7__cxx1112basic_stringIcSt11char_traitsIcESaIcEEERKT_RKT0_PKc+0x46>
  405a13:	48 8b 55 e8          	mov    -0x18(%rbp),%rdx
  405a17:	48 8b 4d f0          	mov    -0x10(%rbp),%rcx
  405a1b:	48 8b 45 f8          	mov    -0x8(%rbp),%rax
  405a1f:	48 89 ce             	mov    %rcx,%rsi
  405a22:	48 89 c7             	mov    %rax,%rdi
  405a25:	e8 84 0d 00 00       	callq  4067ae <_ZN10tensorflow8internal17MakeCheckOpStringIliEEPNSt7__cxx1112basic_stringIcSt11char_traitsIcESaIcEEERKT_RKT0_PKc>
  405a2a:	c9                   	leaveq 
  405a2b:	c3                   	retq   

0000000000405a2c <_ZN10tensorflow8internal12Check_GEImplIliEEPNSt7__cxx1112basic_stringIcSt11char_traitsIcESaIcEEERKT_RKT0_PKc>:
  405a2c:	55                   	push   %rbp
  405a2d:	48 89 e5             	mov    %rsp,%rbp
  405a30:	48 83 ec 20          	sub    $0x20,%rsp
  405a34:	48 89 7d f8          	mov    %rdi,-0x8(%rbp)
  405a38:	48 89 75 f0          	mov    %rsi,-0x10(%rbp)
  405a3c:	48 89 55 e8          	mov    %rdx,-0x18(%rbp)
  405a40:	48 8b 45 f8          	mov    -0x8(%rbp),%rax
  405a44:	48 8b 10             	mov    (%rax),%rdx
  405a47:	48 8b 45 f0          	mov    -0x10(%rbp),%rax
  405a4b:	8b 00                	mov    (%rax),%eax
  405a4d:	48 98                	cltq   
  405a4f:	48 39 c2             	cmp    %rax,%rdx
  405a52:	7c 07                	jl     405a5b <_ZN10tensorflow8internal12Check_GEImplIliEEPNSt7__cxx1112basic_stringIcSt11char_traitsIcESaIcEEERKT_RKT0_PKc+0x2f>
  405a54:	b8 00 00 00 00       	mov    $0x0,%eax
  405a59:	eb 17                	jmp    405a72 <_ZN10tensorflow8internal12Check_GEImplIliEEPNSt7__cxx1112basic_stringIcSt11char_traitsIcESaIcEEERKT_RKT0_PKc+0x46>
  405a5b:	48 8b 55 e8          	mov    -0x18(%rbp),%rdx
  405a5f:	48 8b 4d f0          	mov    -0x10(%rbp),%rcx
  405a63:	48 8b 45 f8          	mov    -0x8(%rbp),%rax
  405a67:	48 89 ce             	mov    %rcx,%rsi
  405a6a:	48 89 c7             	mov    %rax,%rdi
  405a6d:	e8 3c 0d 00 00       	callq  4067ae <_ZN10tensorflow8internal17MakeCheckOpStringIliEEPNSt7__cxx1112basic_stringIcSt11char_traitsIcESaIcEEERKT_RKT0_PKc>
  405a72:	c9                   	leaveq 
  405a73:	c3                   	retq   

0000000000405a74 <_ZNSt6vectorISt4pairIPN10tensorflow4NodeEiESaIS4_EED1Ev>:
  405a74:	55                   	push   %rbp
  405a75:	48 89 e5             	mov    %rsp,%rbp
  405a78:	48 83 ec 10          	sub    $0x10,%rsp
  405a7c:	48 89 7d f8          	mov    %rdi,-0x8(%rbp)
  405a80:	48 8b 45 f8          	mov    -0x8(%rbp),%rax
  405a84:	48 89 c7             	mov    %rax,%rdi
  405a87:	e8 56 0e 00 00       	callq  4068e2 <_ZNSt12_Vector_baseISt4pairIPN10tensorflow4NodeEiESaIS4_EE19_M_get_Tp_allocatorEv>
  405a8c:	48 89 c2             	mov    %rax,%rdx
  405a8f:	48 8b 45 f8          	mov    -0x8(%rbp),%rax
  405a93:	48 8b 48 08          	mov    0x8(%rax),%rcx
  405a97:	48 8b 45 f8          	mov    -0x8(%rbp),%rax
  405a9b:	48 8b 00             	mov    (%rax),%rax
  405a9e:	48 89 ce             	mov    %rcx,%rsi
  405aa1:	48 89 c7             	mov    %rax,%rdi
  405aa4:	e8 47 0e 00 00       	callq  4068f0 <_ZSt8_DestroyIPSt4pairIPN10tensorflow4NodeEiES4_EvT_S6_RSaIT0_E>
  405aa9:	48 8b 45 f8          	mov    -0x8(%rbp),%rax
  405aad:	48 89 c7             	mov    %rax,%rdi
  405ab0:	e8 dd 0d 00 00       	callq  406892 <_ZNSt12_Vector_baseISt4pairIPN10tensorflow4NodeEiESaIS4_EED1Ev>
  405ab5:	90                   	nop
  405ab6:	c9                   	leaveq 
  405ab7:	c3                   	retq   

0000000000405ab8 <_ZNSt6vectorISt4pairIPN10tensorflow4NodeEiESaIS4_EEC1ERKS6_>:
  405ab8:	55                   	push   %rbp
  405ab9:	48 89 e5             	mov    %rsp,%rbp
  405abc:	41 55                	push   %r13
  405abe:	41 54                	push   %r12
  405ac0:	53                   	push   %rbx
  405ac1:	48 83 ec 28          	sub    $0x28,%rsp
  405ac5:	48 89 7d c8          	mov    %rdi,-0x38(%rbp)
  405ac9:	48 89 75 c0          	mov    %rsi,-0x40(%rbp)
  405acd:	64 48 8b 04 25 28 00 	mov    %fs:0x28,%rax
  405ad4:	00 00 
  405ad6:	48 89 45 d8          	mov    %rax,-0x28(%rbp)
  405ada:	31 c0                	xor    %eax,%eax
  405adc:	48 8b 45 c0          	mov    -0x40(%rbp),%rax
  405ae0:	48 89 c7             	mov    %rax,%rdi
  405ae3:	e8 a4 0e 00 00       	callq  40698c <_ZNKSt12_Vector_baseISt4pairIPN10tensorflow4NodeEiESaIS4_EE19_M_get_Tp_allocatorEv>
  405ae8:	48 89 c2             	mov    %rax,%rdx
  405aeb:	48 8d 45 d7          	lea    -0x29(%rbp),%rax
  405aef:	48 89 d6             	mov    %rdx,%rsi
  405af2:	48 89 c7             	mov    %rax,%rdi
  405af5:	e8 46 0e 00 00       	callq  406940 <_ZN9__gnu_cxx14__alloc_traitsISaISt4pairIPN10tensorflow4NodeEiEEE17_S_select_on_copyERKS6_>
  405afa:	48 8b 45 c0          	mov    -0x40(%rbp),%rax
  405afe:	48 89 c7             	mov    %rax,%rdi
  405b01:	e8 14 0e 00 00       	callq  40691a <_ZNKSt6vectorISt4pairIPN10tensorflow4NodeEiESaIS4_EE4sizeEv>
  405b06:	48 89 c1             	mov    %rax,%rcx
  405b09:	48 8b 45 c8          	mov    -0x38(%rbp),%rax
  405b0d:	48 8d 55 d7          	lea    -0x29(%rbp),%rdx
  405b11:	48 89 ce             	mov    %rcx,%rsi
  405b14:	48 89 c7             	mov    %rax,%rdi
  405b17:	e8 9a 0e 00 00       	callq  4069b6 <_ZNSt12_Vector_baseISt4pairIPN10tensorflow4NodeEiESaIS4_EEC1EmRKS5_>
  405b1c:	48 8d 45 d7          	lea    -0x29(%rbp),%rax
  405b20:	48 89 c7             	mov    %rax,%rdi
  405b23:	e8 72 0e 00 00       	callq  40699a <_ZNSaISt4pairIPN10tensorflow4NodeEiEED1Ev>
  405b28:	48 8b 45 c8          	mov    -0x38(%rbp),%rax
  405b2c:	48 89 c7             	mov    %rax,%rdi
  405b2f:	e8 ae 0d 00 00       	callq  4068e2 <_ZNSt12_Vector_baseISt4pairIPN10tensorflow4NodeEiESaIS4_EE19_M_get_Tp_allocatorEv>
  405b34:	49 89 c5             	mov    %rax,%r13
  405b37:	48 8b 45 c8          	mov    -0x38(%rbp),%rax
  405b3b:	48 8b 18             	mov    (%rax),%rbx
  405b3e:	48 8b 45 c0          	mov    -0x40(%rbp),%rax
  405b42:	48 89 c7             	mov    %rax,%rdi
  405b45:	e8 1e 0f 00 00       	callq  406a68 <_ZNKSt6vectorISt4pairIPN10tensorflow4NodeEiESaIS4_EE3endEv>
  405b4a:	49 89 c4             	mov    %rax,%r12
  405b4d:	48 8b 45 c0          	mov    -0x40(%rbp),%rax
  405b51:	48 89 c7             	mov    %rax,%rdi
  405b54:	e8 bb 0e 00 00       	callq  406a14 <_ZNKSt6vectorISt4pairIPN10tensorflow4NodeEiESaIS4_EE5beginEv>
  405b59:	4c 89 e9             	mov    %r13,%rcx
  405b5c:	48 89 da             	mov    %rbx,%rdx
  405b5f:	4c 89 e6             	mov    %r12,%rsi
  405b62:	48 89 c7             	mov    %rax,%rdi
  405b65:	e8 52 0f 00 00       	callq  406abc <_ZSt22__uninitialized_copy_aIN9__gnu_cxx17__normal_iteratorIPKSt4pairIPN10tensorflow4NodeEiESt6vectorIS6_SaIS6_EEEEPS6_S6_ET0_T_SF_SE_RSaIT1_E>
  405b6a:	48 89 c2             	mov    %rax,%rdx
  405b6d:	48 8b 45 c8          	mov    -0x38(%rbp),%rax
  405b71:	48 89 50 08          	mov    %rdx,0x8(%rax)
  405b75:	90                   	nop
  405b76:	48 8b 45 d8          	mov    -0x28(%rbp),%rax
  405b7a:	64 48 33 04 25 28 00 	xor    %fs:0x28,%rax
  405b81:	00 00 
  405b83:	74 3b                	je     405bc0 <_ZNSt6vectorISt4pairIPN10tensorflow4NodeEiESaIS4_EEC1ERKS6_+0x108>
  405b85:	eb 34                	jmp    405bbb <_ZNSt6vectorISt4pairIPN10tensorflow4NodeEiESaIS4_EEC1ERKS6_+0x103>
  405b87:	48 89 c3             	mov    %rax,%rbx
  405b8a:	48 8d 45 d7          	lea    -0x29(%rbp),%rax
  405b8e:	48 89 c7             	mov    %rax,%rdi
  405b91:	e8 04 0e 00 00       	callq  40699a <_ZNSaISt4pairIPN10tensorflow4NodeEiEED1Ev>
  405b96:	48 89 d8             	mov    %rbx,%rax
  405b99:	48 89 c7             	mov    %rax,%rdi
  405b9c:	e8 6f d4 ff ff       	callq  403010 <_Unwind_Resume@plt>
  405ba1:	48 89 c3             	mov    %rax,%rbx
  405ba4:	48 8b 45 c8          	mov    -0x38(%rbp),%rax
  405ba8:	48 89 c7             	mov    %rax,%rdi
  405bab:	e8 e2 0c 00 00       	callq  406892 <_ZNSt12_Vector_baseISt4pairIPN10tensorflow4NodeEiESaIS4_EED1Ev>
  405bb0:	48 89 d8             	mov    %rbx,%rax
  405bb3:	48 89 c7             	mov    %rax,%rdi
  405bb6:	e8 55 d4 ff ff       	callq  403010 <_Unwind_Resume@plt>
  405bbb:	e8 a0 d1 ff ff       	callq  402d60 <__stack_chk_fail@plt>
  405bc0:	48 83 c4 28          	add    $0x28,%rsp
  405bc4:	5b                   	pop    %rbx
  405bc5:	41 5c                	pop    %r12
  405bc7:	41 5d                	pop    %r13
  405bc9:	5d                   	pop    %rbp
  405bca:	c3                   	retq   
  405bcb:	90                   	nop

0000000000405bcc <_ZNK6google8protobuf16RepeatedPtrFieldIN10tensorflow13NodeExecStatsEE4sizeEv>:
  405bcc:	55                   	push   %rbp
  405bcd:	48 89 e5             	mov    %rsp,%rbp
  405bd0:	48 83 ec 10          	sub    $0x10,%rsp
  405bd4:	48 89 7d f8          	mov    %rdi,-0x8(%rbp)
  405bd8:	48 8b 45 f8          	mov    -0x8(%rbp),%rax
  405bdc:	48 89 c7             	mov    %rax,%rdi
  405bdf:	e8 e4 e3 ff ff       	callq  403fc8 <_ZNK6google8protobuf8internal20RepeatedPtrFieldBase4sizeEv>
  405be4:	c9                   	leaveq 
  405be5:	c3                   	retq   

0000000000405be6 <_ZNK6google8protobuf16RepeatedPtrFieldIN10tensorflow15DeviceStepStatsEE4sizeEv>:
  405be6:	55                   	push   %rbp
  405be7:	48 89 e5             	mov    %rsp,%rbp
  405bea:	48 83 ec 10          	sub    $0x10,%rsp
  405bee:	48 89 7d f8          	mov    %rdi,-0x8(%rbp)
  405bf2:	48 8b 45 f8          	mov    -0x8(%rbp),%rax
  405bf6:	48 89 c7             	mov    %rax,%rdi
  405bf9:	e8 ca e3 ff ff       	callq  403fc8 <_ZNK6google8protobuf8internal20RepeatedPtrFieldBase4sizeEv>
  405bfe:	c9                   	leaveq 
  405bff:	c3                   	retq   

0000000000405c00 <_ZNKSt16initializer_listIiE5beginEv>:
  405c00:	55                   	push   %rbp
  405c01:	48 89 e5             	mov    %rsp,%rbp
  405c04:	48 89 7d f8          	mov    %rdi,-0x8(%rbp)
  405c08:	48 8b 45 f8          	mov    -0x8(%rbp),%rax
  405c0c:	48 8b 00             	mov    (%rax),%rax
  405c0f:	5d                   	pop    %rbp
  405c10:	c3                   	retq   
  405c11:	90                   	nop

0000000000405c12 <_ZNKSt16initializer_listIiE4sizeEv>:
  405c12:	55                   	push   %rbp
  405c13:	48 89 e5             	mov    %rsp,%rbp
  405c16:	48 89 7d f8          	mov    %rdi,-0x8(%rbp)
  405c1a:	48 8b 45 f8          	mov    -0x8(%rbp),%rax
  405c1e:	48 8b 40 08          	mov    0x8(%rax),%rax
  405c22:	5d                   	pop    %rbp
  405c23:	c3                   	retq   

0000000000405c24 <_ZNK6google8protobuf16RepeatedPtrFieldIN10tensorflow15DeviceStepStatsEE5beginEv>:
  405c24:	55                   	push   %rbp
  405c25:	48 89 e5             	mov    %rsp,%rbp
  405c28:	48 83 ec 30          	sub    $0x30,%rsp
  405c2c:	48 89 7d d8          	mov    %rdi,-0x28(%rbp)
  405c30:	64 48 8b 04 25 28 00 	mov    %fs:0x28,%rax
  405c37:	00 00 
  405c39:	48 89 45 f8          	mov    %rax,-0x8(%rbp)
  405c3d:	31 c0                	xor    %eax,%eax
  405c3f:	48 8b 45 d8          	mov    -0x28(%rbp),%rax
  405c43:	48 89 c7             	mov    %rax,%rdi
  405c46:	e8 8f e3 ff ff       	callq  403fda <_ZNK6google8protobuf8internal20RepeatedPtrFieldBase8raw_dataEv>
  405c4b:	48 89 c2             	mov    %rax,%rdx
  405c4e:	48 8d 45 e8          	lea    -0x18(%rbp),%rax
  405c52:	48 89 d6             	mov    %rdx,%rsi
  405c55:	48 89 c7             	mov    %rax,%rdi
  405c58:	e8 9d 0e 00 00       	callq  406afa <_ZN6google8protobuf8internal19RepeatedPtrIteratorIN10tensorflow15DeviceStepStatsEEC1EPKPv>
  405c5d:	48 8d 55 e8          	lea    -0x18(%rbp),%rdx
  405c61:	48 8d 45 f0          	lea    -0x10(%rbp),%rax
  405c65:	48 89 d6             	mov    %rdx,%rsi
  405c68:	48 89 c7             	mov    %rax,%rdi
  405c6b:	e8 c0 0e 00 00       	callq  406b30 <_ZN6google8protobuf8internal19RepeatedPtrIteratorIKN10tensorflow15DeviceStepStatsEEC1IS4_EERKNS2_IT_EE>
  405c70:	48 8b 45 f0          	mov    -0x10(%rbp),%rax
  405c74:	48 8b 4d f8          	mov    -0x8(%rbp),%rcx
  405c78:	64 48 33 0c 25 28 00 	xor    %fs:0x28,%rcx
  405c7f:	00 00 
  405c81:	74 05                	je     405c88 <_ZNK6google8protobuf16RepeatedPtrFieldIN10tensorflow15DeviceStepStatsEE5beginEv+0x64>
  405c83:	e8 d8 d0 ff ff       	callq  402d60 <__stack_chk_fail@plt>
  405c88:	c9                   	leaveq 
  405c89:	c3                   	retq   

0000000000405c8a <_ZNK6google8protobuf16RepeatedPtrFieldIN10tensorflow15DeviceStepStatsEE3endEv>:
  405c8a:	55                   	push   %rbp
  405c8b:	48 89 e5             	mov    %rsp,%rbp
  405c8e:	53                   	push   %rbx
  405c8f:	48 83 ec 38          	sub    $0x38,%rsp
  405c93:	48 89 7d c8          	mov    %rdi,-0x38(%rbp)
  405c97:	64 48 8b 04 25 28 00 	mov    %fs:0x28,%rax
  405c9e:	00 00 
  405ca0:	48 89 45 e8          	mov    %rax,-0x18(%rbp)
  405ca4:	31 c0                	xor    %eax,%eax
  405ca6:	48 8b 45 c8          	mov    -0x38(%rbp),%rax
  405caa:	48 89 c7             	mov    %rax,%rdi
  405cad:	e8 28 e3 ff ff       	callq  403fda <_ZNK6google8protobuf8internal20RepeatedPtrFieldBase8raw_dataEv>
  405cb2:	48 89 c3             	mov    %rax,%rbx
  405cb5:	48 8b 45 c8          	mov    -0x38(%rbp),%rax
  405cb9:	48 89 c7             	mov    %rax,%rdi
  405cbc:	e8 25 ff ff ff       	callq  405be6 <_ZNK6google8protobuf16RepeatedPtrFieldIN10tensorflow15DeviceStepStatsEE4sizeEv>
  405cc1:	48 98                	cltq   
  405cc3:	48 c1 e0 03          	shl    $0x3,%rax
  405cc7:	48 8d 14 03          	lea    (%rbx,%rax,1),%rdx
  405ccb:	48 8d 45 d8          	lea    -0x28(%rbp),%rax
  405ccf:	48 89 d6             	mov    %rdx,%rsi
  405cd2:	48 89 c7             	mov    %rax,%rdi
  405cd5:	e8 20 0e 00 00       	callq  406afa <_ZN6google8protobuf8internal19RepeatedPtrIteratorIN10tensorflow15DeviceStepStatsEEC1EPKPv>
  405cda:	48 8d 55 d8          	lea    -0x28(%rbp),%rdx
  405cde:	48 8d 45 e0          	lea    -0x20(%rbp),%rax
  405ce2:	48 89 d6             	mov    %rdx,%rsi
  405ce5:	48 89 c7             	mov    %rax,%rdi
  405ce8:	e8 43 0e 00 00       	callq  406b30 <_ZN6google8protobuf8internal19RepeatedPtrIteratorIKN10tensorflow15DeviceStepStatsEEC1IS4_EERKNS2_IT_EE>
  405ced:	48 8b 45 e0          	mov    -0x20(%rbp),%rax
  405cf1:	48 8b 4d e8          	mov    -0x18(%rbp),%rcx
  405cf5:	64 48 33 0c 25 28 00 	xor    %fs:0x28,%rcx
  405cfc:	00 00 
  405cfe:	74 05                	je     405d05 <_ZNK6google8protobuf16RepeatedPtrFieldIN10tensorflow15DeviceStepStatsEE3endEv+0x7b>
  405d00:	e8 5b d0 ff ff       	callq  402d60 <__stack_chk_fail@plt>
  405d05:	48 83 c4 38          	add    $0x38,%rsp
  405d09:	5b                   	pop    %rbx
  405d0a:	5d                   	pop    %rbp
  405d0b:	c3                   	retq   

0000000000405d0c <_ZNK6google8protobuf8internal19RepeatedPtrIteratorIKN10tensorflow15DeviceStepStatsEEneERKS6_>:
  405d0c:	55                   	push   %rbp
  405d0d:	48 89 e5             	mov    %rsp,%rbp
  405d10:	48 89 7d f8          	mov    %rdi,-0x8(%rbp)
  405d14:	48 89 75 f0          	mov    %rsi,-0x10(%rbp)
  405d18:	48 8b 45 f8          	mov    -0x8(%rbp),%rax
  405d1c:	48 8b 10             	mov    (%rax),%rdx
  405d1f:	48 8b 45 f0          	mov    -0x10(%rbp),%rax
  405d23:	48 8b 00             	mov    (%rax),%rax
  405d26:	48 39 c2             	cmp    %rax,%rdx
  405d29:	0f 95 c0             	setne  %al
  405d2c:	5d                   	pop    %rbp
  405d2d:	c3                   	retq   

0000000000405d2e <_ZN6google8protobuf8internal19RepeatedPtrIteratorIKN10tensorflow15DeviceStepStatsEEppEv>:
  405d2e:	55                   	push   %rbp
  405d2f:	48 89 e5             	mov    %rsp,%rbp
  405d32:	48 89 7d f8          	mov    %rdi,-0x8(%rbp)
  405d36:	48 8b 45 f8          	mov    -0x8(%rbp),%rax
  405d3a:	48 8b 00             	mov    (%rax),%rax
  405d3d:	48 8d 50 08          	lea    0x8(%rax),%rdx
  405d41:	48 8b 45 f8          	mov    -0x8(%rbp),%rax
  405d45:	48 89 10             	mov    %rdx,(%rax)
  405d48:	48 8b 45 f8          	mov    -0x8(%rbp),%rax
  405d4c:	5d                   	pop    %rbp
  405d4d:	c3                   	retq   

0000000000405d4e <_ZNK6google8protobuf8internal19RepeatedPtrIteratorIKN10tensorflow15DeviceStepStatsEEdeEv>:
  405d4e:	55                   	push   %rbp
  405d4f:	48 89 e5             	mov    %rsp,%rbp
  405d52:	48 89 7d f8          	mov    %rdi,-0x8(%rbp)
  405d56:	48 8b 45 f8          	mov    -0x8(%rbp),%rax
  405d5a:	48 8b 00             	mov    (%rax),%rax
  405d5d:	48 8b 00             	mov    (%rax),%rax
  405d60:	5d                   	pop    %rbp
  405d61:	c3                   	retq   

0000000000405d62 <_ZNK6google8protobuf16RepeatedPtrFieldIN10tensorflow13NodeExecStatsEE5beginEv>:
  405d62:	55                   	push   %rbp
  405d63:	48 89 e5             	mov    %rsp,%rbp
  405d66:	48 83 ec 30          	sub    $0x30,%rsp
  405d6a:	48 89 7d d8          	mov    %rdi,-0x28(%rbp)
  405d6e:	64 48 8b 04 25 28 00 	mov    %fs:0x28,%rax
  405d75:	00 00 
  405d77:	48 89 45 f8          	mov    %rax,-0x8(%rbp)
  405d7b:	31 c0                	xor    %eax,%eax
  405d7d:	48 8b 45 d8          	mov    -0x28(%rbp),%rax
  405d81:	48 89 c7             	mov    %rax,%rdi
  405d84:	e8 51 e2 ff ff       	callq  403fda <_ZNK6google8protobuf8internal20RepeatedPtrFieldBase8raw_dataEv>
  405d89:	48 89 c2             	mov    %rax,%rdx
  405d8c:	48 8d 45 e8          	lea    -0x18(%rbp),%rax
  405d90:	48 89 d6             	mov    %rdx,%rsi
  405d93:	48 89 c7             	mov    %rax,%rdi
  405d96:	e8 f1 0d 00 00       	callq  406b8c <_ZN6google8protobuf8internal19RepeatedPtrIteratorIN10tensorflow13NodeExecStatsEEC1EPKPv>
  405d9b:	48 8d 55 e8          	lea    -0x18(%rbp),%rdx
  405d9f:	48 8d 45 f0          	lea    -0x10(%rbp),%rax
  405da3:	48 89 d6             	mov    %rdx,%rsi
  405da6:	48 89 c7             	mov    %rax,%rdi
  405da9:	e8 14 0e 00 00       	callq  406bc2 <_ZN6google8protobuf8internal19RepeatedPtrIteratorIKN10tensorflow13NodeExecStatsEEC1IS4_EERKNS2_IT_EE>
  405dae:	48 8b 45 f0          	mov    -0x10(%rbp),%rax
  405db2:	48 8b 4d f8          	mov    -0x8(%rbp),%rcx
  405db6:	64 48 33 0c 25 28 00 	xor    %fs:0x28,%rcx
  405dbd:	00 00 
  405dbf:	74 05                	je     405dc6 <_ZNK6google8protobuf16RepeatedPtrFieldIN10tensorflow13NodeExecStatsEE5beginEv+0x64>
  405dc1:	e8 9a cf ff ff       	callq  402d60 <__stack_chk_fail@plt>
  405dc6:	c9                   	leaveq 
  405dc7:	c3                   	retq   

0000000000405dc8 <_ZNK6google8protobuf16RepeatedPtrFieldIN10tensorflow13NodeExecStatsEE3endEv>:
  405dc8:	55                   	push   %rbp
  405dc9:	48 89 e5             	mov    %rsp,%rbp
  405dcc:	53                   	push   %rbx
  405dcd:	48 83 ec 38          	sub    $0x38,%rsp
  405dd1:	48 89 7d c8          	mov    %rdi,-0x38(%rbp)
  405dd5:	64 48 8b 04 25 28 00 	mov    %fs:0x28,%rax
  405ddc:	00 00 
  405dde:	48 89 45 e8          	mov    %rax,-0x18(%rbp)
  405de2:	31 c0                	xor    %eax,%eax
  405de4:	48 8b 45 c8          	mov    -0x38(%rbp),%rax
  405de8:	48 89 c7             	mov    %rax,%rdi
  405deb:	e8 ea e1 ff ff       	callq  403fda <_ZNK6google8protobuf8internal20RepeatedPtrFieldBase8raw_dataEv>
  405df0:	48 89 c3             	mov    %rax,%rbx
  405df3:	48 8b 45 c8          	mov    -0x38(%rbp),%rax
  405df7:	48 89 c7             	mov    %rax,%rdi
  405dfa:	e8 cd fd ff ff       	callq  405bcc <_ZNK6google8protobuf16RepeatedPtrFieldIN10tensorflow13NodeExecStatsEE4sizeEv>
  405dff:	48 98                	cltq   
  405e01:	48 c1 e0 03          	shl    $0x3,%rax
  405e05:	48 8d 14 03          	lea    (%rbx,%rax,1),%rdx
  405e09:	48 8d 45 d8          	lea    -0x28(%rbp),%rax
  405e0d:	48 89 d6             	mov    %rdx,%rsi
  405e10:	48 89 c7             	mov    %rax,%rdi
  405e13:	e8 74 0d 00 00       	callq  406b8c <_ZN6google8protobuf8internal19RepeatedPtrIteratorIN10tensorflow13NodeExecStatsEEC1EPKPv>
  405e18:	48 8d 55 d8          	lea    -0x28(%rbp),%rdx
  405e1c:	48 8d 45 e0          	lea    -0x20(%rbp),%rax
  405e20:	48 89 d6             	mov    %rdx,%rsi
  405e23:	48 89 c7             	mov    %rax,%rdi
  405e26:	e8 97 0d 00 00       	callq  406bc2 <_ZN6google8protobuf8internal19RepeatedPtrIteratorIKN10tensorflow13NodeExecStatsEEC1IS4_EERKNS2_IT_EE>
  405e2b:	48 8b 45 e0          	mov    -0x20(%rbp),%rax
  405e2f:	48 8b 4d e8          	mov    -0x18(%rbp),%rcx
  405e33:	64 48 33 0c 25 28 00 	xor    %fs:0x28,%rcx
  405e3a:	00 00 
  405e3c:	74 05                	je     405e43 <_ZNK6google8protobuf16RepeatedPtrFieldIN10tensorflow13NodeExecStatsEE3endEv+0x7b>
  405e3e:	e8 1d cf ff ff       	callq  402d60 <__stack_chk_fail@plt>
  405e43:	48 83 c4 38          	add    $0x38,%rsp
  405e47:	5b                   	pop    %rbx
  405e48:	5d                   	pop    %rbp
  405e49:	c3                   	retq   

0000000000405e4a <_ZNK6google8protobuf8internal19RepeatedPtrIteratorIKN10tensorflow13NodeExecStatsEEneERKS6_>:
  405e4a:	55                   	push   %rbp
  405e4b:	48 89 e5             	mov    %rsp,%rbp
  405e4e:	48 89 7d f8          	mov    %rdi,-0x8(%rbp)
  405e52:	48 89 75 f0          	mov    %rsi,-0x10(%rbp)
  405e56:	48 8b 45 f8          	mov    -0x8(%rbp),%rax
  405e5a:	48 8b 10             	mov    (%rax),%rdx
  405e5d:	48 8b 45 f0          	mov    -0x10(%rbp),%rax
  405e61:	48 8b 00             	mov    (%rax),%rax
  405e64:	48 39 c2             	cmp    %rax,%rdx
  405e67:	0f 95 c0             	setne  %al
  405e6a:	5d                   	pop    %rbp
  405e6b:	c3                   	retq   

0000000000405e6c <_ZN6google8protobuf8internal19RepeatedPtrIteratorIKN10tensorflow13NodeExecStatsEEppEv>:
  405e6c:	55                   	push   %rbp
  405e6d:	48 89 e5             	mov    %rsp,%rbp
  405e70:	48 89 7d f8          	mov    %rdi,-0x8(%rbp)
  405e74:	48 8b 45 f8          	mov    -0x8(%rbp),%rax
  405e78:	48 8b 00             	mov    (%rax),%rax
  405e7b:	48 8d 50 08          	lea    0x8(%rax),%rdx
  405e7f:	48 8b 45 f8          	mov    -0x8(%rbp),%rax
  405e83:	48 89 10             	mov    %rdx,(%rax)
  405e86:	48 8b 45 f8          	mov    -0x8(%rbp),%rax
  405e8a:	5d                   	pop    %rbp
  405e8b:	c3                   	retq   

0000000000405e8c <_ZNK6google8protobuf8internal19RepeatedPtrIteratorIKN10tensorflow13NodeExecStatsEEdeEv>:
  405e8c:	55                   	push   %rbp
  405e8d:	48 89 e5             	mov    %rsp,%rbp
  405e90:	48 89 7d f8          	mov    %rdi,-0x8(%rbp)
  405e94:	48 8b 45 f8          	mov    -0x8(%rbp),%rax
  405e98:	48 8b 00             	mov    (%rax),%rax
  405e9b:	48 8b 00             	mov    (%rax),%rax
  405e9e:	5d                   	pop    %rbp
  405e9f:	c3                   	retq   

0000000000405ea0 <_ZN2CK19get_random_raw_dataIfEEPT_RKNS_5ShapeE>:
  405ea0:	55                   	push   %rbp
  405ea1:	48 89 e5             	mov    %rsp,%rbp
  405ea4:	53                   	push   %rbx
  405ea5:	48 83 ec 38          	sub    $0x38,%rsp
  405ea9:	48 89 7d c8          	mov    %rdi,-0x38(%rbp)
  405ead:	ba 20 00 00 00       	mov    $0x20,%edx
  405eb2:	be 9b 92 40 00       	mov    $0x40929b,%esi
  405eb7:	bf 09 00 00 00       	mov    $0x9,%edi
  405ebc:	e8 c1 ef ff ff       	callq  404e82 <_ZN2CK13store_value_iEiPKci>
  405ec1:	c7 45 dc 40 42 0f 00 	movl   $0xf4240,-0x24(%rbp)
  405ec8:	c7 45 e0 81 84 1e 00 	movl   $0x1e8481,-0x20(%rbp)
  405ecf:	48 8b 45 c8          	mov    -0x38(%rbp),%rax
  405ed3:	48 89 c7             	mov    %rax,%rdi
  405ed6:	e8 c1 ee ff ff       	callq  404d9c <_ZNK2CK5Shape10data_countEv>
  405edb:	89 45 e4             	mov    %eax,-0x1c(%rbp)
  405ede:	8b 45 e4             	mov    -0x1c(%rbp),%eax
  405ee1:	48 63 d0             	movslq %eax,%rdx
  405ee4:	48 b8 fe ff ff ff ff 	movabs $0x1ffffffffffffffe,%rax
  405eeb:	ff ff 1f 
  405eee:	48 39 c2             	cmp    %rax,%rdx
  405ef1:	77 1e                	ja     405f11 <_ZN2CK19get_random_raw_dataIfEEPT_RKNS_5ShapeE+0x71>
  405ef3:	8b 45 e4             	mov    -0x1c(%rbp),%eax
  405ef6:	48 98                	cltq   
  405ef8:	48 c1 e0 02          	shl    $0x2,%rax
  405efc:	48 89 c7             	mov    %rax,%rdi
  405eff:	e8 5c d2 ff ff       	callq  403160 <_Znam@plt>
  405f04:	48 89 45 e8          	mov    %rax,-0x18(%rbp)
  405f08:	c7 45 d8 00 00 00 00 	movl   $0x0,-0x28(%rbp)
  405f0f:	eb 05                	jmp    405f16 <_ZN2CK19get_random_raw_dataIfEEPT_RKNS_5ShapeE+0x76>
  405f11:	e8 aa d2 ff ff       	callq  4031c0 <__cxa_throw_bad_array_new_length@plt>
  405f16:	8b 45 d8             	mov    -0x28(%rbp),%eax
  405f19:	3b 45 e4             	cmp    -0x1c(%rbp),%eax
  405f1c:	7d 5e                	jge    405f7c <_ZN2CK19get_random_raw_dataIfEEPT_RKNS_5ShapeE+0xdc>
  405f1e:	8b 45 d8             	mov    -0x28(%rbp),%eax
  405f21:	48 98                	cltq   
  405f23:	48 8d 14 85 00 00 00 	lea    0x0(,%rax,4),%rdx
  405f2a:	00 
  405f2b:	48 8b 45 e8          	mov    -0x18(%rbp),%rax
  405f2f:	48 8d 1c 02          	lea    (%rdx,%rax,1),%rbx
  405f33:	e8 c8 d2 ff ff       	callq  403200 <rand@plt>
  405f38:	89 c1                	mov    %eax,%ecx
  405f3a:	ba c5 bd 31 04       	mov    $0x431bdc5,%edx
  405f3f:	89 c8                	mov    %ecx,%eax
  405f41:	f7 ea                	imul   %edx
  405f43:	c1 fa 0f             	sar    $0xf,%edx
  405f46:	89 c8                	mov    %ecx,%eax
  405f48:	c1 f8 1f             	sar    $0x1f,%eax
  405f4b:	29 c2                	sub    %eax,%edx
  405f4d:	89 d0                	mov    %edx,%eax
  405f4f:	69 c0 81 84 1e 00    	imul   $0x1e8481,%eax,%eax
  405f55:	29 c1                	sub    %eax,%ecx
  405f57:	89 c8                	mov    %ecx,%eax
  405f59:	2d 40 42 0f 00       	sub    $0xf4240,%eax
  405f5e:	66 0f ef c0          	pxor   %xmm0,%xmm0
  405f62:	f3 0f 2a c0          	cvtsi2ss %eax,%xmm0
  405f66:	f3 0f 10 0d 26 35 00 	movss  0x3526(%rip),%xmm1        # 409494 <_ZZN2CK2TF16process_metadataERKN10tensorflow11RunMetadataEPKcE19__PRETTY_FUNCTION__+0x54>
  405f6d:	00 
  405f6e:	f3 0f 5e c1          	divss  %xmm1,%xmm0
  405f72:	f3 0f 11 03          	movss  %xmm0,(%rbx)
  405f76:	83 45 d8 01          	addl   $0x1,-0x28(%rbp)
  405f7a:	eb 9a                	jmp    405f16 <_ZN2CK19get_random_raw_dataIfEEPT_RKNS_5ShapeE+0x76>
  405f7c:	48 8b 45 e8          	mov    -0x18(%rbp),%rax
  405f80:	48 83 c4 38          	add    $0x38,%rsp
  405f84:	5b                   	pop    %rbx
  405f85:	5d                   	pop    %rbp
  405f86:	c3                   	retq   

0000000000405f87 <_ZN2CK20print_input_raw_dataIfEEvPT_RKNS_5ShapeE>:
  405f87:	55                   	push   %rbp
  405f88:	48 89 e5             	mov    %rsp,%rbp
  405f8b:	48 83 ec 10          	sub    $0x10,%rsp
  405f8f:	48 89 7d f8          	mov    %rdi,-0x8(%rbp)
  405f93:	48 89 75 f0          	mov    %rsi,-0x10(%rbp)
  405f97:	48 8b 75 f0          	mov    -0x10(%rbp),%rsi
  405f9b:	48 8b 45 f8          	mov    -0x8(%rbp),%rax
  405f9f:	b9 a5 92 40 00       	mov    $0x4092a5,%ecx
  405fa4:	ba ab 92 40 00       	mov    $0x4092ab,%edx
  405fa9:	48 89 c7             	mov    %rax,%rdi
  405fac:	e8 09 0d 00 00       	callq  406cba <_ZN2CK12log_raw_dataIfEEvPT_RKNS_5ShapeEPKcS7_>
  405fb1:	90                   	nop
  405fb2:	c9                   	leaveq 
  405fb3:	c3                   	retq   

0000000000405fb4 <_ZN10tensorflow6Tensor4flatIfEENS_6TTypesIT_Li1ElE4FlatEv>:
  405fb4:	55                   	push   %rbp
  405fb5:	48 89 e5             	mov    %rsp,%rbp
  405fb8:	41 55                	push   %r13
  405fba:	41 54                	push   %r12
  405fbc:	53                   	push   %rbx
  405fbd:	48 83 ec 38          	sub    $0x38,%rsp
  405fc1:	48 89 7d b8          	mov    %rdi,-0x48(%rbp)
  405fc5:	64 48 8b 04 25 28 00 	mov    %fs:0x28,%rax
  405fcc:	00 00 
  405fce:	48 89 45 d8          	mov    %rax,-0x28(%rbp)
  405fd2:	31 c0                	xor    %eax,%eax
  405fd4:	48 8b 45 b8          	mov    -0x48(%rbp),%rax
  405fd8:	48 89 c7             	mov    %rax,%rdi
  405fdb:	e8 02 e7 ff ff       	callq  4046e2 <_ZNK10tensorflow6Tensor11NumElementsEv>
  405fe0:	48 89 45 d0          	mov    %rax,-0x30(%rbp)
  405fe4:	48 8d 45 d0          	lea    -0x30(%rbp),%rax
  405fe8:	49 89 c4             	mov    %rax,%r12
  405feb:	41 bd 01 00 00 00    	mov    $0x1,%r13d
  405ff1:	4c 89 e1             	mov    %r12,%rcx
  405ff4:	4c 89 eb             	mov    %r13,%rbx
  405ff7:	4c 89 e0             	mov    %r12,%rax
  405ffa:	4c 89 ea             	mov    %r13,%rdx
  405ffd:	48 8d 45 c0          	lea    -0x40(%rbp),%rax
  406001:	48 89 ce             	mov    %rcx,%rsi
  406004:	48 89 c7             	mov    %rax,%rdi
  406007:	e8 58 0c 00 00       	callq  406c64 <_ZN10tensorflow3gtl10ArraySliceIxEC1ESt16initializer_listIxE>
  40600c:	48 8b 4d c0          	mov    -0x40(%rbp),%rcx
  406010:	48 8b 55 c8          	mov    -0x38(%rbp),%rdx
  406014:	48 8b 45 b8          	mov    -0x48(%rbp),%rax
  406018:	48 89 ce             	mov    %rcx,%rsi
  40601b:	48 89 c7             	mov    %rax,%rdi
  40601e:	e8 0f 0d 00 00       	callq  406d32 <_ZN10tensorflow6Tensor6shapedIfLm1EEENS_6TTypesIT_XT0_ElE6TensorENS_3gtl10ArraySliceIxEE>
  406023:	48 8b 5d d8          	mov    -0x28(%rbp),%rbx
  406027:	64 48 33 1c 25 28 00 	xor    %fs:0x28,%rbx
  40602e:	00 00 
  406030:	74 05                	je     406037 <_ZN10tensorflow6Tensor4flatIfEENS_6TTypesIT_Li1ElE4FlatEv+0x83>
  406032:	e8 29 cd ff ff       	callq  402d60 <__stack_chk_fail@plt>
  406037:	48 83 c4 38          	add    $0x38,%rsp
  40603b:	5b                   	pop    %rbx
  40603c:	41 5c                	pop    %r12
  40603e:	41 5d                	pop    %r13
  406040:	5d                   	pop    %rbp
  406041:	c3                   	retq   

0000000000406042 <_ZN5Eigen9TensorMapINS_6TensorIfLi1ELi1ElEELi16ENS_11MakePointerEE4dataEv>:
  406042:	55                   	push   %rbp
  406043:	48 89 e5             	mov    %rsp,%rbp
  406046:	48 89 7d f8          	mov    %rdi,-0x8(%rbp)
  40604a:	48 8b 45 f8          	mov    -0x8(%rbp),%rax
  40604e:	48 8b 00             	mov    (%rax),%rax
  406051:	5d                   	pop    %rbp
  406052:	c3                   	retq   
  406053:	90                   	nop

0000000000406054 <_ZNSt6vectorIN10tensorflow6TensorESaIS1_EEC1Ev>:
  406054:	55                   	push   %rbp
  406055:	48 89 e5             	mov    %rsp,%rbp
  406058:	48 83 ec 10          	sub    $0x10,%rsp
  40605c:	48 89 7d f8          	mov    %rdi,-0x8(%rbp)
  406060:	48 8b 45 f8          	mov    -0x8(%rbp),%rax
  406064:	48 89 c7             	mov    %rax,%rdi
  406067:	e8 7c 0d 00 00       	callq  406de8 <_ZNSt12_Vector_baseIN10tensorflow6TensorESaIS1_EEC1Ev>
  40606c:	90                   	nop
  40606d:	c9                   	leaveq 
  40606e:	c3                   	retq   
  40606f:	90                   	nop

0000000000406070 <_ZNSt6vectorIN10tensorflow6TensorESaIS1_EED1Ev>:
  406070:	55                   	push   %rbp
  406071:	48 89 e5             	mov    %rsp,%rbp
  406074:	48 83 ec 10          	sub    $0x10,%rsp
  406078:	48 89 7d f8          	mov    %rdi,-0x8(%rbp)
  40607c:	48 8b 45 f8          	mov    -0x8(%rbp),%rax
  406080:	48 89 c7             	mov    %rax,%rdi
  406083:	e8 cc 0d 00 00       	callq  406e54 <_ZNSt12_Vector_baseIN10tensorflow6TensorESaIS1_EE19_M_get_Tp_allocatorEv>
  406088:	48 89 c2             	mov    %rax,%rdx
  40608b:	48 8b 45 f8          	mov    -0x8(%rbp),%rax
  40608f:	48 8b 48 08          	mov    0x8(%rax),%rcx
  406093:	48 8b 45 f8          	mov    -0x8(%rbp),%rax
  406097:	48 8b 00             	mov    (%rax),%rax
  40609a:	48 89 ce             	mov    %rcx,%rsi
  40609d:	48 89 c7             	mov    %rax,%rdi
  4060a0:	e8 bd 0d 00 00       	callq  406e62 <_ZSt8_DestroyIPN10tensorflow6TensorES1_EvT_S3_RSaIT0_E>
  4060a5:	48 8b 45 f8          	mov    -0x8(%rbp),%rax
  4060a9:	48 89 c7             	mov    %rax,%rdi
  4060ac:	e8 53 0d 00 00       	callq  406e04 <_ZNSt12_Vector_baseIN10tensorflow6TensorESaIS1_EED1Ev>
  4060b1:	90                   	nop
  4060b2:	c9                   	leaveq 
  4060b3:	c3                   	retq   

00000000004060b4 <_ZN10tensorflow5Input11InitializerC1IivEERKSt16initializer_listIT_E>:
  4060b4:	55                   	push   %rbp
  4060b5:	48 89 e5             	mov    %rsp,%rbp
  4060b8:	41 55                	push   %r13
  4060ba:	41 54                	push   %r12
  4060bc:	53                   	push   %rbx
  4060bd:	48 83 ec 78          	sub    $0x78,%rsp
  4060c1:	48 89 bd 78 ff ff ff 	mov    %rdi,-0x88(%rbp)
  4060c8:	48 89 b5 70 ff ff ff 	mov    %rsi,-0x90(%rbp)
  4060cf:	64 48 8b 04 25 28 00 	mov    %fs:0x28,%rax
  4060d6:	00 00 
  4060d8:	48 89 45 d8          	mov    %rax,-0x28(%rbp)
  4060dc:	31 c0                	xor    %eax,%eax
  4060de:	48 8b 85 78 ff ff ff 	mov    -0x88(%rbp),%rax
  4060e5:	48 89 c7             	mov    %rax,%rdi
  4060e8:	e8 4b e0 ff ff       	callq  404138 <_ZN10tensorflow6StatusC1Ev>
  4060ed:	48 8b 85 78 ff ff ff 	mov    -0x88(%rbp),%rax
  4060f4:	48 83 c0 08          	add    $0x8,%rax
  4060f8:	48 89 c7             	mov    %rax,%rdi
  4060fb:	e8 30 cd ff ff       	callq  402e30 <_ZN10tensorflow6TensorC1Ev@plt>
  406100:	48 8b 85 70 ff ff ff 	mov    -0x90(%rbp),%rax
  406107:	48 89 c7             	mov    %rax,%rdi
  40610a:	e8 03 fb ff ff       	callq  405c12 <_ZNKSt16initializer_listIiE4sizeEv>
  40610f:	48 98                	cltq   
  406111:	48 89 45 88          	mov    %rax,-0x78(%rbp)
  406115:	48 8d 45 88          	lea    -0x78(%rbp),%rax
  406119:	49 89 c4             	mov    %rax,%r12
  40611c:	41 bd 01 00 00 00    	mov    $0x1,%r13d
  406122:	4c 89 e1             	mov    %r12,%rcx
  406125:	4c 89 eb             	mov    %r13,%rbx
  406128:	4c 89 e0             	mov    %r12,%rax
  40612b:	4c 89 ea             	mov    %r13,%rdx
  40612e:	48 8d 45 90          	lea    -0x70(%rbp),%rax
  406132:	48 89 ce             	mov    %rcx,%rsi
  406135:	48 89 c7             	mov    %rax,%rdi
  406138:	e8 01 f2 ff ff       	callq  40533e <_ZN10tensorflow11TensorShapeC1ESt16initializer_listIxE>
  40613d:	e8 b4 e2 ff ff       	callq  4043f6 <_ZN10tensorflow14DataTypeToEnumIiE1vEv>
  406142:	89 c1                	mov    %eax,%ecx
  406144:	48 8d 55 90          	lea    -0x70(%rbp),%rdx
  406148:	48 8d 45 b0          	lea    -0x50(%rbp),%rax
  40614c:	89 ce                	mov    %ecx,%esi
  40614e:	48 89 c7             	mov    %rax,%rdi
  406151:	e8 ba cc ff ff       	callq  402e10 <_ZN10tensorflow6TensorC1ENS_8DataTypeERKNS_11TensorShapeE@plt>
  406156:	48 8d 45 90          	lea    -0x70(%rbp),%rax
  40615a:	48 89 c7             	mov    %rax,%rdi
  40615d:	e8 42 e6 ff ff       	callq  4047a4 <_ZN10tensorflow11TensorShapeD1Ev>
  406162:	48 8d 45 b0          	lea    -0x50(%rbp),%rax
  406166:	48 89 c7             	mov    %rax,%rdi
  406169:	e8 1e 0d 00 00       	callq  406e8c <_ZN10tensorflow6Tensor4flatIiEENS_6TTypesIT_Li1ElE4FlatEv>
  40616e:	48 89 45 90          	mov    %rax,-0x70(%rbp)
  406172:	48 89 55 98          	mov    %rdx,-0x68(%rbp)
  406176:	48 8d 45 90          	lea    -0x70(%rbp),%rax
  40617a:	48 89 c7             	mov    %rax,%rdi
  40617d:	e8 98 0d 00 00       	callq  406f1a <_ZN5Eigen9TensorMapINS_6TensorIiLi1ELi1ElEELi16ENS_11MakePointerEE4dataEv>
  406182:	49 89 c4             	mov    %rax,%r12
  406185:	48 8b 85 70 ff ff ff 	mov    -0x90(%rbp),%rax
  40618c:	48 89 c7             	mov    %rax,%rdi
  40618f:	e8 7e fa ff ff       	callq  405c12 <_ZNKSt16initializer_listIiE4sizeEv>
  406194:	48 89 c3             	mov    %rax,%rbx
  406197:	48 8b 85 70 ff ff ff 	mov    -0x90(%rbp),%rax
  40619e:	48 89 c7             	mov    %rax,%rdi
  4061a1:	e8 5a fa ff ff       	callq  405c00 <_ZNKSt16initializer_listIiE5beginEv>
  4061a6:	4c 89 e2             	mov    %r12,%rdx
  4061a9:	48 89 de             	mov    %rbx,%rsi
  4061ac:	48 89 c7             	mov    %rax,%rdi
  4061af:	e8 77 0d 00 00       	callq  406f2b <_ZSt6copy_nIPKimPiET1_T_T0_S3_>
  4061b4:	48 8b 85 78 ff ff ff 	mov    -0x88(%rbp),%rax
  4061bb:	48 8d 50 08          	lea    0x8(%rax),%rdx
  4061bf:	48 8d 45 b0          	lea    -0x50(%rbp),%rax
  4061c3:	48 89 c6             	mov    %rax,%rsi
  4061c6:	48 89 d7             	mov    %rdx,%rdi
  4061c9:	e8 36 e5 ff ff       	callq  404704 <_ZN10tensorflow6TensoraSERKS0_>
  4061ce:	48 8d 45 b0          	lea    -0x50(%rbp),%rax
  4061d2:	48 89 c7             	mov    %rax,%rdi
  4061d5:	e8 f6 cb ff ff       	callq  402dd0 <_ZN10tensorflow6TensorD1Ev@plt>
  4061da:	90                   	nop
  4061db:	48 8b 45 d8          	mov    -0x28(%rbp),%rax
  4061df:	64 48 33 04 25 28 00 	xor    %fs:0x28,%rax
  4061e6:	00 00 
  4061e8:	74 5e                	je     406248 <_ZN10tensorflow5Input11InitializerC1IivEERKSt16initializer_listIT_E+0x194>
  4061ea:	eb 57                	jmp    406243 <_ZN10tensorflow5Input11InitializerC1IivEERKSt16initializer_listIT_E+0x18f>
  4061ec:	48 89 c3             	mov    %rax,%rbx
  4061ef:	48 8d 45 90          	lea    -0x70(%rbp),%rax
  4061f3:	48 89 c7             	mov    %rax,%rdi
  4061f6:	e8 a9 e5 ff ff       	callq  4047a4 <_ZN10tensorflow11TensorShapeD1Ev>
  4061fb:	eb 14                	jmp    406211 <_ZN10tensorflow5Input11InitializerC1IivEERKSt16initializer_listIT_E+0x15d>
  4061fd:	48 89 c3             	mov    %rax,%rbx
  406200:	48 8d 45 b0          	lea    -0x50(%rbp),%rax
  406204:	48 89 c7             	mov    %rax,%rdi
  406207:	e8 c4 cb ff ff       	callq  402dd0 <_ZN10tensorflow6TensorD1Ev@plt>
  40620c:	eb 03                	jmp    406211 <_ZN10tensorflow5Input11InitializerC1IivEERKSt16initializer_listIT_E+0x15d>
  40620e:	48 89 c3             	mov    %rax,%rbx
  406211:	48 8b 85 78 ff ff ff 	mov    -0x88(%rbp),%rax
  406218:	48 83 c0 08          	add    $0x8,%rax
  40621c:	48 89 c7             	mov    %rax,%rdi
  40621f:	e8 ac cb ff ff       	callq  402dd0 <_ZN10tensorflow6TensorD1Ev@plt>
  406224:	eb 03                	jmp    406229 <_ZN10tensorflow5Input11InitializerC1IivEERKSt16initializer_listIT_E+0x175>
  406226:	48 89 c3             	mov    %rax,%rbx
  406229:	48 8b 85 78 ff ff ff 	mov    -0x88(%rbp),%rax
  406230:	48 89 c7             	mov    %rax,%rdi
  406233:	e8 1c df ff ff       	callq  404154 <_ZN10tensorflow6StatusD1Ev>
  406238:	48 89 d8             	mov    %rbx,%rax
  40623b:	48 89 c7             	mov    %rax,%rdi
  40623e:	e8 cd cd ff ff       	callq  403010 <_Unwind_Resume@plt>
  406243:	e8 18 cb ff ff       	callq  402d60 <__stack_chk_fail@plt>
  406248:	48 83 c4 78          	add    $0x78,%rsp
  40624c:	5b                   	pop    %rbx
  40624d:	41 5c                	pop    %r12
  40624f:	41 5d                	pop    %r13
  406251:	5d                   	pop    %rbp
  406252:	c3                   	retq   
  406253:	90                   	nop

0000000000406254 <_ZNSaINSt8__detail10_Hash_nodeISt4pairIKN10tensorflow6OutputENS2_5Input11InitializerEELb1EEEEC1Ev>:
  406254:	55                   	push   %rbp
  406255:	48 89 e5             	mov    %rsp,%rbp
  406258:	48 83 ec 10          	sub    $0x10,%rsp
  40625c:	48 89 7d f8          	mov    %rdi,-0x8(%rbp)
  406260:	48 8b 45 f8          	mov    -0x8(%rbp),%rax
  406264:	48 89 c7             	mov    %rax,%rdi
  406267:	e8 2a 0d 00 00       	callq  406f96 <_ZN9__gnu_cxx13new_allocatorINSt8__detail10_Hash_nodeISt4pairIKN10tensorflow6OutputENS4_5Input11InitializerEELb1EEEEC1Ev>
  40626c:	90                   	nop
  40626d:	c9                   	leaveq 
  40626e:	c3                   	retq   
  40626f:	90                   	nop

0000000000406270 <_ZNSaINSt8__detail10_Hash_nodeISt4pairIKN10tensorflow6OutputENS2_5Input11InitializerEELb1EEEED1Ev>:
  406270:	55                   	push   %rbp
  406271:	48 89 e5             	mov    %rsp,%rbp
  406274:	48 83 ec 10          	sub    $0x10,%rsp
  406278:	48 89 7d f8          	mov    %rdi,-0x8(%rbp)
  40627c:	48 8b 45 f8          	mov    -0x8(%rbp),%rax
  406280:	48 89 c7             	mov    %rax,%rdi
  406283:	e8 1a 0d 00 00       	callq  406fa2 <_ZN9__gnu_cxx13new_allocatorINSt8__detail10_Hash_nodeISt4pairIKN10tensorflow6OutputENS4_5Input11InitializerEELb1EEEED1Ev>
  406288:	90                   	nop
  406289:	c9                   	leaveq 
  40628a:	c3                   	retq   
  40628b:	90                   	nop

000000000040628c <_ZNSt10_HashtableIN10tensorflow6OutputESt4pairIKS1_NS0_5Input11InitializerEESaIS6_ENSt8__detail10_Select1stESt8equal_toIS1_ENS0_10OutputHashENS8_18_Mod_range_hashingENS8_20_Default_ranged_hashENS8_20_Prime_rehash_policyENS8_17_Hashtable_traitsILb1ELb0ELb1EEEED1Ev>:
  40628c:	55                   	push   %rbp
  40628d:	48 89 e5             	mov    %rsp,%rbp
  406290:	48 83 ec 10          	sub    $0x10,%rsp
  406294:	48 89 7d f8          	mov    %rdi,-0x8(%rbp)
  406298:	48 8b 45 f8          	mov    -0x8(%rbp),%rax
  40629c:	48 89 c7             	mov    %rax,%rdi
  40629f:	e8 0a 0d 00 00       	callq  406fae <_ZNSt10_HashtableIN10tensorflow6OutputESt4pairIKS1_NS0_5Input11InitializerEESaIS6_ENSt8__detail10_Select1stESt8equal_toIS1_ENS0_10OutputHashENS8_18_Mod_range_hashingENS8_20_Default_ranged_hashENS8_20_Prime_rehash_policyENS8_17_Hashtable_traitsILb1ELb0ELb1EEEE5clearEv>
  4062a4:	48 8b 45 f8          	mov    -0x8(%rbp),%rax
  4062a8:	48 89 c7             	mov    %rax,%rdi
  4062ab:	e8 68 0d 00 00       	callq  407018 <_ZNSt10_HashtableIN10tensorflow6OutputESt4pairIKS1_NS0_5Input11InitializerEESaIS6_ENSt8__detail10_Select1stESt8equal_toIS1_ENS0_10OutputHashENS8_18_Mod_range_hashingENS8_20_Default_ranged_hashENS8_20_Prime_rehash_policyENS8_17_Hashtable_traitsILb1ELb0ELb1EEEE21_M_deallocate_bucketsEv>
  4062b0:	48 8b 45 f8          	mov    -0x8(%rbp),%rax
  4062b4:	48 89 c7             	mov    %rax,%rdi
  4062b7:	e8 42 f3 ff ff       	callq  4055fe <_ZNSt8__detail16_Hashtable_allocISaINS_10_Hash_nodeISt4pairIKN10tensorflow6OutputENS3_5Input11InitializerEELb1EEEEED1Ev>
  4062bc:	90                   	nop
  4062bd:	c9                   	leaveq 
  4062be:	c3                   	retq   
  4062bf:	90                   	nop

00000000004062c0 <_ZNSaIN10tensorflow6OutputEEC1Ev>:
  4062c0:	55                   	push   %rbp
  4062c1:	48 89 e5             	mov    %rsp,%rbp
  4062c4:	48 83 ec 10          	sub    $0x10,%rsp
  4062c8:	48 89 7d f8          	mov    %rdi,-0x8(%rbp)
  4062cc:	48 8b 45 f8          	mov    -0x8(%rbp),%rax
  4062d0:	48 89 c7             	mov    %rax,%rdi
  4062d3:	e8 6e 0d 00 00       	callq  407046 <_ZN9__gnu_cxx13new_allocatorIN10tensorflow6OutputEEC1Ev>
  4062d8:	90                   	nop
  4062d9:	c9                   	leaveq 
  4062da:	c3                   	retq   
  4062db:	90                   	nop

00000000004062dc <_ZNSaIN10tensorflow6OutputEED1Ev>:
  4062dc:	55                   	push   %rbp
  4062dd:	48 89 e5             	mov    %rsp,%rbp
  4062e0:	48 83 ec 10          	sub    $0x10,%rsp
  4062e4:	48 89 7d f8          	mov    %rdi,-0x8(%rbp)
  4062e8:	48 8b 45 f8          	mov    -0x8(%rbp),%rax
  4062ec:	48 89 c7             	mov    %rax,%rdi
  4062ef:	e8 5e 0d 00 00       	callq  407052 <_ZN9__gnu_cxx13new_allocatorIN10tensorflow6OutputEED1Ev>
  4062f4:	90                   	nop
  4062f5:	c9                   	leaveq 
  4062f6:	c3                   	retq   
  4062f7:	90                   	nop

00000000004062f8 <_ZNSt6vectorIN10tensorflow6OutputESaIS1_EEC1ESt16initializer_listIS1_ERKS2_>:
  4062f8:	55                   	push   %rbp
  4062f9:	48 89 e5             	mov    %rsp,%rbp
  4062fc:	41 54                	push   %r12
  4062fe:	53                   	push   %rbx
  4062ff:	48 83 ec 30          	sub    $0x30,%rsp
  406303:	48 89 7d d8          	mov    %rdi,-0x28(%rbp)
  406307:	48 89 f0             	mov    %rsi,%rax
  40630a:	48 89 d6             	mov    %rdx,%rsi
  40630d:	48 89 f2             	mov    %rsi,%rdx
  406310:	48 89 45 c0          	mov    %rax,-0x40(%rbp)
  406314:	48 89 55 c8          	mov    %rdx,-0x38(%rbp)
  406318:	48 89 4d d0          	mov    %rcx,-0x30(%rbp)
  40631c:	64 48 8b 04 25 28 00 	mov    %fs:0x28,%rax
  406323:	00 00 
  406325:	48 89 45 e8          	mov    %rax,-0x18(%rbp)
  406329:	31 c0                	xor    %eax,%eax
  40632b:	48 8b 45 d8          	mov    -0x28(%rbp),%rax
  40632f:	48 8b 55 d0          	mov    -0x30(%rbp),%rdx
  406333:	48 89 d6             	mov    %rdx,%rsi
  406336:	48 89 c7             	mov    %rax,%rdi
  406339:	e8 3c 0d 00 00       	callq  40707a <_ZNSt12_Vector_baseIN10tensorflow6OutputESaIS1_EEC1ERKS2_>
  40633e:	48 8d 45 c0          	lea    -0x40(%rbp),%rax
  406342:	48 89 c7             	mov    %rax,%rdi
  406345:	e8 ba e8 ff ff       	callq  404c04 <_ZNKSt16initializer_listIN10tensorflow6OutputEE3endEv>
  40634a:	48 89 c3             	mov    %rax,%rbx
  40634d:	48 8d 45 c0          	lea    -0x40(%rbp),%rax
  406351:	48 89 c7             	mov    %rax,%rdi
  406354:	e8 87 e8 ff ff       	callq  404be0 <_ZNKSt16initializer_listIN10tensorflow6OutputEE5beginEv>
  406359:	48 89 c1             	mov    %rax,%rcx
  40635c:	48 8b 45 d8          	mov    -0x28(%rbp),%rax
  406360:	48 83 ec 08          	sub    $0x8,%rsp
  406364:	41 54                	push   %r12
  406366:	48 89 da             	mov    %rbx,%rdx
  406369:	48 89 ce             	mov    %rcx,%rsi
  40636c:	48 89 c7             	mov    %rax,%rdi
  40636f:	e8 8e 0d 00 00       	callq  407102 <_ZNSt6vectorIN10tensorflow6OutputESaIS1_EE19_M_range_initializeIPKS1_EEvT_S7_St20forward_iterator_tag>
  406374:	48 83 c4 10          	add    $0x10,%rsp
  406378:	90                   	nop
  406379:	48 8b 45 e8          	mov    -0x18(%rbp),%rax
  40637d:	64 48 33 04 25 28 00 	xor    %fs:0x28,%rax
  406384:	00 00 
  406386:	74 21                	je     4063a9 <_ZNSt6vectorIN10tensorflow6OutputESaIS1_EEC1ESt16initializer_listIS1_ERKS2_+0xb1>
  406388:	eb 1a                	jmp    4063a4 <_ZNSt6vectorIN10tensorflow6OutputESaIS1_EEC1ESt16initializer_listIS1_ERKS2_+0xac>
  40638a:	48 89 c3             	mov    %rax,%rbx
  40638d:	48 8b 45 d8          	mov    -0x28(%rbp),%rax
  406391:	48 89 c7             	mov    %rax,%rdi
  406394:	e8 07 0d 00 00       	callq  4070a0 <_ZNSt12_Vector_baseIN10tensorflow6OutputESaIS1_EED1Ev>
  406399:	48 89 d8             	mov    %rbx,%rax
  40639c:	48 89 c7             	mov    %rax,%rdi
  40639f:	e8 6c cc ff ff       	callq  403010 <_Unwind_Resume@plt>
  4063a4:	e8 b7 c9 ff ff       	callq  402d60 <__stack_chk_fail@plt>
  4063a9:	48 8d 65 f0          	lea    -0x10(%rbp),%rsp
  4063ad:	5b                   	pop    %rbx
  4063ae:	41 5c                	pop    %r12
  4063b0:	5d                   	pop    %rbp
  4063b1:	c3                   	retq   

00000000004063b2 <_ZNSt6vectorIN10tensorflow6OutputESaIS1_EED1Ev>:
  4063b2:	55                   	push   %rbp
  4063b3:	48 89 e5             	mov    %rsp,%rbp
  4063b6:	48 83 ec 10          	sub    $0x10,%rsp
  4063ba:	48 89 7d f8          	mov    %rdi,-0x8(%rbp)
  4063be:	48 8b 45 f8          	mov    -0x8(%rbp),%rax
  4063c2:	48 89 c7             	mov    %rax,%rdi
  4063c5:	e8 da 0d 00 00       	callq  4071a4 <_ZNSt12_Vector_baseIN10tensorflow6OutputESaIS1_EE19_M_get_Tp_allocatorEv>
  4063ca:	48 89 c2             	mov    %rax,%rdx
  4063cd:	48 8b 45 f8          	mov    -0x8(%rbp),%rax
  4063d1:	48 8b 48 08          	mov    0x8(%rax),%rcx
  4063d5:	48 8b 45 f8          	mov    -0x8(%rbp),%rax
  4063d9:	48 8b 00             	mov    (%rax),%rax
  4063dc:	48 89 ce             	mov    %rcx,%rsi
  4063df:	48 89 c7             	mov    %rax,%rdi
  4063e2:	e8 cb 0d 00 00       	callq  4071b2 <_ZSt8_DestroyIPN10tensorflow6OutputES1_EvT_S3_RSaIT0_E>
  4063e7:	48 8b 45 f8          	mov    -0x8(%rbp),%rax
  4063eb:	48 89 c7             	mov    %rax,%rdi
  4063ee:	e8 ad 0c 00 00       	callq  4070a0 <_ZNSt12_Vector_baseIN10tensorflow6OutputESaIS1_EED1Ev>
  4063f3:	90                   	nop
  4063f4:	c9                   	leaveq 
  4063f5:	c3                   	retq   

00000000004063f6 <_ZNSt6vectorIN10tensorflow9OperationESaIS1_EEC1Ev>:
  4063f6:	55                   	push   %rbp
  4063f7:	48 89 e5             	mov    %rsp,%rbp
  4063fa:	48 83 ec 10          	sub    $0x10,%rsp
  4063fe:	48 89 7d f8          	mov    %rdi,-0x8(%rbp)
  406402:	48 8b 45 f8          	mov    -0x8(%rbp),%rax
  406406:	48 89 c7             	mov    %rax,%rdi
  406409:	e8 ea 0d 00 00       	callq  4071f8 <_ZNSt12_Vector_baseIN10tensorflow9OperationESaIS1_EEC1Ev>
  40640e:	90                   	nop
  40640f:	c9                   	leaveq 
  406410:	c3                   	retq   
  406411:	90                   	nop

0000000000406412 <_ZNSt6vectorIN10tensorflow9OperationESaIS1_EED1Ev>:
  406412:	55                   	push   %rbp
  406413:	48 89 e5             	mov    %rsp,%rbp
  406416:	48 83 ec 10          	sub    $0x10,%rsp
  40641a:	48 89 7d f8          	mov    %rdi,-0x8(%rbp)
  40641e:	48 8b 45 f8          	mov    -0x8(%rbp),%rax
  406422:	48 89 c7             	mov    %rax,%rdi
  406425:	e8 3a 0e 00 00       	callq  407264 <_ZNSt12_Vector_baseIN10tensorflow9OperationESaIS1_EE19_M_get_Tp_allocatorEv>
  40642a:	48 89 c2             	mov    %rax,%rdx
  40642d:	48 8b 45 f8          	mov    -0x8(%rbp),%rax
  406431:	48 8b 48 08          	mov    0x8(%rax),%rcx
  406435:	48 8b 45 f8          	mov    -0x8(%rbp),%rax
  406439:	48 8b 00             	mov    (%rax),%rax
  40643c:	48 89 ce             	mov    %rcx,%rsi
  40643f:	48 89 c7             	mov    %rax,%rdi
  406442:	e8 2b 0e 00 00       	callq  407272 <_ZSt8_DestroyIPN10tensorflow9OperationES1_EvT_S3_RSaIT0_E>
  406447:	48 8b 45 f8          	mov    -0x8(%rbp),%rax
  40644b:	48 89 c7             	mov    %rax,%rdi
