
avgpool:     file format elf64-x86-64


Disassembly of section .init:

0000000000402c58 <_init>:
  402c58:	48 83 ec 08          	sub    $0x8,%rsp
  402c5c:	48 8b 05 95 b3 20 00 	mov    0x20b395(%rip),%rax        # 60dff8 <_DYNAMIC+0x210>
  402c63:	48 85 c0             	test   %rax,%rax
  402c66:	74 05                	je     402c6d <_init+0x15>
  402c68:	e8 43 05 00 00       	callq  4031b0 <_ZNSaIcED1Ev@plt+0x10>
  402c6d:	48 83 c4 08          	add    $0x8,%rsp
  402c71:	c3                   	retq   

Disassembly of section .plt:

0000000000402c80 <_ZNSt7__cxx1112basic_stringIcSt11char_traitsIcESaIcEEC1ERKS4_@plt-0x10>:
  402c80:	ff 35 82 b3 20 00    	pushq  0x20b382(%rip)        # 60e008 <_GLOBAL_OFFSET_TABLE_+0x8>
  402c86:	ff 25 84 b3 20 00    	jmpq   *0x20b384(%rip)        # 60e010 <_GLOBAL_OFFSET_TABLE_+0x10>
  402c8c:	0f 1f 40 00          	nopl   0x0(%rax)

0000000000402c90 <_ZNSt7__cxx1112basic_stringIcSt11char_traitsIcESaIcEEC1ERKS4_@plt>:
  402c90:	ff 25 82 b3 20 00    	jmpq   *0x20b382(%rip)        # 60e018 <_GLOBAL_OFFSET_TABLE_+0x18>
  402c96:	68 00 00 00 00       	pushq  $0x0
  402c9b:	e9 e0 ff ff ff       	jmpq   402c80 <_init+0x28>

0000000000402ca0 <_ZN10tensorflow10RunOptionsD1Ev@plt>:
  402ca0:	ff 25 7a b3 20 00    	jmpq   *0x20b37a(%rip)        # 60e020 <_GLOBAL_OFFSET_TABLE_+0x20>
  402ca6:	68 01 00 00 00       	pushq  $0x1
  402cab:	e9 d0 ff ff ff       	jmpq   402c80 <_init+0x28>

0000000000402cb0 <_ZN10tensorflow8internal15LogMessageFatalC1EPKci@plt>:
  402cb0:	ff 25 72 b3 20 00    	jmpq   *0x20b372(%rip)        # 60e028 <_GLOBAL_OFFSET_TABLE_+0x28>
  402cb6:	68 02 00 00 00       	pushq  $0x2
  402cbb:	e9 c0 ff ff ff       	jmpq   402c80 <_init+0x28>

0000000000402cc0 <__assert_fail@plt>:
  402cc0:	ff 25 6a b3 20 00    	jmpq   *0x20b36a(%rip)        # 60e030 <_GLOBAL_OFFSET_TABLE_+0x30>
  402cc6:	68 03 00 00 00       	pushq  $0x3
  402ccb:	e9 b0 ff ff ff       	jmpq   402c80 <_init+0x28>

0000000000402cd0 <__stack_chk_fail@plt>:
  402cd0:	ff 25 62 b3 20 00    	jmpq   *0x20b362(%rip)        # 60e038 <_GLOBAL_OFFSET_TABLE_+0x38>
  402cd6:	68 04 00 00 00       	pushq  $0x4
  402cdb:	e9 a0 ff ff ff       	jmpq   402c80 <_init+0x28>

0000000000402ce0 <memset@plt>:
  402ce0:	ff 25 5a b3 20 00    	jmpq   *0x20b35a(%rip)        # 60e040 <_GLOBAL_OFFSET_TABLE_+0x40>
  402ce6:	68 05 00 00 00       	pushq  $0x5
  402ceb:	e9 90 ff ff ff       	jmpq   402c80 <_init+0x28>

0000000000402cf0 <clock_gettime@plt>:
  402cf0:	ff 25 52 b3 20 00    	jmpq   *0x20b352(%rip)        # 60e048 <_GLOBAL_OFFSET_TABLE_+0x48>
  402cf6:	68 06 00 00 00       	pushq  $0x6
  402cfb:	e9 80 ff ff ff       	jmpq   402c80 <_init+0x28>

0000000000402d00 <_ZdlPv@plt>:
  402d00:	ff 25 4a b3 20 00    	jmpq   *0x20b34a(%rip)        # 60e050 <_GLOBAL_OFFSET_TABLE_+0x50>
  402d06:	68 07 00 00 00       	pushq  $0x7
  402d0b:	e9 70 ff ff ff       	jmpq   402c80 <_init+0x28>

0000000000402d10 <xopenme_clock_start@plt>:
  402d10:	ff 25 42 b3 20 00    	jmpq   *0x20b342(%rip)        # 60e058 <_GLOBAL_OFFSET_TABLE_+0x58>
  402d16:	68 08 00 00 00       	pushq  $0x8
  402d1b:	e9 60 ff ff ff       	jmpq   402c80 <_init+0x28>

0000000000402d20 <_ZN10tensorflow15TensorShapeBaseINS_11TensorShapeEEC2ESt16initializer_listIxE@plt>:
  402d20:	ff 25 3a b3 20 00    	jmpq   *0x20b33a(%rip)        # 60e060 <_GLOBAL_OFFSET_TABLE_+0x60>
  402d26:	68 09 00 00 00       	pushq  $0x9
  402d2b:	e9 50 ff ff ff       	jmpq   402c80 <_init+0x28>

0000000000402d30 <_ZN10tensorflow11RunMetadataD1Ev@plt>:
  402d30:	ff 25 32 b3 20 00    	jmpq   *0x20b332(%rip)        # 60e068 <_GLOBAL_OFFSET_TABLE_+0x68>
  402d36:	68 0a 00 00 00       	pushq  $0xa
  402d3b:	e9 40 ff ff ff       	jmpq   402c80 <_init+0x28>

0000000000402d40 <_ZN10tensorflow6TensorD1Ev@plt>:
  402d40:	ff 25 2a b3 20 00    	jmpq   *0x20b32a(%rip)        # 60e070 <_GLOBAL_OFFSET_TABLE_+0x70>
  402d46:	68 0b 00 00 00       	pushq  $0xb
  402d4b:	e9 30 ff ff ff       	jmpq   402c80 <_init+0x28>

0000000000402d50 <__cxa_atexit@plt>:
  402d50:	ff 25 22 b3 20 00    	jmpq   *0x20b322(%rip)        # 60e078 <_GLOBAL_OFFSET_TABLE_+0x78>
  402d56:	68 0c 00 00 00       	pushq  $0xc
  402d5b:	e9 20 ff ff ff       	jmpq   402c80 <_init+0x28>

0000000000402d60 <_ZN10tensorflow3ops7AvgPoolC1ERKNS_5ScopeENS_5InputERKNS_3gtl10ArraySliceIiEESA_NS_11StringPieceE@plt>:
  402d60:	ff 25 1a b3 20 00    	jmpq   *0x20b31a(%rip)        # 60e080 <_GLOBAL_OFFSET_TABLE_+0x80>
  402d66:	68 0d 00 00 00       	pushq  $0xd
  402d6b:	e9 10 ff ff ff       	jmpq   402c80 <_init+0x28>

0000000000402d70 <_ZNSaIcEC1Ev@plt>:
  402d70:	ff 25 12 b3 20 00    	jmpq   *0x20b312(%rip)        # 60e088 <_GLOBAL_OFFSET_TABLE_+0x88>
  402d76:	68 0e 00 00 00       	pushq  $0xe
  402d7b:	e9 00 ff ff ff       	jmpq   402c80 <_init+0x28>

0000000000402d80 <sprintf@plt>:
  402d80:	ff 25 0a b3 20 00    	jmpq   *0x20b30a(%rip)        # 60e090 <_GLOBAL_OFFSET_TABLE_+0x90>
  402d86:	68 0f 00 00 00       	pushq  $0xf
  402d8b:	e9 f0 fe ff ff       	jmpq   402c80 <_init+0x28>

0000000000402d90 <_ZN10tensorflow6TensorC1ENS_8DataTypeERKNS_11TensorShapeE@plt>:
  402d90:	ff 25 02 b3 20 00    	jmpq   *0x20b302(%rip)        # 60e098 <_GLOBAL_OFFSET_TABLE_+0x98>
  402d96:	68 10 00 00 00       	pushq  $0x10
  402d9b:	e9 e0 fe ff ff       	jmpq   402c80 <_init+0x28>

0000000000402da0 <putchar@plt>:
  402da0:	ff 25 fa b2 20 00    	jmpq   *0x20b2fa(%rip)        # 60e0a0 <_GLOBAL_OFFSET_TABLE_+0xa0>
  402da6:	68 11 00 00 00       	pushq  $0x11
  402dab:	e9 d0 fe ff ff       	jmpq   402c80 <_init+0x28>

0000000000402db0 <printf@plt>:
  402db0:	ff 25 f2 b2 20 00    	jmpq   *0x20b2f2(%rip)        # 60e0a8 <_GLOBAL_OFFSET_TABLE_+0xa8>
  402db6:	68 12 00 00 00       	pushq  $0x12
  402dbb:	e9 c0 fe ff ff       	jmpq   402c80 <_init+0x28>

0000000000402dc0 <_ZN10tensorflow14TensorShapeRep19DestructorOutOfLineEv@plt>:
  402dc0:	ff 25 ea b2 20 00    	jmpq   *0x20b2ea(%rip)        # 60e0b0 <_GLOBAL_OFFSET_TABLE_+0xb0>
  402dc6:	68 13 00 00 00       	pushq  $0x13
  402dcb:	e9 b0 fe ff ff       	jmpq   402c80 <_init+0x28>

0000000000402dd0 <_ZStlsIcSt11char_traitsIcESaIcEERSt13basic_ostreamIT_T0_ES7_RKNSt7__cxx1112basic_stringIS4_S5_T1_EE@plt>:
  402dd0:	ff 25 e2 b2 20 00    	jmpq   *0x20b2e2(%rip)        # 60e0b8 <_GLOBAL_OFFSET_TABLE_+0xb8>
  402dd6:	68 14 00 00 00       	pushq  $0x14
  402ddb:	e9 a0 fe ff ff       	jmpq   402c80 <_init+0x28>

0000000000402de0 <_ZNK10tensorflow6Tensor9CheckTypeENS_8DataTypeE@plt>:
  402de0:	ff 25 da b2 20 00    	jmpq   *0x20b2da(%rip)        # 60e0c0 <_GLOBAL_OFFSET_TABLE_+0xc0>
  402de6:	68 15 00 00 00       	pushq  $0x15
  402deb:	e9 90 fe ff ff       	jmpq   402c80 <_init+0x28>

0000000000402df0 <_ZNSolsEi@plt>:
  402df0:	ff 25 d2 b2 20 00    	jmpq   *0x20b2d2(%rip)        # 60e0c8 <_GLOBAL_OFFSET_TABLE_+0xc8>
  402df6:	68 16 00 00 00       	pushq  $0x16
  402dfb:	e9 80 fe ff ff       	jmpq   402c80 <_init+0x28>

0000000000402e00 <__gxx_personality_v0@plt>:
  402e00:	ff 25 ca b2 20 00    	jmpq   *0x20b2ca(%rip)        # 60e0d0 <_GLOBAL_OFFSET_TABLE_+0xd0>
  402e06:	68 17 00 00 00       	pushq  $0x17
  402e0b:	e9 70 fe ff ff       	jmpq   402c80 <_init+0x28>

0000000000402e10 <_ZN10tensorflow5ScopeD1Ev@plt>:
  402e10:	ff 25 c2 b2 20 00    	jmpq   *0x20b2c2(%rip)        # 60e0d8 <_GLOBAL_OFFSET_TABLE_+0xd8>
  402e16:	68 18 00 00 00       	pushq  $0x18
  402e1b:	e9 60 fe ff ff       	jmpq   402c80 <_init+0x28>

0000000000402e20 <_ZNSt7__cxx1112basic_stringIcSt11char_traitsIcESaIcEED1Ev@plt>:
  402e20:	ff 25 ba b2 20 00    	jmpq   *0x20b2ba(%rip)        # 60e0e0 <_GLOBAL_OFFSET_TABLE_+0xe0>
  402e26:	68 19 00 00 00       	pushq  $0x19
  402e2b:	e9 50 fe ff ff       	jmpq   402c80 <_init+0x28>

0000000000402e30 <getenv@plt>:
  402e30:	ff 25 b2 b2 20 00    	jmpq   *0x20b2b2(%rip)        # 60e0e8 <_GLOBAL_OFFSET_TABLE_+0xe8>
  402e36:	68 1a 00 00 00       	pushq  $0x1a
  402e3b:	e9 40 fe ff ff       	jmpq   402c80 <_init+0x28>

0000000000402e40 <_ZNK10tensorflow15TensorShapeBaseINS_11TensorShapeEE8dim_sizeEi@plt>:
  402e40:	ff 25 aa b2 20 00    	jmpq   *0x20b2aa(%rip)        # 60e0f0 <_GLOBAL_OFFSET_TABLE_+0xf0>
  402e46:	68 1b 00 00 00       	pushq  $0x1b
  402e4b:	e9 30 fe ff ff       	jmpq   402c80 <_init+0x28>

0000000000402e50 <_ZN10tensorflow14StatSummarizerD1Ev@plt>:
  402e50:	ff 25 a2 b2 20 00    	jmpq   *0x20b2a2(%rip)        # 60e0f8 <_GLOBAL_OFFSET_TABLE_+0xf8>
  402e56:	68 1c 00 00 00       	pushq  $0x1c
  402e5b:	e9 20 fe ff ff       	jmpq   402c80 <_init+0x28>

0000000000402e60 <_ZN10tensorflow8internal15LogMessageFatalD1Ev@plt>:
  402e60:	ff 25 9a b2 20 00    	jmpq   *0x20b29a(%rip)        # 60e100 <_GLOBAL_OFFSET_TABLE_+0x100>
  402e66:	68 1d 00 00 00       	pushq  $0x1d
  402e6b:	e9 10 fe ff ff       	jmpq   402c80 <_init+0x28>

0000000000402e70 <__libc_start_main@plt>:
  402e70:	ff 25 92 b2 20 00    	jmpq   *0x20b292(%rip)        # 60e108 <_GLOBAL_OFFSET_TABLE_+0x108>
  402e76:	68 1e 00 00 00       	pushq  $0x1e
  402e7b:	e9 00 fe ff ff       	jmpq   402c80 <_init+0x28>

0000000000402e80 <puts@plt>:
  402e80:	ff 25 8a b2 20 00    	jmpq   *0x20b28a(%rip)        # 60e110 <_GLOBAL_OFFSET_TABLE_+0x110>
  402e86:	68 1f 00 00 00       	pushq  $0x1f
  402e8b:	e9 f0 fd ff ff       	jmpq   402c80 <_init+0x28>

0000000000402e90 <_ZN10tensorflow5Scope12NewRootScopeEv@plt>:
  402e90:	ff 25 82 b2 20 00    	jmpq   *0x20b282(%rip)        # 60e118 <_GLOBAL_OFFSET_TABLE_+0x118>
  402e96:	68 20 00 00 00       	pushq  $0x20
  402e9b:	e9 e0 fd ff ff       	jmpq   402c80 <_init+0x28>

0000000000402ea0 <srand@plt>:
  402ea0:	ff 25 7a b2 20 00    	jmpq   *0x20b27a(%rip)        # 60e120 <_GLOBAL_OFFSET_TABLE_+0x120>
  402ea6:	68 21 00 00 00       	pushq  $0x21
  402eab:	e9 d0 fd ff ff       	jmpq   402c80 <_init+0x28>

0000000000402eb0 <xopenme_finish@plt>:
  402eb0:	ff 25 72 b2 20 00    	jmpq   *0x20b272(%rip)        # 60e128 <_GLOBAL_OFFSET_TABLE_+0x128>
  402eb6:	68 22 00 00 00       	pushq  $0x22
  402ebb:	e9 c0 fd ff ff       	jmpq   402c80 <_init+0x28>

0000000000402ec0 <xopenme_dump_memory@plt>:
  402ec0:	ff 25 6a b2 20 00    	jmpq   *0x20b26a(%rip)        # 60e130 <_GLOBAL_OFFSET_TABLE_+0x130>
  402ec6:	68 23 00 00 00       	pushq  $0x23
  402ecb:	e9 b0 fd ff ff       	jmpq   402c80 <_init+0x28>

0000000000402ed0 <_ZNKSt7__cxx1112basic_stringIcSt11char_traitsIcESaIcEE4findEPKcm@plt>:
  402ed0:	ff 25 62 b2 20 00    	jmpq   *0x20b262(%rip)        # 60e138 <_GLOBAL_OFFSET_TABLE_+0x138>
  402ed6:	68 24 00 00 00       	pushq  $0x24
  402edb:	e9 a0 fd ff ff       	jmpq   402c80 <_init+0x28>

0000000000402ee0 <xopenme_init@plt>:
  402ee0:	ff 25 5a b2 20 00    	jmpq   *0x20b25a(%rip)        # 60e140 <_GLOBAL_OFFSET_TABLE_+0x140>
  402ee6:	68 25 00 00 00       	pushq  $0x25
  402eeb:	e9 90 fd ff ff       	jmpq   402c80 <_init+0x28>

0000000000402ef0 <__cxa_begin_catch@plt>:
  402ef0:	ff 25 52 b2 20 00    	jmpq   *0x20b252(%rip)        # 60e148 <_GLOBAL_OFFSET_TABLE_+0x148>
  402ef6:	68 26 00 00 00       	pushq  $0x26
  402efb:	e9 80 fd ff ff       	jmpq   402c80 <_init+0x28>

0000000000402f00 <atoi@plt>:
  402f00:	ff 25 4a b2 20 00    	jmpq   *0x20b24a(%rip)        # 60e150 <_GLOBAL_OFFSET_TABLE_+0x150>
  402f06:	68 27 00 00 00       	pushq  $0x27
  402f0b:	e9 70 fd ff ff       	jmpq   402c80 <_init+0x28>

0000000000402f10 <_ZdaPv@plt>:
  402f10:	ff 25 42 b2 20 00    	jmpq   *0x20b242(%rip)        # 60e158 <_GLOBAL_OFFSET_TABLE_+0x158>
  402f16:	68 28 00 00 00       	pushq  $0x28
  402f1b:	e9 60 fd ff ff       	jmpq   402c80 <_init+0x28>

0000000000402f20 <_ZNSolsEl@plt>:
  402f20:	ff 25 3a b2 20 00    	jmpq   *0x20b23a(%rip)        # 60e160 <_GLOBAL_OFFSET_TABLE_+0x160>
  402f26:	68 29 00 00 00       	pushq  $0x29
  402f2b:	e9 50 fd ff ff       	jmpq   402c80 <_init+0x28>

0000000000402f30 <strlen@plt>:
  402f30:	ff 25 32 b2 20 00    	jmpq   *0x20b232(%rip)        # 60e168 <_GLOBAL_OFFSET_TABLE_+0x168>
  402f36:	68 2a 00 00 00       	pushq  $0x2a
  402f3b:	e9 40 fd ff ff       	jmpq   402c80 <_init+0x28>

0000000000402f40 <xopenme_add_var_i@plt>:
  402f40:	ff 25 2a b2 20 00    	jmpq   *0x20b22a(%rip)        # 60e170 <_GLOBAL_OFFSET_TABLE_+0x170>
  402f46:	68 2b 00 00 00       	pushq  $0x2b
  402f4b:	e9 30 fd ff ff       	jmpq   402c80 <_init+0x28>

0000000000402f50 <_ZN10tensorflow8internal21CheckOpMessageBuilderC1EPKc@plt>:
  402f50:	ff 25 22 b2 20 00    	jmpq   *0x20b222(%rip)        # 60e178 <_GLOBAL_OFFSET_TABLE_+0x178>
  402f56:	68 2c 00 00 00       	pushq  $0x2c
  402f5b:	e9 20 fd ff ff       	jmpq   402c80 <_init+0x28>

0000000000402f60 <_ZNSolsEx@plt>:
  402f60:	ff 25 1a b2 20 00    	jmpq   *0x20b21a(%rip)        # 60e180 <_GLOBAL_OFFSET_TABLE_+0x180>
  402f66:	68 2d 00 00 00       	pushq  $0x2d
  402f6b:	e9 10 fd ff ff       	jmpq   402c80 <_init+0x28>

0000000000402f70 <_ZN10tensorflow8internal21CheckOpMessageBuilderD1Ev@plt>:
  402f70:	ff 25 12 b2 20 00    	jmpq   *0x20b212(%rip)        # 60e188 <_GLOBAL_OFFSET_TABLE_+0x188>
  402f76:	68 2e 00 00 00       	pushq  $0x2e
  402f7b:	e9 00 fd ff ff       	jmpq   402c80 <_init+0x28>

0000000000402f80 <_Unwind_Resume@plt>:
  402f80:	ff 25 0a b2 20 00    	jmpq   *0x20b20a(%rip)        # 60e190 <_GLOBAL_OFFSET_TABLE_+0x190>
  402f86:	68 2f 00 00 00       	pushq  $0x2f
  402f8b:	e9 f0 fc ff ff       	jmpq   402c80 <_init+0x28>

0000000000402f90 <_ZN10tensorflow8internal21CheckOpMessageBuilder9NewStringB5cxx11Ev@plt>:
  402f90:	ff 25 02 b2 20 00    	jmpq   *0x20b202(%rip)        # 60e198 <_GLOBAL_OFFSET_TABLE_+0x198>
  402f96:	68 30 00 00 00       	pushq  $0x30
  402f9b:	e9 e0 fc ff ff       	jmpq   402c80 <_init+0x28>

0000000000402fa0 <_ZNK10tensorflow6Tensor21CheckTypeAndIsAlignedENS_8DataTypeE@plt>:
  402fa0:	ff 25 fa b1 20 00    	jmpq   *0x20b1fa(%rip)        # 60e1a0 <_GLOBAL_OFFSET_TABLE_+0x1a0>
  402fa6:	68 31 00 00 00       	pushq  $0x31
  402fab:	e9 d0 fc ff ff       	jmpq   402c80 <_init+0x28>

0000000000402fb0 <_ZNSt7__cxx1112basic_stringIcSt11char_traitsIcESaIcEEC1EPKcRKS3_@plt>:
  402fb0:	ff 25 f2 b1 20 00    	jmpq   *0x20b1f2(%rip)        # 60e1a8 <_GLOBAL_OFFSET_TABLE_+0x1a8>
  402fb6:	68 32 00 00 00       	pushq  $0x32
  402fbb:	e9 c0 fc ff ff       	jmpq   402c80 <_init+0x28>

0000000000402fc0 <_ZN10tensorflow11RunMetadataC1Ev@plt>:
  402fc0:	ff 25 ea b1 20 00    	jmpq   *0x20b1ea(%rip)        # 60e1b0 <_GLOBAL_OFFSET_TABLE_+0x1b0>
  402fc6:	68 33 00 00 00       	pushq  $0x33
  402fcb:	e9 b0 fc ff ff       	jmpq   402c80 <_init+0x28>

0000000000402fd0 <_ZN10tensorflow14TensorShapeRep12SlowCopyFromERKS0_@plt>:
  402fd0:	ff 25 e2 b1 20 00    	jmpq   *0x20b1e2(%rip)        # 60e1b8 <_GLOBAL_OFFSET_TABLE_+0x1b8>
  402fd6:	68 34 00 00 00       	pushq  $0x34
  402fdb:	e9 a0 fc ff ff       	jmpq   402c80 <_init+0x28>

0000000000402fe0 <_ZNSolsEm@plt>:
  402fe0:	ff 25 da b1 20 00    	jmpq   *0x20b1da(%rip)        # 60e1c0 <_GLOBAL_OFFSET_TABLE_+0x1c0>
  402fe6:	68 35 00 00 00       	pushq  $0x35
  402feb:	e9 90 fc ff ff       	jmpq   402c80 <_init+0x28>

0000000000402ff0 <random@plt>:
  402ff0:	ff 25 d2 b1 20 00    	jmpq   *0x20b1d2(%rip)        # 60e1c8 <_GLOBAL_OFFSET_TABLE_+0x1c8>
  402ff6:	68 36 00 00 00       	pushq  $0x36
  402ffb:	e9 80 fc ff ff       	jmpq   402c80 <_init+0x28>

0000000000403000 <xopenme_dump_state@plt>:
  403000:	ff 25 ca b1 20 00    	jmpq   *0x20b1ca(%rip)        # 60e1d0 <_GLOBAL_OFFSET_TABLE_+0x1d0>
  403006:	68 37 00 00 00       	pushq  $0x37
  40300b:	e9 70 fc ff ff       	jmpq   402c80 <_init+0x28>

0000000000403010 <_ZN10tensorflow9OperationC1EPNS_4NodeE@plt>:
  403010:	ff 25 c2 b1 20 00    	jmpq   *0x20b1c2(%rip)        # 60e1d8 <_GLOBAL_OFFSET_TABLE_+0x1d8>
  403016:	68 38 00 00 00       	pushq  $0x38
  40301b:	e9 60 fc ff ff       	jmpq   402c80 <_init+0x28>

0000000000403020 <xopenme_add_var_f@plt>:
  403020:	ff 25 ba b1 20 00    	jmpq   *0x20b1ba(%rip)        # 60e1e0 <_GLOBAL_OFFSET_TABLE_+0x1e0>
  403026:	68 39 00 00 00       	pushq  $0x39
  40302b:	e9 50 fc ff ff       	jmpq   402c80 <_init+0x28>

0000000000403030 <_ZSt17__throw_bad_allocv@plt>:
  403030:	ff 25 b2 b1 20 00    	jmpq   *0x20b1b2(%rip)        # 60e1e8 <_GLOBAL_OFFSET_TABLE_+0x1e8>
  403036:	68 3a 00 00 00       	pushq  $0x3a
  40303b:	e9 40 fc ff ff       	jmpq   402c80 <_init+0x28>

0000000000403040 <memcpy@plt>:
  403040:	ff 25 aa b1 20 00    	jmpq   *0x20b1aa(%rip)        # 60e1f0 <_GLOBAL_OFFSET_TABLE_+0x1f0>
  403046:	68 3b 00 00 00       	pushq  $0x3b
  40304b:	e9 30 fc ff ff       	jmpq   402c80 <_init+0x28>

0000000000403050 <_ZN10tensorflow8internal21CheckOpMessageBuilder7ForVar2Ev@plt>:
  403050:	ff 25 a2 b1 20 00    	jmpq   *0x20b1a2(%rip)        # 60e1f8 <_GLOBAL_OFFSET_TABLE_+0x1f8>
  403056:	68 3c 00 00 00       	pushq  $0x3c
  40305b:	e9 20 fc ff ff       	jmpq   402c80 <_init+0x28>

0000000000403060 <_ZN10tensorflow13ClientSessionC1ERKNS_5ScopeE@plt>:
  403060:	ff 25 9a b1 20 00    	jmpq   *0x20b19a(%rip)        # 60e200 <_GLOBAL_OFFSET_TABLE_+0x200>
  403066:	68 3d 00 00 00       	pushq  $0x3d
  40306b:	e9 10 fc ff ff       	jmpq   402c80 <_init+0x28>

0000000000403070 <_ZNK10tensorflow14StatSummarizer14PrintStepStatsEv@plt>:
  403070:	ff 25 92 b1 20 00    	jmpq   *0x20b192(%rip)        # 60e208 <_GLOBAL_OFFSET_TABLE_+0x208>
  403076:	68 3e 00 00 00       	pushq  $0x3e
  40307b:	e9 00 fc ff ff       	jmpq   402c80 <_init+0x28>

0000000000403080 <_Znwm@plt>:
  403080:	ff 25 8a b1 20 00    	jmpq   *0x20b18a(%rip)        # 60e210 <_GLOBAL_OFFSET_TABLE_+0x210>
  403086:	68 3f 00 00 00       	pushq  $0x3f
  40308b:	e9 f0 fb ff ff       	jmpq   402c80 <_init+0x28>

0000000000403090 <_ZNK10tensorflow13ClientSession3RunERKNS_10RunOptionsERKSt13unordered_mapINS_6OutputENS_5Input11InitializerENS_10OutputHashESt8equal_toIS5_ESaISt4pairIKS5_S7_EEERKSt6vectorIS5_SaIS5_EERKSI_INS_9OperationESaISN_EEPSI_INS_6TensorESaISS_EEPNS_11RunMetadataE@plt>:
  403090:	ff 25 82 b1 20 00    	jmpq   *0x20b182(%rip)        # 60e218 <_GLOBAL_OFFSET_TABLE_+0x218>
  403096:	68 40 00 00 00       	pushq  $0x40
  40309b:	e9 e0 fb ff ff       	jmpq   402c80 <_init+0x28>

00000000004030a0 <_ZN10tensorflow10RunOptionsC1Ev@plt>:
  4030a0:	ff 25 7a b1 20 00    	jmpq   *0x20b17a(%rip)        # 60e220 <_GLOBAL_OFFSET_TABLE_+0x220>
  4030a6:	68 41 00 00 00       	pushq  $0x41
  4030ab:	e9 d0 fb ff ff       	jmpq   402c80 <_init+0x28>

00000000004030b0 <_ZN10tensorflow13ClientSessionD1Ev@plt>:
  4030b0:	ff 25 72 b1 20 00    	jmpq   *0x20b172(%rip)        # 60e228 <_GLOBAL_OFFSET_TABLE_+0x228>
  4030b6:	68 42 00 00 00       	pushq  $0x42
  4030bb:	e9 c0 fb ff ff       	jmpq   402c80 <_init+0x28>

00000000004030c0 <_Znam@plt>:
  4030c0:	ff 25 6a b1 20 00    	jmpq   *0x20b16a(%rip)        # 60e230 <_GLOBAL_OFFSET_TABLE_+0x230>
  4030c6:	68 43 00 00 00       	pushq  $0x43
  4030cb:	e9 b0 fb ff ff       	jmpq   402c80 <_init+0x28>

00000000004030d0 <xopenme_get_timer@plt>:
  4030d0:	ff 25 62 b1 20 00    	jmpq   *0x20b162(%rip)        # 60e238 <_GLOBAL_OFFSET_TABLE_+0x238>
  4030d6:	68 44 00 00 00       	pushq  $0x44
  4030db:	e9 a0 fb ff ff       	jmpq   402c80 <_init+0x28>

00000000004030e0 <xopenme_clock_end@plt>:
  4030e0:	ff 25 5a b1 20 00    	jmpq   *0x20b15a(%rip)        # 60e240 <_GLOBAL_OFFSET_TABLE_+0x240>
  4030e6:	68 45 00 00 00       	pushq  $0x45
  4030eb:	e9 90 fb ff ff       	jmpq   402c80 <_init+0x28>

00000000004030f0 <_ZStlsISt11char_traitsIcEERSt13basic_ostreamIcT_ES5_PKc@plt>:
  4030f0:	ff 25 52 b1 20 00    	jmpq   *0x20b152(%rip)        # 60e248 <_GLOBAL_OFFSET_TABLE_+0x248>
  4030f6:	68 46 00 00 00       	pushq  $0x46
  4030fb:	e9 80 fb ff ff       	jmpq   402c80 <_init+0x28>

0000000000403100 <_ZN10tensorflow14StatSummarizer16ProcessStepStatsERKNS_9StepStatsE@plt>:
  403100:	ff 25 4a b1 20 00    	jmpq   *0x20b14a(%rip)        # 60e250 <_GLOBAL_OFFSET_TABLE_+0x250>
  403106:	68 47 00 00 00       	pushq  $0x47
  40310b:	e9 70 fb ff ff       	jmpq   402c80 <_init+0x28>

0000000000403110 <_ZNSt8ios_base4InitD1Ev@plt>:
  403110:	ff 25 42 b1 20 00    	jmpq   *0x20b142(%rip)        # 60e258 <_GLOBAL_OFFSET_TABLE_+0x258>
  403116:	68 48 00 00 00       	pushq  $0x48
  40311b:	e9 60 fb ff ff       	jmpq   402c80 <_init+0x28>

0000000000403120 <__cxa_end_catch@plt>:
  403120:	ff 25 3a b1 20 00    	jmpq   *0x20b13a(%rip)        # 60e260 <_GLOBAL_OFFSET_TABLE_+0x260>
  403126:	68 49 00 00 00       	pushq  $0x49
  40312b:	e9 50 fb ff ff       	jmpq   402c80 <_init+0x28>

0000000000403130 <__cxa_throw_bad_array_new_length@plt>:
  403130:	ff 25 32 b1 20 00    	jmpq   *0x20b132(%rip)        # 60e268 <_GLOBAL_OFFSET_TABLE_+0x268>
  403136:	68 4a 00 00 00       	pushq  $0x4a
  40313b:	e9 40 fb ff ff       	jmpq   402c80 <_init+0x28>

0000000000403140 <__cxa_rethrow@plt>:
  403140:	ff 25 2a b1 20 00    	jmpq   *0x20b12a(%rip)        # 60e270 <_GLOBAL_OFFSET_TABLE_+0x270>
  403146:	68 4b 00 00 00       	pushq  $0x4b
  40314b:	e9 30 fb ff ff       	jmpq   402c80 <_init+0x28>

0000000000403150 <_ZN10tensorflow24TfCheckOpHelperOutOfLineB5cxx11ERKNS_6StatusEPKc@plt>:
  403150:	ff 25 22 b1 20 00    	jmpq   *0x20b122(%rip)        # 60e278 <_GLOBAL_OFFSET_TABLE_+0x278>
  403156:	68 4c 00 00 00       	pushq  $0x4c
  40315b:	e9 20 fb ff ff       	jmpq   402c80 <_init+0x28>

0000000000403160 <_ZNK10tensorflow5Scope10WithOpNameERKNSt7__cxx1112basic_stringIcSt11char_traitsIcESaIcEEE@plt>:
  403160:	ff 25 1a b1 20 00    	jmpq   *0x20b11a(%rip)        # 60e280 <_GLOBAL_OFFSET_TABLE_+0x280>
  403166:	68 4d 00 00 00       	pushq  $0x4d
  40316b:	e9 10 fb ff ff       	jmpq   402c80 <_init+0x28>

0000000000403170 <rand@plt>:
  403170:	ff 25 12 b1 20 00    	jmpq   *0x20b112(%rip)        # 60e288 <_GLOBAL_OFFSET_TABLE_+0x288>
  403176:	68 4e 00 00 00       	pushq  $0x4e
  40317b:	e9 00 fb ff ff       	jmpq   402c80 <_init+0x28>

0000000000403180 <_ZNSt8ios_base4InitC1Ev@plt>:
  403180:	ff 25 0a b1 20 00    	jmpq   *0x20b10a(%rip)        # 60e290 <_GLOBAL_OFFSET_TABLE_+0x290>
  403186:	68 4f 00 00 00       	pushq  $0x4f
  40318b:	e9 f0 fa ff ff       	jmpq   402c80 <_init+0x28>

0000000000403190 <_ZN10tensorflow14StatSummarizerC1ERKNS_21StatSummarizerOptionsE@plt>:
  403190:	ff 25 02 b1 20 00    	jmpq   *0x20b102(%rip)        # 60e298 <_GLOBAL_OFFSET_TABLE_+0x298>
  403196:	68 50 00 00 00       	pushq  $0x50
  40319b:	e9 e0 fa ff ff       	jmpq   402c80 <_init+0x28>

00000000004031a0 <_ZNSaIcED1Ev@plt>:
  4031a0:	ff 25 fa b0 20 00    	jmpq   *0x20b0fa(%rip)        # 60e2a0 <_GLOBAL_OFFSET_TABLE_+0x2a0>
  4031a6:	68 51 00 00 00       	pushq  $0x51
  4031ab:	e9 d0 fa ff ff       	jmpq   402c80 <_init+0x28>

Disassembly of section .plt.got:

00000000004031b0 <.plt.got>:
  4031b0:	ff 25 42 ae 20 00    	jmpq   *0x20ae42(%rip)        # 60dff8 <_DYNAMIC+0x210>
  4031b6:	66 90                	xchg   %ax,%ax

Disassembly of section .text:

00000000004031c0 <_start>:
  4031c0:	31 ed                	xor    %ebp,%ebp
  4031c2:	49 89 d1             	mov    %rdx,%r9
  4031c5:	5e                   	pop    %rsi
  4031c6:	48 89 e2             	mov    %rsp,%rdx
  4031c9:	48 83 e4 f0          	and    $0xfffffffffffffff0,%rsp
  4031cd:	50                   	push   %rax
  4031ce:	54                   	push   %rsp
  4031cf:	49 c7 c0 60 8f 40 00 	mov    $0x408f60,%r8
  4031d6:	48 c7 c1 f0 8e 40 00 	mov    $0x408ef0,%rcx
  4031dd:	48 c7 c7 96 36 40 00 	mov    $0x403696,%rdi
  4031e4:	e8 87 fc ff ff       	callq  402e70 <__libc_start_main@plt>
  4031e9:	f4                   	hlt    
  4031ea:	66 0f 1f 44 00 00    	nopw   0x0(%rax,%rax,1)

00000000004031f0 <deregister_tm_clones>:
  4031f0:	b8 bf e2 60 00       	mov    $0x60e2bf,%eax
  4031f5:	55                   	push   %rbp
  4031f6:	48 2d b8 e2 60 00    	sub    $0x60e2b8,%rax
  4031fc:	48 83 f8 0e          	cmp    $0xe,%rax
  403200:	48 89 e5             	mov    %rsp,%rbp
  403203:	76 1b                	jbe    403220 <deregister_tm_clones+0x30>
  403205:	b8 00 00 00 00       	mov    $0x0,%eax
  40320a:	48 85 c0             	test   %rax,%rax
  40320d:	74 11                	je     403220 <deregister_tm_clones+0x30>
  40320f:	5d                   	pop    %rbp
  403210:	bf b8 e2 60 00       	mov    $0x60e2b8,%edi
  403215:	ff e0                	jmpq   *%rax
  403217:	66 0f 1f 84 00 00 00 	nopw   0x0(%rax,%rax,1)
  40321e:	00 00 
  403220:	5d                   	pop    %rbp
  403221:	c3                   	retq   
  403222:	0f 1f 40 00          	nopl   0x0(%rax)
  403226:	66 2e 0f 1f 84 00 00 	nopw   %cs:0x0(%rax,%rax,1)
  40322d:	00 00 00 

0000000000403230 <register_tm_clones>:
  403230:	be b8 e2 60 00       	mov    $0x60e2b8,%esi
  403235:	55                   	push   %rbp
  403236:	48 81 ee b8 e2 60 00 	sub    $0x60e2b8,%rsi
  40323d:	48 c1 fe 03          	sar    $0x3,%rsi
  403241:	48 89 e5             	mov    %rsp,%rbp
  403244:	48 89 f0             	mov    %rsi,%rax
  403247:	48 c1 e8 3f          	shr    $0x3f,%rax
  40324b:	48 01 c6             	add    %rax,%rsi
  40324e:	48 d1 fe             	sar    %rsi
  403251:	74 15                	je     403268 <register_tm_clones+0x38>
  403253:	b8 00 00 00 00       	mov    $0x0,%eax
  403258:	48 85 c0             	test   %rax,%rax
  40325b:	74 0b                	je     403268 <register_tm_clones+0x38>
  40325d:	5d                   	pop    %rbp
  40325e:	bf b8 e2 60 00       	mov    $0x60e2b8,%edi
  403263:	ff e0                	jmpq   *%rax
  403265:	0f 1f 00             	nopl   (%rax)
  403268:	5d                   	pop    %rbp
  403269:	c3                   	retq   
  40326a:	66 0f 1f 44 00 00    	nopw   0x0(%rax,%rax,1)

0000000000403270 <__do_global_dtors_aux>:
  403270:	80 3d 11 b1 20 00 00 	cmpb   $0x0,0x20b111(%rip)        # 60e388 <completed.7593>
  403277:	75 11                	jne    40328a <__do_global_dtors_aux+0x1a>
  403279:	55                   	push   %rbp
  40327a:	48 89 e5             	mov    %rsp,%rbp
  40327d:	e8 6e ff ff ff       	callq  4031f0 <deregister_tm_clones>
  403282:	5d                   	pop    %rbp
  403283:	c6 05 fe b0 20 00 01 	movb   $0x1,0x20b0fe(%rip)        # 60e388 <completed.7593>
  40328a:	f3 c3                	repz retq 
  40328c:	0f 1f 40 00          	nopl   0x0(%rax)

0000000000403290 <frame_dummy>:
  403290:	bf e0 dd 60 00       	mov    $0x60dde0,%edi
  403295:	48 83 3f 00          	cmpq   $0x0,(%rdi)
  403299:	75 05                	jne    4032a0 <frame_dummy+0x10>
  40329b:	eb 93                	jmp    403230 <register_tm_clones>
  40329d:	0f 1f 00             	nopl   (%rax)
  4032a0:	b8 00 00 00 00       	mov    $0x0,%eax
  4032a5:	48 85 c0             	test   %rax,%rax
  4032a8:	74 f1                	je     40329b <frame_dummy+0xb>
  4032aa:	55                   	push   %rbp
  4032ab:	48 89 e5             	mov    %rsp,%rbp
  4032ae:	ff d0                	callq  *%rax
  4032b0:	5d                   	pop    %rbp
  4032b1:	e9 7a ff ff ff       	jmpq   403230 <register_tm_clones>

00000000004032b6 <_ZN5Eigen8internal12_GLOBAL__N_115get_random_seedEv>:
  4032b6:	55                   	push   %rbp
  4032b7:	48 89 e5             	mov    %rsp,%rbp
  4032ba:	48 83 ec 30          	sub    $0x30,%rsp
  4032be:	64 48 8b 04 25 28 00 	mov    %fs:0x28,%rax
  4032c5:	00 00 
  4032c7:	48 89 45 f8          	mov    %rax,-0x8(%rbp)
  4032cb:	31 c0                	xor    %eax,%eax
  4032cd:	48 8d 45 e0          	lea    -0x20(%rbp),%rax
  4032d1:	48 89 c6             	mov    %rax,%rsi
  4032d4:	bf 00 00 00 00       	mov    $0x0,%edi
  4032d9:	e8 12 fa ff ff       	callq  402cf0 <clock_gettime@plt>
  4032de:	e8 0d fd ff ff       	callq  402ff0 <random@plt>
  4032e3:	48 89 c2             	mov    %rax,%rdx
  4032e6:	48 8b 45 e8          	mov    -0x18(%rbp),%rax
  4032ea:	48 31 d0             	xor    %rdx,%rax
  4032ed:	48 89 45 d8          	mov    %rax,-0x28(%rbp)
  4032f1:	48 8b 45 d8          	mov    -0x28(%rbp),%rax
  4032f5:	48 8b 4d f8          	mov    -0x8(%rbp),%rcx
  4032f9:	64 48 33 0c 25 28 00 	xor    %fs:0x28,%rcx
  403300:	00 00 
  403302:	74 05                	je     403309 <_ZN5Eigen8internal12_GLOBAL__N_115get_random_seedEv+0x53>
  403304:	e8 c7 f9 ff ff       	callq  402cd0 <__stack_chk_fail@plt>
  403309:	c9                   	leaveq 
  40330a:	c3                   	retq   

000000000040330b <_ZN2CK16store_setup_timeEf>:
  40330b:	55                   	push   %rbp
  40330c:	48 89 e5             	mov    %rsp,%rbp
  40330f:	48 83 ec 10          	sub    $0x10,%rsp
  403313:	f3 0f 11 45 fc       	movss  %xmm0,-0x4(%rbp)
  403318:	8b 45 fc             	mov    -0x4(%rbp),%eax
  40331b:	89 45 f8             	mov    %eax,-0x8(%rbp)
  40331e:	f3 0f 10 45 f8       	movss  -0x8(%rbp),%xmm0
  403323:	be 08 93 40 00       	mov    $0x409308,%esi
  403328:	bf 0a 00 00 00       	mov    $0xa,%edi
  40332d:	e8 6c 19 00 00       	callq  404c9e <_ZN2CK13store_value_fEiPKcf>
  403332:	90                   	nop
  403333:	c9                   	leaveq 
  403334:	c3                   	retq   

0000000000403335 <_ZN2CK15store_test_timeEf>:
  403335:	55                   	push   %rbp
  403336:	48 89 e5             	mov    %rsp,%rbp
  403339:	48 83 ec 10          	sub    $0x10,%rsp
  40333d:	f3 0f 11 45 fc       	movss  %xmm0,-0x4(%rbp)
  403342:	8b 45 fc             	mov    -0x4(%rbp),%eax
  403345:	89 45 f8             	mov    %eax,-0x8(%rbp)
  403348:	f3 0f 10 45 f8       	movss  -0x8(%rbp),%xmm0
  40334d:	be 13 93 40 00       	mov    $0x409313,%esi
  403352:	bf 0b 00 00 00       	mov    $0xb,%edi
  403357:	e8 42 19 00 00       	callq  404c9e <_ZN2CK13store_value_fEiPKcf>
  40335c:	90                   	nop
  40335d:	c9                   	leaveq 
  40335e:	c3                   	retq   
  40335f:	90                   	nop

0000000000403360 <_ZZ4mainENKUlvE_clEv>:
  403360:	55                   	push   %rbp
  403361:	48 89 e5             	mov    %rsp,%rbp
  403364:	41 56                	push   %r14
  403366:	41 55                	push   %r13
  403368:	41 54                	push   %r12
  40336a:	53                   	push   %rbx
  40336b:	48 81 ec 70 02 00 00 	sub    $0x270,%rsp
  403372:	48 89 bd 78 fd ff ff 	mov    %rdi,-0x288(%rbp)
  403379:	64 48 8b 04 25 28 00 	mov    %fs:0x28,%rax
  403380:	00 00 
  403382:	48 89 45 d8          	mov    %rax,-0x28(%rbp)
  403386:	31 c0                	xor    %eax,%eax
  403388:	48 8b 85 78 fd ff ff 	mov    -0x288(%rbp),%rax
  40338f:	48 8b 10             	mov    (%rax),%rdx
  403392:	48 8d 85 88 fd ff ff 	lea    -0x278(%rbp),%rax
  403399:	48 89 d6             	mov    %rdx,%rsi
  40339c:	48 89 c7             	mov    %rax,%rdi
  40339f:	e8 bc fc ff ff       	callq  403060 <_ZN10tensorflow13ClientSessionC1ERKNS_5ScopeE@plt>
  4033a4:	48 8b 85 78 fd ff ff 	mov    -0x288(%rbp),%rax
  4033ab:	4c 8b 70 20          	mov    0x20(%rax),%r14
  4033af:	48 8b 85 78 fd ff ff 	mov    -0x288(%rbp),%rax
  4033b6:	48 8b 58 18          	mov    0x18(%rax),%rbx
  4033ba:	48 8d 85 c0 fd ff ff 	lea    -0x240(%rbp),%rax
  4033c1:	48 89 c7             	mov    %rax,%rdi
  4033c4:	e8 83 30 00 00       	callq  40644c <_ZNSt6vectorIN10tensorflow9OperationESaIS1_EEC1Ev>
  4033c9:	48 8b 85 78 fd ff ff 	mov    -0x288(%rbp),%rax
  4033d0:	48 8b 50 10          	mov    0x10(%rax),%rdx
  4033d4:	48 8d 85 20 fe ff ff 	lea    -0x1e0(%rbp),%rax
  4033db:	48 89 d6             	mov    %rdx,%rsi
  4033de:	48 89 c7             	mov    %rax,%rdi
  4033e1:	e8 9a 16 00 00       	callq  404a80 <_ZNK10tensorflow3ops7AvgPoolcvNS_6OutputEEv>
  4033e6:	48 8d 85 20 fe ff ff 	lea    -0x1e0(%rbp),%rax
  4033ed:	49 89 c4             	mov    %rax,%r12
  4033f0:	41 bd 01 00 00 00    	mov    $0x1,%r13d
  4033f6:	48 8d 85 87 fd ff ff 	lea    -0x279(%rbp),%rax
  4033fd:	48 89 c7             	mov    %rax,%rdi
  403400:	e8 11 2f 00 00       	callq  406316 <_ZNSaIN10tensorflow6OutputEEC1Ev>
  403405:	48 8d 95 87 fd ff ff 	lea    -0x279(%rbp),%rdx
  40340c:	4d 89 e0             	mov    %r12,%r8
  40340f:	4d 89 e9             	mov    %r13,%r9
  403412:	4c 89 e6             	mov    %r12,%rsi
  403415:	4c 89 ef             	mov    %r13,%rdi
  403418:	48 8d 85 a0 fd ff ff 	lea    -0x260(%rbp),%rax
  40341f:	48 89 d1             	mov    %rdx,%rcx
  403422:	4c 89 c6             	mov    %r8,%rsi
  403425:	48 89 fa             	mov    %rdi,%rdx
  403428:	48 89 c7             	mov    %rax,%rdi
  40342b:	e8 1e 2f 00 00       	callq  40634e <_ZNSt6vectorIN10tensorflow6OutputESaIS1_EEC1ESt16initializer_listIS1_ERKS2_>
  403430:	48 8d 95 e0 fd ff ff 	lea    -0x220(%rbp),%rdx
  403437:	b8 00 00 00 00       	mov    $0x0,%eax
  40343c:	b9 07 00 00 00       	mov    $0x7,%ecx
  403441:	48 89 d7             	mov    %rdx,%rdi
  403444:	f3 48 ab             	rep stos %rax,%es:(%rdi)
  403447:	48 8d 85 e0 fd ff ff 	lea    -0x220(%rbp),%rax
  40344e:	48 89 c7             	mov    %rax,%rdi
  403451:	e8 62 22 00 00       	callq  4056b8 <_ZNSt13unordered_mapIN10tensorflow6OutputENS0_5Input11InitializerENS0_10OutputHashESt8equal_toIS1_ESaISt4pairIKS1_S3_EEEC1Ev>
  403456:	48 8b 85 78 fd ff ff 	mov    -0x288(%rbp),%rax
  40345d:	48 8b 50 08          	mov    0x8(%rax),%rdx
  403461:	48 8d 85 90 fd ff ff 	lea    -0x270(%rbp),%rax
  403468:	4c 8d 85 c0 fd ff ff 	lea    -0x240(%rbp),%r8
  40346f:	48 8d bd a0 fd ff ff 	lea    -0x260(%rbp),%rdi
  403476:	48 8d 8d e0 fd ff ff 	lea    -0x220(%rbp),%rcx
  40347d:	48 8d b5 88 fd ff ff 	lea    -0x278(%rbp),%rsi
  403484:	41 56                	push   %r14
  403486:	53                   	push   %rbx
  403487:	4d 89 c1             	mov    %r8,%r9
  40348a:	49 89 f8             	mov    %rdi,%r8
  40348d:	48 89 c7             	mov    %rax,%rdi
  403490:	e8 fb fb ff ff       	callq  403090 <_ZNK10tensorflow13ClientSession3RunERKNS_10RunOptionsERKSt13unordered_mapINS_6OutputENS_5Input11InitializerENS_10OutputHashESt8equal_toIS5_ESaISt4pairIKS5_S7_EEERKSt6vectorIS5_SaIS5_EERKSI_INS_9OperationESaISN_EEPSI_INS_6TensorESaISS_EEPNS_11RunMetadataE@plt>
  403495:	48 83 c4 10          	add    $0x10,%rsp
  403499:	48 8d 85 e0 fd ff ff 	lea    -0x220(%rbp),%rax
  4034a0:	48 89 c7             	mov    %rax,%rdi
  4034a3:	e8 2c 22 00 00       	callq  4056d4 <_ZNSt13unordered_mapIN10tensorflow6OutputENS0_5Input11InitializerENS0_10OutputHashESt8equal_toIS1_ESaISt4pairIKS1_S3_EEED1Ev>
  4034a8:	48 8d 85 a0 fd ff ff 	lea    -0x260(%rbp),%rax
  4034af:	48 89 c7             	mov    %rax,%rdi
  4034b2:	e8 51 2f 00 00       	callq  406408 <_ZNSt6vectorIN10tensorflow6OutputESaIS1_EED1Ev>
  4034b7:	48 8d 85 87 fd ff ff 	lea    -0x279(%rbp),%rax
  4034be:	48 89 c7             	mov    %rax,%rdi
  4034c1:	e8 6c 2e 00 00       	callq  406332 <_ZNSaIN10tensorflow6OutputEED1Ev>
  4034c6:	48 8d 9d 20 fe ff ff 	lea    -0x1e0(%rbp),%rbx
  4034cd:	48 83 c3 28          	add    $0x28,%rbx
  4034d1:	48 8d 85 20 fe ff ff 	lea    -0x1e0(%rbp),%rax
  4034d8:	48 39 c3             	cmp    %rax,%rbx
  4034db:	74 0e                	je     4034eb <_ZZ4mainENKUlvE_clEv+0x18b>
  4034dd:	48 83 eb 28          	sub    $0x28,%rbx
  4034e1:	48 89 df             	mov    %rbx,%rdi
  4034e4:	e8 4b 12 00 00       	callq  404734 <_ZN10tensorflow6OutputD1Ev>
  4034e9:	eb e6                	jmp    4034d1 <_ZZ4mainENKUlvE_clEv+0x171>
  4034eb:	48 8d 85 c0 fd ff ff 	lea    -0x240(%rbp),%rax
  4034f2:	48 89 c7             	mov    %rax,%rdi
  4034f5:	e8 6e 2f 00 00       	callq  406468 <_ZNSt6vectorIN10tensorflow9OperationESaIS1_EED1Ev>
  4034fa:	48 8d 95 90 fd ff ff 	lea    -0x270(%rbp),%rdx
  403501:	48 8d 85 e0 fd ff ff 	lea    -0x220(%rbp),%rax
  403508:	48 89 d6             	mov    %rdx,%rsi
  40350b:	48 89 c7             	mov    %rax,%rdi
  40350e:	e8 5b 0b 00 00       	callq  40406e <_ZN10tensorflow6StatusC1ERKS0_>
  403513:	48 8d 85 e0 fd ff ff 	lea    -0x220(%rbp),%rax
  40351a:	be 99 94 40 00       	mov    $0x409499,%esi
  40351f:	48 89 c7             	mov    %rax,%rdi
  403522:	e8 d0 0b 00 00       	callq  4040f7 <_ZN10tensorflow15TfCheckOpHelperB5cxx11ENS_6StatusEPKc>
  403527:	48 89 85 98 fd ff ff 	mov    %rax,-0x268(%rbp)
  40352e:	48 8d 85 e0 fd ff ff 	lea    -0x220(%rbp),%rax
  403535:	48 89 c7             	mov    %rax,%rdi
  403538:	e8 9d 0a 00 00       	callq  403fda <_ZN10tensorflow6StatusD1Ev>
  40353d:	48 83 bd 98 fd ff ff 	cmpq   $0x0,-0x268(%rbp)
  403544:	00 
  403545:	74 41                	je     403588 <_ZZ4mainENKUlvE_clEv+0x228>
  403547:	48 8d 85 50 fe ff ff 	lea    -0x1b0(%rbp),%rax
  40354e:	ba 3b 00 00 00       	mov    $0x3b,%edx
  403553:	be a0 94 40 00       	mov    $0x4094a0,%esi
  403558:	48 89 c7             	mov    %rax,%rdi
  40355b:	e8 50 f7 ff ff       	callq  402cb0 <_ZN10tensorflow8internal15LogMessageFatalC1EPKci@plt>
  403560:	48 8b 95 98 fd ff ff 	mov    -0x268(%rbp),%rdx
  403567:	48 8d 85 50 fe ff ff 	lea    -0x1b0(%rbp),%rax
  40356e:	48 89 d6             	mov    %rdx,%rsi
  403571:	48 89 c7             	mov    %rax,%rdi
  403574:	e8 2e 24 00 00       	callq  4059a7 <_ZStlsIcSt11char_traitsIcENSt7__cxx1112basic_stringIcS1_SaIcEEEERSt13basic_ostreamIT_T0_EOS9_RKT1_>
  403579:	48 8d 85 50 fe ff ff 	lea    -0x1b0(%rbp),%rax
  403580:	48 89 c7             	mov    %rax,%rdi
  403583:	e8 d8 f8 ff ff       	callq  402e60 <_ZN10tensorflow8internal15LogMessageFatalD1Ev@plt>
  403588:	48 8d 85 90 fd ff ff 	lea    -0x270(%rbp),%rax
  40358f:	48 89 c7             	mov    %rax,%rdi
  403592:	e8 43 0a 00 00       	callq  403fda <_ZN10tensorflow6StatusD1Ev>
  403597:	48 8d 85 88 fd ff ff 	lea    -0x278(%rbp),%rax
  40359e:	48 89 c7             	mov    %rax,%rdi
  4035a1:	e8 0a fb ff ff       	callq  4030b0 <_ZN10tensorflow13ClientSessionD1Ev@plt>
  4035a6:	90                   	nop
  4035a7:	48 8b 45 d8          	mov    -0x28(%rbp),%rax
  4035ab:	64 48 33 04 25 28 00 	xor    %fs:0x28,%rax
  4035b2:	00 00 
  4035b4:	0f 84 cf 00 00 00    	je     403689 <_ZZ4mainENKUlvE_clEv+0x329>
  4035ba:	e9 c5 00 00 00       	jmpq   403684 <_ZZ4mainENKUlvE_clEv+0x324>
  4035bf:	48 89 c3             	mov    %rax,%rbx
  4035c2:	48 8d 85 e0 fd ff ff 	lea    -0x220(%rbp),%rax
  4035c9:	48 89 c7             	mov    %rax,%rdi
  4035cc:	e8 03 21 00 00       	callq  4056d4 <_ZNSt13unordered_mapIN10tensorflow6OutputENS0_5Input11InitializerENS0_10OutputHashESt8equal_toIS1_ESaISt4pairIKS1_S3_EEED1Ev>
  4035d1:	48 8d 85 a0 fd ff ff 	lea    -0x260(%rbp),%rax
  4035d8:	48 89 c7             	mov    %rax,%rdi
  4035db:	e8 28 2e 00 00       	callq  406408 <_ZNSt6vectorIN10tensorflow6OutputESaIS1_EED1Ev>
  4035e0:	eb 03                	jmp    4035e5 <_ZZ4mainENKUlvE_clEv+0x285>
  4035e2:	48 89 c3             	mov    %rax,%rbx
  4035e5:	48 8d 85 87 fd ff ff 	lea    -0x279(%rbp),%rax
  4035ec:	48 89 c7             	mov    %rax,%rdi
  4035ef:	e8 3e 2d 00 00       	callq  406332 <_ZNSaIN10tensorflow6OutputEED1Ev>
  4035f4:	49 89 dc             	mov    %rbx,%r12
  4035f7:	48 8d 9d 20 fe ff ff 	lea    -0x1e0(%rbp),%rbx
  4035fe:	48 83 c3 28          	add    $0x28,%rbx
  403602:	48 8d 85 20 fe ff ff 	lea    -0x1e0(%rbp),%rax
  403609:	48 39 c3             	cmp    %rax,%rbx
  40360c:	74 0e                	je     40361c <_ZZ4mainENKUlvE_clEv+0x2bc>
  40360e:	48 83 eb 28          	sub    $0x28,%rbx
  403612:	48 89 df             	mov    %rbx,%rdi
  403615:	e8 1a 11 00 00       	callq  404734 <_ZN10tensorflow6OutputD1Ev>
  40361a:	eb e6                	jmp    403602 <_ZZ4mainENKUlvE_clEv+0x2a2>
  40361c:	4c 89 e3             	mov    %r12,%rbx
  40361f:	eb 03                	jmp    403624 <_ZZ4mainENKUlvE_clEv+0x2c4>
  403621:	48 89 c3             	mov    %rax,%rbx
  403624:	48 8d 85 c0 fd ff ff 	lea    -0x240(%rbp),%rax
  40362b:	48 89 c7             	mov    %rax,%rdi
  40362e:	e8 35 2e 00 00       	callq  406468 <_ZNSt6vectorIN10tensorflow9OperationESaIS1_EED1Ev>
  403633:	eb 35                	jmp    40366a <_ZZ4mainENKUlvE_clEv+0x30a>
  403635:	48 89 c3             	mov    %rax,%rbx
  403638:	48 8d 85 e0 fd ff ff 	lea    -0x220(%rbp),%rax
  40363f:	48 89 c7             	mov    %rax,%rdi
  403642:	e8 93 09 00 00       	callq  403fda <_ZN10tensorflow6StatusD1Ev>
  403647:	eb 12                	jmp    40365b <_ZZ4mainENKUlvE_clEv+0x2fb>
  403649:	48 8d 85 50 fe ff ff 	lea    -0x1b0(%rbp),%rax
  403650:	48 89 c7             	mov    %rax,%rdi
  403653:	e8 08 f8 ff ff       	callq  402e60 <_ZN10tensorflow8internal15LogMessageFatalD1Ev@plt>
  403658:	48 89 c3             	mov    %rax,%rbx
  40365b:	48 8d 85 90 fd ff ff 	lea    -0x270(%rbp),%rax
  403662:	48 89 c7             	mov    %rax,%rdi
  403665:	e8 70 09 00 00       	callq  403fda <_ZN10tensorflow6StatusD1Ev>
  40366a:	48 8d 85 88 fd ff ff 	lea    -0x278(%rbp),%rax
  403671:	48 89 c7             	mov    %rax,%rdi
  403674:	e8 37 fa ff ff       	callq  4030b0 <_ZN10tensorflow13ClientSessionD1Ev@plt>
  403679:	48 89 d8             	mov    %rbx,%rax
  40367c:	48 89 c7             	mov    %rax,%rdi
  40367f:	e8 fc f8 ff ff       	callq  402f80 <_Unwind_Resume@plt>
  403684:	e8 47 f6 ff ff       	callq  402cd0 <__stack_chk_fail@plt>
  403689:	48 8d 65 e0          	lea    -0x20(%rbp),%rsp
  40368d:	5b                   	pop    %rbx
  40368e:	41 5c                	pop    %r12
  403690:	41 5d                	pop    %r13
  403692:	41 5e                	pop    %r14
  403694:	5d                   	pop    %rbp
  403695:	c3                   	retq   

0000000000403696 <main>:
  403696:	55                   	push   %rbp
  403697:	48 89 e5             	mov    %rsp,%rbp
  40369a:	41 57                	push   %r15
  40369c:	41 56                	push   %r14
  40369e:	41 55                	push   %r13
  4036a0:	41 54                	push   %r12
  4036a2:	53                   	push   %rbx
  4036a3:	48 81 ec 38 02 00 00 	sub    $0x238,%rsp
  4036aa:	64 48 8b 04 25 28 00 	mov    %fs:0x28,%rax
  4036b1:	00 00 
  4036b3:	48 89 45 c8          	mov    %rax,-0x38(%rbp)
  4036b7:	31 c0                	xor    %eax,%eax
  4036b9:	e8 71 17 00 00       	callq  404e2f <_ZN2CK9init_testEv>
  4036be:	48 8d 85 a0 fd ff ff 	lea    -0x260(%rbp),%rax
  4036c5:	48 89 c7             	mov    %rax,%rdi
  4036c8:	e8 c3 f7 ff ff       	callq  402e90 <_ZN10tensorflow5Scope12NewRootScopeEv@plt>
  4036cd:	b9 07 00 00 00       	mov    $0x7,%ecx
  4036d2:	ba 07 00 00 00       	mov    $0x7,%edx
  4036d7:	be 01 00 00 00       	mov    $0x1,%esi
  4036dc:	bf 01 00 00 00       	mov    $0x1,%edi
  4036e1:	e8 34 16 00 00       	callq  404d1a <_ZN2CK24get_input_shape_from_envEiiii>
  4036e6:	48 89 85 d0 fd ff ff 	mov    %rax,-0x230(%rbp)
  4036ed:	48 89 95 d8 fd ff ff 	mov    %rdx,-0x228(%rbp)
  4036f4:	48 8d 85 d0 fd ff ff 	lea    -0x230(%rbp),%rax
  4036fb:	48 89 c7             	mov    %rax,%rdi
  4036fe:	e8 3f 28 00 00       	callq  405f42 <_ZN2CK19get_random_raw_dataIfEEPT_RKNS_5ShapeE>
  403703:	48 89 85 b0 fd ff ff 	mov    %rax,-0x250(%rbp)
  40370a:	48 8d 95 d0 fd ff ff 	lea    -0x230(%rbp),%rdx
  403711:	48 8b 85 b0 fd ff ff 	mov    -0x250(%rbp),%rax
  403718:	48 89 d6             	mov    %rdx,%rsi
  40371b:	48 89 c7             	mov    %rax,%rdi
  40371e:	e8 06 29 00 00       	callq  406029 <_ZN2CK20print_input_raw_dataIfEEvPT_RKNS_5ShapeE>
  403723:	48 8d 95 d0 fd ff ff 	lea    -0x230(%rbp),%rdx
  40372a:	48 8b 85 b0 fd ff ff 	mov    -0x250(%rbp),%rax
  403731:	48 89 d6             	mov    %rdx,%rsi
  403734:	48 89 c7             	mov    %rax,%rdi
  403737:	e8 1a 29 00 00       	callq  406056 <_ZN2CK32convert_data_layout_NCHW_to_NHWCIfEEvPT_RKNS_5ShapeE>
  40373c:	48 8d 85 f0 fe ff ff 	lea    -0x110(%rbp),%rax
  403743:	48 8d 95 d0 fd ff ff 	lea    -0x230(%rbp),%rdx
  40374a:	48 89 d6             	mov    %rdx,%rsi
  40374d:	48 89 c7             	mov    %rax,%rdi
  403750:	e8 d2 1a 00 00       	callq  405227 <_ZN2CK2TF16get_tensor_shapeERKNS_5ShapeE>
  403755:	48 8d 95 f0 fe ff ff 	lea    -0x110(%rbp),%rdx
  40375c:	48 8d 85 10 ff ff ff 	lea    -0xf0(%rbp),%rax
  403763:	be 01 00 00 00       	mov    $0x1,%esi
  403768:	48 89 c7             	mov    %rax,%rdi
  40376b:	e8 20 f6 ff ff       	callq  402d90 <_ZN10tensorflow6TensorC1ENS_8DataTypeERKNS_11TensorShapeE@plt>
  403770:	48 8d 85 f0 fe ff ff 	lea    -0x110(%rbp),%rax
  403777:	48 89 c7             	mov    %rax,%rdi
  40377a:	e8 93 0e 00 00       	callq  404612 <_ZN10tensorflow11TensorShapeD1Ev>
  40377f:	48 8d 95 d0 fd ff ff 	lea    -0x230(%rbp),%rdx
  403786:	48 8b 8d b0 fd ff ff 	mov    -0x250(%rbp),%rcx
  40378d:	48 8d 85 10 ff ff ff 	lea    -0xf0(%rbp),%rax
  403794:	48 89 ce             	mov    %rcx,%rsi
  403797:	48 89 c7             	mov    %rax,%rdi
  40379a:	e8 1f 2a 00 00       	callq  4061be <_ZN2CK2TF15set_tensor_dataIfEEvRN10tensorflow6TensorEPT_RNS_5ShapeE>
  40379f:	48 83 bd b0 fd ff ff 	cmpq   $0x0,-0x250(%rbp)
  4037a6:	00 
  4037a7:	74 0f                	je     4037b8 <main+0x122>
  4037a9:	48 8b 85 b0 fd ff ff 	mov    -0x250(%rbp),%rax
  4037b0:	48 89 c7             	mov    %rax,%rdi
  4037b3:	e8 58 f7 ff ff       	callq  402f10 <_ZdaPv@plt>
  4037b8:	48 c7 85 b8 fd ff ff 	movq   $0x4094af,-0x248(%rbp)
  4037bf:	af 94 40 00 
  4037c3:	ba 02 00 00 00       	mov    $0x2,%edx
  4037c8:	be 01 00 00 00       	mov    $0x1,%esi
  4037cd:	bf 07 00 00 00       	mov    $0x7,%edi
  4037d2:	e8 9c 1b 00 00       	callq  405373 <_ZN2CK2TF27get_pooling_params_from_envEiii>
  4037d7:	48 89 85 e0 fd ff ff 	mov    %rax,-0x220(%rbp)
  4037de:	48 89 95 e8 fd ff ff 	mov    %rdx,-0x218(%rbp)
  4037e5:	48 8b 95 e8 fd ff ff 	mov    -0x218(%rbp),%rdx
  4037ec:	48 8d 85 a0 fe ff ff 	lea    -0x160(%rbp),%rax
  4037f3:	48 89 d6             	mov    %rdx,%rsi
  4037f6:	48 89 c7             	mov    %rax,%rdi
  4037f9:	e8 56 06 00 00       	callq  403e54 <_ZN10tensorflow11StringPieceC1EPKc>
  4037fe:	c7 85 f0 fe ff ff 01 	movl   $0x1,-0x110(%rbp)
  403805:	00 00 00 
  403808:	8b 85 e4 fd ff ff    	mov    -0x21c(%rbp),%eax
  40380e:	89 85 f4 fe ff ff    	mov    %eax,-0x10c(%rbp)
  403814:	8b 85 e4 fd ff ff    	mov    -0x21c(%rbp),%eax
  40381a:	89 85 f8 fe ff ff    	mov    %eax,-0x108(%rbp)
  403820:	c7 85 fc fe ff ff 01 	movl   $0x1,-0x104(%rbp)
  403827:	00 00 00 
  40382a:	48 8d 85 f0 fe ff ff 	lea    -0x110(%rbp),%rax
  403831:	49 89 c6             	mov    %rax,%r14
  403834:	41 bf 04 00 00 00    	mov    $0x4,%r15d
  40383a:	4c 89 f1             	mov    %r14,%rcx
  40383d:	4c 89 fb             	mov    %r15,%rbx
  403840:	4c 89 f0             	mov    %r14,%rax
  403843:	4c 89 fa             	mov    %r15,%rdx
  403846:	48 8d 85 70 fe ff ff 	lea    -0x190(%rbp),%rax
  40384d:	48 89 ce             	mov    %rcx,%rsi
  403850:	48 89 c7             	mov    %rax,%rdi
  403853:	e8 18 24 00 00       	callq  405c70 <_ZN10tensorflow3gtl10ArraySliceIiEC1ESt16initializer_listIiE>
  403858:	c7 85 e0 fe ff ff 01 	movl   $0x1,-0x120(%rbp)
  40385f:	00 00 00 
  403862:	8b 85 e0 fd ff ff    	mov    -0x220(%rbp),%eax
  403868:	89 85 e4 fe ff ff    	mov    %eax,-0x11c(%rbp)
  40386e:	8b 85 e0 fd ff ff    	mov    -0x220(%rbp),%eax
  403874:	89 85 e8 fe ff ff    	mov    %eax,-0x118(%rbp)
  40387a:	c7 85 ec fe ff ff 01 	movl   $0x1,-0x114(%rbp)
  403881:	00 00 00 
  403884:	48 8d 85 e0 fe ff ff 	lea    -0x120(%rbp),%rax
  40388b:	49 89 c4             	mov    %rax,%r12
  40388e:	41 bd 04 00 00 00    	mov    $0x4,%r13d
  403894:	4c 89 e1             	mov    %r12,%rcx
  403897:	4c 89 eb             	mov    %r13,%rbx
  40389a:	4c 89 e0             	mov    %r12,%rax
  40389d:	4c 89 ea             	mov    %r13,%rdx
  4038a0:	48 8d 85 40 fe ff ff 	lea    -0x1c0(%rbp),%rax
  4038a7:	48 89 ce             	mov    %rcx,%rsi
  4038aa:	48 89 c7             	mov    %rax,%rdi
  4038ad:	e8 be 23 00 00       	callq  405c70 <_ZN10tensorflow3gtl10ArraySliceIiEC1ESt16initializer_listIiE>
  4038b2:	48 8d 95 10 ff ff ff 	lea    -0xf0(%rbp),%rdx
  4038b9:	48 8d 85 50 ff ff ff 	lea    -0xb0(%rbp),%rax
  4038c0:	48 89 d6             	mov    %rdx,%rsi
  4038c3:	48 89 c7             	mov    %rax,%rdi
  4038c6:	e8 b9 0e 00 00       	callq  404784 <_ZN10tensorflow5InputC1ERKNS_6TensorE>
  4038cb:	48 8d 85 f0 fd ff ff 	lea    -0x210(%rbp),%rax
  4038d2:	48 89 c7             	mov    %rax,%rdi
  4038d5:	e8 96 f4 ff ff       	callq  402d70 <_ZNSaIcEC1Ev@plt>
  4038da:	48 8d 95 f0 fd ff ff 	lea    -0x210(%rbp),%rdx
  4038e1:	48 8b 8d b8 fd ff ff 	mov    -0x248(%rbp),%rcx
  4038e8:	48 8d 85 30 ff ff ff 	lea    -0xd0(%rbp),%rax
  4038ef:	48 89 ce             	mov    %rcx,%rsi
  4038f2:	48 89 c7             	mov    %rax,%rdi
  4038f5:	e8 b6 f6 ff ff       	callq  402fb0 <_ZNSt7__cxx1112basic_stringIcSt11char_traitsIcESaIcEEC1EPKcRKS3_@plt>
  4038fa:	48 8d 85 a8 fd ff ff 	lea    -0x258(%rbp),%rax
  403901:	48 8d 95 30 ff ff ff 	lea    -0xd0(%rbp),%rdx
  403908:	48 8d 8d a0 fd ff ff 	lea    -0x260(%rbp),%rcx
  40390f:	48 89 ce             	mov    %rcx,%rsi
  403912:	48 89 c7             	mov    %rax,%rdi
  403915:	e8 46 f8 ff ff       	callq  403160 <_ZNK10tensorflow5Scope10WithOpNameERKNSt7__cxx1112basic_stringIcSt11char_traitsIcESaIcEEE@plt>
  40391a:	48 8d bd 70 fe ff ff 	lea    -0x190(%rbp),%rdi
  403921:	48 8d 8d 40 fe ff ff 	lea    -0x1c0(%rbp),%rcx
  403928:	48 8d 95 50 ff ff ff 	lea    -0xb0(%rbp),%rdx
  40392f:	48 8d b5 a8 fd ff ff 	lea    -0x258(%rbp),%rsi
  403936:	48 8d 85 10 fe ff ff 	lea    -0x1f0(%rbp),%rax
  40393d:	ff b5 a8 fe ff ff    	pushq  -0x158(%rbp)
  403943:	ff b5 a0 fe ff ff    	pushq  -0x160(%rbp)
  403949:	49 89 f8             	mov    %rdi,%r8
  40394c:	48 89 c7             	mov    %rax,%rdi
  40394f:	e8 0c f4 ff ff       	callq  402d60 <_ZN10tensorflow3ops7AvgPoolC1ERKNS_5ScopeENS_5InputERKNS_3gtl10ArraySliceIiEESA_NS_11StringPieceE@plt>
  403954:	48 83 c4 10          	add    $0x10,%rsp
  403958:	48 8d 85 a8 fd ff ff 	lea    -0x258(%rbp),%rax
  40395f:	48 89 c7             	mov    %rax,%rdi
  403962:	e8 a9 f4 ff ff       	callq  402e10 <_ZN10tensorflow5ScopeD1Ev@plt>
  403967:	48 8d 85 30 ff ff ff 	lea    -0xd0(%rbp),%rax
  40396e:	48 89 c7             	mov    %rax,%rdi
  403971:	e8 aa f4 ff ff       	callq  402e20 <_ZNSt7__cxx1112basic_stringIcSt11char_traitsIcESaIcEED1Ev@plt>
  403976:	48 8d 85 f0 fd ff ff 	lea    -0x210(%rbp),%rax
  40397d:	48 89 c7             	mov    %rax,%rdi
  403980:	e8 1b f8 ff ff       	callq  4031a0 <_ZNSaIcED1Ev@plt>
  403985:	48 8d 85 50 ff ff ff 	lea    -0xb0(%rbp),%rax
  40398c:	48 89 c7             	mov    %rax,%rdi
  40398f:	e8 62 0f 00 00       	callq  4048f6 <_ZN10tensorflow5InputD1Ev>
  403994:	48 8d 85 70 fe ff ff 	lea    -0x190(%rbp),%rax
  40399b:	48 89 c7             	mov    %rax,%rdi
  40399e:	e8 fd f6 ff ff       	callq  4030a0 <_ZN10tensorflow10RunOptionsC1Ev@plt>
  4039a3:	48 8d 85 70 fe ff ff 	lea    -0x190(%rbp),%rax
  4039aa:	be 03 00 00 00       	mov    $0x3,%esi
  4039af:	48 89 c7             	mov    %rax,%rdi
  4039b2:	e8 57 10 00 00       	callq  404a0e <_ZN10tensorflow10RunOptions15set_trace_levelENS_21RunOptions_TraceLevelE>
  4039b7:	48 8d 85 a0 fe ff ff 	lea    -0x160(%rbp),%rax
  4039be:	48 89 c7             	mov    %rax,%rdi
  4039c1:	e8 fa f5 ff ff       	callq  402fc0 <_ZN10tensorflow11RunMetadataC1Ev@plt>
  4039c6:	48 8d 85 f0 fd ff ff 	lea    -0x210(%rbp),%rax
  4039cd:	48 89 c7             	mov    %rax,%rdi
  4039d0:	e8 75 28 00 00       	callq  40624a <_ZNSt6vectorIN10tensorflow6TensorESaIS1_EEC1Ev>
  4039d5:	48 8d 85 a0 fd ff ff 	lea    -0x260(%rbp),%rax
  4039dc:	48 89 85 40 fe ff ff 	mov    %rax,-0x1c0(%rbp)
  4039e3:	48 8d 85 70 fe ff ff 	lea    -0x190(%rbp),%rax
  4039ea:	48 89 85 48 fe ff ff 	mov    %rax,-0x1b8(%rbp)
  4039f1:	48 8d 85 10 fe ff ff 	lea    -0x1f0(%rbp),%rax
  4039f8:	48 89 85 50 fe ff ff 	mov    %rax,-0x1b0(%rbp)
  4039ff:	48 8d 85 f0 fd ff ff 	lea    -0x210(%rbp),%rax
  403a06:	48 89 85 58 fe ff ff 	mov    %rax,-0x1a8(%rbp)
  403a0d:	48 8d 85 a0 fe ff ff 	lea    -0x160(%rbp),%rax
  403a14:	48 89 85 60 fe ff ff 	mov    %rax,-0x1a0(%rbp)
  403a1b:	48 8d 85 40 fe ff ff 	lea    -0x1c0(%rbp),%rax
  403a22:	48 89 c7             	mov    %rax,%rdi
  403a25:	e8 4f 02 00 00       	callq  403c79 <_ZN2CK12measure_testIZ4mainEUlvE_EEvOT_>
  403a2a:	48 8d 85 f0 fd ff ff 	lea    -0x210(%rbp),%rax
  403a31:	be 00 00 00 00       	mov    $0x0,%esi
  403a36:	48 89 c7             	mov    %rax,%rdi
  403a39:	e8 6e 2a 00 00       	callq  4064ac <_ZNSt6vectorIN10tensorflow6TensorESaIS1_EEixEm>
  403a3e:	48 89 85 c0 fd ff ff 	mov    %rax,-0x240(%rbp)
  403a45:	48 8b 85 c0 fd ff ff 	mov    -0x240(%rbp),%rax
  403a4c:	48 89 c7             	mov    %rax,%rdi
  403a4f:	e8 d7 16 00 00       	callq  40512b <_ZN2CK2TF16get_tensor_shapeERKN10tensorflow6TensorE>
  403a54:	48 89 85 40 fe ff ff 	mov    %rax,-0x1c0(%rbp)
  403a5b:	48 89 95 48 fe ff ff 	mov    %rdx,-0x1b8(%rbp)
  403a62:	48 8d 95 40 fe ff ff 	lea    -0x1c0(%rbp),%rdx
  403a69:	48 8b 85 c0 fd ff ff 	mov    -0x240(%rbp),%rax
  403a70:	48 89 d6             	mov    %rdx,%rsi
  403a73:	48 89 c7             	mov    %rax,%rdi
  403a76:	e8 51 2a 00 00       	callq  4064cc <_ZN2CK2TF15get_tensor_dataIfEEPT_RKN10tensorflow6TensorERNS_5ShapeE>
  403a7b:	48 89 85 c8 fd ff ff 	mov    %rax,-0x238(%rbp)
  403a82:	48 8d 95 40 fe ff ff 	lea    -0x1c0(%rbp),%rdx
  403a89:	48 8b 85 c8 fd ff ff 	mov    -0x238(%rbp),%rax
  403a90:	48 89 d6             	mov    %rdx,%rsi
  403a93:	48 89 c7             	mov    %rax,%rdi
  403a96:	e8 ec 2a 00 00       	callq  406587 <_ZN2CK32convert_data_layout_NHWC_to_NCHWIfEEvPT_RKNS_5ShapeE>
  403a9b:	48 8d 95 40 fe ff ff 	lea    -0x1c0(%rbp),%rdx
  403aa2:	48 8b 85 c8 fd ff ff 	mov    -0x238(%rbp),%rax
  403aa9:	48 89 d6             	mov    %rdx,%rsi
  403aac:	48 89 c7             	mov    %rax,%rdi
  403aaf:	e8 3b 2c 00 00       	callq  4066ef <_ZN2CK21print_output_raw_dataIfEEvPT_RKNS_5ShapeE>
  403ab4:	48 8d 95 40 fe ff ff 	lea    -0x1c0(%rbp),%rdx
  403abb:	48 8b 85 c8 fd ff ff 	mov    -0x238(%rbp),%rax
  403ac2:	48 89 d6             	mov    %rdx,%rsi
  403ac5:	48 89 c7             	mov    %rax,%rdi
  403ac8:	e8 4f 2c 00 00       	callq  40671c <_ZN2CK20dump_output_raw_dataIfEEvPT_RKNS_5ShapeE>
  403acd:	48 83 bd c8 fd ff ff 	cmpq   $0x0,-0x238(%rbp)
  403ad4:	00 
  403ad5:	74 0f                	je     403ae6 <main+0x450>
  403ad7:	48 8b 85 c8 fd ff ff 	mov    -0x238(%rbp),%rax
  403ade:	48 89 c7             	mov    %rax,%rdi
  403ae1:	e8 2a f4 ff ff       	callq  402f10 <_ZdaPv@plt>
  403ae6:	48 8b 95 b8 fd ff ff 	mov    -0x248(%rbp),%rdx
  403aed:	48 8d 85 a0 fe ff ff 	lea    -0x160(%rbp),%rax
  403af4:	48 89 d6             	mov    %rdx,%rsi
  403af7:	48 89 c7             	mov    %rax,%rdi
  403afa:	e8 bf 17 00 00       	callq  4052be <_ZN2CK2TF16process_metadataERKN10tensorflow11RunMetadataEPKc>
  403aff:	e8 75 13 00 00       	callq  404e79 <_ZN2CK11finish_testEv>
  403b04:	bb 00 00 00 00       	mov    $0x0,%ebx
  403b09:	48 8d 85 f0 fd ff ff 	lea    -0x210(%rbp),%rax
  403b10:	48 89 c7             	mov    %rax,%rdi
  403b13:	e8 4e 27 00 00       	callq  406266 <_ZNSt6vectorIN10tensorflow6TensorESaIS1_EED1Ev>
  403b18:	48 8d 85 a0 fe ff ff 	lea    -0x160(%rbp),%rax
  403b1f:	48 89 c7             	mov    %rax,%rdi
  403b22:	e8 09 f2 ff ff       	callq  402d30 <_ZN10tensorflow11RunMetadataD1Ev@plt>
  403b27:	48 8d 85 70 fe ff ff 	lea    -0x190(%rbp),%rax
  403b2e:	48 89 c7             	mov    %rax,%rdi
  403b31:	e8 6a f1 ff ff       	callq  402ca0 <_ZN10tensorflow10RunOptionsD1Ev@plt>
  403b36:	48 8d 85 10 fe ff ff 	lea    -0x1f0(%rbp),%rax
  403b3d:	48 89 c7             	mov    %rax,%rdi
  403b40:	e8 d1 18 00 00       	callq  405416 <_ZN10tensorflow3ops7AvgPoolD1Ev>
  403b45:	48 8d 85 10 ff ff ff 	lea    -0xf0(%rbp),%rax
  403b4c:	48 89 c7             	mov    %rax,%rdi
  403b4f:	e8 ec f1 ff ff       	callq  402d40 <_ZN10tensorflow6TensorD1Ev@plt>
  403b54:	48 8d 85 a0 fd ff ff 	lea    -0x260(%rbp),%rax
  403b5b:	48 89 c7             	mov    %rax,%rdi
  403b5e:	e8 ad f2 ff ff       	callq  402e10 <_ZN10tensorflow5ScopeD1Ev@plt>
  403b63:	89 d8                	mov    %ebx,%eax
  403b65:	48 8b 4d c8          	mov    -0x38(%rbp),%rcx
  403b69:	64 48 33 0c 25 28 00 	xor    %fs:0x28,%rcx
  403b70:	00 00 
  403b72:	0f 84 f2 00 00 00    	je     403c6a <main+0x5d4>
  403b78:	e9 e8 00 00 00       	jmpq   403c65 <main+0x5cf>
  403b7d:	48 89 c3             	mov    %rax,%rbx
  403b80:	48 8d 85 f0 fe ff ff 	lea    -0x110(%rbp),%rax
  403b87:	48 89 c7             	mov    %rax,%rdi
  403b8a:	e8 83 0a 00 00       	callq  404612 <_ZN10tensorflow11TensorShapeD1Ev>
  403b8f:	e9 b7 00 00 00       	jmpq   403c4b <main+0x5b5>
  403b94:	48 89 c3             	mov    %rax,%rbx
  403b97:	48 8d 85 a8 fd ff ff 	lea    -0x258(%rbp),%rax
  403b9e:	48 89 c7             	mov    %rax,%rdi
  403ba1:	e8 6a f2 ff ff       	callq  402e10 <_ZN10tensorflow5ScopeD1Ev@plt>
  403ba6:	eb 03                	jmp    403bab <main+0x515>
  403ba8:	48 89 c3             	mov    %rax,%rbx
  403bab:	48 8d 85 30 ff ff ff 	lea    -0xd0(%rbp),%rax
  403bb2:	48 89 c7             	mov    %rax,%rdi
  403bb5:	e8 66 f2 ff ff       	callq  402e20 <_ZNSt7__cxx1112basic_stringIcSt11char_traitsIcESaIcEED1Ev@plt>
  403bba:	eb 03                	jmp    403bbf <main+0x529>
  403bbc:	48 89 c3             	mov    %rax,%rbx
  403bbf:	48 8d 85 f0 fd ff ff 	lea    -0x210(%rbp),%rax
  403bc6:	48 89 c7             	mov    %rax,%rdi
  403bc9:	e8 d2 f5 ff ff       	callq  4031a0 <_ZNSaIcED1Ev@plt>
  403bce:	48 8d 85 50 ff ff ff 	lea    -0xb0(%rbp),%rax
  403bd5:	48 89 c7             	mov    %rax,%rdi
  403bd8:	e8 19 0d 00 00       	callq  4048f6 <_ZN10tensorflow5InputD1Ev>
  403bdd:	48 89 d8             	mov    %rbx,%rax
  403be0:	eb 02                	jmp    403be4 <main+0x54e>
  403be2:	eb 00                	jmp    403be4 <main+0x54e>
  403be4:	48 89 c3             	mov    %rax,%rbx
  403be7:	eb 4e                	jmp    403c37 <main+0x5a1>
  403be9:	48 89 c3             	mov    %rax,%rbx
  403bec:	48 8d 85 f0 fd ff ff 	lea    -0x210(%rbp),%rax
  403bf3:	48 89 c7             	mov    %rax,%rdi
  403bf6:	e8 6b 26 00 00       	callq  406266 <_ZNSt6vectorIN10tensorflow6TensorESaIS1_EED1Ev>
  403bfb:	48 8d 85 a0 fe ff ff 	lea    -0x160(%rbp),%rax
  403c02:	48 89 c7             	mov    %rax,%rdi
  403c05:	e8 26 f1 ff ff       	callq  402d30 <_ZN10tensorflow11RunMetadataD1Ev@plt>
  403c0a:	eb 03                	jmp    403c0f <main+0x579>
  403c0c:	48 89 c3             	mov    %rax,%rbx
  403c0f:	48 8d 85 70 fe ff ff 	lea    -0x190(%rbp),%rax
  403c16:	48 89 c7             	mov    %rax,%rdi
  403c19:	e8 82 f0 ff ff       	callq  402ca0 <_ZN10tensorflow10RunOptionsD1Ev@plt>
  403c1e:	eb 03                	jmp    403c23 <main+0x58d>
  403c20:	48 89 c3             	mov    %rax,%rbx
  403c23:	48 8d 85 10 fe ff ff 	lea    -0x1f0(%rbp),%rax
  403c2a:	48 89 c7             	mov    %rax,%rdi
  403c2d:	e8 e4 17 00 00       	callq  405416 <_ZN10tensorflow3ops7AvgPoolD1Ev>
  403c32:	eb 03                	jmp    403c37 <main+0x5a1>
  403c34:	48 89 c3             	mov    %rax,%rbx
  403c37:	48 8d 85 10 ff ff ff 	lea    -0xf0(%rbp),%rax
  403c3e:	48 89 c7             	mov    %rax,%rdi
  403c41:	e8 fa f0 ff ff       	callq  402d40 <_ZN10tensorflow6TensorD1Ev@plt>
  403c46:	eb 03                	jmp    403c4b <main+0x5b5>
  403c48:	48 89 c3             	mov    %rax,%rbx
  403c4b:	48 8d 85 a0 fd ff ff 	lea    -0x260(%rbp),%rax
  403c52:	48 89 c7             	mov    %rax,%rdi
  403c55:	e8 b6 f1 ff ff       	callq  402e10 <_ZN10tensorflow5ScopeD1Ev@plt>
  403c5a:	48 89 d8             	mov    %rbx,%rax
  403c5d:	48 89 c7             	mov    %rax,%rdi
  403c60:	e8 1b f3 ff ff       	callq  402f80 <_Unwind_Resume@plt>
  403c65:	e8 66 f0 ff ff       	callq  402cd0 <__stack_chk_fail@plt>
  403c6a:	48 8d 65 d8          	lea    -0x28(%rbp),%rsp
  403c6e:	5b                   	pop    %rbx
  403c6f:	41 5c                	pop    %r12
  403c71:	41 5d                	pop    %r13
  403c73:	41 5e                	pop    %r14
  403c75:	41 5f                	pop    %r15
  403c77:	5d                   	pop    %rbp
  403c78:	c3                   	retq   

0000000000403c79 <_ZN2CK12measure_testIZ4mainEUlvE_EEvOT_>:
  403c79:	55                   	push   %rbp
  403c7a:	48 89 e5             	mov    %rsp,%rbp
  403c7d:	48 83 ec 10          	sub    $0x10,%rsp
  403c81:	48 89 7d f8          	mov    %rdi,-0x8(%rbp)
  403c85:	48 8b 45 f8          	mov    -0x8(%rbp),%rax
  403c89:	be 01 00 00 00       	mov    $0x1,%esi
  403c8e:	48 89 c7             	mov    %rax,%rdi
  403c91:	e8 16 00 00 00       	callq  403cac <_ZN2CK11do_measuredIRZ4mainEUlvE_EEvOT_i>
  403c96:	bf 01 00 00 00       	mov    $0x1,%edi
  403c9b:	e8 30 f4 ff ff       	callq  4030d0 <xopenme_get_timer@plt>
  403ca0:	f2 0f 5a c0          	cvtsd2ss %xmm0,%xmm0
  403ca4:	e8 8c f6 ff ff       	callq  403335 <_ZN2CK15store_test_timeEf>
  403ca9:	90                   	nop
  403caa:	c9                   	leaveq 
  403cab:	c3                   	retq   

0000000000403cac <_ZN2CK11do_measuredIRZ4mainEUlvE_EEvOT_i>:
  403cac:	55                   	push   %rbp
  403cad:	48 89 e5             	mov    %rsp,%rbp
  403cb0:	48 83 ec 10          	sub    $0x10,%rsp
  403cb4:	48 89 7d f8          	mov    %rdi,-0x8(%rbp)
  403cb8:	89 75 f4             	mov    %esi,-0xc(%rbp)
  403cbb:	8b 45 f4             	mov    -0xc(%rbp),%eax
  403cbe:	89 c7                	mov    %eax,%edi
  403cc0:	e8 4b f0 ff ff       	callq  402d10 <xopenme_clock_start@plt>
  403cc5:	48 8b 45 f8          	mov    -0x8(%rbp),%rax
  403cc9:	48 89 c7             	mov    %rax,%rdi
  403ccc:	e8 8f f6 ff ff       	callq  403360 <_ZZ4mainENKUlvE_clEv>
  403cd1:	8b 45 f4             	mov    -0xc(%rbp),%eax
  403cd4:	89 c7                	mov    %eax,%edi
  403cd6:	e8 05 f4 ff ff       	callq  4030e0 <xopenme_clock_end@plt>
  403cdb:	90                   	nop
  403cdc:	c9                   	leaveq 
  403cdd:	c3                   	retq   

0000000000403cde <_Z41__static_initialization_and_destruction_0ii>:
  403cde:	55                   	push   %rbp
  403cdf:	48 89 e5             	mov    %rsp,%rbp
  403ce2:	53                   	push   %rbx
  403ce3:	48 83 ec 28          	sub    $0x28,%rsp
  403ce7:	89 7d dc             	mov    %edi,-0x24(%rbp)
  403cea:	89 75 d8             	mov    %esi,-0x28(%rbp)
  403ced:	64 48 8b 04 25 28 00 	mov    %fs:0x28,%rax
  403cf4:	00 00 
  403cf6:	48 89 45 e8          	mov    %rax,-0x18(%rbp)
  403cfa:	31 c0                	xor    %eax,%eax
  403cfc:	83 7d dc 01          	cmpl   $0x1,-0x24(%rbp)
  403d00:	75 53                	jne    403d55 <_Z41__static_initialization_and_destruction_0ii+0x77>
  403d02:	81 7d d8 ff ff 00 00 	cmpl   $0xffff,-0x28(%rbp)
  403d09:	75 4a                	jne    403d55 <_Z41__static_initialization_and_destruction_0ii+0x77>
  403d0b:	bf 89 e3 60 00       	mov    $0x60e389,%edi
  403d10:	e8 e7 19 00 00       	callq  4056fc <_ZN5Eigen8Symbolic10SymbolExprINS_12placeholders8internal17symbolic_last_tagEEC1Ev>
  403d15:	e8 fd 19 00 00       	callq  405717 <_ZN5Eigen3fixILi1EEENS_8internal8FixedIntIXT_EEEv>
  403d1a:	48 83 ec 08          	sub    $0x8,%rsp
  403d1e:	53                   	push   %rbx
  403d1f:	bf 89 e3 60 00       	mov    $0x60e389,%edi
  403d24:	e8 2f 1a 00 00       	callq  405758 <_ZNK5Eigen8Symbolic8BaseExprINS0_10SymbolExprINS_12placeholders8internal17symbolic_last_tagEEEEplILi1EEENS0_7AddExprIS6_NS0_9ValueExprINS_8internal8FixedIntIXT_EEEEEEESD_>
  403d29:	48 83 c4 10          	add    $0x10,%rsp
  403d2d:	bf 8c e3 60 00       	mov    $0x60e38c,%edi
  403d32:	e8 c3 00 00 00       	callq  403dfa <_ZN5Eigen8internal5all_tC1Ev>
  403d37:	bf 8d e3 60 00       	mov    $0x60e38d,%edi
  403d3c:	e8 3f f4 ff ff       	callq  403180 <_ZNSt8ios_base4InitC1Ev@plt>
  403d41:	ba b0 e2 60 00       	mov    $0x60e2b0,%edx
  403d46:	be 8d e3 60 00       	mov    $0x60e38d,%esi
  403d4b:	bf 10 31 40 00       	mov    $0x403110,%edi
  403d50:	e8 fb ef ff ff       	callq  402d50 <__cxa_atexit@plt>
  403d55:	90                   	nop
  403d56:	48 8b 45 e8          	mov    -0x18(%rbp),%rax
  403d5a:	64 48 33 04 25 28 00 	xor    %fs:0x28,%rax
  403d61:	00 00 
  403d63:	74 05                	je     403d6a <_Z41__static_initialization_and_destruction_0ii+0x8c>
  403d65:	e8 66 ef ff ff       	callq  402cd0 <__stack_chk_fail@plt>
  403d6a:	48 8b 5d f8          	mov    -0x8(%rbp),%rbx
  403d6e:	c9                   	leaveq 
  403d6f:	c3                   	retq   

0000000000403d70 <_GLOBAL__sub_I__ZN2CK16store_setup_timeEf>:
  403d70:	55                   	push   %rbp
  403d71:	48 89 e5             	mov    %rsp,%rbp
  403d74:	be ff ff 00 00       	mov    $0xffff,%esi
  403d79:	bf 01 00 00 00       	mov    $0x1,%edi
  403d7e:	e8 5b ff ff ff       	callq  403cde <_Z41__static_initialization_and_destruction_0ii>
  403d83:	5d                   	pop    %rbp
  403d84:	c3                   	retq   

0000000000403d85 <_ZnwmPv>:
  403d85:	55                   	push   %rbp
  403d86:	48 89 e5             	mov    %rsp,%rbp
  403d89:	48 89 7d f8          	mov    %rdi,-0x8(%rbp)
  403d8d:	48 89 75 f0          	mov    %rsi,-0x10(%rbp)
  403d91:	48 8b 45 f0          	mov    -0x10(%rbp),%rax
  403d95:	5d                   	pop    %rbp
  403d96:	c3                   	retq   

0000000000403d97 <_ZdlPvS_>:
  403d97:	55                   	push   %rbp
  403d98:	48 89 e5             	mov    %rsp,%rbp
  403d9b:	48 89 7d f8          	mov    %rdi,-0x8(%rbp)
  403d9f:	48 89 75 f0          	mov    %rsi,-0x10(%rbp)
  403da3:	90                   	nop
  403da4:	5d                   	pop    %rbp
  403da5:	c3                   	retq   

0000000000403da6 <_ZStanSt12memory_orderSt23__memory_order_modifier>:
  403da6:	55                   	push   %rbp
  403da7:	48 89 e5             	mov    %rsp,%rbp
  403daa:	89 7d fc             	mov    %edi,-0x4(%rbp)
  403dad:	89 75 f8             	mov    %esi,-0x8(%rbp)
  403db0:	8b 55 fc             	mov    -0x4(%rbp),%edx
  403db3:	8b 45 f8             	mov    -0x8(%rbp),%eax
  403db6:	21 d0                	and    %edx,%eax
  403db8:	5d                   	pop    %rbp
  403db9:	c3                   	retq   

0000000000403dba <_ZNSt8__detail15_Hash_node_baseC1Ev>:
  403dba:	55                   	push   %rbp
  403dbb:	48 89 e5             	mov    %rsp,%rbp
  403dbe:	48 89 7d f8          	mov    %rdi,-0x8(%rbp)
  403dc2:	48 8b 45 f8          	mov    -0x8(%rbp),%rax
  403dc6:	48 c7 00 00 00 00 00 	movq   $0x0,(%rax)
  403dcd:	90                   	nop
  403dce:	5d                   	pop    %rbp
  403dcf:	c3                   	retq   

0000000000403dd0 <_ZNSt8__detail20_Prime_rehash_policyC1Ef>:
  403dd0:	55                   	push   %rbp
  403dd1:	48 89 e5             	mov    %rsp,%rbp
  403dd4:	48 89 7d f8          	mov    %rdi,-0x8(%rbp)
  403dd8:	f3 0f 11 45 f4       	movss  %xmm0,-0xc(%rbp)
  403ddd:	48 8b 45 f8          	mov    -0x8(%rbp),%rax
  403de1:	f3 0f 10 45 f4       	movss  -0xc(%rbp),%xmm0
  403de6:	f3 0f 11 00          	movss  %xmm0,(%rax)
  403dea:	48 8b 45 f8          	mov    -0x8(%rbp),%rax
  403dee:	48 c7 40 08 00 00 00 	movq   $0x0,0x8(%rax)
  403df5:	00 
  403df6:	90                   	nop
  403df7:	5d                   	pop    %rbp
  403df8:	c3                   	retq   
  403df9:	90                   	nop

0000000000403dfa <_ZN5Eigen8internal5all_tC1Ev>:
  403dfa:	55                   	push   %rbp
  403dfb:	48 89 e5             	mov    %rsp,%rbp
  403dfe:	48 89 7d f8          	mov    %rdi,-0x8(%rbp)
  403e02:	90                   	nop
  403e03:	5d                   	pop    %rbp
  403e04:	c3                   	retq   
  403e05:	90                   	nop

0000000000403e06 <_ZNK6google8protobuf8internal14ArenaStringPtr3GetB5cxx11Ev>:
  403e06:	55                   	push   %rbp
  403e07:	48 89 e5             	mov    %rsp,%rbp
  403e0a:	48 89 7d f8          	mov    %rdi,-0x8(%rbp)
  403e0e:	48 8b 45 f8          	mov    -0x8(%rbp),%rax
  403e12:	48 8b 00             	mov    (%rax),%rax
  403e15:	5d                   	pop    %rbp
  403e16:	c3                   	retq   
  403e17:	90                   	nop

0000000000403e18 <_ZNK6google8protobuf8internal20RepeatedPtrFieldBase4sizeEv>:
  403e18:	55                   	push   %rbp
  403e19:	48 89 e5             	mov    %rsp,%rbp
  403e1c:	48 89 7d f8          	mov    %rdi,-0x8(%rbp)
  403e20:	48 8b 45 f8          	mov    -0x8(%rbp),%rax
  403e24:	8b 40 08             	mov    0x8(%rax),%eax
  403e27:	5d                   	pop    %rbp
  403e28:	c3                   	retq   
  403e29:	90                   	nop

0000000000403e2a <_ZNK6google8protobuf8internal20RepeatedPtrFieldBase8raw_dataEv>:
  403e2a:	55                   	push   %rbp
  403e2b:	48 89 e5             	mov    %rsp,%rbp
  403e2e:	48 89 7d f8          	mov    %rdi,-0x8(%rbp)
  403e32:	48 8b 45 f8          	mov    -0x8(%rbp),%rax
  403e36:	48 8b 40 10          	mov    0x10(%rax),%rax
  403e3a:	48 85 c0             	test   %rax,%rax
  403e3d:	74 0e                	je     403e4d <_ZNK6google8protobuf8internal20RepeatedPtrFieldBase8raw_dataEv+0x23>
  403e3f:	48 8b 45 f8          	mov    -0x8(%rbp),%rax
  403e43:	48 8b 40 10          	mov    0x10(%rax),%rax
  403e47:	48 83 c0 08          	add    $0x8,%rax
  403e4b:	eb 05                	jmp    403e52 <_ZNK6google8protobuf8internal20RepeatedPtrFieldBase8raw_dataEv+0x28>
  403e4d:	b8 00 00 00 00       	mov    $0x0,%eax
  403e52:	5d                   	pop    %rbp
  403e53:	c3                   	retq   

0000000000403e54 <_ZN10tensorflow11StringPieceC1EPKc>:
  403e54:	55                   	push   %rbp
  403e55:	48 89 e5             	mov    %rsp,%rbp
  403e58:	48 83 ec 10          	sub    $0x10,%rsp
  403e5c:	48 89 7d f8          	mov    %rdi,-0x8(%rbp)
  403e60:	48 89 75 f0          	mov    %rsi,-0x10(%rbp)
  403e64:	48 8b 45 f8          	mov    -0x8(%rbp),%rax
  403e68:	48 8b 55 f0          	mov    -0x10(%rbp),%rdx
  403e6c:	48 89 10             	mov    %rdx,(%rax)
  403e6f:	48 8b 45 f0          	mov    -0x10(%rbp),%rax
  403e73:	48 89 c7             	mov    %rax,%rdi
  403e76:	e8 b5 f0 ff ff       	callq  402f30 <strlen@plt>
  403e7b:	48 89 c2             	mov    %rax,%rdx
  403e7e:	48 8b 45 f8          	mov    -0x8(%rbp),%rax
  403e82:	48 89 50 08          	mov    %rdx,0x8(%rax)
  403e86:	90                   	nop
  403e87:	c9                   	leaveq 
  403e88:	c3                   	retq   

0000000000403e89 <_ZN10tensorflow8internal21GetReferenceableValueEi>:
  403e89:	55                   	push   %rbp
  403e8a:	48 89 e5             	mov    %rsp,%rbp
  403e8d:	89 7d fc             	mov    %edi,-0x4(%rbp)
  403e90:	8b 45 fc             	mov    -0x4(%rbp),%eax
  403e93:	5d                   	pop    %rbp
  403e94:	c3                   	retq   

0000000000403e95 <_ZN10tensorflow8internal21GetReferenceableValueEl>:
  403e95:	55                   	push   %rbp
  403e96:	48 89 e5             	mov    %rsp,%rbp
  403e99:	48 89 7d f8          	mov    %rdi,-0x8(%rbp)
  403e9d:	48 8b 45 f8          	mov    -0x8(%rbp),%rax
  403ea1:	5d                   	pop    %rbp
  403ea2:	c3                   	retq   

0000000000403ea3 <_ZN10tensorflow8internal21GetReferenceableValueEm>:
  403ea3:	55                   	push   %rbp
  403ea4:	48 89 e5             	mov    %rsp,%rbp
  403ea7:	48 89 7d f8          	mov    %rdi,-0x8(%rbp)
  403eab:	48 8b 45 f8          	mov    -0x8(%rbp),%rax
  403eaf:	5d                   	pop    %rbp
  403eb0:	c3                   	retq   

0000000000403eb1 <_ZN10tensorflow8internal21GetReferenceableValueEx>:
  403eb1:	55                   	push   %rbp
  403eb2:	48 89 e5             	mov    %rsp,%rbp
  403eb5:	48 89 7d f8          	mov    %rdi,-0x8(%rbp)
  403eb9:	48 8b 45 f8          	mov    -0x8(%rbp),%rax
  403ebd:	5d                   	pop    %rbp
  403ebe:	c3                   	retq   
  403ebf:	90                   	nop

0000000000403ec0 <_ZN10tensorflow8internal13CheckOpStringC1EPNSt7__cxx1112basic_stringIcSt11char_traitsIcESaIcEEE>:
  403ec0:	55                   	push   %rbp
  403ec1:	48 89 e5             	mov    %rsp,%rbp
  403ec4:	48 89 7d f8          	mov    %rdi,-0x8(%rbp)
  403ec8:	48 89 75 f0          	mov    %rsi,-0x10(%rbp)
  403ecc:	48 8b 45 f8          	mov    -0x8(%rbp),%rax
  403ed0:	48 8b 55 f0          	mov    -0x10(%rbp),%rdx
  403ed4:	48 89 10             	mov    %rdx,(%rax)
  403ed7:	90                   	nop
  403ed8:	5d                   	pop    %rbp
  403ed9:	c3                   	retq   

0000000000403eda <_ZNK10tensorflow8internal13CheckOpStringcvbEv>:
  403eda:	55                   	push   %rbp
  403edb:	48 89 e5             	mov    %rsp,%rbp
  403ede:	48 89 7d f8          	mov    %rdi,-0x8(%rbp)
  403ee2:	48 8b 45 f8          	mov    -0x8(%rbp),%rax
  403ee6:	48 8b 00             	mov    (%rax),%rax
  403ee9:	48 85 c0             	test   %rax,%rax
  403eec:	0f 95 c0             	setne  %al
  403eef:	5d                   	pop    %rbp
  403ef0:	c3                   	retq   
  403ef1:	90                   	nop

0000000000403ef2 <_ZN10tensorflow8internal21CheckOpMessageBuilder7ForVar1Ev>:
  403ef2:	55                   	push   %rbp
  403ef3:	48 89 e5             	mov    %rsp,%rbp
  403ef6:	48 89 7d f8          	mov    %rdi,-0x8(%rbp)
  403efa:	48 8b 45 f8          	mov    -0x8(%rbp),%rax
  403efe:	48 8b 00             	mov    (%rax),%rax
  403f01:	5d                   	pop    %rbp
  403f02:	c3                   	retq   
  403f03:	90                   	nop

0000000000403f04 <_ZNSt14default_deleteIN10tensorflow6Status5StateEEC1Ev>:
  403f04:	55                   	push   %rbp
  403f05:	48 89 e5             	mov    %rsp,%rbp
  403f08:	48 89 7d f8          	mov    %rdi,-0x8(%rbp)
  403f0c:	90                   	nop
  403f0d:	5d                   	pop    %rbp
  403f0e:	c3                   	retq   
  403f0f:	90                   	nop

0000000000403f10 <_ZNSt10_Head_baseILm1ESt14default_deleteIN10tensorflow6Status5StateEELb1EEC2Ev>:
  403f10:	55                   	push   %rbp
  403f11:	48 89 e5             	mov    %rsp,%rbp
  403f14:	48 83 ec 10          	sub    $0x10,%rsp
  403f18:	48 89 7d f8          	mov    %rdi,-0x8(%rbp)
  403f1c:	48 8b 45 f8          	mov    -0x8(%rbp),%rax
  403f20:	48 89 c7             	mov    %rax,%rdi
  403f23:	e8 dc ff ff ff       	callq  403f04 <_ZNSt14default_deleteIN10tensorflow6Status5StateEEC1Ev>
  403f28:	90                   	nop
  403f29:	c9                   	leaveq 
  403f2a:	c3                   	retq   
  403f2b:	90                   	nop

0000000000403f2c <_ZNSt11_Tuple_implILm1EJSt14default_deleteIN10tensorflow6Status5StateEEEEC2Ev>:
  403f2c:	55                   	push   %rbp
  403f2d:	48 89 e5             	mov    %rsp,%rbp
  403f30:	48 83 ec 10          	sub    $0x10,%rsp
  403f34:	48 89 7d f8          	mov    %rdi,-0x8(%rbp)
  403f38:	48 8b 45 f8          	mov    -0x8(%rbp),%rax
  403f3c:	48 89 c7             	mov    %rax,%rdi
  403f3f:	e8 cc ff ff ff       	callq  403f10 <_ZNSt10_Head_baseILm1ESt14default_deleteIN10tensorflow6Status5StateEELb1EEC2Ev>
  403f44:	90                   	nop
  403f45:	c9                   	leaveq 
  403f46:	c3                   	retq   
  403f47:	90                   	nop

0000000000403f48 <_ZNSt10_Head_baseILm0EPN10tensorflow6Status5StateELb0EEC2Ev>:
  403f48:	55                   	push   %rbp
  403f49:	48 89 e5             	mov    %rsp,%rbp
  403f4c:	48 89 7d f8          	mov    %rdi,-0x8(%rbp)
  403f50:	48 8b 45 f8          	mov    -0x8(%rbp),%rax
  403f54:	48 c7 00 00 00 00 00 	movq   $0x0,(%rax)
  403f5b:	90                   	nop
  403f5c:	5d                   	pop    %rbp
  403f5d:	c3                   	retq   

0000000000403f5e <_ZNSt11_Tuple_implILm0EJPN10tensorflow6Status5StateESt14default_deleteIS2_EEEC2Ev>:
  403f5e:	55                   	push   %rbp
  403f5f:	48 89 e5             	mov    %rsp,%rbp
  403f62:	48 83 ec 10          	sub    $0x10,%rsp
  403f66:	48 89 7d f8          	mov    %rdi,-0x8(%rbp)
  403f6a:	48 8b 45 f8          	mov    -0x8(%rbp),%rax
  403f6e:	48 89 c7             	mov    %rax,%rdi
  403f71:	e8 b6 ff ff ff       	callq  403f2c <_ZNSt11_Tuple_implILm1EJSt14default_deleteIN10tensorflow6Status5StateEEEEC2Ev>
  403f76:	48 8b 45 f8          	mov    -0x8(%rbp),%rax
  403f7a:	48 89 c7             	mov    %rax,%rdi
  403f7d:	e8 c6 ff ff ff       	callq  403f48 <_ZNSt10_Head_baseILm0EPN10tensorflow6Status5StateELb0EEC2Ev>
  403f82:	90                   	nop
  403f83:	c9                   	leaveq 
  403f84:	c3                   	retq   
  403f85:	90                   	nop

0000000000403f86 <_ZNSt5tupleIJPN10tensorflow6Status5StateESt14default_deleteIS2_EEEC1IS3_S5_Lb1EEEv>:
  403f86:	55                   	push   %rbp
  403f87:	48 89 e5             	mov    %rsp,%rbp
  403f8a:	48 83 ec 10          	sub    $0x10,%rsp
  403f8e:	48 89 7d f8          	mov    %rdi,-0x8(%rbp)
  403f92:	48 8b 45 f8          	mov    -0x8(%rbp),%rax
  403f96:	48 89 c7             	mov    %rax,%rdi
  403f99:	e8 c0 ff ff ff       	callq  403f5e <_ZNSt11_Tuple_implILm0EJPN10tensorflow6Status5StateESt14default_deleteIS2_EEEC2Ev>
  403f9e:	90                   	nop
  403f9f:	c9                   	leaveq 
  403fa0:	c3                   	retq   
  403fa1:	90                   	nop

0000000000403fa2 <_ZNSt10unique_ptrIN10tensorflow6Status5StateESt14default_deleteIS2_EEC1Ev>:
  403fa2:	55                   	push   %rbp
  403fa3:	48 89 e5             	mov    %rsp,%rbp
  403fa6:	48 83 ec 10          	sub    $0x10,%rsp
  403faa:	48 89 7d f8          	mov    %rdi,-0x8(%rbp)
  403fae:	48 8b 45 f8          	mov    -0x8(%rbp),%rax
  403fb2:	48 89 c7             	mov    %rax,%rdi
  403fb5:	e8 cc ff ff ff       	callq  403f86 <_ZNSt5tupleIJPN10tensorflow6Status5StateESt14default_deleteIS2_EEEC1IS3_S5_Lb1EEEv>
  403fba:	90                   	nop
  403fbb:	c9                   	leaveq 
  403fbc:	c3                   	retq   
  403fbd:	90                   	nop

0000000000403fbe <_ZN10tensorflow6StatusC1Ev>:
  403fbe:	55                   	push   %rbp
  403fbf:	48 89 e5             	mov    %rsp,%rbp
  403fc2:	48 83 ec 10          	sub    $0x10,%rsp
  403fc6:	48 89 7d f8          	mov    %rdi,-0x8(%rbp)
  403fca:	48 8b 45 f8          	mov    -0x8(%rbp),%rax
  403fce:	48 89 c7             	mov    %rax,%rdi
  403fd1:	e8 cc ff ff ff       	callq  403fa2 <_ZNSt10unique_ptrIN10tensorflow6Status5StateESt14default_deleteIS2_EEC1Ev>
  403fd6:	90                   	nop
  403fd7:	c9                   	leaveq 
  403fd8:	c3                   	retq   
  403fd9:	90                   	nop

0000000000403fda <_ZN10tensorflow6StatusD1Ev>:
  403fda:	55                   	push   %rbp
  403fdb:	48 89 e5             	mov    %rsp,%rbp
  403fde:	48 83 ec 10          	sub    $0x10,%rsp
  403fe2:	48 89 7d f8          	mov    %rdi,-0x8(%rbp)
  403fe6:	48 8b 45 f8          	mov    -0x8(%rbp),%rax
  403fea:	48 89 c7             	mov    %rax,%rdi
  403fed:	e8 70 18 00 00       	callq  405862 <_ZNSt10unique_ptrIN10tensorflow6Status5StateESt14default_deleteIS2_EED1Ev>
  403ff2:	90                   	nop
  403ff3:	c9                   	leaveq 
  403ff4:	c3                   	retq   

0000000000403ff5 <_ZN10tensorflow6Status2OKEv>:
  403ff5:	55                   	push   %rbp
  403ff6:	48 89 e5             	mov    %rsp,%rbp
  403ff9:	48 83 ec 10          	sub    $0x10,%rsp
  403ffd:	48 89 7d f8          	mov    %rdi,-0x8(%rbp)
  404001:	48 8b 45 f8          	mov    -0x8(%rbp),%rax
  404005:	48 89 c7             	mov    %rax,%rdi
  404008:	e8 b1 ff ff ff       	callq  403fbe <_ZN10tensorflow6StatusC1Ev>
  40400d:	48 8b 45 f8          	mov    -0x8(%rbp),%rax
  404011:	c9                   	leaveq 
  404012:	c3                   	retq   
  404013:	90                   	nop

0000000000404014 <_ZNK10tensorflow6Status2okEv>:
  404014:	55                   	push   %rbp
  404015:	48 89 e5             	mov    %rsp,%rbp
  404018:	48 83 ec 10          	sub    $0x10,%rsp
  40401c:	48 89 7d f8          	mov    %rdi,-0x8(%rbp)
  404020:	48 8b 45 f8          	mov    -0x8(%rbp),%rax
  404024:	be 00 00 00 00       	mov    $0x0,%esi
  404029:	48 89 c7             	mov    %rax,%rdi
  40402c:	e8 8b 18 00 00       	callq  4058bc <_ZSteqIN10tensorflow6Status5StateESt14default_deleteIS2_EEbRKSt10unique_ptrIT_T0_EDn>
  404031:	c9                   	leaveq 
  404032:	c3                   	retq   
  404033:	90                   	nop

0000000000404034 <_ZN10tensorflow6Status5StateC1ERKS1_>:
  404034:	55                   	push   %rbp
  404035:	48 89 e5             	mov    %rsp,%rbp
  404038:	48 83 ec 10          	sub    $0x10,%rsp
  40403c:	48 89 7d f8          	mov    %rdi,-0x8(%rbp)
  404040:	48 89 75 f0          	mov    %rsi,-0x10(%rbp)
  404044:	48 8b 45 f0          	mov    -0x10(%rbp),%rax
  404048:	8b 10                	mov    (%rax),%edx
  40404a:	48 8b 45 f8          	mov    -0x8(%rbp),%rax
  40404e:	89 10                	mov    %edx,(%rax)
  404050:	48 8b 45 f0          	mov    -0x10(%rbp),%rax
  404054:	48 8d 50 08          	lea    0x8(%rax),%rdx
  404058:	48 8b 45 f8          	mov    -0x8(%rbp),%rax
  40405c:	48 83 c0 08          	add    $0x8,%rax
  404060:	48 89 d6             	mov    %rdx,%rsi
  404063:	48 89 c7             	mov    %rax,%rdi
  404066:	e8 25 ec ff ff       	callq  402c90 <_ZNSt7__cxx1112basic_stringIcSt11char_traitsIcESaIcEEC1ERKS4_@plt>
  40406b:	90                   	nop
  40406c:	c9                   	leaveq 
  40406d:	c3                   	retq   

000000000040406e <_ZN10tensorflow6StatusC1ERKS0_>:
  40406e:	55                   	push   %rbp
  40406f:	48 89 e5             	mov    %rsp,%rbp
  404072:	41 54                	push   %r12
  404074:	53                   	push   %rbx
  404075:	48 83 ec 10          	sub    $0x10,%rsp
  404079:	48 89 7d e8          	mov    %rdi,-0x18(%rbp)
  40407d:	48 89 75 e0          	mov    %rsi,-0x20(%rbp)
  404081:	48 8b 45 e0          	mov    -0x20(%rbp),%rax
  404085:	be 00 00 00 00       	mov    $0x0,%esi
  40408a:	48 89 c7             	mov    %rax,%rdi
  40408d:	e8 2a 18 00 00       	callq  4058bc <_ZSteqIN10tensorflow6Status5StateESt14default_deleteIS2_EEbRKSt10unique_ptrIT_T0_EDn>
  404092:	84 c0                	test   %al,%al
  404094:	74 07                	je     40409d <_ZN10tensorflow6StatusC1ERKS0_+0x2f>
  404096:	ba 00 00 00 00       	mov    $0x0,%edx
  40409b:	eb 2a                	jmp    4040c7 <_ZN10tensorflow6StatusC1ERKS0_+0x59>
  40409d:	48 8b 45 e0          	mov    -0x20(%rbp),%rax
  4040a1:	48 89 c7             	mov    %rax,%rdi
  4040a4:	e8 35 18 00 00       	callq  4058de <_ZNKSt10unique_ptrIN10tensorflow6Status5StateESt14default_deleteIS2_EEdeEv>
  4040a9:	49 89 c4             	mov    %rax,%r12
  4040ac:	bf 28 00 00 00       	mov    $0x28,%edi
  4040b1:	e8 ca ef ff ff       	callq  403080 <_Znwm@plt>
  4040b6:	48 89 c3             	mov    %rax,%rbx
  4040b9:	4c 89 e6             	mov    %r12,%rsi
  4040bc:	48 89 df             	mov    %rbx,%rdi
  4040bf:	e8 70 ff ff ff       	callq  404034 <_ZN10tensorflow6Status5StateC1ERKS1_>
  4040c4:	48 89 da             	mov    %rbx,%rdx
  4040c7:	48 8b 45 e8          	mov    -0x18(%rbp),%rax
  4040cb:	48 89 d6             	mov    %rdx,%rsi
  4040ce:	48 89 c7             	mov    %rax,%rdi
  4040d1:	e8 22 18 00 00       	callq  4058f8 <_ZNSt10unique_ptrIN10tensorflow6Status5StateESt14default_deleteIS2_EEC1EPS2_>
  4040d6:	eb 16                	jmp    4040ee <_ZN10tensorflow6StatusC1ERKS0_+0x80>
  4040d8:	49 89 c4             	mov    %rax,%r12
  4040db:	48 89 df             	mov    %rbx,%rdi
  4040de:	e8 1d ec ff ff       	callq  402d00 <_ZdlPv@plt>
  4040e3:	4c 89 e0             	mov    %r12,%rax
  4040e6:	48 89 c7             	mov    %rax,%rdi
  4040e9:	e8 92 ee ff ff       	callq  402f80 <_Unwind_Resume@plt>
  4040ee:	48 83 c4 10          	add    $0x10,%rsp
  4040f2:	5b                   	pop    %rbx
  4040f3:	41 5c                	pop    %r12
  4040f5:	5d                   	pop    %rbp
  4040f6:	c3                   	retq   

00000000004040f7 <_ZN10tensorflow15TfCheckOpHelperB5cxx11ENS_6StatusEPKc>:
  4040f7:	55                   	push   %rbp
  4040f8:	48 89 e5             	mov    %rsp,%rbp
  4040fb:	48 83 ec 10          	sub    $0x10,%rsp
  4040ff:	48 89 7d f8          	mov    %rdi,-0x8(%rbp)
  404103:	48 89 75 f0          	mov    %rsi,-0x10(%rbp)
  404107:	48 8b 45 f8          	mov    -0x8(%rbp),%rax
  40410b:	48 89 c7             	mov    %rax,%rdi
  40410e:	e8 01 ff ff ff       	callq  404014 <_ZNK10tensorflow6Status2okEv>
  404113:	84 c0                	test   %al,%al
  404115:	74 07                	je     40411e <_ZN10tensorflow15TfCheckOpHelperB5cxx11ENS_6StatusEPKc+0x27>
  404117:	b8 00 00 00 00       	mov    $0x0,%eax
  40411c:	eb 13                	jmp    404131 <_ZN10tensorflow15TfCheckOpHelperB5cxx11ENS_6StatusEPKc+0x3a>
  40411e:	48 8b 55 f0          	mov    -0x10(%rbp),%rdx
  404122:	48 8b 45 f8          	mov    -0x8(%rbp),%rax
  404126:	48 89 d6             	mov    %rdx,%rsi
  404129:	48 89 c7             	mov    %rax,%rdi
  40412c:	e8 1f f0 ff ff       	callq  403150 <_ZN10tensorflow24TfCheckOpHelperOutOfLineB5cxx11ERKNS_6StatusEPKc@plt>
  404131:	c9                   	leaveq 
  404132:	c3                   	retq   
  404133:	90                   	nop

0000000000404134 <_ZNK10tensorflow14TensorShapeRep12num_elementsEv>:
  404134:	55                   	push   %rbp
  404135:	48 89 e5             	mov    %rsp,%rbp
  404138:	48 89 7d f8          	mov    %rdi,-0x8(%rbp)
  40413c:	48 8b 45 f8          	mov    -0x8(%rbp),%rax
  404140:	48 8b 40 10          	mov    0x10(%rax),%rax
  404144:	5d                   	pop    %rbp
  404145:	c3                   	retq   

0000000000404146 <_ZNK10tensorflow14TensorShapeRep3tagEv>:
  404146:	55                   	push   %rbp
  404147:	48 89 e5             	mov    %rsp,%rbp
  40414a:	48 83 ec 10          	sub    $0x10,%rsp
  40414e:	48 89 7d f8          	mov    %rdi,-0x8(%rbp)
  404152:	48 8b 45 f8          	mov    -0x8(%rbp),%rax
  404156:	48 89 c7             	mov    %rax,%rdi
  404159:	e8 42 00 00 00       	callq  4041a0 <_ZNK10tensorflow14TensorShapeRep3bufEv>
  40415e:	48 83 c0 0f          	add    $0xf,%rax
  404162:	0f b6 00             	movzbl (%rax),%eax
  404165:	0f b6 c0             	movzbl %al,%eax
  404168:	c9                   	leaveq 
  404169:	c3                   	retq   

000000000040416a <_ZN10tensorflow14TensorShapeRep7set_tagENS0_6RepTagE>:
  40416a:	55                   	push   %rbp
  40416b:	48 89 e5             	mov    %rsp,%rbp
  40416e:	48 83 ec 10          	sub    $0x10,%rsp
  404172:	48 89 7d f8          	mov    %rdi,-0x8(%rbp)
  404176:	89 75 f4             	mov    %esi,-0xc(%rbp)
  404179:	48 8b 45 f8          	mov    -0x8(%rbp),%rax
  40417d:	48 89 c7             	mov    %rax,%rdi
  404180:	e8 0d 00 00 00       	callq  404192 <_ZN10tensorflow14TensorShapeRep3bufEv>
  404185:	48 83 c0 0f          	add    $0xf,%rax
  404189:	8b 55 f4             	mov    -0xc(%rbp),%edx
  40418c:	88 10                	mov    %dl,(%rax)
  40418e:	90                   	nop
  40418f:	c9                   	leaveq 
  404190:	c3                   	retq   
  404191:	90                   	nop

0000000000404192 <_ZN10tensorflow14TensorShapeRep3bufEv>:
  404192:	55                   	push   %rbp
  404193:	48 89 e5             	mov    %rsp,%rbp
  404196:	48 89 7d f8          	mov    %rdi,-0x8(%rbp)
  40419a:	48 8b 45 f8          	mov    -0x8(%rbp),%rax
  40419e:	5d                   	pop    %rbp
  40419f:	c3                   	retq   

00000000004041a0 <_ZNK10tensorflow14TensorShapeRep3bufEv>:
  4041a0:	55                   	push   %rbp
  4041a1:	48 89 e5             	mov    %rsp,%rbp
  4041a4:	48 89 7d f8          	mov    %rdi,-0x8(%rbp)
  4041a8:	48 8b 45 f8          	mov    -0x8(%rbp),%rax
  4041ac:	5d                   	pop    %rbp
  4041ad:	c3                   	retq   

00000000004041ae <_ZN10tensorflow14TensorShapeRepC1ERKS0_>:
  4041ae:	55                   	push   %rbp
  4041af:	48 89 e5             	mov    %rsp,%rbp
  4041b2:	53                   	push   %rbx
  4041b3:	48 83 ec 18          	sub    $0x18,%rsp
  4041b7:	48 89 7d e8          	mov    %rdi,-0x18(%rbp)
  4041bb:	48 89 75 e0          	mov    %rsi,-0x20(%rbp)
  4041bf:	48 8b 45 e0          	mov    -0x20(%rbp),%rax
  4041c3:	48 8b 50 10          	mov    0x10(%rax),%rdx
  4041c7:	48 8b 45 e8          	mov    -0x18(%rbp),%rax
  4041cb:	48 89 50 10          	mov    %rdx,0x10(%rax)
  4041cf:	48 8b 45 e0          	mov    -0x20(%rbp),%rax
  4041d3:	48 89 c7             	mov    %rax,%rdi
  4041d6:	e8 6b ff ff ff       	callq  404146 <_ZNK10tensorflow14TensorShapeRep3tagEv>
  4041db:	83 f8 02             	cmp    $0x2,%eax
  4041de:	0f 95 c0             	setne  %al
  4041e1:	84 c0                	test   %al,%al
  4041e3:	74 2e                	je     404213 <_ZN10tensorflow14TensorShapeRepC1ERKS0_+0x65>
  4041e5:	48 8b 45 e0          	mov    -0x20(%rbp),%rax
  4041e9:	48 89 c7             	mov    %rax,%rdi
  4041ec:	e8 af ff ff ff       	callq  4041a0 <_ZNK10tensorflow14TensorShapeRep3bufEv>
  4041f1:	48 89 c3             	mov    %rax,%rbx
  4041f4:	48 8b 45 e8          	mov    -0x18(%rbp),%rax
  4041f8:	48 89 c7             	mov    %rax,%rdi
  4041fb:	e8 92 ff ff ff       	callq  404192 <_ZN10tensorflow14TensorShapeRep3bufEv>
  404200:	48 89 c1             	mov    %rax,%rcx
  404203:	48 8b 03             	mov    (%rbx),%rax
  404206:	48 8b 53 08          	mov    0x8(%rbx),%rdx
  40420a:	48 89 01             	mov    %rax,(%rcx)
  40420d:	48 89 51 08          	mov    %rdx,0x8(%rcx)
  404211:	eb 24                	jmp    404237 <_ZN10tensorflow14TensorShapeRepC1ERKS0_+0x89>
  404213:	48 8b 45 e8          	mov    -0x18(%rbp),%rax
  404217:	be 00 00 00 00       	mov    $0x0,%esi
  40421c:	48 89 c7             	mov    %rax,%rdi
  40421f:	e8 46 ff ff ff       	callq  40416a <_ZN10tensorflow14TensorShapeRep7set_tagENS0_6RepTagE>
  404224:	48 8b 55 e0          	mov    -0x20(%rbp),%rdx
  404228:	48 8b 45 e8          	mov    -0x18(%rbp),%rax
  40422c:	48 89 d6             	mov    %rdx,%rsi
  40422f:	48 89 c7             	mov    %rax,%rdi
  404232:	e8 99 ed ff ff       	callq  402fd0 <_ZN10tensorflow14TensorShapeRep12SlowCopyFromERKS0_@plt>
  404237:	90                   	nop
  404238:	48 83 c4 18          	add    $0x18,%rsp
  40423c:	5b                   	pop    %rbx
  40423d:	5d                   	pop    %rbp
  40423e:	c3                   	retq   
  40423f:	90                   	nop

0000000000404240 <_ZN10tensorflow14TensorShapeRepD1Ev>:
  404240:	55                   	push   %rbp
  404241:	48 89 e5             	mov    %rsp,%rbp
  404244:	48 83 ec 10          	sub    $0x10,%rsp
  404248:	48 89 7d f8          	mov    %rdi,-0x8(%rbp)
  40424c:	48 8b 45 f8          	mov    -0x8(%rbp),%rax
  404250:	48 89 c7             	mov    %rax,%rdi
  404253:	e8 ee fe ff ff       	callq  404146 <_ZNK10tensorflow14TensorShapeRep3tagEv>
  404258:	83 f8 02             	cmp    $0x2,%eax
  40425b:	0f 94 c0             	sete   %al
  40425e:	84 c0                	test   %al,%al
  404260:	74 0c                	je     40426e <_ZN10tensorflow14TensorShapeRepD1Ev+0x2e>
  404262:	48 8b 45 f8          	mov    -0x8(%rbp),%rax
  404266:	48 89 c7             	mov    %rax,%rdi
  404269:	e8 52 eb ff ff       	callq  402dc0 <_ZN10tensorflow14TensorShapeRep19DestructorOutOfLineEv@plt>
  40426e:	90                   	nop
  40426f:	c9                   	leaveq 
  404270:	c3                   	retq   

0000000000404271 <_ZN10tensorflow14DataTypeToEnumIfE1vEv>:
  404271:	55                   	push   %rbp
  404272:	48 89 e5             	mov    %rsp,%rbp
  404275:	b8 01 00 00 00       	mov    $0x1,%eax
  40427a:	5d                   	pop    %rbp
  40427b:	c3                   	retq   

000000000040427c <_ZN10tensorflow4core10RefCountedD1Ev>:
  40427c:	55                   	push   %rbp
  40427d:	48 89 e5             	mov    %rsp,%rbp
  404280:	53                   	push   %rbx
  404281:	48 81 ec d8 01 00 00 	sub    $0x1d8,%rsp
  404288:	48 89 bd 28 fe ff ff 	mov    %rdi,-0x1d8(%rbp)
  40428f:	64 48 8b 04 25 28 00 	mov    %fs:0x28,%rax
  404296:	00 00 
  404298:	48 89 45 e8          	mov    %rax,-0x18(%rbp)
  40429c:	31 c0                	xor    %eax,%eax
  40429e:	ba 28 97 40 00       	mov    $0x409728,%edx
  4042a3:	48 8b 85 28 fe ff ff 	mov    -0x1d8(%rbp),%rax
  4042aa:	48 89 10             	mov    %rdx,(%rax)
  4042ad:	bf 00 00 00 00       	mov    $0x0,%edi
  4042b2:	e8 d2 fb ff ff       	callq  403e89 <_ZN10tensorflow8internal21GetReferenceableValueEi>
  4042b7:	89 85 3c fe ff ff    	mov    %eax,-0x1c4(%rbp)
  4042bd:	48 8b 85 28 fe ff ff 	mov    -0x1d8(%rbp),%rax
  4042c4:	48 83 c0 08          	add    $0x8,%rax
  4042c8:	48 89 85 58 fe ff ff 	mov    %rax,-0x1a8(%rbp)
  4042cf:	c7 85 40 fe ff ff 05 	movl   $0x5,-0x1c0(%rbp)
  4042d6:	00 00 00 
  4042d9:	8b 85 40 fe ff ff    	mov    -0x1c0(%rbp),%eax
  4042df:	be ff ff 00 00       	mov    $0xffff,%esi
  4042e4:	89 c7                	mov    %eax,%edi
  4042e6:	e8 bb fa ff ff       	callq  403da6 <_ZStanSt12memory_orderSt23__memory_order_modifier>
  4042eb:	89 85 44 fe ff ff    	mov    %eax,-0x1bc(%rbp)
  4042f1:	48 8b 85 58 fe ff ff 	mov    -0x1a8(%rbp),%rax
  4042f8:	48 8b 00             	mov    (%rax),%rax
  4042fb:	48 89 c7             	mov    %rax,%rdi
  4042fe:	e8 92 fb ff ff       	callq  403e95 <_ZN10tensorflow8internal21GetReferenceableValueEl>
  404303:	48 89 85 50 fe ff ff 	mov    %rax,-0x1b0(%rbp)
  40430a:	48 8d 8d 3c fe ff ff 	lea    -0x1c4(%rbp),%rcx
  404311:	48 8d 85 50 fe ff ff 	lea    -0x1b0(%rbp),%rax
  404318:	ba dc 90 40 00       	mov    $0x4090dc,%edx
  40431d:	48 89 ce             	mov    %rcx,%rsi
  404320:	48 89 c7             	mov    %rax,%rdi
  404323:	e8 a8 16 00 00       	callq  4059d0 <_ZN10tensorflow8internal12Check_EQImplIliEEPNSt7__cxx1112basic_stringIcSt11char_traitsIcESaIcEEERKT_RKT0_PKc>
  404328:	48 89 c2             	mov    %rax,%rdx
  40432b:	48 8d 85 48 fe ff ff 	lea    -0x1b8(%rbp),%rax
  404332:	48 89 d6             	mov    %rdx,%rsi
  404335:	48 89 c7             	mov    %rax,%rdi
  404338:	e8 83 fb ff ff       	callq  403ec0 <_ZN10tensorflow8internal13CheckOpStringC1EPNSt7__cxx1112basic_stringIcSt11char_traitsIcESaIcEEE>
  40433d:	48 8d 85 48 fe ff ff 	lea    -0x1b8(%rbp),%rax
  404344:	48 89 c7             	mov    %rax,%rdi
  404347:	e8 8e fb ff ff       	callq  403eda <_ZNK10tensorflow8internal13CheckOpStringcvbEv>
  40434c:	83 f0 01             	xor    $0x1,%eax
  40434f:	84 c0                	test   %al,%al
  404351:	75 41                	jne    404394 <_ZN10tensorflow4core10RefCountedD1Ev+0x118>
  404353:	48 8b 9d 48 fe ff ff 	mov    -0x1b8(%rbp),%rbx
  40435a:	48 8d 85 60 fe ff ff 	lea    -0x1a0(%rbp),%rax
  404361:	ba 4f 00 00 00       	mov    $0x4f,%edx
  404366:	be f0 90 40 00       	mov    $0x4090f0,%esi
  40436b:	48 89 c7             	mov    %rax,%rdi
  40436e:	e8 3d e9 ff ff       	callq  402cb0 <_ZN10tensorflow8internal15LogMessageFatalC1EPKci@plt>
  404373:	48 8d 85 60 fe ff ff 	lea    -0x1a0(%rbp),%rax
  40437a:	48 89 de             	mov    %rbx,%rsi
  40437d:	48 89 c7             	mov    %rax,%rdi
  404380:	e8 22 16 00 00       	callq  4059a7 <_ZStlsIcSt11char_traitsIcENSt7__cxx1112basic_stringIcS1_SaIcEEEERSt13basic_ostreamIT_T0_EOS9_RKT1_>
  404385:	48 8d 85 60 fe ff ff 	lea    -0x1a0(%rbp),%rax
  40438c:	48 89 c7             	mov    %rax,%rdi
  40438f:	e8 cc ea ff ff       	callq  402e60 <_ZN10tensorflow8internal15LogMessageFatalD1Ev@plt>
  404394:	90                   	nop
  404395:	48 8b 45 e8          	mov    -0x18(%rbp),%rax
  404399:	64 48 33 04 25 28 00 	xor    %fs:0x28,%rax
  4043a0:	00 00 
  4043a2:	74 05                	je     4043a9 <_ZN10tensorflow4core10RefCountedD1Ev+0x12d>
  4043a4:	e8 27 e9 ff ff       	callq  402cd0 <__stack_chk_fail@plt>
  4043a9:	48 81 c4 d8 01 00 00 	add    $0x1d8,%rsp
  4043b0:	5b                   	pop    %rbx
  4043b1:	5d                   	pop    %rbp
  4043b2:	c3                   	retq   
  4043b3:	90                   	nop

00000000004043b4 <_ZN10tensorflow4core10RefCountedD0Ev>:
  4043b4:	55                   	push   %rbp
  4043b5:	48 89 e5             	mov    %rsp,%rbp
  4043b8:	48 83 ec 10          	sub    $0x10,%rsp
  4043bc:	48 89 7d f8          	mov    %rdi,-0x8(%rbp)
  4043c0:	48 8b 45 f8          	mov    -0x8(%rbp),%rax
  4043c4:	48 89 c7             	mov    %rax,%rdi
  4043c7:	e8 b0 fe ff ff       	callq  40427c <_ZN10tensorflow4core10RefCountedD1Ev>
  4043cc:	48 8b 45 f8          	mov    -0x8(%rbp),%rax
  4043d0:	48 89 c7             	mov    %rax,%rdi
  4043d3:	e8 28 e9 ff ff       	callq  402d00 <_ZdlPv@plt>
  4043d8:	c9                   	leaveq 
  4043d9:	c3                   	retq   

00000000004043da <_ZNK10tensorflow4core10RefCounted3RefEv>:
  4043da:	55                   	push   %rbp
  4043db:	48 89 e5             	mov    %rsp,%rbp
  4043de:	53                   	push   %rbx
  4043df:	48 81 ec e8 01 00 00 	sub    $0x1e8,%rsp
  4043e6:	48 89 bd 18 fe ff ff 	mov    %rdi,-0x1e8(%rbp)
  4043ed:	64 48 8b 04 25 28 00 	mov    %fs:0x28,%rax
  4043f4:	00 00 
  4043f6:	48 89 45 e8          	mov    %rax,-0x18(%rbp)
  4043fa:	31 c0                	xor    %eax,%eax
  4043fc:	bf 01 00 00 00       	mov    $0x1,%edi
  404401:	e8 83 fa ff ff       	callq  403e89 <_ZN10tensorflow8internal21GetReferenceableValueEi>
  404406:	89 85 28 fe ff ff    	mov    %eax,-0x1d8(%rbp)
  40440c:	48 8b 85 18 fe ff ff 	mov    -0x1e8(%rbp),%rax
  404413:	48 83 c0 08          	add    $0x8,%rax
  404417:	48 89 85 48 fe ff ff 	mov    %rax,-0x1b8(%rbp)
  40441e:	c7 85 2c fe ff ff 05 	movl   $0x5,-0x1d4(%rbp)
  404425:	00 00 00 
  404428:	8b 85 2c fe ff ff    	mov    -0x1d4(%rbp),%eax
  40442e:	be ff ff 00 00       	mov    $0xffff,%esi
  404433:	89 c7                	mov    %eax,%edi
  404435:	e8 6c f9 ff ff       	callq  403da6 <_ZStanSt12memory_orderSt23__memory_order_modifier>
  40443a:	89 85 30 fe ff ff    	mov    %eax,-0x1d0(%rbp)
  404440:	48 8b 85 48 fe ff ff 	mov    -0x1b8(%rbp),%rax
  404447:	48 8b 00             	mov    (%rax),%rax
  40444a:	48 89 c7             	mov    %rax,%rdi
  40444d:	e8 43 fa ff ff       	callq  403e95 <_ZN10tensorflow8internal21GetReferenceableValueEl>
  404452:	48 89 85 40 fe ff ff 	mov    %rax,-0x1c0(%rbp)
  404459:	48 8d 8d 28 fe ff ff 	lea    -0x1d8(%rbp),%rcx
  404460:	48 8d 85 40 fe ff ff 	lea    -0x1c0(%rbp),%rax
  404467:	ba 76 91 40 00       	mov    $0x409176,%edx
  40446c:	48 89 ce             	mov    %rcx,%rsi
  40446f:	48 89 c7             	mov    %rax,%rdi
  404472:	e8 a1 15 00 00       	callq  405a18 <_ZN10tensorflow8internal12Check_GEImplIliEEPNSt7__cxx1112basic_stringIcSt11char_traitsIcESaIcEEERKT_RKT0_PKc>
  404477:	48 89 c2             	mov    %rax,%rdx
  40447a:	48 8d 85 38 fe ff ff 	lea    -0x1c8(%rbp),%rax
  404481:	48 89 d6             	mov    %rdx,%rsi
  404484:	48 89 c7             	mov    %rax,%rdi
  404487:	e8 34 fa ff ff       	callq  403ec0 <_ZN10tensorflow8internal13CheckOpStringC1EPNSt7__cxx1112basic_stringIcSt11char_traitsIcESaIcEEE>
  40448c:	48 8d 85 38 fe ff ff 	lea    -0x1c8(%rbp),%rax
  404493:	48 89 c7             	mov    %rax,%rdi
  404496:	e8 3f fa ff ff       	callq  403eda <_ZNK10tensorflow8internal13CheckOpStringcvbEv>
  40449b:	83 f0 01             	xor    $0x1,%eax
  40449e:	84 c0                	test   %al,%al
  4044a0:	75 41                	jne    4044e3 <_ZNK10tensorflow4core10RefCounted3RefEv+0x109>
  4044a2:	48 8b 9d 38 fe ff ff 	mov    -0x1c8(%rbp),%rbx
  4044a9:	48 8d 85 60 fe ff ff 	lea    -0x1a0(%rbp),%rax
  4044b0:	ba 52 00 00 00       	mov    $0x52,%edx
  4044b5:	be f0 90 40 00       	mov    $0x4090f0,%esi
  4044ba:	48 89 c7             	mov    %rax,%rdi
  4044bd:	e8 ee e7 ff ff       	callq  402cb0 <_ZN10tensorflow8internal15LogMessageFatalC1EPKci@plt>
  4044c2:	48 8d 85 60 fe ff ff 	lea    -0x1a0(%rbp),%rax
  4044c9:	48 89 de             	mov    %rbx,%rsi
  4044cc:	48 89 c7             	mov    %rax,%rdi
  4044cf:	e8 d3 14 00 00       	callq  4059a7 <_ZStlsIcSt11char_traitsIcENSt7__cxx1112basic_stringIcS1_SaIcEEEERSt13basic_ostreamIT_T0_EOS9_RKT1_>
  4044d4:	48 8d 85 60 fe ff ff 	lea    -0x1a0(%rbp),%rax
  4044db:	48 89 c7             	mov    %rax,%rdi
  4044de:	e8 7d e9 ff ff       	callq  402e60 <_ZN10tensorflow8internal15LogMessageFatalD1Ev@plt>
  4044e3:	48 8b 85 18 fe ff ff 	mov    -0x1e8(%rbp),%rax
  4044ea:	48 83 c0 08          	add    $0x8,%rax
  4044ee:	48 89 85 50 fe ff ff 	mov    %rax,-0x1b0(%rbp)
  4044f5:	48 c7 85 58 fe ff ff 	movq   $0x1,-0x1a8(%rbp)
  4044fc:	01 00 00 00 
  404500:	c7 85 34 fe ff ff 00 	movl   $0x0,-0x1cc(%rbp)
  404507:	00 00 00 
  40450a:	48 8b 95 58 fe ff ff 	mov    -0x1a8(%rbp),%rdx
  404511:	48 8b 85 50 fe ff ff 	mov    -0x1b0(%rbp),%rax
  404518:	f0 48 0f c1 10       	lock xadd %rdx,(%rax)
  40451d:	90                   	nop
  40451e:	48 8b 45 e8          	mov    -0x18(%rbp),%rax
  404522:	64 48 33 04 25 28 00 	xor    %fs:0x28,%rax
  404529:	00 00 
  40452b:	74 16                	je     404543 <_ZNK10tensorflow4core10RefCounted3RefEv+0x169>
  40452d:	eb 0f                	jmp    40453e <_ZNK10tensorflow4core10RefCounted3RefEv+0x164>
  40452f:	48 8d 85 60 fe ff ff 	lea    -0x1a0(%rbp),%rax
  404536:	48 89 c7             	mov    %rax,%rdi
  404539:	e8 22 e9 ff ff       	callq  402e60 <_ZN10tensorflow8internal15LogMessageFatalD1Ev@plt>
  40453e:	e8 8d e7 ff ff       	callq  402cd0 <__stack_chk_fail@plt>
  404543:	48 81 c4 e8 01 00 00 	add    $0x1e8,%rsp
  40454a:	5b                   	pop    %rbx
  40454b:	5d                   	pop    %rbp
  40454c:	c3                   	retq   
  40454d:	90                   	nop

000000000040454e <_ZNK10tensorflow6Tensor5shapeEv>:
  40454e:	55                   	push   %rbp
  40454f:	48 89 e5             	mov    %rsp,%rbp
  404552:	48 89 7d f8          	mov    %rdi,-0x8(%rbp)
  404556:	48 8b 45 f8          	mov    -0x8(%rbp),%rax
  40455a:	5d                   	pop    %rbp
  40455b:	c3                   	retq   

000000000040455c <_ZNK10tensorflow6Tensor11NumElementsEv>:
  40455c:	55                   	push   %rbp
  40455d:	48 89 e5             	mov    %rsp,%rbp
  404560:	48 83 ec 10          	sub    $0x10,%rsp
  404564:	48 89 7d f8          	mov    %rdi,-0x8(%rbp)
  404568:	48 8b 45 f8          	mov    -0x8(%rbp),%rax
  40456c:	48 89 c7             	mov    %rax,%rdi
  40456f:	e8 da ff ff ff       	callq  40454e <_ZNK10tensorflow6Tensor5shapeEv>
  404574:	48 89 c7             	mov    %rax,%rdi
  404577:	e8 b8 fb ff ff       	callq  404134 <_ZNK10tensorflow14TensorShapeRep12num_elementsEv>
  40457c:	c9                   	leaveq 
  40457d:	c3                   	retq   

000000000040457e <_ZNK10tensorflow6Tensor9IsAlignedEv>:
  40457e:	55                   	push   %rbp
  40457f:	48 89 e5             	mov    %rsp,%rbp
  404582:	48 83 ec 20          	sub    $0x20,%rsp
  404586:	48 89 7d e8          	mov    %rdi,-0x18(%rbp)
  40458a:	48 8b 45 e8          	mov    -0x18(%rbp),%rax
  40458e:	48 89 c7             	mov    %rax,%rdi
  404591:	e8 ca 14 00 00       	callq  405a60 <_ZNK10tensorflow6Tensor4baseIvEEPT_v>
  404596:	48 89 45 f8          	mov    %rax,-0x8(%rbp)
  40459a:	48 8b 45 f8          	mov    -0x8(%rbp),%rax
  40459e:	83 e0 0f             	and    $0xf,%eax
  4045a1:	48 85 c0             	test   %rax,%rax
  4045a4:	0f 94 c0             	sete   %al
  4045a7:	c9                   	leaveq 
  4045a8:	c3                   	retq   
  4045a9:	90                   	nop

00000000004045aa <_ZN10tensorflow15TensorShapeBaseINS_11TensorShapeEEC1ERKS2_>:
  4045aa:	55                   	push   %rbp
  4045ab:	48 89 e5             	mov    %rsp,%rbp
  4045ae:	48 83 ec 10          	sub    $0x10,%rsp
  4045b2:	48 89 7d f8          	mov    %rdi,-0x8(%rbp)
  4045b6:	48 89 75 f0          	mov    %rsi,-0x10(%rbp)
  4045ba:	48 8b 55 f0          	mov    -0x10(%rbp),%rdx
  4045be:	48 8b 45 f8          	mov    -0x8(%rbp),%rax
  4045c2:	48 89 d6             	mov    %rdx,%rsi
  4045c5:	48 89 c7             	mov    %rax,%rdi
  4045c8:	e8 e1 fb ff ff       	callq  4041ae <_ZN10tensorflow14TensorShapeRepC1ERKS0_>
  4045cd:	90                   	nop
  4045ce:	c9                   	leaveq 
  4045cf:	c3                   	retq   

00000000004045d0 <_ZN10tensorflow15TensorShapeBaseINS_11TensorShapeEED1Ev>:
  4045d0:	55                   	push   %rbp
  4045d1:	48 89 e5             	mov    %rsp,%rbp
  4045d4:	48 83 ec 10          	sub    $0x10,%rsp
  4045d8:	48 89 7d f8          	mov    %rdi,-0x8(%rbp)
  4045dc:	48 8b 45 f8          	mov    -0x8(%rbp),%rax
  4045e0:	48 89 c7             	mov    %rax,%rdi
  4045e3:	e8 58 fc ff ff       	callq  404240 <_ZN10tensorflow14TensorShapeRepD1Ev>
  4045e8:	90                   	nop
  4045e9:	c9                   	leaveq 
  4045ea:	c3                   	retq   
  4045eb:	90                   	nop

00000000004045ec <_ZN10tensorflow11TensorShapeC1ERKS0_>:
  4045ec:	55                   	push   %rbp
  4045ed:	48 89 e5             	mov    %rsp,%rbp
  4045f0:	48 83 ec 10          	sub    $0x10,%rsp
  4045f4:	48 89 7d f8          	mov    %rdi,-0x8(%rbp)
  4045f8:	48 89 75 f0          	mov    %rsi,-0x10(%rbp)
  4045fc:	48 8b 55 f0          	mov    -0x10(%rbp),%rdx
  404600:	48 8b 45 f8          	mov    -0x8(%rbp),%rax
  404604:	48 89 d6             	mov    %rdx,%rsi
  404607:	48 89 c7             	mov    %rax,%rdi
  40460a:	e8 9b ff ff ff       	callq  4045aa <_ZN10tensorflow15TensorShapeBaseINS_11TensorShapeEEC1ERKS2_>
  40460f:	90                   	nop
  404610:	c9                   	leaveq 
  404611:	c3                   	retq   

0000000000404612 <_ZN10tensorflow11TensorShapeD1Ev>:
  404612:	55                   	push   %rbp
  404613:	48 89 e5             	mov    %rsp,%rbp
  404616:	48 83 ec 10          	sub    $0x10,%rsp
  40461a:	48 89 7d f8          	mov    %rdi,-0x8(%rbp)
  40461e:	48 8b 45 f8          	mov    -0x8(%rbp),%rax
  404622:	48 89 c7             	mov    %rax,%rdi
  404625:	e8 a6 ff ff ff       	callq  4045d0 <_ZN10tensorflow15TensorShapeBaseINS_11TensorShapeEED1Ev>
  40462a:	90                   	nop
  40462b:	c9                   	leaveq 
  40462c:	c3                   	retq   
  40462d:	90                   	nop

000000000040462e <_ZN10tensorflow6TensorC1ERKS0_>:
  40462e:	55                   	push   %rbp
  40462f:	48 89 e5             	mov    %rsp,%rbp
  404632:	53                   	push   %rbx
  404633:	48 83 ec 18          	sub    $0x18,%rsp
  404637:	48 89 7d e8          	mov    %rdi,-0x18(%rbp)
  40463b:	48 89 75 e0          	mov    %rsi,-0x20(%rbp)
  40463f:	48 8b 45 e0          	mov    -0x20(%rbp),%rax
  404643:	48 89 c7             	mov    %rax,%rdi
  404646:	e8 03 ff ff ff       	callq  40454e <_ZNK10tensorflow6Tensor5shapeEv>
  40464b:	48 89 c2             	mov    %rax,%rdx
  40464e:	48 8b 45 e8          	mov    -0x18(%rbp),%rax
  404652:	48 89 d6             	mov    %rdx,%rsi
  404655:	48 89 c7             	mov    %rax,%rdi
  404658:	e8 8f ff ff ff       	callq  4045ec <_ZN10tensorflow11TensorShapeC1ERKS0_>
  40465d:	48 8b 45 e0          	mov    -0x20(%rbp),%rax
  404661:	48 8b 50 18          	mov    0x18(%rax),%rdx
  404665:	48 8b 45 e8          	mov    -0x18(%rbp),%rax
  404669:	48 89 50 18          	mov    %rdx,0x18(%rax)
  40466d:	48 8b 45 e8          	mov    -0x18(%rbp),%rax
  404671:	48 8b 40 18          	mov    0x18(%rax),%rax
  404675:	48 85 c0             	test   %rax,%rax
  404678:	74 2c                	je     4046a6 <_ZN10tensorflow6TensorC1ERKS0_+0x78>
  40467a:	48 8b 45 e8          	mov    -0x18(%rbp),%rax
  40467e:	48 8b 40 18          	mov    0x18(%rax),%rax
  404682:	48 89 c7             	mov    %rax,%rdi
  404685:	e8 50 fd ff ff       	callq  4043da <_ZNK10tensorflow4core10RefCounted3RefEv>
  40468a:	eb 1a                	jmp    4046a6 <_ZN10tensorflow6TensorC1ERKS0_+0x78>
  40468c:	48 89 c3             	mov    %rax,%rbx
  40468f:	48 8b 45 e8          	mov    -0x18(%rbp),%rax
  404693:	48 89 c7             	mov    %rax,%rdi
  404696:	e8 77 ff ff ff       	callq  404612 <_ZN10tensorflow11TensorShapeD1Ev>
  40469b:	48 89 d8             	mov    %rbx,%rax
  40469e:	48 89 c7             	mov    %rax,%rdi
  4046a1:	e8 da e8 ff ff       	callq  402f80 <_Unwind_Resume@plt>
  4046a6:	90                   	nop
  4046a7:	48 83 c4 18          	add    $0x18,%rsp
  4046ab:	5b                   	pop    %rbx
  4046ac:	5d                   	pop    %rbp
  4046ad:	c3                   	retq   

00000000004046ae <_ZN10tensorflow9OperationD1Ev>:
  4046ae:	55                   	push   %rbp
  4046af:	48 89 e5             	mov    %rsp,%rbp
  4046b2:	48 83 ec 10          	sub    $0x10,%rsp
  4046b6:	48 89 7d f8          	mov    %rdi,-0x8(%rbp)
  4046ba:	48 8b 45 f8          	mov    -0x8(%rbp),%rax
  4046be:	48 89 c7             	mov    %rax,%rdi
  4046c1:	e8 cc 13 00 00       	callq  405a92 <_ZNSt6vectorISt4pairIPN10tensorflow4NodeEiESaIS4_EED1Ev>
  4046c6:	90                   	nop
  4046c7:	c9                   	leaveq 
  4046c8:	c3                   	retq   
  4046c9:	90                   	nop

00000000004046ca <_ZN10tensorflow9OperationC1ERKS0_>:
  4046ca:	55                   	push   %rbp
  4046cb:	48 89 e5             	mov    %rsp,%rbp
  4046ce:	48 83 ec 10          	sub    $0x10,%rsp
  4046d2:	48 89 7d f8          	mov    %rdi,-0x8(%rbp)
  4046d6:	48 89 75 f0          	mov    %rsi,-0x10(%rbp)
  4046da:	48 8b 55 f0          	mov    -0x10(%rbp),%rdx
  4046de:	48 8b 45 f8          	mov    -0x8(%rbp),%rax
  4046e2:	48 89 d6             	mov    %rdx,%rsi
  4046e5:	48 89 c7             	mov    %rax,%rdi
  4046e8:	e8 e9 13 00 00       	callq  405ad6 <_ZNSt6vectorISt4pairIPN10tensorflow4NodeEiESaIS4_EEC1ERKS6_>
  4046ed:	48 8b 45 f0          	mov    -0x10(%rbp),%rax
  4046f1:	48 8b 50 18          	mov    0x18(%rax),%rdx
  4046f5:	48 8b 45 f8          	mov    -0x8(%rbp),%rax
  4046f9:	48 89 50 18          	mov    %rdx,0x18(%rax)
  4046fd:	90                   	nop
  4046fe:	c9                   	leaveq 
  4046ff:	c3                   	retq   

0000000000404700 <_ZN10tensorflow6OutputC1ERKNS_9OperationEi>:
  404700:	55                   	push   %rbp
  404701:	48 89 e5             	mov    %rsp,%rbp
  404704:	48 83 ec 20          	sub    $0x20,%rsp
  404708:	48 89 7d f8          	mov    %rdi,-0x8(%rbp)
  40470c:	48 89 75 f0          	mov    %rsi,-0x10(%rbp)
  404710:	89 55 ec             	mov    %edx,-0x14(%rbp)
  404713:	48 8b 45 f8          	mov    -0x8(%rbp),%rax
  404717:	48 8b 55 f0          	mov    -0x10(%rbp),%rdx
  40471b:	48 89 d6             	mov    %rdx,%rsi
  40471e:	48 89 c7             	mov    %rax,%rdi
  404721:	e8 a4 ff ff ff       	callq  4046ca <_ZN10tensorflow9OperationC1ERKS0_>
  404726:	48 8b 45 f8          	mov    -0x8(%rbp),%rax
  40472a:	8b 55 ec             	mov    -0x14(%rbp),%edx
  40472d:	89 50 20             	mov    %edx,0x20(%rax)
  404730:	90                   	nop
  404731:	c9                   	leaveq 
  404732:	c3                   	retq   
  404733:	90                   	nop

0000000000404734 <_ZN10tensorflow6OutputD1Ev>:
  404734:	55                   	push   %rbp
  404735:	48 89 e5             	mov    %rsp,%rbp
  404738:	48 83 ec 10          	sub    $0x10,%rsp
  40473c:	48 89 7d f8          	mov    %rdi,-0x8(%rbp)
  404740:	48 8b 45 f8          	mov    -0x8(%rbp),%rax
  404744:	48 89 c7             	mov    %rax,%rdi
  404747:	e8 62 ff ff ff       	callq  4046ae <_ZN10tensorflow9OperationD1Ev>
  40474c:	90                   	nop
  40474d:	c9                   	leaveq 
  40474e:	c3                   	retq   
  40474f:	90                   	nop

0000000000404750 <_ZN10tensorflow6OutputC1ERKS0_>:
  404750:	55                   	push   %rbp
  404751:	48 89 e5             	mov    %rsp,%rbp
  404754:	48 83 ec 10          	sub    $0x10,%rsp
  404758:	48 89 7d f8          	mov    %rdi,-0x8(%rbp)
  40475c:	48 89 75 f0          	mov    %rsi,-0x10(%rbp)
  404760:	48 8b 55 f0          	mov    -0x10(%rbp),%rdx
  404764:	48 8b 45 f8          	mov    -0x8(%rbp),%rax
  404768:	48 89 d6             	mov    %rdx,%rsi
  40476b:	48 89 c7             	mov    %rax,%rdi
  40476e:	e8 57 ff ff ff       	callq  4046ca <_ZN10tensorflow9OperationC1ERKS0_>
  404773:	48 8b 45 f0          	mov    -0x10(%rbp),%rax
  404777:	8b 50 20             	mov    0x20(%rax),%edx
  40477a:	48 8b 45 f8          	mov    -0x8(%rbp),%rax
  40477e:	89 50 20             	mov    %edx,0x20(%rax)
  404781:	90                   	nop
  404782:	c9                   	leaveq 
  404783:	c3                   	retq   

0000000000404784 <_ZN10tensorflow5InputC1ERKNS_6TensorE>:
  404784:	55                   	push   %rbp
  404785:	48 89 e5             	mov    %rsp,%rbp
  404788:	53                   	push   %rbx
  404789:	48 83 ec 48          	sub    $0x48,%rsp
  40478d:	48 89 7d b8          	mov    %rdi,-0x48(%rbp)
  404791:	48 89 75 b0          	mov    %rsi,-0x50(%rbp)
  404795:	64 48 8b 04 25 28 00 	mov    %fs:0x28,%rax
  40479c:	00 00 
  40479e:	48 89 45 e8          	mov    %rax,-0x18(%rbp)
  4047a2:	31 c0                	xor    %eax,%eax
  4047a4:	48 8b 45 b8          	mov    -0x48(%rbp),%rax
  4047a8:	48 89 c7             	mov    %rax,%rdi
  4047ab:	e8 45 f8 ff ff       	callq  403ff5 <_ZN10tensorflow6Status2OKEv>
  4047b0:	48 8d 45 c0          	lea    -0x40(%rbp),%rax
  4047b4:	be 00 00 00 00       	mov    $0x0,%esi
  4047b9:	48 89 c7             	mov    %rax,%rdi
  4047bc:	e8 4f e8 ff ff       	callq  403010 <_ZN10tensorflow9OperationC1EPNS_4NodeE@plt>
  4047c1:	48 8b 45 b8          	mov    -0x48(%rbp),%rax
  4047c5:	48 8d 48 08          	lea    0x8(%rax),%rcx
  4047c9:	48 8d 45 c0          	lea    -0x40(%rbp),%rax
  4047cd:	ba 00 00 00 00       	mov    $0x0,%edx
  4047d2:	48 89 c6             	mov    %rax,%rsi
  4047d5:	48 89 cf             	mov    %rcx,%rdi
  4047d8:	e8 23 ff ff ff       	callq  404700 <_ZN10tensorflow6OutputC1ERKNS_9OperationEi>
  4047dd:	48 8d 45 c0          	lea    -0x40(%rbp),%rax
  4047e1:	48 89 c7             	mov    %rax,%rdi
  4047e4:	e8 c5 fe ff ff       	callq  4046ae <_ZN10tensorflow9OperationD1Ev>
  4047e9:	48 8b 45 b8          	mov    -0x48(%rbp),%rax
  4047ed:	48 8d 50 30          	lea    0x30(%rax),%rdx
  4047f1:	48 8b 45 b0          	mov    -0x50(%rbp),%rax
  4047f5:	48 89 c6             	mov    %rax,%rsi
  4047f8:	48 89 d7             	mov    %rdx,%rdi
  4047fb:	e8 2e fe ff ff       	callq  40462e <_ZN10tensorflow6TensorC1ERKS0_>
  404800:	48 8d 45 c0          	lea    -0x40(%rbp),%rax
  404804:	48 89 c7             	mov    %rax,%rdi
  404807:	e8 64 e5 ff ff       	callq  402d70 <_ZNSaIcEC1Ev@plt>
  40480c:	48 8b 45 b8          	mov    -0x48(%rbp),%rax
  404810:	48 8d 48 50          	lea    0x50(%rax),%rcx
  404814:	48 8d 45 c0          	lea    -0x40(%rbp),%rax
  404818:	48 89 c2             	mov    %rax,%rdx
  40481b:	be e0 91 40 00       	mov    $0x4091e0,%esi
  404820:	48 89 cf             	mov    %rcx,%rdi
  404823:	e8 88 e7 ff ff       	callq  402fb0 <_ZNSt7__cxx1112basic_stringIcSt11char_traitsIcESaIcEEC1EPKcRKS3_@plt>
  404828:	48 8d 45 c0          	lea    -0x40(%rbp),%rax
  40482c:	48 89 c7             	mov    %rax,%rdi
  40482f:	e8 6c e9 ff ff       	callq  4031a0 <_ZNSaIcED1Ev@plt>
  404834:	48 8b 45 b8          	mov    -0x48(%rbp),%rax
  404838:	c7 40 70 00 00 00 00 	movl   $0x0,0x70(%rax)
  40483f:	48 8b 45 b8          	mov    -0x48(%rbp),%rax
  404843:	c7 40 74 00 00 00 00 	movl   $0x0,0x74(%rax)
  40484a:	90                   	nop
  40484b:	48 8b 45 e8          	mov    -0x18(%rbp),%rax
  40484f:	64 48 33 04 25 28 00 	xor    %fs:0x28,%rax
  404856:	00 00 
  404858:	74 68                	je     4048c2 <_ZN10tensorflow5InputC1ERKNS_6TensorE+0x13e>
  40485a:	eb 61                	jmp    4048bd <_ZN10tensorflow5InputC1ERKNS_6TensorE+0x139>
  40485c:	48 89 c3             	mov    %rax,%rbx
  40485f:	48 8d 45 c0          	lea    -0x40(%rbp),%rax
  404863:	48 89 c7             	mov    %rax,%rdi
  404866:	e8 43 fe ff ff       	callq  4046ae <_ZN10tensorflow9OperationD1Ev>
  40486b:	eb 39                	jmp    4048a6 <_ZN10tensorflow5InputC1ERKNS_6TensorE+0x122>
  40486d:	48 89 c3             	mov    %rax,%rbx
  404870:	48 8d 45 c0          	lea    -0x40(%rbp),%rax
  404874:	48 89 c7             	mov    %rax,%rdi
  404877:	e8 24 e9 ff ff       	callq  4031a0 <_ZNSaIcED1Ev@plt>
  40487c:	48 8b 45 b8          	mov    -0x48(%rbp),%rax
  404880:	48 83 c0 30          	add    $0x30,%rax
  404884:	48 89 c7             	mov    %rax,%rdi
  404887:	e8 b4 e4 ff ff       	callq  402d40 <_ZN10tensorflow6TensorD1Ev@plt>
  40488c:	eb 03                	jmp    404891 <_ZN10tensorflow5InputC1ERKNS_6TensorE+0x10d>
  40488e:	48 89 c3             	mov    %rax,%rbx
  404891:	48 8b 45 b8          	mov    -0x48(%rbp),%rax
  404895:	48 83 c0 08          	add    $0x8,%rax
  404899:	48 89 c7             	mov    %rax,%rdi
  40489c:	e8 93 fe ff ff       	callq  404734 <_ZN10tensorflow6OutputD1Ev>
  4048a1:	eb 03                	jmp    4048a6 <_ZN10tensorflow5InputC1ERKNS_6TensorE+0x122>
  4048a3:	48 89 c3             	mov    %rax,%rbx
  4048a6:	48 8b 45 b8          	mov    -0x48(%rbp),%rax
  4048aa:	48 89 c7             	mov    %rax,%rdi
  4048ad:	e8 28 f7 ff ff       	callq  403fda <_ZN10tensorflow6StatusD1Ev>
  4048b2:	48 89 d8             	mov    %rbx,%rax
  4048b5:	48 89 c7             	mov    %rax,%rdi
  4048b8:	e8 c3 e6 ff ff       	callq  402f80 <_Unwind_Resume@plt>
  4048bd:	e8 0e e4 ff ff       	callq  402cd0 <__stack_chk_fail@plt>
  4048c2:	48 83 c4 48          	add    $0x48,%rsp
  4048c6:	5b                   	pop    %rbx
  4048c7:	5d                   	pop    %rbp
  4048c8:	c3                   	retq   
  4048c9:	90                   	nop

00000000004048ca <_ZN10tensorflow5Input11InitializerD1Ev>:
  4048ca:	55                   	push   %rbp
  4048cb:	48 89 e5             	mov    %rsp,%rbp
  4048ce:	48 83 ec 10          	sub    $0x10,%rsp
  4048d2:	48 89 7d f8          	mov    %rdi,-0x8(%rbp)
  4048d6:	48 8b 45 f8          	mov    -0x8(%rbp),%rax
  4048da:	48 83 c0 08          	add    $0x8,%rax
  4048de:	48 89 c7             	mov    %rax,%rdi
  4048e1:	e8 5a e4 ff ff       	callq  402d40 <_ZN10tensorflow6TensorD1Ev@plt>
  4048e6:	48 8b 45 f8          	mov    -0x8(%rbp),%rax
  4048ea:	48 89 c7             	mov    %rax,%rdi
  4048ed:	e8 e8 f6 ff ff       	callq  403fda <_ZN10tensorflow6StatusD1Ev>
  4048f2:	90                   	nop
  4048f3:	c9                   	leaveq 
  4048f4:	c3                   	retq   
  4048f5:	90                   	nop

00000000004048f6 <_ZN10tensorflow5InputD1Ev>:
  4048f6:	55                   	push   %rbp
  4048f7:	48 89 e5             	mov    %rsp,%rbp
  4048fa:	48 83 ec 10          	sub    $0x10,%rsp
  4048fe:	48 89 7d f8          	mov    %rdi,-0x8(%rbp)
  404902:	48 8b 45 f8          	mov    -0x8(%rbp),%rax
  404906:	48 83 c0 50          	add    $0x50,%rax
  40490a:	48 89 c7             	mov    %rax,%rdi
  40490d:	e8 0e e5 ff ff       	callq  402e20 <_ZNSt7__cxx1112basic_stringIcSt11char_traitsIcESaIcEED1Ev@plt>
  404912:	48 8b 45 f8          	mov    -0x8(%rbp),%rax
  404916:	48 83 c0 30          	add    $0x30,%rax
  40491a:	48 89 c7             	mov    %rax,%rdi
  40491d:	e8 1e e4 ff ff       	callq  402d40 <_ZN10tensorflow6TensorD1Ev@plt>
  404922:	48 8b 45 f8          	mov    -0x8(%rbp),%rax
  404926:	48 83 c0 08          	add    $0x8,%rax
  40492a:	48 89 c7             	mov    %rax,%rdi
  40492d:	e8 02 fe ff ff       	callq  404734 <_ZN10tensorflow6OutputD1Ev>
  404932:	48 8b 45 f8          	mov    -0x8(%rbp),%rax
  404936:	48 89 c7             	mov    %rax,%rdi
  404939:	e8 9c f6 ff ff       	callq  403fda <_ZN10tensorflow6StatusD1Ev>
  40493e:	90                   	nop
  40493f:	c9                   	leaveq 
  404940:	c3                   	retq   
  404941:	90                   	nop

0000000000404942 <_ZNKSt16initializer_listIN10tensorflow6OutputEE5beginEv>:
  404942:	55                   	push   %rbp
  404943:	48 89 e5             	mov    %rsp,%rbp
  404946:	48 89 7d f8          	mov    %rdi,-0x8(%rbp)
  40494a:	48 8b 45 f8          	mov    -0x8(%rbp),%rax
  40494e:	48 8b 00             	mov    (%rax),%rax
  404951:	5d                   	pop    %rbp
  404952:	c3                   	retq   
  404953:	90                   	nop

0000000000404954 <_ZNKSt16initializer_listIN10tensorflow6OutputEE4sizeEv>:
  404954:	55                   	push   %rbp
  404955:	48 89 e5             	mov    %rsp,%rbp
  404958:	48 89 7d f8          	mov    %rdi,-0x8(%rbp)
  40495c:	48 8b 45 f8          	mov    -0x8(%rbp),%rax
  404960:	48 8b 40 08          	mov    0x8(%rax),%rax
  404964:	5d                   	pop    %rbp
  404965:	c3                   	retq   

0000000000404966 <_ZNKSt16initializer_listIN10tensorflow6OutputEE3endEv>:
  404966:	55                   	push   %rbp
  404967:	48 89 e5             	mov    %rsp,%rbp
  40496a:	53                   	push   %rbx
  40496b:	48 83 ec 18          	sub    $0x18,%rsp
  40496f:	48 89 7d e8          	mov    %rdi,-0x18(%rbp)
  404973:	48 8b 45 e8          	mov    -0x18(%rbp),%rax
  404977:	48 89 c7             	mov    %rax,%rdi
  40497a:	e8 c3 ff ff ff       	callq  404942 <_ZNKSt16initializer_listIN10tensorflow6OutputEE5beginEv>
  40497f:	48 89 c3             	mov    %rax,%rbx
  404982:	48 8b 45 e8          	mov    -0x18(%rbp),%rax
  404986:	48 89 c7             	mov    %rax,%rdi
  404989:	e8 c6 ff ff ff       	callq  404954 <_ZNKSt16initializer_listIN10tensorflow6OutputEE4sizeEv>
  40498e:	48 89 c2             	mov    %rax,%rdx
  404991:	48 89 d0             	mov    %rdx,%rax
  404994:	48 c1 e0 02          	shl    $0x2,%rax
  404998:	48 01 d0             	add    %rdx,%rax
  40499b:	48 c1 e0 03          	shl    $0x3,%rax
  40499f:	48 01 d8             	add    %rbx,%rax
  4049a2:	48 83 c4 18          	add    $0x18,%rsp
  4049a6:	5b                   	pop    %rbx
  4049a7:	5d                   	pop    %rbp
  4049a8:	c3                   	retq   
  4049a9:	90                   	nop

00000000004049aa <_ZNK10tensorflow13NodeExecStats9node_nameB5cxx11Ev>:
  4049aa:	55                   	push   %rbp
  4049ab:	48 89 e5             	mov    %rsp,%rbp
  4049ae:	48 83 ec 10          	sub    $0x10,%rsp
  4049b2:	48 89 7d f8          	mov    %rdi,-0x8(%rbp)
  4049b6:	48 8b 45 f8          	mov    -0x8(%rbp),%rax
  4049ba:	48 83 c0 58          	add    $0x58,%rax
  4049be:	48 89 c7             	mov    %rax,%rdi
  4049c1:	e8 40 f4 ff ff       	callq  403e06 <_ZNK6google8protobuf8internal14ArenaStringPtr3GetB5cxx11Ev>
  4049c6:	c9                   	leaveq 
  4049c7:	c3                   	retq   

00000000004049c8 <_ZNK10tensorflow13NodeExecStats18all_end_rel_microsEv>:
  4049c8:	55                   	push   %rbp
  4049c9:	48 89 e5             	mov    %rsp,%rbp
  4049cc:	48 89 7d f8          	mov    %rdi,-0x8(%rbp)
  4049d0:	48 8b 45 f8          	mov    -0x8(%rbp),%rax
  4049d4:	48 8b 80 88 00 00 00 	mov    0x88(%rax),%rax
  4049db:	5d                   	pop    %rbp
  4049dc:	c3                   	retq   
  4049dd:	90                   	nop

00000000004049de <_ZNK10tensorflow15DeviceStepStats10node_statsEv>:
  4049de:	55                   	push   %rbp
  4049df:	48 89 e5             	mov    %rsp,%rbp
  4049e2:	48 89 7d f8          	mov    %rdi,-0x8(%rbp)
  4049e6:	48 8b 45 f8          	mov    -0x8(%rbp),%rax
  4049ea:	48 83 c0 10          	add    $0x10,%rax
  4049ee:	5d                   	pop    %rbp
  4049ef:	c3                   	retq   

00000000004049f0 <_ZNK10tensorflow9StepStats9dev_statsEv>:
  4049f0:	55                   	push   %rbp
  4049f1:	48 89 e5             	mov    %rsp,%rbp
  4049f4:	48 89 7d f8          	mov    %rdi,-0x8(%rbp)
  4049f8:	48 8b 45 f8          	mov    -0x8(%rbp),%rax
  4049fc:	48 83 c0 10          	add    $0x10,%rax
  404a00:	5d                   	pop    %rbp
  404a01:	c3                   	retq   

0000000000404a02 <_ZN10tensorflow11RunMetadata25internal_default_instanceEv>:
  404a02:	55                   	push   %rbp
  404a03:	48 89 e5             	mov    %rsp,%rbp
  404a06:	b8 c0 e2 60 00       	mov    $0x60e2c0,%eax
  404a0b:	5d                   	pop    %rbp
  404a0c:	c3                   	retq   
  404a0d:	90                   	nop

0000000000404a0e <_ZN10tensorflow10RunOptions15set_trace_levelENS_21RunOptions_TraceLevelE>:
  404a0e:	55                   	push   %rbp
  404a0f:	48 89 e5             	mov    %rsp,%rbp
  404a12:	48 89 7d f8          	mov    %rdi,-0x8(%rbp)
  404a16:	89 75 f4             	mov    %esi,-0xc(%rbp)
  404a19:	48 8b 45 f8          	mov    -0x8(%rbp),%rax
  404a1d:	8b 55 f4             	mov    -0xc(%rbp),%edx
  404a20:	89 50 20             	mov    %edx,0x20(%rax)
  404a23:	90                   	nop
  404a24:	5d                   	pop    %rbp
  404a25:	c3                   	retq   

0000000000404a26 <_ZNK10tensorflow11RunMetadata14has_step_statsEv>:
  404a26:	55                   	push   %rbp
  404a27:	48 89 e5             	mov    %rsp,%rbp
  404a2a:	48 83 ec 10          	sub    $0x10,%rsp
  404a2e:	48 89 7d f8          	mov    %rdi,-0x8(%rbp)
  404a32:	e8 cb ff ff ff       	callq  404a02 <_ZN10tensorflow11RunMetadata25internal_default_instanceEv>
  404a37:	48 3b 45 f8          	cmp    -0x8(%rbp),%rax
  404a3b:	74 14                	je     404a51 <_ZNK10tensorflow11RunMetadata14has_step_statsEv+0x2b>
  404a3d:	48 8b 45 f8          	mov    -0x8(%rbp),%rax
  404a41:	48 8b 40 28          	mov    0x28(%rax),%rax
  404a45:	48 85 c0             	test   %rax,%rax
  404a48:	74 07                	je     404a51 <_ZNK10tensorflow11RunMetadata14has_step_statsEv+0x2b>
  404a4a:	b8 01 00 00 00       	mov    $0x1,%eax
  404a4f:	eb 05                	jmp    404a56 <_ZNK10tensorflow11RunMetadata14has_step_statsEv+0x30>
  404a51:	b8 00 00 00 00       	mov    $0x0,%eax
  404a56:	c9                   	leaveq 
  404a57:	c3                   	retq   

0000000000404a58 <_ZNK10tensorflow11RunMetadata10step_statsEv>:
  404a58:	55                   	push   %rbp
  404a59:	48 89 e5             	mov    %rsp,%rbp
  404a5c:	48 89 7d e8          	mov    %rdi,-0x18(%rbp)
  404a60:	48 8b 45 e8          	mov    -0x18(%rbp),%rax
  404a64:	48 8b 40 28          	mov    0x28(%rax),%rax
  404a68:	48 89 45 f8          	mov    %rax,-0x8(%rbp)
  404a6c:	48 83 7d f8 00       	cmpq   $0x0,-0x8(%rbp)
  404a71:	74 06                	je     404a79 <_ZNK10tensorflow11RunMetadata10step_statsEv+0x21>
  404a73:	48 8b 45 f8          	mov    -0x8(%rbp),%rax
  404a77:	eb 05                	jmp    404a7e <_ZNK10tensorflow11RunMetadata10step_statsEv+0x26>
  404a79:	b8 00 e3 60 00       	mov    $0x60e300,%eax
  404a7e:	5d                   	pop    %rbp
  404a7f:	c3                   	retq   

0000000000404a80 <_ZNK10tensorflow3ops7AvgPoolcvNS_6OutputEEv>:
  404a80:	55                   	push   %rbp
  404a81:	48 89 e5             	mov    %rsp,%rbp
  404a84:	48 83 ec 10          	sub    $0x10,%rsp
  404a88:	48 89 7d f8          	mov    %rdi,-0x8(%rbp)
  404a8c:	48 89 75 f0          	mov    %rsi,-0x10(%rbp)
  404a90:	48 8b 55 f0          	mov    -0x10(%rbp),%rdx
  404a94:	48 8b 45 f8          	mov    -0x8(%rbp),%rax
  404a98:	48 89 d6             	mov    %rdx,%rsi
  404a9b:	48 89 c7             	mov    %rax,%rdi
  404a9e:	e8 ad fc ff ff       	callq  404750 <_ZN10tensorflow6OutputC1ERKS0_>
  404aa3:	48 8b 45 f8          	mov    -0x8(%rbp),%rax
  404aa7:	c9                   	leaveq 
  404aa8:	c3                   	retq   
  404aa9:	90                   	nop

0000000000404aaa <_ZN10tensorflow21StatSummarizerOptionsC1Ev>:
  404aaa:	55                   	push   %rbp
  404aab:	48 89 e5             	mov    %rsp,%rbp
  404aae:	48 89 7d f8          	mov    %rdi,-0x8(%rbp)
  404ab2:	48 8b 45 f8          	mov    -0x8(%rbp),%rax
  404ab6:	c6 00 01             	movb   $0x1,(%rax)
  404ab9:	48 8b 45 f8          	mov    -0x8(%rbp),%rax
  404abd:	c7 40 04 00 00 00 00 	movl   $0x0,0x4(%rax)
  404ac4:	48 8b 45 f8          	mov    -0x8(%rbp),%rax
  404ac8:	c6 40 08 01          	movb   $0x1,0x8(%rax)
  404acc:	48 8b 45 f8          	mov    -0x8(%rbp),%rax
  404ad0:	c7 40 0c 0a 00 00 00 	movl   $0xa,0xc(%rax)
  404ad7:	48 8b 45 f8          	mov    -0x8(%rbp),%rax
  404adb:	c6 40 10 01          	movb   $0x1,0x10(%rax)
  404adf:	48 8b 45 f8          	mov    -0x8(%rbp),%rax
  404ae3:	c7 40 14 0a 00 00 00 	movl   $0xa,0x14(%rax)
  404aea:	48 8b 45 f8          	mov    -0x8(%rbp),%rax
  404aee:	c6 40 18 01          	movb   $0x1,0x18(%rax)
  404af2:	48 8b 45 f8          	mov    -0x8(%rbp),%rax
  404af6:	c6 40 19 01          	movb   $0x1,0x19(%rax)
  404afa:	90                   	nop
  404afb:	5d                   	pop    %rbp
  404afc:	c3                   	retq   
  404afd:	90                   	nop

0000000000404afe <_ZNK2CK5Shape10data_countEv>:
  404afe:	55                   	push   %rbp
  404aff:	48 89 e5             	mov    %rsp,%rbp
  404b02:	48 89 7d f8          	mov    %rdi,-0x8(%rbp)
  404b06:	48 8b 45 f8          	mov    -0x8(%rbp),%rax
  404b0a:	8b 10                	mov    (%rax),%edx
  404b0c:	48 8b 45 f8          	mov    -0x8(%rbp),%rax
  404b10:	8b 40 04             	mov    0x4(%rax),%eax
  404b13:	0f af d0             	imul   %eax,%edx
  404b16:	48 8b 45 f8          	mov    -0x8(%rbp),%rax
  404b1a:	8b 40 08             	mov    0x8(%rax),%eax
  404b1d:	0f af d0             	imul   %eax,%edx
  404b20:	48 8b 45 f8          	mov    -0x8(%rbp),%rax
  404b24:	8b 40 0c             	mov    0xc(%rax),%eax
  404b27:	0f af c2             	imul   %edx,%eax
  404b2a:	5d                   	pop    %rbp
  404b2b:	c3                   	retq   

0000000000404b2c <_ZNK2CK5Shape14get_flat_indexEiiii>:
  404b2c:	55                   	push   %rbp
  404b2d:	48 89 e5             	mov    %rsp,%rbp
  404b30:	48 83 ec 20          	sub    $0x20,%rsp
  404b34:	48 89 7d f8          	mov    %rdi,-0x8(%rbp)
  404b38:	89 75 f4             	mov    %esi,-0xc(%rbp)
  404b3b:	89 55 f0             	mov    %edx,-0x10(%rbp)
  404b3e:	89 4d ec             	mov    %ecx,-0x14(%rbp)
  404b41:	44 89 45 e8          	mov    %r8d,-0x18(%rbp)
  404b45:	8b 7d e8             	mov    -0x18(%rbp),%edi
  404b48:	8b 4d ec             	mov    -0x14(%rbp),%ecx
  404b4b:	8b 55 f0             	mov    -0x10(%rbp),%edx
  404b4e:	8b 75 f4             	mov    -0xc(%rbp),%esi
  404b51:	48 8b 45 f8          	mov    -0x8(%rbp),%rax
  404b55:	41 89 f8             	mov    %edi,%r8d
  404b58:	48 89 c7             	mov    %rax,%rdi
  404b5b:	e8 02 00 00 00       	callq  404b62 <_ZNK2CK5Shape19get_flat_index_nchwEiiii>
  404b60:	c9                   	leaveq 
  404b61:	c3                   	retq   

0000000000404b62 <_ZNK2CK5Shape19get_flat_index_nchwEiiii>:
  404b62:	55                   	push   %rbp
  404b63:	48 89 e5             	mov    %rsp,%rbp
  404b66:	48 89 7d f8          	mov    %rdi,-0x8(%rbp)
  404b6a:	89 75 f4             	mov    %esi,-0xc(%rbp)
  404b6d:	89 55 f0             	mov    %edx,-0x10(%rbp)
  404b70:	89 4d ec             	mov    %ecx,-0x14(%rbp)
  404b73:	44 89 45 e8          	mov    %r8d,-0x18(%rbp)
  404b77:	48 8b 45 f8          	mov    -0x8(%rbp),%rax
  404b7b:	8b 40 04             	mov    0x4(%rax),%eax
  404b7e:	0f af 45 f4          	imul   -0xc(%rbp),%eax
  404b82:	89 c2                	mov    %eax,%edx
  404b84:	8b 45 f0             	mov    -0x10(%rbp),%eax
  404b87:	01 c2                	add    %eax,%edx
  404b89:	48 8b 45 f8          	mov    -0x8(%rbp),%rax
  404b8d:	8b 40 08             	mov    0x8(%rax),%eax
  404b90:	0f af d0             	imul   %eax,%edx
  404b93:	8b 45 ec             	mov    -0x14(%rbp),%eax
  404b96:	01 c2                	add    %eax,%edx
  404b98:	48 8b 45 f8          	mov    -0x8(%rbp),%rax
  404b9c:	8b 40 0c             	mov    0xc(%rax),%eax
  404b9f:	0f af d0             	imul   %eax,%edx
  404ba2:	8b 45 e8             	mov    -0x18(%rbp),%eax
  404ba5:	01 d0                	add    %edx,%eax
  404ba7:	5d                   	pop    %rbp
  404ba8:	c3                   	retq   
  404ba9:	90                   	nop

0000000000404baa <_ZNK2CK5Shape19get_flat_index_nhwcEiiii>:
  404baa:	55                   	push   %rbp
  404bab:	48 89 e5             	mov    %rsp,%rbp
  404bae:	48 89 7d f8          	mov    %rdi,-0x8(%rbp)
  404bb2:	89 75 f4             	mov    %esi,-0xc(%rbp)
  404bb5:	89 55 f0             	mov    %edx,-0x10(%rbp)
  404bb8:	89 4d ec             	mov    %ecx,-0x14(%rbp)
  404bbb:	44 89 45 e8          	mov    %r8d,-0x18(%rbp)
  404bbf:	48 8b 45 f8          	mov    -0x8(%rbp),%rax
  404bc3:	8b 40 08             	mov    0x8(%rax),%eax
  404bc6:	0f af 45 f4          	imul   -0xc(%rbp),%eax
  404bca:	89 c2                	mov    %eax,%edx
  404bcc:	8b 45 f0             	mov    -0x10(%rbp),%eax
  404bcf:	01 c2                	add    %eax,%edx
  404bd1:	48 8b 45 f8          	mov    -0x8(%rbp),%rax
  404bd5:	8b 40 0c             	mov    0xc(%rax),%eax
  404bd8:	0f af d0             	imul   %eax,%edx
  404bdb:	8b 45 ec             	mov    -0x14(%rbp),%eax
  404bde:	01 c2                	add    %eax,%edx
  404be0:	48 8b 45 f8          	mov    -0x8(%rbp),%rax
  404be4:	8b 40 04             	mov    0x4(%rax),%eax
  404be7:	0f af d0             	imul   %eax,%edx
  404bea:	8b 45 e8             	mov    -0x18(%rbp),%eax
  404bed:	01 d0                	add    %edx,%eax
  404bef:	5d                   	pop    %rbp
  404bf0:	c3                   	retq   

0000000000404bf1 <_ZN2CK8getenv_iEPKci>:
  404bf1:	55                   	push   %rbp
  404bf2:	48 89 e5             	mov    %rsp,%rbp
  404bf5:	48 83 ec 10          	sub    $0x10,%rsp
  404bf9:	48 89 7d f8          	mov    %rdi,-0x8(%rbp)
  404bfd:	89 75 f4             	mov    %esi,-0xc(%rbp)
  404c00:	48 8b 45 f8          	mov    -0x8(%rbp),%rax
  404c04:	48 89 c7             	mov    %rax,%rdi
  404c07:	e8 24 e2 ff ff       	callq  402e30 <getenv@plt>
  404c0c:	48 85 c0             	test   %rax,%rax
  404c0f:	74 16                	je     404c27 <_ZN2CK8getenv_iEPKci+0x36>
  404c11:	48 8b 45 f8          	mov    -0x8(%rbp),%rax
  404c15:	48 89 c7             	mov    %rax,%rdi
  404c18:	e8 13 e2 ff ff       	callq  402e30 <getenv@plt>
  404c1d:	48 89 c7             	mov    %rax,%rdi
  404c20:	e8 db e2 ff ff       	callq  402f00 <atoi@plt>
  404c25:	eb 03                	jmp    404c2a <_ZN2CK8getenv_iEPKci+0x39>
  404c27:	8b 45 f4             	mov    -0xc(%rbp),%eax
  404c2a:	c9                   	leaveq 
  404c2b:	c3                   	retq   

0000000000404c2c <_ZN2CK13store_value_iEiPKci>:
  404c2c:	55                   	push   %rbp
  404c2d:	48 89 e5             	mov    %rsp,%rbp
  404c30:	48 83 ec 20          	sub    $0x20,%rsp
  404c34:	89 7d ec             	mov    %edi,-0x14(%rbp)
  404c37:	48 89 75 e0          	mov    %rsi,-0x20(%rbp)
  404c3b:	89 55 e8             	mov    %edx,-0x18(%rbp)
  404c3e:	48 8b 45 e0          	mov    -0x20(%rbp),%rax
  404c42:	48 89 c7             	mov    %rax,%rdi
  404c45:	e8 e6 e2 ff ff       	callq  402f30 <strlen@plt>
  404c4a:	48 83 c0 06          	add    $0x6,%rax
  404c4e:	48 89 c7             	mov    %rax,%rdi
  404c51:	e8 6a e4 ff ff       	callq  4030c0 <_Znam@plt>
  404c56:	48 89 45 f8          	mov    %rax,-0x8(%rbp)
  404c5a:	48 8b 55 e0          	mov    -0x20(%rbp),%rdx
  404c5e:	48 8b 45 f8          	mov    -0x8(%rbp),%rax
  404c62:	be 20 92 40 00       	mov    $0x409220,%esi
  404c67:	48 89 c7             	mov    %rax,%rdi
  404c6a:	b8 00 00 00 00       	mov    $0x0,%eax
  404c6f:	e8 0c e1 ff ff       	callq  402d80 <sprintf@plt>
  404c74:	8b 55 e8             	mov    -0x18(%rbp),%edx
  404c77:	48 8b 4d f8          	mov    -0x8(%rbp),%rcx
  404c7b:	8b 45 ec             	mov    -0x14(%rbp),%eax
  404c7e:	48 89 ce             	mov    %rcx,%rsi
  404c81:	89 c7                	mov    %eax,%edi
  404c83:	e8 b8 e2 ff ff       	callq  402f40 <xopenme_add_var_i@plt>
  404c88:	48 83 7d f8 00       	cmpq   $0x0,-0x8(%rbp)
  404c8d:	74 0c                	je     404c9b <_ZN2CK13store_value_iEiPKci+0x6f>
  404c8f:	48 8b 45 f8          	mov    -0x8(%rbp),%rax
  404c93:	48 89 c7             	mov    %rax,%rdi
  404c96:	e8 75 e2 ff ff       	callq  402f10 <_ZdaPv@plt>
  404c9b:	90                   	nop
  404c9c:	c9                   	leaveq 
  404c9d:	c3                   	retq   

0000000000404c9e <_ZN2CK13store_value_fEiPKcf>:
  404c9e:	55                   	push   %rbp
  404c9f:	48 89 e5             	mov    %rsp,%rbp
  404ca2:	48 83 ec 30          	sub    $0x30,%rsp
  404ca6:	89 7d ec             	mov    %edi,-0x14(%rbp)
  404ca9:	48 89 75 e0          	mov    %rsi,-0x20(%rbp)
  404cad:	f3 0f 11 45 e8       	movss  %xmm0,-0x18(%rbp)
  404cb2:	48 8b 45 e0          	mov    -0x20(%rbp),%rax
  404cb6:	48 89 c7             	mov    %rax,%rdi
  404cb9:	e8 72 e2 ff ff       	callq  402f30 <strlen@plt>
  404cbe:	48 83 c0 06          	add    $0x6,%rax
  404cc2:	48 89 c7             	mov    %rax,%rdi
  404cc5:	e8 f6 e3 ff ff       	callq  4030c0 <_Znam@plt>
  404cca:	48 89 45 f8          	mov    %rax,-0x8(%rbp)
  404cce:	48 8b 55 e0          	mov    -0x20(%rbp),%rdx
  404cd2:	48 8b 45 f8          	mov    -0x8(%rbp),%rax
  404cd6:	be 29 92 40 00       	mov    $0x409229,%esi
  404cdb:	48 89 c7             	mov    %rax,%rdi
  404cde:	b8 00 00 00 00       	mov    $0x0,%eax
  404ce3:	e8 98 e0 ff ff       	callq  402d80 <sprintf@plt>
  404ce8:	8b 4d e8             	mov    -0x18(%rbp),%ecx
  404ceb:	48 8b 55 f8          	mov    -0x8(%rbp),%rdx
  404cef:	8b 45 ec             	mov    -0x14(%rbp),%eax
  404cf2:	89 4d dc             	mov    %ecx,-0x24(%rbp)
  404cf5:	f3 0f 10 45 dc       	movss  -0x24(%rbp),%xmm0
  404cfa:	48 89 d6             	mov    %rdx,%rsi
  404cfd:	89 c7                	mov    %eax,%edi
  404cff:	e8 1c e3 ff ff       	callq  403020 <xopenme_add_var_f@plt>
  404d04:	48 83 7d f8 00       	cmpq   $0x0,-0x8(%rbp)
  404d09:	74 0c                	je     404d17 <_ZN2CK13store_value_fEiPKcf+0x79>
  404d0b:	48 8b 45 f8          	mov    -0x8(%rbp),%rax
  404d0f:	48 89 c7             	mov    %rax,%rdi
  404d12:	e8 f9 e1 ff ff       	callq  402f10 <_ZdaPv@plt>
  404d17:	90                   	nop
  404d18:	c9                   	leaveq 
  404d19:	c3                   	retq   

0000000000404d1a <_ZN2CK24get_input_shape_from_envEiiii>:
  404d1a:	55                   	push   %rbp
  404d1b:	48 89 e5             	mov    %rsp,%rbp
  404d1e:	48 83 ec 30          	sub    $0x30,%rsp
  404d22:	89 7d dc             	mov    %edi,-0x24(%rbp)
  404d25:	89 75 d8             	mov    %esi,-0x28(%rbp)
  404d28:	89 55 d4             	mov    %edx,-0x2c(%rbp)
  404d2b:	89 4d d0             	mov    %ecx,-0x30(%rbp)
  404d2e:	64 48 8b 04 25 28 00 	mov    %fs:0x28,%rax
  404d35:	00 00 
  404d37:	48 89 45 f8          	mov    %rax,-0x8(%rbp)
  404d3b:	31 c0                	xor    %eax,%eax
  404d3d:	c7 45 e0 01 00 00 00 	movl   $0x1,-0x20(%rbp)
  404d44:	c7 45 e4 01 00 00 00 	movl   $0x1,-0x1c(%rbp)
  404d4b:	c7 45 e8 01 00 00 00 	movl   $0x1,-0x18(%rbp)
  404d52:	c7 45 ec 01 00 00 00 	movl   $0x1,-0x14(%rbp)
  404d59:	8b 45 dc             	mov    -0x24(%rbp),%eax
  404d5c:	89 c6                	mov    %eax,%esi
  404d5e:	bf 32 92 40 00       	mov    $0x409232,%edi
  404d63:	e8 89 fe ff ff       	callq  404bf1 <_ZN2CK8getenv_iEPKci>
  404d68:	89 45 e0             	mov    %eax,-0x20(%rbp)
  404d6b:	8b 45 d8             	mov    -0x28(%rbp),%eax
  404d6e:	89 c6                	mov    %eax,%esi
  404d70:	bf 40 92 40 00       	mov    $0x409240,%edi
  404d75:	e8 77 fe ff ff       	callq  404bf1 <_ZN2CK8getenv_iEPKci>
  404d7a:	89 45 e4             	mov    %eax,-0x1c(%rbp)
  404d7d:	8b 45 d4             	mov    -0x2c(%rbp),%eax
  404d80:	89 c6                	mov    %eax,%esi
  404d82:	bf 4e 92 40 00       	mov    $0x40924e,%edi
  404d87:	e8 65 fe ff ff       	callq  404bf1 <_ZN2CK8getenv_iEPKci>
  404d8c:	89 45 e8             	mov    %eax,-0x18(%rbp)
  404d8f:	8b 45 d0             	mov    -0x30(%rbp),%eax
  404d92:	89 c6                	mov    %eax,%esi
  404d94:	bf 5c 92 40 00       	mov    $0x40925c,%edi
  404d99:	e8 53 fe ff ff       	callq  404bf1 <_ZN2CK8getenv_iEPKci>
  404d9e:	89 45 ec             	mov    %eax,-0x14(%rbp)
  404da1:	8b 45 e0             	mov    -0x20(%rbp),%eax
  404da4:	89 c2                	mov    %eax,%edx
  404da6:	be 6a 92 40 00       	mov    $0x40926a,%esi
  404dab:	bf 04 00 00 00       	mov    $0x4,%edi
  404db0:	e8 77 fe ff ff       	callq  404c2c <_ZN2CK13store_value_iEiPKci>
  404db5:	8b 45 e4             	mov    -0x1c(%rbp),%eax
  404db8:	89 c2                	mov    %eax,%edx
  404dba:	be 75 92 40 00       	mov    $0x409275,%esi
  404dbf:	bf 05 00 00 00       	mov    $0x5,%edi
  404dc4:	e8 63 fe ff ff       	callq  404c2c <_ZN2CK13store_value_iEiPKci>
  404dc9:	8b 45 e8             	mov    -0x18(%rbp),%eax
  404dcc:	89 c2                	mov    %eax,%edx
  404dce:	be 80 92 40 00       	mov    $0x409280,%esi
  404dd3:	bf 06 00 00 00       	mov    $0x6,%edi
  404dd8:	e8 4f fe ff ff       	callq  404c2c <_ZN2CK13store_value_iEiPKci>
  404ddd:	8b 45 ec             	mov    -0x14(%rbp),%eax
  404de0:	89 c2                	mov    %eax,%edx
  404de2:	be 8b 92 40 00       	mov    $0x40928b,%esi
  404de7:	bf 07 00 00 00       	mov    $0x7,%edi
  404dec:	e8 3b fe ff ff       	callq  404c2c <_ZN2CK13store_value_iEiPKci>
  404df1:	8b 75 ec             	mov    -0x14(%rbp),%esi
  404df4:	8b 4d e8             	mov    -0x18(%rbp),%ecx
  404df7:	8b 55 e4             	mov    -0x1c(%rbp),%edx
  404dfa:	8b 45 e0             	mov    -0x20(%rbp),%eax
  404dfd:	41 89 f0             	mov    %esi,%r8d
  404e00:	89 c6                	mov    %eax,%esi
  404e02:	bf 98 92 40 00       	mov    $0x409298,%edi
  404e07:	b8 00 00 00 00       	mov    $0x0,%eax
  404e0c:	e8 9f df ff ff       	callq  402db0 <printf@plt>
  404e11:	48 8b 45 e0          	mov    -0x20(%rbp),%rax
  404e15:	48 8b 55 e8          	mov    -0x18(%rbp),%rdx
  404e19:	48 8b 4d f8          	mov    -0x8(%rbp),%rcx
  404e1d:	64 48 33 0c 25 28 00 	xor    %fs:0x28,%rcx
  404e24:	00 00 
  404e26:	74 05                	je     404e2d <_ZN2CK24get_input_shape_from_envEiiii+0x113>
  404e28:	e8 a3 de ff ff       	callq  402cd0 <__stack_chk_fail@plt>
  404e2d:	c9                   	leaveq 
  404e2e:	c3                   	retq   

0000000000404e2f <_ZN2CK9init_testEv>:
  404e2f:	55                   	push   %rbp
  404e30:	48 89 e5             	mov    %rsp,%rbp
  404e33:	48 83 ec 10          	sub    $0x10,%rsp
  404e37:	be 0c 00 00 00       	mov    $0xc,%esi
  404e3c:	bf 02 00 00 00       	mov    $0x2,%edi
  404e41:	e8 9a e0 ff ff       	callq  402ee0 <xopenme_init@plt>
  404e46:	be 2a 00 00 00       	mov    $0x2a,%esi
  404e4b:	bf cf 92 40 00       	mov    $0x4092cf,%edi
  404e50:	e8 9c fd ff ff       	callq  404bf1 <_ZN2CK8getenv_iEPKci>
  404e55:	89 45 fc             	mov    %eax,-0x4(%rbp)
  404e58:	8b 45 fc             	mov    -0x4(%rbp),%eax
  404e5b:	89 c2                	mov    %eax,%edx
  404e5d:	be d7 92 40 00       	mov    $0x4092d7,%esi
  404e62:	bf 08 00 00 00       	mov    $0x8,%edi
  404e67:	e8 c0 fd ff ff       	callq  404c2c <_ZN2CK13store_value_iEiPKci>
  404e6c:	8b 45 fc             	mov    -0x4(%rbp),%eax
  404e6f:	89 c7                	mov    %eax,%edi
  404e71:	e8 2a e0 ff ff       	callq  402ea0 <srand@plt>
  404e76:	90                   	nop
  404e77:	c9                   	leaveq 
  404e78:	c3                   	retq   

0000000000404e79 <_ZN2CK11finish_testEv>:
  404e79:	55                   	push   %rbp
  404e7a:	48 89 e5             	mov    %rsp,%rbp
  404e7d:	bf 00 00 00 00       	mov    $0x0,%edi
  404e82:	e8 49 e2 ff ff       	callq  4030d0 <xopenme_get_timer@plt>
  404e87:	be 00 00 00 00       	mov    $0x0,%esi
  404e8c:	bf e0 92 40 00       	mov    $0x4092e0,%edi
  404e91:	b8 01 00 00 00       	mov    $0x1,%eax
  404e96:	e8 15 df ff ff       	callq  402db0 <printf@plt>
  404e9b:	bf 01 00 00 00       	mov    $0x1,%edi
  404ea0:	e8 2b e2 ff ff       	callq  4030d0 <xopenme_get_timer@plt>
  404ea5:	be 01 00 00 00       	mov    $0x1,%esi
  404eaa:	bf f4 92 40 00       	mov    $0x4092f4,%edi
  404eaf:	b8 01 00 00 00       	mov    $0x1,%eax
  404eb4:	e8 f7 de ff ff       	callq  402db0 <printf@plt>
  404eb9:	e8 42 e1 ff ff       	callq  403000 <xopenme_dump_state@plt>
  404ebe:	e8 ed df ff ff       	callq  402eb0 <xopenme_finish@plt>
  404ec3:	90                   	nop
  404ec4:	5d                   	pop    %rbp
  404ec5:	c3                   	retq   

0000000000404ec6 <_ZN2CK2TF16get_node_time_msERKN10tensorflow9StepStatsEPKc>:
  404ec6:	55                   	push   %rbp
  404ec7:	48 89 e5             	mov    %rsp,%rbp
  404eca:	48 83 ec 60          	sub    $0x60,%rsp
  404ece:	48 89 7d a8          	mov    %rdi,-0x58(%rbp)
  404ed2:	48 89 75 a0          	mov    %rsi,-0x60(%rbp)
  404ed6:	64 48 8b 04 25 28 00 	mov    %fs:0x28,%rax
  404edd:	00 00 
  404edf:	48 89 45 f8          	mov    %rax,-0x8(%rbp)
  404ee3:	31 c0                	xor    %eax,%eax
  404ee5:	48 c7 45 d0 00 00 00 	movq   $0x0,-0x30(%rbp)
  404eec:	00 
  404eed:	48 8b 45 a8          	mov    -0x58(%rbp),%rax
  404ef1:	48 89 c7             	mov    %rax,%rdi
  404ef4:	e8 f7 fa ff ff       	callq  4049f0 <_ZNK10tensorflow9StepStats9dev_statsEv>
  404ef9:	48 89 45 d8          	mov    %rax,-0x28(%rbp)
  404efd:	48 8b 45 d8          	mov    -0x28(%rbp),%rax
  404f01:	48 89 c7             	mov    %rax,%rdi
  404f04:	e8 bd 0d 00 00       	callq  405cc6 <_ZNK6google8protobuf16RepeatedPtrFieldIN10tensorflow15DeviceStepStatsEE5beginEv>
  404f09:	48 89 45 b0          	mov    %rax,-0x50(%rbp)
  404f0d:	48 8b 45 d8          	mov    -0x28(%rbp),%rax
  404f11:	48 89 c7             	mov    %rax,%rdi
  404f14:	e8 13 0e 00 00       	callq  405d2c <_ZNK6google8protobuf16RepeatedPtrFieldIN10tensorflow15DeviceStepStatsEE3endEv>
  404f19:	48 89 45 b8          	mov    %rax,-0x48(%rbp)
  404f1d:	48 8d 55 b8          	lea    -0x48(%rbp),%rdx
  404f21:	48 8d 45 b0          	lea    -0x50(%rbp),%rax
  404f25:	48 89 d6             	mov    %rdx,%rsi
  404f28:	48 89 c7             	mov    %rax,%rdi
  404f2b:	e8 7e 0e 00 00       	callq  405dae <_ZNK6google8protobuf8internal19RepeatedPtrIteratorIKN10tensorflow15DeviceStepStatsEEneERKS6_>
  404f30:	84 c0                	test   %al,%al
  404f32:	0f 84 c4 00 00 00    	je     404ffc <_ZN2CK2TF16get_node_time_msERKN10tensorflow9StepStatsEPKc+0x136>
  404f38:	48 8d 45 b0          	lea    -0x50(%rbp),%rax
  404f3c:	48 89 c7             	mov    %rax,%rdi
  404f3f:	e8 ac 0e 00 00       	callq  405df0 <_ZNK6google8protobuf8internal19RepeatedPtrIteratorIKN10tensorflow15DeviceStepStatsEEdeEv>
  404f44:	48 89 45 e0          	mov    %rax,-0x20(%rbp)
  404f48:	48 8b 45 e0          	mov    -0x20(%rbp),%rax
  404f4c:	48 89 c7             	mov    %rax,%rdi
  404f4f:	e8 8a fa ff ff       	callq  4049de <_ZNK10tensorflow15DeviceStepStats10node_statsEv>
  404f54:	48 89 45 e8          	mov    %rax,-0x18(%rbp)
  404f58:	48 8b 45 e8          	mov    -0x18(%rbp),%rax
  404f5c:	48 89 c7             	mov    %rax,%rdi
  404f5f:	e8 a0 0e 00 00       	callq  405e04 <_ZNK6google8protobuf16RepeatedPtrFieldIN10tensorflow13NodeExecStatsEE5beginEv>
  404f64:	48 89 45 c0          	mov    %rax,-0x40(%rbp)
  404f68:	48 8b 45 e8          	mov    -0x18(%rbp),%rax
  404f6c:	48 89 c7             	mov    %rax,%rdi
  404f6f:	e8 f6 0e 00 00       	callq  405e6a <_ZNK6google8protobuf16RepeatedPtrFieldIN10tensorflow13NodeExecStatsEE3endEv>
  404f74:	48 89 45 c8          	mov    %rax,-0x38(%rbp)
  404f78:	48 8d 55 c8          	lea    -0x38(%rbp),%rdx
  404f7c:	48 8d 45 c0          	lea    -0x40(%rbp),%rax
  404f80:	48 89 d6             	mov    %rdx,%rsi
  404f83:	48 89 c7             	mov    %rax,%rdi
  404f86:	e8 61 0f 00 00       	callq  405eec <_ZNK6google8protobuf8internal19RepeatedPtrIteratorIKN10tensorflow13NodeExecStatsEEneERKS6_>
  404f8b:	84 c0                	test   %al,%al
  404f8d:	74 5c                	je     404feb <_ZN2CK2TF16get_node_time_msERKN10tensorflow9StepStatsEPKc+0x125>
  404f8f:	48 8d 45 c0          	lea    -0x40(%rbp),%rax
  404f93:	48 89 c7             	mov    %rax,%rdi
  404f96:	e8 93 0f 00 00       	callq  405f2e <_ZNK6google8protobuf8internal19RepeatedPtrIteratorIKN10tensorflow13NodeExecStatsEEdeEv>
  404f9b:	48 89 45 f0          	mov    %rax,-0x10(%rbp)
  404f9f:	48 8b 45 f0          	mov    -0x10(%rbp),%rax
  404fa3:	48 89 c7             	mov    %rax,%rdi
  404fa6:	e8 ff f9 ff ff       	callq  4049aa <_ZNK10tensorflow13NodeExecStats9node_nameB5cxx11Ev>
  404fab:	48 89 c1             	mov    %rax,%rcx
  404fae:	48 8b 45 a0          	mov    -0x60(%rbp),%rax
  404fb2:	ba 00 00 00 00       	mov    $0x0,%edx
  404fb7:	48 89 c6             	mov    %rax,%rsi
  404fba:	48 89 cf             	mov    %rcx,%rdi
  404fbd:	e8 0e df ff ff       	callq  402ed0 <_ZNKSt7__cxx1112basic_stringIcSt11char_traitsIcESaIcEE4findEPKcm@plt>
  404fc2:	48 83 f8 ff          	cmp    $0xffffffffffffffff,%rax
  404fc6:	0f 95 c0             	setne  %al
  404fc9:	84 c0                	test   %al,%al
  404fcb:	74 10                	je     404fdd <_ZN2CK2TF16get_node_time_msERKN10tensorflow9StepStatsEPKc+0x117>
  404fcd:	48 8b 45 f0          	mov    -0x10(%rbp),%rax
  404fd1:	48 89 c7             	mov    %rax,%rdi
  404fd4:	e8 ef f9 ff ff       	callq  4049c8 <_ZNK10tensorflow13NodeExecStats18all_end_rel_microsEv>
  404fd9:	48 01 45 d0          	add    %rax,-0x30(%rbp)
  404fdd:	48 8d 45 c0          	lea    -0x40(%rbp),%rax
  404fe1:	48 89 c7             	mov    %rax,%rdi
  404fe4:	e8 25 0f 00 00       	callq  405f0e <_ZN6google8protobuf8internal19RepeatedPtrIteratorIKN10tensorflow13NodeExecStatsEEppEv>
  404fe9:	eb 8d                	jmp    404f78 <_ZN2CK2TF16get_node_time_msERKN10tensorflow9StepStatsEPKc+0xb2>
  404feb:	48 8d 45 b0          	lea    -0x50(%rbp),%rax
  404fef:	48 89 c7             	mov    %rax,%rdi
  404ff2:	e8 d9 0d 00 00       	callq  405dd0 <_ZN6google8protobuf8internal19RepeatedPtrIteratorIKN10tensorflow15DeviceStepStatsEEppEv>
  404ff7:	e9 21 ff ff ff       	jmpq   404f1d <_ZN2CK2TF16get_node_time_msERKN10tensorflow9StepStatsEPKc+0x57>
  404ffc:	66 0f ef c0          	pxor   %xmm0,%xmm0
  405000:	f3 48 0f 2a 45 d0    	cvtsi2ssq -0x30(%rbp),%xmm0
  405006:	f3 0f 10 0d fe 46 00 	movss  0x46fe(%rip),%xmm1        # 40970c <_ZZN2CK2TF16process_metadataERKN10tensorflow11RunMetadataEPKcE19__PRETTY_FUNCTION__+0x4c>
  40500d:	00 
  40500e:	f3 0f 5e c1          	divss  %xmm1,%xmm0
  405012:	48 8b 45 f8          	mov    -0x8(%rbp),%rax
  405016:	64 48 33 04 25 28 00 	xor    %fs:0x28,%rax
  40501d:	00 00 
  40501f:	74 05                	je     405026 <_ZN2CK2TF16get_node_time_msERKN10tensorflow9StepStatsEPKc+0x160>
  405021:	e8 aa dc ff ff       	callq  402cd0 <__stack_chk_fail@plt>
  405026:	c9                   	leaveq 
  405027:	c3                   	retq   

0000000000405028 <_ZN2CK2TF14print_all_statERKN10tensorflow9StepStatsE>:
  405028:	55                   	push   %rbp
  405029:	48 89 e5             	mov    %rsp,%rbp
  40502c:	53                   	push   %rbx
  40502d:	48 81 ec 08 01 00 00 	sub    $0x108,%rsp
  405034:	48 89 bd f8 fe ff ff 	mov    %rdi,-0x108(%rbp)
  40503b:	64 48 8b 04 25 28 00 	mov    %fs:0x28,%rax
  405042:	00 00 
  405044:	48 89 45 e8          	mov    %rax,-0x18(%rbp)
  405048:	31 c0                	xor    %eax,%eax
  40504a:	48 8d 85 00 ff ff ff 	lea    -0x100(%rbp),%rax
  405051:	48 89 c7             	mov    %rax,%rdi
  405054:	e8 51 fa ff ff       	callq  404aaa <_ZN10tensorflow21StatSummarizerOptionsC1Ev>
  405059:	48 8d 95 00 ff ff ff 	lea    -0x100(%rbp),%rdx
  405060:	48 8d 85 20 ff ff ff 	lea    -0xe0(%rbp),%rax
  405067:	48 89 d6             	mov    %rdx,%rsi
  40506a:	48 89 c7             	mov    %rax,%rdi
  40506d:	e8 1e e1 ff ff       	callq  403190 <_ZN10tensorflow14StatSummarizerC1ERKNS_21StatSummarizerOptionsE@plt>
  405072:	48 8b 95 f8 fe ff ff 	mov    -0x108(%rbp),%rdx
  405079:	48 8d 85 20 ff ff ff 	lea    -0xe0(%rbp),%rax
  405080:	48 89 d6             	mov    %rdx,%rsi
  405083:	48 89 c7             	mov    %rax,%rdi
  405086:	e8 75 e0 ff ff       	callq  403100 <_ZN10tensorflow14StatSummarizer16ProcessStepStatsERKNS_9StepStatsE@plt>
  40508b:	48 8d 85 20 ff ff ff 	lea    -0xe0(%rbp),%rax
  405092:	48 89 c7             	mov    %rax,%rdi
  405095:	e8 d6 df ff ff       	callq  403070 <_ZNK10tensorflow14StatSummarizer14PrintStepStatsEv@plt>
  40509a:	48 8d 85 20 ff ff ff 	lea    -0xe0(%rbp),%rax
  4050a1:	48 89 c7             	mov    %rax,%rdi
  4050a4:	e8 a7 dd ff ff       	callq  402e50 <_ZN10tensorflow14StatSummarizerD1Ev@plt>
  4050a9:	90                   	nop
  4050aa:	48 8b 45 e8          	mov    -0x18(%rbp),%rax
  4050ae:	64 48 33 04 25 28 00 	xor    %fs:0x28,%rax
  4050b5:	00 00 
  4050b7:	74 24                	je     4050dd <_ZN2CK2TF14print_all_statERKN10tensorflow9StepStatsE+0xb5>
  4050b9:	eb 1d                	jmp    4050d8 <_ZN2CK2TF14print_all_statERKN10tensorflow9StepStatsE+0xb0>
  4050bb:	48 89 c3             	mov    %rax,%rbx
  4050be:	48 8d 85 20 ff ff ff 	lea    -0xe0(%rbp),%rax
  4050c5:	48 89 c7             	mov    %rax,%rdi
  4050c8:	e8 83 dd ff ff       	callq  402e50 <_ZN10tensorflow14StatSummarizerD1Ev@plt>
  4050cd:	48 89 d8             	mov    %rbx,%rax
  4050d0:	48 89 c7             	mov    %rax,%rdi
  4050d3:	e8 a8 de ff ff       	callq  402f80 <_Unwind_Resume@plt>
  4050d8:	e8 f3 db ff ff       	callq  402cd0 <__stack_chk_fail@plt>
  4050dd:	48 81 c4 08 01 00 00 	add    $0x108,%rsp
  4050e4:	5b                   	pop    %rbx
  4050e5:	5d                   	pop    %rbp
  4050e6:	c3                   	retq   

00000000004050e7 <_ZN2CK2TF22get_padding_scheme_strEi>:
  4050e7:	55                   	push   %rbp
  4050e8:	48 89 e5             	mov    %rsp,%rbp
  4050eb:	48 83 ec 10          	sub    $0x10,%rsp
  4050ef:	89 7d fc             	mov    %edi,-0x4(%rbp)
  4050f2:	83 7d fc 01          	cmpl   $0x1,-0x4(%rbp)
  4050f6:	74 1f                	je     405117 <_ZN2CK2TF22get_padding_scheme_strEi+0x30>
  4050f8:	83 7d fc 02          	cmpl   $0x2,-0x4(%rbp)
  4050fc:	74 19                	je     405117 <_ZN2CK2TF22get_padding_scheme_strEi+0x30>
  4050fe:	b9 80 96 40 00       	mov    $0x409680,%ecx
  405103:	ba 2e 00 00 00       	mov    $0x2e,%edx
  405108:	be 20 93 40 00       	mov    $0x409320,%esi
  40510d:	bf 80 93 40 00       	mov    $0x409380,%edi
  405112:	e8 a9 db ff ff       	callq  402cc0 <__assert_fail@plt>
  405117:	83 7d fc 01          	cmpl   $0x1,-0x4(%rbp)
  40511b:	75 07                	jne    405124 <_ZN2CK2TF22get_padding_scheme_strEi+0x3d>
  40511d:	b8 c0 93 40 00       	mov    $0x4093c0,%eax
  405122:	eb 05                	jmp    405129 <_ZN2CK2TF22get_padding_scheme_strEi+0x42>
  405124:	b8 c5 93 40 00       	mov    $0x4093c5,%eax
  405129:	c9                   	leaveq 
  40512a:	c3                   	retq   

000000000040512b <_ZN2CK2TF16get_tensor_shapeERKN10tensorflow6TensorE>:
  40512b:	55                   	push   %rbp
  40512c:	48 89 e5             	mov    %rsp,%rbp
  40512f:	48 83 ec 30          	sub    $0x30,%rsp
  405133:	48 89 7d d8          	mov    %rdi,-0x28(%rbp)
  405137:	64 48 8b 04 25 28 00 	mov    %fs:0x28,%rax
  40513e:	00 00 
  405140:	48 89 45 f8          	mov    %rax,-0x8(%rbp)
  405144:	31 c0                	xor    %eax,%eax
  405146:	c7 45 e0 01 00 00 00 	movl   $0x1,-0x20(%rbp)
  40514d:	c7 45 e4 01 00 00 00 	movl   $0x1,-0x1c(%rbp)
  405154:	c7 45 e8 01 00 00 00 	movl   $0x1,-0x18(%rbp)
  40515b:	c7 45 ec 01 00 00 00 	movl   $0x1,-0x14(%rbp)
  405162:	48 8b 45 d8          	mov    -0x28(%rbp),%rax
  405166:	48 89 c7             	mov    %rax,%rdi
  405169:	e8 e0 f3 ff ff       	callq  40454e <_ZNK10tensorflow6Tensor5shapeEv>
  40516e:	be 00 00 00 00       	mov    $0x0,%esi
  405173:	48 89 c7             	mov    %rax,%rdi
  405176:	e8 c5 dc ff ff       	callq  402e40 <_ZNK10tensorflow15TensorShapeBaseINS_11TensorShapeEE8dim_sizeEi@plt>
  40517b:	89 45 e0             	mov    %eax,-0x20(%rbp)
  40517e:	48 8b 45 d8          	mov    -0x28(%rbp),%rax
  405182:	48 89 c7             	mov    %rax,%rdi
  405185:	e8 c4 f3 ff ff       	callq  40454e <_ZNK10tensorflow6Tensor5shapeEv>
  40518a:	be 01 00 00 00       	mov    $0x1,%esi
  40518f:	48 89 c7             	mov    %rax,%rdi
  405192:	e8 a9 dc ff ff       	callq  402e40 <_ZNK10tensorflow15TensorShapeBaseINS_11TensorShapeEE8dim_sizeEi@plt>
  405197:	89 45 e8             	mov    %eax,-0x18(%rbp)
  40519a:	48 8b 45 d8          	mov    -0x28(%rbp),%rax
  40519e:	48 89 c7             	mov    %rax,%rdi
  4051a1:	e8 a8 f3 ff ff       	callq  40454e <_ZNK10tensorflow6Tensor5shapeEv>
  4051a6:	be 02 00 00 00       	mov    $0x2,%esi
  4051ab:	48 89 c7             	mov    %rax,%rdi
  4051ae:	e8 8d dc ff ff       	callq  402e40 <_ZNK10tensorflow15TensorShapeBaseINS_11TensorShapeEE8dim_sizeEi@plt>
  4051b3:	89 45 ec             	mov    %eax,-0x14(%rbp)
  4051b6:	48 8b 45 d8          	mov    -0x28(%rbp),%rax
  4051ba:	48 89 c7             	mov    %rax,%rdi
  4051bd:	e8 8c f3 ff ff       	callq  40454e <_ZNK10tensorflow6Tensor5shapeEv>
  4051c2:	be 03 00 00 00       	mov    $0x3,%esi
  4051c7:	48 89 c7             	mov    %rax,%rdi
  4051ca:	e8 71 dc ff ff       	callq  402e40 <_ZNK10tensorflow15TensorShapeBaseINS_11TensorShapeEE8dim_sizeEi@plt>
  4051cf:	89 45 e4             	mov    %eax,-0x1c(%rbp)
  4051d2:	48 8b 45 e0          	mov    -0x20(%rbp),%rax
  4051d6:	48 8b 55 e8          	mov    -0x18(%rbp),%rdx
  4051da:	48 8b 4d f8          	mov    -0x8(%rbp),%rcx
  4051de:	64 48 33 0c 25 28 00 	xor    %fs:0x28,%rcx
  4051e5:	00 00 
  4051e7:	74 05                	je     4051ee <_ZN2CK2TF16get_tensor_shapeERKN10tensorflow6TensorE+0xc3>
  4051e9:	e8 e2 da ff ff       	callq  402cd0 <__stack_chk_fail@plt>
  4051ee:	c9                   	leaveq 
  4051ef:	c3                   	retq   

00000000004051f0 <_ZN10tensorflow11TensorShapeC1ESt16initializer_listIxE>:
  4051f0:	55                   	push   %rbp
  4051f1:	48 89 e5             	mov    %rsp,%rbp
  4051f4:	48 83 ec 20          	sub    $0x20,%rsp
  4051f8:	48 89 7d f8          	mov    %rdi,-0x8(%rbp)
  4051fc:	48 89 f0             	mov    %rsi,%rax
  4051ff:	48 89 d1             	mov    %rdx,%rcx
  405202:	48 89 ca             	mov    %rcx,%rdx
  405205:	48 89 45 e0          	mov    %rax,-0x20(%rbp)
  405209:	48 89 55 e8          	mov    %rdx,-0x18(%rbp)
  40520d:	48 8b 45 f8          	mov    -0x8(%rbp),%rax
  405211:	48 8b 4d e0          	mov    -0x20(%rbp),%rcx
  405215:	48 8b 55 e8          	mov    -0x18(%rbp),%rdx
  405219:	48 89 ce             	mov    %rcx,%rsi
  40521c:	48 89 c7             	mov    %rax,%rdi
  40521f:	e8 fc da ff ff       	callq  402d20 <_ZN10tensorflow15TensorShapeBaseINS_11TensorShapeEEC2ESt16initializer_listIxE@plt>
  405224:	90                   	nop
  405225:	c9                   	leaveq 
  405226:	c3                   	retq   

0000000000405227 <_ZN2CK2TF16get_tensor_shapeERKNS_5ShapeE>:
  405227:	55                   	push   %rbp
  405228:	48 89 e5             	mov    %rsp,%rbp
  40522b:	53                   	push   %rbx
  40522c:	48 83 ec 48          	sub    $0x48,%rsp
  405230:	48 89 7d b8          	mov    %rdi,-0x48(%rbp)
  405234:	48 89 75 b0          	mov    %rsi,-0x50(%rbp)
  405238:	64 48 8b 1c 25 28 00 	mov    %fs:0x28,%rbx
  40523f:	00 00 
  405241:	48 89 5d e8          	mov    %rbx,-0x18(%rbp)
  405245:	31 db                	xor    %ebx,%ebx
  405247:	48 8b 4d b0          	mov    -0x50(%rbp),%rcx
  40524b:	8b 09                	mov    (%rcx),%ecx
  40524d:	48 63 c9             	movslq %ecx,%rcx
  405250:	48 89 4d c0          	mov    %rcx,-0x40(%rbp)
  405254:	48 8b 4d b0          	mov    -0x50(%rbp),%rcx
  405258:	8b 49 08             	mov    0x8(%rcx),%ecx
  40525b:	48 63 c9             	movslq %ecx,%rcx
  40525e:	48 89 4d c8          	mov    %rcx,-0x38(%rbp)
  405262:	48 8b 4d b0          	mov    -0x50(%rbp),%rcx
  405266:	8b 49 0c             	mov    0xc(%rcx),%ecx
  405269:	48 63 c9             	movslq %ecx,%rcx
  40526c:	48 89 4d d0          	mov    %rcx,-0x30(%rbp)
  405270:	48 8b 4d b0          	mov    -0x50(%rbp),%rcx
  405274:	8b 49 04             	mov    0x4(%rcx),%ecx
  405277:	48 63 c9             	movslq %ecx,%rcx
  40527a:	48 89 4d d8          	mov    %rcx,-0x28(%rbp)
  40527e:	48 8d 4d c0          	lea    -0x40(%rbp),%rcx
  405282:	48 89 c8             	mov    %rcx,%rax
  405285:	ba 04 00 00 00       	mov    $0x4,%edx
  40528a:	48 89 c1             	mov    %rax,%rcx
  40528d:	48 89 d3             	mov    %rdx,%rbx
  405290:	48 8b 45 b8          	mov    -0x48(%rbp),%rax
  405294:	48 89 ce             	mov    %rcx,%rsi
  405297:	48 89 c7             	mov    %rax,%rdi
  40529a:	e8 51 ff ff ff       	callq  4051f0 <_ZN10tensorflow11TensorShapeC1ESt16initializer_listIxE>
  40529f:	48 8b 45 b8          	mov    -0x48(%rbp),%rax
  4052a3:	48 8b 5d e8          	mov    -0x18(%rbp),%rbx
  4052a7:	64 48 33 1c 25 28 00 	xor    %fs:0x28,%rbx
  4052ae:	00 00 
  4052b0:	74 05                	je     4052b7 <_ZN2CK2TF16get_tensor_shapeERKNS_5ShapeE+0x90>
  4052b2:	e8 19 da ff ff       	callq  402cd0 <__stack_chk_fail@plt>
  4052b7:	48 83 c4 48          	add    $0x48,%rsp
  4052bb:	5b                   	pop    %rbx
  4052bc:	5d                   	pop    %rbp
  4052bd:	c3                   	retq   

00000000004052be <_ZN2CK2TF16process_metadataERKN10tensorflow11RunMetadataEPKc>:
  4052be:	55                   	push   %rbp
  4052bf:	48 89 e5             	mov    %rsp,%rbp
  4052c2:	48 83 ec 30          	sub    $0x30,%rsp
  4052c6:	48 89 7d e8          	mov    %rdi,-0x18(%rbp)
  4052ca:	48 89 75 e0          	mov    %rsi,-0x20(%rbp)
  4052ce:	48 8b 45 e8          	mov    -0x18(%rbp),%rax
  4052d2:	48 89 c7             	mov    %rax,%rdi
  4052d5:	e8 4c f7 ff ff       	callq  404a26 <_ZNK10tensorflow11RunMetadata14has_step_statsEv>
  4052da:	84 c0                	test   %al,%al
  4052dc:	75 19                	jne    4052f7 <_ZN2CK2TF16process_metadataERKN10tensorflow11RunMetadataEPKc+0x39>
  4052de:	b9 c0 96 40 00       	mov    $0x4096c0,%ecx
  4052e3:	ba 53 00 00 00       	mov    $0x53,%edx
  4052e8:	be 20 93 40 00       	mov    $0x409320,%esi
  4052ed:	bf cb 93 40 00       	mov    $0x4093cb,%edi
  4052f2:	e8 c9 d9 ff ff       	callq  402cc0 <__assert_fail@plt>
  4052f7:	48 8b 45 e8          	mov    -0x18(%rbp),%rax
  4052fb:	48 89 c7             	mov    %rax,%rdi
  4052fe:	e8 55 f7 ff ff       	callq  404a58 <_ZNK10tensorflow11RunMetadata10step_statsEv>
  405303:	48 89 45 f8          	mov    %rax,-0x8(%rbp)
  405307:	be 00 00 00 00       	mov    $0x0,%esi
  40530c:	bf e9 93 40 00       	mov    $0x4093e9,%edi
  405311:	e8 db f8 ff ff       	callq  404bf1 <_ZN2CK8getenv_iEPKci>
  405316:	85 c0                	test   %eax,%eax
  405318:	0f 95 c0             	setne  %al
  40531b:	84 c0                	test   %al,%al
  40531d:	74 0c                	je     40532b <_ZN2CK2TF16process_metadataERKN10tensorflow11RunMetadataEPKc+0x6d>
  40531f:	48 8b 45 f8          	mov    -0x8(%rbp),%rax
  405323:	48 89 c7             	mov    %rax,%rdi
  405326:	e8 fd fc ff ff       	callq  405028 <_ZN2CK2TF14print_all_statERKN10tensorflow9StepStatsE>
  40532b:	48 8b 55 e0          	mov    -0x20(%rbp),%rdx
  40532f:	48 8b 45 f8          	mov    -0x8(%rbp),%rax
  405333:	48 89 d6             	mov    %rdx,%rsi
  405336:	48 89 c7             	mov    %rax,%rdi
  405339:	e8 88 fb ff ff       	callq  404ec6 <_ZN2CK2TF16get_node_time_msERKN10tensorflow9StepStatsEPKc>
  40533e:	66 0f 7e c0          	movd   %xmm0,%eax
  405342:	89 45 f4             	mov    %eax,-0xc(%rbp)
  405345:	f3 0f 5a 45 f4       	cvtss2sd -0xc(%rbp),%xmm0
  40534a:	48 8b 45 e0          	mov    -0x20(%rbp),%rax
  40534e:	48 89 c6             	mov    %rax,%rsi
  405351:	bf 00 94 40 00       	mov    $0x409400,%edi
  405356:	b8 01 00 00 00       	mov    $0x1,%eax
  40535b:	e8 50 da ff ff       	callq  402db0 <printf@plt>
  405360:	8b 45 f4             	mov    -0xc(%rbp),%eax
  405363:	89 45 dc             	mov    %eax,-0x24(%rbp)
  405366:	f3 0f 10 45 dc       	movss  -0x24(%rbp),%xmm0
  40536b:	e8 c5 df ff ff       	callq  403335 <_ZN2CK15store_test_timeEf>
  405370:	90                   	nop
  405371:	c9                   	leaveq 
  405372:	c3                   	retq   

0000000000405373 <_ZN2CK2TF27get_pooling_params_from_envEiii>:
  405373:	55                   	push   %rbp
  405374:	48 89 e5             	mov    %rsp,%rbp
  405377:	48 83 ec 40          	sub    $0x40,%rsp
  40537b:	89 7d cc             	mov    %edi,-0x34(%rbp)
  40537e:	89 75 c8             	mov    %esi,-0x38(%rbp)
  405381:	89 55 c4             	mov    %edx,-0x3c(%rbp)
  405384:	64 48 8b 04 25 28 00 	mov    %fs:0x28,%rax
  40538b:	00 00 
  40538d:	48 89 45 f8          	mov    %rax,-0x8(%rbp)
  405391:	31 c0                	xor    %eax,%eax
  405393:	8b 45 cc             	mov    -0x34(%rbp),%eax
  405396:	89 c6                	mov    %eax,%esi
  405398:	bf 2c 94 40 00       	mov    $0x40942c,%edi
  40539d:	e8 4f f8 ff ff       	callq  404bf1 <_ZN2CK8getenv_iEPKci>
  4053a2:	89 45 e0             	mov    %eax,-0x20(%rbp)
  4053a5:	8b 45 c8             	mov    -0x38(%rbp),%eax
  4053a8:	89 c6                	mov    %eax,%esi
  4053aa:	bf 3b 94 40 00       	mov    $0x40943b,%edi
  4053af:	e8 3d f8 ff ff       	callq  404bf1 <_ZN2CK8getenv_iEPKci>
  4053b4:	89 45 e4             	mov    %eax,-0x1c(%rbp)
  4053b7:	8b 45 c4             	mov    -0x3c(%rbp),%eax
  4053ba:	89 c6                	mov    %eax,%esi
  4053bc:	bf 4a 94 40 00       	mov    $0x40944a,%edi
  4053c1:	e8 2b f8 ff ff       	callq  404bf1 <_ZN2CK8getenv_iEPKci>
  4053c6:	89 45 dc             	mov    %eax,-0x24(%rbp)
  4053c9:	8b 45 dc             	mov    -0x24(%rbp),%eax
  4053cc:	89 c7                	mov    %eax,%edi
  4053ce:	e8 14 fd ff ff       	callq  4050e7 <_ZN2CK2TF22get_padding_scheme_strEi>
  4053d3:	48 89 45 e8          	mov    %rax,-0x18(%rbp)
  4053d7:	48 8b 75 e8          	mov    -0x18(%rbp),%rsi
  4053db:	8b 55 e4             	mov    -0x1c(%rbp),%edx
  4053de:	8b 45 e0             	mov    -0x20(%rbp),%eax
  4053e1:	8b 4d dc             	mov    -0x24(%rbp),%ecx
  4053e4:	49 89 f0             	mov    %rsi,%r8
  4053e7:	89 c6                	mov    %eax,%esi
  4053e9:	bf 60 94 40 00       	mov    $0x409460,%edi
  4053ee:	b8 00 00 00 00       	mov    $0x0,%eax
  4053f3:	e8 b8 d9 ff ff       	callq  402db0 <printf@plt>
  4053f8:	48 8b 45 e0          	mov    -0x20(%rbp),%rax
  4053fc:	48 8b 55 e8          	mov    -0x18(%rbp),%rdx
  405400:	48 8b 4d f8          	mov    -0x8(%rbp),%rcx
  405404:	64 48 33 0c 25 28 00 	xor    %fs:0x28,%rcx
  40540b:	00 00 
  40540d:	74 05                	je     405414 <_ZN2CK2TF27get_pooling_params_from_envEiii+0xa1>
  40540f:	e8 bc d8 ff ff       	callq  402cd0 <__stack_chk_fail@plt>
  405414:	c9                   	leaveq 
  405415:	c3                   	retq   

0000000000405416 <_ZN10tensorflow3ops7AvgPoolD1Ev>:
  405416:	55                   	push   %rbp
  405417:	48 89 e5             	mov    %rsp,%rbp
  40541a:	48 83 ec 10          	sub    $0x10,%rsp
  40541e:	48 89 7d f8          	mov    %rdi,-0x8(%rbp)
  405422:	48 8b 45 f8          	mov    -0x8(%rbp),%rax
  405426:	48 89 c7             	mov    %rax,%rdi
  405429:	e8 06 f3 ff ff       	callq  404734 <_ZN10tensorflow6OutputD1Ev>
  40542e:	90                   	nop
  40542f:	c9                   	leaveq 
  405430:	c3                   	retq   
  405431:	90                   	nop

0000000000405432 <_ZNSt8__detail10_Select1stC1Ev>:
  405432:	55                   	push   %rbp
  405433:	48 89 e5             	mov    %rsp,%rbp
  405436:	48 89 7d f8          	mov    %rdi,-0x8(%rbp)
  40543a:	90                   	nop
  40543b:	5d                   	pop    %rbp
  40543c:	c3                   	retq   
  40543d:	90                   	nop

000000000040543e <_ZNSt8__detail21_Hashtable_ebo_helperILi0ENS_10_Select1stELb1EEC1Ev>:
  40543e:	55                   	push   %rbp
  40543f:	48 89 e5             	mov    %rsp,%rbp
  405442:	48 83 ec 10          	sub    $0x10,%rsp
  405446:	48 89 7d f8          	mov    %rdi,-0x8(%rbp)
  40544a:	48 8b 45 f8          	mov    -0x8(%rbp),%rax
  40544e:	48 89 c7             	mov    %rax,%rdi
  405451:	e8 dc ff ff ff       	callq  405432 <_ZNSt8__detail10_Select1stC1Ev>
  405456:	90                   	nop
  405457:	c9                   	leaveq 
  405458:	c3                   	retq   
  405459:	90                   	nop

000000000040545a <_ZN10tensorflow10OutputHashC1Ev>:
  40545a:	55                   	push   %rbp
  40545b:	48 89 e5             	mov    %rsp,%rbp
  40545e:	48 89 7d f8          	mov    %rdi,-0x8(%rbp)
  405462:	90                   	nop
  405463:	5d                   	pop    %rbp
  405464:	c3                   	retq   
  405465:	90                   	nop

0000000000405466 <_ZNSt8__detail21_Hashtable_ebo_helperILi1EN10tensorflow10OutputHashELb1EEC1Ev>:
  405466:	55                   	push   %rbp
  405467:	48 89 e5             	mov    %rsp,%rbp
  40546a:	48 83 ec 10          	sub    $0x10,%rsp
  40546e:	48 89 7d f8          	mov    %rdi,-0x8(%rbp)
  405472:	48 8b 45 f8          	mov    -0x8(%rbp),%rax
  405476:	48 89 c7             	mov    %rax,%rdi
  405479:	e8 dc ff ff ff       	callq  40545a <_ZN10tensorflow10OutputHashC1Ev>
  40547e:	90                   	nop
  40547f:	c9                   	leaveq 
  405480:	c3                   	retq   
  405481:	90                   	nop

0000000000405482 <_ZNSt8__detail18_Mod_range_hashingC1Ev>:
  405482:	55                   	push   %rbp
  405483:	48 89 e5             	mov    %rsp,%rbp
  405486:	48 89 7d f8          	mov    %rdi,-0x8(%rbp)
  40548a:	90                   	nop
  40548b:	5d                   	pop    %rbp
  40548c:	c3                   	retq   
  40548d:	90                   	nop

000000000040548e <_ZNSt8__detail21_Hashtable_ebo_helperILi2ENS_18_Mod_range_hashingELb1EEC1Ev>:
  40548e:	55                   	push   %rbp
  40548f:	48 89 e5             	mov    %rsp,%rbp
  405492:	48 83 ec 10          	sub    $0x10,%rsp
  405496:	48 89 7d f8          	mov    %rdi,-0x8(%rbp)
  40549a:	48 8b 45 f8          	mov    -0x8(%rbp),%rax
  40549e:	48 89 c7             	mov    %rax,%rdi
  4054a1:	e8 dc ff ff ff       	callq  405482 <_ZNSt8__detail18_Mod_range_hashingC1Ev>
  4054a6:	90                   	nop
  4054a7:	c9                   	leaveq 
  4054a8:	c3                   	retq   
  4054a9:	90                   	nop

00000000004054aa <_ZNSt8__detail15_Hash_code_baseIN10tensorflow6OutputESt4pairIKS2_NS1_5Input11InitializerEENS_10_Select1stENS1_10OutputHashENS_18_Mod_range_hashingENS_20_Default_ranged_hashELb1EEC1Ev>:
  4054aa:	55                   	push   %rbp
  4054ab:	48 89 e5             	mov    %rsp,%rbp
  4054ae:	48 83 ec 10          	sub    $0x10,%rsp
  4054b2:	48 89 7d f8          	mov    %rdi,-0x8(%rbp)
  4054b6:	48 8b 45 f8          	mov    -0x8(%rbp),%rax
  4054ba:	48 89 c7             	mov    %rax,%rdi
  4054bd:	e8 7c ff ff ff       	callq  40543e <_ZNSt8__detail21_Hashtable_ebo_helperILi0ENS_10_Select1stELb1EEC1Ev>
  4054c2:	48 8b 45 f8          	mov    -0x8(%rbp),%rax
  4054c6:	48 89 c7             	mov    %rax,%rdi
  4054c9:	e8 98 ff ff ff       	callq  405466 <_ZNSt8__detail21_Hashtable_ebo_helperILi1EN10tensorflow10OutputHashELb1EEC1Ev>
  4054ce:	48 8b 45 f8          	mov    -0x8(%rbp),%rax
  4054d2:	48 89 c7             	mov    %rax,%rdi
  4054d5:	e8 b4 ff ff ff       	callq  40548e <_ZNSt8__detail21_Hashtable_ebo_helperILi2ENS_18_Mod_range_hashingELb1EEC1Ev>
  4054da:	90                   	nop
  4054db:	c9                   	leaveq 
  4054dc:	c3                   	retq   
  4054dd:	90                   	nop

00000000004054de <_ZNSt15binary_functionIN10tensorflow6OutputES1_bEC1Ev>:
  4054de:	55                   	push   %rbp
  4054df:	48 89 e5             	mov    %rsp,%rbp
  4054e2:	48 89 7d f8          	mov    %rdi,-0x8(%rbp)
  4054e6:	90                   	nop
  4054e7:	5d                   	pop    %rbp
  4054e8:	c3                   	retq   
  4054e9:	90                   	nop

00000000004054ea <_ZNSt8equal_toIN10tensorflow6OutputEEC1Ev>:
  4054ea:	55                   	push   %rbp
  4054eb:	48 89 e5             	mov    %rsp,%rbp
  4054ee:	48 83 ec 10          	sub    $0x10,%rsp
  4054f2:	48 89 7d f8          	mov    %rdi,-0x8(%rbp)
  4054f6:	48 8b 45 f8          	mov    -0x8(%rbp),%rax
  4054fa:	48 89 c7             	mov    %rax,%rdi
  4054fd:	e8 dc ff ff ff       	callq  4054de <_ZNSt15binary_functionIN10tensorflow6OutputES1_bEC1Ev>
  405502:	90                   	nop
  405503:	c9                   	leaveq 
  405504:	c3                   	retq   
  405505:	90                   	nop

0000000000405506 <_ZNSt8__detail21_Hashtable_ebo_helperILi0ESt8equal_toIN10tensorflow6OutputEELb1EEC1Ev>:
  405506:	55                   	push   %rbp
  405507:	48 89 e5             	mov    %rsp,%rbp
  40550a:	48 83 ec 10          	sub    $0x10,%rsp
  40550e:	48 89 7d f8          	mov    %rdi,-0x8(%rbp)
  405512:	48 8b 45 f8          	mov    -0x8(%rbp),%rax
  405516:	48 89 c7             	mov    %rax,%rdi
  405519:	e8 cc ff ff ff       	callq  4054ea <_ZNSt8equal_toIN10tensorflow6OutputEEC1Ev>
  40551e:	90                   	nop
  40551f:	c9                   	leaveq 
  405520:	c3                   	retq   
  405521:	90                   	nop

0000000000405522 <_ZNSt8__detail15_Hashtable_baseIN10tensorflow6OutputESt4pairIKS2_NS1_5Input11InitializerEENS_10_Select1stESt8equal_toIS2_ENS1_10OutputHashENS_18_Mod_range_hashingENS_20_Default_ranged_hashENS_17_Hashtable_traitsILb1ELb0ELb1EEEEC1Ev>:
  405522:	55                   	push   %rbp
  405523:	48 89 e5             	mov    %rsp,%rbp
  405526:	48 83 ec 10          	sub    $0x10,%rsp
  40552a:	48 89 7d f8          	mov    %rdi,-0x8(%rbp)
  40552e:	48 8b 45 f8          	mov    -0x8(%rbp),%rax
  405532:	48 89 c7             	mov    %rax,%rdi
  405535:	e8 70 ff ff ff       	callq  4054aa <_ZNSt8__detail15_Hash_code_baseIN10tensorflow6OutputESt4pairIKS2_NS1_5Input11InitializerEENS_10_Select1stENS1_10OutputHashENS_18_Mod_range_hashingENS_20_Default_ranged_hashELb1EEC1Ev>
  40553a:	48 8b 45 f8          	mov    -0x8(%rbp),%rax
  40553e:	48 89 c7             	mov    %rax,%rdi
  405541:	e8 c0 ff ff ff       	callq  405506 <_ZNSt8__detail21_Hashtable_ebo_helperILi0ESt8equal_toIN10tensorflow6OutputEELb1EEC1Ev>
  405546:	90                   	nop
  405547:	c9                   	leaveq 
  405548:	c3                   	retq   
  405549:	90                   	nop

000000000040554a <_ZNSt8__detail9_Map_baseIN10tensorflow6OutputESt4pairIKS2_NS1_5Input11InitializerEESaIS7_ENS_10_Select1stESt8equal_toIS2_ENS1_10OutputHashENS_18_Mod_range_hashingENS_20_Default_ranged_hashENS_20_Prime_rehash_policyENS_17_Hashtable_traitsILb1ELb0ELb1EEELb1EEC1Ev>:
  40554a:	55                   	push   %rbp
  40554b:	48 89 e5             	mov    %rsp,%rbp
  40554e:	48 89 7d f8          	mov    %rdi,-0x8(%rbp)
  405552:	90                   	nop
  405553:	5d                   	pop    %rbp
  405554:	c3                   	retq   
  405555:	90                   	nop

0000000000405556 <_ZNSt8__detail12_Insert_baseIN10tensorflow6OutputESt4pairIKS2_NS1_5Input11InitializerEESaIS7_ENS_10_Select1stESt8equal_toIS2_ENS1_10OutputHashENS_18_Mod_range_hashingENS_20_Default_ranged_hashENS_20_Prime_rehash_policyENS_17_Hashtable_traitsILb1ELb0ELb1EEEEC1Ev>:
  405556:	55                   	push   %rbp
  405557:	48 89 e5             	mov    %rsp,%rbp
  40555a:	48 89 7d f8          	mov    %rdi,-0x8(%rbp)
  40555e:	90                   	nop
  40555f:	5d                   	pop    %rbp
  405560:	c3                   	retq   
  405561:	90                   	nop

0000000000405562 <_ZNSt8__detail7_InsertIN10tensorflow6OutputESt4pairIKS2_NS1_5Input11InitializerEESaIS7_ENS_10_Select1stESt8equal_toIS2_ENS1_10OutputHashENS_18_Mod_range_hashingENS_20_Default_ranged_hashENS_20_Prime_rehash_policyENS_17_Hashtable_traitsILb1ELb0ELb1EEELb0ELb1EEC1Ev>:
  405562:	55                   	push   %rbp
  405563:	48 89 e5             	mov    %rsp,%rbp
  405566:	48 83 ec 10          	sub    $0x10,%rsp
  40556a:	48 89 7d f8          	mov    %rdi,-0x8(%rbp)
  40556e:	48 8b 45 f8          	mov    -0x8(%rbp),%rax
  405572:	48 89 c7             	mov    %rax,%rdi
  405575:	e8 dc ff ff ff       	callq  405556 <_ZNSt8__detail12_Insert_baseIN10tensorflow6OutputESt4pairIKS2_NS1_5Input11InitializerEESaIS7_ENS_10_Select1stESt8equal_toIS2_ENS1_10OutputHashENS_18_Mod_range_hashingENS_20_Default_ranged_hashENS_20_Prime_rehash_policyENS_17_Hashtable_traitsILb1ELb0ELb1EEEEC1Ev>
  40557a:	90                   	nop
  40557b:	c9                   	leaveq 
  40557c:	c3                   	retq   
  40557d:	90                   	nop

000000000040557e <_ZNSt8__detail12_Rehash_baseIN10tensorflow6OutputESt4pairIKS2_NS1_5Input11InitializerEESaIS7_ENS_10_Select1stESt8equal_toIS2_ENS1_10OutputHashENS_18_Mod_range_hashingENS_20_Default_ranged_hashENS_20_Prime_rehash_policyENS_17_Hashtable_traitsILb1ELb0ELb1EEEEC1Ev>:
  40557e:	55                   	push   %rbp
  40557f:	48 89 e5             	mov    %rsp,%rbp
  405582:	48 89 7d f8          	mov    %rdi,-0x8(%rbp)
  405586:	90                   	nop
  405587:	5d                   	pop    %rbp
  405588:	c3                   	retq   
  405589:	90                   	nop

000000000040558a <_ZNSt8__detail9_EqualityIN10tensorflow6OutputESt4pairIKS2_NS1_5Input11InitializerEESaIS7_ENS_10_Select1stESt8equal_toIS2_ENS1_10OutputHashENS_18_Mod_range_hashingENS_20_Default_ranged_hashENS_20_Prime_rehash_policyENS_17_Hashtable_traitsILb1ELb0ELb1EEELb1EEC1Ev>:
  40558a:	55                   	push   %rbp
  40558b:	48 89 e5             	mov    %rsp,%rbp
  40558e:	48 89 7d f8          	mov    %rdi,-0x8(%rbp)
  405592:	90                   	nop
  405593:	5d                   	pop    %rbp
  405594:	c3                   	retq   
  405595:	90                   	nop

0000000000405596 <_ZNSt8__detail21_Hashtable_ebo_helperILi0ESaINS_10_Hash_nodeISt4pairIKN10tensorflow6OutputENS3_5Input11InitializerEELb1EEEELb1EEC1Ev>:
  405596:	55                   	push   %rbp
  405597:	48 89 e5             	mov    %rsp,%rbp
  40559a:	48 83 ec 10          	sub    $0x10,%rsp
  40559e:	48 89 7d f8          	mov    %rdi,-0x8(%rbp)
  4055a2:	48 8b 45 f8          	mov    -0x8(%rbp),%rax
  4055a6:	48 89 c7             	mov    %rax,%rdi
  4055a9:	e8 fc 0c 00 00       	callq  4062aa <_ZNSaINSt8__detail10_Hash_nodeISt4pairIKN10tensorflow6OutputENS2_5Input11InitializerEELb1EEEEC1Ev>
  4055ae:	90                   	nop
  4055af:	c9                   	leaveq 
  4055b0:	c3                   	retq   
  4055b1:	90                   	nop

00000000004055b2 <_ZNSt8__detail21_Hashtable_ebo_helperILi0ESaINS_10_Hash_nodeISt4pairIKN10tensorflow6OutputENS3_5Input11InitializerEELb1EEEELb1EED1Ev>:
  4055b2:	55                   	push   %rbp
  4055b3:	48 89 e5             	mov    %rsp,%rbp
  4055b6:	48 83 ec 10          	sub    $0x10,%rsp
  4055ba:	48 89 7d f8          	mov    %rdi,-0x8(%rbp)
  4055be:	48 8b 45 f8          	mov    -0x8(%rbp),%rax
  4055c2:	48 89 c7             	mov    %rax,%rdi
  4055c5:	e8 fc 0c 00 00       	callq  4062c6 <_ZNSaINSt8__detail10_Hash_nodeISt4pairIKN10tensorflow6OutputENS2_5Input11InitializerEELb1EEEED1Ev>
  4055ca:	90                   	nop
  4055cb:	c9                   	leaveq 
  4055cc:	c3                   	retq   
  4055cd:	90                   	nop

00000000004055ce <_ZNSt8__detail16_Hashtable_allocISaINS_10_Hash_nodeISt4pairIKN10tensorflow6OutputENS3_5Input11InitializerEELb1EEEEEC1Ev>:
  4055ce:	55                   	push   %rbp
  4055cf:	48 89 e5             	mov    %rsp,%rbp
  4055d2:	48 83 ec 10          	sub    $0x10,%rsp
  4055d6:	48 89 7d f8          	mov    %rdi,-0x8(%rbp)
  4055da:	48 8b 45 f8          	mov    -0x8(%rbp),%rax
  4055de:	48 89 c7             	mov    %rax,%rdi
  4055e1:	e8 b0 ff ff ff       	callq  405596 <_ZNSt8__detail21_Hashtable_ebo_helperILi0ESaINS_10_Hash_nodeISt4pairIKN10tensorflow6OutputENS3_5Input11InitializerEELb1EEEELb1EEC1Ev>
  4055e6:	90                   	nop
  4055e7:	c9                   	leaveq 
  4055e8:	c3                   	retq   
  4055e9:	90                   	nop

00000000004055ea <_ZNSt8__detail16_Hashtable_allocISaINS_10_Hash_nodeISt4pairIKN10tensorflow6OutputENS3_5Input11InitializerEELb1EEEEED1Ev>:
  4055ea:	55                   	push   %rbp
  4055eb:	48 89 e5             	mov    %rsp,%rbp
  4055ee:	48 83 ec 10          	sub    $0x10,%rsp
  4055f2:	48 89 7d f8          	mov    %rdi,-0x8(%rbp)
  4055f6:	48 8b 45 f8          	mov    -0x8(%rbp),%rax
  4055fa:	48 89 c7             	mov    %rax,%rdi
  4055fd:	e8 b0 ff ff ff       	callq  4055b2 <_ZNSt8__detail21_Hashtable_ebo_helperILi0ESaINS_10_Hash_nodeISt4pairIKN10tensorflow6OutputENS3_5Input11InitializerEELb1EEEELb1EED1Ev>
  405602:	90                   	nop
  405603:	c9                   	leaveq 
  405604:	c3                   	retq   
  405605:	90                   	nop

0000000000405606 <_ZNSt10_HashtableIN10tensorflow6OutputESt4pairIKS1_NS0_5Input11InitializerEESaIS6_ENSt8__detail10_Select1stESt8equal_toIS1_ENS0_10OutputHashENS8_18_Mod_range_hashingENS8_20_Default_ranged_hashENS8_20_Prime_rehash_policyENS8_17_Hashtable_traitsILb1ELb0ELb1EEEEC1Ev>:
  405606:	55                   	push   %rbp
  405607:	48 89 e5             	mov    %rsp,%rbp
  40560a:	48 83 ec 10          	sub    $0x10,%rsp
  40560e:	48 89 7d f8          	mov    %rdi,-0x8(%rbp)
  405612:	48 8b 45 f8          	mov    -0x8(%rbp),%rax
  405616:	48 89 c7             	mov    %rax,%rdi
  405619:	e8 04 ff ff ff       	callq  405522 <_ZNSt8__detail15_Hashtable_baseIN10tensorflow6OutputESt4pairIKS2_NS1_5Input11InitializerEENS_10_Select1stESt8equal_toIS2_ENS1_10OutputHashENS_18_Mod_range_hashingENS_20_Default_ranged_hashENS_17_Hashtable_traitsILb1ELb0ELb1EEEEC1Ev>
  40561e:	48 8b 45 f8          	mov    -0x8(%rbp),%rax
  405622:	48 89 c7             	mov    %rax,%rdi
  405625:	e8 20 ff ff ff       	callq  40554a <_ZNSt8__detail9_Map_baseIN10tensorflow6OutputESt4pairIKS2_NS1_5Input11InitializerEESaIS7_ENS_10_Select1stESt8equal_toIS2_ENS1_10OutputHashENS_18_Mod_range_hashingENS_20_Default_ranged_hashENS_20_Prime_rehash_policyENS_17_Hashtable_traitsILb1ELb0ELb1EEELb1EEC1Ev>
  40562a:	48 8b 45 f8          	mov    -0x8(%rbp),%rax
  40562e:	48 89 c7             	mov    %rax,%rdi
  405631:	e8 2c ff ff ff       	callq  405562 <_ZNSt8__detail7_InsertIN10tensorflow6OutputESt4pairIKS2_NS1_5Input11InitializerEESaIS7_ENS_10_Select1stESt8equal_toIS2_ENS1_10OutputHashENS_18_Mod_range_hashingENS_20_Default_ranged_hashENS_20_Prime_rehash_policyENS_17_Hashtable_traitsILb1ELb0ELb1EEELb0ELb1EEC1Ev>
  405636:	48 8b 45 f8          	mov    -0x8(%rbp),%rax
  40563a:	48 89 c7             	mov    %rax,%rdi
  40563d:	e8 3c ff ff ff       	callq  40557e <_ZNSt8__detail12_Rehash_baseIN10tensorflow6OutputESt4pairIKS2_NS1_5Input11InitializerEESaIS7_ENS_10_Select1stESt8equal_toIS2_ENS1_10OutputHashENS_18_Mod_range_hashingENS_20_Default_ranged_hashENS_20_Prime_rehash_policyENS_17_Hashtable_traitsILb1ELb0ELb1EEEEC1Ev>
  405642:	48 8b 45 f8          	mov    -0x8(%rbp),%rax
  405646:	48 89 c7             	mov    %rax,%rdi
  405649:	e8 3c ff ff ff       	callq  40558a <_ZNSt8__detail9_EqualityIN10tensorflow6OutputESt4pairIKS2_NS1_5Input11InitializerEESaIS7_ENS_10_Select1stESt8equal_toIS2_ENS1_10OutputHashENS_18_Mod_range_hashingENS_20_Default_ranged_hashENS_20_Prime_rehash_policyENS_17_Hashtable_traitsILb1ELb0ELb1EEELb1EEC1Ev>
  40564e:	48 8b 45 f8          	mov    -0x8(%rbp),%rax
  405652:	48 89 c7             	mov    %rax,%rdi
  405655:	e8 74 ff ff ff       	callq  4055ce <_ZNSt8__detail16_Hashtable_allocISaINS_10_Hash_nodeISt4pairIKN10tensorflow6OutputENS3_5Input11InitializerEELb1EEEEEC1Ev>
  40565a:	48 8b 45 f8          	mov    -0x8(%rbp),%rax
  40565e:	48 8d 50 30          	lea    0x30(%rax),%rdx
  405662:	48 8b 45 f8          	mov    -0x8(%rbp),%rax
  405666:	48 89 10             	mov    %rdx,(%rax)
  405669:	48 8b 45 f8          	mov    -0x8(%rbp),%rax
  40566d:	48 c7 40 08 01 00 00 	movq   $0x1,0x8(%rax)
  405674:	00 
  405675:	48 8b 45 f8          	mov    -0x8(%rbp),%rax
  405679:	48 83 c0 10          	add    $0x10,%rax
  40567d:	48 89 c7             	mov    %rax,%rdi
  405680:	e8 35 e7 ff ff       	callq  403dba <_ZNSt8__detail15_Hash_node_baseC1Ev>
  405685:	48 8b 45 f8          	mov    -0x8(%rbp),%rax
  405689:	48 c7 40 18 00 00 00 	movq   $0x0,0x18(%rax)
  405690:	00 
  405691:	48 8b 45 f8          	mov    -0x8(%rbp),%rax
  405695:	48 83 c0 20          	add    $0x20,%rax
  405699:	f3 0f 10 05 6f 40 00 	movss  0x406f(%rip),%xmm0        # 409710 <_ZZN2CK2TF16process_metadataERKN10tensorflow11RunMetadataEPKcE19__PRETTY_FUNCTION__+0x50>
  4056a0:	00 
  4056a1:	48 89 c7             	mov    %rax,%rdi
  4056a4:	e8 27 e7 ff ff       	callq  403dd0 <_ZNSt8__detail20_Prime_rehash_policyC1Ef>
  4056a9:	48 8b 45 f8          	mov    -0x8(%rbp),%rax
  4056ad:	48 c7 40 30 00 00 00 	movq   $0x0,0x30(%rax)
  4056b4:	00 
  4056b5:	90                   	nop
  4056b6:	c9                   	leaveq 
  4056b7:	c3                   	retq   

00000000004056b8 <_ZNSt13unordered_mapIN10tensorflow6OutputENS0_5Input11InitializerENS0_10OutputHashESt8equal_toIS1_ESaISt4pairIKS1_S3_EEEC1Ev>:
  4056b8:	55                   	push   %rbp
  4056b9:	48 89 e5             	mov    %rsp,%rbp
  4056bc:	48 83 ec 10          	sub    $0x10,%rsp
  4056c0:	48 89 7d f8          	mov    %rdi,-0x8(%rbp)
  4056c4:	48 8b 45 f8          	mov    -0x8(%rbp),%rax
  4056c8:	48 89 c7             	mov    %rax,%rdi
  4056cb:	e8 36 ff ff ff       	callq  405606 <_ZNSt10_HashtableIN10tensorflow6OutputESt4pairIKS1_NS0_5Input11InitializerEESaIS6_ENSt8__detail10_Select1stESt8equal_toIS1_ENS0_10OutputHashENS8_18_Mod_range_hashingENS8_20_Default_ranged_hashENS8_20_Prime_rehash_policyENS8_17_Hashtable_traitsILb1ELb0ELb1EEEEC1Ev>
  4056d0:	90                   	nop
  4056d1:	c9                   	leaveq 
  4056d2:	c3                   	retq   
  4056d3:	90                   	nop

00000000004056d4 <_ZNSt13unordered_mapIN10tensorflow6OutputENS0_5Input11InitializerENS0_10OutputHashESt8equal_toIS1_ESaISt4pairIKS1_S3_EEED1Ev>:
  4056d4:	55                   	push   %rbp
  4056d5:	48 89 e5             	mov    %rsp,%rbp
  4056d8:	48 83 ec 10          	sub    $0x10,%rsp
  4056dc:	48 89 7d f8          	mov    %rdi,-0x8(%rbp)
  4056e0:	48 8b 45 f8          	mov    -0x8(%rbp),%rax
  4056e4:	48 89 c7             	mov    %rax,%rdi
  4056e7:	e8 f6 0b 00 00       	callq  4062e2 <_ZNSt10_HashtableIN10tensorflow6OutputESt4pairIKS1_NS0_5Input11InitializerEESaIS6_ENSt8__detail10_Select1stESt8equal_toIS1_ENS0_10OutputHashENS8_18_Mod_range_hashingENS8_20_Default_ranged_hashENS8_20_Prime_rehash_policyENS8_17_Hashtable_traitsILb1ELb0ELb1EEEED1Ev>
  4056ec:	90                   	nop
  4056ed:	c9                   	leaveq 
  4056ee:	c3                   	retq   
  4056ef:	90                   	nop

00000000004056f0 <_ZN5Eigen8Symbolic8BaseExprINS0_10SymbolExprINS_12placeholders8internal17symbolic_last_tagEEEEC1Ev>:
  4056f0:	55                   	push   %rbp
  4056f1:	48 89 e5             	mov    %rsp,%rbp
  4056f4:	48 89 7d f8          	mov    %rdi,-0x8(%rbp)
  4056f8:	90                   	nop
  4056f9:	5d                   	pop    %rbp
  4056fa:	c3                   	retq   
  4056fb:	90                   	nop

00000000004056fc <_ZN5Eigen8Symbolic10SymbolExprINS_12placeholders8internal17symbolic_last_tagEEC1Ev>:
  4056fc:	55                   	push   %rbp
  4056fd:	48 89 e5             	mov    %rsp,%rbp
  405700:	48 83 ec 10          	sub    $0x10,%rsp
  405704:	48 89 7d f8          	mov    %rdi,-0x8(%rbp)
  405708:	48 8b 45 f8          	mov    -0x8(%rbp),%rax
  40570c:	48 89 c7             	mov    %rax,%rdi
  40570f:	e8 dc ff ff ff       	callq  4056f0 <_ZN5Eigen8Symbolic8BaseExprINS0_10SymbolExprINS_12placeholders8internal17symbolic_last_tagEEEEC1Ev>
  405714:	90                   	nop
  405715:	c9                   	leaveq 
  405716:	c3                   	retq   

0000000000405717 <_ZN5Eigen3fixILi1EEENS_8internal8FixedIntIXT_EEEv>:
  405717:	55                   	push   %rbp
  405718:	48 89 e5             	mov    %rsp,%rbp
  40571b:	53                   	push   %rbx
  40571c:	48 83 ec 18          	sub    $0x18,%rsp
  405720:	64 48 8b 04 25 28 00 	mov    %fs:0x28,%rax
  405727:	00 00 
  405729:	48 89 45 e8          	mov    %rax,-0x18(%rbp)
  40572d:	31 c0                	xor    %eax,%eax
  40572f:	48 8d 45 e7          	lea    -0x19(%rbp),%rax
  405733:	48 89 c7             	mov    %rax,%rdi
  405736:	e8 97 10 00 00       	callq  4067d2 <_ZN5Eigen8internal8FixedIntILi1EEC1Ev>
  40573b:	89 d8                	mov    %ebx,%eax
  40573d:	48 8b 55 e8          	mov    -0x18(%rbp),%rdx
  405741:	64 48 33 14 25 28 00 	xor    %fs:0x28,%rdx
  405748:	00 00 
  40574a:	74 05                	je     405751 <_ZN5Eigen3fixILi1EEENS_8internal8FixedIntIXT_EEEv+0x3a>
  40574c:	e8 7f d5 ff ff       	callq  402cd0 <__stack_chk_fail@plt>
  405751:	48 83 c4 18          	add    $0x18,%rsp
  405755:	5b                   	pop    %rbx
  405756:	5d                   	pop    %rbp
  405757:	c3                   	retq   

0000000000405758 <_ZNK5Eigen8Symbolic8BaseExprINS0_10SymbolExprINS_12placeholders8internal17symbolic_last_tagEEEEplILi1EEENS0_7AddExprIS6_NS0_9ValueExprINS_8internal8FixedIntIXT_EEEEEEESD_>:
  405758:	55                   	push   %rbp
  405759:	48 89 e5             	mov    %rsp,%rbp
  40575c:	53                   	push   %rbx
  40575d:	48 83 ec 28          	sub    $0x28,%rsp
  405761:	48 89 7d d8          	mov    %rdi,-0x28(%rbp)
  405765:	64 48 8b 04 25 28 00 	mov    %fs:0x28,%rax
  40576c:	00 00 
  40576e:	48 89 45 e8          	mov    %rax,-0x18(%rbp)
  405772:	31 c0                	xor    %eax,%eax
  405774:	48 8d 45 e5          	lea    -0x1b(%rbp),%rax
  405778:	48 89 c7             	mov    %rax,%rdi
  40577b:	e8 6c 10 00 00       	callq  4067ec <_ZN5Eigen8Symbolic9ValueExprINS_8internal8FixedIntILi1EEEEC1Ev>
  405780:	48 8b 45 d8          	mov    -0x28(%rbp),%rax
  405784:	48 89 c7             	mov    %rax,%rdi
  405787:	e8 52 10 00 00       	callq  4067de <_ZNK5Eigen8Symbolic8BaseExprINS0_10SymbolExprINS_12placeholders8internal17symbolic_last_tagEEEE7derivedEv>
  40578c:	48 89 c1             	mov    %rax,%rcx
  40578f:	48 8d 55 e5          	lea    -0x1b(%rbp),%rdx
  405793:	48 8d 45 e6          	lea    -0x1a(%rbp),%rax
  405797:	48 89 ce             	mov    %rcx,%rsi
  40579a:	48 89 c7             	mov    %rax,%rdi
  40579d:	e8 62 10 00 00       	callq  406804 <_ZN5Eigen8Symbolic7AddExprINS0_10SymbolExprINS_12placeholders8internal17symbolic_last_tagEEENS0_9ValueExprINS_8internal8FixedIntILi1EEEEEEC1ERKS6_RKSB_>
  4057a2:	89 d8                	mov    %ebx,%eax
  4057a4:	48 8b 75 e8          	mov    -0x18(%rbp),%rsi
  4057a8:	64 48 33 34 25 28 00 	xor    %fs:0x28,%rsi
  4057af:	00 00 
  4057b1:	74 05                	je     4057b8 <_ZNK5Eigen8Symbolic8BaseExprINS0_10SymbolExprINS_12placeholders8internal17symbolic_last_tagEEEEplILi1EEENS0_7AddExprIS6_NS0_9ValueExprINS_8internal8FixedIntIXT_EEEEEEESD_+0x60>
  4057b3:	e8 18 d5 ff ff       	callq  402cd0 <__stack_chk_fail@plt>
  4057b8:	48 83 c4 28          	add    $0x28,%rsp
  4057bc:	5b                   	pop    %rbx
  4057bd:	5d                   	pop    %rbp
  4057be:	c3                   	retq   

00000000004057bf <_ZN10tensorflow8internal12Check_EQImplImmEEPNSt7__cxx1112basic_stringIcSt11char_traitsIcESaIcEEERKT_RKT0_PKc>:
  4057bf:	55                   	push   %rbp
  4057c0:	48 89 e5             	mov    %rsp,%rbp
  4057c3:	48 83 ec 20          	sub    $0x20,%rsp
  4057c7:	48 89 7d f8          	mov    %rdi,-0x8(%rbp)
  4057cb:	48 89 75 f0          	mov    %rsi,-0x10(%rbp)
  4057cf:	48 89 55 e8          	mov    %rdx,-0x18(%rbp)
  4057d3:	48 8b 45 f8          	mov    -0x8(%rbp),%rax
  4057d7:	48 8b 10             	mov    (%rax),%rdx
  4057da:	48 8b 45 f0          	mov    -0x10(%rbp),%rax
  4057de:	48 8b 00             	mov    (%rax),%rax
  4057e1:	48 39 c2             	cmp    %rax,%rdx
  4057e4:	75 07                	jne    4057ed <_ZN10tensorflow8internal12Check_EQImplImmEEPNSt7__cxx1112basic_stringIcSt11char_traitsIcESaIcEEERKT_RKT0_PKc+0x2e>
  4057e6:	b8 00 00 00 00       	mov    $0x0,%eax
  4057eb:	eb 17                	jmp    405804 <_ZN10tensorflow8internal12Check_EQImplImmEEPNSt7__cxx1112basic_stringIcSt11char_traitsIcESaIcEEERKT_RKT0_PKc+0x45>
  4057ed:	48 8b 55 e8          	mov    -0x18(%rbp),%rdx
  4057f1:	48 8b 4d f0          	mov    -0x10(%rbp),%rcx
  4057f5:	48 8b 45 f8          	mov    -0x8(%rbp),%rax
  4057f9:	48 89 ce             	mov    %rcx,%rsi
  4057fc:	48 89 c7             	mov    %rax,%rdi
  4057ff:	e8 73 10 00 00       	callq  406877 <_ZN10tensorflow8internal17MakeCheckOpStringImmEEPNSt7__cxx1112basic_stringIcSt11char_traitsIcESaIcEEERKT_RKT0_PKc>
  405804:	c9                   	leaveq 
  405805:	c3                   	retq   

0000000000405806 <_ZNSt10_Head_baseILm0EPN10tensorflow6Status5StateELb0EE7_M_headERS4_>:
  405806:	55                   	push   %rbp
  405807:	48 89 e5             	mov    %rsp,%rbp
  40580a:	48 89 7d f8          	mov    %rdi,-0x8(%rbp)
  40580e:	48 8b 45 f8          	mov    -0x8(%rbp),%rax
  405812:	5d                   	pop    %rbp
  405813:	c3                   	retq   

0000000000405814 <_ZNSt11_Tuple_implILm0EJPN10tensorflow6Status5StateESt14default_deleteIS2_EEE7_M_headERS6_>:
  405814:	55                   	push   %rbp
  405815:	48 89 e5             	mov    %rsp,%rbp
  405818:	48 83 ec 10          	sub    $0x10,%rsp
  40581c:	48 89 7d f8          	mov    %rdi,-0x8(%rbp)
  405820:	48 8b 45 f8          	mov    -0x8(%rbp),%rax
  405824:	48 89 c7             	mov    %rax,%rdi
  405827:	e8 da ff ff ff       	callq  405806 <_ZNSt10_Head_baseILm0EPN10tensorflow6Status5StateELb0EE7_M_headERS4_>
  40582c:	c9                   	leaveq 
  40582d:	c3                   	retq   

000000000040582e <_ZSt12__get_helperILm0EPN10tensorflow6Status5StateEJSt14default_deleteIS2_EEERT0_RSt11_Tuple_implIXT_EJS6_DpT1_EE>:
  40582e:	55                   	push   %rbp
  40582f:	48 89 e5             	mov    %rsp,%rbp
  405832:	48 83 ec 10          	sub    $0x10,%rsp
  405836:	48 89 7d f8          	mov    %rdi,-0x8(%rbp)
  40583a:	48 8b 45 f8          	mov    -0x8(%rbp),%rax
  40583e:	48 89 c7             	mov    %rax,%rdi
  405841:	e8 ce ff ff ff       	callq  405814 <_ZNSt11_Tuple_implILm0EJPN10tensorflow6Status5StateESt14default_deleteIS2_EEE7_M_headERS6_>
  405846:	c9                   	leaveq 
  405847:	c3                   	retq   

0000000000405848 <_ZSt3getILm0EJPN10tensorflow6Status5StateESt14default_deleteIS2_EEERNSt13tuple_elementIXT_ESt5tupleIJDpT0_EEE4typeERSA_>:
  405848:	55                   	push   %rbp
  405849:	48 89 e5             	mov    %rsp,%rbp
  40584c:	48 83 ec 10          	sub    $0x10,%rsp
  405850:	48 89 7d f8          	mov    %rdi,-0x8(%rbp)
  405854:	48 8b 45 f8          	mov    -0x8(%rbp),%rax
  405858:	48 89 c7             	mov    %rax,%rdi
  40585b:	e8 ce ff ff ff       	callq  40582e <_ZSt12__get_helperILm0EPN10tensorflow6Status5StateEJSt14default_deleteIS2_EEERT0_RSt11_Tuple_implIXT_EJS6_DpT1_EE>
  405860:	c9                   	leaveq 
  405861:	c3                   	retq   

0000000000405862 <_ZNSt10unique_ptrIN10tensorflow6Status5StateESt14default_deleteIS2_EED1Ev>:
  405862:	55                   	push   %rbp
  405863:	48 89 e5             	mov    %rsp,%rbp
  405866:	53                   	push   %rbx
  405867:	48 83 ec 28          	sub    $0x28,%rsp
  40586b:	48 89 7d d8          	mov    %rdi,-0x28(%rbp)
  40586f:	48 8b 45 d8          	mov    -0x28(%rbp),%rax
  405873:	48 89 c7             	mov    %rax,%rdi
  405876:	e8 cd ff ff ff       	callq  405848 <_ZSt3getILm0EJPN10tensorflow6Status5StateESt14default_deleteIS2_EEERNSt13tuple_elementIXT_ESt5tupleIJDpT0_EEE4typeERSA_>
  40587b:	48 89 45 e8          	mov    %rax,-0x18(%rbp)
  40587f:	48 8b 45 e8          	mov    -0x18(%rbp),%rax
  405883:	48 8b 00             	mov    (%rax),%rax
  405886:	48 85 c0             	test   %rax,%rax
  405889:	74 1e                	je     4058a9 <_ZNSt10unique_ptrIN10tensorflow6Status5StateESt14default_deleteIS2_EED1Ev+0x47>
  40588b:	48 8b 45 e8          	mov    -0x18(%rbp),%rax
  40588f:	48 8b 18             	mov    (%rax),%rbx
  405892:	48 8b 45 d8          	mov    -0x28(%rbp),%rax
  405896:	48 89 c7             	mov    %rax,%rdi
  405899:	e8 fe 10 00 00       	callq  40699c <_ZNSt10unique_ptrIN10tensorflow6Status5StateESt14default_deleteIS2_EE11get_deleterEv>
  40589e:	48 89 de             	mov    %rbx,%rsi
  4058a1:	48 89 c7             	mov    %rax,%rdi
  4058a4:	e8 2d 11 00 00       	callq  4069d6 <_ZNKSt14default_deleteIN10tensorflow6Status5StateEEclEPS2_>
  4058a9:	48 8b 45 e8          	mov    -0x18(%rbp),%rax
  4058ad:	48 c7 00 00 00 00 00 	movq   $0x0,(%rax)
  4058b4:	90                   	nop
  4058b5:	48 83 c4 28          	add    $0x28,%rsp
  4058b9:	5b                   	pop    %rbx
  4058ba:	5d                   	pop    %rbp
  4058bb:	c3                   	retq   

00000000004058bc <_ZSteqIN10tensorflow6Status5StateESt14default_deleteIS2_EEbRKSt10unique_ptrIT_T0_EDn>:
  4058bc:	55                   	push   %rbp
  4058bd:	48 89 e5             	mov    %rsp,%rbp
  4058c0:	48 83 ec 10          	sub    $0x10,%rsp
  4058c4:	48 89 7d f8          	mov    %rdi,-0x8(%rbp)
  4058c8:	48 89 75 f0          	mov    %rsi,-0x10(%rbp)
  4058cc:	48 8b 45 f8          	mov    -0x8(%rbp),%rax
  4058d0:	48 89 c7             	mov    %rax,%rdi
  4058d3:	e8 30 11 00 00       	callq  406a08 <_ZNKSt10unique_ptrIN10tensorflow6Status5StateESt14default_deleteIS2_EEcvbEv>
  4058d8:	83 f0 01             	xor    $0x1,%eax
  4058db:	c9                   	leaveq 
  4058dc:	c3                   	retq   
  4058dd:	90                   	nop

00000000004058de <_ZNKSt10unique_ptrIN10tensorflow6Status5StateESt14default_deleteIS2_EEdeEv>:
  4058de:	55                   	push   %rbp
  4058df:	48 89 e5             	mov    %rsp,%rbp
  4058e2:	48 83 ec 10          	sub    $0x10,%rsp
  4058e6:	48 89 7d f8          	mov    %rdi,-0x8(%rbp)
  4058ea:	48 8b 45 f8          	mov    -0x8(%rbp),%rax
  4058ee:	48 89 c7             	mov    %rax,%rdi
  4058f1:	e8 94 00 00 00       	callq  40598a <_ZNKSt10unique_ptrIN10tensorflow6Status5StateESt14default_deleteIS2_EE3getEv>
  4058f6:	c9                   	leaveq 
  4058f7:	c3                   	retq   

00000000004058f8 <_ZNSt10unique_ptrIN10tensorflow6Status5StateESt14default_deleteIS2_EEC1EPS2_>:
  4058f8:	55                   	push   %rbp
  4058f9:	48 89 e5             	mov    %rsp,%rbp
  4058fc:	48 83 ec 10          	sub    $0x10,%rsp
  405900:	48 89 7d f8          	mov    %rdi,-0x8(%rbp)
  405904:	48 89 75 f0          	mov    %rsi,-0x10(%rbp)
  405908:	48 8b 45 f8          	mov    -0x8(%rbp),%rax
  40590c:	48 89 c7             	mov    %rax,%rdi
  40590f:	e8 72 e6 ff ff       	callq  403f86 <_ZNSt5tupleIJPN10tensorflow6Status5StateESt14default_deleteIS2_EEEC1IS3_S5_Lb1EEEv>
  405914:	48 8b 45 f8          	mov    -0x8(%rbp),%rax
  405918:	48 89 c7             	mov    %rax,%rdi
  40591b:	e8 28 ff ff ff       	callq  405848 <_ZSt3getILm0EJPN10tensorflow6Status5StateESt14default_deleteIS2_EEERNSt13tuple_elementIXT_ESt5tupleIJDpT0_EEE4typeERSA_>
  405920:	48 89 c2             	mov    %rax,%rdx
  405923:	48 8b 45 f0          	mov    -0x10(%rbp),%rax
  405927:	48 89 02             	mov    %rax,(%rdx)
  40592a:	90                   	nop
  40592b:	c9                   	leaveq 
  40592c:	c3                   	retq   

000000000040592d <_ZNSt10_Head_baseILm0EPN10tensorflow6Status5StateELb0EE7_M_headERKS4_>:
  40592d:	55                   	push   %rbp
  40592e:	48 89 e5             	mov    %rsp,%rbp
  405931:	48 89 7d f8          	mov    %rdi,-0x8(%rbp)
  405935:	48 8b 45 f8          	mov    -0x8(%rbp),%rax
  405939:	5d                   	pop    %rbp
  40593a:	c3                   	retq   

000000000040593b <_ZNSt11_Tuple_implILm0EJPN10tensorflow6Status5StateESt14default_deleteIS2_EEE7_M_headERKS6_>:
  40593b:	55                   	push   %rbp
  40593c:	48 89 e5             	mov    %rsp,%rbp
  40593f:	48 83 ec 10          	sub    $0x10,%rsp
  405943:	48 89 7d f8          	mov    %rdi,-0x8(%rbp)
  405947:	48 8b 45 f8          	mov    -0x8(%rbp),%rax
  40594b:	48 89 c7             	mov    %rax,%rdi
  40594e:	e8 da ff ff ff       	callq  40592d <_ZNSt10_Head_baseILm0EPN10tensorflow6Status5StateELb0EE7_M_headERKS4_>
  405953:	c9                   	leaveq 
  405954:	c3                   	retq   

0000000000405955 <_ZSt12__get_helperILm0EPN10tensorflow6Status5StateEJSt14default_deleteIS2_EEERKT0_RKSt11_Tuple_implIXT_EJS6_DpT1_EE>:
  405955:	55                   	push   %rbp
  405956:	48 89 e5             	mov    %rsp,%rbp
  405959:	48 83 ec 10          	sub    $0x10,%rsp
  40595d:	48 89 7d f8          	mov    %rdi,-0x8(%rbp)
  405961:	48 8b 45 f8          	mov    -0x8(%rbp),%rax
  405965:	48 89 c7             	mov    %rax,%rdi
  405968:	e8 ce ff ff ff       	callq  40593b <_ZNSt11_Tuple_implILm0EJPN10tensorflow6Status5StateESt14default_deleteIS2_EEE7_M_headERKS6_>
  40596d:	c9                   	leaveq 
  40596e:	c3                   	retq   

000000000040596f <_ZSt3getILm0EJPN10tensorflow6Status5StateESt14default_deleteIS2_EEERKNSt13tuple_elementIXT_ESt5tupleIJDpT0_EEE4typeERKSA_>:
  40596f:	55                   	push   %rbp
  405970:	48 89 e5             	mov    %rsp,%rbp
  405973:	48 83 ec 10          	sub    $0x10,%rsp
  405977:	48 89 7d f8          	mov    %rdi,-0x8(%rbp)
  40597b:	48 8b 45 f8          	mov    -0x8(%rbp),%rax
  40597f:	48 89 c7             	mov    %rax,%rdi
  405982:	e8 ce ff ff ff       	callq  405955 <_ZSt12__get_helperILm0EPN10tensorflow6Status5StateEJSt14default_deleteIS2_EEERKT0_RKSt11_Tuple_implIXT_EJS6_DpT1_EE>
  405987:	c9                   	leaveq 
  405988:	c3                   	retq   
  405989:	90                   	nop

000000000040598a <_ZNKSt10unique_ptrIN10tensorflow6Status5StateESt14default_deleteIS2_EE3getEv>:
  40598a:	55                   	push   %rbp
  40598b:	48 89 e5             	mov    %rsp,%rbp
  40598e:	48 83 ec 10          	sub    $0x10,%rsp
  405992:	48 89 7d f8          	mov    %rdi,-0x8(%rbp)
  405996:	48 8b 45 f8          	mov    -0x8(%rbp),%rax
  40599a:	48 89 c7             	mov    %rax,%rdi
  40599d:	e8 cd ff ff ff       	callq  40596f <_ZSt3getILm0EJPN10tensorflow6Status5StateESt14default_deleteIS2_EEERKNSt13tuple_elementIXT_ESt5tupleIJDpT0_EEE4typeERKSA_>
  4059a2:	48 8b 00             	mov    (%rax),%rax
  4059a5:	c9                   	leaveq 
  4059a6:	c3                   	retq   

00000000004059a7 <_ZStlsIcSt11char_traitsIcENSt7__cxx1112basic_stringIcS1_SaIcEEEERSt13basic_ostreamIT_T0_EOS9_RKT1_>:
  4059a7:	55                   	push   %rbp
  4059a8:	48 89 e5             	mov    %rsp,%rbp
  4059ab:	48 83 ec 10          	sub    $0x10,%rsp
  4059af:	48 89 7d f8          	mov    %rdi,-0x8(%rbp)
  4059b3:	48 89 75 f0          	mov    %rsi,-0x10(%rbp)
  4059b7:	48 8b 55 f0          	mov    -0x10(%rbp),%rdx
  4059bb:	48 8b 45 f8          	mov    -0x8(%rbp),%rax
  4059bf:	48 89 d6             	mov    %rdx,%rsi
  4059c2:	48 89 c7             	mov    %rax,%rdi
  4059c5:	e8 06 d4 ff ff       	callq  402dd0 <_ZStlsIcSt11char_traitsIcESaIcEERSt13basic_ostreamIT_T0_ES7_RKNSt7__cxx1112basic_stringIS4_S5_T1_EE@plt>
  4059ca:	48 8b 45 f8          	mov    -0x8(%rbp),%rax
  4059ce:	c9                   	leaveq 
  4059cf:	c3                   	retq   

00000000004059d0 <_ZN10tensorflow8internal12Check_EQImplIliEEPNSt7__cxx1112basic_stringIcSt11char_traitsIcESaIcEEERKT_RKT0_PKc>:
  4059d0:	55                   	push   %rbp
  4059d1:	48 89 e5             	mov    %rsp,%rbp
  4059d4:	48 83 ec 20          	sub    $0x20,%rsp
  4059d8:	48 89 7d f8          	mov    %rdi,-0x8(%rbp)
  4059dc:	48 89 75 f0          	mov    %rsi,-0x10(%rbp)
  4059e0:	48 89 55 e8          	mov    %rdx,-0x18(%rbp)
  4059e4:	48 8b 45 f8          	mov    -0x8(%rbp),%rax
  4059e8:	48 8b 10             	mov    (%rax),%rdx
  4059eb:	48 8b 45 f0          	mov    -0x10(%rbp),%rax
  4059ef:	8b 00                	mov    (%rax),%eax
  4059f1:	48 98                	cltq   
  4059f3:	48 39 c2             	cmp    %rax,%rdx
  4059f6:	75 07                	jne    4059ff <_ZN10tensorflow8internal12Check_EQImplIliEEPNSt7__cxx1112basic_stringIcSt11char_traitsIcESaIcEEERKT_RKT0_PKc+0x2f>
  4059f8:	b8 00 00 00 00       	mov    $0x0,%eax
  4059fd:	eb 17                	jmp    405a16 <_ZN10tensorflow8internal12Check_EQImplIliEEPNSt7__cxx1112basic_stringIcSt11char_traitsIcESaIcEEERKT_RKT0_PKc+0x46>
  4059ff:	48 8b 55 e8          	mov    -0x18(%rbp),%rdx
  405a03:	48 8b 4d f0          	mov    -0x10(%rbp),%rcx
  405a07:	48 8b 45 f8          	mov    -0x8(%rbp),%rax
  405a0b:	48 89 ce             	mov    %rcx,%rsi
  405a0e:	48 89 c7             	mov    %rax,%rdi
  405a11:	e8 12 10 00 00       	callq  406a28 <_ZN10tensorflow8internal17MakeCheckOpStringIliEEPNSt7__cxx1112basic_stringIcSt11char_traitsIcESaIcEEERKT_RKT0_PKc>
  405a16:	c9                   	leaveq 
  405a17:	c3                   	retq   

0000000000405a18 <_ZN10tensorflow8internal12Check_GEImplIliEEPNSt7__cxx1112basic_stringIcSt11char_traitsIcESaIcEEERKT_RKT0_PKc>:
  405a18:	55                   	push   %rbp
  405a19:	48 89 e5             	mov    %rsp,%rbp
  405a1c:	48 83 ec 20          	sub    $0x20,%rsp
  405a20:	48 89 7d f8          	mov    %rdi,-0x8(%rbp)
  405a24:	48 89 75 f0          	mov    %rsi,-0x10(%rbp)
  405a28:	48 89 55 e8          	mov    %rdx,-0x18(%rbp)
  405a2c:	48 8b 45 f8          	mov    -0x8(%rbp),%rax
  405a30:	48 8b 10             	mov    (%rax),%rdx
  405a33:	48 8b 45 f0          	mov    -0x10(%rbp),%rax
  405a37:	8b 00                	mov    (%rax),%eax
  405a39:	48 98                	cltq   
  405a3b:	48 39 c2             	cmp    %rax,%rdx
  405a3e:	7c 07                	jl     405a47 <_ZN10tensorflow8internal12Check_GEImplIliEEPNSt7__cxx1112basic_stringIcSt11char_traitsIcESaIcEEERKT_RKT0_PKc+0x2f>
  405a40:	b8 00 00 00 00       	mov    $0x0,%eax
  405a45:	eb 17                	jmp    405a5e <_ZN10tensorflow8internal12Check_GEImplIliEEPNSt7__cxx1112basic_stringIcSt11char_traitsIcESaIcEEERKT_RKT0_PKc+0x46>
  405a47:	48 8b 55 e8          	mov    -0x18(%rbp),%rdx
  405a4b:	48 8b 4d f0          	mov    -0x10(%rbp),%rcx
  405a4f:	48 8b 45 f8          	mov    -0x8(%rbp),%rax
  405a53:	48 89 ce             	mov    %rcx,%rsi
  405a56:	48 89 c7             	mov    %rax,%rdi
  405a59:	e8 ca 0f 00 00       	callq  406a28 <_ZN10tensorflow8internal17MakeCheckOpStringIliEEPNSt7__cxx1112basic_stringIcSt11char_traitsIcESaIcEEERKT_RKT0_PKc>
  405a5e:	c9                   	leaveq 
  405a5f:	c3                   	retq   

0000000000405a60 <_ZNK10tensorflow6Tensor4baseIvEEPT_v>:
  405a60:	55                   	push   %rbp
  405a61:	48 89 e5             	mov    %rsp,%rbp
  405a64:	48 83 ec 10          	sub    $0x10,%rsp
  405a68:	48 89 7d f8          	mov    %rdi,-0x8(%rbp)
  405a6c:	48 8b 45 f8          	mov    -0x8(%rbp),%rax
  405a70:	48 8b 40 18          	mov    0x18(%rax),%rax
  405a74:	48 85 c0             	test   %rax,%rax
  405a77:	74 12                	je     405a8b <_ZNK10tensorflow6Tensor4baseIvEEPT_v+0x2b>
  405a79:	48 8b 45 f8          	mov    -0x8(%rbp),%rax
  405a7d:	48 8b 40 18          	mov    0x18(%rax),%rax
  405a81:	48 89 c7             	mov    %rax,%rdi
  405a84:	e8 67 10 00 00       	callq  406af0 <_ZNK10tensorflow12TensorBuffer4baseIvEEPT_v>
  405a89:	eb 05                	jmp    405a90 <_ZNK10tensorflow6Tensor4baseIvEEPT_v+0x30>
  405a8b:	b8 00 00 00 00       	mov    $0x0,%eax
  405a90:	c9                   	leaveq 
  405a91:	c3                   	retq   

0000000000405a92 <_ZNSt6vectorISt4pairIPN10tensorflow4NodeEiESaIS4_EED1Ev>:
  405a92:	55                   	push   %rbp
  405a93:	48 89 e5             	mov    %rsp,%rbp
  405a96:	48 83 ec 10          	sub    $0x10,%rsp
  405a9a:	48 89 7d f8          	mov    %rdi,-0x8(%rbp)
  405a9e:	48 8b 45 f8          	mov    -0x8(%rbp),%rax
  405aa2:	48 89 c7             	mov    %rax,%rdi
  405aa5:	e8 d8 10 00 00       	callq  406b82 <_ZNSt12_Vector_baseISt4pairIPN10tensorflow4NodeEiESaIS4_EE19_M_get_Tp_allocatorEv>
  405aaa:	48 89 c2             	mov    %rax,%rdx
  405aad:	48 8b 45 f8          	mov    -0x8(%rbp),%rax
  405ab1:	48 8b 48 08          	mov    0x8(%rax),%rcx
  405ab5:	48 8b 45 f8          	mov    -0x8(%rbp),%rax
  405ab9:	48 8b 00             	mov    (%rax),%rax
  405abc:	48 89 ce             	mov    %rcx,%rsi
  405abf:	48 89 c7             	mov    %rax,%rdi
  405ac2:	e8 c9 10 00 00       	callq  406b90 <_ZSt8_DestroyIPSt4pairIPN10tensorflow4NodeEiES4_EvT_S6_RSaIT0_E>
  405ac7:	48 8b 45 f8          	mov    -0x8(%rbp),%rax
  405acb:	48 89 c7             	mov    %rax,%rdi
  405ace:	e8 5f 10 00 00       	callq  406b32 <_ZNSt12_Vector_baseISt4pairIPN10tensorflow4NodeEiESaIS4_EED1Ev>
  405ad3:	90                   	nop
  405ad4:	c9                   	leaveq 
  405ad5:	c3                   	retq   

0000000000405ad6 <_ZNSt6vectorISt4pairIPN10tensorflow4NodeEiESaIS4_EEC1ERKS6_>:
  405ad6:	55                   	push   %rbp
  405ad7:	48 89 e5             	mov    %rsp,%rbp
  405ada:	41 55                	push   %r13
  405adc:	41 54                	push   %r12
  405ade:	53                   	push   %rbx
  405adf:	48 83 ec 28          	sub    $0x28,%rsp
  405ae3:	48 89 7d c8          	mov    %rdi,-0x38(%rbp)
  405ae7:	48 89 75 c0          	mov    %rsi,-0x40(%rbp)
  405aeb:	64 48 8b 04 25 28 00 	mov    %fs:0x28,%rax
  405af2:	00 00 
  405af4:	48 89 45 d8          	mov    %rax,-0x28(%rbp)
  405af8:	31 c0                	xor    %eax,%eax
  405afa:	48 8b 45 c0          	mov    -0x40(%rbp),%rax
  405afe:	48 89 c7             	mov    %rax,%rdi
  405b01:	e8 26 11 00 00       	callq  406c2c <_ZNKSt12_Vector_baseISt4pairIPN10tensorflow4NodeEiESaIS4_EE19_M_get_Tp_allocatorEv>
  405b06:	48 89 c2             	mov    %rax,%rdx
  405b09:	48 8d 45 d7          	lea    -0x29(%rbp),%rax
  405b0d:	48 89 d6             	mov    %rdx,%rsi
  405b10:	48 89 c7             	mov    %rax,%rdi
  405b13:	e8 c8 10 00 00       	callq  406be0 <_ZN9__gnu_cxx14__alloc_traitsISaISt4pairIPN10tensorflow4NodeEiEEE17_S_select_on_copyERKS6_>
  405b18:	48 8b 45 c0          	mov    -0x40(%rbp),%rax
  405b1c:	48 89 c7             	mov    %rax,%rdi
  405b1f:	e8 96 10 00 00       	callq  406bba <_ZNKSt6vectorISt4pairIPN10tensorflow4NodeEiESaIS4_EE4sizeEv>
  405b24:	48 89 c1             	mov    %rax,%rcx
  405b27:	48 8b 45 c8          	mov    -0x38(%rbp),%rax
  405b2b:	48 8d 55 d7          	lea    -0x29(%rbp),%rdx
  405b2f:	48 89 ce             	mov    %rcx,%rsi
  405b32:	48 89 c7             	mov    %rax,%rdi
  405b35:	e8 1c 11 00 00       	callq  406c56 <_ZNSt12_Vector_baseISt4pairIPN10tensorflow4NodeEiESaIS4_EEC1EmRKS5_>
  405b3a:	48 8d 45 d7          	lea    -0x29(%rbp),%rax
  405b3e:	48 89 c7             	mov    %rax,%rdi
  405b41:	e8 f4 10 00 00       	callq  406c3a <_ZNSaISt4pairIPN10tensorflow4NodeEiEED1Ev>
  405b46:	48 8b 45 c8          	mov    -0x38(%rbp),%rax
  405b4a:	48 89 c7             	mov    %rax,%rdi
  405b4d:	e8 30 10 00 00       	callq  406b82 <_ZNSt12_Vector_baseISt4pairIPN10tensorflow4NodeEiESaIS4_EE19_M_get_Tp_allocatorEv>
  405b52:	49 89 c5             	mov    %rax,%r13
  405b55:	48 8b 45 c8          	mov    -0x38(%rbp),%rax
  405b59:	48 8b 18             	mov    (%rax),%rbx
  405b5c:	48 8b 45 c0          	mov    -0x40(%rbp),%rax
  405b60:	48 89 c7             	mov    %rax,%rdi
  405b63:	e8 a0 11 00 00       	callq  406d08 <_ZNKSt6vectorISt4pairIPN10tensorflow4NodeEiESaIS4_EE3endEv>
  405b68:	49 89 c4             	mov    %rax,%r12
  405b6b:	48 8b 45 c0          	mov    -0x40(%rbp),%rax
  405b6f:	48 89 c7             	mov    %rax,%rdi
  405b72:	e8 3d 11 00 00       	callq  406cb4 <_ZNKSt6vectorISt4pairIPN10tensorflow4NodeEiESaIS4_EE5beginEv>
  405b77:	4c 89 e9             	mov    %r13,%rcx
  405b7a:	48 89 da             	mov    %rbx,%rdx
  405b7d:	4c 89 e6             	mov    %r12,%rsi
  405b80:	48 89 c7             	mov    %rax,%rdi
  405b83:	e8 d4 11 00 00       	callq  406d5c <_ZSt22__uninitialized_copy_aIN9__gnu_cxx17__normal_iteratorIPKSt4pairIPN10tensorflow4NodeEiESt6vectorIS6_SaIS6_EEEEPS6_S6_ET0_T_SF_SE_RSaIT1_E>
  405b88:	48 89 c2             	mov    %rax,%rdx
  405b8b:	48 8b 45 c8          	mov    -0x38(%rbp),%rax
  405b8f:	48 89 50 08          	mov    %rdx,0x8(%rax)
  405b93:	90                   	nop
  405b94:	48 8b 45 d8          	mov    -0x28(%rbp),%rax
  405b98:	64 48 33 04 25 28 00 	xor    %fs:0x28,%rax
  405b9f:	00 00 
  405ba1:	74 3b                	je     405bde <_ZNSt6vectorISt4pairIPN10tensorflow4NodeEiESaIS4_EEC1ERKS6_+0x108>
  405ba3:	eb 34                	jmp    405bd9 <_ZNSt6vectorISt4pairIPN10tensorflow4NodeEiESaIS4_EEC1ERKS6_+0x103>
  405ba5:	48 89 c3             	mov    %rax,%rbx
  405ba8:	48 8d 45 d7          	lea    -0x29(%rbp),%rax
  405bac:	48 89 c7             	mov    %rax,%rdi
  405baf:	e8 86 10 00 00       	callq  406c3a <_ZNSaISt4pairIPN10tensorflow4NodeEiEED1Ev>
  405bb4:	48 89 d8             	mov    %rbx,%rax
  405bb7:	48 89 c7             	mov    %rax,%rdi
  405bba:	e8 c1 d3 ff ff       	callq  402f80 <_Unwind_Resume@plt>
  405bbf:	48 89 c3             	mov    %rax,%rbx
  405bc2:	48 8b 45 c8          	mov    -0x38(%rbp),%rax
  405bc6:	48 89 c7             	mov    %rax,%rdi
  405bc9:	e8 64 0f 00 00       	callq  406b32 <_ZNSt12_Vector_baseISt4pairIPN10tensorflow4NodeEiESaIS4_EED1Ev>
  405bce:	48 89 d8             	mov    %rbx,%rax
  405bd1:	48 89 c7             	mov    %rax,%rdi
  405bd4:	e8 a7 d3 ff ff       	callq  402f80 <_Unwind_Resume@plt>
  405bd9:	e8 f2 d0 ff ff       	callq  402cd0 <__stack_chk_fail@plt>
  405bde:	48 83 c4 28          	add    $0x28,%rsp
  405be2:	5b                   	pop    %rbx
  405be3:	41 5c                	pop    %r12
  405be5:	41 5d                	pop    %r13
  405be7:	5d                   	pop    %rbp
  405be8:	c3                   	retq   
  405be9:	90                   	nop

0000000000405bea <_ZNK6google8protobuf16RepeatedPtrFieldIN10tensorflow13NodeExecStatsEE4sizeEv>:
  405bea:	55                   	push   %rbp
  405beb:	48 89 e5             	mov    %rsp,%rbp
  405bee:	48 83 ec 10          	sub    $0x10,%rsp
  405bf2:	48 89 7d f8          	mov    %rdi,-0x8(%rbp)
  405bf6:	48 8b 45 f8          	mov    -0x8(%rbp),%rax
  405bfa:	48 89 c7             	mov    %rax,%rdi
  405bfd:	e8 16 e2 ff ff       	callq  403e18 <_ZNK6google8protobuf8internal20RepeatedPtrFieldBase4sizeEv>
  405c02:	c9                   	leaveq 
  405c03:	c3                   	retq   

0000000000405c04 <_ZNK6google8protobuf16RepeatedPtrFieldIN10tensorflow15DeviceStepStatsEE4sizeEv>:
  405c04:	55                   	push   %rbp
  405c05:	48 89 e5             	mov    %rsp,%rbp
  405c08:	48 83 ec 10          	sub    $0x10,%rsp
  405c0c:	48 89 7d f8          	mov    %rdi,-0x8(%rbp)
  405c10:	48 8b 45 f8          	mov    -0x8(%rbp),%rax
  405c14:	48 89 c7             	mov    %rax,%rdi
  405c17:	e8 fc e1 ff ff       	callq  403e18 <_ZNK6google8protobuf8internal20RepeatedPtrFieldBase4sizeEv>
  405c1c:	c9                   	leaveq 
  405c1d:	c3                   	retq   

0000000000405c1e <_ZNKSt16initializer_listIiE5beginEv>:
  405c1e:	55                   	push   %rbp
  405c1f:	48 89 e5             	mov    %rsp,%rbp
  405c22:	48 89 7d f8          	mov    %rdi,-0x8(%rbp)
  405c26:	48 8b 45 f8          	mov    -0x8(%rbp),%rax
  405c2a:	48 8b 00             	mov    (%rax),%rax
  405c2d:	5d                   	pop    %rbp
  405c2e:	c3                   	retq   
  405c2f:	90                   	nop

0000000000405c30 <_ZNKSt16initializer_listIiE4sizeEv>:
  405c30:	55                   	push   %rbp
  405c31:	48 89 e5             	mov    %rsp,%rbp
  405c34:	48 89 7d f8          	mov    %rdi,-0x8(%rbp)
  405c38:	48 8b 45 f8          	mov    -0x8(%rbp),%rax
  405c3c:	48 8b 40 08          	mov    0x8(%rax),%rax
  405c40:	5d                   	pop    %rbp
  405c41:	c3                   	retq   

0000000000405c42 <_ZN10tensorflow3gtl20array_slice_internal14ArraySliceImplIiEC1EPKim>:
  405c42:	55                   	push   %rbp
  405c43:	48 89 e5             	mov    %rsp,%rbp
  405c46:	48 83 ec 20          	sub    $0x20,%rsp
  405c4a:	48 89 7d f8          	mov    %rdi,-0x8(%rbp)
  405c4e:	48 89 75 f0          	mov    %rsi,-0x10(%rbp)
  405c52:	48 89 55 e8          	mov    %rdx,-0x18(%rbp)
  405c56:	48 8b 55 e8          	mov    -0x18(%rbp),%rdx
  405c5a:	48 8b 4d f0          	mov    -0x10(%rbp),%rcx
  405c5e:	48 8b 45 f8          	mov    -0x8(%rbp),%rax
  405c62:	48 89 ce             	mov    %rcx,%rsi
  405c65:	48 89 c7             	mov    %rax,%rdi
  405c68:	e8 21 11 00 00       	callq  406d8e <_ZN10tensorflow3gtl20array_slice_internal18ArraySliceImplBaseIKiEC1EPS3_m>
  405c6d:	90                   	nop
  405c6e:	c9                   	leaveq 
  405c6f:	c3                   	retq   

0000000000405c70 <_ZN10tensorflow3gtl10ArraySliceIiEC1ESt16initializer_listIiE>:
  405c70:	55                   	push   %rbp
  405c71:	48 89 e5             	mov    %rsp,%rbp
  405c74:	53                   	push   %rbx
  405c75:	48 83 ec 28          	sub    $0x28,%rsp
  405c79:	48 89 7d e8          	mov    %rdi,-0x18(%rbp)
  405c7d:	48 89 f0             	mov    %rsi,%rax
  405c80:	48 89 d1             	mov    %rdx,%rcx
  405c83:	48 89 ca             	mov    %rcx,%rdx
  405c86:	48 89 45 d0          	mov    %rax,-0x30(%rbp)
  405c8a:	48 89 55 d8          	mov    %rdx,-0x28(%rbp)
  405c8e:	48 8d 45 d0          	lea    -0x30(%rbp),%rax
  405c92:	48 89 c7             	mov    %rax,%rdi
  405c95:	e8 96 ff ff ff       	callq  405c30 <_ZNKSt16initializer_listIiE4sizeEv>
  405c9a:	48 89 c3             	mov    %rax,%rbx
  405c9d:	48 8d 45 d0          	lea    -0x30(%rbp),%rax
  405ca1:	48 89 c7             	mov    %rax,%rdi
  405ca4:	e8 75 ff ff ff       	callq  405c1e <_ZNKSt16initializer_listIiE5beginEv>
  405ca9:	48 89 c1             	mov    %rax,%rcx
  405cac:	48 8b 45 e8          	mov    -0x18(%rbp),%rax
  405cb0:	48 89 da             	mov    %rbx,%rdx
  405cb3:	48 89 ce             	mov    %rcx,%rsi
  405cb6:	48 89 c7             	mov    %rax,%rdi
  405cb9:	e8 84 ff ff ff       	callq  405c42 <_ZN10tensorflow3gtl20array_slice_internal14ArraySliceImplIiEC1EPKim>
  405cbe:	90                   	nop
  405cbf:	48 83 c4 28          	add    $0x28,%rsp
  405cc3:	5b                   	pop    %rbx
  405cc4:	5d                   	pop    %rbp
  405cc5:	c3                   	retq   

0000000000405cc6 <_ZNK6google8protobuf16RepeatedPtrFieldIN10tensorflow15DeviceStepStatsEE5beginEv>:
  405cc6:	55                   	push   %rbp
  405cc7:	48 89 e5             	mov    %rsp,%rbp
  405cca:	48 83 ec 30          	sub    $0x30,%rsp
  405cce:	48 89 7d d8          	mov    %rdi,-0x28(%rbp)
  405cd2:	64 48 8b 04 25 28 00 	mov    %fs:0x28,%rax
  405cd9:	00 00 
  405cdb:	48 89 45 f8          	mov    %rax,-0x8(%rbp)
  405cdf:	31 c0                	xor    %eax,%eax
  405ce1:	48 8b 45 d8          	mov    -0x28(%rbp),%rax
  405ce5:	48 89 c7             	mov    %rax,%rdi
  405ce8:	e8 3d e1 ff ff       	callq  403e2a <_ZNK6google8protobuf8internal20RepeatedPtrFieldBase8raw_dataEv>
  405ced:	48 89 c2             	mov    %rax,%rdx
  405cf0:	48 8d 45 e8          	lea    -0x18(%rbp),%rax
  405cf4:	48 89 d6             	mov    %rdx,%rsi
  405cf7:	48 89 c7             	mov    %rax,%rdi
  405cfa:	e8 c5 10 00 00       	callq  406dc4 <_ZN6google8protobuf8internal19RepeatedPtrIteratorIN10tensorflow15DeviceStepStatsEEC1EPKPv>
  405cff:	48 8d 55 e8          	lea    -0x18(%rbp),%rdx
  405d03:	48 8d 45 f0          	lea    -0x10(%rbp),%rax
  405d07:	48 89 d6             	mov    %rdx,%rsi
  405d0a:	48 89 c7             	mov    %rax,%rdi
  405d0d:	e8 e8 10 00 00       	callq  406dfa <_ZN6google8protobuf8internal19RepeatedPtrIteratorIKN10tensorflow15DeviceStepStatsEEC1IS4_EERKNS2_IT_EE>
  405d12:	48 8b 45 f0          	mov    -0x10(%rbp),%rax
  405d16:	48 8b 4d f8          	mov    -0x8(%rbp),%rcx
  405d1a:	64 48 33 0c 25 28 00 	xor    %fs:0x28,%rcx
  405d21:	00 00 
  405d23:	74 05                	je     405d2a <_ZNK6google8protobuf16RepeatedPtrFieldIN10tensorflow15DeviceStepStatsEE5beginEv+0x64>
  405d25:	e8 a6 cf ff ff       	callq  402cd0 <__stack_chk_fail@plt>
  405d2a:	c9                   	leaveq 
  405d2b:	c3                   	retq   

0000000000405d2c <_ZNK6google8protobuf16RepeatedPtrFieldIN10tensorflow15DeviceStepStatsEE3endEv>:
  405d2c:	55                   	push   %rbp
  405d2d:	48 89 e5             	mov    %rsp,%rbp
  405d30:	53                   	push   %rbx
  405d31:	48 83 ec 38          	sub    $0x38,%rsp
  405d35:	48 89 7d c8          	mov    %rdi,-0x38(%rbp)
  405d39:	64 48 8b 04 25 28 00 	mov    %fs:0x28,%rax
  405d40:	00 00 
  405d42:	48 89 45 e8          	mov    %rax,-0x18(%rbp)
  405d46:	31 c0                	xor    %eax,%eax
  405d48:	48 8b 45 c8          	mov    -0x38(%rbp),%rax
  405d4c:	48 89 c7             	mov    %rax,%rdi
  405d4f:	e8 d6 e0 ff ff       	callq  403e2a <_ZNK6google8protobuf8internal20RepeatedPtrFieldBase8raw_dataEv>
  405d54:	48 89 c3             	mov    %rax,%rbx
  405d57:	48 8b 45 c8          	mov    -0x38(%rbp),%rax
  405d5b:	48 89 c7             	mov    %rax,%rdi
  405d5e:	e8 a1 fe ff ff       	callq  405c04 <_ZNK6google8protobuf16RepeatedPtrFieldIN10tensorflow15DeviceStepStatsEE4sizeEv>
  405d63:	48 98                	cltq   
  405d65:	48 c1 e0 03          	shl    $0x3,%rax
  405d69:	48 8d 14 03          	lea    (%rbx,%rax,1),%rdx
  405d6d:	48 8d 45 d8          	lea    -0x28(%rbp),%rax
  405d71:	48 89 d6             	mov    %rdx,%rsi
  405d74:	48 89 c7             	mov    %rax,%rdi
  405d77:	e8 48 10 00 00       	callq  406dc4 <_ZN6google8protobuf8internal19RepeatedPtrIteratorIN10tensorflow15DeviceStepStatsEEC1EPKPv>
  405d7c:	48 8d 55 d8          	lea    -0x28(%rbp),%rdx
  405d80:	48 8d 45 e0          	lea    -0x20(%rbp),%rax
  405d84:	48 89 d6             	mov    %rdx,%rsi
  405d87:	48 89 c7             	mov    %rax,%rdi
  405d8a:	e8 6b 10 00 00       	callq  406dfa <_ZN6google8protobuf8internal19RepeatedPtrIteratorIKN10tensorflow15DeviceStepStatsEEC1IS4_EERKNS2_IT_EE>
  405d8f:	48 8b 45 e0          	mov    -0x20(%rbp),%rax
  405d93:	48 8b 4d e8          	mov    -0x18(%rbp),%rcx
  405d97:	64 48 33 0c 25 28 00 	xor    %fs:0x28,%rcx
  405d9e:	00 00 
  405da0:	74 05                	je     405da7 <_ZNK6google8protobuf16RepeatedPtrFieldIN10tensorflow15DeviceStepStatsEE3endEv+0x7b>
  405da2:	e8 29 cf ff ff       	callq  402cd0 <__stack_chk_fail@plt>
  405da7:	48 83 c4 38          	add    $0x38,%rsp
  405dab:	5b                   	pop    %rbx
  405dac:	5d                   	pop    %rbp
  405dad:	c3                   	retq   

0000000000405dae <_ZNK6google8protobuf8internal19RepeatedPtrIteratorIKN10tensorflow15DeviceStepStatsEEneERKS6_>:
  405dae:	55                   	push   %rbp
  405daf:	48 89 e5             	mov    %rsp,%rbp
  405db2:	48 89 7d f8          	mov    %rdi,-0x8(%rbp)
  405db6:	48 89 75 f0          	mov    %rsi,-0x10(%rbp)
  405dba:	48 8b 45 f8          	mov    -0x8(%rbp),%rax
  405dbe:	48 8b 10             	mov    (%rax),%rdx
  405dc1:	48 8b 45 f0          	mov    -0x10(%rbp),%rax
  405dc5:	48 8b 00             	mov    (%rax),%rax
  405dc8:	48 39 c2             	cmp    %rax,%rdx
  405dcb:	0f 95 c0             	setne  %al
  405dce:	5d                   	pop    %rbp
  405dcf:	c3                   	retq   

0000000000405dd0 <_ZN6google8protobuf8internal19RepeatedPtrIteratorIKN10tensorflow15DeviceStepStatsEEppEv>:
  405dd0:	55                   	push   %rbp
  405dd1:	48 89 e5             	mov    %rsp,%rbp
  405dd4:	48 89 7d f8          	mov    %rdi,-0x8(%rbp)
  405dd8:	48 8b 45 f8          	mov    -0x8(%rbp),%rax
  405ddc:	48 8b 00             	mov    (%rax),%rax
  405ddf:	48 8d 50 08          	lea    0x8(%rax),%rdx
  405de3:	48 8b 45 f8          	mov    -0x8(%rbp),%rax
  405de7:	48 89 10             	mov    %rdx,(%rax)
  405dea:	48 8b 45 f8          	mov    -0x8(%rbp),%rax
  405dee:	5d                   	pop    %rbp
  405def:	c3                   	retq   

0000000000405df0 <_ZNK6google8protobuf8internal19RepeatedPtrIteratorIKN10tensorflow15DeviceStepStatsEEdeEv>:
  405df0:	55                   	push   %rbp
  405df1:	48 89 e5             	mov    %rsp,%rbp
  405df4:	48 89 7d f8          	mov    %rdi,-0x8(%rbp)
  405df8:	48 8b 45 f8          	mov    -0x8(%rbp),%rax
  405dfc:	48 8b 00             	mov    (%rax),%rax
  405dff:	48 8b 00             	mov    (%rax),%rax
  405e02:	5d                   	pop    %rbp
  405e03:	c3                   	retq   

0000000000405e04 <_ZNK6google8protobuf16RepeatedPtrFieldIN10tensorflow13NodeExecStatsEE5beginEv>:
  405e04:	55                   	push   %rbp
  405e05:	48 89 e5             	mov    %rsp,%rbp
  405e08:	48 83 ec 30          	sub    $0x30,%rsp
  405e0c:	48 89 7d d8          	mov    %rdi,-0x28(%rbp)
  405e10:	64 48 8b 04 25 28 00 	mov    %fs:0x28,%rax
  405e17:	00 00 
  405e19:	48 89 45 f8          	mov    %rax,-0x8(%rbp)
  405e1d:	31 c0                	xor    %eax,%eax
  405e1f:	48 8b 45 d8          	mov    -0x28(%rbp),%rax
  405e23:	48 89 c7             	mov    %rax,%rdi
  405e26:	e8 ff df ff ff       	callq  403e2a <_ZNK6google8protobuf8internal20RepeatedPtrFieldBase8raw_dataEv>
  405e2b:	48 89 c2             	mov    %rax,%rdx
  405e2e:	48 8d 45 e8          	lea    -0x18(%rbp),%rax
  405e32:	48 89 d6             	mov    %rdx,%rsi
  405e35:	48 89 c7             	mov    %rax,%rdi
  405e38:	e8 19 10 00 00       	callq  406e56 <_ZN6google8protobuf8internal19RepeatedPtrIteratorIN10tensorflow13NodeExecStatsEEC1EPKPv>
  405e3d:	48 8d 55 e8          	lea    -0x18(%rbp),%rdx
  405e41:	48 8d 45 f0          	lea    -0x10(%rbp),%rax
  405e45:	48 89 d6             	mov    %rdx,%rsi
  405e48:	48 89 c7             	mov    %rax,%rdi
  405e4b:	e8 3c 10 00 00       	callq  406e8c <_ZN6google8protobuf8internal19RepeatedPtrIteratorIKN10tensorflow13NodeExecStatsEEC1IS4_EERKNS2_IT_EE>
  405e50:	48 8b 45 f0          	mov    -0x10(%rbp),%rax
  405e54:	48 8b 4d f8          	mov    -0x8(%rbp),%rcx
  405e58:	64 48 33 0c 25 28 00 	xor    %fs:0x28,%rcx
  405e5f:	00 00 
  405e61:	74 05                	je     405e68 <_ZNK6google8protobuf16RepeatedPtrFieldIN10tensorflow13NodeExecStatsEE5beginEv+0x64>
  405e63:	e8 68 ce ff ff       	callq  402cd0 <__stack_chk_fail@plt>
  405e68:	c9                   	leaveq 
  405e69:	c3                   	retq   

0000000000405e6a <_ZNK6google8protobuf16RepeatedPtrFieldIN10tensorflow13NodeExecStatsEE3endEv>:
  405e6a:	55                   	push   %rbp
  405e6b:	48 89 e5             	mov    %rsp,%rbp
  405e6e:	53                   	push   %rbx
  405e6f:	48 83 ec 38          	sub    $0x38,%rsp
  405e73:	48 89 7d c8          	mov    %rdi,-0x38(%rbp)
  405e77:	64 48 8b 04 25 28 00 	mov    %fs:0x28,%rax
  405e7e:	00 00 
  405e80:	48 89 45 e8          	mov    %rax,-0x18(%rbp)
  405e84:	31 c0                	xor    %eax,%eax
  405e86:	48 8b 45 c8          	mov    -0x38(%rbp),%rax
  405e8a:	48 89 c7             	mov    %rax,%rdi
  405e8d:	e8 98 df ff ff       	callq  403e2a <_ZNK6google8protobuf8internal20RepeatedPtrFieldBase8raw_dataEv>
  405e92:	48 89 c3             	mov    %rax,%rbx
  405e95:	48 8b 45 c8          	mov    -0x38(%rbp),%rax
  405e99:	48 89 c7             	mov    %rax,%rdi
  405e9c:	e8 49 fd ff ff       	callq  405bea <_ZNK6google8protobuf16RepeatedPtrFieldIN10tensorflow13NodeExecStatsEE4sizeEv>
  405ea1:	48 98                	cltq   
  405ea3:	48 c1 e0 03          	shl    $0x3,%rax
  405ea7:	48 8d 14 03          	lea    (%rbx,%rax,1),%rdx
  405eab:	48 8d 45 d8          	lea    -0x28(%rbp),%rax
  405eaf:	48 89 d6             	mov    %rdx,%rsi
  405eb2:	48 89 c7             	mov    %rax,%rdi
  405eb5:	e8 9c 0f 00 00       	callq  406e56 <_ZN6google8protobuf8internal19RepeatedPtrIteratorIN10tensorflow13NodeExecStatsEEC1EPKPv>
  405eba:	48 8d 55 d8          	lea    -0x28(%rbp),%rdx
  405ebe:	48 8d 45 e0          	lea    -0x20(%rbp),%rax
  405ec2:	48 89 d6             	mov    %rdx,%rsi
  405ec5:	48 89 c7             	mov    %rax,%rdi
  405ec8:	e8 bf 0f 00 00       	callq  406e8c <_ZN6google8protobuf8internal19RepeatedPtrIteratorIKN10tensorflow13NodeExecStatsEEC1IS4_EERKNS2_IT_EE>
  405ecd:	48 8b 45 e0          	mov    -0x20(%rbp),%rax
  405ed1:	48 8b 4d e8          	mov    -0x18(%rbp),%rcx
  405ed5:	64 48 33 0c 25 28 00 	xor    %fs:0x28,%rcx
  405edc:	00 00 
  405ede:	74 05                	je     405ee5 <_ZNK6google8protobuf16RepeatedPtrFieldIN10tensorflow13NodeExecStatsEE3endEv+0x7b>
  405ee0:	e8 eb cd ff ff       	callq  402cd0 <__stack_chk_fail@plt>
  405ee5:	48 83 c4 38          	add    $0x38,%rsp
  405ee9:	5b                   	pop    %rbx
  405eea:	5d                   	pop    %rbp
  405eeb:	c3                   	retq   

0000000000405eec <_ZNK6google8protobuf8internal19RepeatedPtrIteratorIKN10tensorflow13NodeExecStatsEEneERKS6_>:
  405eec:	55                   	push   %rbp
  405eed:	48 89 e5             	mov    %rsp,%rbp
  405ef0:	48 89 7d f8          	mov    %rdi,-0x8(%rbp)
  405ef4:	48 89 75 f0          	mov    %rsi,-0x10(%rbp)
  405ef8:	48 8b 45 f8          	mov    -0x8(%rbp),%rax
  405efc:	48 8b 10             	mov    (%rax),%rdx
  405eff:	48 8b 45 f0          	mov    -0x10(%rbp),%rax
  405f03:	48 8b 00             	mov    (%rax),%rax
  405f06:	48 39 c2             	cmp    %rax,%rdx
  405f09:	0f 95 c0             	setne  %al
  405f0c:	5d                   	pop    %rbp
  405f0d:	c3                   	retq   

0000000000405f0e <_ZN6google8protobuf8internal19RepeatedPtrIteratorIKN10tensorflow13NodeExecStatsEEppEv>:
  405f0e:	55                   	push   %rbp
  405f0f:	48 89 e5             	mov    %rsp,%rbp
  405f12:	48 89 7d f8          	mov    %rdi,-0x8(%rbp)
  405f16:	48 8b 45 f8          	mov    -0x8(%rbp),%rax
  405f1a:	48 8b 00             	mov    (%rax),%rax
  405f1d:	48 8d 50 08          	lea    0x8(%rax),%rdx
  405f21:	48 8b 45 f8          	mov    -0x8(%rbp),%rax
  405f25:	48 89 10             	mov    %rdx,(%rax)
  405f28:	48 8b 45 f8          	mov    -0x8(%rbp),%rax
  405f2c:	5d                   	pop    %rbp
  405f2d:	c3                   	retq   

0000000000405f2e <_ZNK6google8protobuf8internal19RepeatedPtrIteratorIKN10tensorflow13NodeExecStatsEEdeEv>:
  405f2e:	55                   	push   %rbp
  405f2f:	48 89 e5             	mov    %rsp,%rbp
  405f32:	48 89 7d f8          	mov    %rdi,-0x8(%rbp)
  405f36:	48 8b 45 f8          	mov    -0x8(%rbp),%rax
  405f3a:	48 8b 00             	mov    (%rax),%rax
  405f3d:	48 8b 00             	mov    (%rax),%rax
  405f40:	5d                   	pop    %rbp
  405f41:	c3                   	retq   

0000000000405f42 <_ZN2CK19get_random_raw_dataIfEEPT_RKNS_5ShapeE>:
  405f42:	55                   	push   %rbp
  405f43:	48 89 e5             	mov    %rsp,%rbp
  405f46:	53                   	push   %rbx
  405f47:	48 83 ec 38          	sub    $0x38,%rsp
  405f4b:	48 89 7d c8          	mov    %rdi,-0x38(%rbp)
  405f4f:	ba 20 00 00 00       	mov    $0x20,%edx
  405f54:	be ba 94 40 00       	mov    $0x4094ba,%esi
  405f59:	bf 09 00 00 00       	mov    $0x9,%edi
  405f5e:	e8 c9 ec ff ff       	callq  404c2c <_ZN2CK13store_value_iEiPKci>
  405f63:	c7 45 dc 40 42 0f 00 	movl   $0xf4240,-0x24(%rbp)
  405f6a:	c7 45 e0 81 84 1e 00 	movl   $0x1e8481,-0x20(%rbp)
  405f71:	48 8b 45 c8          	mov    -0x38(%rbp),%rax
  405f75:	48 89 c7             	mov    %rax,%rdi
  405f78:	e8 81 eb ff ff       	callq  404afe <_ZNK2CK5Shape10data_countEv>
  405f7d:	89 45 e4             	mov    %eax,-0x1c(%rbp)
  405f80:	8b 45 e4             	mov    -0x1c(%rbp),%eax
  405f83:	48 63 d0             	movslq %eax,%rdx
  405f86:	48 b8 fe ff ff ff ff 	movabs $0x1ffffffffffffffe,%rax
  405f8d:	ff ff 1f 
  405f90:	48 39 c2             	cmp    %rax,%rdx
  405f93:	77 1e                	ja     405fb3 <_ZN2CK19get_random_raw_dataIfEEPT_RKNS_5ShapeE+0x71>
  405f95:	8b 45 e4             	mov    -0x1c(%rbp),%eax
  405f98:	48 98                	cltq   
  405f9a:	48 c1 e0 02          	shl    $0x2,%rax
  405f9e:	48 89 c7             	mov    %rax,%rdi
  405fa1:	e8 1a d1 ff ff       	callq  4030c0 <_Znam@plt>
  405fa6:	48 89 45 e8          	mov    %rax,-0x18(%rbp)
  405faa:	c7 45 d8 00 00 00 00 	movl   $0x0,-0x28(%rbp)
  405fb1:	eb 05                	jmp    405fb8 <_ZN2CK19get_random_raw_dataIfEEPT_RKNS_5ShapeE+0x76>
  405fb3:	e8 78 d1 ff ff       	callq  403130 <__cxa_throw_bad_array_new_length@plt>
  405fb8:	8b 45 d8             	mov    -0x28(%rbp),%eax
  405fbb:	3b 45 e4             	cmp    -0x1c(%rbp),%eax
  405fbe:	7d 5e                	jge    40601e <_ZN2CK19get_random_raw_dataIfEEPT_RKNS_5ShapeE+0xdc>
  405fc0:	8b 45 d8             	mov    -0x28(%rbp),%eax
  405fc3:	48 98                	cltq   
  405fc5:	48 8d 14 85 00 00 00 	lea    0x0(,%rax,4),%rdx
  405fcc:	00 
  405fcd:	48 8b 45 e8          	mov    -0x18(%rbp),%rax
  405fd1:	48 8d 1c 02          	lea    (%rdx,%rax,1),%rbx
  405fd5:	e8 96 d1 ff ff       	callq  403170 <rand@plt>
  405fda:	89 c1                	mov    %eax,%ecx
  405fdc:	ba c5 bd 31 04       	mov    $0x431bdc5,%edx
  405fe1:	89 c8                	mov    %ecx,%eax
  405fe3:	f7 ea                	imul   %edx
  405fe5:	c1 fa 0f             	sar    $0xf,%edx
  405fe8:	89 c8                	mov    %ecx,%eax
  405fea:	c1 f8 1f             	sar    $0x1f,%eax
  405fed:	29 c2                	sub    %eax,%edx
  405fef:	89 d0                	mov    %edx,%eax
  405ff1:	69 c0 81 84 1e 00    	imul   $0x1e8481,%eax,%eax
  405ff7:	29 c1                	sub    %eax,%ecx
  405ff9:	89 c8                	mov    %ecx,%eax
  405ffb:	2d 40 42 0f 00       	sub    $0xf4240,%eax
  406000:	66 0f ef c0          	pxor   %xmm0,%xmm0
  406004:	f3 0f 2a c0          	cvtsi2ss %eax,%xmm0
  406008:	f3 0f 10 0d 04 37 00 	movss  0x3704(%rip),%xmm1        # 409714 <_ZZN2CK2TF16process_metadataERKN10tensorflow11RunMetadataEPKcE19__PRETTY_FUNCTION__+0x54>
  40600f:	00 
  406010:	f3 0f 5e c1          	divss  %xmm1,%xmm0
  406014:	f3 0f 11 03          	movss  %xmm0,(%rbx)
  406018:	83 45 d8 01          	addl   $0x1,-0x28(%rbp)
  40601c:	eb 9a                	jmp    405fb8 <_ZN2CK19get_random_raw_dataIfEEPT_RKNS_5ShapeE+0x76>
  40601e:	48 8b 45 e8          	mov    -0x18(%rbp),%rax
  406022:	48 83 c4 38          	add    $0x38,%rsp
  406026:	5b                   	pop    %rbx
  406027:	5d                   	pop    %rbp
  406028:	c3                   	retq   

0000000000406029 <_ZN2CK20print_input_raw_dataIfEEvPT_RKNS_5ShapeE>:
  406029:	55                   	push   %rbp
  40602a:	48 89 e5             	mov    %rsp,%rbp
  40602d:	48 83 ec 10          	sub    $0x10,%rsp
  406031:	48 89 7d f8          	mov    %rdi,-0x8(%rbp)
  406035:	48 89 75 f0          	mov    %rsi,-0x10(%rbp)
  406039:	48 8b 75 f0          	mov    -0x10(%rbp),%rsi
  40603d:	48 8b 45 f8          	mov    -0x8(%rbp),%rax
  406041:	b9 c4 94 40 00       	mov    $0x4094c4,%ecx
  406046:	ba ca 94 40 00       	mov    $0x4094ca,%edx
  40604b:	48 89 c7             	mov    %rax,%rdi
  40604e:	e8 31 0f 00 00       	callq  406f84 <_ZN2CK12log_raw_dataIfEEvPT_RKNS_5ShapeEPKcS7_>
  406053:	90                   	nop
  406054:	c9                   	leaveq 
  406055:	c3                   	retq   

0000000000406056 <_ZN2CK32convert_data_layout_NCHW_to_NHWCIfEEvPT_RKNS_5ShapeE>:
  406056:	55                   	push   %rbp
  406057:	48 89 e5             	mov    %rsp,%rbp
  40605a:	48 83 ec 30          	sub    $0x30,%rsp
  40605e:	48 89 7d d8          	mov    %rdi,-0x28(%rbp)
  406062:	48 89 75 d0          	mov    %rsi,-0x30(%rbp)
  406066:	48 8b 45 d0          	mov    -0x30(%rbp),%rax
  40606a:	48 89 c7             	mov    %rax,%rdi
  40606d:	e8 8c ea ff ff       	callq  404afe <_ZNK2CK5Shape10data_countEv>
  406072:	48 98                	cltq   
  406074:	48 ba fe ff ff ff ff 	movabs $0x1ffffffffffffffe,%rdx
  40607b:	ff ff 1f 
  40607e:	48 39 d0             	cmp    %rdx,%rax
  406081:	77 19                	ja     40609c <_ZN2CK32convert_data_layout_NCHW_to_NHWCIfEEvPT_RKNS_5ShapeE+0x46>
  406083:	48 c1 e0 02          	shl    $0x2,%rax
  406087:	48 89 c7             	mov    %rax,%rdi
  40608a:	e8 31 d0 ff ff       	callq  4030c0 <_Znam@plt>
  40608f:	48 89 45 f8          	mov    %rax,-0x8(%rbp)
  406093:	c7 45 e0 00 00 00 00 	movl   $0x0,-0x20(%rbp)
  40609a:	eb 05                	jmp    4060a1 <_ZN2CK32convert_data_layout_NCHW_to_NHWCIfEEvPT_RKNS_5ShapeE+0x4b>
  40609c:	e8 8f d0 ff ff       	callq  403130 <__cxa_throw_bad_array_new_length@plt>
  4060a1:	48 8b 45 d0          	mov    -0x30(%rbp),%rax
  4060a5:	8b 00                	mov    (%rax),%eax
  4060a7:	3b 45 e0             	cmp    -0x20(%rbp),%eax
  4060aa:	0f 8e cf 00 00 00    	jle    40617f <_ZN2CK32convert_data_layout_NCHW_to_NHWCIfEEvPT_RKNS_5ShapeE+0x129>
  4060b0:	c7 45 e4 00 00 00 00 	movl   $0x0,-0x1c(%rbp)
  4060b7:	48 8b 45 d0          	mov    -0x30(%rbp),%rax
  4060bb:	8b 40 04             	mov    0x4(%rax),%eax
  4060be:	3b 45 e4             	cmp    -0x1c(%rbp),%eax
  4060c1:	0f 8e af 00 00 00    	jle    406176 <_ZN2CK32convert_data_layout_NCHW_to_NHWCIfEEvPT_RKNS_5ShapeE+0x120>
  4060c7:	c7 45 e8 00 00 00 00 	movl   $0x0,-0x18(%rbp)
  4060ce:	48 8b 45 d0          	mov    -0x30(%rbp),%rax
  4060d2:	8b 40 08             	mov    0x8(%rax),%eax
  4060d5:	3b 45 e8             	cmp    -0x18(%rbp),%eax
  4060d8:	0f 8e 8f 00 00 00    	jle    40616d <_ZN2CK32convert_data_layout_NCHW_to_NHWCIfEEvPT_RKNS_5ShapeE+0x117>
  4060de:	c7 45 ec 00 00 00 00 	movl   $0x0,-0x14(%rbp)
  4060e5:	48 8b 45 d0          	mov    -0x30(%rbp),%rax
  4060e9:	8b 40 0c             	mov    0xc(%rax),%eax
  4060ec:	3b 45 ec             	cmp    -0x14(%rbp),%eax
  4060ef:	7e 73                	jle    406164 <_ZN2CK32convert_data_layout_NCHW_to_NHWCIfEEvPT_RKNS_5ShapeE+0x10e>
  4060f1:	8b 7d e4             	mov    -0x1c(%rbp),%edi
  4060f4:	8b 4d ec             	mov    -0x14(%rbp),%ecx
  4060f7:	8b 55 e8             	mov    -0x18(%rbp),%edx
  4060fa:	8b 75 e0             	mov    -0x20(%rbp),%esi
  4060fd:	48 8b 45 d0          	mov    -0x30(%rbp),%rax
  406101:	41 89 f8             	mov    %edi,%r8d
  406104:	48 89 c7             	mov    %rax,%rdi
  406107:	e8 9e ea ff ff       	callq  404baa <_ZNK2CK5Shape19get_flat_index_nhwcEiiii>
  40610c:	89 45 f0             	mov    %eax,-0x10(%rbp)
  40610f:	8b 7d ec             	mov    -0x14(%rbp),%edi
  406112:	8b 4d e8             	mov    -0x18(%rbp),%ecx
  406115:	8b 55 e4             	mov    -0x1c(%rbp),%edx
  406118:	8b 75 e0             	mov    -0x20(%rbp),%esi
  40611b:	48 8b 45 d0          	mov    -0x30(%rbp),%rax
  40611f:	41 89 f8             	mov    %edi,%r8d
  406122:	48 89 c7             	mov    %rax,%rdi
  406125:	e8 38 ea ff ff       	callq  404b62 <_ZNK2CK5Shape19get_flat_index_nchwEiiii>
  40612a:	89 45 f4             	mov    %eax,-0xc(%rbp)
  40612d:	8b 45 f0             	mov    -0x10(%rbp),%eax
  406130:	48 98                	cltq   
  406132:	48 8d 14 85 00 00 00 	lea    0x0(,%rax,4),%rdx
  406139:	00 
  40613a:	48 8b 45 f8          	mov    -0x8(%rbp),%rax
  40613e:	48 01 d0             	add    %rdx,%rax
  406141:	8b 55 f4             	mov    -0xc(%rbp),%edx
  406144:	48 63 d2             	movslq %edx,%rdx
  406147:	48 8d 0c 95 00 00 00 	lea    0x0(,%rdx,4),%rcx
  40614e:	00 
  40614f:	48 8b 55 d8          	mov    -0x28(%rbp),%rdx
  406153:	48 01 ca             	add    %rcx,%rdx
  406156:	f3 0f 10 02          	movss  (%rdx),%xmm0
  40615a:	f3 0f 11 00          	movss  %xmm0,(%rax)
  40615e:	83 45 ec 01          	addl   $0x1,-0x14(%rbp)
  406162:	eb 81                	jmp    4060e5 <_ZN2CK32convert_data_layout_NCHW_to_NHWCIfEEvPT_RKNS_5ShapeE+0x8f>
  406164:	83 45 e8 01          	addl   $0x1,-0x18(%rbp)
  406168:	e9 61 ff ff ff       	jmpq   4060ce <_ZN2CK32convert_data_layout_NCHW_to_NHWCIfEEvPT_RKNS_5ShapeE+0x78>
  40616d:	83 45 e4 01          	addl   $0x1,-0x1c(%rbp)
  406171:	e9 41 ff ff ff       	jmpq   4060b7 <_ZN2CK32convert_data_layout_NCHW_to_NHWCIfEEvPT_RKNS_5ShapeE+0x61>
  406176:	83 45 e0 01          	addl   $0x1,-0x20(%rbp)
  40617a:	e9 22 ff ff ff       	jmpq   4060a1 <_ZN2CK32convert_data_layout_NCHW_to_NHWCIfEEvPT_RKNS_5ShapeE+0x4b>
  40617f:	48 8b 45 d0          	mov    -0x30(%rbp),%rax
  406183:	48 89 c7             	mov    %rax,%rdi
  406186:	e8 73 e9 ff ff       	callq  404afe <_ZNK2CK5Shape10data_countEv>
  40618b:	48 98                	cltq   
  40618d:	48 8d 14 85 00 00 00 	lea    0x0(,%rax,4),%rdx
  406194:	00 
  406195:	48 8b 4d f8          	mov    -0x8(%rbp),%rcx
  406199:	48 8b 45 d8          	mov    -0x28(%rbp),%rax
  40619d:	48 89 ce             	mov    %rcx,%rsi
  4061a0:	48 89 c7             	mov    %rax,%rdi
  4061a3:	e8 98 ce ff ff       	callq  403040 <memcpy@plt>
  4061a8:	48 83 7d f8 00       	cmpq   $0x0,-0x8(%rbp)
  4061ad:	74 0c                	je     4061bb <_ZN2CK32convert_data_layout_NCHW_to_NHWCIfEEvPT_RKNS_5ShapeE+0x165>
  4061af:	48 8b 45 f8          	mov    -0x8(%rbp),%rax
  4061b3:	48 89 c7             	mov    %rax,%rdi
  4061b6:	e8 55 cd ff ff       	callq  402f10 <_ZdaPv@plt>
  4061bb:	90                   	nop
  4061bc:	c9                   	leaveq 
  4061bd:	c3                   	retq   

00000000004061be <_ZN2CK2TF15set_tensor_dataIfEEvRN10tensorflow6TensorEPT_RNS_5ShapeE>:
  4061be:	55                   	push   %rbp
  4061bf:	48 89 e5             	mov    %rsp,%rbp
  4061c2:	53                   	push   %rbx
  4061c3:	48 83 ec 48          	sub    $0x48,%rsp
  4061c7:	48 89 7d c8          	mov    %rdi,-0x38(%rbp)
  4061cb:	48 89 75 c0          	mov    %rsi,-0x40(%rbp)
  4061cf:	48 89 55 b8          	mov    %rdx,-0x48(%rbp)
  4061d3:	64 48 8b 04 25 28 00 	mov    %fs:0x28,%rax
  4061da:	00 00 
  4061dc:	48 89 45 e8          	mov    %rax,-0x18(%rbp)
  4061e0:	31 c0                	xor    %eax,%eax
  4061e2:	48 8b 45 b8          	mov    -0x48(%rbp),%rax
  4061e6:	48 89 c7             	mov    %rax,%rdi
  4061e9:	e8 10 e9 ff ff       	callq  404afe <_ZNK2CK5Shape10data_countEv>
  4061ee:	48 98                	cltq   
  4061f0:	48 8d 1c 85 00 00 00 	lea    0x0(,%rax,4),%rbx
  4061f7:	00 
  4061f8:	48 8b 45 c8          	mov    -0x38(%rbp),%rax
  4061fc:	48 89 c7             	mov    %rax,%rdi
  4061ff:	e8 f8 0d 00 00       	callq  406ffc <_ZN10tensorflow6Tensor4flatIfEENS_6TTypesIT_Li1ElE4FlatEv>
  406204:	48 89 45 d0          	mov    %rax,-0x30(%rbp)
  406208:	48 89 55 d8          	mov    %rdx,-0x28(%rbp)
  40620c:	48 8d 45 d0          	lea    -0x30(%rbp),%rax
  406210:	48 89 c7             	mov    %rax,%rdi
  406213:	e8 72 0e 00 00       	callq  40708a <_ZN5Eigen9TensorMapINS_6TensorIfLi1ELi1ElEELi16ENS_11MakePointerEE4dataEv>
  406218:	48 89 c1             	mov    %rax,%rcx
  40621b:	48 8b 45 c0          	mov    -0x40(%rbp),%rax
  40621f:	48 89 da             	mov    %rbx,%rdx
  406222:	48 89 c6             	mov    %rax,%rsi
  406225:	48 89 cf             	mov    %rcx,%rdi
  406228:	e8 13 ce ff ff       	callq  403040 <memcpy@plt>
  40622d:	90                   	nop
  40622e:	48 8b 45 e8          	mov    -0x18(%rbp),%rax
  406232:	64 48 33 04 25 28 00 	xor    %fs:0x28,%rax
  406239:	00 00 
  40623b:	74 05                	je     406242 <_ZN2CK2TF15set_tensor_dataIfEEvRN10tensorflow6TensorEPT_RNS_5ShapeE+0x84>
  40623d:	e8 8e ca ff ff       	callq  402cd0 <__stack_chk_fail@plt>
  406242:	48 83 c4 48          	add    $0x48,%rsp
  406246:	5b                   	pop    %rbx
  406247:	5d                   	pop    %rbp
  406248:	c3                   	retq   
  406249:	90                   	nop

000000000040624a <_ZNSt6vectorIN10tensorflow6TensorESaIS1_EEC1Ev>:
  40624a:	55                   	push   %rbp
  40624b:	48 89 e5             	mov    %rsp,%rbp
  40624e:	48 83 ec 10          	sub    $0x10,%rsp
  406252:	48 89 7d f8          	mov    %rdi,-0x8(%rbp)
  406256:	48 8b 45 f8          	mov    -0x8(%rbp),%rax
  40625a:	48 89 c7             	mov    %rax,%rdi
  40625d:	e8 56 0e 00 00       	callq  4070b8 <_ZNSt12_Vector_baseIN10tensorflow6TensorESaIS1_EEC1Ev>
  406262:	90                   	nop
  406263:	c9                   	leaveq 
  406264:	c3                   	retq   
  406265:	90                   	nop

0000000000406266 <_ZNSt6vectorIN10tensorflow6TensorESaIS1_EED1Ev>:
  406266:	55                   	push   %rbp
  406267:	48 89 e5             	mov    %rsp,%rbp
  40626a:	48 83 ec 10          	sub    $0x10,%rsp
  40626e:	48 89 7d f8          	mov    %rdi,-0x8(%rbp)
  406272:	48 8b 45 f8          	mov    -0x8(%rbp),%rax
  406276:	48 89 c7             	mov    %rax,%rdi
  406279:	e8 a6 0e 00 00       	callq  407124 <_ZNSt12_Vector_baseIN10tensorflow6TensorESaIS1_EE19_M_get_Tp_allocatorEv>
  40627e:	48 89 c2             	mov    %rax,%rdx
  406281:	48 8b 45 f8          	mov    -0x8(%rbp),%rax
  406285:	48 8b 48 08          	mov    0x8(%rax),%rcx
  406289:	48 8b 45 f8          	mov    -0x8(%rbp),%rax
  40628d:	48 8b 00             	mov    (%rax),%rax
  406290:	48 89 ce             	mov    %rcx,%rsi
  406293:	48 89 c7             	mov    %rax,%rdi
  406296:	e8 97 0e 00 00       	callq  407132 <_ZSt8_DestroyIPN10tensorflow6TensorES1_EvT_S3_RSaIT0_E>
  40629b:	48 8b 45 f8          	mov    -0x8(%rbp),%rax
  40629f:	48 89 c7             	mov    %rax,%rdi
  4062a2:	e8 2d 0e 00 00       	callq  4070d4 <_ZNSt12_Vector_baseIN10tensorflow6TensorESaIS1_EED1Ev>
  4062a7:	90                   	nop
  4062a8:	c9                   	leaveq 
  4062a9:	c3                   	retq   

00000000004062aa <_ZNSaINSt8__detail10_Hash_nodeISt4pairIKN10tensorflow6OutputENS2_5Input11InitializerEELb1EEEEC1Ev>:
  4062aa:	55                   	push   %rbp
  4062ab:	48 89 e5             	mov    %rsp,%rbp
  4062ae:	48 83 ec 10          	sub    $0x10,%rsp
  4062b2:	48 89 7d f8          	mov    %rdi,-0x8(%rbp)
  4062b6:	48 8b 45 f8          	mov    -0x8(%rbp),%rax
  4062ba:	48 89 c7             	mov    %rax,%rdi
  4062bd:	e8 9a 0e 00 00       	callq  40715c <_ZN9__gnu_cxx13new_allocatorINSt8__detail10_Hash_nodeISt4pairIKN10tensorflow6OutputENS4_5Input11InitializerEELb1EEEEC1Ev>
  4062c2:	90                   	nop
  4062c3:	c9                   	leaveq 
  4062c4:	c3                   	retq   
  4062c5:	90                   	nop

00000000004062c6 <_ZNSaINSt8__detail10_Hash_nodeISt4pairIKN10tensorflow6OutputENS2_5Input11InitializerEELb1EEEED1Ev>:
  4062c6:	55                   	push   %rbp
  4062c7:	48 89 e5             	mov    %rsp,%rbp
  4062ca:	48 83 ec 10          	sub    $0x10,%rsp
  4062ce:	48 89 7d f8          	mov    %rdi,-0x8(%rbp)
  4062d2:	48 8b 45 f8          	mov    -0x8(%rbp),%rax
  4062d6:	48 89 c7             	mov    %rax,%rdi
  4062d9:	e8 8a 0e 00 00       	callq  407168 <_ZN9__gnu_cxx13new_allocatorINSt8__detail10_Hash_nodeISt4pairIKN10tensorflow6OutputENS4_5Input11InitializerEELb1EEEED1Ev>
  4062de:	90                   	nop
  4062df:	c9                   	leaveq 
  4062e0:	c3                   	retq   
  4062e1:	90                   	nop

00000000004062e2 <_ZNSt10_HashtableIN10tensorflow6OutputESt4pairIKS1_NS0_5Input11InitializerEESaIS6_ENSt8__detail10_Select1stESt8equal_toIS1_ENS0_10OutputHashENS8_18_Mod_range_hashingENS8_20_Default_ranged_hashENS8_20_Prime_rehash_policyENS8_17_Hashtable_traitsILb1ELb0ELb1EEEED1Ev>:
  4062e2:	55                   	push   %rbp
  4062e3:	48 89 e5             	mov    %rsp,%rbp
  4062e6:	48 83 ec 10          	sub    $0x10,%rsp
  4062ea:	48 89 7d f8          	mov    %rdi,-0x8(%rbp)
  4062ee:	48 8b 45 f8          	mov    -0x8(%rbp),%rax
  4062f2:	48 89 c7             	mov    %rax,%rdi
  4062f5:	e8 7a 0e 00 00       	callq  407174 <_ZNSt10_HashtableIN10tensorflow6OutputESt4pairIKS1_NS0_5Input11InitializerEESaIS6_ENSt8__detail10_Select1stESt8equal_toIS1_ENS0_10OutputHashENS8_18_Mod_range_hashingENS8_20_Default_ranged_hashENS8_20_Prime_rehash_policyENS8_17_Hashtable_traitsILb1ELb0ELb1EEEE5clearEv>
  4062fa:	48 8b 45 f8          	mov    -0x8(%rbp),%rax
  4062fe:	48 89 c7             	mov    %rax,%rdi
  406301:	e8 d8 0e 00 00       	callq  4071de <_ZNSt10_HashtableIN10tensorflow6OutputESt4pairIKS1_NS0_5Input11InitializerEESaIS6_ENSt8__detail10_Select1stESt8equal_toIS1_ENS0_10OutputHashENS8_18_Mod_range_hashingENS8_20_Default_ranged_hashENS8_20_Prime_rehash_policyENS8_17_Hashtable_traitsILb1ELb0ELb1EEEE21_M_deallocate_bucketsEv>
  406306:	48 8b 45 f8          	mov    -0x8(%rbp),%rax
  40630a:	48 89 c7             	mov    %rax,%rdi
  40630d:	e8 d8 f2 ff ff       	callq  4055ea <_ZNSt8__detail16_Hashtable_allocISaINS_10_Hash_nodeISt4pairIKN10tensorflow6OutputENS3_5Input11InitializerEELb1EEEEED1Ev>
  406312:	90                   	nop
  406313:	c9                   	leaveq 
  406314:	c3                   	retq   
  406315:	90                   	nop

0000000000406316 <_ZNSaIN10tensorflow6OutputEEC1Ev>:
  406316:	55                   	push   %rbp
  406317:	48 89 e5             	mov    %rsp,%rbp
  40631a:	48 83 ec 10          	sub    $0x10,%rsp
  40631e:	48 89 7d f8          	mov    %rdi,-0x8(%rbp)
  406322:	48 8b 45 f8          	mov    -0x8(%rbp),%rax
  406326:	48 89 c7             	mov    %rax,%rdi
  406329:	e8 de 0e 00 00       	callq  40720c <_ZN9__gnu_cxx13new_allocatorIN10tensorflow6OutputEEC1Ev>
  40632e:	90                   	nop
  40632f:	c9                   	leaveq 
  406330:	c3                   	retq   
  406331:	90                   	nop

0000000000406332 <_ZNSaIN10tensorflow6OutputEED1Ev>:
  406332:	55                   	push   %rbp
  406333:	48 89 e5             	mov    %rsp,%rbp
  406336:	48 83 ec 10          	sub    $0x10,%rsp
  40633a:	48 89 7d f8          	mov    %rdi,-0x8(%rbp)
  40633e:	48 8b 45 f8          	mov    -0x8(%rbp),%rax
  406342:	48 89 c7             	mov    %rax,%rdi
  406345:	e8 ce 0e 00 00       	callq  407218 <_ZN9__gnu_cxx13new_allocatorIN10tensorflow6OutputEED1Ev>
  40634a:	90                   	nop
  40634b:	c9                   	leaveq 
  40634c:	c3                   	retq   
  40634d:	90                   	nop

000000000040634e <_ZNSt6vectorIN10tensorflow6OutputESaIS1_EEC1ESt16initializer_listIS1_ERKS2_>:
  40634e:	55                   	push   %rbp
  40634f:	48 89 e5             	mov    %rsp,%rbp
  406352:	41 54                	push   %r12
  406354:	53                   	push   %rbx
  406355:	48 83 ec 30          	sub    $0x30,%rsp
  406359:	48 89 7d d8          	mov    %rdi,-0x28(%rbp)
  40635d:	48 89 f0             	mov    %rsi,%rax
  406360:	48 89 d6             	mov    %rdx,%rsi
  406363:	48 89 f2             	mov    %rsi,%rdx
  406366:	48 89 45 c0          	mov    %rax,-0x40(%rbp)
  40636a:	48 89 55 c8          	mov    %rdx,-0x38(%rbp)
  40636e:	48 89 4d d0          	mov    %rcx,-0x30(%rbp)
  406372:	64 48 8b 04 25 28 00 	mov    %fs:0x28,%rax
  406379:	00 00 
