
reshape:     file format elf64-x86-64


Disassembly of section .init:

0000000000403c98 <_init>:
  403c98:	48 83 ec 08          	sub    $0x8,%rsp
  403c9c:	48 8b 05 55 53 21 00 	mov    0x215355(%rip),%rax        # 618ff8 <_DYNAMIC+0x230>
  403ca3:	48 85 c0             	test   %rax,%rax
  403ca6:	74 05                	je     403cad <_init+0x15>
  403ca8:	e8 93 05 00 00       	callq  404240 <_ZNSt8ios_base4InitD1Ev@plt+0x10>
  403cad:	48 83 c4 08          	add    $0x8,%rsp
  403cb1:	c3                   	retq   

Disassembly of section .plt:

0000000000403cc0 <_Znam@plt-0x10>:
  403cc0:	ff 35 42 53 21 00    	pushq  0x215342(%rip)        # 619008 <_GLOBAL_OFFSET_TABLE_+0x8>
  403cc6:	ff 25 44 53 21 00    	jmpq   *0x215344(%rip)        # 619010 <_GLOBAL_OFFSET_TABLE_+0x10>
  403ccc:	0f 1f 40 00          	nopl   0x0(%rax)

0000000000403cd0 <_Znam@plt>:
  403cd0:	ff 25 42 53 21 00    	jmpq   *0x215342(%rip)        # 619018 <_GLOBAL_OFFSET_TABLE_+0x18>
  403cd6:	68 00 00 00 00       	pushq  $0x0
  403cdb:	e9 e0 ff ff ff       	jmpq   403cc0 <_init+0x28>

0000000000403ce0 <_ZNSt7__cxx1112basic_stringIcSt11char_traitsIcESaIcEEaSERKS4_@plt>:
  403ce0:	ff 25 3a 53 21 00    	jmpq   *0x21533a(%rip)        # 619020 <_GLOBAL_OFFSET_TABLE_+0x20>
  403ce6:	68 01 00 00 00       	pushq  $0x1
  403ceb:	e9 d0 ff ff ff       	jmpq   403cc0 <_init+0x28>

0000000000403cf0 <printf@plt>:
  403cf0:	ff 25 32 53 21 00    	jmpq   *0x215332(%rip)        # 619028 <_GLOBAL_OFFSET_TABLE_+0x28>
  403cf6:	68 02 00 00 00       	pushq  $0x2
  403cfb:	e9 c0 ff ff ff       	jmpq   403cc0 <_init+0x28>

0000000000403d00 <_ZNSt6chrono3_V212system_clock3nowEv@plt>:
  403d00:	ff 25 2a 53 21 00    	jmpq   *0x21532a(%rip)        # 619030 <_GLOBAL_OFFSET_TABLE_+0x30>
  403d06:	68 03 00 00 00       	pushq  $0x3
  403d0b:	e9 b0 ff ff ff       	jmpq   403cc0 <_init+0x28>

0000000000403d10 <_ZN11arm_compute11CLScheduler3getEv@plt>:
  403d10:	ff 25 22 53 21 00    	jmpq   *0x215322(%rip)        # 619038 <_GLOBAL_OFFSET_TABLE_+0x38>
  403d16:	68 04 00 00 00       	pushq  $0x4
  403d1b:	e9 a0 ff ff ff       	jmpq   403cc0 <_init+0x28>

0000000000403d20 <sprintf@plt>:
  403d20:	ff 25 1a 53 21 00    	jmpq   *0x21531a(%rip)        # 619040 <_GLOBAL_OFFSET_TABLE_+0x40>
  403d26:	68 05 00 00 00       	pushq  $0x5
  403d2b:	e9 90 ff ff ff       	jmpq   403cc0 <_init+0x28>

0000000000403d30 <_ZSt11_Hash_bytesPKvmm@plt>:
  403d30:	ff 25 12 53 21 00    	jmpq   *0x215312(%rip)        # 619048 <_GLOBAL_OFFSET_TABLE_+0x48>
  403d36:	68 06 00 00 00       	pushq  $0x6
  403d3b:	e9 80 ff ff ff       	jmpq   403cc0 <_init+0x28>

0000000000403d40 <xopenme_clock_start@plt>:
  403d40:	ff 25 0a 53 21 00    	jmpq   *0x21530a(%rip)        # 619050 <_GLOBAL_OFFSET_TABLE_+0x50>
  403d46:	68 07 00 00 00       	pushq  $0x7
  403d4b:	e9 70 ff ff ff       	jmpq   403cc0 <_init+0x28>

0000000000403d50 <xopenme_dump_state@plt>:
  403d50:	ff 25 02 53 21 00    	jmpq   *0x215302(%rip)        # 619058 <_GLOBAL_OFFSET_TABLE_+0x58>
  403d56:	68 08 00 00 00       	pushq  $0x8
  403d5b:	e9 60 ff ff ff       	jmpq   403cc0 <_init+0x28>

0000000000403d60 <clFinish@plt>:
  403d60:	ff 25 fa 52 21 00    	jmpq   *0x2152fa(%rip)        # 619060 <_GLOBAL_OFFSET_TABLE_+0x60>
  403d66:	68 09 00 00 00       	pushq  $0x9
  403d6b:	e9 50 ff ff ff       	jmpq   403cc0 <_init+0x28>

0000000000403d70 <xopenme_finish@plt>:
  403d70:	ff 25 f2 52 21 00    	jmpq   *0x2152f2(%rip)        # 619068 <_GLOBAL_OFFSET_TABLE_+0x68>
  403d76:	68 0a 00 00 00       	pushq  $0xa
  403d7b:	e9 40 ff ff ff       	jmpq   403cc0 <_init+0x28>

0000000000403d80 <rand@plt>:
  403d80:	ff 25 ea 52 21 00    	jmpq   *0x2152ea(%rip)        # 619070 <_GLOBAL_OFFSET_TABLE_+0x70>
  403d86:	68 0b 00 00 00       	pushq  $0xb
  403d8b:	e9 30 ff ff ff       	jmpq   403cc0 <_init+0x28>

0000000000403d90 <_ZN11arm_compute8CLTensor5unmapEv@plt>:
  403d90:	ff 25 e2 52 21 00    	jmpq   *0x2152e2(%rip)        # 619078 <_GLOBAL_OFFSET_TABLE_+0x78>
  403d96:	68 0c 00 00 00       	pushq  $0xc
  403d9b:	e9 20 ff ff ff       	jmpq   403cc0 <_init+0x28>

0000000000403da0 <_ZSt17__throw_bad_allocv@plt>:
  403da0:	ff 25 da 52 21 00    	jmpq   *0x2152da(%rip)        # 619080 <_GLOBAL_OFFSET_TABLE_+0x80>
  403da6:	68 0d 00 00 00       	pushq  $0xd
  403dab:	e9 10 ff ff ff       	jmpq   403cc0 <_init+0x28>

0000000000403db0 <xopenme_init@plt>:
  403db0:	ff 25 d2 52 21 00    	jmpq   *0x2152d2(%rip)        # 619088 <_GLOBAL_OFFSET_TABLE_+0x88>
  403db6:	68 0e 00 00 00       	pushq  $0xe
  403dbb:	e9 00 ff ff ff       	jmpq   403cc0 <_init+0x28>

0000000000403dc0 <__cxa_begin_catch@plt>:
  403dc0:	ff 25 ca 52 21 00    	jmpq   *0x2152ca(%rip)        # 619090 <_GLOBAL_OFFSET_TABLE_+0x90>
  403dc6:	68 0f 00 00 00       	pushq  $0xf
  403dcb:	e9 f0 fe ff ff       	jmpq   403cc0 <_init+0x28>

0000000000403dd0 <_ZNSt7__cxx1112basic_stringIcSt11char_traitsIcESaIcEEC1ERKS4_@plt>:
  403dd0:	ff 25 c2 52 21 00    	jmpq   *0x2152c2(%rip)        # 619098 <_GLOBAL_OFFSET_TABLE_+0x98>
  403dd6:	68 10 00 00 00       	pushq  $0x10
  403ddb:	e9 e0 fe ff ff       	jmpq   403cc0 <_init+0x28>

0000000000403de0 <strlen@plt>:
  403de0:	ff 25 ba 52 21 00    	jmpq   *0x2152ba(%rip)        # 6190a0 <_GLOBAL_OFFSET_TABLE_+0xa0>
  403de6:	68 11 00 00 00       	pushq  $0x11
  403deb:	e9 d0 fe ff ff       	jmpq   403cc0 <_init+0x28>

0000000000403df0 <xopenme_dump_memory@plt>:
  403df0:	ff 25 b2 52 21 00    	jmpq   *0x2152b2(%rip)        # 6190a8 <_GLOBAL_OFFSET_TABLE_+0xa8>
  403df6:	68 12 00 00 00       	pushq  $0x12
  403dfb:	e9 c0 fe ff ff       	jmpq   403cc0 <_init+0x28>

0000000000403e00 <memcmp@plt>:
  403e00:	ff 25 aa 52 21 00    	jmpq   *0x2152aa(%rip)        # 6190b0 <_GLOBAL_OFFSET_TABLE_+0xb0>
  403e06:	68 13 00 00 00       	pushq  $0x13
  403e0b:	e9 b0 fe ff ff       	jmpq   403cc0 <_init+0x28>

0000000000403e10 <clRetainCommandQueue@plt>:
  403e10:	ff 25 a2 52 21 00    	jmpq   *0x2152a2(%rip)        # 6190b8 <_GLOBAL_OFFSET_TABLE_+0xb8>
  403e16:	68 14 00 00 00       	pushq  $0x14
  403e1b:	e9 a0 fe ff ff       	jmpq   403cc0 <_init+0x28>

0000000000403e20 <clCreateContextFromType@plt>:
  403e20:	ff 25 9a 52 21 00    	jmpq   *0x21529a(%rip)        # 6190c0 <_GLOBAL_OFFSET_TABLE_+0xc0>
  403e26:	68 15 00 00 00       	pushq  $0x15
  403e2b:	e9 90 fe ff ff       	jmpq   403cc0 <_init+0x28>

0000000000403e30 <__cxa_allocate_exception@plt>:
  403e30:	ff 25 92 52 21 00    	jmpq   *0x215292(%rip)        # 6190c8 <_GLOBAL_OFFSET_TABLE_+0xc8>
  403e36:	68 16 00 00 00       	pushq  $0x16
  403e3b:	e9 80 fe ff ff       	jmpq   403cc0 <_init+0x28>

0000000000403e40 <_ZSt20__throw_length_errorPKc@plt>:
  403e40:	ff 25 8a 52 21 00    	jmpq   *0x21528a(%rip)        # 6190d0 <_GLOBAL_OFFSET_TABLE_+0xd0>
  403e46:	68 17 00 00 00       	pushq  $0x17
  403e4b:	e9 70 fe ff ff       	jmpq   403cc0 <_init+0x28>

0000000000403e50 <_ZN11arm_compute14CLReshapeLayer9configureEPKNS_9ICLTensorEPS1_@plt>:
  403e50:	ff 25 82 52 21 00    	jmpq   *0x215282(%rip)        # 6190d8 <_GLOBAL_OFFSET_TABLE_+0xd8>
  403e56:	68 18 00 00 00       	pushq  $0x18
  403e5b:	e9 60 fe ff ff       	jmpq   403cc0 <_init+0x28>

0000000000403e60 <memset@plt>:
  403e60:	ff 25 7a 52 21 00    	jmpq   *0x21527a(%rip)        # 6190e0 <_GLOBAL_OFFSET_TABLE_+0xe0>
  403e66:	68 19 00 00 00       	pushq  $0x19
  403e6b:	e9 50 fe ff ff       	jmpq   403cc0 <_init+0x28>

0000000000403e70 <_ZN11arm_compute15CLKernelLibrary3getEv@plt>:
  403e70:	ff 25 72 52 21 00    	jmpq   *0x215272(%rip)        # 6190e8 <_GLOBAL_OFFSET_TABLE_+0xe8>
  403e76:	68 1a 00 00 00       	pushq  $0x1a
  403e7b:	e9 40 fe ff ff       	jmpq   403cc0 <_init+0x28>

0000000000403e80 <clReleaseContext@plt>:
  403e80:	ff 25 6a 52 21 00    	jmpq   *0x21526a(%rip)        # 6190f0 <_GLOBAL_OFFSET_TABLE_+0xf0>
  403e86:	68 1b 00 00 00       	pushq  $0x1b
  403e8b:	e9 30 fe ff ff       	jmpq   403cc0 <_init+0x28>

0000000000403e90 <_ZNSt7__cxx1112basic_stringIcSt11char_traitsIcESaIcEED1Ev@plt>:
  403e90:	ff 25 62 52 21 00    	jmpq   *0x215262(%rip)        # 6190f8 <_GLOBAL_OFFSET_TABLE_+0xf8>
  403e96:	68 1c 00 00 00       	pushq  $0x1c
  403e9b:	e9 20 fe ff ff       	jmpq   403cc0 <_init+0x28>

0000000000403ea0 <_ZSt20__throw_system_errori@plt>:
  403ea0:	ff 25 5a 52 21 00    	jmpq   *0x21525a(%rip)        # 619100 <_GLOBAL_OFFSET_TABLE_+0x100>
  403ea6:	68 1d 00 00 00       	pushq  $0x1d
  403eab:	e9 10 fe ff ff       	jmpq   403cc0 <_init+0x28>

0000000000403eb0 <_ZNKSt7__cxx1112basic_stringIcSt11char_traitsIcESaIcEE4sizeEv@plt>:
  403eb0:	ff 25 52 52 21 00    	jmpq   *0x215252(%rip)        # 619108 <_GLOBAL_OFFSET_TABLE_+0x108>
  403eb6:	68 1e 00 00 00       	pushq  $0x1e
  403ebb:	e9 00 fe ff ff       	jmpq   403cc0 <_init+0x28>

0000000000403ec0 <__cxa_atexit@plt>:
  403ec0:	ff 25 4a 52 21 00    	jmpq   *0x21524a(%rip)        # 619110 <_GLOBAL_OFFSET_TABLE_+0x110>
  403ec6:	68 1f 00 00 00       	pushq  $0x1f
  403ecb:	e9 f0 fd ff ff       	jmpq   403cc0 <_init+0x28>

0000000000403ed0 <_ZdlPv@plt>:
  403ed0:	ff 25 42 52 21 00    	jmpq   *0x215242(%rip)        # 619118 <_GLOBAL_OFFSET_TABLE_+0x118>
  403ed6:	68 20 00 00 00       	pushq  $0x20
  403edb:	e9 e0 fd ff ff       	jmpq   403cc0 <_init+0x28>

0000000000403ee0 <srand@plt>:
  403ee0:	ff 25 3a 52 21 00    	jmpq   *0x21523a(%rip)        # 619120 <_GLOBAL_OFFSET_TABLE_+0x120>
  403ee6:	68 21 00 00 00       	pushq  $0x21
  403eeb:	e9 d0 fd ff ff       	jmpq   403cc0 <_init+0x28>

0000000000403ef0 <_Znwm@plt>:
  403ef0:	ff 25 32 52 21 00    	jmpq   *0x215232(%rip)        # 619128 <_GLOBAL_OFFSET_TABLE_+0x128>
  403ef6:	68 22 00 00 00       	pushq  $0x22
  403efb:	e9 c0 fd ff ff       	jmpq   403cc0 <_init+0x28>

0000000000403f00 <_ZN11arm_compute17ICLSimpleFunction3runEv@plt>:
  403f00:	ff 25 2a 52 21 00    	jmpq   *0x21522a(%rip)        # 619130 <_GLOBAL_OFFSET_TABLE_+0x130>
  403f06:	68 23 00 00 00       	pushq  $0x23
  403f0b:	e9 b0 fd ff ff       	jmpq   403cc0 <_init+0x28>

0000000000403f10 <_ZNSaIcED1Ev@plt>:
  403f10:	ff 25 22 52 21 00    	jmpq   *0x215222(%rip)        # 619138 <_GLOBAL_OFFSET_TABLE_+0x138>
  403f16:	68 24 00 00 00       	pushq  $0x24
  403f1b:	e9 a0 fd ff ff       	jmpq   403cc0 <_init+0x28>

0000000000403f20 <_ZN11arm_compute17ICLSimpleFunctionC2Ev@plt>:
  403f20:	ff 25 1a 52 21 00    	jmpq   *0x21521a(%rip)        # 619140 <_GLOBAL_OFFSET_TABLE_+0x140>
  403f26:	68 25 00 00 00       	pushq  $0x25
  403f2b:	e9 90 fd ff ff       	jmpq   403cc0 <_init+0x28>

0000000000403f30 <__stack_chk_fail@plt>:
  403f30:	ff 25 12 52 21 00    	jmpq   *0x215212(%rip)        # 619148 <_GLOBAL_OFFSET_TABLE_+0x148>
  403f36:	68 26 00 00 00       	pushq  $0x26
  403f3b:	e9 80 fd ff ff       	jmpq   403cc0 <_init+0x28>

0000000000403f40 <_ZNK11arm_compute7IKernel6windowEv@plt>:
  403f40:	ff 25 0a 52 21 00    	jmpq   *0x21520a(%rip)        # 619150 <_GLOBAL_OFFSET_TABLE_+0x150>
  403f46:	68 27 00 00 00       	pushq  $0x27
  403f4b:	e9 70 fd ff ff       	jmpq   403cc0 <_init+0x28>

0000000000403f50 <_ZN11arm_compute16ITensorAllocator4initERKNS_10TensorInfoE@plt>:
  403f50:	ff 25 02 52 21 00    	jmpq   *0x215202(%rip)        # 619158 <_GLOBAL_OFFSET_TABLE_+0x158>
  403f56:	68 28 00 00 00       	pushq  $0x28
  403f5b:	e9 60 fd ff ff       	jmpq   403cc0 <_init+0x28>

0000000000403f60 <xopenme_add_var_i@plt>:
  403f60:	ff 25 fa 51 21 00    	jmpq   *0x2151fa(%rip)        # 619160 <_GLOBAL_OFFSET_TABLE_+0x160>
  403f66:	68 29 00 00 00       	pushq  $0x29
  403f6b:	e9 50 fd ff ff       	jmpq   403cc0 <_init+0x28>

0000000000403f70 <_ZN11arm_compute8CLTensor9allocatorEv@plt>:
  403f70:	ff 25 f2 51 21 00    	jmpq   *0x2151f2(%rip)        # 619168 <_GLOBAL_OFFSET_TABLE_+0x168>
  403f76:	68 2a 00 00 00       	pushq  $0x2a
  403f7b:	e9 40 fd ff ff       	jmpq   403cc0 <_init+0x28>

0000000000403f80 <getenv@plt>:
  403f80:	ff 25 ea 51 21 00    	jmpq   *0x2151ea(%rip)        # 619170 <_GLOBAL_OFFSET_TABLE_+0x170>
  403f86:	68 2b 00 00 00       	pushq  $0x2b
  403f8b:	e9 30 fd ff ff       	jmpq   403cc0 <_init+0x28>

0000000000403f90 <_ZNSt7__cxx1112basic_stringIcSt11char_traitsIcESaIcEEaSEOS4_@plt>:
  403f90:	ff 25 e2 51 21 00    	jmpq   *0x2151e2(%rip)        # 619178 <_GLOBAL_OFFSET_TABLE_+0x178>
  403f96:	68 2c 00 00 00       	pushq  $0x2c
  403f9b:	e9 20 fd ff ff       	jmpq   403cc0 <_init+0x28>

0000000000403fa0 <clGetDeviceIDs@plt>:
  403fa0:	ff 25 da 51 21 00    	jmpq   *0x2151da(%rip)        # 619180 <_GLOBAL_OFFSET_TABLE_+0x180>
  403fa6:	68 2d 00 00 00       	pushq  $0x2d
  403fab:	e9 10 fd ff ff       	jmpq   403cc0 <_init+0x28>

0000000000403fb0 <clGetContextInfo@plt>:
  403fb0:	ff 25 d2 51 21 00    	jmpq   *0x2151d2(%rip)        # 619188 <_GLOBAL_OFFSET_TABLE_+0x188>
  403fb6:	68 2e 00 00 00       	pushq  $0x2e
  403fbb:	e9 00 fd ff ff       	jmpq   403cc0 <_init+0x28>

0000000000403fc0 <__cxa_get_exception_ptr@plt>:
  403fc0:	ff 25 ca 51 21 00    	jmpq   *0x2151ca(%rip)        # 619190 <_GLOBAL_OFFSET_TABLE_+0x190>
  403fc6:	68 2f 00 00 00       	pushq  $0x2f
  403fcb:	e9 f0 fc ff ff       	jmpq   403cc0 <_init+0x28>

0000000000403fd0 <clReleaseCommandQueue@plt>:
  403fd0:	ff 25 c2 51 21 00    	jmpq   *0x2151c2(%rip)        # 619198 <_GLOBAL_OFFSET_TABLE_+0x198>
  403fd6:	68 30 00 00 00       	pushq  $0x30
  403fdb:	e9 e0 fc ff ff       	jmpq   403cc0 <_init+0x28>

0000000000403fe0 <_ZdaPv@plt>:
  403fe0:	ff 25 ba 51 21 00    	jmpq   *0x2151ba(%rip)        # 6191a0 <_GLOBAL_OFFSET_TABLE_+0x1a0>
  403fe6:	68 31 00 00 00       	pushq  $0x31
  403feb:	e9 d0 fc ff ff       	jmpq   403cc0 <_init+0x28>

0000000000403ff0 <_ZNKSt7__cxx1112basic_stringIcSt11char_traitsIcESaIcEE4dataEv@plt>:
  403ff0:	ff 25 b2 51 21 00    	jmpq   *0x2151b2(%rip)        # 6191a8 <_GLOBAL_OFFSET_TABLE_+0x1a8>
  403ff6:	68 32 00 00 00       	pushq  $0x32
  403ffb:	e9 c0 fc ff ff       	jmpq   403cc0 <_init+0x28>

0000000000404000 <_ZN11arm_compute22get_target_from_deviceERN2cl6DeviceE@plt>:
  404000:	ff 25 aa 51 21 00    	jmpq   *0x2151aa(%rip)        # 6191b0 <_GLOBAL_OFFSET_TABLE_+0x1b0>
  404006:	68 33 00 00 00       	pushq  $0x33
  40400b:	e9 b0 fc ff ff       	jmpq   403cc0 <_init+0x28>

0000000000404010 <clGetPlatformIDs@plt>:
  404010:	ff 25 a2 51 21 00    	jmpq   *0x2151a2(%rip)        # 6191b8 <_GLOBAL_OFFSET_TABLE_+0x1b8>
  404016:	68 34 00 00 00       	pushq  $0x34
  40401b:	e9 a0 fc ff ff       	jmpq   403cc0 <_init+0x28>

0000000000404020 <_ZNKSt8__detail20_Prime_rehash_policy14_M_need_rehashEmmm@plt>:
  404020:	ff 25 9a 51 21 00    	jmpq   *0x21519a(%rip)        # 6191c0 <_GLOBAL_OFFSET_TABLE_+0x1c0>
  404026:	68 35 00 00 00       	pushq  $0x35
  40402b:	e9 90 fc ff ff       	jmpq   403cc0 <_init+0x28>

0000000000404030 <xopenme_clock_end@plt>:
  404030:	ff 25 92 51 21 00    	jmpq   *0x215192(%rip)        # 6191c8 <_GLOBAL_OFFSET_TABLE_+0x1c8>
  404036:	68 36 00 00 00       	pushq  $0x36
  40403b:	e9 80 fc ff ff       	jmpq   403cc0 <_init+0x28>

0000000000404040 <_ZNSt7__cxx1112basic_stringIcSt11char_traitsIcESaIcEEC1EPKcRKS3_@plt>:
  404040:	ff 25 8a 51 21 00    	jmpq   *0x21518a(%rip)        # 6191d0 <_GLOBAL_OFFSET_TABLE_+0x1d0>
  404046:	68 37 00 00 00       	pushq  $0x37
  40404b:	e9 70 fc ff ff       	jmpq   403cc0 <_init+0x28>

0000000000404050 <putchar@plt>:
  404050:	ff 25 82 51 21 00    	jmpq   *0x215182(%rip)        # 6191d8 <_GLOBAL_OFFSET_TABLE_+0x1d8>
  404056:	68 38 00 00 00       	pushq  $0x38
  40405b:	e9 60 fc ff ff       	jmpq   403cc0 <_init+0x28>

0000000000404060 <__cxa_throw_bad_array_new_length@plt>:
  404060:	ff 25 7a 51 21 00    	jmpq   *0x21517a(%rip)        # 6191e0 <_GLOBAL_OFFSET_TABLE_+0x1e0>
  404066:	68 39 00 00 00       	pushq  $0x39
  40406b:	e9 50 fc ff ff       	jmpq   403cc0 <_init+0x28>

0000000000404070 <__cxa_rethrow@plt>:
  404070:	ff 25 72 51 21 00    	jmpq   *0x215172(%rip)        # 6191e8 <_GLOBAL_OFFSET_TABLE_+0x1e8>
  404076:	68 3a 00 00 00       	pushq  $0x3a
  40407b:	e9 40 fc ff ff       	jmpq   403cc0 <_init+0x28>

0000000000404080 <_ZNKSt7__cxx1112basic_stringIcSt11char_traitsIcESaIcEE6lengthEv@plt>:
  404080:	ff 25 6a 51 21 00    	jmpq   *0x21516a(%rip)        # 6191f0 <_GLOBAL_OFFSET_TABLE_+0x1f0>
  404086:	68 3b 00 00 00       	pushq  $0x3b
  40408b:	e9 30 fc ff ff       	jmpq   403cc0 <_init+0x28>

0000000000404090 <_ZSt24__throw_out_of_range_fmtPKcz@plt>:
  404090:	ff 25 62 51 21 00    	jmpq   *0x215162(%rip)        # 6191f8 <_GLOBAL_OFFSET_TABLE_+0x1f8>
  404096:	68 3c 00 00 00       	pushq  $0x3c
  40409b:	e9 20 fc ff ff       	jmpq   403cc0 <_init+0x28>

00000000004040a0 <_ZNK11arm_compute7IKernel17is_parallelisableEv@plt>:
  4040a0:	ff 25 5a 51 21 00    	jmpq   *0x21515a(%rip)        # 619200 <_GLOBAL_OFFSET_TABLE_+0x200>
  4040a6:	68 3d 00 00 00       	pushq  $0x3d
  4040ab:	e9 10 fc ff ff       	jmpq   403cc0 <_init+0x28>

00000000004040b0 <_ZNSt8ios_base4InitC1Ev@plt>:
  4040b0:	ff 25 52 51 21 00    	jmpq   *0x215152(%rip)        # 619208 <_GLOBAL_OFFSET_TABLE_+0x208>
  4040b6:	68 3e 00 00 00       	pushq  $0x3e
  4040bb:	e9 00 fc ff ff       	jmpq   403cc0 <_init+0x28>

00000000004040c0 <puts@plt>:
  4040c0:	ff 25 4a 51 21 00    	jmpq   *0x21514a(%rip)        # 619210 <_GLOBAL_OFFSET_TABLE_+0x210>
  4040c6:	68 3f 00 00 00       	pushq  $0x3f
  4040cb:	e9 f0 fb ff ff       	jmpq   403cc0 <_init+0x28>

00000000004040d0 <atoi@plt>:
  4040d0:	ff 25 42 51 21 00    	jmpq   *0x215142(%rip)        # 619218 <_GLOBAL_OFFSET_TABLE_+0x218>
  4040d6:	68 40 00 00 00       	pushq  $0x40
  4040db:	e9 e0 fb ff ff       	jmpq   403cc0 <_init+0x28>

00000000004040e0 <_ZN11arm_compute17CLTensorAllocatorD1Ev@plt>:
  4040e0:	ff 25 3a 51 21 00    	jmpq   *0x21513a(%rip)        # 619220 <_GLOBAL_OFFSET_TABLE_+0x220>
  4040e6:	68 41 00 00 00       	pushq  $0x41
  4040eb:	e9 d0 fb ff ff       	jmpq   403cc0 <_init+0x28>

00000000004040f0 <clCreateCommandQueue@plt>:
  4040f0:	ff 25 32 51 21 00    	jmpq   *0x215132(%rip)        # 619228 <_GLOBAL_OFFSET_TABLE_+0x228>
  4040f6:	68 42 00 00 00       	pushq  $0x42
  4040fb:	e9 c0 fb ff ff       	jmpq   403cc0 <_init+0x28>

0000000000404100 <__once_proxy@plt>:
  404100:	ff 25 2a 51 21 00    	jmpq   *0x21512a(%rip)        # 619230 <_GLOBAL_OFFSET_TABLE_+0x230>
  404106:	68 43 00 00 00       	pushq  $0x43
  40410b:	e9 b0 fb ff ff       	jmpq   403cc0 <_init+0x28>

0000000000404110 <__cxa_end_catch@plt>:
  404110:	ff 25 22 51 21 00    	jmpq   *0x215122(%rip)        # 619238 <_GLOBAL_OFFSET_TABLE_+0x238>
  404116:	68 44 00 00 00       	pushq  $0x44
  40411b:	e9 a0 fb ff ff       	jmpq   403cc0 <_init+0x28>

0000000000404120 <pthread_once@plt>:
  404120:	ff 25 1a 51 21 00    	jmpq   *0x21511a(%rip)        # 619240 <_GLOBAL_OFFSET_TABLE_+0x240>
  404126:	68 45 00 00 00       	pushq  $0x45
  40412b:	e9 90 fb ff ff       	jmpq   403cc0 <_init+0x28>

0000000000404130 <__gxx_personality_v0@plt>:
  404130:	ff 25 12 51 21 00    	jmpq   *0x215112(%rip)        # 619248 <_GLOBAL_OFFSET_TABLE_+0x248>
  404136:	68 46 00 00 00       	pushq  $0x46
  40413b:	e9 80 fb ff ff       	jmpq   403cc0 <_init+0x28>

0000000000404140 <__pthread_key_create@plt>:
  404140:	ff 25 0a 51 21 00    	jmpq   *0x21510a(%rip)        # 619250 <_GLOBAL_OFFSET_TABLE_+0x250>
  404146:	68 47 00 00 00       	pushq  $0x47
  40414b:	e9 70 fb ff ff       	jmpq   403cc0 <_init+0x28>

0000000000404150 <_ZNK11arm_compute7IKernel11border_sizeEv@plt>:
  404150:	ff 25 02 51 21 00    	jmpq   *0x215102(%rip)        # 619258 <_GLOBAL_OFFSET_TABLE_+0x258>
  404156:	68 48 00 00 00       	pushq  $0x48
  40415b:	e9 60 fb ff ff       	jmpq   403cc0 <_init+0x28>

0000000000404160 <clRetainContext@plt>:
  404160:	ff 25 fa 50 21 00    	jmpq   *0x2150fa(%rip)        # 619260 <_GLOBAL_OFFSET_TABLE_+0x260>
  404166:	68 49 00 00 00       	pushq  $0x49
  40416b:	e9 50 fb ff ff       	jmpq   403cc0 <_init+0x28>

0000000000404170 <_ZN11arm_compute10TensorInfoC1ERKNS_11TensorShapeENS_6FormatE@plt>:
  404170:	ff 25 f2 50 21 00    	jmpq   *0x2150f2(%rip)        # 619268 <_GLOBAL_OFFSET_TABLE_+0x268>
  404176:	68 4a 00 00 00       	pushq  $0x4a
  40417b:	e9 40 fb ff ff       	jmpq   403cc0 <_init+0x28>

0000000000404180 <__cxa_throw@plt>:
  404180:	ff 25 ea 50 21 00    	jmpq   *0x2150ea(%rip)        # 619270 <_GLOBAL_OFFSET_TABLE_+0x270>
  404186:	68 4b 00 00 00       	pushq  $0x4b
  40418b:	e9 30 fb ff ff       	jmpq   403cc0 <_init+0x28>

0000000000404190 <_Unwind_Resume@plt>:
  404190:	ff 25 e2 50 21 00    	jmpq   *0x2150e2(%rip)        # 619278 <_GLOBAL_OFFSET_TABLE_+0x278>
  404196:	68 4c 00 00 00       	pushq  $0x4c
  40419b:	e9 20 fb ff ff       	jmpq   403cc0 <_init+0x28>

00000000004041a0 <_ZNSaIcEC1Ev@plt>:
  4041a0:	ff 25 da 50 21 00    	jmpq   *0x2150da(%rip)        # 619280 <_GLOBAL_OFFSET_TABLE_+0x280>
  4041a6:	68 4d 00 00 00       	pushq  $0x4d
  4041ab:	e9 10 fb ff ff       	jmpq   403cc0 <_init+0x28>

00000000004041b0 <_ZN11arm_compute8CLTensor3mapEb@plt>:
  4041b0:	ff 25 d2 50 21 00    	jmpq   *0x2150d2(%rip)        # 619288 <_GLOBAL_OFFSET_TABLE_+0x288>
  4041b6:	68 4e 00 00 00       	pushq  $0x4e
  4041bb:	e9 00 fb ff ff       	jmpq   403cc0 <_init+0x28>

00000000004041c0 <_ZNSt9exceptionD2Ev@plt>:
  4041c0:	ff 25 ca 50 21 00    	jmpq   *0x2150ca(%rip)        # 619290 <_GLOBAL_OFFSET_TABLE_+0x290>
  4041c6:	68 4f 00 00 00       	pushq  $0x4f
  4041cb:	e9 f0 fa ff ff       	jmpq   403cc0 <_init+0x28>

00000000004041d0 <clReleaseKernel@plt>:
  4041d0:	ff 25 c2 50 21 00    	jmpq   *0x2150c2(%rip)        # 619298 <_GLOBAL_OFFSET_TABLE_+0x298>
  4041d6:	68 50 00 00 00       	pushq  $0x50
  4041db:	e9 e0 fa ff ff       	jmpq   403cc0 <_init+0x28>

00000000004041e0 <__libc_start_main@plt>:
  4041e0:	ff 25 ba 50 21 00    	jmpq   *0x2150ba(%rip)        # 6192a0 <_GLOBAL_OFFSET_TABLE_+0x2a0>
  4041e6:	68 51 00 00 00       	pushq  $0x51
  4041eb:	e9 d0 fa ff ff       	jmpq   403cc0 <_init+0x28>

00000000004041f0 <xopenme_add_var_f@plt>:
  4041f0:	ff 25 b2 50 21 00    	jmpq   *0x2150b2(%rip)        # 6192a8 <_GLOBAL_OFFSET_TABLE_+0x2a8>
  4041f6:	68 52 00 00 00       	pushq  $0x52
  4041fb:	e9 c0 fa ff ff       	jmpq   403cc0 <_init+0x28>

0000000000404200 <_ZN11arm_compute8CLTensorC1Ev@plt>:
  404200:	ff 25 aa 50 21 00    	jmpq   *0x2150aa(%rip)        # 6192b0 <_GLOBAL_OFFSET_TABLE_+0x2b0>
  404206:	68 53 00 00 00       	pushq  $0x53
  40420b:	e9 b0 fa ff ff       	jmpq   403cc0 <_init+0x28>

0000000000404210 <__cxa_pure_virtual@plt>:
  404210:	ff 25 a2 50 21 00    	jmpq   *0x2150a2(%rip)        # 6192b8 <_GLOBAL_OFFSET_TABLE_+0x2b8>
  404216:	68 54 00 00 00       	pushq  $0x54
  40421b:	e9 a0 fa ff ff       	jmpq   403cc0 <_init+0x28>

0000000000404220 <xopenme_get_timer@plt>:
  404220:	ff 25 9a 50 21 00    	jmpq   *0x21509a(%rip)        # 6192c0 <_GLOBAL_OFFSET_TABLE_+0x2c0>
  404226:	68 55 00 00 00       	pushq  $0x55
  40422b:	e9 90 fa ff ff       	jmpq   403cc0 <_init+0x28>

0000000000404230 <_ZNSt8ios_base4InitD1Ev@plt>:
  404230:	ff 25 92 50 21 00    	jmpq   *0x215092(%rip)        # 6192c8 <_GLOBAL_OFFSET_TABLE_+0x2c8>
  404236:	68 56 00 00 00       	pushq  $0x56
  40423b:	e9 80 fa ff ff       	jmpq   403cc0 <_init+0x28>

Disassembly of section .plt.got:

0000000000404240 <.plt.got>:
  404240:	ff 25 b2 4d 21 00    	jmpq   *0x214db2(%rip)        # 618ff8 <_DYNAMIC+0x230>
  404246:	66 90                	xchg   %ax,%ax

Disassembly of section .text:

0000000000404250 <_start>:
  404250:	31 ed                	xor    %ebp,%ebp
  404252:	49 89 d1             	mov    %rdx,%r9
  404255:	5e                   	pop    %rsi
  404256:	48 89 e2             	mov    %rsp,%rdx
  404259:	48 83 e4 f0          	and    $0xfffffffffffffff0,%rsp
  40425d:	50                   	push   %rax
  40425e:	54                   	push   %rsp
  40425f:	49 c7 c0 70 03 41 00 	mov    $0x410370,%r8
  404266:	48 c7 c1 00 03 41 00 	mov    $0x410300,%rcx
  40426d:	48 c7 c7 53 48 40 00 	mov    $0x404853,%rdi
  404274:	e8 67 ff ff ff       	callq  4041e0 <__libc_start_main@plt>
  404279:	f4                   	hlt    
  40427a:	66 0f 1f 44 00 00    	nopw   0x0(%rax,%rax,1)

0000000000404280 <deregister_tm_clones>:
  404280:	b8 e7 92 61 00       	mov    $0x6192e7,%eax
  404285:	55                   	push   %rbp
  404286:	48 2d e0 92 61 00    	sub    $0x6192e0,%rax
  40428c:	48 83 f8 0e          	cmp    $0xe,%rax
  404290:	48 89 e5             	mov    %rsp,%rbp
  404293:	76 1b                	jbe    4042b0 <deregister_tm_clones+0x30>
  404295:	b8 00 00 00 00       	mov    $0x0,%eax
  40429a:	48 85 c0             	test   %rax,%rax
  40429d:	74 11                	je     4042b0 <deregister_tm_clones+0x30>
  40429f:	5d                   	pop    %rbp
  4042a0:	bf e0 92 61 00       	mov    $0x6192e0,%edi
  4042a5:	ff e0                	jmpq   *%rax
  4042a7:	66 0f 1f 84 00 00 00 	nopw   0x0(%rax,%rax,1)
  4042ae:	00 00 
  4042b0:	5d                   	pop    %rbp
  4042b1:	c3                   	retq   
  4042b2:	0f 1f 40 00          	nopl   0x0(%rax)
  4042b6:	66 2e 0f 1f 84 00 00 	nopw   %cs:0x0(%rax,%rax,1)
  4042bd:	00 00 00 

00000000004042c0 <register_tm_clones>:
  4042c0:	be e0 92 61 00       	mov    $0x6192e0,%esi
  4042c5:	55                   	push   %rbp
  4042c6:	48 81 ee e0 92 61 00 	sub    $0x6192e0,%rsi
  4042cd:	48 c1 fe 03          	sar    $0x3,%rsi
  4042d1:	48 89 e5             	mov    %rsp,%rbp
  4042d4:	48 89 f0             	mov    %rsi,%rax
  4042d7:	48 c1 e8 3f          	shr    $0x3f,%rax
  4042db:	48 01 c6             	add    %rax,%rsi
  4042de:	48 d1 fe             	sar    %rsi
  4042e1:	74 15                	je     4042f8 <register_tm_clones+0x38>
  4042e3:	b8 00 00 00 00       	mov    $0x0,%eax
  4042e8:	48 85 c0             	test   %rax,%rax
  4042eb:	74 0b                	je     4042f8 <register_tm_clones+0x38>
  4042ed:	5d                   	pop    %rbp
  4042ee:	bf e0 92 61 00       	mov    $0x6192e0,%edi
  4042f3:	ff e0                	jmpq   *%rax
  4042f5:	0f 1f 00             	nopl   (%rax)
  4042f8:	5d                   	pop    %rbp
  4042f9:	c3                   	retq   
  4042fa:	66 0f 1f 44 00 00    	nopw   0x0(%rax,%rax,1)

0000000000404300 <__do_global_dtors_aux>:
  404300:	80 3d 29 53 21 00 00 	cmpb   $0x0,0x215329(%rip)        # 619630 <completed.7593>
  404307:	75 11                	jne    40431a <__do_global_dtors_aux+0x1a>
  404309:	55                   	push   %rbp
  40430a:	48 89 e5             	mov    %rsp,%rbp
  40430d:	e8 6e ff ff ff       	callq  404280 <deregister_tm_clones>
  404312:	5d                   	pop    %rbp
  404313:	c6 05 16 53 21 00 01 	movb   $0x1,0x215316(%rip)        # 619630 <completed.7593>
  40431a:	f3 c3                	repz retq 
  40431c:	0f 1f 40 00          	nopl   0x0(%rax)

0000000000404320 <frame_dummy>:
  404320:	bf c0 8d 61 00       	mov    $0x618dc0,%edi
  404325:	48 83 3f 00          	cmpq   $0x0,(%rdi)
  404329:	75 05                	jne    404330 <frame_dummy+0x10>
  40432b:	eb 93                	jmp    4042c0 <register_tm_clones>
  40432d:	0f 1f 00             	nopl   (%rax)
  404330:	b8 00 00 00 00       	mov    $0x0,%eax
  404335:	48 85 c0             	test   %rax,%rax
  404338:	74 f1                	je     40432b <frame_dummy+0xb>
  40433a:	55                   	push   %rbp
  40433b:	48 89 e5             	mov    %rsp,%rbp
  40433e:	ff d0                	callq  *%rax
  404340:	5d                   	pop    %rbp
  404341:	e9 7a ff ff ff       	jmpq   4042c0 <register_tm_clones>

0000000000404346 <_ZL18__gthread_active_pv>:
  404346:	55                   	push   %rbp
  404347:	48 89 e5             	mov    %rsp,%rbp
  40434a:	b8 01 00 00 00       	mov    $0x1,%eax
  40434f:	ba 40 41 40 00       	mov    $0x404140,%edx
  404354:	48 85 d2             	test   %rdx,%rdx
  404357:	75 05                	jne    40435e <_ZL18__gthread_active_pv+0x18>
  404359:	b8 00 00 00 00       	mov    $0x0,%eax
  40435e:	0f b6 c0             	movzbl %al,%eax
  404361:	5d                   	pop    %rbp
  404362:	c3                   	retq   

0000000000404363 <_ZL14__gthread_oncePiPFvvE>:
  404363:	55                   	push   %rbp
  404364:	48 89 e5             	mov    %rsp,%rbp
  404367:	48 83 ec 10          	sub    $0x10,%rsp
  40436b:	48 89 7d f8          	mov    %rdi,-0x8(%rbp)
  40436f:	48 89 75 f0          	mov    %rsi,-0x10(%rbp)
  404373:	e8 ce ff ff ff       	callq  404346 <_ZL18__gthread_active_pv>
  404378:	85 c0                	test   %eax,%eax
  40437a:	0f 95 c0             	setne  %al
  40437d:	84 c0                	test   %al,%al
  40437f:	74 15                	je     404396 <_ZL14__gthread_oncePiPFvvE+0x33>
  404381:	48 8b 55 f0          	mov    -0x10(%rbp),%rdx
  404385:	48 8b 45 f8          	mov    -0x8(%rbp),%rax
  404389:	48 89 d6             	mov    %rdx,%rsi
  40438c:	48 89 c7             	mov    %rax,%rdi
  40438f:	e8 8c fd ff ff       	callq  404120 <pthread_once@plt>
  404394:	eb 05                	jmp    40439b <_ZL14__gthread_oncePiPFvvE+0x38>
  404396:	b8 ff ff ff ff       	mov    $0xffffffff,%eax
  40439b:	c9                   	leaveq 
  40439c:	c3                   	retq   

000000000040439d <_ZN2cl6detailL10errHandlerEiPKc>:
  40439d:	55                   	push   %rbp
  40439e:	48 89 e5             	mov    %rsp,%rbp
  4043a1:	53                   	push   %rbx
  4043a2:	48 83 ec 18          	sub    $0x18,%rsp
  4043a6:	89 7d ec             	mov    %edi,-0x14(%rbp)
  4043a9:	48 89 75 e0          	mov    %rsi,-0x20(%rbp)
  4043ad:	83 7d ec 00          	cmpl   $0x0,-0x14(%rbp)
  4043b1:	74 30                	je     4043e3 <_ZN2cl6detailL10errHandlerEiPKc+0x46>
  4043b3:	bf 18 00 00 00       	mov    $0x18,%edi
  4043b8:	e8 73 fa ff ff       	callq  403e30 <__cxa_allocate_exception@plt>
  4043bd:	48 89 c3             	mov    %rax,%rbx
  4043c0:	48 8b 55 e0          	mov    -0x20(%rbp),%rdx
  4043c4:	8b 45 ec             	mov    -0x14(%rbp),%eax
  4043c7:	89 c6                	mov    %eax,%esi
  4043c9:	48 89 df             	mov    %rbx,%rdi
  4043cc:	e8 d7 0a 00 00       	callq  404ea8 <_ZN2cl5ErrorC1EiPKc>
  4043d1:	ba ec 4e 40 00       	mov    $0x404eec,%edx
  4043d6:	be 18 0a 41 00       	mov    $0x410a18,%esi
  4043db:	48 89 df             	mov    %rbx,%rdi
  4043de:	e8 9d fd ff ff       	callq  404180 <__cxa_throw@plt>
  4043e3:	8b 45 ec             	mov    -0x14(%rbp),%eax
  4043e6:	48 83 c4 18          	add    $0x18,%rsp
  4043ea:	5b                   	pop    %rbx
  4043eb:	5d                   	pop    %rbp
  4043ec:	c3                   	retq   

00000000004043ed <_ZN2cl6detailL10getVersionERKSt6vectorIcSaIcEE>:
  4043ed:	55                   	push   %rbp
  4043ee:	48 89 e5             	mov    %rsp,%rbp
  4043f1:	48 83 ec 20          	sub    $0x20,%rsp
  4043f5:	48 89 7d e8          	mov    %rdi,-0x18(%rbp)
  4043f9:	c7 45 f4 00 00 00 00 	movl   $0x0,-0xc(%rbp)
  404400:	c7 45 f8 00 00 00 00 	movl   $0x0,-0x8(%rbp)
  404407:	c7 45 fc 07 00 00 00 	movl   $0x7,-0x4(%rbp)
  40440e:	8b 45 fc             	mov    -0x4(%rbp),%eax
  404411:	48 63 d0             	movslq %eax,%rdx
  404414:	48 8b 45 e8          	mov    -0x18(%rbp),%rax
  404418:	48 89 d6             	mov    %rdx,%rsi
  40441b:	48 89 c7             	mov    %rax,%rdi
  40441e:	e8 61 36 00 00       	callq  407a84 <_ZNKSt6vectorIcSaIcEEixEm>
  404423:	0f b6 00             	movzbl (%rax),%eax
  404426:	3c 2e                	cmp    $0x2e,%al
  404428:	0f 95 c0             	setne  %al
  40442b:	84 c0                	test   %al,%al
  40442d:	74 36                	je     404465 <_ZN2cl6detailL10getVersionERKSt6vectorIcSaIcEE+0x78>
  40442f:	8b 55 f4             	mov    -0xc(%rbp),%edx
  404432:	89 d0                	mov    %edx,%eax
  404434:	c1 e0 02             	shl    $0x2,%eax
  404437:	01 d0                	add    %edx,%eax
  404439:	01 c0                	add    %eax,%eax
  40443b:	89 45 f4             	mov    %eax,-0xc(%rbp)
  40443e:	8b 45 fc             	mov    -0x4(%rbp),%eax
  404441:	48 63 d0             	movslq %eax,%rdx
  404444:	48 8b 45 e8          	mov    -0x18(%rbp),%rax
  404448:	48 89 d6             	mov    %rdx,%rsi
  40444b:	48 89 c7             	mov    %rax,%rdi
  40444e:	e8 31 36 00 00       	callq  407a84 <_ZNKSt6vectorIcSaIcEEixEm>
  404453:	0f b6 00             	movzbl (%rax),%eax
  404456:	0f be c0             	movsbl %al,%eax
  404459:	83 e8 30             	sub    $0x30,%eax
  40445c:	01 45 f4             	add    %eax,-0xc(%rbp)
  40445f:	83 45 fc 01          	addl   $0x1,-0x4(%rbp)
  404463:	eb a9                	jmp    40440e <_ZN2cl6detailL10getVersionERKSt6vectorIcSaIcEE+0x21>
  404465:	83 45 fc 01          	addl   $0x1,-0x4(%rbp)
  404469:	8b 45 fc             	mov    -0x4(%rbp),%eax
  40446c:	48 63 d0             	movslq %eax,%rdx
  40446f:	48 8b 45 e8          	mov    -0x18(%rbp),%rax
  404473:	48 89 d6             	mov    %rdx,%rsi
  404476:	48 89 c7             	mov    %rax,%rdi
  404479:	e8 06 36 00 00       	callq  407a84 <_ZNKSt6vectorIcSaIcEEixEm>
  40447e:	0f b6 00             	movzbl (%rax),%eax
  404481:	3c 20                	cmp    $0x20,%al
  404483:	74 23                	je     4044a8 <_ZN2cl6detailL10getVersionERKSt6vectorIcSaIcEE+0xbb>
  404485:	8b 45 fc             	mov    -0x4(%rbp),%eax
  404488:	48 63 d0             	movslq %eax,%rdx
  40448b:	48 8b 45 e8          	mov    -0x18(%rbp),%rax
  40448f:	48 89 d6             	mov    %rdx,%rsi
  404492:	48 89 c7             	mov    %rax,%rdi
  404495:	e8 ea 35 00 00       	callq  407a84 <_ZNKSt6vectorIcSaIcEEixEm>
  40449a:	0f b6 00             	movzbl (%rax),%eax
  40449d:	84 c0                	test   %al,%al
  40449f:	74 07                	je     4044a8 <_ZN2cl6detailL10getVersionERKSt6vectorIcSaIcEE+0xbb>
  4044a1:	b8 01 00 00 00       	mov    $0x1,%eax
  4044a6:	eb 05                	jmp    4044ad <_ZN2cl6detailL10getVersionERKSt6vectorIcSaIcEE+0xc0>
  4044a8:	b8 00 00 00 00       	mov    $0x0,%eax
  4044ad:	84 c0                	test   %al,%al
  4044af:	74 36                	je     4044e7 <_ZN2cl6detailL10getVersionERKSt6vectorIcSaIcEE+0xfa>
  4044b1:	8b 55 f8             	mov    -0x8(%rbp),%edx
  4044b4:	89 d0                	mov    %edx,%eax
  4044b6:	c1 e0 02             	shl    $0x2,%eax
  4044b9:	01 d0                	add    %edx,%eax
  4044bb:	01 c0                	add    %eax,%eax
  4044bd:	89 45 f8             	mov    %eax,-0x8(%rbp)
  4044c0:	8b 45 fc             	mov    -0x4(%rbp),%eax
  4044c3:	48 63 d0             	movslq %eax,%rdx
  4044c6:	48 8b 45 e8          	mov    -0x18(%rbp),%rax
  4044ca:	48 89 d6             	mov    %rdx,%rsi
  4044cd:	48 89 c7             	mov    %rax,%rdi
  4044d0:	e8 af 35 00 00       	callq  407a84 <_ZNKSt6vectorIcSaIcEEixEm>
  4044d5:	0f b6 00             	movzbl (%rax),%eax
  4044d8:	0f be c0             	movsbl %al,%eax
  4044db:	83 e8 30             	sub    $0x30,%eax
  4044de:	01 45 f8             	add    %eax,-0x8(%rbp)
  4044e1:	83 45 fc 01          	addl   $0x1,-0x4(%rbp)
  4044e5:	eb 82                	jmp    404469 <_ZN2cl6detailL10getVersionERKSt6vectorIcSaIcEE+0x7c>
  4044e7:	8b 45 f4             	mov    -0xc(%rbp),%eax
  4044ea:	c1 e0 10             	shl    $0x10,%eax
  4044ed:	0b 45 f8             	or     -0x8(%rbp),%eax
  4044f0:	c9                   	leaveq 
  4044f1:	c3                   	retq   

00000000004044f2 <_ZN2CK16store_setup_timeEf>:
  4044f2:	55                   	push   %rbp
  4044f3:	48 89 e5             	mov    %rsp,%rbp
  4044f6:	48 83 ec 10          	sub    $0x10,%rsp
  4044fa:	f3 0f 11 45 fc       	movss  %xmm0,-0x4(%rbp)
  4044ff:	8b 45 fc             	mov    -0x4(%rbp),%eax
  404502:	89 45 f8             	mov    %eax,-0x8(%rbp)
  404505:	f3 0f 10 45 f8       	movss  -0x8(%rbp),%xmm0
  40450a:	be 70 05 41 00       	mov    $0x410570,%esi
  40450f:	bf 0a 00 00 00       	mov    $0xa,%edi
  404514:	e8 bd 2e 00 00       	callq  4073d6 <_ZN2CK13store_value_fEiPKcf>
  404519:	90                   	nop
  40451a:	c9                   	leaveq 
  40451b:	c3                   	retq   

000000000040451c <_ZN2CK15store_test_timeEf>:
  40451c:	55                   	push   %rbp
  40451d:	48 89 e5             	mov    %rsp,%rbp
  404520:	48 83 ec 10          	sub    $0x10,%rsp
  404524:	f3 0f 11 45 fc       	movss  %xmm0,-0x4(%rbp)
  404529:	8b 45 fc             	mov    -0x4(%rbp),%eax
  40452c:	89 45 f8             	mov    %eax,-0x8(%rbp)
  40452f:	f3 0f 10 45 f8       	movss  -0x8(%rbp),%xmm0
  404534:	be 7b 05 41 00       	mov    $0x41057b,%esi
  404539:	bf 0b 00 00 00       	mov    $0xb,%edi
  40453e:	e8 93 2e 00 00       	callq  4073d6 <_ZN2CK13store_value_fEiPKcf>
  404543:	90                   	nop
  404544:	c9                   	leaveq 
  404545:	c3                   	retq   

0000000000404546 <_ZN2CK5armcl15printf_callbackEPKcjmPv>:
  404546:	55                   	push   %rbp
  404547:	48 89 e5             	mov    %rsp,%rbp
  40454a:	48 83 ec 20          	sub    $0x20,%rsp
  40454e:	48 89 7d f8          	mov    %rdi,-0x8(%rbp)
  404552:	89 75 f4             	mov    %esi,-0xc(%rbp)
  404555:	48 89 55 e8          	mov    %rdx,-0x18(%rbp)
  404559:	48 89 4d e0          	mov    %rcx,-0x20(%rbp)
  40455d:	48 8b 55 f8          	mov    -0x8(%rbp),%rdx
  404561:	8b 45 f4             	mov    -0xc(%rbp),%eax
  404564:	89 c6                	mov    %eax,%esi
  404566:	bf 85 05 41 00       	mov    $0x410585,%edi
  40456b:	b8 00 00 00 00       	mov    $0x0,%eax
  404570:	e8 7b f7 ff ff       	callq  403cf0 <printf@plt>
  404575:	90                   	nop
  404576:	c9                   	leaveq 
  404577:	c3                   	retq   

0000000000404578 <_ZZ4mainENKUlvE_clEv>:
  404578:	55                   	push   %rbp
  404579:	48 89 e5             	mov    %rsp,%rbp
  40457c:	53                   	push   %rbx
  40457d:	48 81 ec c8 01 00 00 	sub    $0x1c8,%rsp
  404584:	48 89 bd 38 fe ff ff 	mov    %rdi,-0x1c8(%rbp)
  40458b:	64 48 8b 04 25 28 00 	mov    %fs:0x28,%rax
  404592:	00 00 
  404594:	48 89 45 e8          	mov    %rax,-0x18(%rbp)
  404598:	31 c0                	xor    %eax,%eax
  40459a:	48 8b 85 38 fe ff ff 	mov    -0x1c8(%rbp),%rax
  4045a1:	48 8b 00             	mov    (%rax),%rax
  4045a4:	8b 00                	mov    (%rax),%eax
  4045a6:	89 c7                	mov    %eax,%edi
  4045a8:	48 8b 85 38 fe ff ff 	mov    -0x1c8(%rbp),%rax
  4045af:	48 8b 00             	mov    (%rax),%rax
  4045b2:	8b 40 04             	mov    0x4(%rax),%eax
  4045b5:	89 c1                	mov    %eax,%ecx
  4045b7:	48 8b 85 38 fe ff ff 	mov    -0x1c8(%rbp),%rax
  4045be:	48 8b 00             	mov    (%rax),%rax
  4045c1:	8b 40 08             	mov    0x8(%rax),%eax
  4045c4:	89 c2                	mov    %eax,%edx
  4045c6:	48 8b 85 38 fe ff ff 	mov    -0x1c8(%rbp),%rax
  4045cd:	48 8b 00             	mov    (%rax),%rax
  4045d0:	8b 40 0c             	mov    0xc(%rax),%eax
  4045d3:	89 c6                	mov    %eax,%esi
  4045d5:	48 8d 85 50 fe ff ff 	lea    -0x1b0(%rbp),%rax
  4045dc:	41 89 f8             	mov    %edi,%r8d
  4045df:	48 89 c7             	mov    %rax,%rdi
  4045e2:	e8 df 44 00 00       	callq  408ac6 <_ZN11arm_compute11TensorShapeC1IJjjjjEEEDpT_>
  4045e7:	48 8b 85 38 fe ff ff 	mov    -0x1c8(%rbp),%rax
  4045ee:	48 8b 00             	mov    (%rax),%rax
  4045f1:	8b 00                	mov    (%rax),%eax
  4045f3:	89 c7                	mov    %eax,%edi
  4045f5:	48 8b 85 38 fe ff ff 	mov    -0x1c8(%rbp),%rax
  4045fc:	48 8b 40 08          	mov    0x8(%rax),%rax
  404600:	8b 40 04             	mov    0x4(%rax),%eax
  404603:	89 c1                	mov    %eax,%ecx
  404605:	48 8b 85 38 fe ff ff 	mov    -0x1c8(%rbp),%rax
  40460c:	48 8b 40 08          	mov    0x8(%rax),%rax
  404610:	8b 40 08             	mov    0x8(%rax),%eax
  404613:	89 c2                	mov    %eax,%edx
  404615:	48 8b 85 38 fe ff ff 	mov    -0x1c8(%rbp),%rax
  40461c:	48 8b 40 08          	mov    0x8(%rax),%rax
  404620:	8b 40 0c             	mov    0xc(%rax),%eax
  404623:	89 c6                	mov    %eax,%esi
  404625:	48 8d 85 90 fe ff ff 	lea    -0x170(%rbp),%rax
  40462c:	41 89 f8             	mov    %edi,%r8d
  40462f:	48 89 c7             	mov    %rax,%rdi
  404632:	e8 8f 44 00 00       	callq  408ac6 <_ZN11arm_compute11TensorShapeC1IJjjjjEEEDpT_>
  404637:	48 8d 8d 50 fe ff ff 	lea    -0x1b0(%rbp),%rcx
  40463e:	48 8d 85 d0 fe ff ff 	lea    -0x130(%rbp),%rax
  404645:	ba 07 00 00 00       	mov    $0x7,%edx
  40464a:	48 89 ce             	mov    %rcx,%rsi
  40464d:	48 89 c7             	mov    %rax,%rdi
  404650:	e8 1b fb ff ff       	callq  404170 <_ZN11arm_compute10TensorInfoC1ERKNS_11TensorShapeENS_6FormatE@plt>
  404655:	48 8b 85 38 fe ff ff 	mov    -0x1c8(%rbp),%rax
  40465c:	48 8b 40 10          	mov    0x10(%rax),%rax
  404660:	48 89 c7             	mov    %rax,%rdi
  404663:	e8 08 f9 ff ff       	callq  403f70 <_ZN11arm_compute8CLTensor9allocatorEv@plt>
  404668:	48 89 c2             	mov    %rax,%rdx
  40466b:	48 8d 85 d0 fe ff ff 	lea    -0x130(%rbp),%rax
  404672:	48 89 c6             	mov    %rax,%rsi
  404675:	48 89 d7             	mov    %rdx,%rdi
  404678:	e8 d3 f8 ff ff       	callq  403f50 <_ZN11arm_compute16ITensorAllocator4initERKNS_10TensorInfoE@plt>
  40467d:	48 8d 85 d0 fe ff ff 	lea    -0x130(%rbp),%rax
  404684:	48 89 c7             	mov    %rax,%rdi
  404687:	e8 2a 84 00 00       	callq  40cab6 <_ZN11arm_compute10TensorInfoD1Ev>
  40468c:	48 8d 8d 90 fe ff ff 	lea    -0x170(%rbp),%rcx
  404693:	48 8d 85 d0 fe ff ff 	lea    -0x130(%rbp),%rax
  40469a:	ba 07 00 00 00       	mov    $0x7,%edx
  40469f:	48 89 ce             	mov    %rcx,%rsi
  4046a2:	48 89 c7             	mov    %rax,%rdi
  4046a5:	e8 c6 fa ff ff       	callq  404170 <_ZN11arm_compute10TensorInfoC1ERKNS_11TensorShapeENS_6FormatE@plt>
  4046aa:	48 8b 85 38 fe ff ff 	mov    -0x1c8(%rbp),%rax
  4046b1:	48 8b 40 18          	mov    0x18(%rax),%rax
  4046b5:	48 89 c7             	mov    %rax,%rdi
  4046b8:	e8 b3 f8 ff ff       	callq  403f70 <_ZN11arm_compute8CLTensor9allocatorEv@plt>
  4046bd:	48 89 c2             	mov    %rax,%rdx
  4046c0:	48 8d 85 d0 fe ff ff 	lea    -0x130(%rbp),%rax
  4046c7:	48 89 c6             	mov    %rax,%rsi
  4046ca:	48 89 d7             	mov    %rdx,%rdi
  4046cd:	e8 7e f8 ff ff       	callq  403f50 <_ZN11arm_compute16ITensorAllocator4initERKNS_10TensorInfoE@plt>
  4046d2:	48 8d 85 d0 fe ff ff 	lea    -0x130(%rbp),%rax
  4046d9:	48 89 c7             	mov    %rax,%rdi
  4046dc:	e8 d5 83 00 00       	callq  40cab6 <_ZN11arm_compute10TensorInfoD1Ev>
  4046e1:	48 8b 85 38 fe ff ff 	mov    -0x1c8(%rbp),%rax
  4046e8:	48 8b 40 18          	mov    0x18(%rax),%rax
  4046ec:	48 89 c2             	mov    %rax,%rdx
  4046ef:	48 8b 85 38 fe ff ff 	mov    -0x1c8(%rbp),%rax
  4046f6:	48 8b 40 10          	mov    0x10(%rax),%rax
  4046fa:	48 89 c1             	mov    %rax,%rcx
  4046fd:	48 8b 85 38 fe ff ff 	mov    -0x1c8(%rbp),%rax
  404704:	48 8b 40 20          	mov    0x20(%rax),%rax
  404708:	48 89 ce             	mov    %rcx,%rsi
  40470b:	48 89 c7             	mov    %rax,%rdi
  40470e:	e8 3d f7 ff ff       	callq  403e50 <_ZN11arm_compute14CLReshapeLayer9configureEPKNS_9ICLTensorEPS1_@plt>
  404713:	48 8b 85 38 fe ff ff 	mov    -0x1c8(%rbp),%rax
  40471a:	48 8b 40 10          	mov    0x10(%rax),%rax
  40471e:	48 89 c7             	mov    %rax,%rdi
  404721:	e8 4a f8 ff ff       	callq  403f70 <_ZN11arm_compute8CLTensor9allocatorEv@plt>
  404726:	48 8b 10             	mov    (%rax),%rdx
  404729:	48 83 c2 10          	add    $0x10,%rdx
  40472d:	48 8b 12             	mov    (%rdx),%rdx
  404730:	48 89 c7             	mov    %rax,%rdi
  404733:	ff d2                	callq  *%rdx
  404735:	48 8b 85 38 fe ff ff 	mov    -0x1c8(%rbp),%rax
  40473c:	48 8b 40 18          	mov    0x18(%rax),%rax
  404740:	48 89 c7             	mov    %rax,%rdi
  404743:	e8 28 f8 ff ff       	callq  403f70 <_ZN11arm_compute8CLTensor9allocatorEv@plt>
  404748:	48 8b 10             	mov    (%rax),%rdx
  40474b:	48 83 c2 10          	add    $0x10,%rdx
  40474f:	48 8b 12             	mov    (%rdx),%rdx
  404752:	48 89 c7             	mov    %rax,%rdi
  404755:	ff d2                	callq  *%rdx
  404757:	48 8b 85 38 fe ff ff 	mov    -0x1c8(%rbp),%rax
  40475e:	48 8b 00             	mov    (%rax),%rax
  404761:	48 89 c7             	mov    %rax,%rdi
  404764:	e8 1d 44 00 00       	callq  408b86 <_ZN2CK19get_random_raw_dataIfEEPT_RKNS_5ShapeE>
  404769:	48 89 85 48 fe ff ff 	mov    %rax,-0x1b8(%rbp)
  404770:	48 8b 85 38 fe ff ff 	mov    -0x1c8(%rbp),%rax
  404777:	48 8b 10             	mov    (%rax),%rdx
  40477a:	48 8b 85 48 fe ff ff 	mov    -0x1b8(%rbp),%rax
  404781:	48 89 d6             	mov    %rdx,%rsi
  404784:	48 89 c7             	mov    %rax,%rdi
  404787:	e8 e1 44 00 00       	callq  408c6d <_ZN2CK20print_input_raw_dataIfEEvPT_RKNS_5ShapeE>
  40478c:	48 8b 85 38 fe ff ff 	mov    -0x1c8(%rbp),%rax
  404793:	48 8b 10             	mov    (%rax),%rdx
  404796:	48 8b 85 38 fe ff ff 	mov    -0x1c8(%rbp),%rax
  40479d:	48 8b 40 10          	mov    0x10(%rax),%rax
  4047a1:	48 8b 8d 48 fe ff ff 	mov    -0x1b8(%rbp),%rcx
  4047a8:	48 89 ce             	mov    %rcx,%rsi
  4047ab:	48 89 c7             	mov    %rax,%rdi
  4047ae:	e8 4b 45 00 00       	callq  408cfe <_ZN2CK5armcl23copy_raw_data_to_tensorIfEEvPN11arm_compute8CLTensorEPT_RKNS_5ShapeE>
  4047b3:	48 83 bd 48 fe ff ff 	cmpq   $0x0,-0x1b8(%rbp)
  4047ba:	00 
  4047bb:	74 4b                	je     404808 <_ZZ4mainENKUlvE_clEv+0x290>
  4047bd:	48 8b 85 48 fe ff ff 	mov    -0x1b8(%rbp),%rax
  4047c4:	48 89 c7             	mov    %rax,%rdi
  4047c7:	e8 14 f8 ff ff       	callq  403fe0 <_ZdaPv@plt>
  4047cc:	eb 3a                	jmp    404808 <_ZZ4mainENKUlvE_clEv+0x290>
  4047ce:	48 89 c3             	mov    %rax,%rbx
  4047d1:	48 8d 85 d0 fe ff ff 	lea    -0x130(%rbp),%rax
  4047d8:	48 89 c7             	mov    %rax,%rdi
  4047db:	e8 d6 82 00 00       	callq  40cab6 <_ZN11arm_compute10TensorInfoD1Ev>
  4047e0:	48 89 d8             	mov    %rbx,%rax
  4047e3:	48 89 c7             	mov    %rax,%rdi
  4047e6:	e8 a5 f9 ff ff       	callq  404190 <_Unwind_Resume@plt>
  4047eb:	48 89 c3             	mov    %rax,%rbx
  4047ee:	48 8d 85 d0 fe ff ff 	lea    -0x130(%rbp),%rax
  4047f5:	48 89 c7             	mov    %rax,%rdi
  4047f8:	e8 b9 82 00 00       	callq  40cab6 <_ZN11arm_compute10TensorInfoD1Ev>
  4047fd:	48 89 d8             	mov    %rbx,%rax
  404800:	48 89 c7             	mov    %rax,%rdi
  404803:	e8 88 f9 ff ff       	callq  404190 <_Unwind_Resume@plt>
  404808:	90                   	nop
  404809:	48 8b 45 e8          	mov    -0x18(%rbp),%rax
  40480d:	64 48 33 04 25 28 00 	xor    %fs:0x28,%rax
  404814:	00 00 
  404816:	74 05                	je     40481d <_ZZ4mainENKUlvE_clEv+0x2a5>
  404818:	e8 13 f7 ff ff       	callq  403f30 <__stack_chk_fail@plt>
  40481d:	48 81 c4 c8 01 00 00 	add    $0x1c8,%rsp
  404824:	5b                   	pop    %rbx
  404825:	5d                   	pop    %rbp
  404826:	c3                   	retq   
  404827:	90                   	nop

0000000000404828 <_ZZ4mainENKUlvE0_clEv>:
  404828:	55                   	push   %rbp
  404829:	48 89 e5             	mov    %rsp,%rbp
  40482c:	48 83 ec 10          	sub    $0x10,%rsp
  404830:	48 89 7d f8          	mov    %rdi,-0x8(%rbp)
  404834:	48 8b 45 f8          	mov    -0x8(%rbp),%rax
  404838:	48 8b 00             	mov    (%rax),%rax
  40483b:	48 89 c7             	mov    %rax,%rdi
  40483e:	e8 bd f6 ff ff       	callq  403f00 <_ZN11arm_compute17ICLSimpleFunction3runEv@plt>
  404843:	e8 c8 f4 ff ff       	callq  403d10 <_ZN11arm_compute11CLScheduler3getEv@plt>
  404848:	48 89 c7             	mov    %rax,%rdi
  40484b:	e8 0e 2a 00 00       	callq  40725e <_ZN11arm_compute11CLScheduler4syncEv>
  404850:	90                   	nop
  404851:	c9                   	leaveq 
  404852:	c3                   	retq   

0000000000404853 <main>:
  404853:	55                   	push   %rbp
  404854:	48 89 e5             	mov    %rsp,%rbp
  404857:	41 54                	push   %r12
  404859:	53                   	push   %rbx
  40485a:	48 81 ec e0 03 00 00 	sub    $0x3e0,%rsp
  404861:	64 48 8b 04 25 28 00 	mov    %fs:0x28,%rax
  404868:	00 00 
  40486a:	48 89 45 e8          	mov    %rax,-0x18(%rbp)
  40486e:	31 c0                	xor    %eax,%eax
  404870:	e8 f2 2c 00 00       	callq  407567 <_ZN2CK9init_testEv>
  404875:	48 c7 85 20 fc ff ff 	movq   $0x0,-0x3e0(%rbp)
  40487c:	00 00 00 00 
  404880:	bf b7 05 41 00       	mov    $0x4105b7,%edi
  404885:	e8 f6 f6 ff ff       	callq  403f80 <getenv@plt>
  40488a:	48 85 c0             	test   %rax,%rax
  40488d:	0f 95 c0             	setne  %al
  404890:	88 85 1f fc ff ff    	mov    %al,-0x3e1(%rbp)
  404896:	80 bd 1f fc ff ff 00 	cmpb   $0x0,-0x3e1(%rbp)
  40489d:	74 1c                	je     4048bb <main+0x68>
  40489f:	bf 40 00 00 00       	mov    $0x40,%edi
  4048a4:	e8 47 f6 ff ff       	callq  403ef0 <_Znwm@plt>
  4048a9:	48 89 c3             	mov    %rax,%rbx
  4048ac:	48 89 df             	mov    %rbx,%rdi
  4048af:	e8 a6 83 00 00       	callq  40cc5a <_ZN11arm_compute15CLTuner_ReshapeC1Ev>
  4048b4:	48 89 9d 20 fc ff ff 	mov    %rbx,-0x3e0(%rbp)
  4048bb:	48 8b 85 20 fc ff ff 	mov    -0x3e0(%rbp),%rax
  4048c2:	48 89 c7             	mov    %rax,%rdi
  4048c5:	e8 16 2e 00 00       	callq  4076e0 <_ZN2CK5armcl10init_armclEPN11arm_compute8ICLTunerE>
  4048ca:	b9 01 00 00 00       	mov    $0x1,%ecx
  4048cf:	ba 01 00 00 00       	mov    $0x1,%edx
  4048d4:	be 03 00 00 00       	mov    $0x3,%esi
  4048d9:	bf 01 00 00 00       	mov    $0x1,%edi
  4048de:	e8 6f 2b 00 00       	callq  407452 <_ZN2CK24get_input_shape_from_envEiiii>
  4048e3:	48 89 85 30 fc ff ff 	mov    %rax,-0x3d0(%rbp)
  4048ea:	48 89 95 38 fc ff ff 	mov    %rdx,-0x3c8(%rbp)
  4048f1:	c7 85 40 fc ff ff 01 	movl   $0x1,-0x3c0(%rbp)
  4048f8:	00 00 00 
  4048fb:	c7 85 44 fc ff ff 01 	movl   $0x1,-0x3bc(%rbp)
  404902:	00 00 00 
  404905:	c7 85 48 fc ff ff 01 	movl   $0x1,-0x3b8(%rbp)
  40490c:	00 00 00 
  40490f:	c7 85 4c fc ff ff 01 	movl   $0x1,-0x3b4(%rbp)
  404916:	00 00 00 
  404919:	8b 85 30 fc ff ff    	mov    -0x3d0(%rbp),%eax
  40491f:	89 85 40 fc ff ff    	mov    %eax,-0x3c0(%rbp)
  404925:	be 01 00 00 00       	mov    $0x1,%esi
  40492a:	bf cb 05 41 00       	mov    $0x4105cb,%edi
  40492f:	e8 f5 29 00 00       	callq  407329 <_ZN2CK8getenv_iEPKci>
  404934:	89 85 48 fc ff ff    	mov    %eax,-0x3b8(%rbp)
  40493a:	be 01 00 00 00       	mov    $0x1,%esi
  40493f:	bf cb 05 41 00       	mov    $0x4105cb,%edi
  404944:	e8 e0 29 00 00       	callq  407329 <_ZN2CK8getenv_iEPKci>
  404949:	89 85 48 fc ff ff    	mov    %eax,-0x3b8(%rbp)
  40494f:	be 01 00 00 00       	mov    $0x1,%esi
  404954:	bf da 05 41 00       	mov    $0x4105da,%edi
  404959:	e8 cb 29 00 00       	callq  407329 <_ZN2CK8getenv_iEPKci>
  40495e:	89 85 4c fc ff ff    	mov    %eax,-0x3b4(%rbp)
  404964:	be 01 00 00 00       	mov    $0x1,%esi
  404969:	bf e9 05 41 00       	mov    $0x4105e9,%edi
  40496e:	e8 b6 29 00 00       	callq  407329 <_ZN2CK8getenv_iEPKci>
  404973:	89 85 44 fc ff ff    	mov    %eax,-0x3bc(%rbp)
  404979:	48 8d 85 40 fd ff ff 	lea    -0x2c0(%rbp),%rax
  404980:	48 89 c7             	mov    %rax,%rdi
  404983:	e8 78 f8 ff ff       	callq  404200 <_ZN11arm_compute8CLTensorC1Ev@plt>
  404988:	48 8d 85 90 fe ff ff 	lea    -0x170(%rbp),%rax
  40498f:	48 89 c7             	mov    %rax,%rdi
  404992:	e8 69 f8 ff ff       	callq  404200 <_ZN11arm_compute8CLTensorC1Ev@plt>
  404997:	48 8d 85 80 fc ff ff 	lea    -0x380(%rbp),%rax
  40499e:	48 89 c7             	mov    %rax,%rdi
  4049a1:	e8 6a 30 00 00       	callq  407a10 <_ZN11arm_compute14CLReshapeLayerC1Ev>
  4049a6:	48 8d 85 30 fc ff ff 	lea    -0x3d0(%rbp),%rax
  4049ad:	48 89 85 50 fc ff ff 	mov    %rax,-0x3b0(%rbp)
  4049b4:	48 8d 85 40 fc ff ff 	lea    -0x3c0(%rbp),%rax
  4049bb:	48 89 85 58 fc ff ff 	mov    %rax,-0x3a8(%rbp)
  4049c2:	48 8d 85 40 fd ff ff 	lea    -0x2c0(%rbp),%rax
  4049c9:	48 89 85 60 fc ff ff 	mov    %rax,-0x3a0(%rbp)
  4049d0:	48 8d 85 90 fe ff ff 	lea    -0x170(%rbp),%rax
  4049d7:	48 89 85 68 fc ff ff 	mov    %rax,-0x398(%rbp)
  4049de:	48 8d 85 80 fc ff ff 	lea    -0x380(%rbp),%rax
  4049e5:	48 89 85 70 fc ff ff 	mov    %rax,-0x390(%rbp)
  4049ec:	48 8d 85 50 fc ff ff 	lea    -0x3b0(%rbp),%rax
  4049f3:	48 89 c7             	mov    %rax,%rdi
  4049f6:	e8 e4 01 00 00       	callq  404bdf <_ZN2CK13measure_setupIZ4mainEUlvE_EEvOT_>
  4049fb:	48 8d 85 80 fc ff ff 	lea    -0x380(%rbp),%rax
  404a02:	48 89 85 50 fc ff ff 	mov    %rax,-0x3b0(%rbp)
  404a09:	48 8d 85 50 fc ff ff 	lea    -0x3b0(%rbp),%rax
  404a10:	48 89 c7             	mov    %rax,%rdi
  404a13:	e8 fa 01 00 00       	callq  404c12 <_ZN2CK12measure_testIZ4mainEUlvE0_EEvOT_>
  404a18:	48 8d 85 40 fc ff ff 	lea    -0x3c0(%rbp),%rax
  404a1f:	48 89 c7             	mov    %rax,%rdi
  404a22:	e8 57 28 00 00       	callq  40727e <_ZNK2CK5Shape10data_countEv>
  404a27:	48 98                	cltq   
  404a29:	48 ba fe ff ff ff ff 	movabs $0x1ffffffffffffffe,%rdx
  404a30:	ff ff 1f 
  404a33:	48 39 d0             	cmp    %rdx,%rax
  404a36:	77 0e                	ja     404a46 <main+0x1f3>
  404a38:	48 c1 e0 02          	shl    $0x2,%rax
  404a3c:	48 89 c7             	mov    %rax,%rdi
  404a3f:	e8 8c f2 ff ff       	callq  403cd0 <_Znam@plt>
  404a44:	eb 05                	jmp    404a4b <main+0x1f8>
  404a46:	e8 15 f6 ff ff       	callq  404060 <__cxa_throw_bad_array_new_length@plt>
  404a4b:	48 89 85 28 fc ff ff 	mov    %rax,-0x3d8(%rbp)
  404a52:	48 8d 95 40 fc ff ff 	lea    -0x3c0(%rbp),%rdx
  404a59:	48 8b 8d 28 fc ff ff 	mov    -0x3d8(%rbp),%rcx
  404a60:	48 8d 85 90 fe ff ff 	lea    -0x170(%rbp),%rax
  404a67:	48 89 ce             	mov    %rcx,%rsi
  404a6a:	48 89 c7             	mov    %rax,%rdi
  404a6d:	e8 7f 44 00 00       	callq  408ef1 <_ZN2CK5armcl25copy_raw_data_from_tensorIfEEvPN11arm_compute8CLTensorEPT_RKNS_5ShapeE>
  404a72:	48 8d 95 40 fc ff ff 	lea    -0x3c0(%rbp),%rdx
  404a79:	48 8b 85 28 fc ff ff 	mov    -0x3d8(%rbp),%rax
  404a80:	48 89 d6             	mov    %rdx,%rsi
  404a83:	48 89 c7             	mov    %rax,%rdi
  404a86:	e8 fe 45 00 00       	callq  409089 <_ZN2CK21print_output_raw_dataIfEEvPT_RKNS_5ShapeE>
  404a8b:	48 8d 95 40 fc ff ff 	lea    -0x3c0(%rbp),%rdx
  404a92:	48 8b 85 28 fc ff ff 	mov    -0x3d8(%rbp),%rax
  404a99:	48 89 d6             	mov    %rdx,%rsi
  404a9c:	48 89 c7             	mov    %rax,%rdi
  404a9f:	e8 12 46 00 00       	callq  4090b6 <_ZN2CK20dump_output_raw_dataIfEEvPT_RKNS_5ShapeE>
  404aa4:	48 83 bd 28 fc ff ff 	cmpq   $0x0,-0x3d8(%rbp)
  404aab:	00 
  404aac:	74 0f                	je     404abd <main+0x26a>
  404aae:	48 8b 85 28 fc ff ff 	mov    -0x3d8(%rbp),%rax
  404ab5:	48 89 c7             	mov    %rax,%rdi
  404ab8:	e8 23 f5 ff ff       	callq  403fe0 <_ZdaPv@plt>
  404abd:	48 8d 85 40 fd ff ff 	lea    -0x2c0(%rbp),%rax
  404ac4:	48 89 c7             	mov    %rax,%rdi
  404ac7:	e8 a4 f4 ff ff       	callq  403f70 <_ZN11arm_compute8CLTensor9allocatorEv@plt>
  404acc:	48 8b 10             	mov    (%rax),%rdx
  404acf:	48 83 c2 18          	add    $0x18,%rdx
  404ad3:	48 8b 12             	mov    (%rdx),%rdx
  404ad6:	48 89 c7             	mov    %rax,%rdi
  404ad9:	ff d2                	callq  *%rdx
  404adb:	48 8d 85 90 fe ff ff 	lea    -0x170(%rbp),%rax
  404ae2:	48 89 c7             	mov    %rax,%rdi
  404ae5:	e8 86 f4 ff ff       	callq  403f70 <_ZN11arm_compute8CLTensor9allocatorEv@plt>
  404aea:	48 8b 10             	mov    (%rax),%rdx
  404aed:	48 83 c2 18          	add    $0x18,%rdx
  404af1:	48 8b 12             	mov    (%rdx),%rdx
  404af4:	48 89 c7             	mov    %rax,%rdi
  404af7:	ff d2                	callq  *%rdx
  404af9:	80 bd 1f fc ff ff 00 	cmpb   $0x0,-0x3e1(%rbp)
  404b00:	74 27                	je     404b29 <main+0x2d6>
  404b02:	48 83 bd 20 fc ff ff 	cmpq   $0x0,-0x3e0(%rbp)
  404b09:	00 
  404b0a:	74 1d                	je     404b29 <main+0x2d6>
  404b0c:	48 8b 85 20 fc ff ff 	mov    -0x3e0(%rbp),%rax
  404b13:	48 8b 00             	mov    (%rax),%rax
  404b16:	48 83 c0 08          	add    $0x8,%rax
  404b1a:	48 8b 00             	mov    (%rax),%rax
  404b1d:	48 8b 95 20 fc ff ff 	mov    -0x3e0(%rbp),%rdx
  404b24:	48 89 d7             	mov    %rdx,%rdi
  404b27:	ff d0                	callq  *%rax
  404b29:	e8 83 2a 00 00       	callq  4075b1 <_ZN2CK11finish_testEv>
  404b2e:	bb 00 00 00 00       	mov    $0x0,%ebx
  404b33:	48 8d 85 80 fc ff ff 	lea    -0x380(%rbp),%rax
  404b3a:	48 89 c7             	mov    %rax,%rdi
  404b3d:	e8 62 7d 00 00       	callq  40c8a4 <_ZN11arm_compute14CLReshapeLayerD1Ev>
  404b42:	48 8d 85 90 fe ff ff 	lea    -0x170(%rbp),%rax
  404b49:	48 89 c7             	mov    %rax,%rdi
  404b4c:	e8 2d 7e 00 00       	callq  40c97e <_ZN11arm_compute8CLTensorD1Ev>
  404b51:	48 8d 85 40 fd ff ff 	lea    -0x2c0(%rbp),%rax
  404b58:	48 89 c7             	mov    %rax,%rdi
  404b5b:	e8 1e 7e 00 00       	callq  40c97e <_ZN11arm_compute8CLTensorD1Ev>
  404b60:	89 d8                	mov    %ebx,%eax
  404b62:	48 8b 4d e8          	mov    -0x18(%rbp),%rcx
  404b66:	64 48 33 0c 25 28 00 	xor    %fs:0x28,%rcx
  404b6d:	00 00 
  404b6f:	74 62                	je     404bd3 <main+0x380>
  404b71:	eb 5b                	jmp    404bce <main+0x37b>
  404b73:	49 89 c4             	mov    %rax,%r12
  404b76:	48 89 df             	mov    %rbx,%rdi
  404b79:	e8 52 f3 ff ff       	callq  403ed0 <_ZdlPv@plt>
  404b7e:	4c 89 e0             	mov    %r12,%rax
  404b81:	48 89 c7             	mov    %rax,%rdi
  404b84:	e8 07 f6 ff ff       	callq  404190 <_Unwind_Resume@plt>
  404b89:	48 89 c3             	mov    %rax,%rbx
  404b8c:	48 8d 85 80 fc ff ff 	lea    -0x380(%rbp),%rax
  404b93:	48 89 c7             	mov    %rax,%rdi
  404b96:	e8 09 7d 00 00       	callq  40c8a4 <_ZN11arm_compute14CLReshapeLayerD1Ev>
  404b9b:	eb 03                	jmp    404ba0 <main+0x34d>
  404b9d:	48 89 c3             	mov    %rax,%rbx
  404ba0:	48 8d 85 90 fe ff ff 	lea    -0x170(%rbp),%rax
  404ba7:	48 89 c7             	mov    %rax,%rdi
  404baa:	e8 cf 7d 00 00       	callq  40c97e <_ZN11arm_compute8CLTensorD1Ev>
  404baf:	eb 03                	jmp    404bb4 <main+0x361>
  404bb1:	48 89 c3             	mov    %rax,%rbx
  404bb4:	48 8d 85 40 fd ff ff 	lea    -0x2c0(%rbp),%rax
  404bbb:	48 89 c7             	mov    %rax,%rdi
  404bbe:	e8 bb 7d 00 00       	callq  40c97e <_ZN11arm_compute8CLTensorD1Ev>
  404bc3:	48 89 d8             	mov    %rbx,%rax
  404bc6:	48 89 c7             	mov    %rax,%rdi
  404bc9:	e8 c2 f5 ff ff       	callq  404190 <_Unwind_Resume@plt>
  404bce:	e8 5d f3 ff ff       	callq  403f30 <__stack_chk_fail@plt>
  404bd3:	48 81 c4 e0 03 00 00 	add    $0x3e0,%rsp
  404bda:	5b                   	pop    %rbx
  404bdb:	41 5c                	pop    %r12
  404bdd:	5d                   	pop    %rbp
  404bde:	c3                   	retq   

0000000000404bdf <_ZN2CK13measure_setupIZ4mainEUlvE_EEvOT_>:
  404bdf:	55                   	push   %rbp
  404be0:	48 89 e5             	mov    %rsp,%rbp
  404be3:	48 83 ec 10          	sub    $0x10,%rsp
  404be7:	48 89 7d f8          	mov    %rdi,-0x8(%rbp)
  404beb:	48 8b 45 f8          	mov    -0x8(%rbp),%rax
  404bef:	be 00 00 00 00       	mov    $0x0,%esi
  404bf4:	48 89 c7             	mov    %rax,%rdi
  404bf7:	e8 49 00 00 00       	callq  404c45 <_ZN2CK11do_measuredIRZ4mainEUlvE_EEvOT_i>
  404bfc:	bf 00 00 00 00       	mov    $0x0,%edi
  404c01:	e8 1a f6 ff ff       	callq  404220 <xopenme_get_timer@plt>
  404c06:	f2 0f 5a c0          	cvtsd2ss %xmm0,%xmm0
  404c0a:	e8 e3 f8 ff ff       	callq  4044f2 <_ZN2CK16store_setup_timeEf>
  404c0f:	90                   	nop
  404c10:	c9                   	leaveq 
  404c11:	c3                   	retq   

0000000000404c12 <_ZN2CK12measure_testIZ4mainEUlvE0_EEvOT_>:
  404c12:	55                   	push   %rbp
  404c13:	48 89 e5             	mov    %rsp,%rbp
  404c16:	48 83 ec 10          	sub    $0x10,%rsp
  404c1a:	48 89 7d f8          	mov    %rdi,-0x8(%rbp)
  404c1e:	48 8b 45 f8          	mov    -0x8(%rbp),%rax
  404c22:	be 01 00 00 00       	mov    $0x1,%esi
  404c27:	48 89 c7             	mov    %rax,%rdi
  404c2a:	e8 48 00 00 00       	callq  404c77 <_ZN2CK11do_measuredIRZ4mainEUlvE0_EEvOT_i>
  404c2f:	bf 01 00 00 00       	mov    $0x1,%edi
  404c34:	e8 e7 f5 ff ff       	callq  404220 <xopenme_get_timer@plt>
  404c39:	f2 0f 5a c0          	cvtsd2ss %xmm0,%xmm0
  404c3d:	e8 da f8 ff ff       	callq  40451c <_ZN2CK15store_test_timeEf>
  404c42:	90                   	nop
  404c43:	c9                   	leaveq 
  404c44:	c3                   	retq   

0000000000404c45 <_ZN2CK11do_measuredIRZ4mainEUlvE_EEvOT_i>:
  404c45:	55                   	push   %rbp
  404c46:	48 89 e5             	mov    %rsp,%rbp
  404c49:	48 83 ec 10          	sub    $0x10,%rsp
  404c4d:	48 89 7d f8          	mov    %rdi,-0x8(%rbp)
  404c51:	89 75 f4             	mov    %esi,-0xc(%rbp)
  404c54:	8b 45 f4             	mov    -0xc(%rbp),%eax
  404c57:	89 c7                	mov    %eax,%edi
  404c59:	e8 e2 f0 ff ff       	callq  403d40 <xopenme_clock_start@plt>
  404c5e:	48 8b 45 f8          	mov    -0x8(%rbp),%rax
  404c62:	48 89 c7             	mov    %rax,%rdi
  404c65:	e8 0e f9 ff ff       	callq  404578 <_ZZ4mainENKUlvE_clEv>
  404c6a:	8b 45 f4             	mov    -0xc(%rbp),%eax
  404c6d:	89 c7                	mov    %eax,%edi
  404c6f:	e8 bc f3 ff ff       	callq  404030 <xopenme_clock_end@plt>
  404c74:	90                   	nop
  404c75:	c9                   	leaveq 
  404c76:	c3                   	retq   

0000000000404c77 <_ZN2CK11do_measuredIRZ4mainEUlvE0_EEvOT_i>:
  404c77:	55                   	push   %rbp
  404c78:	48 89 e5             	mov    %rsp,%rbp
  404c7b:	48 83 ec 10          	sub    $0x10,%rsp
  404c7f:	48 89 7d f8          	mov    %rdi,-0x8(%rbp)
  404c83:	89 75 f4             	mov    %esi,-0xc(%rbp)
  404c86:	8b 45 f4             	mov    -0xc(%rbp),%eax
  404c89:	89 c7                	mov    %eax,%edi
  404c8b:	e8 b0 f0 ff ff       	callq  403d40 <xopenme_clock_start@plt>
  404c90:	48 8b 45 f8          	mov    -0x8(%rbp),%rax
  404c94:	48 89 c7             	mov    %rax,%rdi
  404c97:	e8 8c fb ff ff       	callq  404828 <_ZZ4mainENKUlvE0_clEv>
  404c9c:	8b 45 f4             	mov    -0xc(%rbp),%eax
  404c9f:	89 c7                	mov    %eax,%edi
  404ca1:	e8 8a f3 ff ff       	callq  404030 <xopenme_clock_end@plt>
  404ca6:	90                   	nop
  404ca7:	c9                   	leaveq 
  404ca8:	c3                   	retq   

0000000000404ca9 <_Z41__static_initialization_and_destruction_0ii>:
  404ca9:	55                   	push   %rbp
  404caa:	48 89 e5             	mov    %rsp,%rbp
  404cad:	53                   	push   %rbx
  404cae:	48 83 ec 28          	sub    $0x28,%rsp
  404cb2:	89 7d dc             	mov    %edi,-0x24(%rbp)
  404cb5:	89 75 d8             	mov    %esi,-0x28(%rbp)
  404cb8:	64 48 8b 04 25 28 00 	mov    %fs:0x28,%rax
  404cbf:	00 00 
  404cc1:	48 89 45 e8          	mov    %rax,-0x18(%rbp)
  404cc5:	31 c0                	xor    %eax,%eax
  404cc7:	83 7d dc 01          	cmpl   $0x1,-0x24(%rbp)
  404ccb:	0f 85 6f 01 00 00    	jne    404e40 <_Z41__static_initialization_and_destruction_0ii+0x197>
  404cd1:	81 7d d8 ff ff 00 00 	cmpl   $0xffff,-0x28(%rbp)
  404cd8:	0f 85 62 01 00 00    	jne    404e40 <_Z41__static_initialization_and_destruction_0ii+0x197>
  404cde:	b8 98 96 61 00       	mov    $0x619698,%eax
  404ce3:	0f b6 00             	movzbl (%rax),%eax
  404ce6:	84 c0                	test   %al,%al
  404ce8:	75 26                	jne    404d10 <_Z41__static_initialization_and_destruction_0ii+0x67>
  404cea:	b8 98 96 61 00       	mov    $0x619698,%eax
  404cef:	c6 00 01             	movb   $0x1,(%rax)
  404cf2:	bf 50 96 61 00       	mov    $0x619650,%edi
  404cf7:	e8 3e 06 00 00       	callq  40533a <_ZN2cl6DeviceC1Ev>
  404cfc:	ba d8 92 61 00       	mov    $0x6192d8,%edx
  404d01:	be 50 96 61 00       	mov    $0x619650,%esi
  404d06:	bf 86 53 40 00       	mov    $0x405386,%edi
  404d0b:	e8 b0 f1 ff ff       	callq  403ec0 <__cxa_atexit@plt>
  404d10:	b8 a0 96 61 00       	mov    $0x6196a0,%eax
  404d15:	0f b6 00             	movzbl (%rax),%eax
  404d18:	84 c0                	test   %al,%al
  404d1a:	75 26                	jne    404d42 <_Z41__static_initialization_and_destruction_0ii+0x99>
  404d1c:	b8 a0 96 61 00       	mov    $0x6196a0,%eax
  404d21:	c6 00 01             	movb   $0x1,(%rax)
  404d24:	bf 68 96 61 00       	mov    $0x619668,%edi
  404d29:	e8 96 09 00 00       	callq  4056c4 <_ZN2cl8PlatformC1Ev>
  404d2e:	ba d8 92 61 00       	mov    $0x6192d8,%edx
  404d33:	be 68 96 61 00       	mov    $0x619668,%esi
  404d38:	bf c0 54 40 00       	mov    $0x4054c0,%edi
  404d3d:	e8 7e f1 ff ff       	callq  403ec0 <__cxa_atexit@plt>
  404d42:	b8 a8 96 61 00       	mov    $0x6196a8,%eax
  404d47:	0f b6 00             	movzbl (%rax),%eax
  404d4a:	84 c0                	test   %al,%al
  404d4c:	75 26                	jne    404d74 <_Z41__static_initialization_and_destruction_0ii+0xcb>
  404d4e:	b8 a8 96 61 00       	mov    $0x6196a8,%eax
  404d53:	c6 00 01             	movb   $0x1,(%rax)
  404d56:	bf 78 96 61 00       	mov    $0x619678,%edi
  404d5b:	e8 56 15 00 00       	callq  4062b6 <_ZN2cl7ContextC1Ev>
  404d60:	ba d8 92 61 00       	mov    $0x6192d8,%edx
  404d65:	be 78 96 61 00       	mov    $0x619678,%esi
  404d6a:	bf 3e 5c 40 00       	mov    $0x405c3e,%edi
  404d6f:	e8 4c f1 ff ff       	callq  403ec0 <__cxa_atexit@plt>
  404d74:	bf c0 96 61 00       	mov    $0x6196c0,%edi
  404d79:	e8 80 16 00 00       	callq  4063fe <_ZN2cl7NDRangeC1Ev>
  404d7e:	b8 b0 96 61 00       	mov    $0x6196b0,%eax
  404d83:	0f b6 00             	movzbl (%rax),%eax
  404d86:	84 c0                	test   %al,%al
  404d88:	75 26                	jne    404db0 <_Z41__static_initialization_and_destruction_0ii+0x107>
  404d8a:	b8 b0 96 61 00       	mov    $0x6196b0,%eax
  404d8f:	c6 00 01             	movb   $0x1,(%rax)
  404d92:	bf 88 96 61 00       	mov    $0x619688,%edi
  404d97:	e8 72 19 00 00       	callq  40670e <_ZN2cl12CommandQueueC1Ev>
  404d9c:	ba d8 92 61 00       	mov    $0x6192d8,%edx
  404da1:	be 88 96 61 00       	mov    $0x619688,%esi
  404da6:	bf 96 64 40 00       	mov    $0x406496,%edi
  404dab:	e8 10 f1 ff ff       	callq  403ec0 <__cxa_atexit@plt>
  404db0:	ba 01 00 00 00       	mov    $0x1,%edx
  404db5:	be 80 00 00 00       	mov    $0x80,%esi
  404dba:	bf e0 96 61 00       	mov    $0x6196e0,%edi
  404dbf:	e8 74 16 00 00       	callq  406438 <_ZN2cl7NDRangeC1Emm>
  404dc4:	48 8d 45 e7          	lea    -0x19(%rbp),%rax
  404dc8:	48 89 c7             	mov    %rax,%rdi
  404dcb:	e8 d0 f3 ff ff       	callq  4041a0 <_ZNSaIcEC1Ev@plt>
  404dd0:	48 8d 45 e7          	lea    -0x19(%rbp),%rax
  404dd4:	48 89 c2             	mov    %rax,%rdx
  404dd7:	be fd 06 41 00       	mov    $0x4106fd,%esi
  404ddc:	bf 00 97 61 00       	mov    $0x619700,%edi
  404de1:	e8 5a f2 ff ff       	callq  404040 <_ZNSt7__cxx1112basic_stringIcSt11char_traitsIcESaIcEEC1EPKcRKS3_@plt>
  404de6:	48 8d 45 e7          	lea    -0x19(%rbp),%rax
  404dea:	48 89 c7             	mov    %rax,%rdi
  404ded:	e8 1e f1 ff ff       	callq  403f10 <_ZNSaIcED1Ev@plt>
  404df2:	ba d8 92 61 00       	mov    $0x6192d8,%edx
  404df7:	be 00 97 61 00       	mov    $0x619700,%esi
  404dfc:	bf 90 3e 40 00       	mov    $0x403e90,%edi
  404e01:	e8 ba f0 ff ff       	callq  403ec0 <__cxa_atexit@plt>
  404e06:	bf 20 97 61 00       	mov    $0x619720,%edi
  404e0b:	e8 a0 f2 ff ff       	callq  4040b0 <_ZNSt8ios_base4InitC1Ev@plt>
  404e10:	ba d8 92 61 00       	mov    $0x6192d8,%edx
  404e15:	be 20 97 61 00       	mov    $0x619720,%esi
  404e1a:	bf 30 42 40 00       	mov    $0x404230,%edi
  404e1f:	e8 9c f0 ff ff       	callq  403ec0 <__cxa_atexit@plt>
  404e24:	eb 1a                	jmp    404e40 <_Z41__static_initialization_and_destruction_0ii+0x197>
  404e26:	48 89 c3             	mov    %rax,%rbx
  404e29:	48 8d 45 e7          	lea    -0x19(%rbp),%rax
  404e2d:	48 89 c7             	mov    %rax,%rdi
  404e30:	e8 db f0 ff ff       	callq  403f10 <_ZNSaIcED1Ev@plt>
  404e35:	48 89 d8             	mov    %rbx,%rax
  404e38:	48 89 c7             	mov    %rax,%rdi
  404e3b:	e8 50 f3 ff ff       	callq  404190 <_Unwind_Resume@plt>
  404e40:	48 8b 45 e8          	mov    -0x18(%rbp),%rax
  404e44:	64 48 33 04 25 28 00 	xor    %fs:0x28,%rax
  404e4b:	00 00 
  404e4d:	74 05                	je     404e54 <_Z41__static_initialization_and_destruction_0ii+0x1ab>
  404e4f:	e8 dc f0 ff ff       	callq  403f30 <__stack_chk_fail@plt>
  404e54:	48 83 c4 28          	add    $0x28,%rsp
  404e58:	5b                   	pop    %rbx
  404e59:	5d                   	pop    %rbp
  404e5a:	c3                   	retq   

0000000000404e5b <_GLOBAL__sub_I__ZN2CK16store_setup_timeEf>:
  404e5b:	55                   	push   %rbp
  404e5c:	48 89 e5             	mov    %rsp,%rbp
  404e5f:	be ff ff 00 00       	mov    $0xffff,%esi
  404e64:	bf 01 00 00 00       	mov    $0x1,%edi
  404e69:	e8 3b fe ff ff       	callq  404ca9 <_Z41__static_initialization_and_destruction_0ii>
  404e6e:	5d                   	pop    %rbp
  404e6f:	c3                   	retq   

0000000000404e70 <_ZNSt9exceptionC1Ev>:
  404e70:	55                   	push   %rbp
  404e71:	48 89 e5             	mov    %rsp,%rbp
  404e74:	48 89 7d f8          	mov    %rdi,-0x8(%rbp)
  404e78:	ba f0 94 61 00       	mov    $0x6194f0,%edx
  404e7d:	48 8b 45 f8          	mov    -0x8(%rbp),%rax
  404e81:	48 89 10             	mov    %rdx,(%rax)
  404e84:	90                   	nop
  404e85:	5d                   	pop    %rbp
  404e86:	c3                   	retq   

0000000000404e87 <_ZnwmPv>:
  404e87:	55                   	push   %rbp
  404e88:	48 89 e5             	mov    %rsp,%rbp
  404e8b:	48 89 7d f8          	mov    %rdi,-0x8(%rbp)
  404e8f:	48 89 75 f0          	mov    %rsi,-0x10(%rbp)
  404e93:	48 8b 45 f0          	mov    -0x10(%rbp),%rax
  404e97:	5d                   	pop    %rbp
  404e98:	c3                   	retq   

0000000000404e99 <_ZdlPvS_>:
  404e99:	55                   	push   %rbp
  404e9a:	48 89 e5             	mov    %rsp,%rbp
  404e9d:	48 89 7d f8          	mov    %rdi,-0x8(%rbp)
  404ea1:	48 89 75 f0          	mov    %rsi,-0x10(%rbp)
  404ea5:	90                   	nop
  404ea6:	5d                   	pop    %rbp
  404ea7:	c3                   	retq   

0000000000404ea8 <_ZN2cl5ErrorC1EiPKc>:
  404ea8:	55                   	push   %rbp
  404ea9:	48 89 e5             	mov    %rsp,%rbp
  404eac:	48 83 ec 20          	sub    $0x20,%rsp
  404eb0:	48 89 7d f8          	mov    %rdi,-0x8(%rbp)
  404eb4:	89 75 f4             	mov    %esi,-0xc(%rbp)
  404eb7:	48 89 55 e8          	mov    %rdx,-0x18(%rbp)
  404ebb:	48 8b 45 f8          	mov    -0x8(%rbp),%rax
  404ebf:	48 89 c7             	mov    %rax,%rdi
  404ec2:	e8 a9 ff ff ff       	callq  404e70 <_ZNSt9exceptionC1Ev>
  404ec7:	ba 10 09 41 00       	mov    $0x410910,%edx
  404ecc:	48 8b 45 f8          	mov    -0x8(%rbp),%rax
  404ed0:	48 89 10             	mov    %rdx,(%rax)
  404ed3:	48 8b 45 f8          	mov    -0x8(%rbp),%rax
  404ed7:	8b 55 f4             	mov    -0xc(%rbp),%edx
  404eda:	89 50 08             	mov    %edx,0x8(%rax)
  404edd:	48 8b 45 f8          	mov    -0x8(%rbp),%rax
  404ee1:	48 8b 55 e8          	mov    -0x18(%rbp),%rdx
  404ee5:	48 89 50 10          	mov    %rdx,0x10(%rax)
  404ee9:	90                   	nop
  404eea:	c9                   	leaveq 
  404eeb:	c3                   	retq   

0000000000404eec <_ZN2cl5ErrorD1Ev>:
  404eec:	55                   	push   %rbp
  404eed:	48 89 e5             	mov    %rsp,%rbp
  404ef0:	48 83 ec 10          	sub    $0x10,%rsp
  404ef4:	48 89 7d f8          	mov    %rdi,-0x8(%rbp)
  404ef8:	ba 10 09 41 00       	mov    $0x410910,%edx
  404efd:	48 8b 45 f8          	mov    -0x8(%rbp),%rax
  404f01:	48 89 10             	mov    %rdx,(%rax)
  404f04:	48 8b 45 f8          	mov    -0x8(%rbp),%rax
  404f08:	48 89 c7             	mov    %rax,%rdi
  404f0b:	e8 b0 f2 ff ff       	callq  4041c0 <_ZNSt9exceptionD2Ev@plt>
  404f10:	90                   	nop
  404f11:	c9                   	leaveq 
  404f12:	c3                   	retq   
  404f13:	90                   	nop

0000000000404f14 <_ZN2cl5ErrorD0Ev>:
  404f14:	55                   	push   %rbp
  404f15:	48 89 e5             	mov    %rsp,%rbp
  404f18:	48 83 ec 10          	sub    $0x10,%rsp
  404f1c:	48 89 7d f8          	mov    %rdi,-0x8(%rbp)
  404f20:	48 8b 45 f8          	mov    -0x8(%rbp),%rax
  404f24:	48 89 c7             	mov    %rax,%rdi
  404f27:	e8 c0 ff ff ff       	callq  404eec <_ZN2cl5ErrorD1Ev>
  404f2c:	48 8b 45 f8          	mov    -0x8(%rbp),%rax
  404f30:	48 89 c7             	mov    %rax,%rdi
  404f33:	e8 98 ef ff ff       	callq  403ed0 <_ZdlPv@plt>
  404f38:	c9                   	leaveq 
  404f39:	c3                   	retq   

0000000000404f3a <_ZNK2cl5Error4whatEv>:
  404f3a:	55                   	push   %rbp
  404f3b:	48 89 e5             	mov    %rsp,%rbp
  404f3e:	48 89 7d f8          	mov    %rdi,-0x8(%rbp)
  404f42:	48 8b 45 f8          	mov    -0x8(%rbp),%rax
  404f46:	48 8b 40 10          	mov    0x10(%rax),%rax
  404f4a:	48 85 c0             	test   %rax,%rax
  404f4d:	75 07                	jne    404f56 <_ZNK2cl5Error4whatEv+0x1c>
  404f4f:	b8 9d 03 41 00       	mov    $0x41039d,%eax
  404f54:	eb 08                	jmp    404f5e <_ZNK2cl5Error4whatEv+0x24>
  404f56:	48 8b 45 f8          	mov    -0x8(%rbp),%rax
  404f5a:	48 8b 40 10          	mov    0x10(%rax),%rax
  404f5e:	5d                   	pop    %rbp
  404f5f:	c3                   	retq   

0000000000404f60 <_ZNK2cl5Error3errEv>:
  404f60:	55                   	push   %rbp
  404f61:	48 89 e5             	mov    %rsp,%rbp
  404f64:	48 89 7d f8          	mov    %rdi,-0x8(%rbp)
  404f68:	48 8b 45 f8          	mov    -0x8(%rbp),%rax
  404f6c:	8b 40 08             	mov    0x8(%rax),%eax
  404f6f:	5d                   	pop    %rbp
  404f70:	c3                   	retq   
  404f71:	90                   	nop

0000000000404f72 <_ZNSt9exceptionC1ERKS_>:
  404f72:	55                   	push   %rbp
  404f73:	48 89 e5             	mov    %rsp,%rbp
  404f76:	48 89 7d f8          	mov    %rdi,-0x8(%rbp)
  404f7a:	48 89 75 f0          	mov    %rsi,-0x10(%rbp)
  404f7e:	ba f0 94 61 00       	mov    $0x6194f0,%edx
  404f83:	48 8b 45 f8          	mov    -0x8(%rbp),%rax
  404f87:	48 89 10             	mov    %rdx,(%rax)
  404f8a:	90                   	nop
  404f8b:	5d                   	pop    %rbp
  404f8c:	c3                   	retq   
  404f8d:	90                   	nop

0000000000404f8e <_ZN2cl5ErrorC1ERKS0_>:
  404f8e:	55                   	push   %rbp
  404f8f:	48 89 e5             	mov    %rsp,%rbp
  404f92:	48 83 ec 10          	sub    $0x10,%rsp
  404f96:	48 89 7d f8          	mov    %rdi,-0x8(%rbp)
  404f9a:	48 89 75 f0          	mov    %rsi,-0x10(%rbp)
  404f9e:	48 8b 55 f0          	mov    -0x10(%rbp),%rdx
  404fa2:	48 8b 45 f8          	mov    -0x8(%rbp),%rax
  404fa6:	48 89 d6             	mov    %rdx,%rsi
  404fa9:	48 89 c7             	mov    %rax,%rdi
  404fac:	e8 c1 ff ff ff       	callq  404f72 <_ZNSt9exceptionC1ERKS_>
  404fb1:	ba 10 09 41 00       	mov    $0x410910,%edx
  404fb6:	48 8b 45 f8          	mov    -0x8(%rbp),%rax
  404fba:	48 89 10             	mov    %rdx,(%rax)
  404fbd:	48 8b 45 f0          	mov    -0x10(%rbp),%rax
  404fc1:	8b 50 08             	mov    0x8(%rax),%edx
  404fc4:	48 8b 45 f8          	mov    -0x8(%rbp),%rax
  404fc8:	89 50 08             	mov    %edx,0x8(%rax)
  404fcb:	48 8b 45 f0          	mov    -0x10(%rbp),%rax
  404fcf:	48 8b 50 10          	mov    0x10(%rax),%rdx
  404fd3:	48 8b 45 f8          	mov    -0x8(%rbp),%rax
  404fd7:	48 89 50 10          	mov    %rdx,0x10(%rax)
  404fdb:	90                   	nop
  404fdc:	c9                   	leaveq 
  404fdd:	c3                   	retq   

0000000000404fde <_ZN2cl6detail16ReferenceHandlerIP13_cl_device_idE6retainES3_>:
  404fde:	55                   	push   %rbp
  404fdf:	48 89 e5             	mov    %rsp,%rbp
  404fe2:	48 89 7d f8          	mov    %rdi,-0x8(%rbp)
  404fe6:	b8 00 00 00 00       	mov    $0x0,%eax
  404feb:	5d                   	pop    %rbp
  404fec:	c3                   	retq   

0000000000404fed <_ZN2cl6detail16ReferenceHandlerIP13_cl_device_idE7releaseES3_>:
  404fed:	55                   	push   %rbp
  404fee:	48 89 e5             	mov    %rsp,%rbp
  404ff1:	48 89 7d f8          	mov    %rdi,-0x8(%rbp)
  404ff5:	b8 00 00 00 00       	mov    $0x0,%eax
  404ffa:	5d                   	pop    %rbp
  404ffb:	c3                   	retq   

0000000000404ffc <_ZN2cl6detail16ReferenceHandlerIP15_cl_platform_idE6retainES3_>:
  404ffc:	55                   	push   %rbp
  404ffd:	48 89 e5             	mov    %rsp,%rbp
  405000:	48 89 7d f8          	mov    %rdi,-0x8(%rbp)
  405004:	b8 00 00 00 00       	mov    $0x0,%eax
  405009:	5d                   	pop    %rbp
  40500a:	c3                   	retq   

000000000040500b <_ZN2cl6detail16ReferenceHandlerIP15_cl_platform_idE7releaseES3_>:
  40500b:	55                   	push   %rbp
  40500c:	48 89 e5             	mov    %rsp,%rbp
  40500f:	48 89 7d f8          	mov    %rdi,-0x8(%rbp)
  405013:	b8 00 00 00 00       	mov    $0x0,%eax
  405018:	5d                   	pop    %rbp
  405019:	c3                   	retq   

000000000040501a <_ZN2cl6detail16ReferenceHandlerIP11_cl_contextE6retainES3_>:
  40501a:	55                   	push   %rbp
  40501b:	48 89 e5             	mov    %rsp,%rbp
  40501e:	48 83 ec 10          	sub    $0x10,%rsp
  405022:	48 89 7d f8          	mov    %rdi,-0x8(%rbp)
  405026:	48 8b 45 f8          	mov    -0x8(%rbp),%rax
  40502a:	48 89 c7             	mov    %rax,%rdi
  40502d:	e8 2e f1 ff ff       	callq  404160 <clRetainContext@plt>
  405032:	c9                   	leaveq 
  405033:	c3                   	retq   

0000000000405034 <_ZN2cl6detail16ReferenceHandlerIP11_cl_contextE7releaseES3_>:
  405034:	55                   	push   %rbp
  405035:	48 89 e5             	mov    %rsp,%rbp
  405038:	48 83 ec 10          	sub    $0x10,%rsp
  40503c:	48 89 7d f8          	mov    %rdi,-0x8(%rbp)
  405040:	48 8b 45 f8          	mov    -0x8(%rbp),%rax
  405044:	48 89 c7             	mov    %rax,%rdi
  405047:	e8 34 ee ff ff       	callq  403e80 <clReleaseContext@plt>
  40504c:	c9                   	leaveq 
  40504d:	c3                   	retq   

000000000040504e <_ZN2cl6detail16ReferenceHandlerIP17_cl_command_queueE6retainES3_>:
  40504e:	55                   	push   %rbp
  40504f:	48 89 e5             	mov    %rsp,%rbp
  405052:	48 83 ec 10          	sub    $0x10,%rsp
  405056:	48 89 7d f8          	mov    %rdi,-0x8(%rbp)
  40505a:	48 8b 45 f8          	mov    -0x8(%rbp),%rax
  40505e:	48 89 c7             	mov    %rax,%rdi
  405061:	e8 aa ed ff ff       	callq  403e10 <clRetainCommandQueue@plt>
  405066:	c9                   	leaveq 
  405067:	c3                   	retq   

0000000000405068 <_ZN2cl6detail16ReferenceHandlerIP17_cl_command_queueE7releaseES3_>:
  405068:	55                   	push   %rbp
  405069:	48 89 e5             	mov    %rsp,%rbp
  40506c:	48 83 ec 10          	sub    $0x10,%rsp
  405070:	48 89 7d f8          	mov    %rdi,-0x8(%rbp)
  405074:	48 8b 45 f8          	mov    -0x8(%rbp),%rax
  405078:	48 89 c7             	mov    %rax,%rdi
  40507b:	e8 50 ef ff ff       	callq  403fd0 <clReleaseCommandQueue@plt>
  405080:	c9                   	leaveq 
  405081:	c3                   	retq   

0000000000405082 <_ZN2cl6detail16ReferenceHandlerIP10_cl_kernelE7releaseES3_>:
  405082:	55                   	push   %rbp
  405083:	48 89 e5             	mov    %rsp,%rbp
  405086:	48 83 ec 10          	sub    $0x10,%rsp
  40508a:	48 89 7d f8          	mov    %rdi,-0x8(%rbp)
  40508e:	48 8b 45 f8          	mov    -0x8(%rbp),%rax
  405092:	48 89 c7             	mov    %rax,%rdi
  405095:	e8 36 f1 ff ff       	callq  4041d0 <clReleaseKernel@plt>
  40509a:	c9                   	leaveq 
  40509b:	c3                   	retq   

000000000040509c <_ZN2cl6detail7WrapperIP13_cl_device_idE20isReferenceCountableES3_>:
  40509c:	55                   	push   %rbp
  40509d:	48 89 e5             	mov    %rsp,%rbp
  4050a0:	48 89 7d e8          	mov    %rdi,-0x18(%rbp)
  4050a4:	c6 45 ff 00          	movb   $0x0,-0x1(%rbp)
  4050a8:	0f b6 45 ff          	movzbl -0x1(%rbp),%eax
  4050ac:	5d                   	pop    %rbp
  4050ad:	c3                   	retq   

00000000004050ae <_ZN2cl6detail7WrapperIP13_cl_device_idEC1Ev>:
  4050ae:	55                   	push   %rbp
  4050af:	48 89 e5             	mov    %rsp,%rbp
  4050b2:	48 89 7d f8          	mov    %rdi,-0x8(%rbp)
  4050b6:	48 8b 45 f8          	mov    -0x8(%rbp),%rax
  4050ba:	48 c7 00 00 00 00 00 	movq   $0x0,(%rax)
  4050c1:	48 8b 45 f8          	mov    -0x8(%rbp),%rax
  4050c5:	c6 40 08 00          	movb   $0x0,0x8(%rax)
  4050c9:	90                   	nop
  4050ca:	5d                   	pop    %rbp
  4050cb:	c3                   	retq   

00000000004050cc <_ZN2cl6detail7WrapperIP13_cl_device_idEC1ERKS3_b>:
  4050cc:	55                   	push   %rbp
  4050cd:	48 89 e5             	mov    %rsp,%rbp
  4050d0:	48 83 ec 20          	sub    $0x20,%rsp
  4050d4:	48 89 7d f8          	mov    %rdi,-0x8(%rbp)
  4050d8:	48 89 75 f0          	mov    %rsi,-0x10(%rbp)
  4050dc:	89 d0                	mov    %edx,%eax
  4050de:	88 45 ec             	mov    %al,-0x14(%rbp)
  4050e1:	48 8b 45 f0          	mov    -0x10(%rbp),%rax
  4050e5:	48 8b 10             	mov    (%rax),%rdx
  4050e8:	48 8b 45 f8          	mov    -0x8(%rbp),%rax
  4050ec:	48 89 10             	mov    %rdx,(%rax)
  4050ef:	48 8b 45 f8          	mov    -0x8(%rbp),%rax
  4050f3:	c6 40 08 00          	movb   $0x0,0x8(%rax)
  4050f7:	48 8b 45 f0          	mov    -0x10(%rbp),%rax
  4050fb:	48 8b 00             	mov    (%rax),%rax
  4050fe:	48 89 c7             	mov    %rax,%rdi
  405101:	e8 96 ff ff ff       	callq  40509c <_ZN2cl6detail7WrapperIP13_cl_device_idE20isReferenceCountableES3_>
  405106:	89 c2                	mov    %eax,%edx
  405108:	48 8b 45 f8          	mov    -0x8(%rbp),%rax
  40510c:	88 50 08             	mov    %dl,0x8(%rax)
  40510f:	80 7d ec 00          	cmpb   $0x0,-0x14(%rbp)
  405113:	74 18                	je     40512d <_ZN2cl6detail7WrapperIP13_cl_device_idEC1ERKS3_b+0x61>
  405115:	48 8b 45 f8          	mov    -0x8(%rbp),%rax
  405119:	48 89 c7             	mov    %rax,%rdi
  40511c:	e8 a1 01 00 00       	callq  4052c2 <_ZNK2cl6detail7WrapperIP13_cl_device_idE6retainEv>
  405121:	be a3 03 41 00       	mov    $0x4103a3,%esi
  405126:	89 c7                	mov    %eax,%edi
  405128:	e8 70 f2 ff ff       	callq  40439d <_ZN2cl6detailL10errHandlerEiPKc>
  40512d:	90                   	nop
  40512e:	c9                   	leaveq 
  40512f:	c3                   	retq   

0000000000405130 <_ZN2cl6detail7WrapperIP13_cl_device_idED1Ev>:
  405130:	55                   	push   %rbp
  405131:	48 89 e5             	mov    %rsp,%rbp
  405134:	48 83 ec 10          	sub    $0x10,%rsp
  405138:	48 89 7d f8          	mov    %rdi,-0x8(%rbp)
  40513c:	48 8b 45 f8          	mov    -0x8(%rbp),%rax
  405140:	48 89 c7             	mov    %rax,%rdi
  405143:	e8 b6 01 00 00       	callq  4052fe <_ZNK2cl6detail7WrapperIP13_cl_device_idE7releaseEv>
  405148:	90                   	nop
  405149:	c9                   	leaveq 
  40514a:	c3                   	retq   
  40514b:	90                   	nop

000000000040514c <_ZN2cl6detail7WrapperIP13_cl_device_idEC1ERKS4_>:
  40514c:	55                   	push   %rbp
  40514d:	48 89 e5             	mov    %rsp,%rbp
  405150:	48 83 ec 10          	sub    $0x10,%rsp
  405154:	48 89 7d f8          	mov    %rdi,-0x8(%rbp)
  405158:	48 89 75 f0          	mov    %rsi,-0x10(%rbp)
  40515c:	48 8b 45 f0          	mov    -0x10(%rbp),%rax
  405160:	48 8b 10             	mov    (%rax),%rdx
  405163:	48 8b 45 f8          	mov    -0x8(%rbp),%rax
  405167:	48 89 10             	mov    %rdx,(%rax)
  40516a:	48 8b 45 f8          	mov    -0x8(%rbp),%rax
  40516e:	48 8b 00             	mov    (%rax),%rax
  405171:	48 89 c7             	mov    %rax,%rdi
  405174:	e8 23 ff ff ff       	callq  40509c <_ZN2cl6detail7WrapperIP13_cl_device_idE20isReferenceCountableES3_>
  405179:	89 c2                	mov    %eax,%edx
  40517b:	48 8b 45 f8          	mov    -0x8(%rbp),%rax
  40517f:	88 50 08             	mov    %dl,0x8(%rax)
  405182:	48 8b 45 f8          	mov    -0x8(%rbp),%rax
  405186:	48 89 c7             	mov    %rax,%rdi
  405189:	e8 34 01 00 00       	callq  4052c2 <_ZNK2cl6detail7WrapperIP13_cl_device_idE6retainEv>
  40518e:	be a3 03 41 00       	mov    $0x4103a3,%esi
  405193:	89 c7                	mov    %eax,%edi
  405195:	e8 03 f2 ff ff       	callq  40439d <_ZN2cl6detailL10errHandlerEiPKc>
  40519a:	90                   	nop
  40519b:	c9                   	leaveq 
  40519c:	c3                   	retq   
  40519d:	90                   	nop

000000000040519e <_ZN2cl6detail7WrapperIP13_cl_device_idEC1EOS4_>:
  40519e:	55                   	push   %rbp
  40519f:	48 89 e5             	mov    %rsp,%rbp
  4051a2:	48 89 7d f8          	mov    %rdi,-0x8(%rbp)
  4051a6:	48 89 75 f0          	mov    %rsi,-0x10(%rbp)
  4051aa:	48 8b 45 f0          	mov    -0x10(%rbp),%rax
  4051ae:	48 8b 10             	mov    (%rax),%rdx
  4051b1:	48 8b 45 f8          	mov    -0x8(%rbp),%rax
  4051b5:	48 89 10             	mov    %rdx,(%rax)
  4051b8:	48 8b 45 f0          	mov    -0x10(%rbp),%rax
  4051bc:	0f b6 50 08          	movzbl 0x8(%rax),%edx
  4051c0:	48 8b 45 f8          	mov    -0x8(%rbp),%rax
  4051c4:	88 50 08             	mov    %dl,0x8(%rax)
  4051c7:	48 8b 45 f0          	mov    -0x10(%rbp),%rax
  4051cb:	48 c7 00 00 00 00 00 	movq   $0x0,(%rax)
  4051d2:	48 8b 45 f0          	mov    -0x10(%rbp),%rax
  4051d6:	c6 40 08 00          	movb   $0x0,0x8(%rax)
  4051da:	90                   	nop
  4051db:	5d                   	pop    %rbp
  4051dc:	c3                   	retq   
  4051dd:	90                   	nop

00000000004051de <_ZN2cl6detail7WrapperIP13_cl_device_idEaSERKS4_>:
  4051de:	55                   	push   %rbp
  4051df:	48 89 e5             	mov    %rsp,%rbp
  4051e2:	48 83 ec 10          	sub    $0x10,%rsp
  4051e6:	48 89 7d f8          	mov    %rdi,-0x8(%rbp)
  4051ea:	48 89 75 f0          	mov    %rsi,-0x10(%rbp)
  4051ee:	48 8b 45 f8          	mov    -0x8(%rbp),%rax
  4051f2:	48 3b 45 f0          	cmp    -0x10(%rbp),%rax
  4051f6:	74 4d                	je     405245 <_ZN2cl6detail7WrapperIP13_cl_device_idEaSERKS4_+0x67>
  4051f8:	48 8b 45 f8          	mov    -0x8(%rbp),%rax
  4051fc:	48 89 c7             	mov    %rax,%rdi
  4051ff:	e8 fa 00 00 00       	callq  4052fe <_ZNK2cl6detail7WrapperIP13_cl_device_idE7releaseEv>
  405204:	be b1 03 41 00       	mov    $0x4103b1,%esi
  405209:	89 c7                	mov    %eax,%edi
  40520b:	e8 8d f1 ff ff       	callq  40439d <_ZN2cl6detailL10errHandlerEiPKc>
  405210:	48 8b 45 f0          	mov    -0x10(%rbp),%rax
  405214:	48 8b 10             	mov    (%rax),%rdx
  405217:	48 8b 45 f8          	mov    -0x8(%rbp),%rax
  40521b:	48 89 10             	mov    %rdx,(%rax)
  40521e:	48 8b 45 f0          	mov    -0x10(%rbp),%rax
  405222:	0f b6 50 08          	movzbl 0x8(%rax),%edx
  405226:	48 8b 45 f8          	mov    -0x8(%rbp),%rax
  40522a:	88 50 08             	mov    %dl,0x8(%rax)
  40522d:	48 8b 45 f8          	mov    -0x8(%rbp),%rax
  405231:	48 89 c7             	mov    %rax,%rdi
  405234:	e8 89 00 00 00       	callq  4052c2 <_ZNK2cl6detail7WrapperIP13_cl_device_idE6retainEv>
  405239:	be a3 03 41 00       	mov    $0x4103a3,%esi
  40523e:	89 c7                	mov    %eax,%edi
  405240:	e8 58 f1 ff ff       	callq  40439d <_ZN2cl6detailL10errHandlerEiPKc>
  405245:	48 8b 45 f8          	mov    -0x8(%rbp),%rax
  405249:	c9                   	leaveq 
  40524a:	c3                   	retq   
  40524b:	90                   	nop

000000000040524c <_ZN2cl6detail7WrapperIP13_cl_device_idEaSEOS4_>:
  40524c:	55                   	push   %rbp
  40524d:	48 89 e5             	mov    %rsp,%rbp
  405250:	48 83 ec 10          	sub    $0x10,%rsp
  405254:	48 89 7d f8          	mov    %rdi,-0x8(%rbp)
  405258:	48 89 75 f0          	mov    %rsi,-0x10(%rbp)
  40525c:	48 8b 45 f8          	mov    -0x8(%rbp),%rax
  405260:	48 3b 45 f0          	cmp    -0x10(%rbp),%rax
  405264:	74 48                	je     4052ae <_ZN2cl6detail7WrapperIP13_cl_device_idEaSEOS4_+0x62>
  405266:	48 8b 45 f8          	mov    -0x8(%rbp),%rax
  40526a:	48 89 c7             	mov    %rax,%rdi
  40526d:	e8 8c 00 00 00       	callq  4052fe <_ZNK2cl6detail7WrapperIP13_cl_device_idE7releaseEv>
  405272:	be b1 03 41 00       	mov    $0x4103b1,%esi
  405277:	89 c7                	mov    %eax,%edi
  405279:	e8 1f f1 ff ff       	callq  40439d <_ZN2cl6detailL10errHandlerEiPKc>
  40527e:	48 8b 45 f0          	mov    -0x10(%rbp),%rax
  405282:	48 8b 10             	mov    (%rax),%rdx
  405285:	48 8b 45 f8          	mov    -0x8(%rbp),%rax
  405289:	48 89 10             	mov    %rdx,(%rax)
  40528c:	48 8b 45 f0          	mov    -0x10(%rbp),%rax
  405290:	0f b6 50 08          	movzbl 0x8(%rax),%edx
  405294:	48 8b 45 f8          	mov    -0x8(%rbp),%rax
  405298:	88 50 08             	mov    %dl,0x8(%rax)
  40529b:	48 8b 45 f0          	mov    -0x10(%rbp),%rax
  40529f:	48 c7 00 00 00 00 00 	movq   $0x0,(%rax)
  4052a6:	48 8b 45 f0          	mov    -0x10(%rbp),%rax
  4052aa:	c6 40 08 00          	movb   $0x0,0x8(%rax)
  4052ae:	48 8b 45 f8          	mov    -0x8(%rbp),%rax
  4052b2:	c9                   	leaveq 
  4052b3:	c3                   	retq   

00000000004052b4 <_ZNK2cl6detail7WrapperIP13_cl_device_idEclEv>:
  4052b4:	55                   	push   %rbp
  4052b5:	48 89 e5             	mov    %rsp,%rbp
  4052b8:	48 89 7d f8          	mov    %rdi,-0x8(%rbp)
  4052bc:	48 8b 45 f8          	mov    -0x8(%rbp),%rax
  4052c0:	5d                   	pop    %rbp
  4052c1:	c3                   	retq   

00000000004052c2 <_ZNK2cl6detail7WrapperIP13_cl_device_idE6retainEv>:
  4052c2:	55                   	push   %rbp
  4052c3:	48 89 e5             	mov    %rsp,%rbp
  4052c6:	48 83 ec 10          	sub    $0x10,%rsp
  4052ca:	48 89 7d f8          	mov    %rdi,-0x8(%rbp)
  4052ce:	48 8b 45 f8          	mov    -0x8(%rbp),%rax
  4052d2:	48 8b 00             	mov    (%rax),%rax
  4052d5:	48 85 c0             	test   %rax,%rax
  4052d8:	74 1d                	je     4052f7 <_ZNK2cl6detail7WrapperIP13_cl_device_idE6retainEv+0x35>
  4052da:	48 8b 45 f8          	mov    -0x8(%rbp),%rax
  4052de:	0f b6 40 08          	movzbl 0x8(%rax),%eax
  4052e2:	84 c0                	test   %al,%al
  4052e4:	74 11                	je     4052f7 <_ZNK2cl6detail7WrapperIP13_cl_device_idE6retainEv+0x35>
  4052e6:	48 8b 45 f8          	mov    -0x8(%rbp),%rax
  4052ea:	48 8b 00             	mov    (%rax),%rax
  4052ed:	48 89 c7             	mov    %rax,%rdi
  4052f0:	e8 e9 fc ff ff       	callq  404fde <_ZN2cl6detail16ReferenceHandlerIP13_cl_device_idE6retainES3_>
  4052f5:	eb 05                	jmp    4052fc <_ZNK2cl6detail7WrapperIP13_cl_device_idE6retainEv+0x3a>
  4052f7:	b8 00 00 00 00       	mov    $0x0,%eax
  4052fc:	c9                   	leaveq 
  4052fd:	c3                   	retq   

00000000004052fe <_ZNK2cl6detail7WrapperIP13_cl_device_idE7releaseEv>:
  4052fe:	55                   	push   %rbp
  4052ff:	48 89 e5             	mov    %rsp,%rbp
  405302:	48 83 ec 10          	sub    $0x10,%rsp
  405306:	48 89 7d f8          	mov    %rdi,-0x8(%rbp)
  40530a:	48 8b 45 f8          	mov    -0x8(%rbp),%rax
  40530e:	48 8b 00             	mov    (%rax),%rax
  405311:	48 85 c0             	test   %rax,%rax
  405314:	74 1d                	je     405333 <_ZNK2cl6detail7WrapperIP13_cl_device_idE7releaseEv+0x35>
  405316:	48 8b 45 f8          	mov    -0x8(%rbp),%rax
  40531a:	0f b6 40 08          	movzbl 0x8(%rax),%eax
  40531e:	84 c0                	test   %al,%al
  405320:	74 11                	je     405333 <_ZNK2cl6detail7WrapperIP13_cl_device_idE7releaseEv+0x35>
  405322:	48 8b 45 f8          	mov    -0x8(%rbp),%rax
  405326:	48 8b 00             	mov    (%rax),%rax
  405329:	48 89 c7             	mov    %rax,%rdi
  40532c:	e8 bc fc ff ff       	callq  404fed <_ZN2cl6detail16ReferenceHandlerIP13_cl_device_idE7releaseES3_>
  405331:	eb 05                	jmp    405338 <_ZNK2cl6detail7WrapperIP13_cl_device_idE7releaseEv+0x3a>
  405333:	b8 00 00 00 00       	mov    $0x0,%eax
  405338:	c9                   	leaveq 
  405339:	c3                   	retq   

000000000040533a <_ZN2cl6DeviceC1Ev>:
  40533a:	55                   	push   %rbp
  40533b:	48 89 e5             	mov    %rsp,%rbp
  40533e:	48 83 ec 10          	sub    $0x10,%rsp
  405342:	48 89 7d f8          	mov    %rdi,-0x8(%rbp)
  405346:	48 8b 45 f8          	mov    -0x8(%rbp),%rax
  40534a:	48 89 c7             	mov    %rax,%rdi
  40534d:	e8 5c fd ff ff       	callq  4050ae <_ZN2cl6detail7WrapperIP13_cl_device_idEC1Ev>
  405352:	90                   	nop
  405353:	c9                   	leaveq 
  405354:	c3                   	retq   
  405355:	90                   	nop

0000000000405356 <_ZN2cl6DeviceC1ERKP13_cl_device_idb>:
  405356:	55                   	push   %rbp
  405357:	48 89 e5             	mov    %rsp,%rbp
  40535a:	48 83 ec 20          	sub    $0x20,%rsp
  40535e:	48 89 7d f8          	mov    %rdi,-0x8(%rbp)
  405362:	48 89 75 f0          	mov    %rsi,-0x10(%rbp)
  405366:	89 d0                	mov    %edx,%eax
  405368:	88 45 ec             	mov    %al,-0x14(%rbp)
  40536b:	0f b6 55 ec          	movzbl -0x14(%rbp),%edx
  40536f:	48 8b 45 f8          	mov    -0x8(%rbp),%rax
  405373:	48 8b 4d f0          	mov    -0x10(%rbp),%rcx
  405377:	48 89 ce             	mov    %rcx,%rsi
  40537a:	48 89 c7             	mov    %rax,%rdi
  40537d:	e8 4a fd ff ff       	callq  4050cc <_ZN2cl6detail7WrapperIP13_cl_device_idEC1ERKS3_b>
  405382:	90                   	nop
  405383:	c9                   	leaveq 
  405384:	c3                   	retq   
  405385:	90                   	nop

0000000000405386 <_ZN2cl6DeviceD1Ev>:
  405386:	55                   	push   %rbp
  405387:	48 89 e5             	mov    %rsp,%rbp
  40538a:	48 83 ec 10          	sub    $0x10,%rsp
  40538e:	48 89 7d f8          	mov    %rdi,-0x8(%rbp)
  405392:	48 8b 45 f8          	mov    -0x8(%rbp),%rax
  405396:	48 89 c7             	mov    %rax,%rdi
  405399:	e8 92 fd ff ff       	callq  405130 <_ZN2cl6detail7WrapperIP13_cl_device_idED1Ev>
  40539e:	90                   	nop
  40539f:	c9                   	leaveq 
  4053a0:	c3                   	retq   

00000000004053a1 <_ZN2cl6Device10getDefaultEPi>:
  4053a1:	55                   	push   %rbp
  4053a2:	48 89 e5             	mov    %rsp,%rbp
  4053a5:	48 83 ec 10          	sub    $0x10,%rsp
  4053a9:	48 89 7d f8          	mov    %rdi,-0x8(%rbp)
  4053ad:	48 89 75 f0          	mov    %rsi,-0x10(%rbp)
  4053b1:	be d2 62 40 00       	mov    $0x4062d2,%esi
  4053b6:	bf 40 96 61 00       	mov    $0x619640,%edi
  4053bb:	e8 55 27 00 00       	callq  407b15 <_ZSt9call_onceIRFvvEJEEvRSt9once_flagOT_DpOT0_>
  4053c0:	8b 05 9a 42 21 00    	mov    0x21429a(%rip),%eax        # 619660 <_ZN2cl6Device14default_error_E>
  4053c6:	be 00 00 00 00       	mov    $0x0,%esi
  4053cb:	89 c7                	mov    %eax,%edi
  4053cd:	e8 cb ef ff ff       	callq  40439d <_ZN2cl6detailL10errHandlerEiPKc>
  4053d2:	48 83 7d f0 00       	cmpq   $0x0,-0x10(%rbp)
  4053d7:	74 0c                	je     4053e5 <_ZN2cl6Device10getDefaultEPi+0x44>
  4053d9:	8b 15 81 42 21 00    	mov    0x214281(%rip),%edx        # 619660 <_ZN2cl6Device14default_error_E>
  4053df:	48 8b 45 f0          	mov    -0x10(%rbp),%rax
  4053e3:	89 10                	mov    %edx,(%rax)
  4053e5:	48 8b 45 f8          	mov    -0x8(%rbp),%rax
  4053e9:	be 50 96 61 00       	mov    $0x619650,%esi
  4053ee:	48 89 c7             	mov    %rax,%rdi
  4053f1:	e8 06 00 00 00       	callq  4053fc <_ZN2cl6DeviceC1ERKS0_>
  4053f6:	48 8b 45 f8          	mov    -0x8(%rbp),%rax
  4053fa:	c9                   	leaveq 
  4053fb:	c3                   	retq   

00000000004053fc <_ZN2cl6DeviceC1ERKS0_>:
  4053fc:	55                   	push   %rbp
  4053fd:	48 89 e5             	mov    %rsp,%rbp
  405400:	48 83 ec 10          	sub    $0x10,%rsp
  405404:	48 89 7d f8          	mov    %rdi,-0x8(%rbp)
  405408:	48 89 75 f0          	mov    %rsi,-0x10(%rbp)
  40540c:	48 8b 55 f0          	mov    -0x10(%rbp),%rdx
  405410:	48 8b 45 f8          	mov    -0x8(%rbp),%rax
  405414:	48 89 d6             	mov    %rdx,%rsi
  405417:	48 89 c7             	mov    %rax,%rdi
  40541a:	e8 2d fd ff ff       	callq  40514c <_ZN2cl6detail7WrapperIP13_cl_device_idEC1ERKS4_>
  40541f:	90                   	nop
  405420:	c9                   	leaveq 
  405421:	c3                   	retq   

0000000000405422 <_ZN2cl6DeviceaSERKS0_>:
  405422:	55                   	push   %rbp
  405423:	48 89 e5             	mov    %rsp,%rbp
  405426:	48 83 ec 10          	sub    $0x10,%rsp
  40542a:	48 89 7d f8          	mov    %rdi,-0x8(%rbp)
  40542e:	48 89 75 f0          	mov    %rsi,-0x10(%rbp)
  405432:	48 8b 55 f0          	mov    -0x10(%rbp),%rdx
  405436:	48 8b 45 f8          	mov    -0x8(%rbp),%rax
  40543a:	48 89 d6             	mov    %rdx,%rsi
  40543d:	48 89 c7             	mov    %rax,%rdi
  405440:	e8 99 fd ff ff       	callq  4051de <_ZN2cl6detail7WrapperIP13_cl_device_idEaSERKS4_>
  405445:	48 8b 45 f8          	mov    -0x8(%rbp),%rax
  405449:	c9                   	leaveq 
  40544a:	c3                   	retq   

000000000040544b <_ZSt4moveIRN2cl6DeviceEEONSt16remove_referenceIT_E4typeEOS4_>:
  40544b:	55                   	push   %rbp
  40544c:	48 89 e5             	mov    %rsp,%rbp
  40544f:	48 89 7d f8          	mov    %rdi,-0x8(%rbp)
  405453:	48 8b 45 f8          	mov    -0x8(%rbp),%rax
  405457:	5d                   	pop    %rbp
  405458:	c3                   	retq   
  405459:	90                   	nop

000000000040545a <_ZN2cl6DeviceC1EOS0_>:
  40545a:	55                   	push   %rbp
  40545b:	48 89 e5             	mov    %rsp,%rbp
  40545e:	48 83 ec 10          	sub    $0x10,%rsp
  405462:	48 89 7d f8          	mov    %rdi,-0x8(%rbp)
  405466:	48 89 75 f0          	mov    %rsi,-0x10(%rbp)
  40546a:	48 8b 45 f0          	mov    -0x10(%rbp),%rax
  40546e:	48 89 c7             	mov    %rax,%rdi
  405471:	e8 d5 ff ff ff       	callq  40544b <_ZSt4moveIRN2cl6DeviceEEONSt16remove_referenceIT_E4typeEOS4_>
  405476:	48 89 c2             	mov    %rax,%rdx
  405479:	48 8b 45 f8          	mov    -0x8(%rbp),%rax
  40547d:	48 89 d6             	mov    %rdx,%rsi
  405480:	48 89 c7             	mov    %rax,%rdi
  405483:	e8 16 fd ff ff       	callq  40519e <_ZN2cl6detail7WrapperIP13_cl_device_idEC1EOS4_>
  405488:	90                   	nop
  405489:	c9                   	leaveq 
  40548a:	c3                   	retq   
  40548b:	90                   	nop

000000000040548c <_ZN2cl6DeviceaSEOS0_>:
  40548c:	55                   	push   %rbp
  40548d:	48 89 e5             	mov    %rsp,%rbp
  405490:	48 83 ec 10          	sub    $0x10,%rsp
  405494:	48 89 7d f8          	mov    %rdi,-0x8(%rbp)
  405498:	48 89 75 f0          	mov    %rsi,-0x10(%rbp)
  40549c:	48 8b 45 f0          	mov    -0x10(%rbp),%rax
  4054a0:	48 89 c7             	mov    %rax,%rdi
  4054a3:	e8 a3 ff ff ff       	callq  40544b <_ZSt4moveIRN2cl6DeviceEEONSt16remove_referenceIT_E4typeEOS4_>
  4054a8:	48 89 c2             	mov    %rax,%rdx
  4054ab:	48 8b 45 f8          	mov    -0x8(%rbp),%rax
  4054af:	48 89 d6             	mov    %rdx,%rsi
  4054b2:	48 89 c7             	mov    %rax,%rdi
  4054b5:	e8 92 fd ff ff       	callq  40524c <_ZN2cl6detail7WrapperIP13_cl_device_idEaSEOS4_>
  4054ba:	48 8b 45 f8          	mov    -0x8(%rbp),%rax
  4054be:	c9                   	leaveq 
  4054bf:	c3                   	retq   

00000000004054c0 <_ZN2cl8PlatformD1Ev>:
  4054c0:	55                   	push   %rbp
  4054c1:	48 89 e5             	mov    %rsp,%rbp
  4054c4:	48 83 ec 10          	sub    $0x10,%rsp
  4054c8:	48 89 7d f8          	mov    %rdi,-0x8(%rbp)
  4054cc:	48 8b 45 f8          	mov    -0x8(%rbp),%rax
  4054d0:	48 89 c7             	mov    %rax,%rdi
  4054d3:	e8 f6 27 00 00       	callq  407cce <_ZN2cl6detail7WrapperIP15_cl_platform_idED1Ev>
  4054d8:	90                   	nop
  4054d9:	c9                   	leaveq 
  4054da:	c3                   	retq   
  4054db:	90                   	nop

00000000004054dc <_ZN2cl8PlatformaSEOS0_>:
  4054dc:	55                   	push   %rbp
  4054dd:	48 89 e5             	mov    %rsp,%rbp
  4054e0:	48 83 ec 10          	sub    $0x10,%rsp
  4054e4:	48 89 7d f8          	mov    %rdi,-0x8(%rbp)
  4054e8:	48 89 75 f0          	mov    %rsi,-0x10(%rbp)
  4054ec:	48 8b 55 f0          	mov    -0x10(%rbp),%rdx
  4054f0:	48 8b 45 f8          	mov    -0x8(%rbp),%rax
  4054f4:	48 89 d6             	mov    %rdx,%rsi
  4054f7:	48 89 c7             	mov    %rax,%rdi
  4054fa:	e8 f7 27 00 00       	callq  407cf6 <_ZN2cl6detail7WrapperIP15_cl_platform_idEaSEOS4_>
  4054ff:	48 8b 45 f8          	mov    -0x8(%rbp),%rax
  405503:	c9                   	leaveq 
  405504:	c3                   	retq   

0000000000405505 <_ZN2cl8Platform11makeDefaultEv>:
  405505:	55                   	push   %rbp
  405506:	48 89 e5             	mov    %rsp,%rbp
  405509:	41 54                	push   %r12
  40550b:	53                   	push   %rbx
  40550c:	48 83 ec 40          	sub    $0x40,%rsp
  405510:	64 48 8b 04 25 28 00 	mov    %fs:0x28,%rax
  405517:	00 00 
  405519:	48 89 45 e8          	mov    %rax,-0x18(%rbp)
  40551d:	31 c0                	xor    %eax,%eax
  40551f:	c7 45 b8 00 00 00 00 	movl   $0x0,-0x48(%rbp)
  405526:	48 8d 45 b8          	lea    -0x48(%rbp),%rax
  40552a:	48 89 c2             	mov    %rax,%rdx
  40552d:	be 00 00 00 00       	mov    $0x0,%esi
  405532:	bf 00 00 00 00       	mov    $0x0,%edi
  405537:	e8 d4 ea ff ff       	callq  404010 <clGetPlatformIDs@plt>
  40553c:	89 45 bc             	mov    %eax,-0x44(%rbp)
  40553f:	83 7d bc 00          	cmpl   $0x0,-0x44(%rbp)
  405543:	74 0e                	je     405553 <_ZN2cl8Platform11makeDefaultEv+0x4e>
  405545:	8b 45 bc             	mov    -0x44(%rbp),%eax
  405548:	89 05 22 41 21 00    	mov    %eax,0x214122(%rip)        # 619670 <_ZN2cl8Platform14default_error_E>
  40554e:	e9 54 01 00 00       	jmpq   4056a7 <_ZN2cl8Platform11makeDefaultEv+0x1a2>
  405553:	8b 45 b8             	mov    -0x48(%rbp),%eax
  405556:	85 c0                	test   %eax,%eax
  405558:	75 0f                	jne    405569 <_ZN2cl8Platform11makeDefaultEv+0x64>
  40555a:	c7 05 0c 41 21 00 e0 	movl   $0xffffffe0,0x21410c(%rip)        # 619670 <_ZN2cl8Platform14default_error_E>
  405561:	ff ff ff 
  405564:	e9 3e 01 00 00       	jmpq   4056a7 <_ZN2cl8Platform11makeDefaultEv+0x1a2>
  405569:	48 8d 45 c0          	lea    -0x40(%rbp),%rax
  40556d:	48 89 c7             	mov    %rax,%rdi
  405570:	e8 37 26 00 00       	callq  407bac <_ZNSaIP15_cl_platform_idEC1Ev>
  405575:	8b 45 b8             	mov    -0x48(%rbp),%eax
  405578:	89 c1                	mov    %eax,%ecx
  40557a:	48 8d 55 c0          	lea    -0x40(%rbp),%rdx
  40557e:	48 8d 45 d0          	lea    -0x30(%rbp),%rax
  405582:	48 89 ce             	mov    %rcx,%rsi
  405585:	48 89 c7             	mov    %rax,%rdi
  405588:	e8 57 26 00 00       	callq  407be4 <_ZNSt6vectorIP15_cl_platform_idSaIS1_EEC1EmRKS2_>
  40558d:	48 8d 45 c0          	lea    -0x40(%rbp),%rax
  405591:	48 89 c7             	mov    %rax,%rdi
  405594:	e8 2f 26 00 00       	callq  407bc8 <_ZNSaIP15_cl_platform_idED1Ev>
  405599:	48 8d 45 d0          	lea    -0x30(%rbp),%rax
  40559d:	48 89 c7             	mov    %rax,%rdi
  4055a0:	e8 e5 26 00 00       	callq  407c8a <_ZNSt6vectorIP15_cl_platform_idSaIS1_EE4dataEv>
  4055a5:	48 89 c1             	mov    %rax,%rcx
  4055a8:	8b 45 b8             	mov    -0x48(%rbp),%eax
  4055ab:	ba 00 00 00 00       	mov    $0x0,%edx
  4055b0:	48 89 ce             	mov    %rcx,%rsi
  4055b3:	89 c7                	mov    %eax,%edi
  4055b5:	e8 56 ea ff ff       	callq  404010 <clGetPlatformIDs@plt>
  4055ba:	89 45 bc             	mov    %eax,-0x44(%rbp)
  4055bd:	83 7d bc 00          	cmpl   $0x0,-0x44(%rbp)
  4055c1:	74 10                	je     4055d3 <_ZN2cl8Platform11makeDefaultEv+0xce>
  4055c3:	8b 45 bc             	mov    -0x44(%rbp),%eax
  4055c6:	89 05 a4 40 21 00    	mov    %eax,0x2140a4(%rip)        # 619670 <_ZN2cl8Platform14default_error_E>
  4055cc:	bb 00 00 00 00       	mov    $0x0,%ebx
  4055d1:	eb 4a                	jmp    40561d <_ZN2cl8Platform11makeDefaultEv+0x118>
  4055d3:	48 8d 45 d0          	lea    -0x30(%rbp),%rax
  4055d7:	be 00 00 00 00       	mov    $0x0,%esi
  4055dc:	48 89 c7             	mov    %rax,%rdi
  4055df:	e8 ca 26 00 00       	callq  407cae <_ZNSt6vectorIP15_cl_platform_idSaIS1_EEixEm>
  4055e4:	48 89 c1             	mov    %rax,%rcx
  4055e7:	48 8d 45 c0          	lea    -0x40(%rbp),%rax
  4055eb:	ba 00 00 00 00       	mov    $0x0,%edx
  4055f0:	48 89 ce             	mov    %rcx,%rsi
  4055f3:	48 89 c7             	mov    %rax,%rdi
  4055f6:	e8 e5 00 00 00       	callq  4056e0 <_ZN2cl8PlatformC1ERKP15_cl_platform_idb>
  4055fb:	48 8d 45 c0          	lea    -0x40(%rbp),%rax
  4055ff:	48 89 c6             	mov    %rax,%rsi
  405602:	bf 68 96 61 00       	mov    $0x619668,%edi
  405607:	e8 d0 fe ff ff       	callq  4054dc <_ZN2cl8PlatformaSEOS0_>
  40560c:	48 8d 45 c0          	lea    -0x40(%rbp),%rax
  405610:	48 89 c7             	mov    %rax,%rdi
  405613:	e8 a8 fe ff ff       	callq  4054c0 <_ZN2cl8PlatformD1Ev>
  405618:	bb 01 00 00 00       	mov    $0x1,%ebx
  40561d:	48 8d 45 d0          	lea    -0x30(%rbp),%rax
  405621:	48 89 c7             	mov    %rax,%rdi
  405624:	e8 1d 26 00 00       	callq  407c46 <_ZNSt6vectorIP15_cl_platform_idSaIS1_EED1Ev>
  405629:	83 fb 01             	cmp    $0x1,%ebx
  40562c:	eb 79                	jmp    4056a7 <_ZN2cl8Platform11makeDefaultEv+0x1a2>
  40562e:	49 89 c4             	mov    %rax,%r12
  405631:	48 89 d3             	mov    %rdx,%rbx
  405634:	48 8d 45 c0          	lea    -0x40(%rbp),%rax
  405638:	48 89 c7             	mov    %rax,%rdi
  40563b:	e8 88 25 00 00       	callq  407bc8 <_ZNSaIP15_cl_platform_idED1Ev>
  405640:	4c 89 e0             	mov    %r12,%rax
  405643:	48 89 da             	mov    %rbx,%rdx
  405646:	eb 2e                	jmp    405676 <_ZN2cl8Platform11makeDefaultEv+0x171>
  405648:	49 89 c4             	mov    %rax,%r12
  40564b:	48 89 d3             	mov    %rdx,%rbx
  40564e:	48 8d 45 c0          	lea    -0x40(%rbp),%rax
  405652:	48 89 c7             	mov    %rax,%rdi
  405655:	e8 66 fe ff ff       	callq  4054c0 <_ZN2cl8PlatformD1Ev>
  40565a:	eb 06                	jmp    405662 <_ZN2cl8Platform11makeDefaultEv+0x15d>
  40565c:	49 89 c4             	mov    %rax,%r12
  40565f:	48 89 d3             	mov    %rdx,%rbx
  405662:	48 8d 45 d0          	lea    -0x30(%rbp),%rax
  405666:	48 89 c7             	mov    %rax,%rdi
  405669:	e8 d8 25 00 00       	callq  407c46 <_ZNSt6vectorIP15_cl_platform_idSaIS1_EED1Ev>
  40566e:	4c 89 e0             	mov    %r12,%rax
  405671:	48 89 da             	mov    %rbx,%rdx
  405674:	eb 00                	jmp    405676 <_ZN2cl8Platform11makeDefaultEv+0x171>
  405676:	48 83 fa 01          	cmp    $0x1,%rdx
  40567a:	74 08                	je     405684 <_ZN2cl8Platform11makeDefaultEv+0x17f>
  40567c:	48 89 c7             	mov    %rax,%rdi
  40567f:	e8 0c eb ff ff       	callq  404190 <_Unwind_Resume@plt>
  405684:	48 89 c7             	mov    %rax,%rdi
  405687:	e8 34 e7 ff ff       	callq  403dc0 <__cxa_begin_catch@plt>
  40568c:	48 89 45 c8          	mov    %rax,-0x38(%rbp)
  405690:	48 8b 45 c8          	mov    -0x38(%rbp),%rax
  405694:	48 89 c7             	mov    %rax,%rdi
  405697:	e8 c4 f8 ff ff       	callq  404f60 <_ZNK2cl5Error3errEv>
  40569c:	89 05 ce 3f 21 00    	mov    %eax,0x213fce(%rip)        # 619670 <_ZN2cl8Platform14default_error_E>
  4056a2:	e8 69 ea ff ff       	callq  404110 <__cxa_end_catch@plt>
  4056a7:	48 8b 45 e8          	mov    -0x18(%rbp),%rax
  4056ab:	64 48 33 04 25 28 00 	xor    %fs:0x28,%rax
  4056b2:	00 00 
  4056b4:	74 05                	je     4056bb <_ZN2cl8Platform11makeDefaultEv+0x1b6>
  4056b6:	e8 75 e8 ff ff       	callq  403f30 <__stack_chk_fail@plt>
  4056bb:	48 83 c4 40          	add    $0x40,%rsp
  4056bf:	5b                   	pop    %rbx
  4056c0:	41 5c                	pop    %r12
  4056c2:	5d                   	pop    %rbp
  4056c3:	c3                   	retq   

00000000004056c4 <_ZN2cl8PlatformC1Ev>:
  4056c4:	55                   	push   %rbp
  4056c5:	48 89 e5             	mov    %rsp,%rbp
  4056c8:	48 83 ec 10          	sub    $0x10,%rsp
  4056cc:	48 89 7d f8          	mov    %rdi,-0x8(%rbp)
  4056d0:	48 8b 45 f8          	mov    -0x8(%rbp),%rax
  4056d4:	48 89 c7             	mov    %rax,%rdi
  4056d7:	e8 6c 26 00 00       	callq  407d48 <_ZN2cl6detail7WrapperIP15_cl_platform_idEC1Ev>
  4056dc:	90                   	nop
  4056dd:	c9                   	leaveq 
  4056de:	c3                   	retq   
  4056df:	90                   	nop

00000000004056e0 <_ZN2cl8PlatformC1ERKP15_cl_platform_idb>:
  4056e0:	55                   	push   %rbp
  4056e1:	48 89 e5             	mov    %rsp,%rbp
  4056e4:	48 83 ec 20          	sub    $0x20,%rsp
  4056e8:	48 89 7d f8          	mov    %rdi,-0x8(%rbp)
  4056ec:	48 89 75 f0          	mov    %rsi,-0x10(%rbp)
  4056f0:	89 d0                	mov    %edx,%eax
  4056f2:	88 45 ec             	mov    %al,-0x14(%rbp)
  4056f5:	0f b6 55 ec          	movzbl -0x14(%rbp),%edx
  4056f9:	48 8b 45 f8          	mov    -0x8(%rbp),%rax
  4056fd:	48 8b 4d f0          	mov    -0x10(%rbp),%rcx
  405701:	48 89 ce             	mov    %rcx,%rsi
  405704:	48 89 c7             	mov    %rax,%rdi
  405707:	e8 52 26 00 00       	callq  407d5e <_ZN2cl6detail7WrapperIP15_cl_platform_idEC1ERKS3_b>
  40570c:	90                   	nop
  40570d:	c9                   	leaveq 
  40570e:	c3                   	retq   
  40570f:	90                   	nop

0000000000405710 <_ZN2cl8PlatformC1ERKS0_>:
  405710:	55                   	push   %rbp
  405711:	48 89 e5             	mov    %rsp,%rbp
  405714:	48 83 ec 10          	sub    $0x10,%rsp
  405718:	48 89 7d f8          	mov    %rdi,-0x8(%rbp)
  40571c:	48 89 75 f0          	mov    %rsi,-0x10(%rbp)
  405720:	48 8b 55 f0          	mov    -0x10(%rbp),%rdx
  405724:	48 8b 45 f8          	mov    -0x8(%rbp),%rax
  405728:	48 89 d6             	mov    %rdx,%rsi
  40572b:	48 89 c7             	mov    %rax,%rdi
  40572e:	e8 6f 26 00 00       	callq  407da2 <_ZN2cl6detail7WrapperIP15_cl_platform_idEC1ERKS4_>
  405733:	90                   	nop
  405734:	c9                   	leaveq 
  405735:	c3                   	retq   

0000000000405736 <_ZN2cl8Platform10getDefaultEPi>:
  405736:	55                   	push   %rbp
  405737:	48 89 e5             	mov    %rsp,%rbp
  40573a:	48 83 ec 10          	sub    $0x10,%rsp
  40573e:	48 89 7d f8          	mov    %rdi,-0x8(%rbp)
  405742:	48 89 75 f0          	mov    %rsi,-0x10(%rbp)
  405746:	be 05 55 40 00       	mov    $0x405505,%esi
  40574b:	bf 64 96 61 00       	mov    $0x619664,%edi
  405750:	e8 c0 23 00 00       	callq  407b15 <_ZSt9call_onceIRFvvEJEEvRSt9once_flagOT_DpOT0_>
  405755:	8b 05 15 3f 21 00    	mov    0x213f15(%rip),%eax        # 619670 <_ZN2cl8Platform14default_error_E>
  40575b:	be 00 00 00 00       	mov    $0x0,%esi
  405760:	89 c7                	mov    %eax,%edi
  405762:	e8 36 ec ff ff       	callq  40439d <_ZN2cl6detailL10errHandlerEiPKc>
  405767:	48 83 7d f0 00       	cmpq   $0x0,-0x10(%rbp)
  40576c:	74 0c                	je     40577a <_ZN2cl8Platform10getDefaultEPi+0x44>
  40576e:	8b 15 fc 3e 21 00    	mov    0x213efc(%rip),%edx        # 619670 <_ZN2cl8Platform14default_error_E>
  405774:	48 8b 45 f0          	mov    -0x10(%rbp),%rax
  405778:	89 10                	mov    %edx,(%rax)
  40577a:	48 8b 45 f8          	mov    -0x8(%rbp),%rax
  40577e:	be 68 96 61 00       	mov    $0x619668,%esi
  405783:	48 89 c7             	mov    %rax,%rdi
  405786:	e8 85 ff ff ff       	callq  405710 <_ZN2cl8PlatformC1ERKS0_>
  40578b:	48 8b 45 f8          	mov    -0x8(%rbp),%rax
  40578f:	c9                   	leaveq 
  405790:	c3                   	retq   
  405791:	90                   	nop

0000000000405792 <_ZNK2cl8Platform10getDevicesEmPSt6vectorINS_6DeviceESaIS2_EE>:
  405792:	55                   	push   %rbp
  405793:	48 89 e5             	mov    %rsp,%rbp
  405796:	53                   	push   %rbx
  405797:	48 83 ec 68          	sub    $0x68,%rsp
  40579b:	48 89 7d a8          	mov    %rdi,-0x58(%rbp)
  40579f:	48 89 75 a0          	mov    %rsi,-0x60(%rbp)
  4057a3:	48 89 55 98          	mov    %rdx,-0x68(%rbp)
  4057a7:	64 48 8b 04 25 28 00 	mov    %fs:0x28,%rax
  4057ae:	00 00 
  4057b0:	48 89 45 e8          	mov    %rax,-0x18(%rbp)
  4057b4:	31 c0                	xor    %eax,%eax
  4057b6:	c7 45 b0 00 00 00 00 	movl   $0x0,-0x50(%rbp)
  4057bd:	48 83 7d 98 00       	cmpq   $0x0,-0x68(%rbp)
  4057c2:	75 16                	jne    4057da <_ZNK2cl8Platform10getDevicesEmPSt6vectorINS_6DeviceESaIS2_EE+0x48>
  4057c4:	be c0 03 41 00       	mov    $0x4103c0,%esi
  4057c9:	bf ce ff ff ff       	mov    $0xffffffce,%edi
  4057ce:	e8 ca eb ff ff       	callq  40439d <_ZN2cl6detailL10errHandlerEiPKc>
  4057d3:	89 c3                	mov    %eax,%ebx
  4057d5:	e9 78 01 00 00       	jmpq   405952 <_ZNK2cl8Platform10getDevicesEmPSt6vectorINS_6DeviceESaIS2_EE+0x1c0>
  4057da:	48 8b 45 a8          	mov    -0x58(%rbp),%rax
  4057de:	48 8b 00             	mov    (%rax),%rax
  4057e1:	48 8d 55 b0          	lea    -0x50(%rbp),%rdx
  4057e5:	48 8b 75 a0          	mov    -0x60(%rbp),%rsi
  4057e9:	49 89 d0             	mov    %rdx,%r8
  4057ec:	b9 00 00 00 00       	mov    $0x0,%ecx
  4057f1:	ba 00 00 00 00       	mov    $0x0,%edx
  4057f6:	48 89 c7             	mov    %rax,%rdi
  4057f9:	e8 a2 e7 ff ff       	callq  403fa0 <clGetDeviceIDs@plt>
  4057fe:	89 45 b4             	mov    %eax,-0x4c(%rbp)
  405801:	83 7d b4 00          	cmpl   $0x0,-0x4c(%rbp)
  405805:	74 16                	je     40581d <_ZNK2cl8Platform10getDevicesEmPSt6vectorINS_6DeviceESaIS2_EE+0x8b>
  405807:	8b 45 b4             	mov    -0x4c(%rbp),%eax
  40580a:	be c0 03 41 00       	mov    $0x4103c0,%esi
  40580f:	89 c7                	mov    %eax,%edi
  405811:	e8 87 eb ff ff       	callq  40439d <_ZN2cl6detailL10errHandlerEiPKc>
  405816:	89 c3                	mov    %eax,%ebx
  405818:	e9 35 01 00 00       	jmpq   405952 <_ZNK2cl8Platform10getDevicesEmPSt6vectorINS_6DeviceESaIS2_EE+0x1c0>
  40581d:	48 8d 45 c0          	lea    -0x40(%rbp),%rax
  405821:	48 89 c7             	mov    %rax,%rdi
  405824:	e8 b3 25 00 00       	callq  407ddc <_ZNSaIP13_cl_device_idEC1Ev>
  405829:	8b 45 b0             	mov    -0x50(%rbp),%eax
  40582c:	89 c1                	mov    %eax,%ecx
  40582e:	48 8d 55 c0          	lea    -0x40(%rbp),%rdx
  405832:	48 8d 45 d0          	lea    -0x30(%rbp),%rax
  405836:	48 89 ce             	mov    %rcx,%rsi
  405839:	48 89 c7             	mov    %rax,%rdi
  40583c:	e8 d3 25 00 00       	callq  407e14 <_ZNSt6vectorIP13_cl_device_idSaIS1_EEC1EmRKS2_>
  405841:	48 8d 45 c0          	lea    -0x40(%rbp),%rax
  405845:	48 89 c7             	mov    %rax,%rdi
  405848:	e8 ab 25 00 00       	callq  407df8 <_ZNSaIP13_cl_device_idED1Ev>
  40584d:	48 8d 45 d0          	lea    -0x30(%rbp),%rax
  405851:	48 89 c7             	mov    %rax,%rdi
  405854:	e8 61 26 00 00       	callq  407eba <_ZNSt6vectorIP13_cl_device_idSaIS1_EE4dataEv>
  405859:	48 89 c1             	mov    %rax,%rcx
  40585c:	8b 55 b0             	mov    -0x50(%rbp),%edx
  40585f:	48 8b 45 a8          	mov    -0x58(%rbp),%rax
  405863:	48 8b 00             	mov    (%rax),%rax
  405866:	48 8b 75 a0          	mov    -0x60(%rbp),%rsi
  40586a:	41 b8 00 00 00 00    	mov    $0x0,%r8d
  405870:	48 89 c7             	mov    %rax,%rdi
  405873:	e8 28 e7 ff ff       	callq  403fa0 <clGetDeviceIDs@plt>
  405878:	89 45 b4             	mov    %eax,-0x4c(%rbp)
  40587b:	83 7d b4 00          	cmpl   $0x0,-0x4c(%rbp)
  40587f:	74 16                	je     405897 <_ZNK2cl8Platform10getDevicesEmPSt6vectorINS_6DeviceESaIS2_EE+0x105>
  405881:	8b 45 b4             	mov    -0x4c(%rbp),%eax
  405884:	be c0 03 41 00       	mov    $0x4103c0,%esi
  405889:	89 c7                	mov    %eax,%edi
  40588b:	e8 0d eb ff ff       	callq  40439d <_ZN2cl6detailL10errHandlerEiPKc>
  405890:	89 c3                	mov    %eax,%ebx
  405892:	e9 af 00 00 00       	jmpq   405946 <_ZNK2cl8Platform10getDevicesEmPSt6vectorINS_6DeviceESaIS2_EE+0x1b4>
  405897:	48 83 7d 98 00       	cmpq   $0x0,-0x68(%rbp)
  40589c:	0f 84 9f 00 00 00    	je     405941 <_ZNK2cl8Platform10getDevicesEmPSt6vectorINS_6DeviceESaIS2_EE+0x1af>
  4058a2:	48 8d 45 d0          	lea    -0x30(%rbp),%rax
  4058a6:	48 89 c7             	mov    %rax,%rdi
  4058a9:	e8 30 26 00 00       	callq  407ede <_ZNKSt6vectorIP13_cl_device_idSaIS1_EE4sizeEv>
  4058ae:	48 89 c2             	mov    %rax,%rdx
  4058b1:	48 8b 45 98          	mov    -0x68(%rbp),%rax
  4058b5:	48 89 d6             	mov    %rdx,%rsi
  4058b8:	48 89 c7             	mov    %rax,%rdi
  4058bb:	e8 44 26 00 00       	callq  407f04 <_ZNSt6vectorIN2cl6DeviceESaIS1_EE6resizeEm>
  4058c0:	48 c7 45 b8 00 00 00 	movq   $0x0,-0x48(%rbp)
  4058c7:	00 
  4058c8:	48 8d 45 d0          	lea    -0x30(%rbp),%rax
  4058cc:	48 89 c7             	mov    %rax,%rdi
  4058cf:	e8 0a 26 00 00       	callq  407ede <_ZNKSt6vectorIP13_cl_device_idSaIS1_EE4sizeEv>
  4058d4:	48 3b 45 b8          	cmp    -0x48(%rbp),%rax
  4058d8:	0f 97 c0             	seta   %al
  4058db:	84 c0                	test   %al,%al
  4058dd:	74 62                	je     405941 <_ZNK2cl8Platform10getDevicesEmPSt6vectorINS_6DeviceESaIS2_EE+0x1af>
  4058df:	48 8b 55 b8          	mov    -0x48(%rbp),%rdx
  4058e3:	48 8d 45 d0          	lea    -0x30(%rbp),%rax
  4058e7:	48 89 d6             	mov    %rdx,%rsi
  4058ea:	48 89 c7             	mov    %rax,%rdi
  4058ed:	e8 be 26 00 00       	callq  407fb0 <_ZNSt6vectorIP13_cl_device_idSaIS1_EEixEm>
  4058f2:	48 89 c1             	mov    %rax,%rcx
  4058f5:	48 8d 45 c0          	lea    -0x40(%rbp),%rax
  4058f9:	ba 01 00 00 00       	mov    $0x1,%edx
  4058fe:	48 89 ce             	mov    %rcx,%rsi
  405901:	48 89 c7             	mov    %rax,%rdi
  405904:	e8 4d fa ff ff       	callq  405356 <_ZN2cl6DeviceC1ERKP13_cl_device_idb>
  405909:	48 8b 55 b8          	mov    -0x48(%rbp),%rdx
  40590d:	48 8b 45 98          	mov    -0x68(%rbp),%rax
  405911:	48 89 d6             	mov    %rdx,%rsi
  405914:	48 89 c7             	mov    %rax,%rdi
  405917:	e8 74 26 00 00       	callq  407f90 <_ZNSt6vectorIN2cl6DeviceESaIS1_EEixEm>
  40591c:	48 89 c2             	mov    %rax,%rdx
  40591f:	48 8d 45 c0          	lea    -0x40(%rbp),%rax
  405923:	48 89 c6             	mov    %rax,%rsi
  405926:	48 89 d7             	mov    %rdx,%rdi
  405929:	e8 5e fb ff ff       	callq  40548c <_ZN2cl6DeviceaSEOS0_>
  40592e:	48 8d 45 c0          	lea    -0x40(%rbp),%rax
  405932:	48 89 c7             	mov    %rax,%rdi
  405935:	e8 4c fa ff ff       	callq  405386 <_ZN2cl6DeviceD1Ev>
  40593a:	48 83 45 b8 01       	addq   $0x1,-0x48(%rbp)
  40593f:	eb 87                	jmp    4058c8 <_ZNK2cl8Platform10getDevicesEmPSt6vectorINS_6DeviceESaIS2_EE+0x136>
  405941:	bb 00 00 00 00       	mov    $0x0,%ebx
  405946:	48 8d 45 d0          	lea    -0x30(%rbp),%rax
  40594a:	48 89 c7             	mov    %rax,%rdi
  40594d:	e8 24 25 00 00       	callq  407e76 <_ZNSt6vectorIP13_cl_device_idSaIS1_EED1Ev>
  405952:	89 d8                	mov    %ebx,%eax
  405954:	48 8b 4d e8          	mov    -0x18(%rbp),%rcx
  405958:	64 48 33 0c 25 28 00 	xor    %fs:0x28,%rcx
  40595f:	00 00 
  405961:	74 4c                	je     4059af <_ZNK2cl8Platform10getDevicesEmPSt6vectorINS_6DeviceESaIS2_EE+0x21d>
  405963:	eb 45                	jmp    4059aa <_ZNK2cl8Platform10getDevicesEmPSt6vectorINS_6DeviceESaIS2_EE+0x218>
  405965:	48 89 c3             	mov    %rax,%rbx
  405968:	48 8d 45 c0          	lea    -0x40(%rbp),%rax
  40596c:	48 89 c7             	mov    %rax,%rdi
  40596f:	e8 84 24 00 00       	callq  407df8 <_ZNSaIP13_cl_device_idED1Ev>
  405974:	48 89 d8             	mov    %rbx,%rax
  405977:	48 89 c7             	mov    %rax,%rdi
  40597a:	e8 11 e8 ff ff       	callq  404190 <_Unwind_Resume@plt>
  40597f:	48 89 c3             	mov    %rax,%rbx
  405982:	48 8d 45 c0          	lea    -0x40(%rbp),%rax
  405986:	48 89 c7             	mov    %rax,%rdi
  405989:	e8 f8 f9 ff ff       	callq  405386 <_ZN2cl6DeviceD1Ev>
  40598e:	eb 03                	jmp    405993 <_ZNK2cl8Platform10getDevicesEmPSt6vectorINS_6DeviceESaIS2_EE+0x201>
  405990:	48 89 c3             	mov    %rax,%rbx
  405993:	48 8d 45 d0          	lea    -0x30(%rbp),%rax
  405997:	48 89 c7             	mov    %rax,%rdi
  40599a:	e8 d7 24 00 00       	callq  407e76 <_ZNSt6vectorIP13_cl_device_idSaIS1_EED1Ev>
  40599f:	48 89 d8             	mov    %rbx,%rax
  4059a2:	48 89 c7             	mov    %rax,%rdi
  4059a5:	e8 e6 e7 ff ff       	callq  404190 <_Unwind_Resume@plt>
  4059aa:	e8 81 e5 ff ff       	callq  403f30 <__stack_chk_fail@plt>
  4059af:	48 83 c4 68          	add    $0x68,%rsp
  4059b3:	5b                   	pop    %rbx
  4059b4:	5d                   	pop    %rbp
  4059b5:	c3                   	retq   

00000000004059b6 <_ZN2cl8Platform3getEPSt6vectorIS0_SaIS0_EE>:
  4059b6:	55                   	push   %rbp
  4059b7:	48 89 e5             	mov    %rsp,%rbp
  4059ba:	53                   	push   %rbx
  4059bb:	48 83 ec 58          	sub    $0x58,%rsp
  4059bf:	48 89 7d a8          	mov    %rdi,-0x58(%rbp)
  4059c3:	64 48 8b 04 25 28 00 	mov    %fs:0x28,%rax
  4059ca:	00 00 
  4059cc:	48 89 45 e8          	mov    %rax,-0x18(%rbp)
  4059d0:	31 c0                	xor    %eax,%eax
  4059d2:	c7 45 b8 00 00 00 00 	movl   $0x0,-0x48(%rbp)
  4059d9:	48 83 7d a8 00       	cmpq   $0x0,-0x58(%rbp)
  4059de:	75 16                	jne    4059f6 <_ZN2cl8Platform3getEPSt6vectorIS0_SaIS0_EE+0x40>
  4059e0:	be cf 03 41 00       	mov    $0x4103cf,%esi
  4059e5:	bf ce ff ff ff       	mov    $0xffffffce,%edi
  4059ea:	e8 ae e9 ff ff       	callq  40439d <_ZN2cl6detailL10errHandlerEiPKc>
  4059ef:	89 c3                	mov    %eax,%ebx
  4059f1:	e9 60 01 00 00       	jmpq   405b56 <_ZN2cl8Platform3getEPSt6vectorIS0_SaIS0_EE+0x1a0>
  4059f6:	48 8d 45 b8          	lea    -0x48(%rbp),%rax
  4059fa:	48 89 c2             	mov    %rax,%rdx
  4059fd:	be 00 00 00 00       	mov    $0x0,%esi
  405a02:	bf 00 00 00 00       	mov    $0x0,%edi
  405a07:	e8 04 e6 ff ff       	callq  404010 <clGetPlatformIDs@plt>
  405a0c:	89 45 bc             	mov    %eax,-0x44(%rbp)
  405a0f:	83 7d bc 00          	cmpl   $0x0,-0x44(%rbp)
  405a13:	74 16                	je     405a2b <_ZN2cl8Platform3getEPSt6vectorIS0_SaIS0_EE+0x75>
  405a15:	8b 45 bc             	mov    -0x44(%rbp),%eax
  405a18:	be cf 03 41 00       	mov    $0x4103cf,%esi
  405a1d:	89 c7                	mov    %eax,%edi
  405a1f:	e8 79 e9 ff ff       	callq  40439d <_ZN2cl6detailL10errHandlerEiPKc>
  405a24:	89 c3                	mov    %eax,%ebx
  405a26:	e9 2b 01 00 00       	jmpq   405b56 <_ZN2cl8Platform3getEPSt6vectorIS0_SaIS0_EE+0x1a0>
  405a2b:	48 8d 45 c0          	lea    -0x40(%rbp),%rax
  405a2f:	48 89 c7             	mov    %rax,%rdi
  405a32:	e8 75 21 00 00       	callq  407bac <_ZNSaIP15_cl_platform_idEC1Ev>
  405a37:	8b 45 b8             	mov    -0x48(%rbp),%eax
  405a3a:	89 c1                	mov    %eax,%ecx
  405a3c:	48 8d 55 c0          	lea    -0x40(%rbp),%rdx
  405a40:	48 8d 45 d0          	lea    -0x30(%rbp),%rax
  405a44:	48 89 ce             	mov    %rcx,%rsi
  405a47:	48 89 c7             	mov    %rax,%rdi
  405a4a:	e8 95 21 00 00       	callq  407be4 <_ZNSt6vectorIP15_cl_platform_idSaIS1_EEC1EmRKS2_>
  405a4f:	48 8d 45 c0          	lea    -0x40(%rbp),%rax
  405a53:	48 89 c7             	mov    %rax,%rdi
  405a56:	e8 6d 21 00 00       	callq  407bc8 <_ZNSaIP15_cl_platform_idED1Ev>
  405a5b:	48 8d 45 d0          	lea    -0x30(%rbp),%rax
  405a5f:	48 89 c7             	mov    %rax,%rdi
  405a62:	e8 23 22 00 00       	callq  407c8a <_ZNSt6vectorIP15_cl_platform_idSaIS1_EE4dataEv>
  405a67:	48 89 c1             	mov    %rax,%rcx
  405a6a:	8b 45 b8             	mov    -0x48(%rbp),%eax
  405a6d:	ba 00 00 00 00       	mov    $0x0,%edx
  405a72:	48 89 ce             	mov    %rcx,%rsi
  405a75:	89 c7                	mov    %eax,%edi
  405a77:	e8 94 e5 ff ff       	callq  404010 <clGetPlatformIDs@plt>
  405a7c:	89 45 bc             	mov    %eax,-0x44(%rbp)
  405a7f:	83 7d bc 00          	cmpl   $0x0,-0x44(%rbp)
  405a83:	74 16                	je     405a9b <_ZN2cl8Platform3getEPSt6vectorIS0_SaIS0_EE+0xe5>
  405a85:	8b 45 bc             	mov    -0x44(%rbp),%eax
  405a88:	be cf 03 41 00       	mov    $0x4103cf,%esi
  405a8d:	89 c7                	mov    %eax,%edi
  405a8f:	e8 09 e9 ff ff       	callq  40439d <_ZN2cl6detailL10errHandlerEiPKc>
  405a94:	89 c3                	mov    %eax,%ebx
  405a96:	e9 af 00 00 00       	jmpq   405b4a <_ZN2cl8Platform3getEPSt6vectorIS0_SaIS0_EE+0x194>
  405a9b:	48 83 7d a8 00       	cmpq   $0x0,-0x58(%rbp)
  405aa0:	0f 84 9f 00 00 00    	je     405b45 <_ZN2cl8Platform3getEPSt6vectorIS0_SaIS0_EE+0x18f>
  405aa6:	48 8d 45 d0          	lea    -0x30(%rbp),%rax
  405aaa:	48 89 c7             	mov    %rax,%rdi
  405aad:	e8 1e 25 00 00       	callq  407fd0 <_ZNKSt6vectorIP15_cl_platform_idSaIS1_EE4sizeEv>
  405ab2:	48 89 c2             	mov    %rax,%rdx
  405ab5:	48 8b 45 a8          	mov    -0x58(%rbp),%rax
  405ab9:	48 89 d6             	mov    %rdx,%rsi
  405abc:	48 89 c7             	mov    %rax,%rdi
  405abf:	e8 32 25 00 00       	callq  407ff6 <_ZNSt6vectorIN2cl8PlatformESaIS1_EE6resizeEm>
  405ac4:	48 c7 45 c8 00 00 00 	movq   $0x0,-0x38(%rbp)
  405acb:	00 
  405acc:	48 8d 45 d0          	lea    -0x30(%rbp),%rax
  405ad0:	48 89 c7             	mov    %rax,%rdi
  405ad3:	e8 f8 24 00 00       	callq  407fd0 <_ZNKSt6vectorIP15_cl_platform_idSaIS1_EE4sizeEv>
  405ad8:	48 3b 45 c8          	cmp    -0x38(%rbp),%rax
  405adc:	0f 97 c0             	seta   %al
  405adf:	84 c0                	test   %al,%al
  405ae1:	74 62                	je     405b45 <_ZN2cl8Platform3getEPSt6vectorIS0_SaIS0_EE+0x18f>
  405ae3:	48 8b 55 c8          	mov    -0x38(%rbp),%rdx
  405ae7:	48 8d 45 d0          	lea    -0x30(%rbp),%rax
  405aeb:	48 89 d6             	mov    %rdx,%rsi
  405aee:	48 89 c7             	mov    %rax,%rdi
  405af1:	e8 b8 21 00 00       	callq  407cae <_ZNSt6vectorIP15_cl_platform_idSaIS1_EEixEm>
  405af6:	48 89 c1             	mov    %rax,%rcx
  405af9:	48 8d 45 c0          	lea    -0x40(%rbp),%rax
  405afd:	ba 00 00 00 00       	mov    $0x0,%edx
  405b02:	48 89 ce             	mov    %rcx,%rsi
  405b05:	48 89 c7             	mov    %rax,%rdi
  405b08:	e8 d3 fb ff ff       	callq  4056e0 <_ZN2cl8PlatformC1ERKP15_cl_platform_idb>
  405b0d:	48 8b 55 c8          	mov    -0x38(%rbp),%rdx
  405b11:	48 8b 45 a8          	mov    -0x58(%rbp),%rax
  405b15:	48 89 d6             	mov    %rdx,%rsi
  405b18:	48 89 c7             	mov    %rax,%rdi
  405b1b:	e8 62 25 00 00       	callq  408082 <_ZNSt6vectorIN2cl8PlatformESaIS1_EEixEm>
  405b20:	48 89 c2             	mov    %rax,%rdx
  405b23:	48 8d 45 c0          	lea    -0x40(%rbp),%rax
  405b27:	48 89 c6             	mov    %rax,%rsi
  405b2a:	48 89 d7             	mov    %rdx,%rdi
  405b2d:	e8 aa f9 ff ff       	callq  4054dc <_ZN2cl8PlatformaSEOS0_>
  405b32:	48 8d 45 c0          	lea    -0x40(%rbp),%rax
  405b36:	48 89 c7             	mov    %rax,%rdi
  405b39:	e8 82 f9 ff ff       	callq  4054c0 <_ZN2cl8PlatformD1Ev>
  405b3e:	48 83 45 c8 01       	addq   $0x1,-0x38(%rbp)
  405b43:	eb 87                	jmp    405acc <_ZN2cl8Platform3getEPSt6vectorIS0_SaIS0_EE+0x116>
  405b45:	bb 00 00 00 00       	mov    $0x0,%ebx
  405b4a:	48 8d 45 d0          	lea    -0x30(%rbp),%rax
  405b4e:	48 89 c7             	mov    %rax,%rdi
  405b51:	e8 f0 20 00 00       	callq  407c46 <_ZNSt6vectorIP15_cl_platform_idSaIS1_EED1Ev>
  405b56:	89 d8                	mov    %ebx,%eax
  405b58:	48 8b 4d e8          	mov    -0x18(%rbp),%rcx
  405b5c:	64 48 33 0c 25 28 00 	xor    %fs:0x28,%rcx
  405b63:	00 00 
  405b65:	74 4c                	je     405bb3 <_ZN2cl8Platform3getEPSt6vectorIS0_SaIS0_EE+0x1fd>
  405b67:	eb 45                	jmp    405bae <_ZN2cl8Platform3getEPSt6vectorIS0_SaIS0_EE+0x1f8>
  405b69:	48 89 c3             	mov    %rax,%rbx
  405b6c:	48 8d 45 c0          	lea    -0x40(%rbp),%rax
  405b70:	48 89 c7             	mov    %rax,%rdi
  405b73:	e8 50 20 00 00       	callq  407bc8 <_ZNSaIP15_cl_platform_idED1Ev>
  405b78:	48 89 d8             	mov    %rbx,%rax
  405b7b:	48 89 c7             	mov    %rax,%rdi
  405b7e:	e8 0d e6 ff ff       	callq  404190 <_Unwind_Resume@plt>
  405b83:	48 89 c3             	mov    %rax,%rbx
  405b86:	48 8d 45 c0          	lea    -0x40(%rbp),%rax
  405b8a:	48 89 c7             	mov    %rax,%rdi
  405b8d:	e8 2e f9 ff ff       	callq  4054c0 <_ZN2cl8PlatformD1Ev>
  405b92:	eb 03                	jmp    405b97 <_ZN2cl8Platform3getEPSt6vectorIS0_SaIS0_EE+0x1e1>
  405b94:	48 89 c3             	mov    %rax,%rbx
  405b97:	48 8d 45 d0          	lea    -0x30(%rbp),%rax
  405b9b:	48 89 c7             	mov    %rax,%rdi
  405b9e:	e8 a3 20 00 00       	callq  407c46 <_ZNSt6vectorIP15_cl_platform_idSaIS1_EED1Ev>
  405ba3:	48 89 d8             	mov    %rbx,%rax
  405ba6:	48 89 c7             	mov    %rax,%rdi
  405ba9:	e8 e2 e5 ff ff       	callq  404190 <_Unwind_Resume@plt>
  405bae:	e8 7d e3 ff ff       	callq  403f30 <__stack_chk_fail@plt>
  405bb3:	48 83 c4 58          	add    $0x58,%rsp
  405bb7:	5b                   	pop    %rbx
  405bb8:	5d                   	pop    %rbp
  405bb9:	c3                   	retq   

0000000000405bba <_ZN2cl8PlatformC1EOS0_>:
  405bba:	55                   	push   %rbp
  405bbb:	48 89 e5             	mov    %rsp,%rbp
  405bbe:	48 83 ec 10          	sub    $0x10,%rsp
  405bc2:	48 89 7d f8          	mov    %rdi,-0x8(%rbp)
  405bc6:	48 89 75 f0          	mov    %rsi,-0x10(%rbp)
  405bca:	48 8b 55 f0          	mov    -0x10(%rbp),%rdx
  405bce:	48 8b 45 f8          	mov    -0x8(%rbp),%rax
  405bd2:	48 89 d6             	mov    %rdx,%rsi
  405bd5:	48 89 c7             	mov    %rax,%rdi
  405bd8:	e8 c5 24 00 00       	callq  4080a2 <_ZN2cl6detail7WrapperIP15_cl_platform_idEC1EOS4_>
  405bdd:	90                   	nop
  405bde:	c9                   	leaveq 
  405bdf:	c3                   	retq   

0000000000405be0 <_ZN2cl8Platform3getEPi>:
  405be0:	55                   	push   %rbp
  405be1:	48 89 e5             	mov    %rsp,%rbp
  405be4:	48 83 ec 20          	sub    $0x20,%rsp
  405be8:	48 89 7d e8          	mov    %rdi,-0x18(%rbp)
  405bec:	48 89 75 e0          	mov    %rsi,-0x20(%rbp)
  405bf0:	64 48 8b 04 25 28 00 	mov    %fs:0x28,%rax
  405bf7:	00 00 
  405bf9:	48 89 45 f8          	mov    %rax,-0x8(%rbp)
  405bfd:	31 c0                	xor    %eax,%eax
  405bff:	48 8b 45 e8          	mov    -0x18(%rbp),%rax
  405c03:	48 8d 55 f4          	lea    -0xc(%rbp),%rdx
  405c07:	48 89 d6             	mov    %rdx,%rsi
  405c0a:	48 89 c7             	mov    %rax,%rdi
  405c0d:	e8 24 fb ff ff       	callq  405736 <_ZN2cl8Platform10getDefaultEPi>
  405c12:	48 83 7d e0 00       	cmpq   $0x0,-0x20(%rbp)
  405c17:	74 0a                	je     405c23 <_ZN2cl8Platform3getEPi+0x43>
  405c19:	8b 55 f4             	mov    -0xc(%rbp),%edx
  405c1c:	48 8b 45 e0          	mov    -0x20(%rbp),%rax
  405c20:	89 10                	mov    %edx,(%rax)
  405c22:	90                   	nop
  405c23:	90                   	nop
  405c24:	48 8b 45 e8          	mov    -0x18(%rbp),%rax
  405c28:	48 8b 4d f8          	mov    -0x8(%rbp),%rcx
  405c2c:	64 48 33 0c 25 28 00 	xor    %fs:0x28,%rcx
  405c33:	00 00 
  405c35:	74 05                	je     405c3c <_ZN2cl8Platform3getEPi+0x5c>
  405c37:	e8 f4 e2 ff ff       	callq  403f30 <__stack_chk_fail@plt>
  405c3c:	c9                   	leaveq 
  405c3d:	c3                   	retq   

0000000000405c3e <_ZN2cl7ContextD1Ev>:
  405c3e:	55                   	push   %rbp
  405c3f:	48 89 e5             	mov    %rsp,%rbp
  405c42:	48 83 ec 10          	sub    $0x10,%rsp
  405c46:	48 89 7d f8          	mov    %rdi,-0x8(%rbp)
  405c4a:	48 8b 45 f8          	mov    -0x8(%rbp),%rax
  405c4e:	48 89 c7             	mov    %rax,%rdi
  405c51:	e8 82 24 00 00       	callq  4080d8 <_ZN2cl6detail7WrapperIP11_cl_contextED1Ev>
  405c56:	90                   	nop
  405c57:	c9                   	leaveq 
  405c58:	c3                   	retq   

0000000000405c59 <_ZN2cl7Context11makeDefaultEv>:
  405c59:	55                   	push   %rbp
  405c5a:	48 89 e5             	mov    %rsp,%rbp
  405c5d:	41 54                	push   %r12
  405c5f:	53                   	push   %rbx
  405c60:	48 83 ec 50          	sub    $0x50,%rsp
  405c64:	64 48 8b 04 25 28 00 	mov    %fs:0x28,%rax
  405c6b:	00 00 
  405c6d:	48 89 45 e8          	mov    %rax,-0x18(%rbp)
  405c71:	31 c0                	xor    %eax,%eax
  405c73:	48 8d 45 a8          	lea    -0x58(%rbp),%rax
  405c77:	be 00 00 00 00       	mov    $0x0,%esi
  405c7c:	48 89 c7             	mov    %rax,%rdi
  405c7f:	e8 b2 fa ff ff       	callq  405736 <_ZN2cl8Platform10getDefaultEPi>
  405c84:	48 8d 45 a8          	lea    -0x58(%rbp),%rax
  405c88:	48 89 45 b8          	mov    %rax,-0x48(%rbp)
  405c8c:	48 8b 45 b8          	mov    -0x48(%rbp),%rax
  405c90:	48 89 c7             	mov    %rax,%rdi
  405c93:	e8 32 24 00 00       	callq  4080ca <_ZNK2cl6detail7WrapperIP15_cl_platform_idEclEv>
  405c98:	48 8b 00             	mov    (%rax),%rax
  405c9b:	48 89 45 c0          	mov    %rax,-0x40(%rbp)
  405c9f:	48 c7 45 d0 00 00 00 	movq   $0x0,-0x30(%rbp)
  405ca6:	00 
  405ca7:	48 c7 45 d8 00 00 00 	movq   $0x0,-0x28(%rbp)
  405cae:	00 
  405caf:	48 c7 45 e0 00 00 00 	movq   $0x0,-0x20(%rbp)
  405cb6:	00 
  405cb7:	48 c7 45 d0 84 10 00 	movq   $0x1084,-0x30(%rbp)
  405cbe:	00 
  405cbf:	48 8b 45 c0          	mov    -0x40(%rbp),%rax
  405cc3:	48 89 45 d8          	mov    %rax,-0x28(%rbp)
  405cc7:	48 8d 55 d0          	lea    -0x30(%rbp),%rdx
  405ccb:	48 8d 45 b0          	lea    -0x50(%rbp),%rax
  405ccf:	41 b9 80 96 61 00    	mov    $0x619680,%r9d
  405cd5:	41 b8 00 00 00 00    	mov    $0x0,%r8d
  405cdb:	b9 00 00 00 00       	mov    $0x0,%ecx
  405ce0:	be 01 00 00 00       	mov    $0x1,%esi
  405ce5:	48 89 c7             	mov    %rax,%rdi
  405ce8:	e8 c9 00 00 00       	callq  405db6 <_ZN2cl7ContextC1EmPlPFvPKcPKvmPvES6_Pi>
  405ced:	48 8d 45 b0          	lea    -0x50(%rbp),%rax
  405cf1:	48 89 c6             	mov    %rax,%rsi
  405cf4:	bf 78 96 61 00       	mov    $0x619678,%edi
  405cf9:	e8 a6 04 00 00       	callq  4061a4 <_ZN2cl7ContextaSEOS0_>
  405cfe:	48 8d 45 b0          	lea    -0x50(%rbp),%rax
  405d02:	48 89 c7             	mov    %rax,%rdi
  405d05:	e8 34 ff ff ff       	callq  405c3e <_ZN2cl7ContextD1Ev>
  405d0a:	48 8d 45 a8          	lea    -0x58(%rbp),%rax
  405d0e:	48 89 c7             	mov    %rax,%rdi
  405d11:	e8 aa f7 ff ff       	callq  4054c0 <_ZN2cl8PlatformD1Ev>
  405d16:	eb 5f                	jmp    405d77 <_ZN2cl7Context11makeDefaultEv+0x11e>
  405d18:	49 89 c4             	mov    %rax,%r12
  405d1b:	48 89 d3             	mov    %rdx,%rbx
  405d1e:	48 8d 45 b0          	lea    -0x50(%rbp),%rax
  405d22:	48 89 c7             	mov    %rax,%rdi
  405d25:	e8 14 ff ff ff       	callq  405c3e <_ZN2cl7ContextD1Ev>
  405d2a:	eb 06                	jmp    405d32 <_ZN2cl7Context11makeDefaultEv+0xd9>
  405d2c:	49 89 c4             	mov    %rax,%r12
  405d2f:	48 89 d3             	mov    %rdx,%rbx
  405d32:	48 8d 45 a8          	lea    -0x58(%rbp),%rax
  405d36:	48 89 c7             	mov    %rax,%rdi
  405d39:	e8 82 f7 ff ff       	callq  4054c0 <_ZN2cl8PlatformD1Ev>
  405d3e:	4c 89 e0             	mov    %r12,%rax
  405d41:	48 89 da             	mov    %rbx,%rdx
  405d44:	eb 00                	jmp    405d46 <_ZN2cl7Context11makeDefaultEv+0xed>
  405d46:	48 83 fa 01          	cmp    $0x1,%rdx
  405d4a:	74 08                	je     405d54 <_ZN2cl7Context11makeDefaultEv+0xfb>
  405d4c:	48 89 c7             	mov    %rax,%rdi
  405d4f:	e8 3c e4 ff ff       	callq  404190 <_Unwind_Resume@plt>
  405d54:	48 89 c7             	mov    %rax,%rdi
  405d57:	e8 64 e0 ff ff       	callq  403dc0 <__cxa_begin_catch@plt>
  405d5c:	48 89 45 c8          	mov    %rax,-0x38(%rbp)
  405d60:	48 8b 45 c8          	mov    -0x38(%rbp),%rax
  405d64:	48 89 c7             	mov    %rax,%rdi
  405d67:	e8 f4 f1 ff ff       	callq  404f60 <_ZNK2cl5Error3errEv>
  405d6c:	89 05 0e 39 21 00    	mov    %eax,0x21390e(%rip)        # 619680 <_ZN2cl7Context14default_error_E>
  405d72:	e8 99 e3 ff ff       	callq  404110 <__cxa_end_catch@plt>
  405d77:	90                   	nop
  405d78:	48 8b 45 e8          	mov    -0x18(%rbp),%rax
  405d7c:	64 48 33 04 25 28 00 	xor    %fs:0x28,%rax
  405d83:	00 00 
  405d85:	74 05                	je     405d8c <_ZN2cl7Context11makeDefaultEv+0x133>
  405d87:	e8 a4 e1 ff ff       	callq  403f30 <__stack_chk_fail@plt>
  405d8c:	48 83 c4 50          	add    $0x50,%rsp
  405d90:	5b                   	pop    %rbx
  405d91:	41 5c                	pop    %r12
  405d93:	5d                   	pop    %rbp
  405d94:	c3                   	retq   

0000000000405d95 <_ZN2cl7Context19makeDefaultProvidedERKS0_>:
  405d95:	55                   	push   %rbp
  405d96:	48 89 e5             	mov    %rsp,%rbp
  405d99:	48 83 ec 10          	sub    $0x10,%rsp
  405d9d:	48 89 7d f8          	mov    %rdi,-0x8(%rbp)
  405da1:	48 8b 45 f8          	mov    -0x8(%rbp),%rax
  405da5:	48 89 c6             	mov    %rax,%rsi
  405da8:	bf 78 96 61 00       	mov    $0x619678,%edi
  405dad:	e8 ba 03 00 00       	callq  40616c <_ZN2cl7ContextaSERKS0_>
  405db2:	90                   	nop
  405db3:	c9                   	leaveq 
  405db4:	c3                   	retq   
  405db5:	90                   	nop

0000000000405db6 <_ZN2cl7ContextC1EmPlPFvPKcPKvmPvES6_Pi>:
  405db6:	55                   	push   %rbp
  405db7:	48 89 e5             	mov    %rsp,%rbp
  405dba:	53                   	push   %rbx
  405dbb:	48 81 ec d8 00 00 00 	sub    $0xd8,%rsp
  405dc2:	48 89 bd 48 ff ff ff 	mov    %rdi,-0xb8(%rbp)
  405dc9:	48 89 b5 40 ff ff ff 	mov    %rsi,-0xc0(%rbp)
  405dd0:	48 89 95 38 ff ff ff 	mov    %rdx,-0xc8(%rbp)
  405dd7:	48 89 8d 30 ff ff ff 	mov    %rcx,-0xd0(%rbp)
  405dde:	4c 89 85 28 ff ff ff 	mov    %r8,-0xd8(%rbp)
  405de5:	4c 89 8d 20 ff ff ff 	mov    %r9,-0xe0(%rbp)
  405dec:	64 48 8b 04 25 28 00 	mov    %fs:0x28,%rax
  405df3:	00 00 
  405df5:	48 89 45 e8          	mov    %rax,-0x18(%rbp)
  405df9:	31 c0                	xor    %eax,%eax
  405dfb:	48 8b 85 48 ff ff ff 	mov    -0xb8(%rbp),%rax
  405e02:	48 89 c7             	mov    %rax,%rdi
  405e05:	e8 f6 22 00 00       	callq  408100 <_ZN2cl6detail7WrapperIP11_cl_contextEC1Ev>
  405e0a:	48 c7 45 c0 84 10 00 	movq   $0x1084,-0x40(%rbp)
  405e11:	00 
  405e12:	48 c7 45 c8 00 00 00 	movq   $0x0,-0x38(%rbp)
  405e19:	00 
  405e1a:	48 c7 45 d0 00 00 00 	movq   $0x0,-0x30(%rbp)
  405e21:	00 
  405e22:	48 c7 45 d8 00 00 00 	movq   $0x0,-0x28(%rbp)
  405e29:	00 
  405e2a:	48 83 bd 38 ff ff ff 	cmpq   $0x0,-0xc8(%rbp)
  405e31:	00 
  405e32:	0f 85 f3 01 00 00    	jne    40602b <_ZN2cl7ContextC1EmPlPFvPKcPKvmPvES6_Pi+0x275>
  405e38:	48 8d 85 60 ff ff ff 	lea    -0xa0(%rbp),%rax
  405e3f:	48 89 c7             	mov    %rax,%rdi
  405e42:	e8 f5 22 00 00       	callq  40813c <_ZNSt6vectorIN2cl8PlatformESaIS1_EEC1Ev>
  405e47:	48 8d 85 60 ff ff ff 	lea    -0xa0(%rbp),%rax
  405e4e:	48 89 c7             	mov    %rax,%rdi
  405e51:	e8 60 fb ff ff       	callq  4059b6 <_ZN2cl8Platform3getEPSt6vectorIS0_SaIS0_EE>
  405e56:	89 85 50 ff ff ff    	mov    %eax,-0xb0(%rbp)
  405e5c:	8b 85 50 ff ff ff    	mov    -0xb0(%rbp),%eax
  405e62:	85 c0                	test   %eax,%eax
  405e64:	74 35                	je     405e9b <_ZN2cl7ContextC1EmPlPFvPKcPKvmPvES6_Pi+0xe5>
  405e66:	8b 85 50 ff ff ff    	mov    -0xb0(%rbp),%eax
  405e6c:	be e0 03 41 00       	mov    $0x4103e0,%esi
  405e71:	89 c7                	mov    %eax,%edi
  405e73:	e8 25 e5 ff ff       	callq  40439d <_ZN2cl6detailL10errHandlerEiPKc>
  405e78:	48 83 bd 20 ff ff ff 	cmpq   $0x0,-0xe0(%rbp)
  405e7f:	00 
  405e80:	74 0f                	je     405e91 <_ZN2cl7ContextC1EmPlPFvPKcPKvmPvES6_Pi+0xdb>
  405e82:	8b 95 50 ff ff ff    	mov    -0xb0(%rbp),%edx
  405e88:	48 8b 85 20 ff ff ff 	mov    -0xe0(%rbp),%rax
  405e8f:	89 10                	mov    %edx,(%rax)
  405e91:	bb 00 00 00 00       	mov    $0x0,%ebx
  405e96:	e9 77 01 00 00       	jmpq   406012 <_ZN2cl7ContextC1EmPlPFvPKcPKvmPvES6_Pi+0x25c>
  405e9b:	48 c7 85 58 ff ff ff 	movq   $0x0,-0xa8(%rbp)
  405ea2:	00 00 00 00 
  405ea6:	c7 85 54 ff ff ff 00 	movl   $0x0,-0xac(%rbp)
  405ead:	00 00 00 
  405eb0:	8b 9d 54 ff ff ff    	mov    -0xac(%rbp),%ebx
  405eb6:	48 8d 85 60 ff ff ff 	lea    -0xa0(%rbp),%rax
  405ebd:	48 89 c7             	mov    %rax,%rdi
  405ec0:	e8 d7 22 00 00       	callq  40819c <_ZNKSt6vectorIN2cl8PlatformESaIS1_EE4sizeEv>
  405ec5:	48 39 c3             	cmp    %rax,%rbx
  405ec8:	0f 92 c0             	setb   %al
  405ecb:	84 c0                	test   %al,%al
  405ecd:	0f 84 ed 00 00 00    	je     405fc0 <_ZN2cl7ContextC1EmPlPFvPKcPKvmPvES6_Pi+0x20a>
  405ed3:	48 8d 45 80          	lea    -0x80(%rbp),%rax
  405ed7:	48 89 c7             	mov    %rax,%rdi
  405eda:	e8 e3 22 00 00       	callq  4081c2 <_ZNSt6vectorIN2cl6DeviceESaIS1_EEC1Ev>
  405edf:	8b 95 54 ff ff ff    	mov    -0xac(%rbp),%edx
  405ee5:	48 8d 85 60 ff ff ff 	lea    -0xa0(%rbp),%rax
  405eec:	48 89 d6             	mov    %rdx,%rsi
  405eef:	48 89 c7             	mov    %rax,%rdi
  405ef2:	e8 8b 21 00 00       	callq  408082 <_ZNSt6vectorIN2cl8PlatformESaIS1_EEixEm>
  405ef7:	48 89 c1             	mov    %rax,%rcx
  405efa:	48 8d 55 80          	lea    -0x80(%rbp),%rdx
  405efe:	48 8b 85 40 ff ff ff 	mov    -0xc0(%rbp),%rax
  405f05:	48 89 c6             	mov    %rax,%rsi
  405f08:	48 89 cf             	mov    %rcx,%rdi
  405f0b:	e8 82 f8 ff ff       	callq  405792 <_ZNK2cl8Platform10getDevicesEmPSt6vectorINS_6DeviceESaIS2_EE>
  405f10:	89 85 50 ff ff ff    	mov    %eax,-0xb0(%rbp)
  405f16:	8b 85 50 ff ff ff    	mov    -0xb0(%rbp),%eax
  405f1c:	85 c0                	test   %eax,%eax
  405f1e:	74 36                	je     405f56 <_ZN2cl7ContextC1EmPlPFvPKcPKvmPvES6_Pi+0x1a0>
  405f20:	8b 85 50 ff ff ff    	mov    -0xb0(%rbp),%eax
  405f26:	83 f8 ff             	cmp    $0xffffffff,%eax
  405f29:	74 2b                	je     405f56 <_ZN2cl7ContextC1EmPlPFvPKcPKvmPvES6_Pi+0x1a0>
  405f2b:	8b 85 50 ff ff ff    	mov    -0xb0(%rbp),%eax
  405f31:	be e0 03 41 00       	mov    $0x4103e0,%esi
  405f36:	89 c7                	mov    %eax,%edi
  405f38:	e8 60 e4 ff ff       	callq  40439d <_ZN2cl6detailL10errHandlerEiPKc>
  405f3d:	48 83 bd 20 ff ff ff 	cmpq   $0x0,-0xe0(%rbp)
  405f44:	00 
  405f45:	74 0f                	je     405f56 <_ZN2cl7ContextC1EmPlPFvPKcPKvmPvES6_Pi+0x1a0>
  405f47:	8b 95 50 ff ff ff    	mov    -0xb0(%rbp),%edx
  405f4d:	48 8b 85 20 ff ff ff 	mov    -0xe0(%rbp),%rax
  405f54:	89 10                	mov    %edx,(%rax)
  405f56:	48 8d 45 80          	lea    -0x80(%rbp),%rax
  405f5a:	48 89 c7             	mov    %rax,%rdi
  405f5d:	e8 b4 21 00 00       	callq  408116 <_ZNKSt6vectorIN2cl6DeviceESaIS1_EE4sizeEv>
  405f62:	48 85 c0             	test   %rax,%rax
  405f65:	0f 95 c0             	setne  %al
  405f68:	84 c0                	test   %al,%al
  405f6a:	74 31                	je     405f9d <_ZN2cl7ContextC1EmPlPFvPKcPKvmPvES6_Pi+0x1e7>
  405f6c:	8b 95 54 ff ff ff    	mov    -0xac(%rbp),%edx
  405f72:	48 8d 85 60 ff ff ff 	lea    -0xa0(%rbp),%rax
  405f79:	48 89 d6             	mov    %rdx,%rsi
  405f7c:	48 89 c7             	mov    %rax,%rdi
  405f7f:	e8 fe 20 00 00       	callq  408082 <_ZNSt6vectorIN2cl8PlatformESaIS1_EEixEm>
  405f84:	48 89 c7             	mov    %rax,%rdi
  405f87:	e8 96 22 00 00       	callq  408222 <_ZN2cl6detail7WrapperIP15_cl_platform_idEclEv>
  405f8c:	48 8b 00             	mov    (%rax),%rax
  405f8f:	48 89 85 58 ff ff ff 	mov    %rax,-0xa8(%rbp)
  405f96:	bb 00 00 00 00       	mov    $0x0,%ebx
  405f9b:	eb 05                	jmp    405fa2 <_ZN2cl7ContextC1EmPlPFvPKcPKvmPvES6_Pi+0x1ec>
  405f9d:	bb 01 00 00 00       	mov    $0x1,%ebx
  405fa2:	48 8d 45 80          	lea    -0x80(%rbp),%rax
  405fa6:	48 89 c7             	mov    %rax,%rdi
  405fa9:	e8 30 22 00 00       	callq  4081de <_ZNSt6vectorIN2cl6DeviceESaIS1_EED1Ev>
  405fae:	83 fb 01             	cmp    $0x1,%ebx
  405fb1:	75 0d                	jne    405fc0 <_ZN2cl7ContextC1EmPlPFvPKcPKvmPvES6_Pi+0x20a>
  405fb3:	90                   	nop
  405fb4:	83 85 54 ff ff ff 01 	addl   $0x1,-0xac(%rbp)
  405fbb:	e9 f0 fe ff ff       	jmpq   405eb0 <_ZN2cl7ContextC1EmPlPFvPKcPKvmPvES6_Pi+0xfa>
  405fc0:	48 83 bd 58 ff ff ff 	cmpq   $0x0,-0xa8(%rbp)
  405fc7:	00 
  405fc8:	75 2d                	jne    405ff7 <_ZN2cl7ContextC1EmPlPFvPKcPKvmPvES6_Pi+0x241>
  405fca:	be e0 03 41 00       	mov    $0x4103e0,%esi
  405fcf:	bf ff ff ff ff       	mov    $0xffffffff,%edi
  405fd4:	e8 c4 e3 ff ff       	callq  40439d <_ZN2cl6detailL10errHandlerEiPKc>
  405fd9:	48 83 bd 20 ff ff ff 	cmpq   $0x0,-0xe0(%rbp)
  405fe0:	00 
  405fe1:	74 0d                	je     405ff0 <_ZN2cl7ContextC1EmPlPFvPKcPKvmPvES6_Pi+0x23a>
  405fe3:	48 8b 85 20 ff ff ff 	mov    -0xe0(%rbp),%rax
  405fea:	c7 00 ff ff ff ff    	movl   $0xffffffff,(%rax)
  405ff0:	bb 00 00 00 00       	mov    $0x0,%ebx
  405ff5:	eb 1b                	jmp    406012 <_ZN2cl7ContextC1EmPlPFvPKcPKvmPvES6_Pi+0x25c>
  405ff7:	48 8b 85 58 ff ff ff 	mov    -0xa8(%rbp),%rax
  405ffe:	48 89 45 c8          	mov    %rax,-0x38(%rbp)
  406002:	48 8d 45 c0          	lea    -0x40(%rbp),%rax
  406006:	48 89 85 38 ff ff ff 	mov    %rax,-0xc8(%rbp)
  40600d:	bb 01 00 00 00       	mov    $0x1,%ebx
  406012:	48 8d 85 60 ff ff ff 	lea    -0xa0(%rbp),%rax
  406019:	48 89 c7             	mov    %rax,%rdi
  40601c:	e8 37 21 00 00       	callq  408158 <_ZNSt6vectorIN2cl8PlatformESaIS1_EED1Ev>
  406021:	83 fb 01             	cmp    $0x1,%ebx
  406024:	0f 85 fe 00 00 00    	jne    406128 <_ZN2cl7ContextC1EmPlPFvPKcPKvmPvES6_Pi+0x372>
  40602a:	90                   	nop
  40602b:	48 8d bd 50 ff ff ff 	lea    -0xb0(%rbp),%rdi
  406032:	48 8b 8d 28 ff ff ff 	mov    -0xd8(%rbp),%rcx
  406039:	48 8b 95 30 ff ff ff 	mov    -0xd0(%rbp),%rdx
  406040:	48 8b b5 40 ff ff ff 	mov    -0xc0(%rbp),%rsi
  406047:	48 8b 85 38 ff ff ff 	mov    -0xc8(%rbp),%rax
  40604e:	49 89 f8             	mov    %rdi,%r8
  406051:	48 89 c7             	mov    %rax,%rdi
  406054:	e8 c7 dd ff ff       	callq  403e20 <clCreateContextFromType@plt>
  406059:	48 89 c2             	mov    %rax,%rdx
  40605c:	48 8b 85 48 ff ff ff 	mov    -0xb8(%rbp),%rax
  406063:	48 89 10             	mov    %rdx,(%rax)
  406066:	8b 85 50 ff ff ff    	mov    -0xb0(%rbp),%eax
  40606c:	be e0 03 41 00       	mov    $0x4103e0,%esi
  406071:	89 c7                	mov    %eax,%edi
  406073:	e8 25 e3 ff ff       	callq  40439d <_ZN2cl6detailL10errHandlerEiPKc>
  406078:	48 83 bd 20 ff ff ff 	cmpq   $0x0,-0xe0(%rbp)
  40607f:	00 
  406080:	0f 84 a2 00 00 00    	je     406128 <_ZN2cl7ContextC1EmPlPFvPKcPKvmPvES6_Pi+0x372>
  406086:	8b 95 50 ff ff ff    	mov    -0xb0(%rbp),%edx
  40608c:	48 8b 85 20 ff ff ff 	mov    -0xe0(%rbp),%rax
  406093:	89 10                	mov    %edx,(%rax)
  406095:	e9 8e 00 00 00       	jmpq   406128 <_ZN2cl7ContextC1EmPlPFvPKcPKvmPvES6_Pi+0x372>
  40609a:	48 89 c3             	mov    %rax,%rbx
  40609d:	48 89 d0             	mov    %rdx,%rax
  4060a0:	48 83 f8 01          	cmp    $0x1,%rax
  4060a4:	74 02                	je     4060a8 <_ZN2cl7ContextC1EmPlPFvPKcPKvmPvES6_Pi+0x2f2>
  4060a6:	eb 41                	jmp    4060e9 <_ZN2cl7ContextC1EmPlPFvPKcPKvmPvES6_Pi+0x333>
  4060a8:	48 89 d8             	mov    %rbx,%rax
  4060ab:	48 89 c7             	mov    %rax,%rdi
  4060ae:	e8 0d df ff ff       	callq  403fc0 <__cxa_get_exception_ptr@plt>
  4060b3:	48 89 c2             	mov    %rax,%rdx
  4060b6:	48 8d 45 a0          	lea    -0x60(%rbp),%rax
  4060ba:	48 89 d6             	mov    %rdx,%rsi
  4060bd:	48 89 c7             	mov    %rax,%rdi
  4060c0:	e8 c9 ee ff ff       	callq  404f8e <_ZN2cl5ErrorC1ERKS0_>
  4060c5:	48 89 d8             	mov    %rbx,%rax
  4060c8:	48 89 c7             	mov    %rax,%rdi
  4060cb:	e8 f0 dc ff ff       	callq  403dc0 <__cxa_begin_catch@plt>
  4060d0:	48 8d 45 a0          	lea    -0x60(%rbp),%rax
  4060d4:	48 89 c7             	mov    %rax,%rdi
  4060d7:	e8 10 ee ff ff       	callq  404eec <_ZN2cl5ErrorD1Ev>
  4060dc:	e8 2f e0 ff ff       	callq  404110 <__cxa_end_catch@plt>
  4060e1:	e9 30 fe ff ff       	jmpq   405f16 <_ZN2cl7ContextC1EmPlPFvPKcPKvmPvES6_Pi+0x160>
  4060e6:	48 89 c3             	mov    %rax,%rbx
  4060e9:	48 8d 45 80          	lea    -0x80(%rbp),%rax
  4060ed:	48 89 c7             	mov    %rax,%rdi
  4060f0:	e8 e9 20 00 00       	callq  4081de <_ZNSt6vectorIN2cl6DeviceESaIS1_EED1Ev>
  4060f5:	eb 03                	jmp    4060fa <_ZN2cl7ContextC1EmPlPFvPKcPKvmPvES6_Pi+0x344>
  4060f7:	48 89 c3             	mov    %rax,%rbx
  4060fa:	48 8d 85 60 ff ff ff 	lea    -0xa0(%rbp),%rax
  406101:	48 89 c7             	mov    %rax,%rdi
  406104:	e8 4f 20 00 00       	callq  408158 <_ZNSt6vectorIN2cl8PlatformESaIS1_EED1Ev>
  406109:	eb 03                	jmp    40610e <_ZN2cl7ContextC1EmPlPFvPKcPKvmPvES6_Pi+0x358>
  40610b:	48 89 c3             	mov    %rax,%rbx
  40610e:	48 8b 85 48 ff ff ff 	mov    -0xb8(%rbp),%rax
  406115:	48 89 c7             	mov    %rax,%rdi
  406118:	e8 bb 1f 00 00       	callq  4080d8 <_ZN2cl6detail7WrapperIP11_cl_contextED1Ev>
  40611d:	48 89 d8             	mov    %rbx,%rax
  406120:	48 89 c7             	mov    %rax,%rdi
  406123:	e8 68 e0 ff ff       	callq  404190 <_Unwind_Resume@plt>
  406128:	48 8b 45 e8          	mov    -0x18(%rbp),%rax
  40612c:	64 48 33 04 25 28 00 	xor    %fs:0x28,%rax
  406133:	00 00 
  406135:	74 05                	je     40613c <_ZN2cl7ContextC1EmPlPFvPKcPKvmPvES6_Pi+0x386>
  406137:	e8 f4 dd ff ff       	callq  403f30 <__stack_chk_fail@plt>
  40613c:	48 81 c4 d8 00 00 00 	add    $0xd8,%rsp
  406143:	5b                   	pop    %rbx
  406144:	5d                   	pop    %rbp
  406145:	c3                   	retq   

0000000000406146 <_ZN2cl7ContextC1ERKS0_>:
  406146:	55                   	push   %rbp
  406147:	48 89 e5             	mov    %rsp,%rbp
  40614a:	48 83 ec 10          	sub    $0x10,%rsp
  40614e:	48 89 7d f8          	mov    %rdi,-0x8(%rbp)
  406152:	48 89 75 f0          	mov    %rsi,-0x10(%rbp)
  406156:	48 8b 55 f0          	mov    -0x10(%rbp),%rdx
  40615a:	48 8b 45 f8          	mov    -0x8(%rbp),%rax
  40615e:	48 89 d6             	mov    %rdx,%rsi
  406161:	48 89 c7             	mov    %rax,%rdi
  406164:	e8 c7 20 00 00       	callq  408230 <_ZN2cl6detail7WrapperIP11_cl_contextEC1ERKS4_>
  406169:	90                   	nop
  40616a:	c9                   	leaveq 
  40616b:	c3                   	retq   

000000000040616c <_ZN2cl7ContextaSERKS0_>:
  40616c:	55                   	push   %rbp
  40616d:	48 89 e5             	mov    %rsp,%rbp
  406170:	48 83 ec 10          	sub    $0x10,%rsp
  406174:	48 89 7d f8          	mov    %rdi,-0x8(%rbp)
  406178:	48 89 75 f0          	mov    %rsi,-0x10(%rbp)
  40617c:	48 8b 55 f0          	mov    -0x10(%rbp),%rdx
  406180:	48 8b 45 f8          	mov    -0x8(%rbp),%rax
  406184:	48 89 d6             	mov    %rdx,%rsi
  406187:	48 89 c7             	mov    %rax,%rdi
  40618a:	e8 db 20 00 00       	callq  40826a <_ZN2cl6detail7WrapperIP11_cl_contextEaSERKS4_>
  40618f:	48 8b 45 f8          	mov    -0x8(%rbp),%rax
  406193:	c9                   	leaveq 
  406194:	c3                   	retq   

0000000000406195 <_ZSt4moveIRN2cl7ContextEEONSt16remove_referenceIT_E4typeEOS4_>:
  406195:	55                   	push   %rbp
  406196:	48 89 e5             	mov    %rsp,%rbp
  406199:	48 89 7d f8          	mov    %rdi,-0x8(%rbp)
  40619d:	48 8b 45 f8          	mov    -0x8(%rbp),%rax
  4061a1:	5d                   	pop    %rbp
  4061a2:	c3                   	retq   
  4061a3:	90                   	nop

00000000004061a4 <_ZN2cl7ContextaSEOS0_>:
  4061a4:	55                   	push   %rbp
  4061a5:	48 89 e5             	mov    %rsp,%rbp
  4061a8:	48 83 ec 10          	sub    $0x10,%rsp
  4061ac:	48 89 7d f8          	mov    %rdi,-0x8(%rbp)
  4061b0:	48 89 75 f0          	mov    %rsi,-0x10(%rbp)
  4061b4:	48 8b 45 f0          	mov    -0x10(%rbp),%rax
  4061b8:	48 89 c7             	mov    %rax,%rdi
  4061bb:	e8 d5 ff ff ff       	callq  406195 <_ZSt4moveIRN2cl7ContextEEONSt16remove_referenceIT_E4typeEOS4_>
  4061c0:	48 89 c2             	mov    %rax,%rdx
  4061c3:	48 8b 45 f8          	mov    -0x8(%rbp),%rax
  4061c7:	48 89 d6             	mov    %rdx,%rsi
  4061ca:	48 89 c7             	mov    %rax,%rdi
  4061cd:	e8 f6 20 00 00       	callq  4082c8 <_ZN2cl6detail7WrapperIP11_cl_contextEaSEOS4_>
  4061d2:	48 8b 45 f8          	mov    -0x8(%rbp),%rax
  4061d6:	c9                   	leaveq 
  4061d7:	c3                   	retq   

00000000004061d8 <_ZN2cl7Context10getDefaultEPi>:
  4061d8:	55                   	push   %rbp
  4061d9:	48 89 e5             	mov    %rsp,%rbp
  4061dc:	48 83 ec 10          	sub    $0x10,%rsp
  4061e0:	48 89 7d f8          	mov    %rdi,-0x8(%rbp)
  4061e4:	48 89 75 f0          	mov    %rsi,-0x10(%rbp)
  4061e8:	be 59 5c 40 00       	mov    $0x405c59,%esi
  4061ed:	bf 74 96 61 00       	mov    $0x619674,%edi
  4061f2:	e8 1e 19 00 00       	callq  407b15 <_ZSt9call_onceIRFvvEJEEvRSt9once_flagOT_DpOT0_>
  4061f7:	8b 05 83 34 21 00    	mov    0x213483(%rip),%eax        # 619680 <_ZN2cl7Context14default_error_E>
  4061fd:	be 00 00 00 00       	mov    $0x0,%esi
  406202:	89 c7                	mov    %eax,%edi
  406204:	e8 94 e1 ff ff       	callq  40439d <_ZN2cl6detailL10errHandlerEiPKc>
  406209:	48 83 7d f0 00       	cmpq   $0x0,-0x10(%rbp)
  40620e:	74 0c                	je     40621c <_ZN2cl7Context10getDefaultEPi+0x44>
  406210:	8b 15 6a 34 21 00    	mov    0x21346a(%rip),%edx        # 619680 <_ZN2cl7Context14default_error_E>
  406216:	48 8b 45 f0          	mov    -0x10(%rbp),%rax
  40621a:	89 10                	mov    %edx,(%rax)
  40621c:	48 8b 45 f8          	mov    -0x8(%rbp),%rax
  406220:	be 78 96 61 00       	mov    $0x619678,%esi
  406225:	48 89 c7             	mov    %rax,%rdi
  406228:	e8 19 ff ff ff       	callq  406146 <_ZN2cl7ContextC1ERKS0_>
  40622d:	48 8b 45 f8          	mov    -0x8(%rbp),%rax
  406231:	c9                   	leaveq 
  406232:	c3                   	retq   

0000000000406233 <_ZN2cl7Context10setDefaultERKS0_>:
  406233:	55                   	push   %rbp
  406234:	48 89 e5             	mov    %rsp,%rbp
  406237:	48 83 ec 20          	sub    $0x20,%rsp
  40623b:	48 89 7d e8          	mov    %rdi,-0x18(%rbp)
  40623f:	48 89 75 e0          	mov    %rsi,-0x20(%rbp)
  406243:	64 48 8b 04 25 28 00 	mov    %fs:0x28,%rax
  40624a:	00 00 
  40624c:	48 89 45 f8          	mov    %rax,-0x8(%rbp)
  406250:	31 c0                	xor    %eax,%eax
  406252:	48 8b 45 e0          	mov    -0x20(%rbp),%rax
  406256:	48 89 c7             	mov    %rax,%rdi
  406259:	e8 bb 20 00 00       	callq  408319 <_ZSt4crefIN2cl7ContextEESt17reference_wrapperIKT_ERS4_>
  40625e:	48 89 45 f0          	mov    %rax,-0x10(%rbp)
  406262:	48 8d 45 f0          	lea    -0x10(%rbp),%rax
  406266:	48 89 c2             	mov    %rax,%rdx
  406269:	be 95 5d 40 00       	mov    $0x405d95,%esi
  40626e:	bf 74 96 61 00       	mov    $0x619674,%edi
  406273:	e8 89 21 00 00       	callq  408401 <_ZSt9call_onceIRFvRKN2cl7ContextEEJSt17reference_wrapperIS2_EEEvRSt9once_flagOT_DpOT0_>
  406278:	8b 05 02 34 21 00    	mov    0x213402(%rip),%eax        # 619680 <_ZN2cl7Context14default_error_E>
  40627e:	be 00 00 00 00       	mov    $0x0,%esi
  406283:	89 c7                	mov    %eax,%edi
  406285:	e8 13 e1 ff ff       	callq  40439d <_ZN2cl6detailL10errHandlerEiPKc>
  40628a:	48 8b 45 e8          	mov    -0x18(%rbp),%rax
  40628e:	be 78 96 61 00       	mov    $0x619678,%esi
  406293:	48 89 c7             	mov    %rax,%rdi
  406296:	e8 ab fe ff ff       	callq  406146 <_ZN2cl7ContextC1ERKS0_>
  40629b:	48 8b 45 e8          	mov    -0x18(%rbp),%rax
  40629f:	48 8b 4d f8          	mov    -0x8(%rbp),%rcx
  4062a3:	64 48 33 0c 25 28 00 	xor    %fs:0x28,%rcx
  4062aa:	00 00 
  4062ac:	74 05                	je     4062b3 <_ZN2cl7Context10setDefaultERKS0_+0x80>
  4062ae:	e8 7d dc ff ff       	callq  403f30 <__stack_chk_fail@plt>
  4062b3:	c9                   	leaveq 
  4062b4:	c3                   	retq   
  4062b5:	90                   	nop

00000000004062b6 <_ZN2cl7ContextC1Ev>:
  4062b6:	55                   	push   %rbp
  4062b7:	48 89 e5             	mov    %rsp,%rbp
  4062ba:	48 83 ec 10          	sub    $0x10,%rsp
  4062be:	48 89 7d f8          	mov    %rdi,-0x8(%rbp)
  4062c2:	48 8b 45 f8          	mov    -0x8(%rbp),%rax
  4062c6:	48 89 c7             	mov    %rax,%rdi
  4062c9:	e8 32 1e 00 00       	callq  408100 <_ZN2cl6detail7WrapperIP11_cl_contextEC1Ev>
  4062ce:	90                   	nop
  4062cf:	c9                   	leaveq 
  4062d0:	c3                   	retq   
  4062d1:	90                   	nop

00000000004062d2 <_ZN2cl6Device11makeDefaultEv>:
  4062d2:	55                   	push   %rbp
  4062d3:	48 89 e5             	mov    %rsp,%rbp
  4062d6:	41 54                	push   %r12
  4062d8:	53                   	push   %rbx
  4062d9:	48 83 ec 40          	sub    $0x40,%rsp
  4062dd:	64 48 8b 04 25 28 00 	mov    %fs:0x28,%rax
  4062e4:	00 00 
  4062e6:	48 89 45 e8          	mov    %rax,-0x18(%rbp)
  4062ea:	31 c0                	xor    %eax,%eax
  4062ec:	c7 45 bc 00 00 00 00 	movl   $0x0,-0x44(%rbp)
  4062f3:	48 8d 45 c0          	lea    -0x40(%rbp),%rax
  4062f7:	48 8d 55 bc          	lea    -0x44(%rbp),%rdx
  4062fb:	48 89 d6             	mov    %rdx,%rsi
  4062fe:	48 89 c7             	mov    %rax,%rdi
  406301:	e8 d2 fe ff ff       	callq  4061d8 <_ZN2cl7Context10getDefaultEPi>
  406306:	8b 45 bc             	mov    -0x44(%rbp),%eax
  406309:	be f8 03 41 00       	mov    $0x4103f8,%esi
  40630e:	89 c7                	mov    %eax,%edi
  406310:	e8 88 e0 ff ff       	callq  40439d <_ZN2cl6detailL10errHandlerEiPKc>
  406315:	8b 45 bc             	mov    -0x44(%rbp),%eax
  406318:	85 c0                	test   %eax,%eax
  40631a:	74 0b                	je     406327 <_ZN2cl6Device11makeDefaultEv+0x55>
  40631c:	8b 45 bc             	mov    -0x44(%rbp),%eax
  40631f:	89 05 3b 33 21 00    	mov    %eax,0x21333b(%rip)        # 619660 <_ZN2cl6Device14default_error_E>
  406325:	eb 4c                	jmp    406373 <_ZN2cl6Device11makeDefaultEv+0xa1>
  406327:	48 8d 45 d0          	lea    -0x30(%rbp),%rax
  40632b:	48 8d 4d c0          	lea    -0x40(%rbp),%rcx
  40632f:	ba 00 00 00 00       	mov    $0x0,%edx
  406334:	48 89 ce             	mov    %rcx,%rsi
  406337:	48 89 c7             	mov    %rax,%rdi
  40633a:	e8 65 21 00 00       	callq  4084a4 <_ZNK2cl7Context7getInfoILi4225EEENS_6detail12param_traitsINS2_15cl_context_infoEXT_EE10param_typeEPi>
  40633f:	48 8d 45 d0          	lea    -0x30(%rbp),%rax
  406343:	be 00 00 00 00       	mov    $0x0,%esi
  406348:	48 89 c7             	mov    %rax,%rdi
  40634b:	e8 40 1c 00 00       	callq  407f90 <_ZNSt6vectorIN2cl6DeviceESaIS1_EEixEm>
  406350:	48 89 c6             	mov    %rax,%rsi
  406353:	bf 50 96 61 00       	mov    $0x619650,%edi
  406358:	e8 c5 f0 ff ff       	callq  405422 <_ZN2cl6DeviceaSERKS0_>
  40635d:	48 8d 45 d0          	lea    -0x30(%rbp),%rax
  406361:	48 89 c7             	mov    %rax,%rdi
  406364:	e8 75 1e 00 00       	callq  4081de <_ZNSt6vectorIN2cl6DeviceESaIS1_EED1Ev>
  406369:	c7 05 ed 32 21 00 00 	movl   $0x0,0x2132ed(%rip)        # 619660 <_ZN2cl6Device14default_error_E>
  406370:	00 00 00 
  406373:	48 8d 45 c0          	lea    -0x40(%rbp),%rax
  406377:	48 89 c7             	mov    %rax,%rdi
  40637a:	e8 bf f8 ff ff       	callq  405c3e <_ZN2cl7ContextD1Ev>
  40637f:	eb 5f                	jmp    4063e0 <_ZN2cl6Device11makeDefaultEv+0x10e>
  406381:	49 89 c4             	mov    %rax,%r12
  406384:	48 89 d3             	mov    %rdx,%rbx
  406387:	48 8d 45 d0          	lea    -0x30(%rbp),%rax
  40638b:	48 89 c7             	mov    %rax,%rdi
  40638e:	e8 4b 1e 00 00       	callq  4081de <_ZNSt6vectorIN2cl6DeviceESaIS1_EED1Ev>
  406393:	eb 06                	jmp    40639b <_ZN2cl6Device11makeDefaultEv+0xc9>
  406395:	49 89 c4             	mov    %rax,%r12
  406398:	48 89 d3             	mov    %rdx,%rbx
  40639b:	48 8d 45 c0          	lea    -0x40(%rbp),%rax
  40639f:	48 89 c7             	mov    %rax,%rdi
  4063a2:	e8 97 f8 ff ff       	callq  405c3e <_ZN2cl7ContextD1Ev>
  4063a7:	4c 89 e0             	mov    %r12,%rax
  4063aa:	48 89 da             	mov    %rbx,%rdx
  4063ad:	eb 00                	jmp    4063af <_ZN2cl6Device11makeDefaultEv+0xdd>
  4063af:	48 83 fa 01          	cmp    $0x1,%rdx
  4063b3:	74 08                	je     4063bd <_ZN2cl6Device11makeDefaultEv+0xeb>
  4063b5:	48 89 c7             	mov    %rax,%rdi
  4063b8:	e8 d3 dd ff ff       	callq  404190 <_Unwind_Resume@plt>
  4063bd:	48 89 c7             	mov    %rax,%rdi
  4063c0:	e8 fb d9 ff ff       	callq  403dc0 <__cxa_begin_catch@plt>
  4063c5:	48 89 45 c8          	mov    %rax,-0x38(%rbp)
  4063c9:	48 8b 45 c8          	mov    -0x38(%rbp),%rax
  4063cd:	48 89 c7             	mov    %rax,%rdi
  4063d0:	e8 8b eb ff ff       	callq  404f60 <_ZNK2cl5Error3errEv>
  4063d5:	89 05 85 32 21 00    	mov    %eax,0x213285(%rip)        # 619660 <_ZN2cl6Device14default_error_E>
  4063db:	e8 30 dd ff ff       	callq  404110 <__cxa_end_catch@plt>
  4063e0:	90                   	nop
  4063e1:	48 8b 45 e8          	mov    -0x18(%rbp),%rax
  4063e5:	64 48 33 04 25 28 00 	xor    %fs:0x28,%rax
  4063ec:	00 00 
  4063ee:	74 05                	je     4063f5 <_ZN2cl6Device11makeDefaultEv+0x123>
  4063f0:	e8 3b db ff ff       	callq  403f30 <__stack_chk_fail@plt>
  4063f5:	48 83 c4 40          	add    $0x40,%rsp
  4063f9:	5b                   	pop    %rbx
  4063fa:	41 5c                	pop    %r12
  4063fc:	5d                   	pop    %rbp
  4063fd:	c3                   	retq   

00000000004063fe <_ZN2cl7NDRangeC1Ev>:
  4063fe:	55                   	push   %rbp
  4063ff:	48 89 e5             	mov    %rsp,%rbp
  406402:	48 89 7d f8          	mov    %rdi,-0x8(%rbp)
  406406:	48 8b 45 f8          	mov    -0x8(%rbp),%rax
  40640a:	c7 40 18 00 00 00 00 	movl   $0x0,0x18(%rax)
  406411:	48 8b 45 f8          	mov    -0x8(%rbp),%rax
  406415:	48 c7 00 00 00 00 00 	movq   $0x0,(%rax)
  40641c:	48 8b 45 f8          	mov    -0x8(%rbp),%rax
  406420:	48 c7 40 08 00 00 00 	movq   $0x0,0x8(%rax)
  406427:	00 
  406428:	48 8b 45 f8          	mov    -0x8(%rbp),%rax
  40642c:	48 c7 40 10 00 00 00 	movq   $0x0,0x10(%rax)
  406433:	00 
  406434:	90                   	nop
  406435:	5d                   	pop    %rbp
  406436:	c3                   	retq   
  406437:	90                   	nop

0000000000406438 <_ZN2cl7NDRangeC1Emm>:
  406438:	55                   	push   %rbp
  406439:	48 89 e5             	mov    %rsp,%rbp
  40643c:	48 89 7d f8          	mov    %rdi,-0x8(%rbp)
  406440:	48 89 75 f0          	mov    %rsi,-0x10(%rbp)
  406444:	48 89 55 e8          	mov    %rdx,-0x18(%rbp)
  406448:	48 8b 45 f8          	mov    -0x8(%rbp),%rax
  40644c:	c7 40 18 02 00 00 00 	movl   $0x2,0x18(%rax)
  406453:	48 8b 45 f8          	mov    -0x8(%rbp),%rax
  406457:	48 8b 55 f0          	mov    -0x10(%rbp),%rdx
  40645b:	48 89 10             	mov    %rdx,(%rax)
  40645e:	48 8b 45 f8          	mov    -0x8(%rbp),%rax
  406462:	48 8b 55 e8          	mov    -0x18(%rbp),%rdx
  406466:	48 89 50 08          	mov    %rdx,0x8(%rax)
  40646a:	48 8b 45 f8          	mov    -0x8(%rbp),%rax
  40646e:	48 c7 40 10 01 00 00 	movq   $0x1,0x10(%rax)
  406475:	00 
  406476:	90                   	nop
  406477:	5d                   	pop    %rbp
  406478:	c3                   	retq   
  406479:	90                   	nop

000000000040647a <_ZN2cl6KernelD1Ev>:
  40647a:	55                   	push   %rbp
  40647b:	48 89 e5             	mov    %rsp,%rbp
  40647e:	48 83 ec 10          	sub    $0x10,%rsp
  406482:	48 89 7d f8          	mov    %rdi,-0x8(%rbp)
  406486:	48 8b 45 f8          	mov    -0x8(%rbp),%rax
  40648a:	48 89 c7             	mov    %rax,%rdi
  40648d:	e8 b4 20 00 00       	callq  408546 <_ZN2cl6detail7WrapperIP10_cl_kernelED1Ev>
  406492:	90                   	nop
  406493:	c9                   	leaveq 
  406494:	c3                   	retq   
  406495:	90                   	nop

0000000000406496 <_ZN2cl12CommandQueueD1Ev>:
  406496:	55                   	push   %rbp
  406497:	48 89 e5             	mov    %rsp,%rbp
  40649a:	48 83 ec 10          	sub    $0x10,%rsp
  40649e:	48 89 7d f8          	mov    %rdi,-0x8(%rbp)
  4064a2:	48 8b 45 f8          	mov    -0x8(%rbp),%rax
  4064a6:	48 89 c7             	mov    %rax,%rdi
  4064a9:	e8 c0 20 00 00       	callq  40856e <_ZN2cl6detail7WrapperIP17_cl_command_queueED1Ev>
  4064ae:	90                   	nop
  4064af:	c9                   	leaveq 
  4064b0:	c3                   	retq   

00000000004064b1 <_ZN2cl12CommandQueue11makeDefaultEv>:
  4064b1:	55                   	push   %rbp
  4064b2:	48 89 e5             	mov    %rsp,%rbp
  4064b5:	41 54                	push   %r12
  4064b7:	53                   	push   %rbx
  4064b8:	48 83 ec 40          	sub    $0x40,%rsp
  4064bc:	64 48 8b 04 25 28 00 	mov    %fs:0x28,%rax
  4064c3:	00 00 
  4064c5:	48 89 45 e8          	mov    %rax,-0x18(%rbp)
  4064c9:	31 c0                	xor    %eax,%eax
  4064cb:	48 8d 45 b8          	lea    -0x48(%rbp),%rax
  4064cf:	48 8d 55 b4          	lea    -0x4c(%rbp),%rdx
  4064d3:	48 89 d6             	mov    %rdx,%rsi
  4064d6:	48 89 c7             	mov    %rax,%rdi
  4064d9:	e8 fa fc ff ff       	callq  4061d8 <_ZN2cl7Context10getDefaultEPi>
  4064de:	8b 45 b4             	mov    -0x4c(%rbp),%eax
  4064e1:	85 c0                	test   %eax,%eax
  4064e3:	74 0b                	je     4064f0 <_ZN2cl12CommandQueue11makeDefaultEv+0x3f>
  4064e5:	8b 45 b4             	mov    -0x4c(%rbp),%eax
  4064e8:	89 05 a2 31 21 00    	mov    %eax,0x2131a2(%rip)        # 619690 <_ZN2cl12CommandQueue14default_error_E>
  4064ee:	eb 59                	jmp    406549 <_ZN2cl12CommandQueue11makeDefaultEv+0x98>
  4064f0:	48 8d 45 d0          	lea    -0x30(%rbp),%rax
  4064f4:	be 00 00 00 00       	mov    $0x0,%esi
  4064f9:	48 89 c7             	mov    %rax,%rdi
  4064fc:	e8 a0 ee ff ff       	callq  4053a1 <_ZN2cl6Device10getDefaultEPi>
  406501:	48 8d 55 d0          	lea    -0x30(%rbp),%rdx
  406505:	48 8d 75 b8          	lea    -0x48(%rbp),%rsi
  406509:	48 8d 45 c0          	lea    -0x40(%rbp),%rax
  40650d:	41 b8 90 96 61 00    	mov    $0x619690,%r8d
  406513:	b9 00 00 00 00       	mov    $0x0,%ecx
  406518:	48 89 c7             	mov    %rax,%rdi
  40651b:	e8 c8 00 00 00       	callq  4065e8 <_ZN2cl12CommandQueueC1ERKNS_7ContextERKNS_6DeviceEmPi>
  406520:	48 8d 45 c0          	lea    -0x40(%rbp),%rax
  406524:	48 89 c6             	mov    %rax,%rsi
  406527:	bf 88 96 61 00       	mov    $0x619688,%edi
  40652c:	e8 2d 02 00 00       	callq  40675e <_ZN2cl12CommandQueueaSEOS0_>
  406531:	48 8d 45 c0          	lea    -0x40(%rbp),%rax
  406535:	48 89 c7             	mov    %rax,%rdi
  406538:	e8 59 ff ff ff       	callq  406496 <_ZN2cl12CommandQueueD1Ev>
  40653d:	48 8d 45 d0          	lea    -0x30(%rbp),%rax
  406541:	48 89 c7             	mov    %rax,%rdi
  406544:	e8 3d ee ff ff       	callq  405386 <_ZN2cl6DeviceD1Ev>
  406549:	48 8d 45 b8          	lea    -0x48(%rbp),%rax
  40654d:	48 89 c7             	mov    %rax,%rdi
  406550:	e8 e9 f6 ff ff       	callq  405c3e <_ZN2cl7ContextD1Ev>
  406555:	eb 73                	jmp    4065ca <_ZN2cl12CommandQueue11makeDefaultEv+0x119>
  406557:	49 89 c4             	mov    %rax,%r12
  40655a:	48 89 d3             	mov    %rdx,%rbx
  40655d:	48 8d 45 c0          	lea    -0x40(%rbp),%rax
  406561:	48 89 c7             	mov    %rax,%rdi
  406564:	e8 2d ff ff ff       	callq  406496 <_ZN2cl12CommandQueueD1Ev>
  406569:	eb 06                	jmp    406571 <_ZN2cl12CommandQueue11makeDefaultEv+0xc0>
  40656b:	49 89 c4             	mov    %rax,%r12
  40656e:	48 89 d3             	mov    %rdx,%rbx
  406571:	48 8d 45 d0          	lea    -0x30(%rbp),%rax
  406575:	48 89 c7             	mov    %rax,%rdi
  406578:	e8 09 ee ff ff       	callq  405386 <_ZN2cl6DeviceD1Ev>
  40657d:	eb 06                	jmp    406585 <_ZN2cl12CommandQueue11makeDefaultEv+0xd4>
  40657f:	49 89 c4             	mov    %rax,%r12
  406582:	48 89 d3             	mov    %rdx,%rbx
  406585:	48 8d 45 b8          	lea    -0x48(%rbp),%rax
  406589:	48 89 c7             	mov    %rax,%rdi
  40658c:	e8 ad f6 ff ff       	callq  405c3e <_ZN2cl7ContextD1Ev>
  406591:	4c 89 e0             	mov    %r12,%rax
  406594:	48 89 da             	mov    %rbx,%rdx
  406597:	eb 00                	jmp    406599 <_ZN2cl12CommandQueue11makeDefaultEv+0xe8>
  406599:	48 83 fa 01          	cmp    $0x1,%rdx
  40659d:	74 08                	je     4065a7 <_ZN2cl12CommandQueue11makeDefaultEv+0xf6>
  40659f:	48 89 c7             	mov    %rax,%rdi
  4065a2:	e8 e9 db ff ff       	callq  404190 <_Unwind_Resume@plt>
  4065a7:	48 89 c7             	mov    %rax,%rdi
  4065aa:	e8 11 d8 ff ff       	callq  403dc0 <__cxa_begin_catch@plt>
  4065af:	48 89 45 c8          	mov    %rax,-0x38(%rbp)
  4065b3:	48 8b 45 c8          	mov    -0x38(%rbp),%rax
  4065b7:	48 89 c7             	mov    %rax,%rdi
  4065ba:	e8 a1 e9 ff ff       	callq  404f60 <_ZNK2cl5Error3errEv>
  4065bf:	89 05 cb 30 21 00    	mov    %eax,0x2130cb(%rip)        # 619690 <_ZN2cl12CommandQueue14default_error_E>
  4065c5:	e8 46 db ff ff       	callq  404110 <__cxa_end_catch@plt>
  4065ca:	90                   	nop
  4065cb:	48 8b 45 e8          	mov    -0x18(%rbp),%rax
  4065cf:	64 48 33 04 25 28 00 	xor    %fs:0x28,%rax
  4065d6:	00 00 
  4065d8:	74 05                	je     4065df <_ZN2cl12CommandQueue11makeDefaultEv+0x12e>
  4065da:	e8 51 d9 ff ff       	callq  403f30 <__stack_chk_fail@plt>
  4065df:	48 83 c4 40          	add    $0x40,%rsp
  4065e3:	5b                   	pop    %rbx
  4065e4:	41 5c                	pop    %r12
  4065e6:	5d                   	pop    %rbp
  4065e7:	c3                   	retq   

00000000004065e8 <_ZN2cl12CommandQueueC1ERKNS_7ContextERKNS_6DeviceEmPi>:
  4065e8:	55                   	push   %rbp
  4065e9:	48 89 e5             	mov    %rsp,%rbp
  4065ec:	53                   	push   %rbx
  4065ed:	48 83 ec 48          	sub    $0x48,%rsp
  4065f1:	48 89 7d d8          	mov    %rdi,-0x28(%rbp)
  4065f5:	48 89 75 d0          	mov    %rsi,-0x30(%rbp)
  4065f9:	48 89 55 c8          	mov    %rdx,-0x38(%rbp)
  4065fd:	48 89 4d c0          	mov    %rcx,-0x40(%rbp)
  406601:	4c 89 45 b8          	mov    %r8,-0x48(%rbp)
  406605:	64 48 8b 04 25 28 00 	mov    %fs:0x28,%rax
  40660c:	00 00 
  40660e:	48 89 45 e8          	mov    %rax,-0x18(%rbp)
  406612:	31 c0                	xor    %eax,%eax
  406614:	48 8b 45 d8          	mov    -0x28(%rbp),%rax
  406618:	48 89 c7             	mov    %rax,%rdi
  40661b:	e8 76 1f 00 00       	callq  408596 <_ZN2cl6detail7WrapperIP17_cl_command_queueEC1Ev>
  406620:	48 8b 45 c8          	mov    -0x38(%rbp),%rax
  406624:	48 89 c7             	mov    %rax,%rdi
  406627:	e8 88 ec ff ff       	callq  4052b4 <_ZNK2cl6detail7WrapperIP13_cl_device_idEclEv>
  40662c:	48 8b 18             	mov    (%rax),%rbx
  40662f:	48 8b 45 d0          	mov    -0x30(%rbp),%rax
  406633:	48 89 c7             	mov    %rax,%rdi
  406636:	e8 fd 1e 00 00       	callq  408538 <_ZNK2cl6detail7WrapperIP11_cl_contextEclEv>
  40663b:	48 8b 00             	mov    (%rax),%rax
  40663e:	48 8d 4d e4          	lea    -0x1c(%rbp),%rcx
  406642:	48 8b 55 c0          	mov    -0x40(%rbp),%rdx
  406646:	48 89 de             	mov    %rbx,%rsi
  406649:	48 89 c7             	mov    %rax,%rdi
  40664c:	e8 9f da ff ff       	callq  4040f0 <clCreateCommandQueue@plt>
  406651:	48 89 c2             	mov    %rax,%rdx
  406654:	48 8b 45 d8          	mov    -0x28(%rbp),%rax
  406658:	48 89 10             	mov    %rdx,(%rax)
  40665b:	8b 45 e4             	mov    -0x1c(%rbp),%eax
  40665e:	be 08 04 41 00       	mov    $0x410408,%esi
  406663:	89 c7                	mov    %eax,%edi
  406665:	e8 33 dd ff ff       	callq  40439d <_ZN2cl6detailL10errHandlerEiPKc>
  40666a:	48 83 7d b8 00       	cmpq   $0x0,-0x48(%rbp)
  40666f:	74 25                	je     406696 <_ZN2cl12CommandQueueC1ERKNS_7ContextERKNS_6DeviceEmPi+0xae>
  406671:	8b 55 e4             	mov    -0x1c(%rbp),%edx
  406674:	48 8b 45 b8          	mov    -0x48(%rbp),%rax
  406678:	89 10                	mov    %edx,(%rax)
  40667a:	eb 1a                	jmp    406696 <_ZN2cl12CommandQueueC1ERKNS_7ContextERKNS_6DeviceEmPi+0xae>
  40667c:	48 89 c3             	mov    %rax,%rbx
  40667f:	48 8b 45 d8          	mov    -0x28(%rbp),%rax
  406683:	48 89 c7             	mov    %rax,%rdi
  406686:	e8 e3 1e 00 00       	callq  40856e <_ZN2cl6detail7WrapperIP17_cl_command_queueED1Ev>
  40668b:	48 89 d8             	mov    %rbx,%rax
  40668e:	48 89 c7             	mov    %rax,%rdi
  406691:	e8 fa da ff ff       	callq  404190 <_Unwind_Resume@plt>
  406696:	90                   	nop
  406697:	48 8b 45 e8          	mov    -0x18(%rbp),%rax
  40669b:	64 48 33 04 25 28 00 	xor    %fs:0x28,%rax
  4066a2:	00 00 
  4066a4:	74 05                	je     4066ab <_ZN2cl12CommandQueueC1ERKNS_7ContextERKNS_6DeviceEmPi+0xc3>
  4066a6:	e8 85 d8 ff ff       	callq  403f30 <__stack_chk_fail@plt>
  4066ab:	48 83 c4 48          	add    $0x48,%rsp
  4066af:	5b                   	pop    %rbx
  4066b0:	5d                   	pop    %rbp
  4066b1:	c3                   	retq   

00000000004066b2 <_ZN2cl12CommandQueue10getDefaultEPi>:
  4066b2:	55                   	push   %rbp
  4066b3:	48 89 e5             	mov    %rsp,%rbp
  4066b6:	48 83 ec 10          	sub    $0x10,%rsp
  4066ba:	48 89 7d f8          	mov    %rdi,-0x8(%rbp)
  4066be:	48 89 75 f0          	mov    %rsi,-0x10(%rbp)
  4066c2:	be b1 64 40 00       	mov    $0x4064b1,%esi
  4066c7:	bf 84 96 61 00       	mov    $0x619684,%edi
  4066cc:	e8 44 14 00 00       	callq  407b15 <_ZSt9call_onceIRFvvEJEEvRSt9once_flagOT_DpOT0_>
  4066d1:	8b 05 b9 2f 21 00    	mov    0x212fb9(%rip),%eax        # 619690 <_ZN2cl12CommandQueue14default_error_E>
  4066d7:	be 08 04 41 00       	mov    $0x410408,%esi
  4066dc:	89 c7                	mov    %eax,%edi
  4066de:	e8 ba dc ff ff       	callq  40439d <_ZN2cl6detailL10errHandlerEiPKc>
  4066e3:	48 83 7d f0 00       	cmpq   $0x0,-0x10(%rbp)
  4066e8:	74 0c                	je     4066f6 <_ZN2cl12CommandQueue10getDefaultEPi+0x44>
  4066ea:	8b 15 a0 2f 21 00    	mov    0x212fa0(%rip),%edx        # 619690 <_ZN2cl12CommandQueue14default_error_E>
  4066f0:	48 8b 45 f0          	mov    -0x10(%rbp),%rax
  4066f4:	89 10                	mov    %edx,(%rax)
  4066f6:	48 8b 45 f8          	mov    -0x8(%rbp),%rax
  4066fa:	be 88 96 61 00       	mov    $0x619688,%esi
  4066ff:	48 89 c7             	mov    %rax,%rdi
  406702:	e8 23 00 00 00       	callq  40672a <_ZN2cl12CommandQueueC1ERKS0_>
  406707:	48 8b 45 f8          	mov    -0x8(%rbp),%rax
  40670b:	c9                   	leaveq 
  40670c:	c3                   	retq   
  40670d:	90                   	nop

000000000040670e <_ZN2cl12CommandQueueC1Ev>:
  40670e:	55                   	push   %rbp
  40670f:	48 89 e5             	mov    %rsp,%rbp
  406712:	48 83 ec 10          	sub    $0x10,%rsp
  406716:	48 89 7d f8          	mov    %rdi,-0x8(%rbp)
  40671a:	48 8b 45 f8          	mov    -0x8(%rbp),%rax
  40671e:	48 89 c7             	mov    %rax,%rdi
  406721:	e8 70 1e 00 00       	callq  408596 <_ZN2cl6detail7WrapperIP17_cl_command_queueEC1Ev>
  406726:	90                   	nop
  406727:	c9                   	leaveq 
  406728:	c3                   	retq   
  406729:	90                   	nop

000000000040672a <_ZN2cl12CommandQueueC1ERKS0_>:
  40672a:	55                   	push   %rbp
  40672b:	48 89 e5             	mov    %rsp,%rbp
  40672e:	48 83 ec 10          	sub    $0x10,%rsp
  406732:	48 89 7d f8          	mov    %rdi,-0x8(%rbp)
  406736:	48 89 75 f0          	mov    %rsi,-0x10(%rbp)
  40673a:	48 8b 55 f0          	mov    -0x10(%rbp),%rdx
  40673e:	48 8b 45 f8          	mov    -0x8(%rbp),%rax
  406742:	48 89 d6             	mov    %rdx,%rsi
  406745:	48 89 c7             	mov    %rax,%rdi
  406748:	e8 99 1e 00 00       	callq  4085e6 <_ZN2cl6detail7WrapperIP17_cl_command_queueEC1ERKS4_>
  40674d:	90                   	nop
  40674e:	c9                   	leaveq 
  40674f:	c3                   	retq   

0000000000406750 <_ZSt4moveIRN2cl12CommandQueueEEONSt16remove_referenceIT_E4typeEOS4_>:
  406750:	55                   	push   %rbp
  406751:	48 89 e5             	mov    %rsp,%rbp
  406754:	48 89 7d f8          	mov    %rdi,-0x8(%rbp)
  406758:	48 8b 45 f8          	mov    -0x8(%rbp),%rax
  40675c:	5d                   	pop    %rbp
  40675d:	c3                   	retq   

000000000040675e <_ZN2cl12CommandQueueaSEOS0_>:
  40675e:	55                   	push   %rbp
  40675f:	48 89 e5             	mov    %rsp,%rbp
  406762:	48 83 ec 10          	sub    $0x10,%rsp
  406766:	48 89 7d f8          	mov    %rdi,-0x8(%rbp)
  40676a:	48 89 75 f0          	mov    %rsi,-0x10(%rbp)
  40676e:	48 8b 45 f0          	mov    -0x10(%rbp),%rax
  406772:	48 89 c7             	mov    %rax,%rdi
  406775:	e8 d6 ff ff ff       	callq  406750 <_ZSt4moveIRN2cl12CommandQueueEEONSt16remove_referenceIT_E4typeEOS4_>
  40677a:	48 89 c2             	mov    %rax,%rdx
  40677d:	48 8b 45 f8          	mov    -0x8(%rbp),%rax
  406781:	48 89 d6             	mov    %rdx,%rsi
  406784:	48 89 c7             	mov    %rax,%rdi
  406787:	e8 94 1e 00 00       	callq  408620 <_ZN2cl6detail7WrapperIP17_cl_command_queueEaSEOS4_>
  40678c:	48 8b 45 f8          	mov    -0x8(%rbp),%rax
  406790:	c9                   	leaveq 
  406791:	c3                   	retq   

0000000000406792 <_ZNK2cl12CommandQueue6finishEv>:
  406792:	55                   	push   %rbp
  406793:	48 89 e5             	mov    %rsp,%rbp
  406796:	48 83 ec 10          	sub    $0x10,%rsp
  40679a:	48 89 7d f8          	mov    %rdi,-0x8(%rbp)
  40679e:	48 8b 45 f8          	mov    -0x8(%rbp),%rax
  4067a2:	48 8b 00             	mov    (%rax),%rax
  4067a5:	48 89 c7             	mov    %rax,%rdi
  4067a8:	e8 b3 d5 ff ff       	callq  403d60 <clFinish@plt>
  4067ad:	be 1d 04 41 00       	mov    $0x41041d,%esi
  4067b2:	89 c7                	mov    %eax,%edi
  4067b4:	e8 e4 db ff ff       	callq  40439d <_ZN2cl6detailL10errHandlerEiPKc>
  4067b9:	c9                   	leaveq 
  4067ba:	c3                   	retq   

00000000004067bb <_ZSt4moveIRNSt7__cxx1112basic_stringIcSt11char_traitsIcESaIcEEEEONSt16remove_referenceIT_E4typeEOS8_>:
  4067bb:	55                   	push   %rbp
  4067bc:	48 89 e5             	mov    %rsp,%rbp
  4067bf:	48 89 7d f8          	mov    %rdi,-0x8(%rbp)
  4067c3:	48 8b 45 f8          	mov    -0x8(%rbp),%rax
  4067c7:	5d                   	pop    %rbp
  4067c8:	c3                   	retq   
  4067c9:	90                   	nop

00000000004067ca <_ZN11arm_compute15CLKernelLibrary4initENSt7__cxx1112basic_stringIcSt11char_traitsIcESaIcEEEN2cl7ContextENS7_6DeviceE>:
  4067ca:	55                   	push   %rbp
  4067cb:	48 89 e5             	mov    %rsp,%rbp
  4067ce:	48 83 ec 20          	sub    $0x20,%rsp
  4067d2:	48 89 7d f8          	mov    %rdi,-0x8(%rbp)
  4067d6:	48 89 75 f0          	mov    %rsi,-0x10(%rbp)
  4067da:	48 89 55 e8          	mov    %rdx,-0x18(%rbp)
  4067de:	48 89 4d e0          	mov    %rcx,-0x20(%rbp)
  4067e2:	48 8b 45 f0          	mov    -0x10(%rbp),%rax
  4067e6:	48 89 c7             	mov    %rax,%rdi
  4067e9:	e8 cd ff ff ff       	callq  4067bb <_ZSt4moveIRNSt7__cxx1112basic_stringIcSt11char_traitsIcESaIcEEEEONSt16remove_referenceIT_E4typeEOS8_>
  4067ee:	48 89 c2             	mov    %rax,%rdx
  4067f1:	48 8b 45 f8          	mov    -0x8(%rbp),%rax
  4067f5:	48 83 c0 18          	add    $0x18,%rax
  4067f9:	48 89 d6             	mov    %rdx,%rsi
  4067fc:	48 89 c7             	mov    %rax,%rdi
  4067ff:	e8 8c d7 ff ff       	callq  403f90 <_ZNSt7__cxx1112basic_stringIcSt11char_traitsIcESaIcEEaSEOS4_@plt>
  406804:	48 8b 45 e8          	mov    -0x18(%rbp),%rax
  406808:	48 89 c7             	mov    %rax,%rdi
  40680b:	e8 85 f9 ff ff       	callq  406195 <_ZSt4moveIRN2cl7ContextEEONSt16remove_referenceIT_E4typeEOS4_>
  406810:	48 89 c2             	mov    %rax,%rdx
  406813:	48 8b 45 f8          	mov    -0x8(%rbp),%rax
  406817:	48 89 d6             	mov    %rdx,%rsi
  40681a:	48 89 c7             	mov    %rax,%rdi
  40681d:	e8 82 f9 ff ff       	callq  4061a4 <_ZN2cl7ContextaSEOS0_>
  406822:	48 8b 45 e0          	mov    -0x20(%rbp),%rax
  406826:	48 89 c7             	mov    %rax,%rdi
  406829:	e8 1d ec ff ff       	callq  40544b <_ZSt4moveIRN2cl6DeviceEEONSt16remove_referenceIT_E4typeEOS4_>
  40682e:	48 89 c2             	mov    %rax,%rdx
  406831:	48 8b 45 f8          	mov    -0x8(%rbp),%rax
  406835:	48 83 c0 08          	add    $0x8,%rax
  406839:	48 89 d6             	mov    %rdx,%rsi
  40683c:	48 89 c7             	mov    %rax,%rdi
  40683f:	e8 48 ec ff ff       	callq  40548c <_ZN2cl6DeviceaSEOS0_>
  406844:	90                   	nop
  406845:	c9                   	leaveq 
  406846:	c3                   	retq   
  406847:	90                   	nop

0000000000406848 <_ZN11arm_compute15CLKernelLibrary15set_kernel_pathERKNSt7__cxx1112basic_stringIcSt11char_traitsIcESaIcEEE>:
  406848:	55                   	push   %rbp
  406849:	48 89 e5             	mov    %rsp,%rbp
  40684c:	48 83 ec 10          	sub    $0x10,%rsp
  406850:	48 89 7d f8          	mov    %rdi,-0x8(%rbp)
  406854:	48 89 75 f0          	mov    %rsi,-0x10(%rbp)
  406858:	48 8b 45 f8          	mov    -0x8(%rbp),%rax
  40685c:	48 8d 50 18          	lea    0x18(%rax),%rdx
  406860:	48 8b 45 f0          	mov    -0x10(%rbp),%rax
  406864:	48 89 c6             	mov    %rax,%rsi
  406867:	48 89 d7             	mov    %rdx,%rdi
  40686a:	e8 71 d4 ff ff       	callq  403ce0 <_ZNSt7__cxx1112basic_stringIcSt11char_traitsIcESaIcEEaSERKS4_@plt>
  40686f:	90                   	nop
  406870:	c9                   	leaveq 
  406871:	c3                   	retq   

0000000000406872 <_ZN11arm_compute11TensorShape3setEmm>:
  406872:	55                   	push   %rbp
  406873:	48 89 e5             	mov    %rsp,%rbp
  406876:	53                   	push   %rbx
  406877:	48 83 ec 38          	sub    $0x38,%rsp
  40687b:	48 89 7d d8          	mov    %rdi,-0x28(%rbp)
  40687f:	48 89 75 d0          	mov    %rsi,-0x30(%rbp)
  406883:	48 89 55 c8          	mov    %rdx,-0x38(%rbp)
  406887:	64 48 8b 04 25 28 00 	mov    %fs:0x28,%rax
  40688e:	00 00 
  406890:	48 89 45 e8          	mov    %rax,-0x18(%rbp)
  406894:	31 c0                	xor    %eax,%eax
  406896:	48 83 7d c8 00       	cmpq   $0x0,-0x38(%rbp)
  40689b:	75 45                	jne    4068e2 <_ZN11arm_compute11TensorShape3setEmm+0x70>
  40689d:	48 8b 45 d8          	mov    -0x28(%rbp),%rax
  4068a1:	48 c7 40 30 00 00 00 	movq   $0x0,0x30(%rax)
  4068a8:	00 
  4068a9:	c7 45 e4 00 00 00 00 	movl   $0x0,-0x1c(%rbp)
  4068b0:	48 8b 45 d8          	mov    -0x28(%rbp),%rax
  4068b4:	48 89 c7             	mov    %rax,%rdi
  4068b7:	e8 d0 1d 00 00       	callq  40868c <_ZNSt5arrayImLm6EE3endEv>
  4068bc:	48 89 c3             	mov    %rax,%rbx
  4068bf:	48 8b 45 d8          	mov    -0x28(%rbp),%rax
  4068c3:	48 89 c7             	mov    %rax,%rdi
  4068c6:	e8 a7 1d 00 00       	callq  408672 <_ZNSt5arrayImLm6EE5beginEv>
  4068cb:	48 89 c1             	mov    %rax,%rcx
  4068ce:	48 8d 45 e4          	lea    -0x1c(%rbp),%rax
  4068d2:	48 89 c2             	mov    %rax,%rdx
  4068d5:	48 89 de             	mov    %rbx,%rsi
  4068d8:	48 89 cf             	mov    %rcx,%rdi
  4068db:	e8 57 11 00 00       	callq  407a37 <_ZSt4fillIPmiEvT_S1_RKT0_>
  4068e0:	eb 6a                	jmp    40694c <_ZN11arm_compute11TensorShape3setEmm+0xda>
  4068e2:	c7 45 e4 01 00 00 00 	movl   $0x1,-0x1c(%rbp)
  4068e9:	48 8b 45 d8          	mov    -0x28(%rbp),%rax
  4068ed:	48 89 c7             	mov    %rax,%rdi
  4068f0:	e8 97 1d 00 00       	callq  40868c <_ZNSt5arrayImLm6EE3endEv>
  4068f5:	48 89 c3             	mov    %rax,%rbx
  4068f8:	48 8b 45 d8          	mov    -0x28(%rbp),%rax
  4068fc:	48 89 c7             	mov    %rax,%rdi
  4068ff:	e8 6e 1d 00 00       	callq  408672 <_ZNSt5arrayImLm6EE5beginEv>
  406904:	48 89 c2             	mov    %rax,%rdx
  406907:	48 8b 45 d8          	mov    -0x28(%rbp),%rax
  40690b:	48 8b 40 30          	mov    0x30(%rax),%rax
  40690f:	48 c1 e0 03          	shl    $0x3,%rax
  406913:	48 8d 0c 02          	lea    (%rdx,%rax,1),%rcx
  406917:	48 8d 45 e4          	lea    -0x1c(%rbp),%rax
  40691b:	48 89 c2             	mov    %rax,%rdx
  40691e:	48 89 de             	mov    %rbx,%rsi
  406921:	48 89 cf             	mov    %rcx,%rdi
  406924:	e8 0e 11 00 00       	callq  407a37 <_ZSt4fillIPmiEvT_S1_RKT0_>
  406929:	48 8b 45 d8          	mov    -0x28(%rbp),%rax
  40692d:	48 8b 55 c8          	mov    -0x38(%rbp),%rdx
  406931:	48 8b 4d d0          	mov    -0x30(%rbp),%rcx
  406935:	48 89 ce             	mov    %rcx,%rsi
  406938:	48 89 c7             	mov    %rax,%rdi
  40693b:	e8 6a 1d 00 00       	callq  4086aa <_ZN11arm_compute10DimensionsImE3setEmm>
  406940:	48 8b 45 d8          	mov    -0x28(%rbp),%rax
  406944:	48 89 c7             	mov    %rax,%rdi
  406947:	e8 1c 00 00 00       	callq  406968 <_ZN11arm_compute11TensorShape26apply_dimension_correctionEv>
  40694c:	48 8b 45 e8          	mov    -0x18(%rbp),%rax
  406950:	64 48 33 04 25 28 00 	xor    %fs:0x28,%rax
  406957:	00 00 
  406959:	74 05                	je     406960 <_ZN11arm_compute11TensorShape3setEmm+0xee>
  40695b:	e8 d0 d5 ff ff       	callq  403f30 <__stack_chk_fail@plt>
  406960:	48 83 c4 38          	add    $0x38,%rsp
  406964:	5b                   	pop    %rbx
  406965:	5d                   	pop    %rbp
  406966:	c3                   	retq   
  406967:	90                   	nop

0000000000406968 <_ZN11arm_compute11TensorShape26apply_dimension_correctionEv>:
  406968:	55                   	push   %rbp
  406969:	48 89 e5             	mov    %rsp,%rbp
  40696c:	48 83 ec 20          	sub    $0x20,%rsp
  406970:	48 89 7d e8          	mov    %rdi,-0x18(%rbp)
  406974:	48 8b 45 e8          	mov    -0x18(%rbp),%rax
  406978:	48 8b 40 30          	mov    0x30(%rax),%rax
  40697c:	83 e8 01             	sub    $0x1,%eax
  40697f:	89 45 fc             	mov    %eax,-0x4(%rbp)
  406982:	83 7d fc 00          	cmpl   $0x0,-0x4(%rbp)
  406986:	7e 3e                	jle    4069c6 <_ZN11arm_compute11TensorShape26apply_dimension_correctionEv+0x5e>
  406988:	8b 45 fc             	mov    -0x4(%rbp),%eax
  40698b:	48 63 d0             	movslq %eax,%rdx
  40698e:	48 8b 45 e8          	mov    -0x18(%rbp),%rax
  406992:	48 89 d6             	mov    %rdx,%rsi
  406995:	48 89 c7             	mov    %rax,%rdi
  406998:	e8 b3 1d 00 00       	callq  408750 <_ZNSt5arrayImLm6EEixEm>
  40699d:	48 8b 00             	mov    (%rax),%rax
  4069a0:	48 83 f8 01          	cmp    $0x1,%rax
  4069a4:	0f 94 c0             	sete   %al
  4069a7:	84 c0                	test   %al,%al
  4069a9:	74 1a                	je     4069c5 <_ZN11arm_compute11TensorShape26apply_dimension_correctionEv+0x5d>
  4069ab:	48 8b 45 e8          	mov    -0x18(%rbp),%rax
  4069af:	48 8b 40 30          	mov    0x30(%rax),%rax
  4069b3:	48 8d 50 ff          	lea    -0x1(%rax),%rdx
  4069b7:	48 8b 45 e8          	mov    -0x18(%rbp),%rax
  4069bb:	48 89 50 30          	mov    %rdx,0x30(%rax)
  4069bf:	83 6d fc 01          	subl   $0x1,-0x4(%rbp)
  4069c3:	eb bd                	jmp    406982 <_ZN11arm_compute11TensorShape26apply_dimension_correctionEv+0x1a>
  4069c5:	90                   	nop
  4069c6:	90                   	nop
  4069c7:	c9                   	leaveq 
  4069c8:	c3                   	retq   
  4069c9:	90                   	nop

00000000004069ca <_ZN11arm_compute11CoordinatesC1IJEEEDpT_>:
  4069ca:	55                   	push   %rbp
  4069cb:	48 89 e5             	mov    %rsp,%rbp
  4069ce:	48 83 ec 10          	sub    $0x10,%rsp
  4069d2:	48 89 7d f8          	mov    %rdi,-0x8(%rbp)
  4069d6:	48 8b 45 f8          	mov    -0x8(%rbp),%rax
  4069da:	48 89 c7             	mov    %rax,%rdi
  4069dd:	e8 94 1d 00 00       	callq  408776 <_ZN11arm_compute10DimensionsIiEC1IJEEEDpT_>
  4069e2:	90                   	nop
  4069e3:	c9                   	leaveq 
  4069e4:	c3                   	retq   
  4069e5:	90                   	nop

00000000004069e6 <_ZN11arm_compute6Window9DimensionC1Eiii>:
  4069e6:	55                   	push   %rbp
  4069e7:	48 89 e5             	mov    %rsp,%rbp
  4069ea:	48 89 7d f8          	mov    %rdi,-0x8(%rbp)
  4069ee:	89 75 f4             	mov    %esi,-0xc(%rbp)
  4069f1:	89 55 f0             	mov    %edx,-0x10(%rbp)
  4069f4:	89 4d ec             	mov    %ecx,-0x14(%rbp)
  4069f7:	48 8b 45 f8          	mov    -0x8(%rbp),%rax
  4069fb:	8b 55 f4             	mov    -0xc(%rbp),%edx
  4069fe:	89 10                	mov    %edx,(%rax)
  406a00:	48 8b 45 f8          	mov    -0x8(%rbp),%rax
  406a04:	8b 55 f0             	mov    -0x10(%rbp),%edx
  406a07:	89 50 04             	mov    %edx,0x4(%rax)
  406a0a:	48 8b 45 f8          	mov    -0x8(%rbp),%rax
  406a0e:	8b 55 ec             	mov    -0x14(%rbp),%edx
  406a11:	89 50 08             	mov    %edx,0x8(%rax)
  406a14:	90                   	nop
  406a15:	5d                   	pop    %rbp
  406a16:	c3                   	retq   
  406a17:	90                   	nop

0000000000406a18 <_ZNK11arm_compute6Window9Dimension5startEv>:
  406a18:	55                   	push   %rbp
  406a19:	48 89 e5             	mov    %rsp,%rbp
  406a1c:	48 89 7d f8          	mov    %rdi,-0x8(%rbp)
  406a20:	48 8b 45 f8          	mov    -0x8(%rbp),%rax
  406a24:	8b 00                	mov    (%rax),%eax
  406a26:	5d                   	pop    %rbp
  406a27:	c3                   	retq   

0000000000406a28 <_ZNK11arm_compute6Window9Dimension3endEv>:
  406a28:	55                   	push   %rbp
  406a29:	48 89 e5             	mov    %rsp,%rbp
  406a2c:	48 89 7d f8          	mov    %rdi,-0x8(%rbp)
  406a30:	48 8b 45 f8          	mov    -0x8(%rbp),%rax
  406a34:	8b 40 04             	mov    0x4(%rax),%eax
  406a37:	5d                   	pop    %rbp
  406a38:	c3                   	retq   
  406a39:	90                   	nop

0000000000406a3a <_ZNK11arm_compute6Window9Dimension4stepEv>:
  406a3a:	55                   	push   %rbp
  406a3b:	48 89 e5             	mov    %rsp,%rbp
  406a3e:	48 89 7d f8          	mov    %rdi,-0x8(%rbp)
  406a42:	48 8b 45 f8          	mov    -0x8(%rbp),%rax
  406a46:	8b 40 08             	mov    0x8(%rax),%eax
  406a49:	5d                   	pop    %rbp
  406a4a:	c3                   	retq   

0000000000406a4b <_ZNSt14__array_traitsIN11arm_compute6Window9DimensionELm6EE6_S_refERA6_KS2_m>:
  406a4b:	55                   	push   %rbp
  406a4c:	48 89 e5             	mov    %rsp,%rbp
  406a4f:	48 89 7d f8          	mov    %rdi,-0x8(%rbp)
  406a53:	48 89 75 f0          	mov    %rsi,-0x10(%rbp)
  406a57:	48 8b 55 f0          	mov    -0x10(%rbp),%rdx
  406a5b:	48 89 d0             	mov    %rdx,%rax
  406a5e:	48 01 c0             	add    %rax,%rax
  406a61:	48 01 d0             	add    %rdx,%rax
  406a64:	48 c1 e0 02          	shl    $0x2,%rax
  406a68:	48 8b 55 f8          	mov    -0x8(%rbp),%rdx
  406a6c:	48 01 d0             	add    %rdx,%rax
  406a6f:	5d                   	pop    %rbp
  406a70:	c3                   	retq   
  406a71:	90                   	nop

0000000000406a72 <_ZNKSt5arrayIN11arm_compute6Window9DimensionELm6EE2atEm>:
  406a72:	55                   	push   %rbp
  406a73:	48 89 e5             	mov    %rsp,%rbp
  406a76:	48 83 ec 10          	sub    $0x10,%rsp
  406a7a:	48 89 7d f8          	mov    %rdi,-0x8(%rbp)
  406a7e:	48 89 75 f0          	mov    %rsi,-0x10(%rbp)
  406a82:	48 83 7d f0 05       	cmpq   $0x5,-0x10(%rbp)
  406a87:	77 15                	ja     406a9e <_ZNKSt5arrayIN11arm_compute6Window9DimensionELm6EE2atEm+0x2c>
  406a89:	48 8b 45 f8          	mov    -0x8(%rbp),%rax
  406a8d:	48 8b 55 f0          	mov    -0x10(%rbp),%rdx
  406a91:	48 89 d6             	mov    %rdx,%rsi
  406a94:	48 89 c7             	mov    %rax,%rdi
  406a97:	e8 af ff ff ff       	callq  406a4b <_ZNSt14__array_traitsIN11arm_compute6Window9DimensionELm6EE6_S_refERA6_KS2_m>
  406a9c:	eb 1b                	jmp    406ab9 <_ZNKSt5arrayIN11arm_compute6Window9DimensionELm6EE2atEm+0x47>
  406a9e:	48 8b 45 f0          	mov    -0x10(%rbp),%rax
  406aa2:	ba 06 00 00 00       	mov    $0x6,%edx
  406aa7:	48 89 c6             	mov    %rax,%rsi
  406aaa:	bf 40 04 41 00       	mov    $0x410440,%edi
  406aaf:	b8 00 00 00 00       	mov    $0x0,%eax
  406ab4:	e8 d7 d5 ff ff       	callq  404090 <_ZSt24__throw_out_of_range_fmtPKcz@plt>
  406ab9:	c9                   	leaveq 
  406aba:	c3                   	retq   
  406abb:	90                   	nop

0000000000406abc <_ZNK11arm_compute6WindowixEm>:
  406abc:	55                   	push   %rbp
  406abd:	48 89 e5             	mov    %rsp,%rbp
  406ac0:	48 83 ec 10          	sub    $0x10,%rsp
  406ac4:	48 89 7d f8          	mov    %rdi,-0x8(%rbp)
  406ac8:	48 89 75 f0          	mov    %rsi,-0x10(%rbp)
  406acc:	48 8b 45 f8          	mov    -0x8(%rbp),%rax
  406ad0:	48 8b 55 f0          	mov    -0x10(%rbp),%rdx
  406ad4:	48 89 d6             	mov    %rdx,%rsi
  406ad7:	48 89 c7             	mov    %rax,%rdi
  406ada:	e8 93 ff ff ff       	callq  406a72 <_ZNKSt5arrayIN11arm_compute6Window9DimensionELm6EE2atEm>
  406adf:	c9                   	leaveq 
  406ae0:	c3                   	retq   
  406ae1:	90                   	nop

0000000000406ae2 <_ZN11arm_compute6Window3setEmRKNS0_9DimensionE>:
  406ae2:	55                   	push   %rbp
  406ae3:	48 89 e5             	mov    %rsp,%rbp
  406ae6:	48 83 ec 20          	sub    $0x20,%rsp
  406aea:	48 89 7d f8          	mov    %rdi,-0x8(%rbp)
  406aee:	48 89 75 f0          	mov    %rsi,-0x10(%rbp)
  406af2:	48 89 55 e8          	mov    %rdx,-0x18(%rbp)
  406af6:	48 8b 45 f8          	mov    -0x8(%rbp),%rax
  406afa:	48 8b 55 f0          	mov    -0x10(%rbp),%rdx
  406afe:	48 89 d6             	mov    %rdx,%rsi
  406b01:	48 89 c7             	mov    %rax,%rdi
  406b04:	e8 0f 1e 00 00       	callq  408918 <_ZNSt5arrayIN11arm_compute6Window9DimensionELm6EEixEm>
  406b09:	48 89 c2             	mov    %rax,%rdx
  406b0c:	48 8b 45 e8          	mov    -0x18(%rbp),%rax
  406b10:	48 8b 08             	mov    (%rax),%rcx
  406b13:	48 89 0a             	mov    %rcx,(%rdx)
  406b16:	8b 40 08             	mov    0x8(%rax),%eax
  406b19:	89 42 08             	mov    %eax,0x8(%rdx)
  406b1c:	90                   	nop
  406b1d:	c9                   	leaveq 
  406b1e:	c3                   	retq   
  406b1f:	90                   	nop

0000000000406b20 <_ZNK11arm_compute6Window8validateEv>:
  406b20:	55                   	push   %rbp
  406b21:	48 89 e5             	mov    %rsp,%rbp
  406b24:	48 89 7d e8          	mov    %rdi,-0x18(%rbp)
  406b28:	48 c7 45 f8 00 00 00 	movq   $0x0,-0x8(%rbp)
  406b2f:	00 
  406b30:	48 83 7d f8 05       	cmpq   $0x5,-0x8(%rbp)
  406b35:	77 07                	ja     406b3e <_ZNK11arm_compute6Window8validateEv+0x1e>
  406b37:	48 83 45 f8 01       	addq   $0x1,-0x8(%rbp)
  406b3c:	eb f2                	jmp    406b30 <_ZNK11arm_compute6Window8validateEv+0x10>
  406b3e:	90                   	nop
  406b3f:	5d                   	pop    %rbp
  406b40:	c3                   	retq   
  406b41:	90                   	nop

0000000000406b42 <_ZN11arm_compute6Window21use_tensor_dimensionsERKNS_11TensorShapeEm>:
  406b42:	55                   	push   %rbp
  406b43:	48 89 e5             	mov    %rsp,%rbp
  406b46:	48 83 ec 50          	sub    $0x50,%rsp
  406b4a:	48 89 7d c8          	mov    %rdi,-0x38(%rbp)
  406b4e:	48 89 75 c0          	mov    %rsi,-0x40(%rbp)
  406b52:	48 89 55 b8          	mov    %rdx,-0x48(%rbp)
  406b56:	64 48 8b 04 25 28 00 	mov    %fs:0x28,%rax
  406b5d:	00 00 
  406b5f:	48 89 45 f8          	mov    %rax,-0x8(%rbp)
  406b63:	31 c0                	xor    %eax,%eax
  406b65:	48 8b 45 b8          	mov    -0x48(%rbp),%rax
  406b69:	89 45 dc             	mov    %eax,-0x24(%rbp)
  406b6c:	48 8b 45 c0          	mov    -0x40(%rbp),%rax
  406b70:	48 89 c7             	mov    %rax,%rdi
  406b73:	e8 d4 1c 00 00       	callq  40884c <_ZNK11arm_compute10DimensionsImE14num_dimensionsEv>
  406b78:	3b 45 dc             	cmp    -0x24(%rbp),%eax
  406b7b:	0f 97 c0             	seta   %al
  406b7e:	84 c0                	test   %al,%al
  406b80:	74 63                	je     406be5 <_ZN11arm_compute6Window21use_tensor_dimensionsERKNS_11TensorShapeEm+0xa3>
  406b82:	48 c7 45 e0 01 00 00 	movq   $0x1,-0x20(%rbp)
  406b89:	00 
  406b8a:	8b 55 dc             	mov    -0x24(%rbp),%edx
  406b8d:	48 8b 45 c0          	mov    -0x40(%rbp),%rax
  406b91:	48 89 d6             	mov    %rdx,%rsi
  406b94:	48 89 c7             	mov    %rax,%rdi
  406b97:	e8 56 1d 00 00       	callq  4088f2 <_ZNK11arm_compute10DimensionsImEixEm>
  406b9c:	48 89 c2             	mov    %rax,%rdx
  406b9f:	48 8d 45 e0          	lea    -0x20(%rbp),%rax
  406ba3:	48 89 c6             	mov    %rax,%rsi
  406ba6:	48 89 d7             	mov    %rdx,%rdi
  406ba9:	e8 8f 1d 00 00       	callq  40893d <_ZSt3maxImERKT_S2_S2_>
  406bae:	48 8b 00             	mov    (%rax),%rax
  406bb1:	89 c2                	mov    %eax,%edx
  406bb3:	48 8d 45 ec          	lea    -0x14(%rbp),%rax
  406bb7:	b9 01 00 00 00       	mov    $0x1,%ecx
  406bbc:	be 00 00 00 00       	mov    $0x0,%esi
  406bc1:	48 89 c7             	mov    %rax,%rdi
  406bc4:	e8 1d fe ff ff       	callq  4069e6 <_ZN11arm_compute6Window9DimensionC1Eiii>
  406bc9:	8b 4d dc             	mov    -0x24(%rbp),%ecx
  406bcc:	48 8d 55 ec          	lea    -0x14(%rbp),%rdx
  406bd0:	48 8b 45 c8          	mov    -0x38(%rbp),%rax
  406bd4:	48 89 ce             	mov    %rcx,%rsi
  406bd7:	48 89 c7             	mov    %rax,%rdi
  406bda:	e8 03 ff ff ff       	callq  406ae2 <_ZN11arm_compute6Window3setEmRKNS0_9DimensionE>
  406bdf:	83 45 dc 01          	addl   $0x1,-0x24(%rbp)
  406be3:	eb 87                	jmp    406b6c <_ZN11arm_compute6Window21use_tensor_dimensionsERKNS_11TensorShapeEm+0x2a>
  406be5:	90                   	nop
  406be6:	48 8b 45 f8          	mov    -0x8(%rbp),%rax
  406bea:	64 48 33 04 25 28 00 	xor    %fs:0x28,%rax
  406bf1:	00 00 
  406bf3:	74 05                	je     406bfa <_ZN11arm_compute6Window21use_tensor_dimensionsERKNS_11TensorShapeEm+0xb8>
  406bf5:	e8 36 d3 ff ff       	callq  403f30 <__stack_chk_fail@plt>
  406bfa:	c9                   	leaveq 
  406bfb:	c3                   	retq   

0000000000406bfc <_ZNK11arm_compute10TensorInfo9dimensionEm>:
  406bfc:	55                   	push   %rbp
  406bfd:	48 89 e5             	mov    %rsp,%rbp
  406c00:	48 83 ec 10          	sub    $0x10,%rsp
  406c04:	48 89 7d f8          	mov    %rdi,-0x8(%rbp)
  406c08:	48 89 75 f0          	mov    %rsi,-0x10(%rbp)
  406c0c:	48 8b 45 f8          	mov    -0x8(%rbp),%rax
  406c10:	48 8d 50 60          	lea    0x60(%rax),%rdx
  406c14:	48 8b 45 f0          	mov    -0x10(%rbp),%rax
  406c18:	48 89 c6             	mov    %rax,%rsi
  406c1b:	48 89 d7             	mov    %rdx,%rdi
  406c1e:	e8 cf 1c 00 00       	callq  4088f2 <_ZNK11arm_compute10DimensionsImEixEm>
  406c23:	48 8b 00             	mov    (%rax),%rax
  406c26:	c9                   	leaveq 
  406c27:	c3                   	retq   

0000000000406c28 <_ZNK11arm_compute10TensorInfo14num_dimensionsEv>:
  406c28:	55                   	push   %rbp
  406c29:	48 89 e5             	mov    %rsp,%rbp
  406c2c:	48 83 ec 10          	sub    $0x10,%rsp
  406c30:	48 89 7d f8          	mov    %rdi,-0x8(%rbp)
  406c34:	48 8b 45 f8          	mov    -0x8(%rbp),%rax
  406c38:	48 83 c0 60          	add    $0x60,%rax
  406c3c:	48 89 c7             	mov    %rax,%rdi
  406c3f:	e8 08 1c 00 00       	callq  40884c <_ZNK11arm_compute10DimensionsImE14num_dimensionsEv>
  406c44:	89 c0                	mov    %eax,%eax
  406c46:	c9                   	leaveq 
  406c47:	c3                   	retq   

0000000000406c48 <_ZNSt5arrayIN11arm_compute8Iterator9DimensionELm6EEC1Ev>:
  406c48:	55                   	push   %rbp
  406c49:	48 89 e5             	mov    %rsp,%rbp
  406c4c:	48 89 7d f8          	mov    %rdi,-0x8(%rbp)
  406c50:	48 8b 45 f8          	mov    -0x8(%rbp),%rax
  406c54:	b9 30 00 00 00       	mov    $0x30,%ecx
  406c59:	be 00 00 00 00       	mov    $0x0,%esi
  406c5e:	48 89 30             	mov    %rsi,(%rax)
  406c61:	89 ca                	mov    %ecx,%edx
  406c63:	48 01 c2             	add    %rax,%rdx
  406c66:	48 83 c2 08          	add    $0x8,%rdx
  406c6a:	48 89 72 f0          	mov    %rsi,-0x10(%rdx)
  406c6e:	48 8d 50 08          	lea    0x8(%rax),%rdx
  406c72:	48 83 e2 f8          	and    $0xfffffffffffffff8,%rdx
  406c76:	48 29 d0             	sub    %rdx,%rax
  406c79:	01 c1                	add    %eax,%ecx
  406c7b:	83 e1 f8             	and    $0xfffffff8,%ecx
  406c7e:	89 c8                	mov    %ecx,%eax
  406c80:	c1 e8 03             	shr    $0x3,%eax
  406c83:	89 c1                	mov    %eax,%ecx
  406c85:	48 89 d7             	mov    %rdx,%rdi
  406c88:	48 89 f0             	mov    %rsi,%rax
  406c8b:	f3 48 ab             	rep stos %rax,%es:(%rdi)
  406c8e:	90                   	nop
  406c8f:	5d                   	pop    %rbp
  406c90:	c3                   	retq   
  406c91:	90                   	nop

0000000000406c92 <_ZN11arm_compute8IteratorC1Ev>:
  406c92:	55                   	push   %rbp
  406c93:	48 89 e5             	mov    %rsp,%rbp
  406c96:	48 83 ec 10          	sub    $0x10,%rsp
  406c9a:	48 89 7d f8          	mov    %rdi,-0x8(%rbp)
  406c9e:	48 8b 45 f8          	mov    -0x8(%rbp),%rax
  406ca2:	48 c7 00 00 00 00 00 	movq   $0x0,(%rax)
  406ca9:	48 8b 45 f8          	mov    -0x8(%rbp),%rax
  406cad:	48 8d 50 08          	lea    0x8(%rax),%rdx
  406cb1:	b8 00 00 00 00       	mov    $0x0,%eax
  406cb6:	b9 06 00 00 00       	mov    $0x6,%ecx
  406cbb:	48 89 d7             	mov    %rdx,%rdi
  406cbe:	f3 48 ab             	rep stos %rax,%es:(%rdi)
  406cc1:	48 8b 45 f8          	mov    -0x8(%rbp),%rax
  406cc5:	48 83 c0 08          	add    $0x8,%rax
  406cc9:	48 89 c7             	mov    %rax,%rdi
  406ccc:	e8 77 ff ff ff       	callq  406c48 <_ZNSt5arrayIN11arm_compute8Iterator9DimensionELm6EEC1Ev>
  406cd1:	90                   	nop
  406cd2:	c9                   	leaveq 
  406cd3:	c3                   	retq   

0000000000406cd4 <_ZNSt14__array_traitsIN11arm_compute8Iterator9DimensionELm6EE6_S_refERA6_KS2_m>:
  406cd4:	55                   	push   %rbp
  406cd5:	48 89 e5             	mov    %rsp,%rbp
  406cd8:	48 89 7d f8          	mov    %rdi,-0x8(%rbp)
  406cdc:	48 89 75 f0          	mov    %rsi,-0x10(%rbp)
  406ce0:	48 8b 45 f0          	mov    -0x10(%rbp),%rax
  406ce4:	48 8d 14 c5 00 00 00 	lea    0x0(,%rax,8),%rdx
  406ceb:	00 
  406cec:	48 8b 45 f8          	mov    -0x8(%rbp),%rax
  406cf0:	48 01 d0             	add    %rdx,%rax
  406cf3:	5d                   	pop    %rbp
  406cf4:	c3                   	retq   

0000000000406cf5 <_ZSt3getILm0EN11arm_compute8Iterator9DimensionELm6EERT0_RSt5arrayIS3_XT1_EE>:
  406cf5:	55                   	push   %rbp
  406cf6:	48 89 e5             	mov    %rsp,%rbp
  406cf9:	48 83 ec 10          	sub    $0x10,%rsp
  406cfd:	48 89 7d f8          	mov    %rdi,-0x8(%rbp)
  406d01:	48 8b 45 f8          	mov    -0x8(%rbp),%rax
  406d05:	be 00 00 00 00       	mov    $0x0,%esi
  406d0a:	48 89 c7             	mov    %rax,%rdi
  406d0d:	e8 c2 ff ff ff       	callq  406cd4 <_ZNSt14__array_traitsIN11arm_compute8Iterator9DimensionELm6EE6_S_refERA6_KS2_m>
  406d12:	c9                   	leaveq 
  406d13:	c3                   	retq   

0000000000406d14 <_ZN11arm_compute8IteratorC1EPKNS_7ITensorERKNS_6WindowE>:
  406d14:	55                   	push   %rbp
  406d15:	48 89 e5             	mov    %rsp,%rbp
  406d18:	41 54                	push   %r12
  406d1a:	53                   	push   %rbx
  406d1b:	48 83 ec 40          	sub    $0x40,%rsp
  406d1f:	48 89 7d c8          	mov    %rdi,-0x38(%rbp)
  406d23:	48 89 75 c0          	mov    %rsi,-0x40(%rbp)
  406d27:	48 89 55 b8          	mov    %rdx,-0x48(%rbp)
  406d2b:	48 8b 45 c8          	mov    -0x38(%rbp),%rax
  406d2f:	48 89 c7             	mov    %rax,%rdi
  406d32:	e8 5b ff ff ff       	callq  406c92 <_ZN11arm_compute8IteratorC1Ev>
  406d37:	48 8b 45 c0          	mov    -0x40(%rbp),%rax
  406d3b:	48 8b 00             	mov    (%rax),%rax
  406d3e:	48 8b 00             	mov    (%rax),%rax
  406d41:	48 8b 55 c0          	mov    -0x40(%rbp),%rdx
  406d45:	48 89 d7             	mov    %rdx,%rdi
  406d48:	ff d0                	callq  *%rax
  406d4a:	48 89 45 e0          	mov    %rax,-0x20(%rbp)
  406d4e:	48 8b 45 e0          	mov    -0x20(%rbp),%rax
  406d52:	48 8b 00             	mov    (%rax),%rax
  406d55:	48 83 c0 68          	add    $0x68,%rax
  406d59:	48 8b 00             	mov    (%rax),%rax
  406d5c:	48 8b 55 e0          	mov    -0x20(%rbp),%rdx
  406d60:	48 89 d7             	mov    %rdx,%rdi
  406d63:	ff d0                	callq  *%rax
  406d65:	48 89 45 e8          	mov    %rax,-0x18(%rbp)
  406d69:	48 8b 45 c0          	mov    -0x40(%rbp),%rax
  406d6d:	48 8b 00             	mov    (%rax),%rax
  406d70:	48 83 c0 20          	add    $0x20,%rax
  406d74:	48 8b 00             	mov    (%rax),%rax
  406d77:	48 8b 55 c0          	mov    -0x40(%rbp),%rdx
  406d7b:	48 89 d7             	mov    %rdx,%rdi
  406d7e:	ff d0                	callq  *%rax
  406d80:	48 89 c3             	mov    %rax,%rbx
  406d83:	48 8b 45 e0          	mov    -0x20(%rbp),%rax
  406d87:	48 8b 00             	mov    (%rax),%rax
  406d8a:	48 83 c0 70          	add    $0x70,%rax
  406d8e:	48 8b 00             	mov    (%rax),%rax
  406d91:	48 8b 55 e0          	mov    -0x20(%rbp),%rdx
  406d95:	48 89 d7             	mov    %rdx,%rdi
  406d98:	ff d0                	callq  *%rax
  406d9a:	48 8d 14 03          	lea    (%rbx,%rax,1),%rdx
  406d9e:	48 8b 45 c8          	mov    -0x38(%rbp),%rax
  406da2:	48 89 10             	mov    %rdx,(%rax)
  406da5:	c7 45 d8 00 00 00 00 	movl   $0x0,-0x28(%rbp)
  406dac:	8b 5d d8             	mov    -0x28(%rbp),%ebx
  406daf:	48 8b 45 e0          	mov    -0x20(%rbp),%rax
  406db3:	48 8b 00             	mov    (%rax),%rax
  406db6:	48 05 90 00 00 00    	add    $0x90,%rax
  406dbc:	48 8b 00             	mov    (%rax),%rax
  406dbf:	48 8b 55 e0          	mov    -0x20(%rbp),%rdx
  406dc3:	48 89 d7             	mov    %rdx,%rdi
  406dc6:	ff d0                	callq  *%rax
  406dc8:	48 39 c3             	cmp    %rax,%rbx
  406dcb:	0f 92 c0             	setb   %al
  406dce:	84 c0                	test   %al,%al
  406dd0:	0f 84 ac 00 00 00    	je     406e82 <_ZN11arm_compute8IteratorC1EPKNS_7ITensorERKNS_6WindowE+0x16e>
  406dd6:	8b 45 d8             	mov    -0x28(%rbp),%eax
  406dd9:	48 8b 55 c8          	mov    -0x38(%rbp),%rdx
  406ddd:	48 83 c2 08          	add    $0x8,%rdx
  406de1:	48 89 c6             	mov    %rax,%rsi
  406de4:	48 89 d7             	mov    %rdx,%rdi
  406de7:	e8 7c 1b 00 00       	callq  408968 <_ZNSt5arrayIN11arm_compute8Iterator9DimensionELm6EEixEm>
  406dec:	48 89 c3             	mov    %rax,%rbx
  406def:	8b 55 d8             	mov    -0x28(%rbp),%edx
  406df2:	48 8b 45 b8          	mov    -0x48(%rbp),%rax
  406df6:	48 89 d6             	mov    %rdx,%rsi
  406df9:	48 89 c7             	mov    %rax,%rdi
  406dfc:	e8 bb fc ff ff       	callq  406abc <_ZNK11arm_compute6WindowixEm>
  406e01:	48 89 c7             	mov    %rax,%rdi
  406e04:	e8 31 fc ff ff       	callq  406a3a <_ZNK11arm_compute6Window9Dimension4stepEv>
  406e09:	48 98                	cltq   
  406e0b:	41 89 c4             	mov    %eax,%r12d
  406e0e:	8b 55 d8             	mov    -0x28(%rbp),%edx
  406e11:	48 8b 45 e8          	mov    -0x18(%rbp),%rax
  406e15:	48 89 d6             	mov    %rdx,%rsi
  406e18:	48 89 c7             	mov    %rax,%rdi
  406e1b:	e8 d2 1a 00 00       	callq  4088f2 <_ZNK11arm_compute10DimensionsImEixEm>
  406e20:	48 8b 00             	mov    (%rax),%rax
  406e23:	41 0f af c4          	imul   %r12d,%eax
  406e27:	89 43 04             	mov    %eax,0x4(%rbx)
  406e2a:	8b 55 d8             	mov    -0x28(%rbp),%edx
  406e2d:	48 8b 45 e8          	mov    -0x18(%rbp),%rax
  406e31:	48 89 d6             	mov    %rdx,%rsi
  406e34:	48 89 c7             	mov    %rax,%rdi
  406e37:	e8 b6 1a 00 00       	callq  4088f2 <_ZNK11arm_compute10DimensionsImEixEm>
  406e3c:	48 8b 18             	mov    (%rax),%rbx
  406e3f:	8b 55 d8             	mov    -0x28(%rbp),%edx
  406e42:	48 8b 45 b8          	mov    -0x48(%rbp),%rax
  406e46:	48 89 d6             	mov    %rdx,%rsi
  406e49:	48 89 c7             	mov    %rax,%rdi
  406e4c:	e8 6b fc ff ff       	callq  406abc <_ZNK11arm_compute6WindowixEm>
  406e51:	48 89 c7             	mov    %rax,%rdi
  406e54:	e8 bf fb ff ff       	callq  406a18 <_ZNK11arm_compute6Window9Dimension5startEv>
  406e59:	48 98                	cltq   
  406e5b:	48 0f af d8          	imul   %rax,%rbx
  406e5f:	48 8b 45 c8          	mov    -0x38(%rbp),%rax
  406e63:	48 83 c0 08          	add    $0x8,%rax
  406e67:	48 89 c7             	mov    %rax,%rdi
  406e6a:	e8 86 fe ff ff       	callq  406cf5 <_ZSt3getILm0EN11arm_compute8Iterator9DimensionELm6EERT0_RSt5arrayIS3_XT1_EE>
  406e6f:	8b 10                	mov    (%rax),%edx
  406e71:	89 d1                	mov    %edx,%ecx
  406e73:	89 da                	mov    %ebx,%edx
  406e75:	01 ca                	add    %ecx,%edx
  406e77:	89 10                	mov    %edx,(%rax)
  406e79:	83 45 d8 01          	addl   $0x1,-0x28(%rbp)
  406e7d:	e9 2a ff ff ff       	jmpq   406dac <_ZN11arm_compute8IteratorC1EPKNS_7ITensorERKNS_6WindowE+0x98>
  406e82:	c7 45 dc 01 00 00 00 	movl   $0x1,-0x24(%rbp)
  406e89:	83 7d dc 05          	cmpl   $0x5,-0x24(%rbp)
  406e8d:	77 33                	ja     406ec2 <_ZN11arm_compute8IteratorC1EPKNS_7ITensorERKNS_6WindowE+0x1ae>
  406e8f:	8b 45 dc             	mov    -0x24(%rbp),%eax
  406e92:	48 8b 55 c8          	mov    -0x38(%rbp),%rdx
  406e96:	48 83 c2 08          	add    $0x8,%rdx
  406e9a:	48 89 c6             	mov    %rax,%rsi
  406e9d:	48 89 d7             	mov    %rdx,%rdi
  406ea0:	e8 c3 1a 00 00       	callq  408968 <_ZNSt5arrayIN11arm_compute8Iterator9DimensionELm6EEixEm>
  406ea5:	48 89 c3             	mov    %rax,%rbx
  406ea8:	48 8b 45 c8          	mov    -0x38(%rbp),%rax
  406eac:	48 83 c0 08          	add    $0x8,%rax
  406eb0:	48 89 c7             	mov    %rax,%rdi
  406eb3:	e8 3d fe ff ff       	callq  406cf5 <_ZSt3getILm0EN11arm_compute8Iterator9DimensionELm6EERT0_RSt5arrayIS3_XT1_EE>
  406eb8:	8b 00                	mov    (%rax),%eax
  406eba:	89 03                	mov    %eax,(%rbx)
  406ebc:	83 45 dc 01          	addl   $0x1,-0x24(%rbp)
  406ec0:	eb c7                	jmp    406e89 <_ZN11arm_compute8IteratorC1EPKNS_7ITensorERKNS_6WindowE+0x175>
  406ec2:	90                   	nop
  406ec3:	48 83 c4 40          	add    $0x40,%rsp
  406ec7:	5b                   	pop    %rbx
  406ec8:	41 5c                	pop    %r12
  406eca:	5d                   	pop    %rbp
  406ecb:	c3                   	retq   

0000000000406ecc <_ZN11arm_compute8Iterator9incrementEm>:
  406ecc:	55                   	push   %rbp
  406ecd:	48 89 e5             	mov    %rsp,%rbp
  406ed0:	53                   	push   %rbx
  406ed1:	48 83 ec 28          	sub    $0x28,%rsp
  406ed5:	48 89 7d d8          	mov    %rdi,-0x28(%rbp)
  406ed9:	48 89 75 d0          	mov    %rsi,-0x30(%rbp)
  406edd:	48 8b 45 d8          	mov    -0x28(%rbp),%rax
  406ee1:	48 8d 50 08          	lea    0x8(%rax),%rdx
  406ee5:	48 8b 45 d0          	mov    -0x30(%rbp),%rax
  406ee9:	48 89 c6             	mov    %rax,%rsi
  406eec:	48 89 d7             	mov    %rdx,%rdi
  406eef:	e8 74 1a 00 00       	callq  408968 <_ZNSt5arrayIN11arm_compute8Iterator9DimensionELm6EEixEm>
  406ef4:	8b 58 04             	mov    0x4(%rax),%ebx
  406ef7:	48 8b 45 d8          	mov    -0x28(%rbp),%rax
  406efb:	48 8d 50 08          	lea    0x8(%rax),%rdx
  406eff:	48 8b 45 d0          	mov    -0x30(%rbp),%rax
  406f03:	48 89 c6             	mov    %rax,%rsi
  406f06:	48 89 d7             	mov    %rdx,%rdi
  406f09:	e8 5a 1a 00 00       	callq  408968 <_ZNSt5arrayIN11arm_compute8Iterator9DimensionELm6EEixEm>
  406f0e:	8b 10                	mov    (%rax),%edx
  406f10:	01 da                	add    %ebx,%edx
  406f12:	89 10                	mov    %edx,(%rax)
  406f14:	c7 45 ec 00 00 00 00 	movl   $0x0,-0x14(%rbp)
  406f1b:	8b 45 ec             	mov    -0x14(%rbp),%eax
  406f1e:	48 3b 45 d0          	cmp    -0x30(%rbp),%rax
  406f22:	73 3a                	jae    406f5e <_ZN11arm_compute8Iterator9incrementEm+0x92>
  406f24:	8b 45 ec             	mov    -0x14(%rbp),%eax
  406f27:	48 8b 55 d8          	mov    -0x28(%rbp),%rdx
  406f2b:	48 83 c2 08          	add    $0x8,%rdx
  406f2f:	48 89 c6             	mov    %rax,%rsi
  406f32:	48 89 d7             	mov    %rdx,%rdi
  406f35:	e8 2e 1a 00 00       	callq  408968 <_ZNSt5arrayIN11arm_compute8Iterator9DimensionELm6EEixEm>
  406f3a:	48 89 c3             	mov    %rax,%rbx
  406f3d:	48 8b 45 d8          	mov    -0x28(%rbp),%rax
  406f41:	48 8d 50 08          	lea    0x8(%rax),%rdx
  406f45:	48 8b 45 d0          	mov    -0x30(%rbp),%rax
  406f49:	48 89 c6             	mov    %rax,%rsi
  406f4c:	48 89 d7             	mov    %rdx,%rdi
  406f4f:	e8 14 1a 00 00       	callq  408968 <_ZNSt5arrayIN11arm_compute8Iterator9DimensionELm6EEixEm>
  406f54:	8b 00                	mov    (%rax),%eax
  406f56:	89 03                	mov    %eax,(%rbx)
  406f58:	83 45 ec 01          	addl   $0x1,-0x14(%rbp)
  406f5c:	eb bd                	jmp    406f1b <_ZN11arm_compute8Iterator9incrementEm+0x4f>
  406f5e:	90                   	nop
  406f5f:	48 83 c4 28          	add    $0x28,%rsp
  406f63:	5b                   	pop    %rbx
  406f64:	5d                   	pop    %rbp
  406f65:	c3                   	retq   

0000000000406f66 <_ZNKSt5arrayIN11arm_compute8Iterator9DimensionELm6EE2atEm>:
  406f66:	55                   	push   %rbp
  406f67:	48 89 e5             	mov    %rsp,%rbp
  406f6a:	48 83 ec 10          	sub    $0x10,%rsp
  406f6e:	48 89 7d f8          	mov    %rdi,-0x8(%rbp)
  406f72:	48 89 75 f0          	mov    %rsi,-0x10(%rbp)
  406f76:	48 83 7d f0 05       	cmpq   $0x5,-0x10(%rbp)
  406f7b:	77 15                	ja     406f92 <_ZNKSt5arrayIN11arm_compute8Iterator9DimensionELm6EE2atEm+0x2c>
  406f7d:	48 8b 45 f8          	mov    -0x8(%rbp),%rax
  406f81:	48 8b 55 f0          	mov    -0x10(%rbp),%rdx
  406f85:	48 89 d6             	mov    %rdx,%rsi
  406f88:	48 89 c7             	mov    %rax,%rdi
  406f8b:	e8 44 fd ff ff       	callq  406cd4 <_ZNSt14__array_traitsIN11arm_compute8Iterator9DimensionELm6EE6_S_refERA6_KS2_m>
  406f90:	eb 1b                	jmp    406fad <_ZNKSt5arrayIN11arm_compute8Iterator9DimensionELm6EE2atEm+0x47>
  406f92:	48 8b 45 f0          	mov    -0x10(%rbp),%rax
  406f96:	ba 06 00 00 00       	mov    $0x6,%edx
  406f9b:	48 89 c6             	mov    %rax,%rsi
  406f9e:	bf 40 04 41 00       	mov    $0x410440,%edi
  406fa3:	b8 00 00 00 00       	mov    $0x0,%eax
  406fa8:	e8 e3 d0 ff ff       	callq  404090 <_ZSt24__throw_out_of_range_fmtPKcz@plt>
  406fad:	c9                   	leaveq 
  406fae:	c3                   	retq   
  406faf:	90                   	nop

0000000000406fb0 <_ZNK11arm_compute8Iterator3ptrEv>:
  406fb0:	55                   	push   %rbp
  406fb1:	48 89 e5             	mov    %rsp,%rbp
  406fb4:	53                   	push   %rbx
  406fb5:	48 83 ec 18          	sub    $0x18,%rsp
  406fb9:	48 89 7d e8          	mov    %rdi,-0x18(%rbp)
  406fbd:	48 8b 45 e8          	mov    -0x18(%rbp),%rax
  406fc1:	48 8b 18             	mov    (%rax),%rbx
  406fc4:	48 8b 45 e8          	mov    -0x18(%rbp),%rax
  406fc8:	48 83 c0 08          	add    $0x8,%rax
  406fcc:	be 00 00 00 00       	mov    $0x0,%esi
  406fd1:	48 89 c7             	mov    %rax,%rdi
  406fd4:	e8 8d ff ff ff       	callq  406f66 <_ZNKSt5arrayIN11arm_compute8Iterator9DimensionELm6EE2atEm>
  406fd9:	8b 00                	mov    (%rax),%eax
  406fdb:	48 98                	cltq   
  406fdd:	48 01 d8             	add    %rbx,%rax
  406fe0:	48 83 c4 18          	add    $0x18,%rsp
  406fe4:	5b                   	pop    %rbx
  406fe5:	5d                   	pop    %rbp
  406fe6:	c3                   	retq   
  406fe7:	90                   	nop

0000000000406fe8 <_ZN11arm_compute11CLScheduler12default_initEPNS_8ICLTunerE>:
  406fe8:	55                   	push   %rbp
  406fe9:	48 89 e5             	mov    %rsp,%rbp
  406fec:	53                   	push   %rbx
  406fed:	48 83 ec 68          	sub    $0x68,%rsp
  406ff1:	48 89 7d 98          	mov    %rdi,-0x68(%rbp)
  406ff5:	48 89 75 90          	mov    %rsi,-0x70(%rbp)
  406ff9:	64 48 8b 04 25 28 00 	mov    %fs:0x28,%rax
  407000:	00 00 
  407002:	48 89 45 e8          	mov    %rax,-0x18(%rbp)
  407006:	31 c0                	xor    %eax,%eax
  407008:	48 8b 45 98          	mov    -0x68(%rbp),%rax
  40700c:	0f b6 40 14          	movzbl 0x14(%rax),%eax
  407010:	83 f0 01             	xor    $0x1,%eax
  407013:	84 c0                	test   %al,%al
  407015:	0f 84 0a 01 00 00    	je     407125 <_ZN11arm_compute11CLScheduler12default_initEPNS_8ICLTunerE+0x13d>
  40701b:	48 8d 45 b0          	lea    -0x50(%rbp),%rax
  40701f:	be 00 00 00 00       	mov    $0x0,%esi
  407024:	48 89 c7             	mov    %rax,%rdi
  407027:	e8 75 e3 ff ff       	callq  4053a1 <_ZN2cl6Device10getDefaultEPi>
  40702c:	48 8d 45 a8          	lea    -0x58(%rbp),%rax
  407030:	be 00 00 00 00       	mov    $0x0,%esi
  407035:	48 89 c7             	mov    %rax,%rdi
  407038:	e8 9b f1 ff ff       	callq  4061d8 <_ZN2cl7Context10getDefaultEPi>
  40703d:	48 8d 45 a0          	lea    -0x60(%rbp),%rax
  407041:	48 89 c7             	mov    %rax,%rdi
  407044:	e8 57 d1 ff ff       	callq  4041a0 <_ZNSaIcEC1Ev@plt>
  407049:	48 8d 55 a0          	lea    -0x60(%rbp),%rdx
  40704d:	48 8d 45 c0          	lea    -0x40(%rbp),%rax
  407051:	be 78 04 41 00       	mov    $0x410478,%esi
  407056:	48 89 c7             	mov    %rax,%rdi
  407059:	e8 e2 cf ff ff       	callq  404040 <_ZNSt7__cxx1112basic_stringIcSt11char_traitsIcESaIcEEC1EPKcRKS3_@plt>
  40705e:	e8 0d ce ff ff       	callq  403e70 <_ZN11arm_compute15CLKernelLibrary3getEv@plt>
  407063:	48 89 c7             	mov    %rax,%rdi
  407066:	48 8d 4d b0          	lea    -0x50(%rbp),%rcx
  40706a:	48 8d 55 a8          	lea    -0x58(%rbp),%rdx
  40706e:	48 8d 45 c0          	lea    -0x40(%rbp),%rax
  407072:	48 89 c6             	mov    %rax,%rsi
  407075:	e8 50 f7 ff ff       	callq  4067ca <_ZN11arm_compute15CLKernelLibrary4initENSt7__cxx1112basic_stringIcSt11char_traitsIcESaIcEEEN2cl7ContextENS7_6DeviceE>
  40707a:	48 8d 45 c0          	lea    -0x40(%rbp),%rax
  40707e:	48 89 c7             	mov    %rax,%rdi
  407081:	e8 0a ce ff ff       	callq  403e90 <_ZNSt7__cxx1112basic_stringIcSt11char_traitsIcESaIcEED1Ev@plt>
  407086:	48 8d 45 a0          	lea    -0x60(%rbp),%rax
  40708a:	48 89 c7             	mov    %rax,%rdi
  40708d:	e8 7e ce ff ff       	callq  403f10 <_ZNSaIcED1Ev@plt>
  407092:	48 8d 45 a8          	lea    -0x58(%rbp),%rax
  407096:	48 89 c7             	mov    %rax,%rdi
  407099:	e8 a0 eb ff ff       	callq  405c3e <_ZN2cl7ContextD1Ev>
  40709e:	48 8d 45 b0          	lea    -0x50(%rbp),%rax
  4070a2:	48 89 c7             	mov    %rax,%rdi
  4070a5:	e8 dc e2 ff ff       	callq  405386 <_ZN2cl6DeviceD1Ev>
  4070aa:	48 8d 45 b0          	lea    -0x50(%rbp),%rax
  4070ae:	be 00 00 00 00       	mov    $0x0,%esi
  4070b3:	48 89 c7             	mov    %rax,%rdi
  4070b6:	e8 e6 e2 ff ff       	callq  4053a1 <_ZN2cl6Device10getDefaultEPi>
  4070bb:	48 8d 45 a8          	lea    -0x58(%rbp),%rax
  4070bf:	be 00 00 00 00       	mov    $0x0,%esi
  4070c4:	48 89 c7             	mov    %rax,%rdi
  4070c7:	e8 e6 f5 ff ff       	callq  4066b2 <_ZN2cl12CommandQueue10getDefaultEPi>
  4070cc:	48 8d 45 a0          	lea    -0x60(%rbp),%rax
  4070d0:	be 00 00 00 00       	mov    $0x0,%esi
  4070d5:	48 89 c7             	mov    %rax,%rdi
  4070d8:	e8 fb f0 ff ff       	callq  4061d8 <_ZN2cl7Context10getDefaultEPi>
  4070dd:	48 8b 7d 90          	mov    -0x70(%rbp),%rdi
  4070e1:	48 8d 4d b0          	lea    -0x50(%rbp),%rcx
  4070e5:	48 8d 55 a8          	lea    -0x58(%rbp),%rdx
  4070e9:	48 8d 75 a0          	lea    -0x60(%rbp),%rsi
  4070ed:	48 8b 45 98          	mov    -0x68(%rbp),%rax
  4070f1:	49 89 f8             	mov    %rdi,%r8
  4070f4:	48 89 c7             	mov    %rax,%rdi
  4070f7:	e8 da 00 00 00       	callq  4071d6 <_ZN11arm_compute11CLScheduler4initEN2cl7ContextENS1_12CommandQueueENS1_6DeviceEPNS_8ICLTunerE>
  4070fc:	48 8d 45 a0          	lea    -0x60(%rbp),%rax
  407100:	48 89 c7             	mov    %rax,%rdi
  407103:	e8 36 eb ff ff       	callq  405c3e <_ZN2cl7ContextD1Ev>
  407108:	48 8d 45 a8          	lea    -0x58(%rbp),%rax
  40710c:	48 89 c7             	mov    %rax,%rdi
  40710f:	e8 82 f3 ff ff       	callq  406496 <_ZN2cl12CommandQueueD1Ev>
  407114:	48 8d 45 b0          	lea    -0x50(%rbp),%rax
  407118:	48 89 c7             	mov    %rax,%rdi
  40711b:	e8 66 e2 ff ff       	callq  405386 <_ZN2cl6DeviceD1Ev>
  407120:	e9 95 00 00 00       	jmpq   4071ba <_ZN11arm_compute11CLScheduler12default_initEPNS_8ICLTunerE+0x1d2>
  407125:	48 8b 45 98          	mov    -0x68(%rbp),%rax
  407129:	48 8b 55 90          	mov    -0x70(%rbp),%rdx
  40712d:	48 89 50 18          	mov    %rdx,0x18(%rax)
  407131:	e9 84 00 00 00       	jmpq   4071ba <_ZN11arm_compute11CLScheduler12default_initEPNS_8ICLTunerE+0x1d2>
  407136:	48 89 c3             	mov    %rax,%rbx
  407139:	48 8d 45 c0          	lea    -0x40(%rbp),%rax
  40713d:	48 89 c7             	mov    %rax,%rdi
  407140:	e8 4b cd ff ff       	callq  403e90 <_ZNSt7__cxx1112basic_stringIcSt11char_traitsIcESaIcEED1Ev@plt>
  407145:	eb 03                	jmp    40714a <_ZN11arm_compute11CLScheduler12default_initEPNS_8ICLTunerE+0x162>
  407147:	48 89 c3             	mov    %rax,%rbx
  40714a:	48 8d 45 a0          	lea    -0x60(%rbp),%rax
  40714e:	48 89 c7             	mov    %rax,%rdi
  407151:	e8 ba cd ff ff       	callq  403f10 <_ZNSaIcED1Ev@plt>
  407156:	48 8d 45 a8          	lea    -0x58(%rbp),%rax
  40715a:	48 89 c7             	mov    %rax,%rdi
  40715d:	e8 dc ea ff ff       	callq  405c3e <_ZN2cl7ContextD1Ev>
  407162:	eb 03                	jmp    407167 <_ZN11arm_compute11CLScheduler12default_initEPNS_8ICLTunerE+0x17f>
  407164:	48 89 c3             	mov    %rax,%rbx
  407167:	48 8d 45 b0          	lea    -0x50(%rbp),%rax
  40716b:	48 89 c7             	mov    %rax,%rdi
  40716e:	e8 13 e2 ff ff       	callq  405386 <_ZN2cl6DeviceD1Ev>
  407173:	48 89 d8             	mov    %rbx,%rax
  407176:	48 89 c7             	mov    %rax,%rdi
  407179:	e8 12 d0 ff ff       	callq  404190 <_Unwind_Resume@plt>
  40717e:	48 89 c3             	mov    %rax,%rbx
  407181:	48 8d 45 a0          	lea    -0x60(%rbp),%rax
  407185:	48 89 c7             	mov    %rax,%rdi
  407188:	e8 b1 ea ff ff       	callq  405c3e <_ZN2cl7ContextD1Ev>
  40718d:	eb 03                	jmp    407192 <_ZN11arm_compute11CLScheduler12default_initEPNS_8ICLTunerE+0x1aa>
  40718f:	48 89 c3             	mov    %rax,%rbx
  407192:	48 8d 45 a8          	lea    -0x58(%rbp),%rax
  407196:	48 89 c7             	mov    %rax,%rdi
  407199:	e8 f8 f2 ff ff       	callq  406496 <_ZN2cl12CommandQueueD1Ev>
  40719e:	eb 03                	jmp    4071a3 <_ZN11arm_compute11CLScheduler12default_initEPNS_8ICLTunerE+0x1bb>
  4071a0:	48 89 c3             	mov    %rax,%rbx
  4071a3:	48 8d 45 b0          	lea    -0x50(%rbp),%rax
  4071a7:	48 89 c7             	mov    %rax,%rdi
  4071aa:	e8 d7 e1 ff ff       	callq  405386 <_ZN2cl6DeviceD1Ev>
  4071af:	48 89 d8             	mov    %rbx,%rax
  4071b2:	48 89 c7             	mov    %rax,%rdi
  4071b5:	e8 d6 cf ff ff       	callq  404190 <_Unwind_Resume@plt>
  4071ba:	48 8b 45 e8          	mov    -0x18(%rbp),%rax
  4071be:	64 48 33 04 25 28 00 	xor    %fs:0x28,%rax
  4071c5:	00 00 
  4071c7:	74 05                	je     4071ce <_ZN11arm_compute11CLScheduler12default_initEPNS_8ICLTunerE+0x1e6>
  4071c9:	e8 62 cd ff ff       	callq  403f30 <__stack_chk_fail@plt>
  4071ce:	48 83 c4 68          	add    $0x68,%rsp
  4071d2:	5b                   	pop    %rbx
  4071d3:	5d                   	pop    %rbp
  4071d4:	c3                   	retq   
  4071d5:	90                   	nop

00000000004071d6 <_ZN11arm_compute11CLScheduler4initEN2cl7ContextENS1_12CommandQueueENS1_6DeviceEPNS_8ICLTunerE>:
  4071d6:	55                   	push   %rbp
  4071d7:	48 89 e5             	mov    %rsp,%rbp
  4071da:	48 83 ec 30          	sub    $0x30,%rsp
  4071de:	48 89 7d f8          	mov    %rdi,-0x8(%rbp)
  4071e2:	48 89 75 f0          	mov    %rsi,-0x10(%rbp)
  4071e6:	48 89 55 e8          	mov    %rdx,-0x18(%rbp)
  4071ea:	48 89 4d e0          	mov    %rcx,-0x20(%rbp)
  4071ee:	4c 89 45 d8          	mov    %r8,-0x28(%rbp)
  4071f2:	48 8b 45 f0          	mov    -0x10(%rbp),%rax
  4071f6:	48 89 c7             	mov    %rax,%rdi
  4071f9:	e8 97 ef ff ff       	callq  406195 <_ZSt4moveIRN2cl7ContextEEONSt16remove_referenceIT_E4typeEOS4_>
  4071fe:	48 89 c2             	mov    %rax,%rdx
  407201:	48 8b 45 f8          	mov    -0x8(%rbp),%rax
  407205:	48 89 d6             	mov    %rdx,%rsi
  407208:	48 89 c7             	mov    %rax,%rdi
  40720b:	e8 94 ef ff ff       	callq  4061a4 <_ZN2cl7ContextaSEOS0_>
  407210:	48 8b 45 e8          	mov    -0x18(%rbp),%rax
  407214:	48 89 c7             	mov    %rax,%rdi
  407217:	e8 34 f5 ff ff       	callq  406750 <_ZSt4moveIRN2cl12CommandQueueEEONSt16remove_referenceIT_E4typeEOS4_>
  40721c:	48 89 c2             	mov    %rax,%rdx
  40721f:	48 8b 45 f8          	mov    -0x8(%rbp),%rax
  407223:	48 83 c0 08          	add    $0x8,%rax
  407227:	48 89 d6             	mov    %rdx,%rsi
  40722a:	48 89 c7             	mov    %rax,%rdi
  40722d:	e8 2c f5 ff ff       	callq  40675e <_ZN2cl12CommandQueueaSEOS0_>
  407232:	48 8b 45 e0          	mov    -0x20(%rbp),%rax
  407236:	48 89 c7             	mov    %rax,%rdi
  407239:	e8 c2 cd ff ff       	callq  404000 <_ZN11arm_compute22get_target_from_deviceERN2cl6DeviceE@plt>
  40723e:	89 c2                	mov    %eax,%edx
  407240:	48 8b 45 f8          	mov    -0x8(%rbp),%rax
  407244:	89 50 10             	mov    %edx,0x10(%rax)
  407247:	48 8b 45 f8          	mov    -0x8(%rbp),%rax
  40724b:	c6 40 14 01          	movb   $0x1,0x14(%rax)
  40724f:	48 8b 45 f8          	mov    -0x8(%rbp),%rax
  407253:	48 8b 55 d8          	mov    -0x28(%rbp),%rdx
  407257:	48 89 50 18          	mov    %rdx,0x18(%rax)
  40725b:	90                   	nop
  40725c:	c9                   	leaveq 
  40725d:	c3                   	retq   

000000000040725e <_ZN11arm_compute11CLScheduler4syncEv>:
  40725e:	55                   	push   %rbp
  40725f:	48 89 e5             	mov    %rsp,%rbp
  407262:	48 83 ec 10          	sub    $0x10,%rsp
  407266:	48 89 7d f8          	mov    %rdi,-0x8(%rbp)
  40726a:	48 8b 45 f8          	mov    -0x8(%rbp),%rax
  40726e:	48 83 c0 08          	add    $0x8,%rax
  407272:	48 89 c7             	mov    %rax,%rdi
  407275:	e8 18 f5 ff ff       	callq  406792 <_ZNK2cl12CommandQueue6finishEv>
  40727a:	90                   	nop
  40727b:	c9                   	leaveq 
  40727c:	c3                   	retq   
  40727d:	90                   	nop

000000000040727e <_ZNK2CK5Shape10data_countEv>:
  40727e:	55                   	push   %rbp
  40727f:	48 89 e5             	mov    %rsp,%rbp
  407282:	48 89 7d f8          	mov    %rdi,-0x8(%rbp)
  407286:	48 8b 45 f8          	mov    -0x8(%rbp),%rax
  40728a:	8b 10                	mov    (%rax),%edx
  40728c:	48 8b 45 f8          	mov    -0x8(%rbp),%rax
  407290:	8b 40 04             	mov    0x4(%rax),%eax
  407293:	0f af d0             	imul   %eax,%edx
  407296:	48 8b 45 f8          	mov    -0x8(%rbp),%rax
  40729a:	8b 40 08             	mov    0x8(%rax),%eax
  40729d:	0f af d0             	imul   %eax,%edx
  4072a0:	48 8b 45 f8          	mov    -0x8(%rbp),%rax
  4072a4:	8b 40 0c             	mov    0xc(%rax),%eax
  4072a7:	0f af c2             	imul   %edx,%eax
  4072aa:	5d                   	pop    %rbp
  4072ab:	c3                   	retq   

00000000004072ac <_ZNK2CK5Shape14get_flat_indexEiiii>:
  4072ac:	55                   	push   %rbp
  4072ad:	48 89 e5             	mov    %rsp,%rbp
  4072b0:	48 83 ec 20          	sub    $0x20,%rsp
  4072b4:	48 89 7d f8          	mov    %rdi,-0x8(%rbp)
  4072b8:	89 75 f4             	mov    %esi,-0xc(%rbp)
  4072bb:	89 55 f0             	mov    %edx,-0x10(%rbp)
  4072be:	89 4d ec             	mov    %ecx,-0x14(%rbp)
  4072c1:	44 89 45 e8          	mov    %r8d,-0x18(%rbp)
  4072c5:	8b 7d e8             	mov    -0x18(%rbp),%edi
  4072c8:	8b 4d ec             	mov    -0x14(%rbp),%ecx
  4072cb:	8b 55 f0             	mov    -0x10(%rbp),%edx
  4072ce:	8b 75 f4             	mov    -0xc(%rbp),%esi
  4072d1:	48 8b 45 f8          	mov    -0x8(%rbp),%rax
  4072d5:	41 89 f8             	mov    %edi,%r8d
  4072d8:	48 89 c7             	mov    %rax,%rdi
  4072db:	e8 02 00 00 00       	callq  4072e2 <_ZNK2CK5Shape19get_flat_index_nchwEiiii>
  4072e0:	c9                   	leaveq 
  4072e1:	c3                   	retq   

00000000004072e2 <_ZNK2CK5Shape19get_flat_index_nchwEiiii>:
  4072e2:	55                   	push   %rbp
  4072e3:	48 89 e5             	mov    %rsp,%rbp
  4072e6:	48 89 7d f8          	mov    %rdi,-0x8(%rbp)
  4072ea:	89 75 f4             	mov    %esi,-0xc(%rbp)
  4072ed:	89 55 f0             	mov    %edx,-0x10(%rbp)
  4072f0:	89 4d ec             	mov    %ecx,-0x14(%rbp)
  4072f3:	44 89 45 e8          	mov    %r8d,-0x18(%rbp)
  4072f7:	48 8b 45 f8          	mov    -0x8(%rbp),%rax
  4072fb:	8b 40 04             	mov    0x4(%rax),%eax
  4072fe:	0f af 45 f4          	imul   -0xc(%rbp),%eax
  407302:	89 c2                	mov    %eax,%edx
  407304:	8b 45 f0             	mov    -0x10(%rbp),%eax
  407307:	01 c2                	add    %eax,%edx
  407309:	48 8b 45 f8          	mov    -0x8(%rbp),%rax
  40730d:	8b 40 08             	mov    0x8(%rax),%eax
  407310:	0f af d0             	imul   %eax,%edx
  407313:	8b 45 ec             	mov    -0x14(%rbp),%eax
  407316:	01 c2                	add    %eax,%edx
  407318:	48 8b 45 f8          	mov    -0x8(%rbp),%rax
  40731c:	8b 40 0c             	mov    0xc(%rax),%eax
  40731f:	0f af d0             	imul   %eax,%edx
  407322:	8b 45 e8             	mov    -0x18(%rbp),%eax
  407325:	01 d0                	add    %edx,%eax
  407327:	5d                   	pop    %rbp
  407328:	c3                   	retq   

0000000000407329 <_ZN2CK8getenv_iEPKci>:
  407329:	55                   	push   %rbp
  40732a:	48 89 e5             	mov    %rsp,%rbp
  40732d:	48 83 ec 10          	sub    $0x10,%rsp
  407331:	48 89 7d f8          	mov    %rdi,-0x8(%rbp)
  407335:	89 75 f4             	mov    %esi,-0xc(%rbp)
  407338:	48 8b 45 f8          	mov    -0x8(%rbp),%rax
  40733c:	48 89 c7             	mov    %rax,%rdi
  40733f:	e8 3c cc ff ff       	callq  403f80 <getenv@plt>
  407344:	48 85 c0             	test   %rax,%rax
  407347:	74 16                	je     40735f <_ZN2CK8getenv_iEPKci+0x36>
  407349:	48 8b 45 f8          	mov    -0x8(%rbp),%rax
  40734d:	48 89 c7             	mov    %rax,%rdi
  407350:	e8 2b cc ff ff       	callq  403f80 <getenv@plt>
  407355:	48 89 c7             	mov    %rax,%rdi
  407358:	e8 73 cd ff ff       	callq  4040d0 <atoi@plt>
  40735d:	eb 03                	jmp    407362 <_ZN2CK8getenv_iEPKci+0x39>
  40735f:	8b 45 f4             	mov    -0xc(%rbp),%eax
  407362:	c9                   	leaveq 
  407363:	c3                   	retq   

0000000000407364 <_ZN2CK13store_value_iEiPKci>:
  407364:	55                   	push   %rbp
  407365:	48 89 e5             	mov    %rsp,%rbp
  407368:	48 83 ec 20          	sub    $0x20,%rsp
  40736c:	89 7d ec             	mov    %edi,-0x14(%rbp)
  40736f:	48 89 75 e0          	mov    %rsi,-0x20(%rbp)
  407373:	89 55 e8             	mov    %edx,-0x18(%rbp)
  407376:	48 8b 45 e0          	mov    -0x20(%rbp),%rax
  40737a:	48 89 c7             	mov    %rax,%rdi
  40737d:	e8 5e ca ff ff       	callq  403de0 <strlen@plt>
  407382:	48 83 c0 06          	add    $0x6,%rax
  407386:	48 89 c7             	mov    %rax,%rdi
  407389:	e8 42 c9 ff ff       	callq  403cd0 <_Znam@plt>
  40738e:	48 89 45 f8          	mov    %rax,-0x8(%rbp)
  407392:	48 8b 55 e0          	mov    -0x20(%rbp),%rdx
  407396:	48 8b 45 f8          	mov    -0x8(%rbp),%rax
  40739a:	be 86 04 41 00       	mov    $0x410486,%esi
  40739f:	48 89 c7             	mov    %rax,%rdi
  4073a2:	b8 00 00 00 00       	mov    $0x0,%eax
  4073a7:	e8 74 c9 ff ff       	callq  403d20 <sprintf@plt>
  4073ac:	8b 55 e8             	mov    -0x18(%rbp),%edx
  4073af:	48 8b 4d f8          	mov    -0x8(%rbp),%rcx
  4073b3:	8b 45 ec             	mov    -0x14(%rbp),%eax
  4073b6:	48 89 ce             	mov    %rcx,%rsi
  4073b9:	89 c7                	mov    %eax,%edi
  4073bb:	e8 a0 cb ff ff       	callq  403f60 <xopenme_add_var_i@plt>
  4073c0:	48 83 7d f8 00       	cmpq   $0x0,-0x8(%rbp)
  4073c5:	74 0c                	je     4073d3 <_ZN2CK13store_value_iEiPKci+0x6f>
  4073c7:	48 8b 45 f8          	mov    -0x8(%rbp),%rax
  4073cb:	48 89 c7             	mov    %rax,%rdi
  4073ce:	e8 0d cc ff ff       	callq  403fe0 <_ZdaPv@plt>
  4073d3:	90                   	nop
  4073d4:	c9                   	leaveq 
  4073d5:	c3                   	retq   

00000000004073d6 <_ZN2CK13store_value_fEiPKcf>:
  4073d6:	55                   	push   %rbp
  4073d7:	48 89 e5             	mov    %rsp,%rbp
  4073da:	48 83 ec 30          	sub    $0x30,%rsp
  4073de:	89 7d ec             	mov    %edi,-0x14(%rbp)
  4073e1:	48 89 75 e0          	mov    %rsi,-0x20(%rbp)
  4073e5:	f3 0f 11 45 e8       	movss  %xmm0,-0x18(%rbp)
  4073ea:	48 8b 45 e0          	mov    -0x20(%rbp),%rax
  4073ee:	48 89 c7             	mov    %rax,%rdi
  4073f1:	e8 ea c9 ff ff       	callq  403de0 <strlen@plt>
  4073f6:	48 83 c0 06          	add    $0x6,%rax
  4073fa:	48 89 c7             	mov    %rax,%rdi
  4073fd:	e8 ce c8 ff ff       	callq  403cd0 <_Znam@plt>
  407402:	48 89 45 f8          	mov    %rax,-0x8(%rbp)
  407406:	48 8b 55 e0          	mov    -0x20(%rbp),%rdx
  40740a:	48 8b 45 f8          	mov    -0x8(%rbp),%rax
  40740e:	be 8f 04 41 00       	mov    $0x41048f,%esi
  407413:	48 89 c7             	mov    %rax,%rdi
  407416:	b8 00 00 00 00       	mov    $0x0,%eax
  40741b:	e8 00 c9 ff ff       	callq  403d20 <sprintf@plt>
  407420:	8b 4d e8             	mov    -0x18(%rbp),%ecx
  407423:	48 8b 55 f8          	mov    -0x8(%rbp),%rdx
  407427:	8b 45 ec             	mov    -0x14(%rbp),%eax
  40742a:	89 4d dc             	mov    %ecx,-0x24(%rbp)
  40742d:	f3 0f 10 45 dc       	movss  -0x24(%rbp),%xmm0
  407432:	48 89 d6             	mov    %rdx,%rsi
  407435:	89 c7                	mov    %eax,%edi
  407437:	e8 b4 cd ff ff       	callq  4041f0 <xopenme_add_var_f@plt>
  40743c:	48 83 7d f8 00       	cmpq   $0x0,-0x8(%rbp)
  407441:	74 0c                	je     40744f <_ZN2CK13store_value_fEiPKcf+0x79>
  407443:	48 8b 45 f8          	mov    -0x8(%rbp),%rax
  407447:	48 89 c7             	mov    %rax,%rdi
  40744a:	e8 91 cb ff ff       	callq  403fe0 <_ZdaPv@plt>
  40744f:	90                   	nop
  407450:	c9                   	leaveq 
  407451:	c3                   	retq   

0000000000407452 <_ZN2CK24get_input_shape_from_envEiiii>:
  407452:	55                   	push   %rbp
  407453:	48 89 e5             	mov    %rsp,%rbp
  407456:	48 83 ec 30          	sub    $0x30,%rsp
  40745a:	89 7d dc             	mov    %edi,-0x24(%rbp)
  40745d:	89 75 d8             	mov    %esi,-0x28(%rbp)
  407460:	89 55 d4             	mov    %edx,-0x2c(%rbp)
  407463:	89 4d d0             	mov    %ecx,-0x30(%rbp)
  407466:	64 48 8b 04 25 28 00 	mov    %fs:0x28,%rax
  40746d:	00 00 
  40746f:	48 89 45 f8          	mov    %rax,-0x8(%rbp)
  407473:	31 c0                	xor    %eax,%eax
  407475:	c7 45 e0 01 00 00 00 	movl   $0x1,-0x20(%rbp)
  40747c:	c7 45 e4 01 00 00 00 	movl   $0x1,-0x1c(%rbp)
  407483:	c7 45 e8 01 00 00 00 	movl   $0x1,-0x18(%rbp)
  40748a:	c7 45 ec 01 00 00 00 	movl   $0x1,-0x14(%rbp)
  407491:	8b 45 dc             	mov    -0x24(%rbp),%eax
  407494:	89 c6                	mov    %eax,%esi
  407496:	bf 98 04 41 00       	mov    $0x410498,%edi
  40749b:	e8 89 fe ff ff       	callq  407329 <_ZN2CK8getenv_iEPKci>
  4074a0:	89 45 e0             	mov    %eax,-0x20(%rbp)
  4074a3:	8b 45 d8             	mov    -0x28(%rbp),%eax
  4074a6:	89 c6                	mov    %eax,%esi
  4074a8:	bf a6 04 41 00       	mov    $0x4104a6,%edi
  4074ad:	e8 77 fe ff ff       	callq  407329 <_ZN2CK8getenv_iEPKci>
  4074b2:	89 45 e4             	mov    %eax,-0x1c(%rbp)
  4074b5:	8b 45 d4             	mov    -0x2c(%rbp),%eax
  4074b8:	89 c6                	mov    %eax,%esi
  4074ba:	bf b4 04 41 00       	mov    $0x4104b4,%edi
  4074bf:	e8 65 fe ff ff       	callq  407329 <_ZN2CK8getenv_iEPKci>
  4074c4:	89 45 e8             	mov    %eax,-0x18(%rbp)
  4074c7:	8b 45 d0             	mov    -0x30(%rbp),%eax
  4074ca:	89 c6                	mov    %eax,%esi
  4074cc:	bf c2 04 41 00       	mov    $0x4104c2,%edi
  4074d1:	e8 53 fe ff ff       	callq  407329 <_ZN2CK8getenv_iEPKci>
  4074d6:	89 45 ec             	mov    %eax,-0x14(%rbp)
  4074d9:	8b 45 e0             	mov    -0x20(%rbp),%eax
  4074dc:	89 c2                	mov    %eax,%edx
  4074de:	be d0 04 41 00       	mov    $0x4104d0,%esi
  4074e3:	bf 04 00 00 00       	mov    $0x4,%edi
  4074e8:	e8 77 fe ff ff       	callq  407364 <_ZN2CK13store_value_iEiPKci>
  4074ed:	8b 45 e4             	mov    -0x1c(%rbp),%eax
  4074f0:	89 c2                	mov    %eax,%edx
  4074f2:	be db 04 41 00       	mov    $0x4104db,%esi
  4074f7:	bf 05 00 00 00       	mov    $0x5,%edi
  4074fc:	e8 63 fe ff ff       	callq  407364 <_ZN2CK13store_value_iEiPKci>
  407501:	8b 45 e8             	mov    -0x18(%rbp),%eax
  407504:	89 c2                	mov    %eax,%edx
  407506:	be e6 04 41 00       	mov    $0x4104e6,%esi
  40750b:	bf 06 00 00 00       	mov    $0x6,%edi
  407510:	e8 4f fe ff ff       	callq  407364 <_ZN2CK13store_value_iEiPKci>
  407515:	8b 45 ec             	mov    -0x14(%rbp),%eax
  407518:	89 c2                	mov    %eax,%edx
  40751a:	be f1 04 41 00       	mov    $0x4104f1,%esi
  40751f:	bf 07 00 00 00       	mov    $0x7,%edi
  407524:	e8 3b fe ff ff       	callq  407364 <_ZN2CK13store_value_iEiPKci>
  407529:	8b 75 ec             	mov    -0x14(%rbp),%esi
  40752c:	8b 4d e8             	mov    -0x18(%rbp),%ecx
  40752f:	8b 55 e4             	mov    -0x1c(%rbp),%edx
  407532:	8b 45 e0             	mov    -0x20(%rbp),%eax
  407535:	41 89 f0             	mov    %esi,%r8d
  407538:	89 c6                	mov    %eax,%esi
  40753a:	bf 00 05 41 00       	mov    $0x410500,%edi
  40753f:	b8 00 00 00 00       	mov    $0x0,%eax
  407544:	e8 a7 c7 ff ff       	callq  403cf0 <printf@plt>
  407549:	48 8b 45 e0          	mov    -0x20(%rbp),%rax
  40754d:	48 8b 55 e8          	mov    -0x18(%rbp),%rdx
  407551:	48 8b 4d f8          	mov    -0x8(%rbp),%rcx
  407555:	64 48 33 0c 25 28 00 	xor    %fs:0x28,%rcx
  40755c:	00 00 
  40755e:	74 05                	je     407565 <_ZN2CK24get_input_shape_from_envEiiii+0x113>
  407560:	e8 cb c9 ff ff       	callq  403f30 <__stack_chk_fail@plt>
  407565:	c9                   	leaveq 
  407566:	c3                   	retq   

0000000000407567 <_ZN2CK9init_testEv>:
  407567:	55                   	push   %rbp
  407568:	48 89 e5             	mov    %rsp,%rbp
  40756b:	48 83 ec 10          	sub    $0x10,%rsp
  40756f:	be 0c 00 00 00       	mov    $0xc,%esi
  407574:	bf 02 00 00 00       	mov    $0x2,%edi
  407579:	e8 32 c8 ff ff       	callq  403db0 <xopenme_init@plt>
  40757e:	be 2a 00 00 00       	mov    $0x2a,%esi
  407583:	bf 37 05 41 00       	mov    $0x410537,%edi
  407588:	e8 9c fd ff ff       	callq  407329 <_ZN2CK8getenv_iEPKci>
  40758d:	89 45 fc             	mov    %eax,-0x4(%rbp)
  407590:	8b 45 fc             	mov    -0x4(%rbp),%eax
  407593:	89 c2                	mov    %eax,%edx
  407595:	be 3f 05 41 00       	mov    $0x41053f,%esi
  40759a:	bf 08 00 00 00       	mov    $0x8,%edi
  40759f:	e8 c0 fd ff ff       	callq  407364 <_ZN2CK13store_value_iEiPKci>
  4075a4:	8b 45 fc             	mov    -0x4(%rbp),%eax
  4075a7:	89 c7                	mov    %eax,%edi
  4075a9:	e8 32 c9 ff ff       	callq  403ee0 <srand@plt>
  4075ae:	90                   	nop
  4075af:	c9                   	leaveq 
  4075b0:	c3                   	retq   

00000000004075b1 <_ZN2CK11finish_testEv>:
  4075b1:	55                   	push   %rbp
  4075b2:	48 89 e5             	mov    %rsp,%rbp
  4075b5:	bf 00 00 00 00       	mov    $0x0,%edi
  4075ba:	e8 61 cc ff ff       	callq  404220 <xopenme_get_timer@plt>
  4075bf:	be 00 00 00 00       	mov    $0x0,%esi
  4075c4:	bf 48 05 41 00       	mov    $0x410548,%edi
  4075c9:	b8 01 00 00 00       	mov    $0x1,%eax
  4075ce:	e8 1d c7 ff ff       	callq  403cf0 <printf@plt>
  4075d3:	bf 01 00 00 00       	mov    $0x1,%edi
  4075d8:	e8 43 cc ff ff       	callq  404220 <xopenme_get_timer@plt>
  4075dd:	be 01 00 00 00       	mov    $0x1,%esi
  4075e2:	bf 5c 05 41 00       	mov    $0x41055c,%edi
  4075e7:	b8 01 00 00 00       	mov    $0x1,%eax
  4075ec:	e8 ff c6 ff ff       	callq  403cf0 <printf@plt>
  4075f1:	e8 5a c7 ff ff       	callq  403d50 <xopenme_dump_state@plt>
  4075f6:	e8 75 c7 ff ff       	callq  403d70 <xopenme_finish@plt>
  4075fb:	90                   	nop
  4075fc:	5d                   	pop    %rbp
  4075fd:	c3                   	retq   

00000000004075fe <_ZN2CK5armcl15set_kernel_pathEv>:
  4075fe:	55                   	push   %rbp
  4075ff:	48 89 e5             	mov    %rsp,%rbp
  407602:	53                   	push   %rbx
  407603:	48 83 ec 48          	sub    $0x48,%rsp
  407607:	64 48 8b 04 25 28 00 	mov    %fs:0x28,%rax
  40760e:	00 00 
  407610:	48 89 45 e8          	mov    %rax,-0x18(%rbp)
  407614:	31 c0                	xor    %eax,%eax
  407616:	bf 8a 05 41 00       	mov    $0x41058a,%edi
  40761b:	e8 60 c9 ff ff       	callq  403f80 <getenv@plt>
  407620:	48 89 45 b8          	mov    %rax,-0x48(%rbp)
  407624:	48 83 7d b8 00       	cmpq   $0x0,-0x48(%rbp)
  407629:	0f 84 95 00 00 00    	je     4076c4 <_ZN2CK5armcl15set_kernel_pathEv+0xc6>
  40762f:	48 8b 45 b8          	mov    -0x48(%rbp),%rax
  407633:	48 89 c6             	mov    %rax,%rsi
  407636:	bf a6 05 41 00       	mov    $0x4105a6,%edi
  40763b:	b8 00 00 00 00       	mov    $0x0,%eax
  407640:	e8 ab c6 ff ff       	callq  403cf0 <printf@plt>
  407645:	48 8d 45 b7          	lea    -0x49(%rbp),%rax
  407649:	48 89 c7             	mov    %rax,%rdi
  40764c:	e8 4f cb ff ff       	callq  4041a0 <_ZNSaIcEC1Ev@plt>
  407651:	48 8d 55 b7          	lea    -0x49(%rbp),%rdx
  407655:	48 8b 4d b8          	mov    -0x48(%rbp),%rcx
  407659:	48 8d 45 c0          	lea    -0x40(%rbp),%rax
  40765d:	48 89 ce             	mov    %rcx,%rsi
  407660:	48 89 c7             	mov    %rax,%rdi
  407663:	e8 d8 c9 ff ff       	callq  404040 <_ZNSt7__cxx1112basic_stringIcSt11char_traitsIcESaIcEEC1EPKcRKS3_@plt>
  407668:	e8 03 c8 ff ff       	callq  403e70 <_ZN11arm_compute15CLKernelLibrary3getEv@plt>
  40766d:	48 89 c2             	mov    %rax,%rdx
  407670:	48 8d 45 c0          	lea    -0x40(%rbp),%rax
  407674:	48 89 c6             	mov    %rax,%rsi
  407677:	48 89 d7             	mov    %rdx,%rdi
  40767a:	e8 c9 f1 ff ff       	callq  406848 <_ZN11arm_compute15CLKernelLibrary15set_kernel_pathERKNSt7__cxx1112basic_stringIcSt11char_traitsIcESaIcEEE>
  40767f:	48 8d 45 c0          	lea    -0x40(%rbp),%rax
  407683:	48 89 c7             	mov    %rax,%rdi
  407686:	e8 05 c8 ff ff       	callq  403e90 <_ZNSt7__cxx1112basic_stringIcSt11char_traitsIcESaIcEED1Ev@plt>
  40768b:	48 8d 45 b7          	lea    -0x49(%rbp),%rax
  40768f:	48 89 c7             	mov    %rax,%rdi
  407692:	e8 79 c8 ff ff       	callq  403f10 <_ZNSaIcED1Ev@plt>
  407697:	eb 2b                	jmp    4076c4 <_ZN2CK5armcl15set_kernel_pathEv+0xc6>
  407699:	48 89 c3             	mov    %rax,%rbx
  40769c:	48 8d 45 c0          	lea    -0x40(%rbp),%rax
  4076a0:	48 89 c7             	mov    %rax,%rdi
  4076a3:	e8 e8 c7 ff ff       	callq  403e90 <_ZNSt7__cxx1112basic_stringIcSt11char_traitsIcESaIcEED1Ev@plt>
  4076a8:	eb 03                	jmp    4076ad <_ZN2CK5armcl15set_kernel_pathEv+0xaf>
  4076aa:	48 89 c3             	mov    %rax,%rbx
  4076ad:	48 8d 45 b7          	lea    -0x49(%rbp),%rax
  4076b1:	48 89 c7             	mov    %rax,%rdi
  4076b4:	e8 57 c8 ff ff       	callq  403f10 <_ZNSaIcED1Ev@plt>
  4076b9:	48 89 d8             	mov    %rbx,%rax
  4076bc:	48 89 c7             	mov    %rax,%rdi
  4076bf:	e8 cc ca ff ff       	callq  404190 <_Unwind_Resume@plt>
  4076c4:	90                   	nop
  4076c5:	48 8b 45 e8          	mov    -0x18(%rbp),%rax
  4076c9:	64 48 33 04 25 28 00 	xor    %fs:0x28,%rax
  4076d0:	00 00 
  4076d2:	74 05                	je     4076d9 <_ZN2CK5armcl15set_kernel_pathEv+0xdb>
  4076d4:	e8 57 c8 ff ff       	callq  403f30 <__stack_chk_fail@plt>
  4076d9:	48 83 c4 48          	add    $0x48,%rsp
  4076dd:	5b                   	pop    %rbx
  4076de:	5d                   	pop    %rbp
  4076df:	c3                   	retq   

00000000004076e0 <_ZN2CK5armcl10init_armclEPN11arm_compute8ICLTunerE>:
  4076e0:	55                   	push   %rbp
  4076e1:	48 89 e5             	mov    %rsp,%rbp
  4076e4:	53                   	push   %rbx
  4076e5:	48 83 ec 68          	sub    $0x68,%rsp
  4076e9:	48 89 7d 98          	mov    %rdi,-0x68(%rbp)
  4076ed:	64 48 8b 04 25 28 00 	mov    %fs:0x28,%rax
  4076f4:	00 00 
  4076f6:	48 89 45 e8          	mov    %rax,-0x18(%rbp)
  4076fa:	31 c0                	xor    %eax,%eax
  4076fc:	48 8d 55 b0          	lea    -0x50(%rbp),%rdx
  407700:	b8 00 00 00 00       	mov    $0x0,%eax
  407705:	b9 07 00 00 00       	mov    $0x7,%ecx
  40770a:	48 89 d7             	mov    %rdx,%rdi
  40770d:	f3 48 ab             	rep stos %rax,%es:(%rdi)
  407710:	48 c7 45 b0 b0 40 00 	movq   $0x40b0,-0x50(%rbp)
  407717:	00 
  407718:	b8 46 45 40 00       	mov    $0x404546,%eax
  40771d:	48 89 45 b8          	mov    %rax,-0x48(%rbp)
  407721:	48 c7 45 c0 b1 40 00 	movq   $0x40b1,-0x40(%rbp)
  407728:	00 
  407729:	48 c7 45 c8 00 00 10 	movq   $0x100000,-0x38(%rbp)
  407730:	00 
  407731:	48 c7 45 d0 84 10 00 	movq   $0x1084,-0x30(%rbp)
  407738:	00 
  407739:	48 8d 45 a8          	lea    -0x58(%rbp),%rax
  40773d:	be 00 00 00 00       	mov    $0x0,%esi
  407742:	48 89 c7             	mov    %rax,%rdi
  407745:	e8 96 e4 ff ff       	callq  405be0 <_ZN2cl8Platform3getEPi>
  40774a:	48 8d 45 a8          	lea    -0x58(%rbp),%rax
  40774e:	48 89 c7             	mov    %rax,%rdi
  407751:	e8 cc 0a 00 00       	callq  408222 <_ZN2cl6detail7WrapperIP15_cl_platform_idEclEv>
  407756:	48 8b 00             	mov    (%rax),%rax
  407759:	48 89 45 d8          	mov    %rax,-0x28(%rbp)
  40775d:	48 8d 45 a8          	lea    -0x58(%rbp),%rax
  407761:	48 89 c7             	mov    %rax,%rdi
  407764:	e8 57 dd ff ff       	callq  4054c0 <_ZN2cl8PlatformD1Ev>
  407769:	48 8d 55 b0          	lea    -0x50(%rbp),%rdx
  40776d:	48 8d 45 a0          	lea    -0x60(%rbp),%rax
  407771:	41 b9 00 00 00 00    	mov    $0x0,%r9d
  407777:	41 b8 00 00 00 00    	mov    $0x0,%r8d
  40777d:	b9 00 00 00 00       	mov    $0x0,%ecx
  407782:	be 01 00 00 00       	mov    $0x1,%esi
  407787:	48 89 c7             	mov    %rax,%rdi
  40778a:	e8 27 e6 ff ff       	callq  405db6 <_ZN2cl7ContextC1EmPlPFvPKcPKvmPvES6_Pi>
  40778f:	48 8d 45 a8          	lea    -0x58(%rbp),%rax
  407793:	48 8d 55 a0          	lea    -0x60(%rbp),%rdx
  407797:	48 89 d6             	mov    %rdx,%rsi
  40779a:	48 89 c7             	mov    %rax,%rdi
  40779d:	e8 91 ea ff ff       	callq  406233 <_ZN2cl7Context10setDefaultERKS0_>
  4077a2:	48 8d 45 a8          	lea    -0x58(%rbp),%rax
  4077a6:	48 89 c7             	mov    %rax,%rdi
  4077a9:	e8 90 e4 ff ff       	callq  405c3e <_ZN2cl7ContextD1Ev>
  4077ae:	48 8d 45 a0          	lea    -0x60(%rbp),%rax
  4077b2:	48 89 c7             	mov    %rax,%rdi
  4077b5:	e8 84 e4 ff ff       	callq  405c3e <_ZN2cl7ContextD1Ev>
  4077ba:	e8 51 c5 ff ff       	callq  403d10 <_ZN11arm_compute11CLScheduler3getEv@plt>
  4077bf:	48 89 c2             	mov    %rax,%rdx
  4077c2:	48 8b 45 98          	mov    -0x68(%rbp),%rax
  4077c6:	48 89 c6             	mov    %rax,%rsi
  4077c9:	48 89 d7             	mov    %rdx,%rdi
  4077cc:	e8 17 f8 ff ff       	callq  406fe8 <_ZN11arm_compute11CLScheduler12default_initEPNS_8ICLTunerE>
  4077d1:	e8 28 fe ff ff       	callq  4075fe <_ZN2CK5armcl15set_kernel_pathEv>
  4077d6:	90                   	nop
  4077d7:	48 8b 45 e8          	mov    -0x18(%rbp),%rax
  4077db:	64 48 33 04 25 28 00 	xor    %fs:0x28,%rax
  4077e2:	00 00 
  4077e4:	74 21                	je     407807 <_ZN2CK5armcl10init_armclEPN11arm_compute8ICLTunerE+0x127>
  4077e6:	eb 1a                	jmp    407802 <_ZN2CK5armcl10init_armclEPN11arm_compute8ICLTunerE+0x122>
  4077e8:	48 89 c3             	mov    %rax,%rbx
  4077eb:	48 8d 45 a0          	lea    -0x60(%rbp),%rax
