
reshape:     file format elf64-x86-64


Disassembly of section .init:

0000000000403c98 <_init>:
  403c98:	48 83 ec 08          	sub    $0x8,%rsp
  403c9c:	48 8b 05 55 53 21 00 	mov    0x215355(%rip),%rax        # 618ff8 <_DYNAMIC+0x230>
  403ca3:	48 85 c0             	test   %rax,%rax
  403ca6:	74 05                	je     403cad <_init+0x15>
  403ca8:	e8 93 05 00 00       	callq  404240 <_ZNSt8ios_base4InitD1Ev@plt+0x10>
  403cad:	48 83 c4 08          	add    $0x8,%rsp
  403cb1:	c3                   	retq   

Disassembly of section .plt:

0000000000403cc0 <_Znam@plt-0x10>:
  403cc0:	ff 35 42 53 21 00    	pushq  0x215342(%rip)        # 619008 <_GLOBAL_OFFSET_TABLE_+0x8>
  403cc6:	ff 25 44 53 21 00    	jmpq   *0x215344(%rip)        # 619010 <_GLOBAL_OFFSET_TABLE_+0x10>
  403ccc:	0f 1f 40 00          	nopl   0x0(%rax)

0000000000403cd0 <_Znam@plt>:
  403cd0:	ff 25 42 53 21 00    	jmpq   *0x215342(%rip)        # 619018 <_GLOBAL_OFFSET_TABLE_+0x18>
  403cd6:	68 00 00 00 00       	pushq  $0x0
  403cdb:	e9 e0 ff ff ff       	jmpq   403cc0 <_init+0x28>

0000000000403ce0 <_ZNSt7__cxx1112basic_stringIcSt11char_traitsIcESaIcEEaSERKS4_@plt>:
  403ce0:	ff 25 3a 53 21 00    	jmpq   *0x21533a(%rip)        # 619020 <_GLOBAL_OFFSET_TABLE_+0x20>
  403ce6:	68 01 00 00 00       	pushq  $0x1
  403ceb:	e9 d0 ff ff ff       	jmpq   403cc0 <_init+0x28>

0000000000403cf0 <printf@plt>:
  403cf0:	ff 25 32 53 21 00    	jmpq   *0x215332(%rip)        # 619028 <_GLOBAL_OFFSET_TABLE_+0x28>
  403cf6:	68 02 00 00 00       	pushq  $0x2
  403cfb:	e9 c0 ff ff ff       	jmpq   403cc0 <_init+0x28>

0000000000403d00 <_ZNSt6chrono3_V212system_clock3nowEv@plt>:
  403d00:	ff 25 2a 53 21 00    	jmpq   *0x21532a(%rip)        # 619030 <_GLOBAL_OFFSET_TABLE_+0x30>
  403d06:	68 03 00 00 00       	pushq  $0x3
  403d0b:	e9 b0 ff ff ff       	jmpq   403cc0 <_init+0x28>

0000000000403d10 <_ZN11arm_compute11CLScheduler3getEv@plt>:
  403d10:	ff 25 22 53 21 00    	jmpq   *0x215322(%rip)        # 619038 <_GLOBAL_OFFSET_TABLE_+0x38>
  403d16:	68 04 00 00 00       	pushq  $0x4
  403d1b:	e9 a0 ff ff ff       	jmpq   403cc0 <_init+0x28>

0000000000403d20 <sprintf@plt>:
  403d20:	ff 25 1a 53 21 00    	jmpq   *0x21531a(%rip)        # 619040 <_GLOBAL_OFFSET_TABLE_+0x40>
  403d26:	68 05 00 00 00       	pushq  $0x5
  403d2b:	e9 90 ff ff ff       	jmpq   403cc0 <_init+0x28>

0000000000403d30 <_ZSt11_Hash_bytesPKvmm@plt>:
  403d30:	ff 25 12 53 21 00    	jmpq   *0x215312(%rip)        # 619048 <_GLOBAL_OFFSET_TABLE_+0x48>
  403d36:	68 06 00 00 00       	pushq  $0x6
  403d3b:	e9 80 ff ff ff       	jmpq   403cc0 <_init+0x28>

0000000000403d40 <xopenme_clock_start@plt>:
  403d40:	ff 25 0a 53 21 00    	jmpq   *0x21530a(%rip)        # 619050 <_GLOBAL_OFFSET_TABLE_+0x50>
  403d46:	68 07 00 00 00       	pushq  $0x7
  403d4b:	e9 70 ff ff ff       	jmpq   403cc0 <_init+0x28>

0000000000403d50 <xopenme_dump_state@plt>:
  403d50:	ff 25 02 53 21 00    	jmpq   *0x215302(%rip)        # 619058 <_GLOBAL_OFFSET_TABLE_+0x58>
  403d56:	68 08 00 00 00       	pushq  $0x8
  403d5b:	e9 60 ff ff ff       	jmpq   403cc0 <_init+0x28>

0000000000403d60 <clFinish@plt>:
  403d60:	ff 25 fa 52 21 00    	jmpq   *0x2152fa(%rip)        # 619060 <_GLOBAL_OFFSET_TABLE_+0x60>
  403d66:	68 09 00 00 00       	pushq  $0x9
  403d6b:	e9 50 ff ff ff       	jmpq   403cc0 <_init+0x28>

0000000000403d70 <xopenme_finish@plt>:
  403d70:	ff 25 f2 52 21 00    	jmpq   *0x2152f2(%rip)        # 619068 <_GLOBAL_OFFSET_TABLE_+0x68>
  403d76:	68 0a 00 00 00       	pushq  $0xa
  403d7b:	e9 40 ff ff ff       	jmpq   403cc0 <_init+0x28>

0000000000403d80 <rand@plt>:
  403d80:	ff 25 ea 52 21 00    	jmpq   *0x2152ea(%rip)        # 619070 <_GLOBAL_OFFSET_TABLE_+0x70>
  403d86:	68 0b 00 00 00       	pushq  $0xb
  403d8b:	e9 30 ff ff ff       	jmpq   403cc0 <_init+0x28>

0000000000403d90 <_ZN11arm_compute8CLTensor5unmapEv@plt>:
  403d90:	ff 25 e2 52 21 00    	jmpq   *0x2152e2(%rip)        # 619078 <_GLOBAL_OFFSET_TABLE_+0x78>
  403d96:	68 0c 00 00 00       	pushq  $0xc
  403d9b:	e9 20 ff ff ff       	jmpq   403cc0 <_init+0x28>

0000000000403da0 <_ZSt17__throw_bad_allocv@plt>:
  403da0:	ff 25 da 52 21 00    	jmpq   *0x2152da(%rip)        # 619080 <_GLOBAL_OFFSET_TABLE_+0x80>
  403da6:	68 0d 00 00 00       	pushq  $0xd
  403dab:	e9 10 ff ff ff       	jmpq   403cc0 <_init+0x28>

0000000000403db0 <xopenme_init@plt>:
  403db0:	ff 25 d2 52 21 00    	jmpq   *0x2152d2(%rip)        # 619088 <_GLOBAL_OFFSET_TABLE_+0x88>
  403db6:	68 0e 00 00 00       	pushq  $0xe
  403dbb:	e9 00 ff ff ff       	jmpq   403cc0 <_init+0x28>

0000000000403dc0 <__cxa_begin_catch@plt>:
  403dc0:	ff 25 ca 52 21 00    	jmpq   *0x2152ca(%rip)        # 619090 <_GLOBAL_OFFSET_TABLE_+0x90>
  403dc6:	68 0f 00 00 00       	pushq  $0xf
  403dcb:	e9 f0 fe ff ff       	jmpq   403cc0 <_init+0x28>

0000000000403dd0 <_ZNSt7__cxx1112basic_stringIcSt11char_traitsIcESaIcEEC1ERKS4_@plt>:
  403dd0:	ff 25 c2 52 21 00    	jmpq   *0x2152c2(%rip)        # 619098 <_GLOBAL_OFFSET_TABLE_+0x98>
  403dd6:	68 10 00 00 00       	pushq  $0x10
  403ddb:	e9 e0 fe ff ff       	jmpq   403cc0 <_init+0x28>

0000000000403de0 <strlen@plt>:
  403de0:	ff 25 ba 52 21 00    	jmpq   *0x2152ba(%rip)        # 6190a0 <_GLOBAL_OFFSET_TABLE_+0xa0>
  403de6:	68 11 00 00 00       	pushq  $0x11
  403deb:	e9 d0 fe ff ff       	jmpq   403cc0 <_init+0x28>

0000000000403df0 <xopenme_dump_memory@plt>:
  403df0:	ff 25 b2 52 21 00    	jmpq   *0x2152b2(%rip)        # 6190a8 <_GLOBAL_OFFSET_TABLE_+0xa8>
  403df6:	68 12 00 00 00       	pushq  $0x12
  403dfb:	e9 c0 fe ff ff       	jmpq   403cc0 <_init+0x28>

0000000000403e00 <memcmp@plt>:
  403e00:	ff 25 aa 52 21 00    	jmpq   *0x2152aa(%rip)        # 6190b0 <_GLOBAL_OFFSET_TABLE_+0xb0>
  403e06:	68 13 00 00 00       	pushq  $0x13
  403e0b:	e9 b0 fe ff ff       	jmpq   403cc0 <_init+0x28>

0000000000403e10 <clRetainCommandQueue@plt>:
  403e10:	ff 25 a2 52 21 00    	jmpq   *0x2152a2(%rip)        # 6190b8 <_GLOBAL_OFFSET_TABLE_+0xb8>
  403e16:	68 14 00 00 00       	pushq  $0x14
  403e1b:	e9 a0 fe ff ff       	jmpq   403cc0 <_init+0x28>

0000000000403e20 <clCreateContextFromType@plt>:
  403e20:	ff 25 9a 52 21 00    	jmpq   *0x21529a(%rip)        # 6190c0 <_GLOBAL_OFFSET_TABLE_+0xc0>
  403e26:	68 15 00 00 00       	pushq  $0x15
  403e2b:	e9 90 fe ff ff       	jmpq   403cc0 <_init+0x28>

0000000000403e30 <__cxa_allocate_exception@plt>:
  403e30:	ff 25 92 52 21 00    	jmpq   *0x215292(%rip)        # 6190c8 <_GLOBAL_OFFSET_TABLE_+0xc8>
  403e36:	68 16 00 00 00       	pushq  $0x16
  403e3b:	e9 80 fe ff ff       	jmpq   403cc0 <_init+0x28>

0000000000403e40 <_ZSt20__throw_length_errorPKc@plt>:
  403e40:	ff 25 8a 52 21 00    	jmpq   *0x21528a(%rip)        # 6190d0 <_GLOBAL_OFFSET_TABLE_+0xd0>
  403e46:	68 17 00 00 00       	pushq  $0x17
  403e4b:	e9 70 fe ff ff       	jmpq   403cc0 <_init+0x28>

0000000000403e50 <_ZN11arm_compute14CLReshapeLayer9configureEPKNS_9ICLTensorEPS1_@plt>:
  403e50:	ff 25 82 52 21 00    	jmpq   *0x215282(%rip)        # 6190d8 <_GLOBAL_OFFSET_TABLE_+0xd8>
  403e56:	68 18 00 00 00       	pushq  $0x18
  403e5b:	e9 60 fe ff ff       	jmpq   403cc0 <_init+0x28>

0000000000403e60 <memset@plt>:
  403e60:	ff 25 7a 52 21 00    	jmpq   *0x21527a(%rip)        # 6190e0 <_GLOBAL_OFFSET_TABLE_+0xe0>
  403e66:	68 19 00 00 00       	pushq  $0x19
  403e6b:	e9 50 fe ff ff       	jmpq   403cc0 <_init+0x28>

0000000000403e70 <_ZN11arm_compute15CLKernelLibrary3getEv@plt>:
  403e70:	ff 25 72 52 21 00    	jmpq   *0x215272(%rip)        # 6190e8 <_GLOBAL_OFFSET_TABLE_+0xe8>
  403e76:	68 1a 00 00 00       	pushq  $0x1a
  403e7b:	e9 40 fe ff ff       	jmpq   403cc0 <_init+0x28>

0000000000403e80 <clReleaseContext@plt>:
  403e80:	ff 25 6a 52 21 00    	jmpq   *0x21526a(%rip)        # 6190f0 <_GLOBAL_OFFSET_TABLE_+0xf0>
  403e86:	68 1b 00 00 00       	pushq  $0x1b
  403e8b:	e9 30 fe ff ff       	jmpq   403cc0 <_init+0x28>

0000000000403e90 <_ZNSt7__cxx1112basic_stringIcSt11char_traitsIcESaIcEED1Ev@plt>:
  403e90:	ff 25 62 52 21 00    	jmpq   *0x215262(%rip)        # 6190f8 <_GLOBAL_OFFSET_TABLE_+0xf8>
  403e96:	68 1c 00 00 00       	pushq  $0x1c
  403e9b:	e9 20 fe ff ff       	jmpq   403cc0 <_init+0x28>

0000000000403ea0 <_ZSt20__throw_system_errori@plt>:
  403ea0:	ff 25 5a 52 21 00    	jmpq   *0x21525a(%rip)        # 619100 <_GLOBAL_OFFSET_TABLE_+0x100>
  403ea6:	68 1d 00 00 00       	pushq  $0x1d
  403eab:	e9 10 fe ff ff       	jmpq   403cc0 <_init+0x28>

0000000000403eb0 <_ZNKSt7__cxx1112basic_stringIcSt11char_traitsIcESaIcEE4sizeEv@plt>:
  403eb0:	ff 25 52 52 21 00    	jmpq   *0x215252(%rip)        # 619108 <_GLOBAL_OFFSET_TABLE_+0x108>
  403eb6:	68 1e 00 00 00       	pushq  $0x1e
  403ebb:	e9 00 fe ff ff       	jmpq   403cc0 <_init+0x28>

0000000000403ec0 <__cxa_atexit@plt>:
  403ec0:	ff 25 4a 52 21 00    	jmpq   *0x21524a(%rip)        # 619110 <_GLOBAL_OFFSET_TABLE_+0x110>
  403ec6:	68 1f 00 00 00       	pushq  $0x1f
  403ecb:	e9 f0 fd ff ff       	jmpq   403cc0 <_init+0x28>

0000000000403ed0 <_ZdlPv@plt>:
  403ed0:	ff 25 42 52 21 00    	jmpq   *0x215242(%rip)        # 619118 <_GLOBAL_OFFSET_TABLE_+0x118>
  403ed6:	68 20 00 00 00       	pushq  $0x20
  403edb:	e9 e0 fd ff ff       	jmpq   403cc0 <_init+0x28>

0000000000403ee0 <srand@plt>:
  403ee0:	ff 25 3a 52 21 00    	jmpq   *0x21523a(%rip)        # 619120 <_GLOBAL_OFFSET_TABLE_+0x120>
  403ee6:	68 21 00 00 00       	pushq  $0x21
  403eeb:	e9 d0 fd ff ff       	jmpq   403cc0 <_init+0x28>

0000000000403ef0 <_Znwm@plt>:
  403ef0:	ff 25 32 52 21 00    	jmpq   *0x215232(%rip)        # 619128 <_GLOBAL_OFFSET_TABLE_+0x128>
  403ef6:	68 22 00 00 00       	pushq  $0x22
  403efb:	e9 c0 fd ff ff       	jmpq   403cc0 <_init+0x28>

0000000000403f00 <_ZN11arm_compute17ICLSimpleFunction3runEv@plt>:
  403f00:	ff 25 2a 52 21 00    	jmpq   *0x21522a(%rip)        # 619130 <_GLOBAL_OFFSET_TABLE_+0x130>
  403f06:	68 23 00 00 00       	pushq  $0x23
  403f0b:	e9 b0 fd ff ff       	jmpq   403cc0 <_init+0x28>

0000000000403f10 <_ZNSaIcED1Ev@plt>:
  403f10:	ff 25 22 52 21 00    	jmpq   *0x215222(%rip)        # 619138 <_GLOBAL_OFFSET_TABLE_+0x138>
  403f16:	68 24 00 00 00       	pushq  $0x24
  403f1b:	e9 a0 fd ff ff       	jmpq   403cc0 <_init+0x28>

0000000000403f20 <_ZN11arm_compute17ICLSimpleFunctionC2Ev@plt>:
  403f20:	ff 25 1a 52 21 00    	jmpq   *0x21521a(%rip)        # 619140 <_GLOBAL_OFFSET_TABLE_+0x140>
  403f26:	68 25 00 00 00       	pushq  $0x25
  403f2b:	e9 90 fd ff ff       	jmpq   403cc0 <_init+0x28>

0000000000403f30 <__stack_chk_fail@plt>:
  403f30:	ff 25 12 52 21 00    	jmpq   *0x215212(%rip)        # 619148 <_GLOBAL_OFFSET_TABLE_+0x148>
  403f36:	68 26 00 00 00       	pushq  $0x26
  403f3b:	e9 80 fd ff ff       	jmpq   403cc0 <_init+0x28>

0000000000403f40 <_ZNK11arm_compute7IKernel6windowEv@plt>:
  403f40:	ff 25 0a 52 21 00    	jmpq   *0x21520a(%rip)        # 619150 <_GLOBAL_OFFSET_TABLE_+0x150>
  403f46:	68 27 00 00 00       	pushq  $0x27
  403f4b:	e9 70 fd ff ff       	jmpq   403cc0 <_init+0x28>

0000000000403f50 <_ZN11arm_compute16ITensorAllocator4initERKNS_10TensorInfoE@plt>:
  403f50:	ff 25 02 52 21 00    	jmpq   *0x215202(%rip)        # 619158 <_GLOBAL_OFFSET_TABLE_+0x158>
  403f56:	68 28 00 00 00       	pushq  $0x28
  403f5b:	e9 60 fd ff ff       	jmpq   403cc0 <_init+0x28>

0000000000403f60 <xopenme_add_var_i@plt>:
  403f60:	ff 25 fa 51 21 00    	jmpq   *0x2151fa(%rip)        # 619160 <_GLOBAL_OFFSET_TABLE_+0x160>
  403f66:	68 29 00 00 00       	pushq  $0x29
  403f6b:	e9 50 fd ff ff       	jmpq   403cc0 <_init+0x28>

0000000000403f70 <_ZN11arm_compute8CLTensor9allocatorEv@plt>:
  403f70:	ff 25 f2 51 21 00    	jmpq   *0x2151f2(%rip)        # 619168 <_GLOBAL_OFFSET_TABLE_+0x168>
  403f76:	68 2a 00 00 00       	pushq  $0x2a
  403f7b:	e9 40 fd ff ff       	jmpq   403cc0 <_init+0x28>

0000000000403f80 <getenv@plt>:
  403f80:	ff 25 ea 51 21 00    	jmpq   *0x2151ea(%rip)        # 619170 <_GLOBAL_OFFSET_TABLE_+0x170>
  403f86:	68 2b 00 00 00       	pushq  $0x2b
  403f8b:	e9 30 fd ff ff       	jmpq   403cc0 <_init+0x28>

0000000000403f90 <_ZNSt7__cxx1112basic_stringIcSt11char_traitsIcESaIcEEaSEOS4_@plt>:
  403f90:	ff 25 e2 51 21 00    	jmpq   *0x2151e2(%rip)        # 619178 <_GLOBAL_OFFSET_TABLE_+0x178>
  403f96:	68 2c 00 00 00       	pushq  $0x2c
  403f9b:	e9 20 fd ff ff       	jmpq   403cc0 <_init+0x28>

0000000000403fa0 <clGetDeviceIDs@plt>:
  403fa0:	ff 25 da 51 21 00    	jmpq   *0x2151da(%rip)        # 619180 <_GLOBAL_OFFSET_TABLE_+0x180>
  403fa6:	68 2d 00 00 00       	pushq  $0x2d
  403fab:	e9 10 fd ff ff       	jmpq   403cc0 <_init+0x28>

0000000000403fb0 <clGetContextInfo@plt>:
  403fb0:	ff 25 d2 51 21 00    	jmpq   *0x2151d2(%rip)        # 619188 <_GLOBAL_OFFSET_TABLE_+0x188>
  403fb6:	68 2e 00 00 00       	pushq  $0x2e
  403fbb:	e9 00 fd ff ff       	jmpq   403cc0 <_init+0x28>

0000000000403fc0 <__cxa_get_exception_ptr@plt>:
  403fc0:	ff 25 ca 51 21 00    	jmpq   *0x2151ca(%rip)        # 619190 <_GLOBAL_OFFSET_TABLE_+0x190>
  403fc6:	68 2f 00 00 00       	pushq  $0x2f
  403fcb:	e9 f0 fc ff ff       	jmpq   403cc0 <_init+0x28>

0000000000403fd0 <clReleaseCommandQueue@plt>:
  403fd0:	ff 25 c2 51 21 00    	jmpq   *0x2151c2(%rip)        # 619198 <_GLOBAL_OFFSET_TABLE_+0x198>
  403fd6:	68 30 00 00 00       	pushq  $0x30
  403fdb:	e9 e0 fc ff ff       	jmpq   403cc0 <_init+0x28>

0000000000403fe0 <_ZdaPv@plt>:
  403fe0:	ff 25 ba 51 21 00    	jmpq   *0x2151ba(%rip)        # 6191a0 <_GLOBAL_OFFSET_TABLE_+0x1a0>
  403fe6:	68 31 00 00 00       	pushq  $0x31
  403feb:	e9 d0 fc ff ff       	jmpq   403cc0 <_init+0x28>

0000000000403ff0 <_ZNKSt7__cxx1112basic_stringIcSt11char_traitsIcESaIcEE4dataEv@plt>:
  403ff0:	ff 25 b2 51 21 00    	jmpq   *0x2151b2(%rip)        # 6191a8 <_GLOBAL_OFFSET_TABLE_+0x1a8>
  403ff6:	68 32 00 00 00       	pushq  $0x32
  403ffb:	e9 c0 fc ff ff       	jmpq   403cc0 <_init+0x28>

0000000000404000 <_ZN11arm_compute22get_target_from_deviceERN2cl6DeviceE@plt>:
  404000:	ff 25 aa 51 21 00    	jmpq   *0x2151aa(%rip)        # 6191b0 <_GLOBAL_OFFSET_TABLE_+0x1b0>
  404006:	68 33 00 00 00       	pushq  $0x33
  40400b:	e9 b0 fc ff ff       	jmpq   403cc0 <_init+0x28>

0000000000404010 <clGetPlatformIDs@plt>:
  404010:	ff 25 a2 51 21 00    	jmpq   *0x2151a2(%rip)        # 6191b8 <_GLOBAL_OFFSET_TABLE_+0x1b8>
  404016:	68 34 00 00 00       	pushq  $0x34
  40401b:	e9 a0 fc ff ff       	jmpq   403cc0 <_init+0x28>

0000000000404020 <_ZNKSt8__detail20_Prime_rehash_policy14_M_need_rehashEmmm@plt>:
  404020:	ff 25 9a 51 21 00    	jmpq   *0x21519a(%rip)        # 6191c0 <_GLOBAL_OFFSET_TABLE_+0x1c0>
  404026:	68 35 00 00 00       	pushq  $0x35
  40402b:	e9 90 fc ff ff       	jmpq   403cc0 <_init+0x28>

0000000000404030 <xopenme_clock_end@plt>:
  404030:	ff 25 92 51 21 00    	jmpq   *0x215192(%rip)        # 6191c8 <_GLOBAL_OFFSET_TABLE_+0x1c8>
  404036:	68 36 00 00 00       	pushq  $0x36
  40403b:	e9 80 fc ff ff       	jmpq   403cc0 <_init+0x28>

0000000000404040 <_ZNSt7__cxx1112basic_stringIcSt11char_traitsIcESaIcEEC1EPKcRKS3_@plt>:
  404040:	ff 25 8a 51 21 00    	jmpq   *0x21518a(%rip)        # 6191d0 <_GLOBAL_OFFSET_TABLE_+0x1d0>
  404046:	68 37 00 00 00       	pushq  $0x37
  40404b:	e9 70 fc ff ff       	jmpq   403cc0 <_init+0x28>

0000000000404050 <putchar@plt>:
  404050:	ff 25 82 51 21 00    	jmpq   *0x215182(%rip)        # 6191d8 <_GLOBAL_OFFSET_TABLE_+0x1d8>
  404056:	68 38 00 00 00       	pushq  $0x38
  40405b:	e9 60 fc ff ff       	jmpq   403cc0 <_init+0x28>

0000000000404060 <__cxa_throw_bad_array_new_length@plt>:
  404060:	ff 25 7a 51 21 00    	jmpq   *0x21517a(%rip)        # 6191e0 <_GLOBAL_OFFSET_TABLE_+0x1e0>
  404066:	68 39 00 00 00       	pushq  $0x39
  40406b:	e9 50 fc ff ff       	jmpq   403cc0 <_init+0x28>

0000000000404070 <__cxa_rethrow@plt>:
  404070:	ff 25 72 51 21 00    	jmpq   *0x215172(%rip)        # 6191e8 <_GLOBAL_OFFSET_TABLE_+0x1e8>
  404076:	68 3a 00 00 00       	pushq  $0x3a
  40407b:	e9 40 fc ff ff       	jmpq   403cc0 <_init+0x28>

0000000000404080 <_ZNKSt7__cxx1112basic_stringIcSt11char_traitsIcESaIcEE6lengthEv@plt>:
  404080:	ff 25 6a 51 21 00    	jmpq   *0x21516a(%rip)        # 6191f0 <_GLOBAL_OFFSET_TABLE_+0x1f0>
  404086:	68 3b 00 00 00       	pushq  $0x3b
  40408b:	e9 30 fc ff ff       	jmpq   403cc0 <_init+0x28>

0000000000404090 <_ZSt24__throw_out_of_range_fmtPKcz@plt>:
  404090:	ff 25 62 51 21 00    	jmpq   *0x215162(%rip)        # 6191f8 <_GLOBAL_OFFSET_TABLE_+0x1f8>
  404096:	68 3c 00 00 00       	pushq  $0x3c
  40409b:	e9 20 fc ff ff       	jmpq   403cc0 <_init+0x28>

00000000004040a0 <_ZNK11arm_compute7IKernel17is_parallelisableEv@plt>:
  4040a0:	ff 25 5a 51 21 00    	jmpq   *0x21515a(%rip)        # 619200 <_GLOBAL_OFFSET_TABLE_+0x200>
  4040a6:	68 3d 00 00 00       	pushq  $0x3d
  4040ab:	e9 10 fc ff ff       	jmpq   403cc0 <_init+0x28>

00000000004040b0 <_ZNSt8ios_base4InitC1Ev@plt>:
  4040b0:	ff 25 52 51 21 00    	jmpq   *0x215152(%rip)        # 619208 <_GLOBAL_OFFSET_TABLE_+0x208>
  4040b6:	68 3e 00 00 00       	pushq  $0x3e
  4040bb:	e9 00 fc ff ff       	jmpq   403cc0 <_init+0x28>

00000000004040c0 <puts@plt>:
  4040c0:	ff 25 4a 51 21 00    	jmpq   *0x21514a(%rip)        # 619210 <_GLOBAL_OFFSET_TABLE_+0x210>
  4040c6:	68 3f 00 00 00       	pushq  $0x3f
  4040cb:	e9 f0 fb ff ff       	jmpq   403cc0 <_init+0x28>

00000000004040d0 <atoi@plt>:
  4040d0:	ff 25 42 51 21 00    	jmpq   *0x215142(%rip)        # 619218 <_GLOBAL_OFFSET_TABLE_+0x218>
  4040d6:	68 40 00 00 00       	pushq  $0x40
  4040db:	e9 e0 fb ff ff       	jmpq   403cc0 <_init+0x28>

00000000004040e0 <_ZN11arm_compute17CLTensorAllocatorD1Ev@plt>:
  4040e0:	ff 25 3a 51 21 00    	jmpq   *0x21513a(%rip)        # 619220 <_GLOBAL_OFFSET_TABLE_+0x220>
  4040e6:	68 41 00 00 00       	pushq  $0x41
  4040eb:	e9 d0 fb ff ff       	jmpq   403cc0 <_init+0x28>

00000000004040f0 <clCreateCommandQueue@plt>:
  4040f0:	ff 25 32 51 21 00    	jmpq   *0x215132(%rip)        # 619228 <_GLOBAL_OFFSET_TABLE_+0x228>
  4040f6:	68 42 00 00 00       	pushq  $0x42
  4040fb:	e9 c0 fb ff ff       	jmpq   403cc0 <_init+0x28>

0000000000404100 <__once_proxy@plt>:
  404100:	ff 25 2a 51 21 00    	jmpq   *0x21512a(%rip)        # 619230 <_GLOBAL_OFFSET_TABLE_+0x230>
  404106:	68 43 00 00 00       	pushq  $0x43
  40410b:	e9 b0 fb ff ff       	jmpq   403cc0 <_init+0x28>

0000000000404110 <__cxa_end_catch@plt>:
  404110:	ff 25 22 51 21 00    	jmpq   *0x215122(%rip)        # 619238 <_GLOBAL_OFFSET_TABLE_+0x238>
  404116:	68 44 00 00 00       	pushq  $0x44
  40411b:	e9 a0 fb ff ff       	jmpq   403cc0 <_init+0x28>

0000000000404120 <pthread_once@plt>:
  404120:	ff 25 1a 51 21 00    	jmpq   *0x21511a(%rip)        # 619240 <_GLOBAL_OFFSET_TABLE_+0x240>
  404126:	68 45 00 00 00       	pushq  $0x45
  40412b:	e9 90 fb ff ff       	jmpq   403cc0 <_init+0x28>

0000000000404130 <__gxx_personality_v0@plt>:
  404130:	ff 25 12 51 21 00    	jmpq   *0x215112(%rip)        # 619248 <_GLOBAL_OFFSET_TABLE_+0x248>
  404136:	68 46 00 00 00       	pushq  $0x46
  40413b:	e9 80 fb ff ff       	jmpq   403cc0 <_init+0x28>

0000000000404140 <__pthread_key_create@plt>:
  404140:	ff 25 0a 51 21 00    	jmpq   *0x21510a(%rip)        # 619250 <_GLOBAL_OFFSET_TABLE_+0x250>
  404146:	68 47 00 00 00       	pushq  $0x47
  40414b:	e9 70 fb ff ff       	jmpq   403cc0 <_init+0x28>

0000000000404150 <_ZNK11arm_compute7IKernel11border_sizeEv@plt>:
  404150:	ff 25 02 51 21 00    	jmpq   *0x215102(%rip)        # 619258 <_GLOBAL_OFFSET_TABLE_+0x258>
  404156:	68 48 00 00 00       	pushq  $0x48
  40415b:	e9 60 fb ff ff       	jmpq   403cc0 <_init+0x28>

0000000000404160 <clRetainContext@plt>:
  404160:	ff 25 fa 50 21 00    	jmpq   *0x2150fa(%rip)        # 619260 <_GLOBAL_OFFSET_TABLE_+0x260>
  404166:	68 49 00 00 00       	pushq  $0x49
  40416b:	e9 50 fb ff ff       	jmpq   403cc0 <_init+0x28>

0000000000404170 <_ZN11arm_compute10TensorInfoC1ERKNS_11TensorShapeENS_6FormatE@plt>:
  404170:	ff 25 f2 50 21 00    	jmpq   *0x2150f2(%rip)        # 619268 <_GLOBAL_OFFSET_TABLE_+0x268>
  404176:	68 4a 00 00 00       	pushq  $0x4a
  40417b:	e9 40 fb ff ff       	jmpq   403cc0 <_init+0x28>

0000000000404180 <__cxa_throw@plt>:
  404180:	ff 25 ea 50 21 00    	jmpq   *0x2150ea(%rip)        # 619270 <_GLOBAL_OFFSET_TABLE_+0x270>
  404186:	68 4b 00 00 00       	pushq  $0x4b
  40418b:	e9 30 fb ff ff       	jmpq   403cc0 <_init+0x28>

0000000000404190 <_Unwind_Resume@plt>:
  404190:	ff 25 e2 50 21 00    	jmpq   *0x2150e2(%rip)        # 619278 <_GLOBAL_OFFSET_TABLE_+0x278>
  404196:	68 4c 00 00 00       	pushq  $0x4c
  40419b:	e9 20 fb ff ff       	jmpq   403cc0 <_init+0x28>

00000000004041a0 <_ZNSaIcEC1Ev@plt>:
  4041a0:	ff 25 da 50 21 00    	jmpq   *0x2150da(%rip)        # 619280 <_GLOBAL_OFFSET_TABLE_+0x280>
  4041a6:	68 4d 00 00 00       	pushq  $0x4d
  4041ab:	e9 10 fb ff ff       	jmpq   403cc0 <_init+0x28>

00000000004041b0 <_ZN11arm_compute8CLTensor3mapEb@plt>:
  4041b0:	ff 25 d2 50 21 00    	jmpq   *0x2150d2(%rip)        # 619288 <_GLOBAL_OFFSET_TABLE_+0x288>
  4041b6:	68 4e 00 00 00       	pushq  $0x4e
  4041bb:	e9 00 fb ff ff       	jmpq   403cc0 <_init+0x28>

00000000004041c0 <_ZNSt9exceptionD2Ev@plt>:
  4041c0:	ff 25 ca 50 21 00    	jmpq   *0x2150ca(%rip)        # 619290 <_GLOBAL_OFFSET_TABLE_+0x290>
  4041c6:	68 4f 00 00 00       	pushq  $0x4f
  4041cb:	e9 f0 fa ff ff       	jmpq   403cc0 <_init+0x28>

00000000004041d0 <clReleaseKernel@plt>:
  4041d0:	ff 25 c2 50 21 00    	jmpq   *0x2150c2(%rip)        # 619298 <_GLOBAL_OFFSET_TABLE_+0x298>
  4041d6:	68 50 00 00 00       	pushq  $0x50
  4041db:	e9 e0 fa ff ff       	jmpq   403cc0 <_init+0x28>

00000000004041e0 <__libc_start_main@plt>:
  4041e0:	ff 25 ba 50 21 00    	jmpq   *0x2150ba(%rip)        # 6192a0 <_GLOBAL_OFFSET_TABLE_+0x2a0>
  4041e6:	68 51 00 00 00       	pushq  $0x51
  4041eb:	e9 d0 fa ff ff       	jmpq   403cc0 <_init+0x28>

00000000004041f0 <xopenme_add_var_f@plt>:
  4041f0:	ff 25 b2 50 21 00    	jmpq   *0x2150b2(%rip)        # 6192a8 <_GLOBAL_OFFSET_TABLE_+0x2a8>
  4041f6:	68 52 00 00 00       	pushq  $0x52
  4041fb:	e9 c0 fa ff ff       	jmpq   403cc0 <_init+0x28>

0000000000404200 <_ZN11arm_compute8CLTensorC1Ev@plt>:
  404200:	ff 25 aa 50 21 00    	jmpq   *0x2150aa(%rip)        # 6192b0 <_GLOBAL_OFFSET_TABLE_+0x2b0>
  404206:	68 53 00 00 00       	pushq  $0x53
  40420b:	e9 b0 fa ff ff       	jmpq   403cc0 <_init+0x28>

0000000000404210 <__cxa_pure_virtual@plt>:
  404210:	ff 25 a2 50 21 00    	jmpq   *0x2150a2(%rip)        # 6192b8 <_GLOBAL_OFFSET_TABLE_+0x2b8>
  404216:	68 54 00 00 00       	pushq  $0x54
  40421b:	e9 a0 fa ff ff       	jmpq   403cc0 <_init+0x28>

0000000000404220 <xopenme_get_timer@plt>:
  404220:	ff 25 9a 50 21 00    	jmpq   *0x21509a(%rip)        # 6192c0 <_GLOBAL_OFFSET_TABLE_+0x2c0>
  404226:	68 55 00 00 00       	pushq  $0x55
  40422b:	e9 90 fa ff ff       	jmpq   403cc0 <_init+0x28>

0000000000404230 <_ZNSt8ios_base4InitD1Ev@plt>:
  404230:	ff 25 92 50 21 00    	jmpq   *0x215092(%rip)        # 6192c8 <_GLOBAL_OFFSET_TABLE_+0x2c8>
  404236:	68 56 00 00 00       	pushq  $0x56
  40423b:	e9 80 fa ff ff       	jmpq   403cc0 <_init+0x28>

Disassembly of section .plt.got:

0000000000404240 <.plt.got>:
  404240:	ff 25 b2 4d 21 00    	jmpq   *0x214db2(%rip)        # 618ff8 <_DYNAMIC+0x230>
  404246:	66 90                	xchg   %ax,%ax

Disassembly of section .text:

0000000000404250 <_start>:
  404250:	31 ed                	xor    %ebp,%ebp
  404252:	49 89 d1             	mov    %rdx,%r9
  404255:	5e                   	pop    %rsi
  404256:	48 89 e2             	mov    %rsp,%rdx
  404259:	48 83 e4 f0          	and    $0xfffffffffffffff0,%rsp
  40425d:	50                   	push   %rax
  40425e:	54                   	push   %rsp
  40425f:	49 c7 c0 70 03 41 00 	mov    $0x410370,%r8
  404266:	48 c7 c1 00 03 41 00 	mov    $0x410300,%rcx
  40426d:	48 c7 c7 53 48 40 00 	mov    $0x404853,%rdi
  404274:	e8 67 ff ff ff       	callq  4041e0 <__libc_start_main@plt>
  404279:	f4                   	hlt    
  40427a:	66 0f 1f 44 00 00    	nopw   0x0(%rax,%rax,1)

0000000000404280 <deregister_tm_clones>:
  404280:	b8 e7 92 61 00       	mov    $0x6192e7,%eax
  404285:	55                   	push   %rbp
  404286:	48 2d e0 92 61 00    	sub    $0x6192e0,%rax
  40428c:	48 83 f8 0e          	cmp    $0xe,%rax
  404290:	48 89 e5             	mov    %rsp,%rbp
  404293:	76 1b                	jbe    4042b0 <deregister_tm_clones+0x30>
  404295:	b8 00 00 00 00       	mov    $0x0,%eax
  40429a:	48 85 c0             	test   %rax,%rax
  40429d:	74 11                	je     4042b0 <deregister_tm_clones+0x30>
  40429f:	5d                   	pop    %rbp
  4042a0:	bf e0 92 61 00       	mov    $0x6192e0,%edi
  4042a5:	ff e0                	jmpq   *%rax
  4042a7:	66 0f 1f 84 00 00 00 	nopw   0x0(%rax,%rax,1)
  4042ae:	00 00 
  4042b0:	5d                   	pop    %rbp
  4042b1:	c3                   	retq   
  4042b2:	0f 1f 40 00          	nopl   0x0(%rax)
  4042b6:	66 2e 0f 1f 84 00 00 	nopw   %cs:0x0(%rax,%rax,1)
  4042bd:	00 00 00 

00000000004042c0 <register_tm_clones>:
  4042c0:	be e0 92 61 00       	mov    $0x6192e0,%esi
  4042c5:	55                   	push   %rbp
  4042c6:	48 81 ee e0 92 61 00 	sub    $0x6192e0,%rsi
  4042cd:	48 c1 fe 03          	sar    $0x3,%rsi
  4042d1:	48 89 e5             	mov    %rsp,%rbp
  4042d4:	48 89 f0             	mov    %rsi,%rax
  4042d7:	48 c1 e8 3f          	shr    $0x3f,%rax
  4042db:	48 01 c6             	add    %rax,%rsi
  4042de:	48 d1 fe             	sar    %rsi
  4042e1:	74 15                	je     4042f8 <register_tm_clones+0x38>
  4042e3:	b8 00 00 00 00       	mov    $0x0,%eax
  4042e8:	48 85 c0             	test   %rax,%rax
  4042eb:	74 0b                	je     4042f8 <register_tm_clones+0x38>
  4042ed:	5d                   	pop    %rbp
  4042ee:	bf e0 92 61 00       	mov    $0x6192e0,%edi
  4042f3:	ff e0                	jmpq   *%rax
  4042f5:	0f 1f 00             	nopl   (%rax)
  4042f8:	5d                   	pop    %rbp
  4042f9:	c3                   	retq   
  4042fa:	66 0f 1f 44 00 00    	nopw   0x0(%rax,%rax,1)

0000000000404300 <__do_global_dtors_aux>:
  404300:	80 3d 29 53 21 00 00 	cmpb   $0x0,0x215329(%rip)        # 619630 <completed.7593>
  404307:	75 11                	jne    40431a <__do_global_dtors_aux+0x1a>
  404309:	55                   	push   %rbp
  40430a:	48 89 e5             	mov    %rsp,%rbp
  40430d:	e8 6e ff ff ff       	callq  404280 <deregister_tm_clones>
  404312:	5d                   	pop    %rbp
  404313:	c6 05 16 53 21 00 01 	movb   $0x1,0x215316(%rip)        # 619630 <completed.7593>
  40431a:	f3 c3                	repz retq 
  40431c:	0f 1f 40 00          	nopl   0x0(%rax)

0000000000404320 <frame_dummy>:
  404320:	bf c0 8d 61 00       	mov    $0x618dc0,%edi
  404325:	48 83 3f 00          	cmpq   $0x0,(%rdi)
  404329:	75 05                	jne    404330 <frame_dummy+0x10>
  40432b:	eb 93                	jmp    4042c0 <register_tm_clones>
  40432d:	0f 1f 00             	nopl   (%rax)
  404330:	b8 00 00 00 00       	mov    $0x0,%eax
  404335:	48 85 c0             	test   %rax,%rax
  404338:	74 f1                	je     40432b <frame_dummy+0xb>
  40433a:	55                   	push   %rbp
  40433b:	48 89 e5             	mov    %rsp,%rbp
  40433e:	ff d0                	callq  *%rax
  404340:	5d                   	pop    %rbp
  404341:	e9 7a ff ff ff       	jmpq   4042c0 <register_tm_clones>

0000000000404346 <_ZL18__gthread_active_pv>:
  404346:	55                   	push   %rbp
  404347:	48 89 e5             	mov    %rsp,%rbp
  40434a:	b8 01 00 00 00       	mov    $0x1,%eax
  40434f:	ba 40 41 40 00       	mov    $0x404140,%edx
  404354:	48 85 d2             	test   %rdx,%rdx
  404357:	75 05                	jne    40435e <_ZL18__gthread_active_pv+0x18>
  404359:	b8 00 00 00 00       	mov    $0x0,%eax
  40435e:	0f b6 c0             	movzbl %al,%eax
  404361:	5d                   	pop    %rbp
  404362:	c3                   	retq   

0000000000404363 <_ZL14__gthread_oncePiPFvvE>:
  404363:	55                   	push   %rbp
  404364:	48 89 e5             	mov    %rsp,%rbp
  404367:	48 83 ec 10          	sub    $0x10,%rsp
  40436b:	48 89 7d f8          	mov    %rdi,-0x8(%rbp)
  40436f:	48 89 75 f0          	mov    %rsi,-0x10(%rbp)
  404373:	e8 ce ff ff ff       	callq  404346 <_ZL18__gthread_active_pv>
  404378:	85 c0                	test   %eax,%eax
  40437a:	0f 95 c0             	setne  %al
  40437d:	84 c0                	test   %al,%al
  40437f:	74 15                	je     404396 <_ZL14__gthread_oncePiPFvvE+0x33>
  404381:	48 8b 55 f0          	mov    -0x10(%rbp),%rdx
  404385:	48 8b 45 f8          	mov    -0x8(%rbp),%rax
  404389:	48 89 d6             	mov    %rdx,%rsi
  40438c:	48 89 c7             	mov    %rax,%rdi
  40438f:	e8 8c fd ff ff       	callq  404120 <pthread_once@plt>
  404394:	eb 05                	jmp    40439b <_ZL14__gthread_oncePiPFvvE+0x38>
  404396:	b8 ff ff ff ff       	mov    $0xffffffff,%eax
  40439b:	c9                   	leaveq 
  40439c:	c3                   	retq   

000000000040439d <_ZN2cl6detailL10errHandlerEiPKc>:
  40439d:	55                   	push   %rbp
  40439e:	48 89 e5             	mov    %rsp,%rbp
  4043a1:	53                   	push   %rbx
  4043a2:	48 83 ec 18          	sub    $0x18,%rsp
  4043a6:	89 7d ec             	mov    %edi,-0x14(%rbp)
  4043a9:	48 89 75 e0          	mov    %rsi,-0x20(%rbp)
  4043ad:	83 7d ec 00          	cmpl   $0x0,-0x14(%rbp)
  4043b1:	74 30                	je     4043e3 <_ZN2cl6detailL10errHandlerEiPKc+0x46>
  4043b3:	bf 18 00 00 00       	mov    $0x18,%edi
  4043b8:	e8 73 fa ff ff       	callq  403e30 <__cxa_allocate_exception@plt>
  4043bd:	48 89 c3             	mov    %rax,%rbx
  4043c0:	48 8b 55 e0          	mov    -0x20(%rbp),%rdx
  4043c4:	8b 45 ec             	mov    -0x14(%rbp),%eax
  4043c7:	89 c6                	mov    %eax,%esi
  4043c9:	48 89 df             	mov    %rbx,%rdi
  4043cc:	e8 d7 0a 00 00       	callq  404ea8 <_ZN2cl5ErrorC1EiPKc>
  4043d1:	ba ec 4e 40 00       	mov    $0x404eec,%edx
  4043d6:	be 18 0a 41 00       	mov    $0x410a18,%esi
  4043db:	48 89 df             	mov    %rbx,%rdi
  4043de:	e8 9d fd ff ff       	callq  404180 <__cxa_throw@plt>
  4043e3:	8b 45 ec             	mov    -0x14(%rbp),%eax
  4043e6:	48 83 c4 18          	add    $0x18,%rsp
  4043ea:	5b                   	pop    %rbx
  4043eb:	5d                   	pop    %rbp
  4043ec:	c3                   	retq   

00000000004043ed <_ZN2cl6detailL10getVersionERKSt6vectorIcSaIcEE>:
  4043ed:	55                   	push   %rbp
  4043ee:	48 89 e5             	mov    %rsp,%rbp
  4043f1:	48 83 ec 20          	sub    $0x20,%rsp
  4043f5:	48 89 7d e8          	mov    %rdi,-0x18(%rbp)
  4043f9:	c7 45 f4 00 00 00 00 	movl   $0x0,-0xc(%rbp)
  404400:	c7 45 f8 00 00 00 00 	movl   $0x0,-0x8(%rbp)
  404407:	c7 45 fc 07 00 00 00 	movl   $0x7,-0x4(%rbp)
  40440e:	8b 45 fc             	mov    -0x4(%rbp),%eax
  404411:	48 63 d0             	movslq %eax,%rdx
  404414:	48 8b 45 e8          	mov    -0x18(%rbp),%rax
  404418:	48 89 d6             	mov    %rdx,%rsi
  40441b:	48 89 c7             	mov    %rax,%rdi
  40441e:	e8 61 36 00 00       	callq  407a84 <_ZNKSt6vectorIcSaIcEEixEm>
  404423:	0f b6 00             	movzbl (%rax),%eax
  404426:	3c 2e                	cmp    $0x2e,%al
  404428:	0f 95 c0             	setne  %al
  40442b:	84 c0                	test   %al,%al
  40442d:	74 36                	je     404465 <_ZN2cl6detailL10getVersionERKSt6vectorIcSaIcEE+0x78>
  40442f:	8b 55 f4             	mov    -0xc(%rbp),%edx
  404432:	89 d0                	mov    %edx,%eax
  404434:	c1 e0 02             	shl    $0x2,%eax
  404437:	01 d0                	add    %edx,%eax
  404439:	01 c0                	add    %eax,%eax
  40443b:	89 45 f4             	mov    %eax,-0xc(%rbp)
  40443e:	8b 45 fc             	mov    -0x4(%rbp),%eax
  404441:	48 63 d0             	movslq %eax,%rdx
  404444:	48 8b 45 e8          	mov    -0x18(%rbp),%rax
  404448:	48 89 d6             	mov    %rdx,%rsi
  40444b:	48 89 c7             	mov    %rax,%rdi
  40444e:	e8 31 36 00 00       	callq  407a84 <_ZNKSt6vectorIcSaIcEEixEm>
  404453:	0f b6 00             	movzbl (%rax),%eax
  404456:	0f be c0             	movsbl %al,%eax
  404459:	83 e8 30             	sub    $0x30,%eax
  40445c:	01 45 f4             	add    %eax,-0xc(%rbp)
  40445f:	83 45 fc 01          	addl   $0x1,-0x4(%rbp)
  404463:	eb a9                	jmp    40440e <_ZN2cl6detailL10getVersionERKSt6vectorIcSaIcEE+0x21>
  404465:	83 45 fc 01          	addl   $0x1,-0x4(%rbp)
  404469:	8b 45 fc             	mov    -0x4(%rbp),%eax
  40446c:	48 63 d0             	movslq %eax,%rdx
  40446f:	48 8b 45 e8          	mov    -0x18(%rbp),%rax
  404473:	48 89 d6             	mov    %rdx,%rsi
  404476:	48 89 c7             	mov    %rax,%rdi
  404479:	e8 06 36 00 00       	callq  407a84 <_ZNKSt6vectorIcSaIcEEixEm>
  40447e:	0f b6 00             	movzbl (%rax),%eax
  404481:	3c 20                	cmp    $0x20,%al
  404483:	74 23                	je     4044a8 <_ZN2cl6detailL10getVersionERKSt6vectorIcSaIcEE+0xbb>
  404485:	8b 45 fc             	mov    -0x4(%rbp),%eax
  404488:	48 63 d0             	movslq %eax,%rdx
  40448b:	48 8b 45 e8          	mov    -0x18(%rbp),%rax
  40448f:	48 89 d6             	mov    %rdx,%rsi
  404492:	48 89 c7             	mov    %rax,%rdi
  404495:	e8 ea 35 00 00       	callq  407a84 <_ZNKSt6vectorIcSaIcEEixEm>
  40449a:	0f b6 00             	movzbl (%rax),%eax
  40449d:	84 c0                	test   %al,%al
  40449f:	74 07                	je     4044a8 <_ZN2cl6detailL10getVersionERKSt6vectorIcSaIcEE+0xbb>
  4044a1:	b8 01 00 00 00       	mov    $0x1,%eax
  4044a6:	eb 05                	jmp    4044ad <_ZN2cl6detailL10getVersionERKSt6vectorIcSaIcEE+0xc0>
  4044a8:	b8 00 00 00 00       	mov    $0x0,%eax
  4044ad:	84 c0                	test   %al,%al
  4044af:	74 36                	je     4044e7 <_ZN2cl6detailL10getVersionERKSt6vectorIcSaIcEE+0xfa>
  4044b1:	8b 55 f8             	mov    -0x8(%rbp),%edx
  4044b4:	89 d0                	mov    %edx,%eax
  4044b6:	c1 e0 02             	shl    $0x2,%eax
  4044b9:	01 d0                	add    %edx,%eax
  4044bb:	01 c0                	add    %eax,%eax
  4044bd:	89 45 f8             	mov    %eax,-0x8(%rbp)
  4044c0:	8b 45 fc             	mov    -0x4(%rbp),%eax
  4044c3:	48 63 d0             	movslq %eax,%rdx
  4044c6:	48 8b 45 e8          	mov    -0x18(%rbp),%rax
  4044ca:	48 89 d6             	mov    %rdx,%rsi
  4044cd:	48 89 c7             	mov    %rax,%rdi
  4044d0:	e8 af 35 00 00       	callq  407a84 <_ZNKSt6vectorIcSaIcEEixEm>
  4044d5:	0f b6 00             	movzbl (%rax),%eax
  4044d8:	0f be c0             	movsbl %al,%eax
  4044db:	83 e8 30             	sub    $0x30,%eax
  4044de:	01 45 f8             	add    %eax,-0x8(%rbp)
  4044e1:	83 45 fc 01          	addl   $0x1,-0x4(%rbp)
  4044e5:	eb 82                	jmp    404469 <_ZN2cl6detailL10getVersionERKSt6vectorIcSaIcEE+0x7c>
  4044e7:	8b 45 f4             	mov    -0xc(%rbp),%eax
  4044ea:	c1 e0 10             	shl    $0x10,%eax
  4044ed:	0b 45 f8             	or     -0x8(%rbp),%eax
  4044f0:	c9                   	leaveq 
  4044f1:	c3                   	retq   

00000000004044f2 <_ZN2CK16store_setup_timeEf>:
  4044f2:	55                   	push   %rbp
  4044f3:	48 89 e5             	mov    %rsp,%rbp
  4044f6:	48 83 ec 10          	sub    $0x10,%rsp
  4044fa:	f3 0f 11 45 fc       	movss  %xmm0,-0x4(%rbp)
  4044ff:	8b 45 fc             	mov    -0x4(%rbp),%eax
  404502:	89 45 f8             	mov    %eax,-0x8(%rbp)
  404505:	f3 0f 10 45 f8       	movss  -0x8(%rbp),%xmm0
  40450a:	be 70 05 41 00       	mov    $0x410570,%esi
  40450f:	bf 0a 00 00 00       	mov    $0xa,%edi
  404514:	e8 bd 2e 00 00       	callq  4073d6 <_ZN2CK13store_value_fEiPKcf>
  404519:	90                   	nop
  40451a:	c9                   	leaveq 
  40451b:	c3                   	retq   

000000000040451c <_ZN2CK15store_test_timeEf>:
  40451c:	55                   	push   %rbp
  40451d:	48 89 e5             	mov    %rsp,%rbp
  404520:	48 83 ec 10          	sub    $0x10,%rsp
  404524:	f3 0f 11 45 fc       	movss  %xmm0,-0x4(%rbp)
  404529:	8b 45 fc             	mov    -0x4(%rbp),%eax
  40452c:	89 45 f8             	mov    %eax,-0x8(%rbp)
  40452f:	f3 0f 10 45 f8       	movss  -0x8(%rbp),%xmm0
  404534:	be 7b 05 41 00       	mov    $0x41057b,%esi
  404539:	bf 0b 00 00 00       	mov    $0xb,%edi
  40453e:	e8 93 2e 00 00       	callq  4073d6 <_ZN2CK13store_value_fEiPKcf>
  404543:	90                   	nop
  404544:	c9                   	leaveq 
  404545:	c3                   	retq   

0000000000404546 <_ZN2CK5armcl15printf_callbackEPKcjmPv>:
  404546:	55                   	push   %rbp
  404547:	48 89 e5             	mov    %rsp,%rbp
  40454a:	48 83 ec 20          	sub    $0x20,%rsp
  40454e:	48 89 7d f8          	mov    %rdi,-0x8(%rbp)
  404552:	89 75 f4             	mov    %esi,-0xc(%rbp)
  404555:	48 89 55 e8          	mov    %rdx,-0x18(%rbp)
  404559:	48 89 4d e0          	mov    %rcx,-0x20(%rbp)
  40455d:	48 8b 55 f8          	mov    -0x8(%rbp),%rdx
  404561:	8b 45 f4             	mov    -0xc(%rbp),%eax
  404564:	89 c6                	mov    %eax,%esi
  404566:	bf 85 05 41 00       	mov    $0x410585,%edi
  40456b:	b8 00 00 00 00       	mov    $0x0,%eax
  404570:	e8 7b f7 ff ff       	callq  403cf0 <printf@plt>
  404575:	90                   	nop
  404576:	c9                   	leaveq 
  404577:	c3                   	retq   

0000000000404578 <_ZZ4mainENKUlvE_clEv>:
  404578:	55                   	push   %rbp
  404579:	48 89 e5             	mov    %rsp,%rbp
  40457c:	53                   	push   %rbx
  40457d:	48 81 ec c8 01 00 00 	sub    $0x1c8,%rsp
  404584:	48 89 bd 38 fe ff ff 	mov    %rdi,-0x1c8(%rbp)
  40458b:	64 48 8b 04 25 28 00 	mov    %fs:0x28,%rax
  404592:	00 00 
  404594:	48 89 45 e8          	mov    %rax,-0x18(%rbp)
  404598:	31 c0                	xor    %eax,%eax
  40459a:	48 8b 85 38 fe ff ff 	mov    -0x1c8(%rbp),%rax
  4045a1:	48 8b 00             	mov    (%rax),%rax
  4045a4:	8b 00                	mov    (%rax),%eax
  4045a6:	89 c7                	mov    %eax,%edi
  4045a8:	48 8b 85 38 fe ff ff 	mov    -0x1c8(%rbp),%rax
  4045af:	48 8b 00             	mov    (%rax),%rax
  4045b2:	8b 40 04             	mov    0x4(%rax),%eax
  4045b5:	89 c1                	mov    %eax,%ecx
  4045b7:	48 8b 85 38 fe ff ff 	mov    -0x1c8(%rbp),%rax
  4045be:	48 8b 00             	mov    (%rax),%rax
  4045c1:	8b 40 08             	mov    0x8(%rax),%eax
  4045c4:	89 c2                	mov    %eax,%edx
  4045c6:	48 8b 85 38 fe ff ff 	mov    -0x1c8(%rbp),%rax
  4045cd:	48 8b 00             	mov    (%rax),%rax
  4045d0:	8b 40 0c             	mov    0xc(%rax),%eax
  4045d3:	89 c6                	mov    %eax,%esi
  4045d5:	48 8d 85 50 fe ff ff 	lea    -0x1b0(%rbp),%rax
  4045dc:	41 89 f8             	mov    %edi,%r8d
  4045df:	48 89 c7             	mov    %rax,%rdi
  4045e2:	e8 df 44 00 00       	callq  408ac6 <_ZN11arm_compute11TensorShapeC1IJjjjjEEEDpT_>
  4045e7:	48 8b 85 38 fe ff ff 	mov    -0x1c8(%rbp),%rax
  4045ee:	48 8b 00             	mov    (%rax),%rax
  4045f1:	8b 00                	mov    (%rax),%eax
  4045f3:	89 c7                	mov    %eax,%edi
  4045f5:	48 8b 85 38 fe ff ff 	mov    -0x1c8(%rbp),%rax
  4045fc:	48 8b 40 08          	mov    0x8(%rax),%rax
  404600:	8b 40 04             	mov    0x4(%rax),%eax
  404603:	89 c1                	mov    %eax,%ecx
  404605:	48 8b 85 38 fe ff ff 	mov    -0x1c8(%rbp),%rax
  40460c:	48 8b 40 08          	mov    0x8(%rax),%rax
  404610:	8b 40 08             	mov    0x8(%rax),%eax
  404613:	89 c2                	mov    %eax,%edx
  404615:	48 8b 85 38 fe ff ff 	mov    -0x1c8(%rbp),%rax
  40461c:	48 8b 40 08          	mov    0x8(%rax),%rax
  404620:	8b 40 0c             	mov    0xc(%rax),%eax
  404623:	89 c6                	mov    %eax,%esi
  404625:	48 8d 85 90 fe ff ff 	lea    -0x170(%rbp),%rax
  40462c:	41 89 f8             	mov    %edi,%r8d
  40462f:	48 89 c7             	mov    %rax,%rdi
  404632:	e8 8f 44 00 00       	callq  408ac6 <_ZN11arm_compute11TensorShapeC1IJjjjjEEEDpT_>
  404637:	48 8d 8d 50 fe ff ff 	lea    -0x1b0(%rbp),%rcx
  40463e:	48 8d 85 d0 fe ff ff 	lea    -0x130(%rbp),%rax
  404645:	ba 07 00 00 00       	mov    $0x7,%edx
  40464a:	48 89 ce             	mov    %rcx,%rsi
  40464d:	48 89 c7             	mov    %rax,%rdi
  404650:	e8 1b fb ff ff       	callq  404170 <_ZN11arm_compute10TensorInfoC1ERKNS_11TensorShapeENS_6FormatE@plt>
  404655:	48 8b 85 38 fe ff ff 	mov    -0x1c8(%rbp),%rax
  40465c:	48 8b 40 10          	mov    0x10(%rax),%rax
  404660:	48 89 c7             	mov    %rax,%rdi
  404663:	e8 08 f9 ff ff       	callq  403f70 <_ZN11arm_compute8CLTensor9allocatorEv@plt>
  404668:	48 89 c2             	mov    %rax,%rdx
  40466b:	48 8d 85 d0 fe ff ff 	lea    -0x130(%rbp),%rax
  404672:	48 89 c6             	mov    %rax,%rsi
  404675:	48 89 d7             	mov    %rdx,%rdi
  404678:	e8 d3 f8 ff ff       	callq  403f50 <_ZN11arm_compute16ITensorAllocator4initERKNS_10TensorInfoE@plt>
  40467d:	48 8d 85 d0 fe ff ff 	lea    -0x130(%rbp),%rax
  404684:	48 89 c7             	mov    %rax,%rdi
  404687:	e8 2a 84 00 00       	callq  40cab6 <_ZN11arm_compute10TensorInfoD1Ev>
  40468c:	48 8d 8d 90 fe ff ff 	lea    -0x170(%rbp),%rcx
  404693:	48 8d 85 d0 fe ff ff 	lea    -0x130(%rbp),%rax
  40469a:	ba 07 00 00 00       	mov    $0x7,%edx
  40469f:	48 89 ce             	mov    %rcx,%rsi
  4046a2:	48 89 c7             	mov    %rax,%rdi
  4046a5:	e8 c6 fa ff ff       	callq  404170 <_ZN11arm_compute10TensorInfoC1ERKNS_11TensorShapeENS_6FormatE@plt>
  4046aa:	48 8b 85 38 fe ff ff 	mov    -0x1c8(%rbp),%rax
  4046b1:	48 8b 40 18          	mov    0x18(%rax),%rax
  4046b5:	48 89 c7             	mov    %rax,%rdi
  4046b8:	e8 b3 f8 ff ff       	callq  403f70 <_ZN11arm_compute8CLTensor9allocatorEv@plt>
  4046bd:	48 89 c2             	mov    %rax,%rdx
  4046c0:	48 8d 85 d0 fe ff ff 	lea    -0x130(%rbp),%rax
  4046c7:	48 89 c6             	mov    %rax,%rsi
  4046ca:	48 89 d7             	mov    %rdx,%rdi
  4046cd:	e8 7e f8 ff ff       	callq  403f50 <_ZN11arm_compute16ITensorAllocator4initERKNS_10TensorInfoE@plt>
  4046d2:	48 8d 85 d0 fe ff ff 	lea    -0x130(%rbp),%rax
  4046d9:	48 89 c7             	mov    %rax,%rdi
  4046dc:	e8 d5 83 00 00       	callq  40cab6 <_ZN11arm_compute10TensorInfoD1Ev>
  4046e1:	48 8b 85 38 fe ff ff 	mov    -0x1c8(%rbp),%rax
  4046e8:	48 8b 40 18          	mov    0x18(%rax),%rax
  4046ec:	48 89 c2             	mov    %rax,%rdx
  4046ef:	48 8b 85 38 fe ff ff 	mov    -0x1c8(%rbp),%rax
  4046f6:	48 8b 40 10          	mov    0x10(%rax),%rax
  4046fa:	48 89 c1             	mov    %rax,%rcx
  4046fd:	48 8b 85 38 fe ff ff 	mov    -0x1c8(%rbp),%rax
  404704:	48 8b 40 20          	mov    0x20(%rax),%rax
  404708:	48 89 ce             	mov    %rcx,%rsi
  40470b:	48 89 c7             	mov    %rax,%rdi
  40470e:	e8 3d f7 ff ff       	callq  403e50 <_ZN11arm_compute14CLReshapeLayer9configureEPKNS_9ICLTensorEPS1_@plt>
  404713:	48 8b 85 38 fe ff ff 	mov    -0x1c8(%rbp),%rax
  40471a:	48 8b 40 10          	mov    0x10(%rax),%rax
  40471e:	48 89 c7             	mov    %rax,%rdi
  404721:	e8 4a f8 ff ff       	callq  403f70 <_ZN11arm_compute8CLTensor9allocatorEv@plt>
  404726:	48 8b 10             	mov    (%rax),%rdx
  404729:	48 83 c2 10          	add    $0x10,%rdx
  40472d:	48 8b 12             	mov    (%rdx),%rdx
  404730:	48 89 c7             	mov    %rax,%rdi
  404733:	ff d2                	callq  *%rdx
  404735:	48 8b 85 38 fe ff ff 	mov    -0x1c8(%rbp),%rax
  40473c:	48 8b 40 18          	mov    0x18(%rax),%rax
  404740:	48 89 c7             	mov    %rax,%rdi
  404743:	e8 28 f8 ff ff       	callq  403f70 <_ZN11arm_compute8CLTensor9allocatorEv@plt>
  404748:	48 8b 10             	mov    (%rax),%rdx
  40474b:	48 83 c2 10          	add    $0x10,%rdx
  40474f:	48 8b 12             	mov    (%rdx),%rdx
  404752:	48 89 c7             	mov    %rax,%rdi
  404755:	ff d2                	callq  *%rdx
  404757:	48 8b 85 38 fe ff ff 	mov    -0x1c8(%rbp),%rax
  40475e:	48 8b 00             	mov    (%rax),%rax
  404761:	48 89 c7             	mov    %rax,%rdi
  404764:	e8 1d 44 00 00       	callq  408b86 <_ZN2CK19get_random_raw_dataIfEEPT_RKNS_5ShapeE>
  404769:	48 89 85 48 fe ff ff 	mov    %rax,-0x1b8(%rbp)
  404770:	48 8b 85 38 fe ff ff 	mov    -0x1c8(%rbp),%rax
  404777:	48 8b 10             	mov    (%rax),%rdx
  40477a:	48 8b 85 48 fe ff ff 	mov    -0x1b8(%rbp),%rax
  404781:	48 89 d6             	mov    %rdx,%rsi
  404784:	48 89 c7             	mov    %rax,%rdi
  404787:	e8 e1 44 00 00       	callq  408c6d <_ZN2CK20print_input_raw_dataIfEEvPT_RKNS_5ShapeE>
  40478c:	48 8b 85 38 fe ff ff 	mov    -0x1c8(%rbp),%rax
  404793:	48 8b 10             	mov    (%rax),%rdx
  404796:	48 8b 85 38 fe ff ff 	mov    -0x1c8(%rbp),%rax
  40479d:	48 8b 40 10          	mov    0x10(%rax),%rax
  4047a1:	48 8b 8d 48 fe ff ff 	mov    -0x1b8(%rbp),%rcx
  4047a8:	48 89 ce             	mov    %rcx,%rsi
  4047ab:	48 89 c7             	mov    %rax,%rdi
  4047ae:	e8 4b 45 00 00       	callq  408cfe <_ZN2CK5armcl23copy_raw_data_to_tensorIfEEvPN11arm_compute8CLTensorEPT_RKNS_5ShapeE>
  4047b3:	48 83 bd 48 fe ff ff 	cmpq   $0x0,-0x1b8(%rbp)
  4047ba:	00 
  4047bb:	74 4b                	je     404808 <_ZZ4mainENKUlvE_clEv+0x290>
  4047bd:	48 8b 85 48 fe ff ff 	mov    -0x1b8(%rbp),%rax
  4047c4:	48 89 c7             	mov    %rax,%rdi
  4047c7:	e8 14 f8 ff ff       	callq  403fe0 <_ZdaPv@plt>
  4047cc:	eb 3a                	jmp    404808 <_ZZ4mainENKUlvE_clEv+0x290>
  4047ce:	48 89 c3             	mov    %rax,%rbx
  4047d1:	48 8d 85 d0 fe ff ff 	lea    -0x130(%rbp),%rax
  4047d8:	48 89 c7             	mov    %rax,%rdi
  4047db:	e8 d6 82 00 00       	callq  40cab6 <_ZN11arm_compute10TensorInfoD1Ev>
  4047e0:	48 89 d8             	mov    %rbx,%rax
  4047e3:	48 89 c7             	mov    %rax,%rdi
  4047e6:	e8 a5 f9 ff ff       	callq  404190 <_Unwind_Resume@plt>
  4047eb:	48 89 c3             	mov    %rax,%rbx
  4047ee:	48 8d 85 d0 fe ff ff 	lea    -0x130(%rbp),%rax
  4047f5:	48 89 c7             	mov    %rax,%rdi
  4047f8:	e8 b9 82 00 00       	callq  40cab6 <_ZN11arm_compute10TensorInfoD1Ev>
  4047fd:	48 89 d8             	mov    %rbx,%rax
  404800:	48 89 c7             	mov    %rax,%rdi
  404803:	e8 88 f9 ff ff       	callq  404190 <_Unwind_Resume@plt>
  404808:	90                   	nop
  404809:	48 8b 45 e8          	mov    -0x18(%rbp),%rax
  40480d:	64 48 33 04 25 28 00 	xor    %fs:0x28,%rax
  404814:	00 00 
  404816:	74 05                	je     40481d <_ZZ4mainENKUlvE_clEv+0x2a5>
  404818:	e8 13 f7 ff ff       	callq  403f30 <__stack_chk_fail@plt>
  40481d:	48 81 c4 c8 01 00 00 	add    $0x1c8,%rsp
  404824:	5b                   	pop    %rbx
  404825:	5d                   	pop    %rbp
  404826:	c3                   	retq   
  404827:	90                   	nop

0000000000404828 <_ZZ4mainENKUlvE0_clEv>:
  404828:	55                   	push   %rbp
  404829:	48 89 e5             	mov    %rsp,%rbp
  40482c:	48 83 ec 10          	sub    $0x10,%rsp
  404830:	48 89 7d f8          	mov    %rdi,-0x8(%rbp)
  404834:	48 8b 45 f8          	mov    -0x8(%rbp),%rax
  404838:	48 8b 00             	mov    (%rax),%rax
  40483b:	48 89 c7             	mov    %rax,%rdi
  40483e:	e8 bd f6 ff ff       	callq  403f00 <_ZN11arm_compute17ICLSimpleFunction3runEv@plt>
  404843:	e8 c8 f4 ff ff       	callq  403d10 <_ZN11arm_compute11CLScheduler3getEv@plt>
  404848:	48 89 c7             	mov    %rax,%rdi
  40484b:	e8 0e 2a 00 00       	callq  40725e <_ZN11arm_compute11CLScheduler4syncEv>
  404850:	90                   	nop
  404851:	c9                   	leaveq 
  404852:	c3                   	retq   

0000000000404853 <main>:
  404853:	55                   	push   %rbp
  404854:	48 89 e5             	mov    %rsp,%rbp
  404857:	41 54                	push   %r12
  404859:	53                   	push   %rbx
  40485a:	48 81 ec e0 03 00 00 	sub    $0x3e0,%rsp
  404861:	64 48 8b 04 25 28 00 	mov    %fs:0x28,%rax
  404868:	00 00 
  40486a:	48 89 45 e8          	mov    %rax,-0x18(%rbp)
  40486e:	31 c0                	xor    %eax,%eax
  404870:	e8 f2 2c 00 00       	callq  407567 <_ZN2CK9init_testEv>
  404875:	48 c7 85 20 fc ff ff 	movq   $0x0,-0x3e0(%rbp)
  40487c:	00 00 00 00 
  404880:	bf b7 05 41 00       	mov    $0x4105b7,%edi
  404885:	e8 f6 f6 ff ff       	callq  403f80 <getenv@plt>
  40488a:	48 85 c0             	test   %rax,%rax
  40488d:	0f 95 c0             	setne  %al
  404890:	88 85 1f fc ff ff    	mov    %al,-0x3e1(%rbp)
  404896:	80 bd 1f fc ff ff 00 	cmpb   $0x0,-0x3e1(%rbp)
  40489d:	74 1c                	je     4048bb <main+0x68>
  40489f:	bf 40 00 00 00       	mov    $0x40,%edi
  4048a4:	e8 47 f6 ff ff       	callq  403ef0 <_Znwm@plt>
  4048a9:	48 89 c3             	mov    %rax,%rbx
  4048ac:	48 89 df             	mov    %rbx,%rdi
  4048af:	e8 a6 83 00 00       	callq  40cc5a <_ZN11arm_compute15CLTuner_ReshapeC1Ev>
  4048b4:	48 89 9d 20 fc ff ff 	mov    %rbx,-0x3e0(%rbp)
  4048bb:	48 8b 85 20 fc ff ff 	mov    -0x3e0(%rbp),%rax
  4048c2:	48 89 c7             	mov    %rax,%rdi
  4048c5:	e8 16 2e 00 00       	callq  4076e0 <_ZN2CK5armcl10init_armclEPN11arm_compute8ICLTunerE>
  4048ca:	b9 01 00 00 00       	mov    $0x1,%ecx
  4048cf:	ba 01 00 00 00       	mov    $0x1,%edx
  4048d4:	be 03 00 00 00       	mov    $0x3,%esi
  4048d9:	bf 01 00 00 00       	mov    $0x1,%edi
  4048de:	e8 6f 2b 00 00       	callq  407452 <_ZN2CK24get_input_shape_from_envEiiii>
  4048e3:	48 89 85 30 fc ff ff 	mov    %rax,-0x3d0(%rbp)
  4048ea:	48 89 95 38 fc ff ff 	mov    %rdx,-0x3c8(%rbp)
  4048f1:	c7 85 40 fc ff ff 01 	movl   $0x1,-0x3c0(%rbp)
  4048f8:	00 00 00 
  4048fb:	c7 85 44 fc ff ff 01 	movl   $0x1,-0x3bc(%rbp)
  404902:	00 00 00 
  404905:	c7 85 48 fc ff ff 01 	movl   $0x1,-0x3b8(%rbp)
  40490c:	00 00 00 
  40490f:	c7 85 4c fc ff ff 01 	movl   $0x1,-0x3b4(%rbp)
  404916:	00 00 00 
  404919:	8b 85 30 fc ff ff    	mov    -0x3d0(%rbp),%eax
  40491f:	89 85 40 fc ff ff    	mov    %eax,-0x3c0(%rbp)
  404925:	be 01 00 00 00       	mov    $0x1,%esi
  40492a:	bf cb 05 41 00       	mov    $0x4105cb,%edi
  40492f:	e8 f5 29 00 00       	callq  407329 <_ZN2CK8getenv_iEPKci>
  404934:	89 85 48 fc ff ff    	mov    %eax,-0x3b8(%rbp)
  40493a:	be 01 00 00 00       	mov    $0x1,%esi
  40493f:	bf cb 05 41 00       	mov    $0x4105cb,%edi
  404944:	e8 e0 29 00 00       	callq  407329 <_ZN2CK8getenv_iEPKci>
  404949:	89 85 48 fc ff ff    	mov    %eax,-0x3b8(%rbp)
  40494f:	be 01 00 00 00       	mov    $0x1,%esi
  404954:	bf da 05 41 00       	mov    $0x4105da,%edi
  404959:	e8 cb 29 00 00       	callq  407329 <_ZN2CK8getenv_iEPKci>
  40495e:	89 85 4c fc ff ff    	mov    %eax,-0x3b4(%rbp)
  404964:	be 01 00 00 00       	mov    $0x1,%esi
  404969:	bf e9 05 41 00       	mov    $0x4105e9,%edi
  40496e:	e8 b6 29 00 00       	callq  407329 <_ZN2CK8getenv_iEPKci>
  404973:	89 85 44 fc ff ff    	mov    %eax,-0x3bc(%rbp)
  404979:	48 8d 85 40 fd ff ff 	lea    -0x2c0(%rbp),%rax
  404980:	48 89 c7             	mov    %rax,%rdi
  404983:	e8 78 f8 ff ff       	callq  404200 <_ZN11arm_compute8CLTensorC1Ev@plt>
  404988:	48 8d 85 90 fe ff ff 	lea    -0x170(%rbp),%rax
  40498f:	48 89 c7             	mov    %rax,%rdi
  404992:	e8 69 f8 ff ff       	callq  404200 <_ZN11arm_compute8CLTensorC1Ev@plt>
  404997:	48 8d 85 80 fc ff ff 	lea    -0x380(%rbp),%rax
  40499e:	48 89 c7             	mov    %rax,%rdi
  4049a1:	e8 6a 30 00 00       	callq  407a10 <_ZN11arm_compute14CLReshapeLayerC1Ev>
  4049a6:	48 8d 85 30 fc ff ff 	lea    -0x3d0(%rbp),%rax
  4049ad:	48 89 85 50 fc ff ff 	mov    %rax,-0x3b0(%rbp)
  4049b4:	48 8d 85 40 fc ff ff 	lea    -0x3c0(%rbp),%rax
  4049bb:	48 89 85 58 fc ff ff 	mov    %rax,-0x3a8(%rbp)
  4049c2:	48 8d 85 40 fd ff ff 	lea    -0x2c0(%rbp),%rax
  4049c9:	48 89 85 60 fc ff ff 	mov    %rax,-0x3a0(%rbp)
  4049d0:	48 8d 85 90 fe ff ff 	lea    -0x170(%rbp),%rax
  4049d7:	48 89 85 68 fc ff ff 	mov    %rax,-0x398(%rbp)
  4049de:	48 8d 85 80 fc ff ff 	lea    -0x380(%rbp),%rax
  4049e5:	48 89 85 70 fc ff ff 	mov    %rax,-0x390(%rbp)
  4049ec:	48 8d 85 50 fc ff ff 	lea    -0x3b0(%rbp),%rax
  4049f3:	48 89 c7             	mov    %rax,%rdi
  4049f6:	e8 e4 01 00 00       	callq  404bdf <_ZN2CK13measure_setupIZ4mainEUlvE_EEvOT_>
  4049fb:	48 8d 85 80 fc ff ff 	lea    -0x380(%rbp),%rax
  404a02:	48 89 85 50 fc ff ff 	mov    %rax,-0x3b0(%rbp)
  404a09:	48 8d 85 50 fc ff ff 	lea    -0x3b0(%rbp),%rax
  404a10:	48 89 c7             	mov    %rax,%rdi
  404a13:	e8 fa 01 00 00       	callq  404c12 <_ZN2CK12measure_testIZ4mainEUlvE0_EEvOT_>
  404a18:	48 8d 85 40 fc ff ff 	lea    -0x3c0(%rbp),%rax
  404a1f:	48 89 c7             	mov    %rax,%rdi
  404a22:	e8 57 28 00 00       	callq  40727e <_ZNK2CK5Shape10data_countEv>
  404a27:	48 98                	cltq   
  404a29:	48 ba fe ff ff ff ff 	movabs $0x1ffffffffffffffe,%rdx
  404a30:	ff ff 1f 
  404a33:	48 39 d0             	cmp    %rdx,%rax
  404a36:	77 0e                	ja     404a46 <main+0x1f3>
  404a38:	48 c1 e0 02          	shl    $0x2,%rax
  404a3c:	48 89 c7             	mov    %rax,%rdi
  404a3f:	e8 8c f2 ff ff       	callq  403cd0 <_Znam@plt>
  404a44:	eb 05                	jmp    404a4b <main+0x1f8>
  404a46:	e8 15 f6 ff ff       	callq  404060 <__cxa_throw_bad_array_new_length@plt>
  404a4b:	48 89 85 28 fc ff ff 	mov    %rax,-0x3d8(%rbp)
  404a52:	48 8d 95 40 fc ff ff 	lea    -0x3c0(%rbp),%rdx
  404a59:	48 8b 8d 28 fc ff ff 	mov    -0x3d8(%rbp),%rcx
  404a60:	48 8d 85 90 fe ff ff 	lea    -0x170(%rbp),%rax
  404a67:	48 89 ce             	mov    %rcx,%rsi
  404a6a:	48 89 c7             	mov    %rax,%rdi
  404a6d:	e8 7f 44 00 00       	callq  408ef1 <_ZN2CK5armcl25copy_raw_data_from_tensorIfEEvPN11arm_compute8CLTensorEPT_RKNS_5ShapeE>
  404a72:	48 8d 95 40 fc ff ff 	lea    -0x3c0(%rbp),%rdx
  404a79:	48 8b 85 28 fc ff ff 	mov    -0x3d8(%rbp),%rax
  404a80:	48 89 d6             	mov    %rdx,%rsi
  404a83:	48 89 c7             	mov    %rax,%rdi
  404a86:	e8 fe 45 00 00       	callq  409089 <_ZN2CK21print_output_raw_dataIfEEvPT_RKNS_5ShapeE>
  404a8b:	48 8d 95 40 fc ff ff 	lea    -0x3c0(%rbp),%rdx
  404a92:	48 8b 85 28 fc ff ff 	mov    -0x3d8(%rbp),%rax
  404a99:	48 89 d6             	mov    %rdx,%rsi
  404a9c:	48 89 c7             	mov    %rax,%rdi
  404a9f:	e8 12 46 00 00       	callq  4090b6 <_ZN2CK20dump_output_raw_dataIfEEvPT_RKNS_5ShapeE>
  404aa4:	48 83 bd 28 fc ff ff 	cmpq   $0x0,-0x3d8(%rbp)
  404aab:	00 
  404aac:	74 0f                	je     404abd <main+0x26a>
  404aae:	48 8b 85 28 fc ff ff 	mov    -0x3d8(%rbp),%rax
  404ab5:	48 89 c7             	mov    %rax,%rdi
  404ab8:	e8 23 f5 ff ff       	callq  403fe0 <_ZdaPv@plt>
  404abd:	48 8d 85 40 fd ff ff 	lea    -0x2c0(%rbp),%rax
  404ac4:	48 89 c7             	mov    %rax,%rdi
  404ac7:	e8 a4 f4 ff ff       	callq  403f70 <_ZN11arm_compute8CLTensor9allocatorEv@plt>
  404acc:	48 8b 10             	mov    (%rax),%rdx
  404acf:	48 83 c2 18          	add    $0x18,%rdx
  404ad3:	48 8b 12             	mov    (%rdx),%rdx
  404ad6:	48 89 c7             	mov    %rax,%rdi
  404ad9:	ff d2                	callq  *%rdx
  404adb:	48 8d 85 90 fe ff ff 	lea    -0x170(%rbp),%rax
  404ae2:	48 89 c7             	mov    %rax,%rdi
  404ae5:	e8 86 f4 ff ff       	callq  403f70 <_ZN11arm_compute8CLTensor9allocatorEv@plt>
  404aea:	48 8b 10             	mov    (%rax),%rdx
  404aed:	48 83 c2 18          	add    $0x18,%rdx
  404af1:	48 8b 12             	mov    (%rdx),%rdx
  404af4:	48 89 c7             	mov    %rax,%rdi
  404af7:	ff d2                	callq  *%rdx
  404af9:	80 bd 1f fc ff ff 00 	cmpb   $0x0,-0x3e1(%rbp)
  404b00:	74 27                	je     404b29 <main+0x2d6>
  404b02:	48 83 bd 20 fc ff ff 	cmpq   $0x0,-0x3e0(%rbp)
  404b09:	00 
  404b0a:	74 1d                	je     404b29 <main+0x2d6>
  404b0c:	48 8b 85 20 fc ff ff 	mov    -0x3e0(%rbp),%rax
  404b13:	48 8b 00             	mov    (%rax),%rax
  404b16:	48 83 c0 08          	add    $0x8,%rax
  404b1a:	48 8b 00             	mov    (%rax),%rax
  404b1d:	48 8b 95 20 fc ff ff 	mov    -0x3e0(%rbp),%rdx
  404b24:	48 89 d7             	mov    %rdx,%rdi
  404b27:	ff d0                	callq  *%rax
  404b29:	e8 83 2a 00 00       	callq  4075b1 <_ZN2CK11finish_testEv>
  404b2e:	bb 00 00 00 00       	mov    $0x0,%ebx
  404b33:	48 8d 85 80 fc ff ff 	lea    -0x380(%rbp),%rax
  404b3a:	48 89 c7             	mov    %rax,%rdi
  404b3d:	e8 62 7d 00 00       	callq  40c8a4 <_ZN11arm_compute14CLReshapeLayerD1Ev>
  404b42:	48 8d 85 90 fe ff ff 	lea    -0x170(%rbp),%rax
  404b49:	48 89 c7             	mov    %rax,%rdi
  404b4c:	e8 2d 7e 00 00       	callq  40c97e <_ZN11arm_compute8CLTensorD1Ev>
  404b51:	48 8d 85 40 fd ff ff 	lea    -0x2c0(%rbp),%rax
  404b58:	48 89 c7             	mov    %rax,%rdi
  404b5b:	e8 1e 7e 00 00       	callq  40c97e <_ZN11arm_compute8CLTensorD1Ev>
  404b60:	89 d8                	mov    %ebx,%eax
  404b62:	48 8b 4d e8          	mov    -0x18(%rbp),%rcx
  404b66:	64 48 33 0c 25 28 00 	xor    %fs:0x28,%rcx
  404b6d:	00 00 
  404b6f:	74 62                	je     404bd3 <main+0x380>
  404b71:	eb 5b                	jmp    404bce <main+0x37b>
  404b73:	49 89 c4             	mov    %rax,%r12
  404b76:	48 89 df             	mov    %rbx,%rdi
  404b79:	e8 52 f3 ff ff       	callq  403ed0 <_ZdlPv@plt>
  404b7e:	4c 89 e0             	mov    %r12,%rax
  404b81:	48 89 c7             	mov    %rax,%rdi
  404b84:	e8 07 f6 ff ff       	callq  404190 <_Unwind_Resume@plt>
  404b89:	48 89 c3             	mov    %rax,%rbx
  404b8c:	48 8d 85 80 fc ff ff 	lea    -0x380(%rbp),%rax
  404b93:	48 89 c7             	mov    %rax,%rdi
  404b96:	e8 09 7d 00 00       	callq  40c8a4 <_ZN11arm_compute14CLReshapeLayerD1Ev>
  404b9b:	eb 03                	jmp    404ba0 <main+0x34d>
  404b9d:	48 89 c3             	mov    %rax,%rbx
  404ba0:	48 8d 85 90 fe ff ff 	lea    -0x170(%rbp),%rax
  404ba7:	48 89 c7             	mov    %rax,%rdi
  404baa:	e8 cf 7d 00 00       	callq  40c97e <_ZN11arm_compute8CLTensorD1Ev>
  404baf:	eb 03                	jmp    404bb4 <main+0x361>
  404bb1:	48 89 c3             	mov    %rax,%rbx
  404bb4:	48 8d 85 40 fd ff ff 	lea    -0x2c0(%rbp),%rax
  404bbb:	48 89 c7             	mov    %rax,%rdi
  404bbe:	e8 bb 7d 00 00       	callq  40c97e <_ZN11arm_compute8CLTensorD1Ev>
  404bc3:	48 89 d8             	mov    %rbx,%rax
  404bc6:	48 89 c7             	mov    %rax,%rdi
  404bc9:	e8 c2 f5 ff ff       	callq  404190 <_Unwind_Resume@plt>
  404bce:	e8 5d f3 ff ff       	callq  403f30 <__stack_chk_fail@plt>
  404bd3:	48 81 c4 e0 03 00 00 	add    $0x3e0,%rsp
  404bda:	5b                   	pop    %rbx
  404bdb:	41 5c                	pop    %r12
  404bdd:	5d                   	pop    %rbp
  404bde:	c3                   	retq   

0000000000404bdf <_ZN2CK13measure_setupIZ4mainEUlvE_EEvOT_>:
  404bdf:	55                   	push   %rbp
  404be0:	48 89 e5             	mov    %rsp,%rbp
  404be3:	48 83 ec 10          	sub    $0x10,%rsp
  404be7:	48 89 7d f8          	mov    %rdi,-0x8(%rbp)
  404beb:	48 8b 45 f8          	mov    -0x8(%rbp),%rax
  404bef:	be 00 00 00 00       	mov    $0x0,%esi
  404bf4:	48 89 c7             	mov    %rax,%rdi
  404bf7:	e8 49 00 00 00       	callq  404c45 <_ZN2CK11do_measuredIRZ4mainEUlvE_EEvOT_i>
  404bfc:	bf 00 00 00 00       	mov    $0x0,%edi
  404c01:	e8 1a f6 ff ff       	callq  404220 <xopenme_get_timer@plt>
  404c06:	f2 0f 5a c0          	cvtsd2ss %xmm0,%xmm0
  404c0a:	e8 e3 f8 ff ff       	callq  4044f2 <_ZN2CK16store_setup_timeEf>
  404c0f:	90                   	nop
  404c10:	c9                   	leaveq 
  404c11:	c3                   	retq   

0000000000404c12 <_ZN2CK12measure_testIZ4mainEUlvE0_EEvOT_>:
  404c12:	55                   	push   %rbp
  404c13:	48 89 e5             	mov    %rsp,%rbp
  404c16:	48 83 ec 10          	sub    $0x10,%rsp
  404c1a:	48 89 7d f8          	mov    %rdi,-0x8(%rbp)
  404c1e:	48 8b 45 f8          	mov    -0x8(%rbp),%rax
  404c22:	be 01 00 00 00       	mov    $0x1,%esi
  404c27:	48 89 c7             	mov    %rax,%rdi
  404c2a:	e8 48 00 00 00       	callq  404c77 <_ZN2CK11do_measuredIRZ4mainEUlvE0_EEvOT_i>
  404c2f:	bf 01 00 00 00       	mov    $0x1,%edi
  404c34:	e8 e7 f5 ff ff       	callq  404220 <xopenme_get_timer@plt>
  404c39:	f2 0f 5a c0          	cvtsd2ss %xmm0,%xmm0
  404c3d:	e8 da f8 ff ff       	callq  40451c <_ZN2CK15store_test_timeEf>
  404c42:	90                   	nop
  404c43:	c9                   	leaveq 
  404c44:	c3                   	retq   

0000000000404c45 <_ZN2CK11do_measuredIRZ4mainEUlvE_EEvOT_i>:
  404c45:	55                   	push   %rbp
  404c46:	48 89 e5             	mov    %rsp,%rbp
  404c49:	48 83 ec 10          	sub    $0x10,%rsp
  404c4d:	48 89 7d f8          	mov    %rdi,-0x8(%rbp)
  404c51:	89 75 f4             	mov    %esi,-0xc(%rbp)
  404c54:	8b 45 f4             	mov    -0xc(%rbp),%eax
  404c57:	89 c7                	mov    %eax,%edi
  404c59:	e8 e2 f0 ff ff       	callq  403d40 <xopenme_clock_start@plt>
  404c5e:	48 8b 45 f8          	mov    -0x8(%rbp),%rax
  404c62:	48 89 c7             	mov    %rax,%rdi
  404c65:	e8 0e f9 ff ff       	callq  404578 <_ZZ4mainENKUlvE_clEv>
  404c6a:	8b 45 f4             	mov    -0xc(%rbp),%eax
  404c6d:	89 c7                	mov    %eax,%edi
  404c6f:	e8 bc f3 ff ff       	callq  404030 <xopenme_clock_end@plt>
  404c74:	90                   	nop
  404c75:	c9                   	leaveq 
  404c76:	c3                   	retq   

0000000000404c77 <_ZN2CK11do_measuredIRZ4mainEUlvE0_EEvOT_i>:
  404c77:	55                   	push   %rbp
  404c78:	48 89 e5             	mov    %rsp,%rbp
  404c7b:	48 83 ec 10          	sub    $0x10,%rsp
  404c7f:	48 89 7d f8          	mov    %rdi,-0x8(%rbp)
  404c83:	89 75 f4             	mov    %esi,-0xc(%rbp)
  404c86:	8b 45 f4             	mov    -0xc(%rbp),%eax
  404c89:	89 c7                	mov    %eax,%edi
  404c8b:	e8 b0 f0 ff ff       	callq  403d40 <xopenme_clock_start@plt>
  404c90:	48 8b 45 f8          	mov    -0x8(%rbp),%rax
  404c94:	48 89 c7             	mov    %rax,%rdi
  404c97:	e8 8c fb ff ff       	callq  404828 <_ZZ4mainENKUlvE0_clEv>
  404c9c:	8b 45 f4             	mov    -0xc(%rbp),%eax
  404c9f:	89 c7                	mov    %eax,%edi
  404ca1:	e8 8a f3 ff ff       	callq  404030 <xopenme_clock_end@plt>
  404ca6:	90                   	nop
  404ca7:	c9                   	leaveq 
  404ca8:	c3                   	retq   

0000000000404ca9 <_Z41__static_initialization_and_destruction_0ii>:
  404ca9:	55                   	push   %rbp
  404caa:	48 89 e5             	mov    %rsp,%rbp
  404cad:	53                   	push   %rbx
  404cae:	48 83 ec 28          	sub    $0x28,%rsp
  404cb2:	89 7d dc             	mov    %edi,-0x24(%rbp)
  404cb5:	89 75 d8             	mov    %esi,-0x28(%rbp)
  404cb8:	64 48 8b 04 25 28 00 	mov    %fs:0x28,%rax
  404cbf:	00 00 
  404cc1:	48 89 45 e8          	mov    %rax,-0x18(%rbp)
  404cc5:	31 c0                	xor    %eax,%eax
  404cc7:	83 7d dc 01          	cmpl   $0x1,-0x24(%rbp)
  404ccb:	0f 85 6f 01 00 00    	jne    404e40 <_Z41__static_initialization_and_destruction_0ii+0x197>
  404cd1:	81 7d d8 ff ff 00 00 	cmpl   $0xffff,-0x28(%rbp)
  404cd8:	0f 85 62 01 00 00    	jne    404e40 <_Z41__static_initialization_and_destruction_0ii+0x197>
  404cde:	b8 98 96 61 00       	mov    $0x619698,%eax
  404ce3:	0f b6 00             	movzbl (%rax),%eax
  404ce6:	84 c0                	test   %al,%al
  404ce8:	75 26                	jne    404d10 <_Z41__static_initialization_and_destruction_0ii+0x67>
  404cea:	b8 98 96 61 00       	mov    $0x619698,%eax
  404cef:	c6 00 01             	movb   $0x1,(%rax)
  404cf2:	bf 50 96 61 00       	mov    $0x619650,%edi
  404cf7:	e8 3e 06 00 00       	callq  40533a <_ZN2cl6DeviceC1Ev>
  404cfc:	ba d8 92 61 00       	mov    $0x6192d8,%edx
  404d01:	be 50 96 61 00       	mov    $0x619650,%esi
  404d06:	bf 86 53 40 00       	mov    $0x405386,%edi
  404d0b:	e8 b0 f1 ff ff       	callq  403ec0 <__cxa_atexit@plt>
  404d10:	b8 a0 96 61 00       	mov    $0x6196a0,%eax
  404d15:	0f b6 00             	movzbl (%rax),%eax
  404d18:	84 c0                	test   %al,%al
  404d1a:	75 26                	jne    404d42 <_Z41__static_initialization_and_destruction_0ii+0x99>
  404d1c:	b8 a0 96 61 00       	mov    $0x6196a0,%eax
  404d21:	c6 00 01             	movb   $0x1,(%rax)
  404d24:	bf 68 96 61 00       	mov    $0x619668,%edi
  404d29:	e8 96 09 00 00       	callq  4056c4 <_ZN2cl8PlatformC1Ev>
  404d2e:	ba d8 92 61 00       	mov    $0x6192d8,%edx
  404d33:	be 68 96 61 00       	mov    $0x619668,%esi
  404d38:	bf c0 54 40 00       	mov    $0x4054c0,%edi
  404d3d:	e8 7e f1 ff ff       	callq  403ec0 <__cxa_atexit@plt>
  404d42:	b8 a8 96 61 00       	mov    $0x6196a8,%eax
  404d47:	0f b6 00             	movzbl (%rax),%eax
  404d4a:	84 c0                	test   %al,%al
  404d4c:	75 26                	jne    404d74 <_Z41__static_initialization_and_destruction_0ii+0xcb>
  404d4e:	b8 a8 96 61 00       	mov    $0x6196a8,%eax
  404d53:	c6 00 01             	movb   $0x1,(%rax)
  404d56:	bf 78 96 61 00       	mov    $0x619678,%edi
  404d5b:	e8 56 15 00 00       	callq  4062b6 <_ZN2cl7ContextC1Ev>
  404d60:	ba d8 92 61 00       	mov    $0x6192d8,%edx
  404d65:	be 78 96 61 00       	mov    $0x619678,%esi
  404d6a:	bf 3e 5c 40 00       	mov    $0x405c3e,%edi
  404d6f:	e8 4c f1 ff ff       	callq  403ec0 <__cxa_atexit@plt>
  404d74:	bf c0 96 61 00       	mov    $0x6196c0,%edi
  404d79:	e8 80 16 00 00       	callq  4063fe <_ZN2cl7NDRangeC1Ev>
  404d7e:	b8 b0 96 61 00       	mov    $0x6196b0,%eax
  404d83:	0f b6 00             	movzbl (%rax),%eax
  404d86:	84 c0                	test   %al,%al
  404d88:	75 26                	jne    404db0 <_Z41__static_initialization_and_destruction_0ii+0x107>
  404d8a:	b8 b0 96 61 00       	mov    $0x6196b0,%eax
  404d8f:	c6 00 01             	movb   $0x1,(%rax)
  404d92:	bf 88 96 61 00       	mov    $0x619688,%edi
  404d97:	e8 72 19 00 00       	callq  40670e <_ZN2cl12CommandQueueC1Ev>
  404d9c:	ba d8 92 61 00       	mov    $0x6192d8,%edx
  404da1:	be 88 96 61 00       	mov    $0x619688,%esi
  404da6:	bf 96 64 40 00       	mov    $0x406496,%edi
  404dab:	e8 10 f1 ff ff       	callq  403ec0 <__cxa_atexit@plt>
  404db0:	ba 01 00 00 00       	mov    $0x1,%edx
  404db5:	be 80 00 00 00       	mov    $0x80,%esi
  404dba:	bf e0 96 61 00       	mov    $0x6196e0,%edi
  404dbf:	e8 74 16 00 00       	callq  406438 <_ZN2cl7NDRangeC1Emm>
  404dc4:	48 8d 45 e7          	lea    -0x19(%rbp),%rax
  404dc8:	48 89 c7             	mov    %rax,%rdi
  404dcb:	e8 d0 f3 ff ff       	callq  4041a0 <_ZNSaIcEC1Ev@plt>
  404dd0:	48 8d 45 e7          	lea    -0x19(%rbp),%rax
  404dd4:	48 89 c2             	mov    %rax,%rdx
  404dd7:	be fd 06 41 00       	mov    $0x4106fd,%esi
  404ddc:	bf 00 97 61 00       	mov    $0x619700,%edi
  404de1:	e8 5a f2 ff ff       	callq  404040 <_ZNSt7__cxx1112basic_stringIcSt11char_traitsIcESaIcEEC1EPKcRKS3_@plt>
  404de6:	48 8d 45 e7          	lea    -0x19(%rbp),%rax
  404dea:	48 89 c7             	mov    %rax,%rdi
  404ded:	e8 1e f1 ff ff       	callq  403f10 <_ZNSaIcED1Ev@plt>
  404df2:	ba d8 92 61 00       	mov    $0x6192d8,%edx
  404df7:	be 00 97 61 00       	mov    $0x619700,%esi
  404dfc:	bf 90 3e 40 00       	mov    $0x403e90,%edi
  404e01:	e8 ba f0 ff ff       	callq  403ec0 <__cxa_atexit@plt>
  404e06:	bf 20 97 61 00       	mov    $0x619720,%edi
  404e0b:	e8 a0 f2 ff ff       	callq  4040b0 <_ZNSt8ios_base4InitC1Ev@plt>
  404e10:	ba d8 92 61 00       	mov    $0x6192d8,%edx
  404e15:	be 20 97 61 00       	mov    $0x619720,%esi
  404e1a:	bf 30 42 40 00       	mov    $0x404230,%edi
  404e1f:	e8 9c f0 ff ff       	callq  403ec0 <__cxa_atexit@plt>
  404e24:	eb 1a                	jmp    404e40 <_Z41__static_initialization_and_destruction_0ii+0x197>
  404e26:	48 89 c3             	mov    %rax,%rbx
  404e29:	48 8d 45 e7          	lea    -0x19(%rbp),%rax
  404e2d:	48 89 c7             	mov    %rax,%rdi
  404e30:	e8 db f0 ff ff       	callq  403f10 <_ZNSaIcED1Ev@plt>
  404e35:	48 89 d8             	mov    %rbx,%rax
  404e38:	48 89 c7             	mov    %rax,%rdi
  404e3b:	e8 50 f3 ff ff       	callq  404190 <_Unwind_Resume@plt>
  404e40:	48 8b 45 e8          	mov    -0x18(%rbp),%rax
  404e44:	64 48 33 04 25 28 00 	xor    %fs:0x28,%rax
  404e4b:	00 00 
  404e4d:	74 05                	je     404e54 <_Z41__static_initialization_and_destruction_0ii+0x1ab>
  404e4f:	e8 dc f0 ff ff       	callq  403f30 <__stack_chk_fail@plt>
  404e54:	48 83 c4 28          	add    $0x28,%rsp
  404e58:	5b                   	pop    %rbx
  404e59:	5d                   	pop    %rbp
  404e5a:	c3                   	retq   

0000000000404e5b <_GLOBAL__sub_I__ZN2CK16store_setup_timeEf>:
  404e5b:	55                   	push   %rbp
  404e5c:	48 89 e5             	mov    %rsp,%rbp
  404e5f:	be ff ff 00 00       	mov    $0xffff,%esi
  404e64:	bf 01 00 00 00       	mov    $0x1,%edi
  404e69:	e8 3b fe ff ff       	callq  404ca9 <_Z41__static_initialization_and_destruction_0ii>
  404e6e:	5d                   	pop    %rbp
  404e6f:	c3                   	retq   

0000000000404e70 <_ZNSt9exceptionC1Ev>:
  404e70:	55                   	push   %rbp
  404e71:	48 89 e5             	mov    %rsp,%rbp
  404e74:	48 89 7d f8          	mov    %rdi,-0x8(%rbp)
  404e78:	ba f0 94 61 00       	mov    $0x6194f0,%edx
  404e7d:	48 8b 45 f8          	mov    -0x8(%rbp),%rax
  404e81:	48 89 10             	mov    %rdx,(%rax)
  404e84:	90                   	nop
  404e85:	5d                   	pop    %rbp
  404e86:	c3                   	retq   

0000000000404e87 <_ZnwmPv>:
  404e87:	55                   	push   %rbp
  404e88:	48 89 e5             	mov    %rsp,%rbp
  404e8b:	48 89 7d f8          	mov    %rdi,-0x8(%rbp)
  404e8f:	48 89 75 f0          	mov    %rsi,-0x10(%rbp)
  404e93:	48 8b 45 f0          	mov    -0x10(%rbp),%rax
  404e97:	5d                   	pop    %rbp
  404e98:	c3                   	retq   

0000000000404e99 <_ZdlPvS_>:
  404e99:	55                   	push   %rbp
  404e9a:	48 89 e5             	mov    %rsp,%rbp
  404e9d:	48 89 7d f8          	mov    %rdi,-0x8(%rbp)
  404ea1:	48 89 75 f0          	mov    %rsi,-0x10(%rbp)
  404ea5:	90                   	nop
  404ea6:	5d                   	pop    %rbp
  404ea7:	c3                   	retq   

0000000000404ea8 <_ZN2cl5ErrorC1EiPKc>:
  404ea8:	55                   	push   %rbp
  404ea9:	48 89 e5             	mov    %rsp,%rbp
  404eac:	48 83 ec 20          	sub    $0x20,%rsp
  404eb0:	48 89 7d f8          	mov    %rdi,-0x8(%rbp)
  404eb4:	89 75 f4             	mov    %esi,-0xc(%rbp)
  404eb7:	48 89 55 e8          	mov    %rdx,-0x18(%rbp)
  404ebb:	48 8b 45 f8          	mov    -0x8(%rbp),%rax
  404ebf:	48 89 c7             	mov    %rax,%rdi
  404ec2:	e8 a9 ff ff ff       	callq  404e70 <_ZNSt9exceptionC1Ev>
  404ec7:	ba 10 09 41 00       	mov    $0x410910,%edx
  404ecc:	48 8b 45 f8          	mov    -0x8(%rbp),%rax
  404ed0:	48 89 10             	mov    %rdx,(%rax)
  404ed3:	48 8b 45 f8          	mov    -0x8(%rbp),%rax
  404ed7:	8b 55 f4             	mov    -0xc(%rbp),%edx
  404eda:	89 50 08             	mov    %edx,0x8(%rax)
  404edd:	48 8b 45 f8          	mov    -0x8(%rbp),%rax
  404ee1:	48 8b 55 e8          	mov    -0x18(%rbp),%rdx
  404ee5:	48 89 50 10          	mov    %rdx,0x10(%rax)
  404ee9:	90                   	nop
  404eea:	c9                   	leaveq 
  404eeb:	c3                   	retq   

0000000000404eec <_ZN2cl5ErrorD1Ev>:
  404eec:	55                   	push   %rbp
  404eed:	48 89 e5             	mov    %rsp,%rbp
  404ef0:	48 83 ec 10          	sub    $0x10,%rsp
  404ef4:	48 89 7d f8          	mov    %rdi,-0x8(%rbp)
  404ef8:	ba 10 09 41 00       	mov    $0x410910,%edx
  404efd:	48 8b 45 f8          	mov    -0x8(%rbp),%rax
  404f01:	48 89 10             	mov    %rdx,(%rax)
  404f04:	48 8b 45 f8          	mov    -0x8(%rbp),%rax
  404f08:	48 89 c7             	mov    %rax,%rdi
  404f0b:	e8 b0 f2 ff ff       	callq  4041c0 <_ZNSt9exceptionD2Ev@plt>
  404f10:	90                   	nop
  404f11:	c9                   	leaveq 
  404f12:	c3                   	retq   
  404f13:	90                   	nop

0000000000404f14 <_ZN2cl5ErrorD0Ev>:
  404f14:	55                   	push   %rbp
  404f15:	48 89 e5             	mov    %rsp,%rbp
  404f18:	48 83 ec 10          	sub    $0x10,%rsp
  404f1c:	48 89 7d f8          	mov    %rdi,-0x8(%rbp)
  404f20:	48 8b 45 f8          	mov    -0x8(%rbp),%rax
  404f24:	48 89 c7             	mov    %rax,%rdi
  404f27:	e8 c0 ff ff ff       	callq  404eec <_ZN2cl5ErrorD1Ev>
  404f2c:	48 8b 45 f8          	mov    -0x8(%rbp),%rax
  404f30:	48 89 c7             	mov    %rax,%rdi
  404f33:	e8 98 ef ff ff       	callq  403ed0 <_ZdlPv@plt>
  404f38:	c9                   	leaveq 
  404f39:	c3                   	retq   

0000000000404f3a <_ZNK2cl5Error4whatEv>:
  404f3a:	55                   	push   %rbp
  404f3b:	48 89 e5             	mov    %rsp,%rbp
  404f3e:	48 89 7d f8          	mov    %rdi,-0x8(%rbp)
  404f42:	48 8b 45 f8          	mov    -0x8(%rbp),%rax
  404f46:	48 8b 40 10          	mov    0x10(%rax),%rax
  404f4a:	48 85 c0             	test   %rax,%rax
  404f4d:	75 07                	jne    404f56 <_ZNK2cl5Error4whatEv+0x1c>
  404f4f:	b8 9d 03 41 00       	mov    $0x41039d,%eax
  404f54:	eb 08                	jmp    404f5e <_ZNK2cl5Error4whatEv+0x24>
  404f56:	48 8b 45 f8          	mov    -0x8(%rbp),%rax
  404f5a:	48 8b 40 10          	mov    0x10(%rax),%rax
  404f5e:	5d                   	pop    %rbp
  404f5f:	c3                   	retq   

0000000000404f60 <_ZNK2cl5Error3errEv>:
  404f60:	55                   	push   %rbp
  404f61:	48 89 e5             	mov    %rsp,%rbp
  404f64:	48 89 7d f8          	mov    %rdi,-0x8(%rbp)
  404f68:	48 8b 45 f8          	mov    -0x8(%rbp),%rax
  404f6c:	8b 40 08             	mov    0x8(%rax),%eax
  404f6f:	5d                   	pop    %rbp
  404f70:	c3                   	retq   
  404f71:	90                   	nop

0000000000404f72 <_ZNSt9exceptionC1ERKS_>:
  404f72:	55                   	push   %rbp
  404f73:	48 89 e5             	mov    %rsp,%rbp
  404f76:	48 89 7d f8          	mov    %rdi,-0x8(%rbp)
  404f7a:	48 89 75 f0          	mov    %rsi,-0x10(%rbp)
  404f7e:	ba f0 94 61 00       	mov    $0x6194f0,%edx
  404f83:	48 8b 45 f8          	mov    -0x8(%rbp),%rax
  404f87:	48 89 10             	mov    %rdx,(%rax)
  404f8a:	90                   	nop
  404f8b:	5d                   	pop    %rbp
  404f8c:	c3                   	retq   
  404f8d:	90                   	nop

0000000000404f8e <_ZN2cl5ErrorC1ERKS0_>:
  404f8e:	55                   	push   %rbp
  404f8f:	48 89 e5             	mov    %rsp,%rbp
  404f92:	48 83 ec 10          	sub    $0x10,%rsp
  404f96:	48 89 7d f8          	mov    %rdi,-0x8(%rbp)
  404f9a:	48 89 75 f0          	mov    %rsi,-0x10(%rbp)
  404f9e:	48 8b 55 f0          	mov    -0x10(%rbp),%rdx
  404fa2:	48 8b 45 f8          	mov    -0x8(%rbp),%rax
  404fa6:	48 89 d6             	mov    %rdx,%rsi
  404fa9:	48 89 c7             	mov    %rax,%rdi
  404fac:	e8 c1 ff ff ff       	callq  404f72 <_ZNSt9exceptionC1ERKS_>
  404fb1:	ba 10 09 41 00       	mov    $0x410910,%edx
  404fb6:	48 8b 45 f8          	mov    -0x8(%rbp),%rax
  404fba:	48 89 10             	mov    %rdx,(%rax)
  404fbd:	48 8b 45 f0          	mov    -0x10(%rbp),%rax
  404fc1:	8b 50 08             	mov    0x8(%rax),%edx
  404fc4:	48 8b 45 f8          	mov    -0x8(%rbp),%rax
  404fc8:	89 50 08             	mov    %edx,0x8(%rax)
  404fcb:	48 8b 45 f0          	mov    -0x10(%rbp),%rax
  404fcf:	48 8b 50 10          	mov    0x10(%rax),%rdx
  404fd3:	48 8b 45 f8          	mov    -0x8(%rbp),%rax
  404fd7:	48 89 50 10          	mov    %rdx,0x10(%rax)
  404fdb:	90                   	nop
  404fdc:	c9                   	leaveq 
  404fdd:	c3                   	retq   

0000000000404fde <_ZN2cl6detail16ReferenceHandlerIP13_cl_device_idE6retainES3_>:
  404fde:	55                   	push   %rbp
  404fdf:	48 89 e5             	mov    %rsp,%rbp
  404fe2:	48 89 7d f8          	mov    %rdi,-0x8(%rbp)
  404fe6:	b8 00 00 00 00       	mov    $0x0,%eax
  404feb:	5d                   	pop    %rbp
  404fec:	c3                   	retq   

0000000000404fed <_ZN2cl6detail16ReferenceHandlerIP13_cl_device_idE7releaseES3_>:
  404fed:	55                   	push   %rbp
  404fee:	48 89 e5             	mov    %rsp,%rbp
  404ff1:	48 89 7d f8          	mov    %rdi,-0x8(%rbp)
  404ff5:	b8 00 00 00 00       	mov    $0x0,%eax
  404ffa:	5d                   	pop    %rbp
  404ffb:	c3                   	retq   

0000000000404ffc <_ZN2cl6detail16ReferenceHandlerIP15_cl_platform_idE6retainES3_>:
  404ffc:	55                   	push   %rbp
  404ffd:	48 89 e5             	mov    %rsp,%rbp
  405000:	48 89 7d f8          	mov    %rdi,-0x8(%rbp)
  405004:	b8 00 00 00 00       	mov    $0x0,%eax
  405009:	5d                   	pop    %rbp
  40500a:	c3                   	retq   

000000000040500b <_ZN2cl6detail16ReferenceHandlerIP15_cl_platform_idE7releaseES3_>:
  40500b:	55                   	push   %rbp
  40500c:	48 89 e5             	mov    %rsp,%rbp
  40500f:	48 89 7d f8          	mov    %rdi,-0x8(%rbp)
  405013:	b8 00 00 00 00       	mov    $0x0,%eax
  405018:	5d                   	pop    %rbp
  405019:	c3                   	retq   

000000000040501a <_ZN2cl6detail16ReferenceHandlerIP11_cl_contextE6retainES3_>:
  40501a:	55                   	push   %rbp
  40501b:	48 89 e5             	mov    %rsp,%rbp
  40501e:	48 83 ec 10          	sub    $0x10,%rsp
  405022:	48 89 7d f8          	mov    %rdi,-0x8(%rbp)
  405026:	48 8b 45 f8          	mov    -0x8(%rbp),%rax
  40502a:	48 89 c7             	mov    %rax,%rdi
  40502d:	e8 2e f1 ff ff       	callq  404160 <clRetainContext@plt>
  405032:	c9                   	leaveq 
  405033:	c3                   	retq   

0000000000405034 <_ZN2cl6detail16ReferenceHandlerIP11_cl_contextE7releaseES3_>:
  405034:	55                   	push   %rbp
  405035:	48 89 e5             	mov    %rsp,%rbp
  405038:	48 83 ec 10          	sub    $0x10,%rsp
  40503c:	48 89 7d f8          	mov    %rdi,-0x8(%rbp)
  405040:	48 8b 45 f8          	mov    -0x8(%rbp),%rax
  405044:	48 89 c7             	mov    %rax,%rdi
  405047:	e8 34 ee ff ff       	callq  403e80 <clReleaseContext@plt>
  40504c:	c9                   	leaveq 
  40504d:	c3                   	retq   

000000000040504e <_ZN2cl6detail16ReferenceHandlerIP17_cl_command_queueE6retainES3_>:
  40504e:	55                   	push   %rbp
  40504f:	48 89 e5             	mov    %rsp,%rbp
  405052:	48 83 ec 10          	sub    $0x10,%rsp
  405056:	48 89 7d f8          	mov    %rdi,-0x8(%rbp)
  40505a:	48 8b 45 f8          	mov    -0x8(%rbp),%rax
  40505e:	48 89 c7             	mov    %rax,%rdi
  405061:	e8 aa ed ff ff       	callq  403e10 <clRetainCommandQueue@plt>
  405066:	c9                   	leaveq 
  405067:	c3                   	retq   

0000000000405068 <_ZN2cl6detail16ReferenceHandlerIP17_cl_command_queueE7releaseES3_>:
  405068:	55                   	push   %rbp
  405069:	48 89 e5             	mov    %rsp,%rbp
  40506c:	48 83 ec 10          	sub    $0x10,%rsp
  405070:	48 89 7d f8          	mov    %rdi,-0x8(%rbp)
  405074:	48 8b 45 f8          	mov    -0x8(%rbp),%rax
  405078:	48 89 c7             	mov    %rax,%rdi
  40507b:	e8 50 ef ff ff       	callq  403fd0 <clReleaseCommandQueue@plt>
  405080:	c9                   	leaveq 
  405081:	c3                   	retq   

0000000000405082 <_ZN2cl6detail16ReferenceHandlerIP10_cl_kernelE7releaseES3_>:
  405082:	55                   	push   %rbp
  405083:	48 89 e5             	mov    %rsp,%rbp
  405086:	48 83 ec 10          	sub    $0x10,%rsp
  40508a:	48 89 7d f8          	mov    %rdi,-0x8(%rbp)
  40508e:	48 8b 45 f8          	mov    -0x8(%rbp),%rax
  405092:	48 89 c7             	mov    %rax,%rdi
  405095:	e8 36 f1 ff ff       	callq  4041d0 <clReleaseKernel@plt>
  40509a:	c9                   	leaveq 
  40509b:	c3                   	retq   

000000000040509c <_ZN2cl6detail7WrapperIP13_cl_device_idE20isReferenceCountableES3_>:
  40509c:	55                   	push   %rbp
  40509d:	48 89 e5             	mov    %rsp,%rbp
  4050a0:	48 89 7d e8          	mov    %rdi,-0x18(%rbp)
  4050a4:	c6 45 ff 00          	movb   $0x0,-0x1(%rbp)
  4050a8:	0f b6 45 ff          	movzbl -0x1(%rbp),%eax
  4050ac:	5d                   	pop    %rbp
  4050ad:	c3                   	retq   

00000000004050ae <_ZN2cl6detail7WrapperIP13_cl_device_idEC1Ev>:
  4050ae:	55                   	push   %rbp
  4050af:	48 89 e5             	mov    %rsp,%rbp
  4050b2:	48 89 7d f8          	mov    %rdi,-0x8(%rbp)
  4050b6:	48 8b 45 f8          	mov    -0x8(%rbp),%rax
  4050ba:	48 c7 00 00 00 00 00 	movq   $0x0,(%rax)
  4050c1:	48 8b 45 f8          	mov    -0x8(%rbp),%rax
  4050c5:	c6 40 08 00          	movb   $0x0,0x8(%rax)
  4050c9:	90                   	nop
  4050ca:	5d                   	pop    %rbp
  4050cb:	c3                   	retq   

00000000004050cc <_ZN2cl6detail7WrapperIP13_cl_device_idEC1ERKS3_b>:
  4050cc:	55                   	push   %rbp
  4050cd:	48 89 e5             	mov    %rsp,%rbp
  4050d0:	48 83 ec 20          	sub    $0x20,%rsp
  4050d4:	48 89 7d f8          	mov    %rdi,-0x8(%rbp)
  4050d8:	48 89 75 f0          	mov    %rsi,-0x10(%rbp)
  4050dc:	89 d0                	mov    %edx,%eax
  4050de:	88 45 ec             	mov    %al,-0x14(%rbp)
  4050e1:	48 8b 45 f0          	mov    -0x10(%rbp),%rax
  4050e5:	48 8b 10             	mov    (%rax),%rdx
  4050e8:	48 8b 45 f8          	mov    -0x8(%rbp),%rax
  4050ec:	48 89 10             	mov    %rdx,(%rax)
  4050ef:	48 8b 45 f8          	mov    -0x8(%rbp),%rax
  4050f3:	c6 40 08 00          	movb   $0x0,0x8(%rax)
  4050f7:	48 8b 45 f0          	mov    -0x10(%rbp),%rax
  4050fb:	48 8b 00             	mov    (%rax),%rax
  4050fe:	48 89 c7             	mov    %rax,%rdi
  405101:	e8 96 ff ff ff       	callq  40509c <_ZN2cl6detail7WrapperIP13_cl_device_idE20isReferenceCountableES3_>
  405106:	89 c2                	mov    %eax,%edx
  405108:	48 8b 45 f8          	mov    -0x8(%rbp),%rax
  40510c:	88 50 08             	mov    %dl,0x8(%rax)
  40510f:	80 7d ec 00          	cmpb   $0x0,-0x14(%rbp)
  405113:	74 18                	je     40512d <_ZN2cl6detail7WrapperIP13_cl_device_idEC1ERKS3_b+0x61>
  405115:	48 8b 45 f8          	mov    -0x8(%rbp),%rax
  405119:	48 89 c7             	mov    %rax,%rdi
  40511c:	e8 a1 01 00 00       	callq  4052c2 <_ZNK2cl6detail7WrapperIP13_cl_device_idE6retainEv>
  405121:	be a3 03 41 00       	mov    $0x4103a3,%esi
  405126:	89 c7                	mov    %eax,%edi
  405128:	e8 70 f2 ff ff       	callq  40439d <_ZN2cl6detailL10errHandlerEiPKc>
  40512d:	90                   	nop
  40512e:	c9                   	leaveq 
  40512f:	c3                   	retq   

0000000000405130 <_ZN2cl6detail7WrapperIP13_cl_device_idED1Ev>:
  405130:	55                   	push   %rbp
  405131:	48 89 e5             	mov    %rsp,%rbp
  405134:	48 83 ec 10          	sub    $0x10,%rsp
  405138:	48 89 7d f8          	mov    %rdi,-0x8(%rbp)
  40513c:	48 8b 45 f8          	mov    -0x8(%rbp),%rax
  405140:	48 89 c7             	mov    %rax,%rdi
  405143:	e8 b6 01 00 00       	callq  4052fe <_ZNK2cl6detail7WrapperIP13_cl_device_idE7releaseEv>
  405148:	90                   	nop
  405149:	c9                   	leaveq 
  40514a:	c3                   	retq   
  40514b:	90                   	nop

000000000040514c <_ZN2cl6detail7WrapperIP13_cl_device_idEC1ERKS4_>:
  40514c:	55                   	push   %rbp
  40514d:	48 89 e5             	mov    %rsp,%rbp
  405150:	48 83 ec 10          	sub    $0x10,%rsp
  405154:	48 89 7d f8          	mov    %rdi,-0x8(%rbp)
  405158:	48 89 75 f0          	mov    %rsi,-0x10(%rbp)
  40515c:	48 8b 45 f0          	mov    -0x10(%rbp),%rax
  405160:	48 8b 10             	mov    (%rax),%rdx
  405163:	48 8b 45 f8          	mov    -0x8(%rbp),%rax
  405167:	48 89 10             	mov    %rdx,(%rax)
  40516a:	48 8b 45 f8          	mov    -0x8(%rbp),%rax
  40516e:	48 8b 00             	mov    (%rax),%rax
  405171:	48 89 c7             	mov    %rax,%rdi
  405174:	e8 23 ff ff ff       	callq  40509c <_ZN2cl6detail7WrapperIP13_cl_device_idE20isReferenceCountableES3_>
  405179:	89 c2                	mov    %eax,%edx
  40517b:	48 8b 45 f8          	mov    -0x8(%rbp),%rax
  40517f:	88 50 08             	mov    %dl,0x8(%rax)
  405182:	48 8b 45 f8          	mov    -0x8(%rbp),%rax
  405186:	48 89 c7             	mov    %rax,%rdi
  405189:	e8 34 01 00 00       	callq  4052c2 <_ZNK2cl6detail7WrapperIP13_cl_device_idE6retainEv>
  40518e:	be a3 03 41 00       	mov    $0x4103a3,%esi
  405193:	89 c7                	mov    %eax,%edi
  405195:	e8 03 f2 ff ff       	callq  40439d <_ZN2cl6detailL10errHandlerEiPKc>
  40519a:	90                   	nop
  40519b:	c9                   	leaveq 
  40519c:	c3                   	retq   
  40519d:	90                   	nop

000000000040519e <_ZN2cl6detail7WrapperIP13_cl_device_idEC1EOS4_>:
  40519e:	55                   	push   %rbp
  40519f:	48 89 e5             	mov    %rsp,%rbp
  4051a2:	48 89 7d f8          	mov    %rdi,-0x8(%rbp)
  4051a6:	48 89 75 f0          	mov    %rsi,-0x10(%rbp)
  4051aa:	48 8b 45 f0          	mov    -0x10(%rbp),%rax
  4051ae:	48 8b 10             	mov    (%rax),%rdx
  4051b1:	48 8b 45 f8          	mov    -0x8(%rbp),%rax
  4051b5:	48 89 10             	mov    %rdx,(%rax)
  4051b8:	48 8b 45 f0          	mov    -0x10(%rbp),%rax
  4051bc:	0f b6 50 08          	movzbl 0x8(%rax),%edx
  4051c0:	48 8b 45 f8          	mov    -0x8(%rbp),%rax
  4051c4:	88 50 08             	mov    %dl,0x8(%rax)
  4051c7:	48 8b 45 f0          	mov    -0x10(%rbp),%rax
  4051cb:	48 c7 00 00 00 00 00 	movq   $0x0,(%rax)
  4051d2:	48 8b 45 f0          	mov    -0x10(%rbp),%rax
  4051d6:	c6 40 08 00          	movb   $0x0,0x8(%rax)
  4051da:	90                   	nop
  4051db:	5d                   	pop    %rbp
  4051dc:	c3                   	retq   
  4051dd:	90                   	nop

00000000004051de <_ZN2cl6detail7WrapperIP13_cl_device_idEaSERKS4_>:
  4051de:	55                   	push   %rbp
  4051df:	48 89 e5             	mov    %rsp,%rbp
  4051e2:	48 83 ec 10          	sub    $0x10,%rsp
  4051e6:	48 89 7d f8          	mov    %rdi,-0x8(%rbp)
  4051ea:	48 89 75 f0          	mov    %rsi,-0x10(%rbp)
  4051ee:	48 8b 45 f8          	mov    -0x8(%rbp),%rax
  4051f2:	48 3b 45 f0          	cmp    -0x10(%rbp),%rax
  4051f6:	74 4d                	je     405245 <_ZN2cl6detail7WrapperIP13_cl_device_idEaSERKS4_+0x67>
  4051f8:	48 8b 45 f8          	mov    -0x8(%rbp),%rax
  4051fc:	48 89 c7             	mov    %rax,%rdi
  4051ff:	e8 fa 00 00 00       	callq  4052fe <_ZNK2cl6detail7WrapperIP13_cl_device_idE7releaseEv>
  405204:	be b1 03 41 00       	mov    $0x4103b1,%esi
  405209:	89 c7                	mov    %eax,%edi
  40520b:	e8 8d f1 ff ff       	callq  40439d <_ZN2cl6detailL10errHandlerEiPKc>
  405210:	48 8b 45 f0          	mov    -0x10(%rbp),%rax
  405214:	48 8b 10             	mov    (%rax),%rdx
  405217:	48 8b 45 f8          	mov    -0x8(%rbp),%rax
  40521b:	48 89 10             	mov    %rdx,(%rax)
  40521e:	48 8b 45 f0          	mov    -0x10(%rbp),%rax
  405222:	0f b6 50 08          	movzbl 0x8(%rax),%edx
  405226:	48 8b 45 f8          	mov    -0x8(%rbp),%rax
  40522a:	88 50 08             	mov    %dl,0x8(%rax)
  40522d:	48 8b 45 f8          	mov    -0x8(%rbp),%rax
  405231:	48 89 c7             	mov    %rax,%rdi
  405234:	e8 89 00 00 00       	callq  4052c2 <_ZNK2cl6detail7WrapperIP13_cl_device_idE6retainEv>
  405239:	be a3 03 41 00       	mov    $0x4103a3,%esi
  40523e:	89 c7                	mov    %eax,%edi
  405240:	e8 58 f1 ff ff       	callq  40439d <_ZN2cl6detailL10errHandlerEiPKc>
  405245:	48 8b 45 f8          	mov    -0x8(%rbp),%rax
  405249:	c9                   	leaveq 
  40524a:	c3                   	retq   
  40524b:	90                   	nop

000000000040524c <_ZN2cl6detail7WrapperIP13_cl_device_idEaSEOS4_>:
  40524c:	55                   	push   %rbp
  40524d:	48 89 e5             	mov    %rsp,%rbp
  405250:	48 83 ec 10          	sub    $0x10,%rsp
  405254:	48 89 7d f8          	mov    %rdi,-0x8(%rbp)
  405258:	48 89 75 f0          	mov    %rsi,-0x10(%rbp)
  40525c:	48 8b 45 f8          	mov    -0x8(%rbp),%rax
  405260:	48 3b 45 f0          	cmp    -0x10(%rbp),%rax
  405264:	74 48                	je     4052ae <_ZN2cl6detail7WrapperIP13_cl_device_idEaSEOS4_+0x62>
  405266:	48 8b 45 f8          	mov    -0x8(%rbp),%rax
  40526a:	48 89 c7             	mov    %rax,%rdi
  40526d:	e8 8c 00 00 00       	callq  4052fe <_ZNK2cl6detail7WrapperIP13_cl_device_idE7releaseEv>
  405272:	be b1 03 41 00       	mov    $0x4103b1,%esi
  405277:	89 c7                	mov    %eax,%edi
  405279:	e8 1f f1 ff ff       	callq  40439d <_ZN2cl6detailL10errHandlerEiPKc>
  40527e:	48 8b 45 f0          	mov    -0x10(%rbp),%rax
  405282:	48 8b 10             	mov    (%rax),%rdx
  405285:	48 8b 45 f8          	mov    -0x8(%rbp),%rax
  405289:	48 89 10             	mov    %rdx,(%rax)
  40528c:	48 8b 45 f0          	mov    -0x10(%rbp),%rax
  405290:	0f b6 50 08          	movzbl 0x8(%rax),%edx
  405294:	48 8b 45 f8          	mov    -0x8(%rbp),%rax
  405298:	88 50 08             	mov    %dl,0x8(%rax)
  40529b:	48 8b 45 f0          	mov    -0x10(%rbp),%rax
  40529f:	48 c7 00 00 00 00 00 	movq   $0x0,(%rax)
  4052a6:	48 8b 45 f0          	mov    -0x10(%rbp),%rax
  4052aa:	c6 40 08 00          	movb   $0x0,0x8(%rax)
  4052ae:	48 8b 45 f8          	mov    -0x8(%rbp),%rax
  4052b2:	c9                   	leaveq 
  4052b3:	c3                   	retq   

00000000004052b4 <_ZNK2cl6detail7WrapperIP13_cl_device_idEclEv>:
  4052b4:	55                   	push   %rbp
  4052b5:	48 89 e5             	mov    %rsp,%rbp
  4052b8:	48 89 7d f8          	mov    %rdi,-0x8(%rbp)
  4052bc:	48 8b 45 f8          	mov    -0x8(%rbp),%rax
  4052c0:	5d                   	pop    %rbp
  4052c1:	c3                   	retq   

00000000004052c2 <_ZNK2cl6detail7WrapperIP13_cl_device_idE6retainEv>:
  4052c2:	55                   	push   %rbp
  4052c3:	48 89 e5             	mov    %rsp,%rbp
  4052c6:	48 83 ec 10          	sub    $0x10,%rsp
  4052ca:	48 89 7d f8          	mov    %rdi,-0x8(%rbp)
  4052ce:	48 8b 45 f8          	mov    -0x8(%rbp),%rax
  4052d2:	48 8b 00             	mov    (%rax),%rax
  4052d5:	48 85 c0             	test   %rax,%rax
  4052d8:	74 1d                	je     4052f7 <_ZNK2cl6detail7WrapperIP13_cl_device_idE6retainEv+0x35>
  4052da:	48 8b 45 f8          	mov    -0x8(%rbp),%rax
  4052de:	0f b6 40 08          	movzbl 0x8(%rax),%eax
  4052e2:	84 c0                	test   %al,%al
  4052e4:	74 11                	je     4052f7 <_ZNK2cl6detail7WrapperIP13_cl_device_idE6retainEv+0x35>
  4052e6:	48 8b 45 f8          	mov    -0x8(%rbp),%rax
  4052ea:	48 8b 00             	mov    (%rax),%rax
  4052ed:	48 89 c7             	mov    %rax,%rdi
  4052f0:	e8 e9 fc ff ff       	callq  404fde <_ZN2cl6detail16ReferenceHandlerIP13_cl_device_idE6retainES3_>
  4052f5:	eb 05                	jmp    4052fc <_ZNK2cl6detail7WrapperIP13_cl_device_idE6retainEv+0x3a>
  4052f7:	b8 00 00 00 00       	mov    $0x0,%eax
  4052fc:	c9                   	leaveq 
  4052fd:	c3                   	retq   

00000000004052fe <_ZNK2cl6detail7WrapperIP13_cl_device_idE7releaseEv>:
  4052fe:	55                   	push   %rbp
  4052ff:	48 89 e5             	mov    %rsp,%rbp
  405302:	48 83 ec 10          	sub    $0x10,%rsp
  405306:	48 89 7d f8          	mov    %rdi,-0x8(%rbp)
  40530a:	48 8b 45 f8          	mov    -0x8(%rbp),%rax
  40530e:	48 8b 00             	mov    (%rax),%rax
  405311:	48 85 c0             	test   %rax,%rax
  405314:	74 1d                	je     405333 <_ZNK2cl6detail7WrapperIP13_cl_device_idE7releaseEv+0x35>
  405316:	48 8b 45 f8          	mov    -0x8(%rbp),%rax
  40531a:	0f b6 40 08          	movzbl 0x8(%rax),%eax
  40531e:	84 c0                	test   %al,%al
  405320:	74 11                	je     405333 <_ZNK2cl6detail7WrapperIP13_cl_device_idE7releaseEv+0x35>
  405322:	48 8b 45 f8          	mov    -0x8(%rbp),%rax
  405326:	48 8b 00             	mov    (%rax),%rax
  405329:	48 89 c7             	mov    %rax,%rdi
  40532c:	e8 bc fc ff ff       	callq  404fed <_ZN2cl6detail16ReferenceHandlerIP13_cl_device_idE7releaseES3_>
  405331:	eb 05                	jmp    405338 <_ZNK2cl6detail7WrapperIP13_cl_device_idE7releaseEv+0x3a>
  405333:	b8 00 00 00 00       	mov    $0x0,%eax
  405338:	c9                   	leaveq 
  405339:	c3                   	retq   

000000000040533a <_ZN2cl6DeviceC1Ev>:
  40533a:	55                   	push   %rbp
  40533b:	48 89 e5             	mov    %rsp,%rbp
  40533e:	48 83 ec 10          	sub    $0x10,%rsp
  405342:	48 89 7d f8          	mov    %rdi,-0x8(%rbp)
  405346:	48 8b 45 f8          	mov    -0x8(%rbp),%rax
  40534a:	48 89 c7             	mov    %rax,%rdi
  40534d:	e8 5c fd ff ff       	callq  4050ae <_ZN2cl6detail7WrapperIP13_cl_device_idEC1Ev>
  405352:	90                   	nop
  405353:	c9                   	leaveq 
  405354:	c3                   	retq   
  405355:	90                   	nop

0000000000405356 <_ZN2cl6DeviceC1ERKP13_cl_device_idb>:
  405356:	55                   	push   %rbp
  405357:	48 89 e5             	mov    %rsp,%rbp
  40535a:	48 83 ec 20          	sub    $0x20,%rsp
  40535e:	48 89 7d f8          	mov    %rdi,-0x8(%rbp)
  405362:	48 89 75 f0          	mov    %rsi,-0x10(%rbp)
  405366:	89 d0                	mov    %edx,%eax
  405368:	88 45 ec             	mov    %al,-0x14(%rbp)
  40536b:	0f b6 55 ec          	movzbl -0x14(%rbp),%edx
  40536f:	48 8b 45 f8          	mov    -0x8(%rbp),%rax
  405373:	48 8b 4d f0          	mov    -0x10(%rbp),%rcx
  405377:	48 89 ce             	mov    %rcx,%rsi
  40537a:	48 89 c7             	mov    %rax,%rdi
  40537d:	e8 4a fd ff ff       	callq  4050cc <_ZN2cl6detail7WrapperIP13_cl_device_idEC1ERKS3_b>
  405382:	90                   	nop
  405383:	c9                   	leaveq 
  405384:	c3                   	retq   
  405385:	90                   	nop

0000000000405386 <_ZN2cl6DeviceD1Ev>:
  405386:	55                   	push   %rbp
  405387:	48 89 e5             	mov    %rsp,%rbp
  40538a:	48 83 ec 10          	sub    $0x10,%rsp
  40538e:	48 89 7d f8          	mov    %rdi,-0x8(%rbp)
  405392:	48 8b 45 f8          	mov    -0x8(%rbp),%rax
  405396:	48 89 c7             	mov    %rax,%rdi
  405399:	e8 92 fd ff ff       	callq  405130 <_ZN2cl6detail7WrapperIP13_cl_device_idED1Ev>
  40539e:	90                   	nop
  40539f:	c9                   	leaveq 
  4053a0:	c3                   	retq   

00000000004053a1 <_ZN2cl6Device10getDefaultEPi>:
  4053a1:	55                   	push   %rbp
  4053a2:	48 89 e5             	mov    %rsp,%rbp
  4053a5:	48 83 ec 10          	sub    $0x10,%rsp
  4053a9:	48 89 7d f8          	mov    %rdi,-0x8(%rbp)
  4053ad:	48 89 75 f0          	mov    %rsi,-0x10(%rbp)
  4053b1:	be d2 62 40 00       	mov    $0x4062d2,%esi
  4053b6:	bf 40 96 61 00       	mov    $0x619640,%edi
  4053bb:	e8 55 27 00 00       	callq  407b15 <_ZSt9call_onceIRFvvEJEEvRSt9once_flagOT_DpOT0_>
  4053c0:	8b 05 9a 42 21 00    	mov    0x21429a(%rip),%eax        # 619660 <_ZN2cl6Device14default_error_E>
  4053c6:	be 00 00 00 00       	mov    $0x0,%esi
  4053cb:	89 c7                	mov    %eax,%edi
  4053cd:	e8 cb ef ff ff       	callq  40439d <_ZN2cl6detailL10errHandlerEiPKc>
  4053d2:	48 83 7d f0 00       	cmpq   $0x0,-0x10(%rbp)
  4053d7:	74 0c                	je     4053e5 <_ZN2cl6Device10getDefaultEPi+0x44>
  4053d9:	8b 15 81 42 21 00    	mov    0x214281(%rip),%edx        # 619660 <_ZN2cl6Device14default_error_E>
  4053df:	48 8b 45 f0          	mov    -0x10(%rbp),%rax
  4053e3:	89 10                	mov    %edx,(%rax)
  4053e5:	48 8b 45 f8          	mov    -0x8(%rbp),%rax
  4053e9:	be 50 96 61 00       	mov    $0x619650,%esi
  4053ee:	48 89 c7             	mov    %rax,%rdi
  4053f1:	e8 06 00 00 00       	callq  4053fc <_ZN2cl6DeviceC1ERKS0_>
  4053f6:	48 8b 45 f8          	mov    -0x8(%rbp),%rax
  4053fa:	c9                   	leaveq 
  4053fb:	c3                   	retq   

00000000004053fc <_ZN2cl6DeviceC1ERKS0_>:
  4053fc:	55                   	push   %rbp
  4053fd:	48 89 e5             	mov    %rsp,%rbp
  405400:	48 83 ec 10          	sub    $0x10,%rsp
  405404:	48 89 7d f8          	mov    %rdi,-0x8(%rbp)
  405408:	48 89 75 f0          	mov    %rsi,-0x10(%rbp)
  40540c:	48 8b 55 f0          	mov    -0x10(%rbp),%rdx
  405410:	48 8b 45 f8          	mov    -0x8(%rbp),%rax
  405414:	48 89 d6             	mov    %rdx,%rsi
  405417:	48 89 c7             	mov    %rax,%rdi
  40541a:	e8 2d fd ff ff       	callq  40514c <_ZN2cl6detail7WrapperIP13_cl_device_idEC1ERKS4_>
  40541f:	90                   	nop
  405420:	c9                   	leaveq 
  405421:	c3                   	retq   

0000000000405422 <_ZN2cl6DeviceaSERKS0_>:
  405422:	55                   	push   %rbp
  405423:	48 89 e5             	mov    %rsp,%rbp
  405426:	48 83 ec 10          	sub    $0x10,%rsp
  40542a:	48 89 7d f8          	mov    %rdi,-0x8(%rbp)
  40542e:	48 89 75 f0          	mov    %rsi,-0x10(%rbp)
  405432:	48 8b 55 f0          	mov    -0x10(%rbp),%rdx
  405436:	48 8b 45 f8          	mov    -0x8(%rbp),%rax
  40543a:	48 89 d6             	mov    %rdx,%rsi
  40543d:	48 89 c7             	mov    %rax,%rdi
  405440:	e8 99 fd ff ff       	callq  4051de <_ZN2cl6detail7WrapperIP13_cl_device_idEaSERKS4_>
  405445:	48 8b 45 f8          	mov    -0x8(%rbp),%rax
  405449:	c9                   	leaveq 
  40544a:	c3                   	retq   

000000000040544b <_ZSt4moveIRN2cl6DeviceEEONSt16remove_referenceIT_E4typeEOS4_>:
  40544b:	55                   	push   %rbp
  40544c:	48 89 e5             	mov    %rsp,%rbp
  40544f:	48 89 7d f8          	mov    %rdi,-0x8(%rbp)
  405453:	48 8b 45 f8          	mov    -0x8(%rbp),%rax
  405457:	5d                   	pop    %rbp
  405458:	c3                   	retq   
  405459:	90                   	nop

000000000040545a <_ZN2cl6DeviceC1EOS0_>:
  40545a:	55                   	push   %rbp
  40545b:	48 89 e5             	mov    %rsp,%rbp
  40545e:	48 83 ec 10          	sub    $0x10,%rsp
  405462:	48 89 7d f8          	mov    %rdi,-0x8(%rbp)
  405466:	48 89 75 f0          	mov    %rsi,-0x10(%rbp)
  40546a:	48 8b 45 f0          	mov    -0x10(%rbp),%rax
  40546e:	48 89 c7             	mov    %rax,%rdi
  405471:	e8 d5 ff ff ff       	callq  40544b <_ZSt4moveIRN2cl6DeviceEEONSt16remove_referenceIT_E4typeEOS4_>
  405476:	48 89 c2             	mov    %rax,%rdx
  405479:	48 8b 45 f8          	mov    -0x8(%rbp),%rax
  40547d:	48 89 d6             	mov    %rdx,%rsi
  405480:	48 89 c7             	mov    %rax,%rdi
  405483:	e8 16 fd ff ff       	callq  40519e <_ZN2cl6detail7WrapperIP13_cl_device_idEC1EOS4_>
  405488:	90                   	nop
  405489:	c9                   	leaveq 
  40548a:	c3                   	retq   
  40548b:	90                   	nop

000000000040548c <_ZN2cl6DeviceaSEOS0_>:
  40548c:	55                   	push   %rbp
  40548d:	48 89 e5             	mov    %rsp,%rbp
  405490:	48 83 ec 10          	sub    $0x10,%rsp
  405494:	48 89 7d f8          	mov    %rdi,-0x8(%rbp)
  405498:	48 89 75 f0          	mov    %rsi,-0x10(%rbp)
  40549c:	48 8b 45 f0          	mov    -0x10(%rbp),%rax
  4054a0:	48 89 c7             	mov    %rax,%rdi
  4054a3:	e8 a3 ff ff ff       	callq  40544b <_ZSt4moveIRN2cl6DeviceEEONSt16remove_referenceIT_E4typeEOS4_>
  4054a8:	48 89 c2             	mov    %rax,%rdx
  4054ab:	48 8b 45 f8          	mov    -0x8(%rbp),%rax
  4054af:	48 89 d6             	mov    %rdx,%rsi
  4054b2:	48 89 c7             	mov    %rax,%rdi
  4054b5:	e8 92 fd ff ff       	callq  40524c <_ZN2cl6detail7WrapperIP13_cl_device_idEaSEOS4_>
  4054ba:	48 8b 45 f8          	mov    -0x8(%rbp),%rax
  4054be:	c9                   	leaveq 
  4054bf:	c3                   	retq   

00000000004054c0 <_ZN2cl8PlatformD1Ev>:
  4054c0:	55                   	push   %rbp
  4054c1:	48 89 e5             	mov    %rsp,%rbp
  4054c4:	48 83 ec 10          	sub    $0x10,%rsp
  4054c8:	48 89 7d f8          	mov    %rdi,-0x8(%rbp)
  4054cc:	48 8b 45 f8          	mov    -0x8(%rbp),%rax
  4054d0:	48 89 c7             	mov    %rax,%rdi
  4054d3:	e8 f6 27 00 00       	callq  407cce <_ZN2cl6detail7WrapperIP15_cl_platform_idED1Ev>
  4054d8:	90                   	nop
  4054d9:	c9                   	leaveq 
  4054da:	c3                   	retq   
  4054db:	90                   	nop

00000000004054dc <_ZN2cl8PlatformaSEOS0_>:
  4054dc:	55                   	push   %rbp
  4054dd:	48 89 e5             	mov    %rsp,%rbp
  4054e0:	48 83 ec 10          	sub    $0x10,%rsp
  4054e4:	48 89 7d f8          	mov    %rdi,-0x8(%rbp)
  4054e8:	48 89 75 f0          	mov    %rsi,-0x10(%rbp)
  4054ec:	48 8b 55 f0          	mov    -0x10(%rbp),%rdx
  4054f0:	48 8b 45 f8          	mov    -0x8(%rbp),%rax
  4054f4:	48 89 d6             	mov    %rdx,%rsi
  4054f7:	48 89 c7             	mov    %rax,%rdi
  4054fa:	e8 f7 27 00 00       	callq  407cf6 <_ZN2cl6detail7WrapperIP15_cl_platform_idEaSEOS4_>
  4054ff:	48 8b 45 f8          	mov    -0x8(%rbp),%rax
  405503:	c9                   	leaveq 
  405504:	c3                   	retq   

0000000000405505 <_ZN2cl8Platform11makeDefaultEv>:
  405505:	55                   	push   %rbp
  405506:	48 89 e5             	mov    %rsp,%rbp
  405509:	41 54                	push   %r12
  40550b:	53                   	push   %rbx
  40550c:	48 83 ec 40          	sub    $0x40,%rsp
  405510:	64 48 8b 04 25 28 00 	mov    %fs:0x28,%rax
  405517:	00 00 
  405519:	48 89 45 e8          	mov    %rax,-0x18(%rbp)
  40551d:	31 c0                	xor    %eax,%eax
  40551f:	c7 45 b8 00 00 00 00 	movl   $0x0,-0x48(%rbp)
  405526:	48 8d 45 b8          	lea    -0x48(%rbp),%rax
  40552a:	48 89 c2             	mov    %rax,%rdx
  40552d:	be 00 00 00 00       	mov    $0x0,%esi
  405532:	bf 00 00 00 00       	mov    $0x0,%edi
  405537:	e8 d4 ea ff ff       	callq  404010 <clGetPlatformIDs@plt>
  40553c:	89 45 bc             	mov    %eax,-0x44(%rbp)
  40553f:	83 7d bc 00          	cmpl   $0x0,-0x44(%rbp)
  405543:	74 0e                	je     405553 <_ZN2cl8Platform11makeDefaultEv+0x4e>
  405545:	8b 45 bc             	mov    -0x44(%rbp),%eax
  405548:	89 05 22 41 21 00    	mov    %eax,0x214122(%rip)        # 619670 <_ZN2cl8Platform14default_error_E>
  40554e:	e9 54 01 00 00       	jmpq   4056a7 <_ZN2cl8Platform11makeDefaultEv+0x1a2>
  405553:	8b 45 b8             	mov    -0x48(%rbp),%eax
  405556:	85 c0                	test   %eax,%eax
  405558:	75 0f                	jne    405569 <_ZN2cl8Platform11makeDefaultEv+0x64>
  40555a:	c7 05 0c 41 21 00 e0 	movl   $0xffffffe0,0x21410c(%rip)        # 619670 <_ZN2cl8Platform14default_error_E>
  405561:	ff ff ff 
  405564:	e9 3e 01 00 00       	jmpq   4056a7 <_ZN2cl8Platform11makeDefaultEv+0x1a2>
  405569:	48 8d 45 c0          	lea    -0x40(%rbp),%rax
  40556d:	48 89 c7             	mov    %rax,%rdi
  405570:	e8 37 26 00 00       	callq  407bac <_ZNSaIP15_cl_platform_idEC1Ev>
  405575:	8b 45 b8             	mov    -0x48(%rbp),%eax
  405578:	89 c1                	mov    %eax,%ecx
  40557a:	48 8d 55 c0          	lea    -0x40(%rbp),%rdx
  40557e:	48 8d 45 d0          	lea    -0x30(%rbp),%rax
  405582:	48 89 ce             	mov    %rcx,%rsi
  405585:	48 89 c7             	mov    %rax,%rdi
  405588:	e8 57 26 00 00       	callq  407be4 <_ZNSt6vectorIP15_cl_platform_idSaIS1_EEC1EmRKS2_>
  40558d:	48 8d 45 c0          	lea    -0x40(%rbp),%rax
  405591:	48 89 c7             	mov    %rax,%rdi
  405594:	e8 2f 26 00 00       	callq  407bc8 <_ZNSaIP15_cl_platform_idED1Ev>
  405599:	48 8d 45 d0          	lea    -0x30(%rbp),%rax
  40559d:	48 89 c7             	mov    %rax,%rdi
  4055a0:	e8 e5 26 00 00       	callq  407c8a <_ZNSt6vectorIP15_cl_platform_idSaIS1_EE4dataEv>
  4055a5:	48 89 c1             	mov    %rax,%rcx
  4055a8:	8b 45 b8             	mov    -0x48(%rbp),%eax
  4055ab:	ba 00 00 00 00       	mov    $0x0,%edx
  4055b0:	48 89 ce             	mov    %rcx,%rsi
  4055b3:	89 c7                	mov    %eax,%edi
  4055b5:	e8 56 ea ff ff       	callq  404010 <clGetPlatformIDs@plt>
  4055ba:	89 45 bc             	mov    %eax,-0x44(%rbp)
  4055bd:	83 7d bc 00          	cmpl   $0x0,-0x44(%rbp)
  4055c1:	74 10                	je     4055d3 <_ZN2cl8Platform11makeDefaultEv+0xce>
  4055c3:	8b 45 bc             	mov    -0x44(%rbp),%eax
  4055c6:	89 05 a4 40 21 00    	mov    %eax,0x2140a4(%rip)        # 619670 <_ZN2cl8Platform14default_error_E>
  4055cc:	bb 00 00 00 00       	mov    $0x0,%ebx
  4055d1:	eb 4a                	jmp    40561d <_ZN2cl8Platform11makeDefaultEv+0x118>
  4055d3:	48 8d 45 d0          	lea    -0x30(%rbp),%rax
  4055d7:	be 00 00 00 00       	mov    $0x0,%esi
  4055dc:	48 89 c7             	mov    %rax,%rdi
  4055df:	e8 ca 26 00 00       	callq  407cae <_ZNSt6vectorIP15_cl_platform_idSaIS1_EEixEm>
  4055e4:	48 89 c1             	mov    %rax,%rcx
  4055e7:	48 8d 45 c0          	lea    -0x40(%rbp),%rax
  4055eb:	ba 00 00 00 00       	mov    $0x0,%edx
  4055f0:	48 89 ce             	mov    %rcx,%rsi
  4055f3:	48 89 c7             	mov    %rax,%rdi
  4055f6:	e8 e5 00 00 00       	callq  4056e0 <_ZN2cl8PlatformC1ERKP15_cl_platform_idb>
  4055fb:	48 8d 45 c0          	lea    -0x40(%rbp),%rax
  4055ff:	48 89 c6             	mov    %rax,%rsi
  405602:	bf 68 96 61 00       	mov    $0x619668,%edi
  405607:	e8 d0 fe ff ff       	callq  4054dc <_ZN2cl8PlatformaSEOS0_>
  40560c:	48 8d 45 c0          	lea    -0x40(%rbp),%rax
  405610:	48 89 c7             	mov    %rax,%rdi
  405613:	e8 a8 fe ff ff       	callq  4054c0 <_ZN2cl8PlatformD1Ev>
  405618:	bb 01 00 00 00       	mov    $0x1,%ebx
  40561d:	48 8d 45 d0          	lea    -0x30(%rbp),%rax
  405621:	48 89 c7             	mov    %rax,%rdi
  405624:	e8 1d 26 00 00       	callq  407c46 <_ZNSt6vectorIP15_cl_platform_idSaIS1_EED1Ev>
  405629:	83 fb 01             	cmp    $0x1,%ebx
  40562c:	eb 79                	jmp    4056a7 <_ZN2cl8Platform11makeDefaultEv+0x1a2>
  40562e:	49 89 c4             	mov    %rax,%r12
  405631:	48 89 d3             	mov    %rdx,%rbx
  405634:	48 8d 45 c0          	lea    -0x40(%rbp),%rax
  405638:	48 89 c7             	mov    %rax,%rdi
  40563b:	e8 88 25 00 00       	callq  407bc8 <_ZNSaIP15_cl_platform_idED1Ev>
  405640:	4c 89 e0             	mov    %r12,%rax
  405643:	48 89 da             	mov    %rbx,%rdx
  405646:	eb 2e                	jmp    405676 <_ZN2cl8Platform11makeDefaultEv+0x171>
  405648:	49 89 c4             	mov    %rax,%r12
  40564b:	48 89 d3             	mov    %rdx,%rbx
  40564e:	48 8d 45 c0          	lea    -0x40(%rbp),%rax
  405652:	48 89 c7             	mov    %rax,%rdi
  405655:	e8 66 fe ff ff       	callq  4054c0 <_ZN2cl8PlatformD1Ev>
  40565a:	eb 06                	jmp    405662 <_ZN2cl8Platform11makeDefaultEv+0x15d>
  40565c:	49 89 c4             	mov    %rax,%r12
  40565f:	48 89 d3             	mov    %rdx,%rbx
  405662:	48 8d 45 d0          	lea    -0x30(%rbp),%rax
  405666:	48 89 c7             	mov    %rax,%rdi
  405669:	e8 d8 25 00 00       	callq  407c46 <_ZNSt6vectorIP15_cl_platform_idSaIS1_EED1Ev>
  40566e:	4c 89 e0             	mov    %r12,%rax
  405671:	48 89 da             	mov    %rbx,%rdx
  405674:	eb 00                	jmp    405676 <_ZN2cl8Platform11makeDefaultEv+0x171>
  405676:	48 83 fa 01          	cmp    $0x1,%rdx
  40567a:	74 08                	je     405684 <_ZN2cl8Platform11makeDefaultEv+0x17f>
  40567c:	48 89 c7             	mov    %rax,%rdi
  40567f:	e8 0c eb ff ff       	callq  404190 <_Unwind_Resume@plt>
  405684:	48 89 c7             	mov    %rax,%rdi
  405687:	e8 34 e7 ff ff       	callq  403dc0 <__cxa_begin_catch@plt>
  40568c:	48 89 45 c8          	mov    %rax,-0x38(%rbp)
  405690:	48 8b 45 c8          	mov    -0x38(%rbp),%rax
  405694:	48 89 c7             	mov    %rax,%rdi
  405697:	e8 c4 f8 ff ff       	callq  404f60 <_ZNK2cl5Error3errEv>
  40569c:	89 05 ce 3f 21 00    	mov    %eax,0x213fce(%rip)        # 619670 <_ZN2cl8Platform14default_error_E>
  4056a2:	e8 69 ea ff ff       	callq  404110 <__cxa_end_catch@plt>
  4056a7:	48 8b 45 e8          	mov    -0x18(%rbp),%rax
  4056ab:	64 48 33 04 25 28 00 	xor    %fs:0x28,%rax
  4056b2:	00 00 
  4056b4:	74 05                	je     4056bb <_ZN2cl8Platform11makeDefaultEv+0x1b6>
  4056b6:	e8 75 e8 ff ff       	callq  403f30 <__stack_chk_fail@plt>
  4056bb:	48 83 c4 40          	add    $0x40,%rsp
  4056bf:	5b                   	pop    %rbx
  4056c0:	41 5c                	pop    %r12
  4056c2:	5d                   	pop    %rbp
  4056c3:	c3                   	retq   

00000000004056c4 <_ZN2cl8PlatformC1Ev>:
  4056c4:	55                   	push   %rbp
  4056c5:	48 89 e5             	mov    %rsp,%rbp
  4056c8:	48 83 ec 10          	sub    $0x10,%rsp
  4056cc:	48 89 7d f8          	mov    %rdi,-0x8(%rbp)
  4056d0:	48 8b 45 f8          	mov    -0x8(%rbp),%rax
  4056d4:	48 89 c7             	mov    %rax,%rdi
  4056d7:	e8 6c 26 00 00       	callq  407d48 <_ZN2cl6detail7WrapperIP15_cl_platform_idEC1Ev>
  4056dc:	90                   	nop
  4056dd:	c9                   	leaveq 
  4056de:	c3                   	retq   
  4056df:	90                   	nop

00000000004056e0 <_ZN2cl8PlatformC1ERKP15_cl_platform_idb>:
  4056e0:	55                   	push   %rbp
  4056e1:	48 89 e5             	mov    %rsp,%rbp
  4056e4:	48 83 ec 20          	sub    $0x20,%rsp
  4056e8:	48 89 7d f8          	mov    %rdi,-0x8(%rbp)
  4056ec:	48 89 75 f0          	mov    %rsi,-0x10(%rbp)
  4056f0:	89 d0                	mov    %edx,%eax
  4056f2:	88 45 ec             	mov    %al,-0x14(%rbp)
  4056f5:	0f b6 55 ec          	movzbl -0x14(%rbp),%edx
  4056f9:	48 8b 45 f8          	mov    -0x8(%rbp),%rax
  4056fd:	48 8b 4d f0          	mov    -0x10(%rbp),%rcx
  405701:	48 89 ce             	mov    %rcx,%rsi
  405704:	48 89 c7             	mov    %rax,%rdi
  405707:	e8 52 26 00 00       	callq  407d5e <_ZN2cl6detail7WrapperIP15_cl_platform_idEC1ERKS3_b>
  40570c:	90                   	nop
  40570d:	c9                   	leaveq 
  40570e:	c3                   	retq   
  40570f:	90                   	nop

0000000000405710 <_ZN2cl8PlatformC1ERKS0_>:
  405710:	55                   	push   %rbp
  405711:	48 89 e5             	mov    %rsp,%rbp
  405714:	48 83 ec 10          	sub    $0x10,%rsp
  405718:	48 89 7d f8          	mov    %rdi,-0x8(%rbp)
  40571c:	48 89 75 f0          	mov    %rsi,-0x10(%rbp)
  405720:	48 8b 55 f0          	mov    -0x10(%rbp),%rdx
  405724:	48 8b 45 f8          	mov    -0x8(%rbp),%rax
  405728:	48 89 d6             	mov    %rdx,%rsi
  40572b:	48 89 c7             	mov    %rax,%rdi
  40572e:	e8 6f 26 00 00       	callq  407da2 <_ZN2cl6detail7WrapperIP15_cl_platform_idEC1ERKS4_>
  405733:	90                   	nop
  405734:	c9                   	leaveq 
  405735:	c3                   	retq   

0000000000405736 <_ZN2cl8Platform10getDefaultEPi>:
  405736:	55                   	push   %rbp
  405737:	48 89 e5             	mov    %rsp,%rbp
  40573a:	48 83 ec 10          	sub    $0x10,%rsp
  40573e:	48 89 7d f8          	mov    %rdi,-0x8(%rbp)
  405742:	48 89 75 f0          	mov    %rsi,-0x10(%rbp)
  405746:	be 05 55 40 00       	mov    $0x405505,%esi
  40574b:	bf 64 96 61 00       	mov    $0x619664,%edi
  405750:	e8 c0 23 00 00       	callq  407b15 <_ZSt9call_onceIRFvvEJEEvRSt9once_flagOT_DpOT0_>
  405755:	8b 05 15 3f 21 00    	mov    0x213f15(%rip),%eax        # 619670 <_ZN2cl8Platform14default_error_E>
  40575b:	be 00 00 00 00       	mov    $0x0,%esi
  405760:	89 c7                	mov    %eax,%edi
  405762:	e8 36 ec ff ff       	callq  40439d <_ZN2cl6detailL10errHandlerEiPKc>
  405767:	48 83 7d f0 00       	cmpq   $0x0,-0x10(%rbp)
  40576c:	74 0c                	je     40577a <_ZN2cl8Platform10getDefaultEPi+0x44>
  40576e:	8b 15 fc 3e 21 00    	mov    0x213efc(%rip),%edx        # 619670 <_ZN2cl8Platform14default_error_E>
  405774:	48 8b 45 f0          	mov    -0x10(%rbp),%rax
  405778:	89 10                	mov    %edx,(%rax)
  40577a:	48 8b 45 f8          	mov    -0x8(%rbp),%rax
  40577e:	be 68 96 61 00       	mov    $0x619668,%esi
  405783:	48 89 c7             	mov    %rax,%rdi
  405786:	e8 85 ff ff ff       	callq  405710 <_ZN2cl8PlatformC1ERKS0_>
  40578b:	48 8b 45 f8          	mov    -0x8(%rbp),%rax
  40578f:	c9                   	leaveq 
  405790:	c3                   	retq   
  405791:	90                   	nop

0000000000405792 <_ZNK2cl8Platform10getDevicesEmPSt6vectorINS_6DeviceESaIS2_EE>:
  405792:	55                   	push   %rbp
  405793:	48 89 e5             	mov    %rsp,%rbp
  405796:	53                   	push   %rbx
  405797:	48 83 ec 68          	sub    $0x68,%rsp
  40579b:	48 89 7d a8          	mov    %rdi,-0x58(%rbp)
  40579f:	48 89 75 a0          	mov    %rsi,-0x60(%rbp)
  4057a3:	48 89 55 98          	mov    %rdx,-0x68(%rbp)
  4057a7:	64 48 8b 04 25 28 00 	mov    %fs:0x28,%rax
  4057ae:	00 00 
  4057b0:	48 89 45 e8          	mov    %rax,-0x18(%rbp)
  4057b4:	31 c0                	xor    %eax,%eax
  4057b6:	c7 45 b0 00 00 00 00 	movl   $0x0,-0x50(%rbp)
  4057bd:	48 83 7d 98 00       	cmpq   $0x0,-0x68(%rbp)
  4057c2:	75 16                	jne    4057da <_ZNK2cl8Platform10getDevicesEmPSt6vectorINS_6DeviceESaIS2_EE+0x48>
  4057c4:	be c0 03 41 00       	mov    $0x4103c0,%esi
  4057c9:	bf ce ff ff ff       	mov    $0xffffffce,%edi
  4057ce:	e8 ca eb ff ff       	callq  40439d <_ZN2cl6detailL10errHandlerEiPKc>
  4057d3:	89 c3                	mov    %eax,%ebx
  4057d5:	e9 78 01 00 00       	jmpq   405952 <_ZNK2cl8Platform10getDevicesEmPSt6vectorINS_6DeviceESaIS2_EE+0x1c0>
  4057da:	48 8b 45 a8          	mov    -0x58(%rbp),%rax
  4057de:	48 8b 00             	mov    (%rax),%rax
  4057e1:	48 8d 55 b0          	lea    -0x50(%rbp),%rdx
  4057e5:	48 8b 75 a0          	mov    -0x60(%rbp),%rsi
  4057e9:	49 89 d0             	mov    %rdx,%r8
  4057ec:	b9 00 00 00 00       	mov    $0x0,%ecx
  4057f1:	ba 00 00 00 00       	mov    $0x0,%edx
  4057f6:	48 89 c7             	mov    %rax,%rdi
  4057f9:	e8 a2 e7 ff ff       	callq  403fa0 <clGetDeviceIDs@plt>
  4057fe:	89 45 b4             	mov    %eax,-0x4c(%rbp)
  405801:	83 7d b4 00          	cmpl   $0x0,-0x4c(%rbp)
  405805:	74 16                	je     40581d <_ZNK2cl8Platform10getDevicesEmPSt6vectorINS_6DeviceESaIS2_EE+0x8b>
  405807:	8b 45 b4             	mov    -0x4c(%rbp),%eax
  40580a:	be c0 03 41 00       	mov    $0x4103c0,%esi
  40580f:	89 c7                	mov    %eax,%edi
  405811:	e8 87 eb ff ff       	callq  40439d <_ZN2cl6detailL10errHandlerEiPKc>
  405816:	89 c3                	mov    %eax,%ebx
  405818:	e9 35 01 00 00       	jmpq   405952 <_ZNK2cl8Platform10getDevicesEmPSt6vectorINS_6DeviceESaIS2_EE+0x1c0>
  40581d:	48 8d 45 c0          	lea    -0x40(%rbp),%rax
  405821:	48 89 c7             	mov    %rax,%rdi
  405824:	e8 b3 25 00 00       	callq  407ddc <_ZNSaIP13_cl_device_idEC1Ev>
  405829:	8b 45 b0             	mov    -0x50(%rbp),%eax
  40582c:	89 c1                	mov    %eax,%ecx
  40582e:	48 8d 55 c0          	lea    -0x40(%rbp),%rdx
  405832:	48 8d 45 d0          	lea    -0x30(%rbp),%rax
  405836:	48 89 ce             	mov    %rcx,%rsi
  405839:	48 89 c7             	mov    %rax,%rdi
  40583c:	e8 d3 25 00 00       	callq  407e14 <_ZNSt6vectorIP13_cl_device_idSaIS1_EEC1EmRKS2_>
  405841:	48 8d 45 c0          	lea    -0x40(%rbp),%rax
  405845:	48 89 c7             	mov    %rax,%rdi
  405848:	e8 ab 25 00 00       	callq  407df8 <_ZNSaIP13_cl_device_idED1Ev>
  40584d:	48 8d 45 d0          	lea    -0x30(%rbp),%rax
  405851:	48 89 c7             	mov    %rax,%rdi
  405854:	e8 61 26 00 00       	callq  407eba <_ZNSt6vectorIP13_cl_device_idSaIS1_EE4dataEv>
  405859:	48 89 c1             	mov    %rax,%rcx
  40585c:	8b 55 b0             	mov    -0x50(%rbp),%edx
  40585f:	48 8b 45 a8          	mov    -0x58(%rbp),%rax
  405863:	48 8b 00             	mov    (%rax),%rax
  405866:	48 8b 75 a0          	mov    -0x60(%rbp),%rsi
  40586a:	41 b8 00 00 00 00    	mov    $0x0,%r8d
  405870:	48 89 c7             	mov    %rax,%rdi
  405873:	e8 28 e7 ff ff       	callq  403fa0 <clGetDeviceIDs@plt>
  405878:	89 45 b4             	mov    %eax,-0x4c(%rbp)
  40587b:	83 7d b4 00          	cmpl   $0x0,-0x4c(%rbp)
  40587f:	74 16                	je     405897 <_ZNK2cl8Platform10getDevicesEmPSt6vectorINS_6DeviceESaIS2_EE+0x105>
  405881:	8b 45 b4             	mov    -0x4c(%rbp),%eax
  405884:	be c0 03 41 00       	mov    $0x4103c0,%esi
  405889:	89 c7                	mov    %eax,%edi
  40588b:	e8 0d eb ff ff       	callq  40439d <_ZN2cl6detailL10errHandlerEiPKc>
  405890:	89 c3                	mov    %eax,%ebx
  405892:	e9 af 00 00 00       	jmpq   405946 <_ZNK2cl8Platform10getDevicesEmPSt6vectorINS_6DeviceESaIS2_EE+0x1b4>
  405897:	48 83 7d 98 00       	cmpq   $0x0,-0x68(%rbp)
  40589c:	0f 84 9f 00 00 00    	je     405941 <_ZNK2cl8Platform10getDevicesEmPSt6vectorINS_6DeviceESaIS2_EE+0x1af>
  4058a2:	48 8d 45 d0          	lea    -0x30(%rbp),%rax
  4058a6:	48 89 c7             	mov    %rax,%rdi
  4058a9:	e8 30 26 00 00       	callq  407ede <_ZNKSt6vectorIP13_cl_device_idSaIS1_EE4sizeEv>
  4058ae:	48 89 c2             	mov    %rax,%rdx
  4058b1:	48 8b 45 98          	mov    -0x68(%rbp),%rax
  4058b5:	48 89 d6             	mov    %rdx,%rsi
  4058b8:	48 89 c7             	mov    %rax,%rdi
  4058bb:	e8 44 26 00 00       	callq  407f04 <_ZNSt6vectorIN2cl6DeviceESaIS1_EE6resizeEm>
  4058c0:	48 c7 45 b8 00 00 00 	movq   $0x0,-0x48(%rbp)
  4058c7:	00 
  4058c8:	48 8d 45 d0          	lea    -0x30(%rbp),%rax
  4058cc:	48 89 c7             	mov    %rax,%rdi
  4058cf:	e8 0a 26 00 00       	callq  407ede <_ZNKSt6vectorIP13_cl_device_idSaIS1_EE4sizeEv>
  4058d4:	48 3b 45 b8          	cmp    -0x48(%rbp),%rax
  4058d8:	0f 97 c0             	seta   %al
  4058db:	84 c0                	test   %al,%al
  4058dd:	74 62                	je     405941 <_ZNK2cl8Platform10getDevicesEmPSt6vectorINS_6DeviceESaIS2_EE+0x1af>
  4058df:	48 8b 55 b8          	mov    -0x48(%rbp),%rdx
  4058e3:	48 8d 45 d0          	lea    -0x30(%rbp),%rax
  4058e7:	48 89 d6             	mov    %rdx,%rsi
  4058ea:	48 89 c7             	mov    %rax,%rdi
  4058ed:	e8 be 26 00 00       	callq  407fb0 <_ZNSt6vectorIP13_cl_device_idSaIS1_EEixEm>
  4058f2:	48 89 c1             	mov    %rax,%rcx
  4058f5:	48 8d 45 c0          	lea    -0x40(%rbp),%rax
  4058f9:	ba 01 00 00 00       	mov    $0x1,%edx
  4058fe:	48 89 ce             	mov    %rcx,%rsi
  405901:	48 89 c7             	mov    %rax,%rdi
  405904:	e8 4d fa ff ff       	callq  405356 <_ZN2cl6DeviceC1ERKP13_cl_device_idb>
  405909:	48 8b 55 b8          	mov    -0x48(%rbp),%rdx
  40590d:	48 8b 45 98          	mov    -0x68(%rbp),%rax
  405911:	48 89 d6             	mov    %rdx,%rsi
  405914:	48 89 c7             	mov    %rax,%rdi
  405917:	e8 74 26 00 00       	callq  407f90 <_ZNSt6vectorIN2cl6DeviceESaIS1_EEixEm>
  40591c:	48 89 c2             	mov    %rax,%rdx
  40591f:	48 8d 45 c0          	lea    -0x40(%rbp),%rax
  405923:	48 89 c6             	mov    %rax,%rsi
  405926:	48 89 d7             	mov    %rdx,%rdi
  405929:	e8 5e fb ff ff       	callq  40548c <_ZN2cl6DeviceaSEOS0_>
  40592e:	48 8d 45 c0          	lea    -0x40(%rbp),%rax
  405932:	48 89 c7             	mov    %rax,%rdi
  405935:	e8 4c fa ff ff       	callq  405386 <_ZN2cl6DeviceD1Ev>
  40593a:	48 83 45 b8 01       	addq   $0x1,-0x48(%rbp)
  40593f:	eb 87                	jmp    4058c8 <_ZNK2cl8Platform10getDevicesEmPSt6vectorINS_6DeviceESaIS2_EE+0x136>
  405941:	bb 00 00 00 00       	mov    $0x0,%ebx
  405946:	48 8d 45 d0          	lea    -0x30(%rbp),%rax
  40594a:	48 89 c7             	mov    %rax,%rdi
  40594d:	e8 24 25 00 00       	callq  407e76 <_ZNSt6vectorIP13_cl_device_idSaIS1_EED1Ev>
  405952:	89 d8                	mov    %ebx,%eax
  405954:	48 8b 4d e8          	mov    -0x18(%rbp),%rcx
  405958:	64 48 33 0c 25 28 00 	xor    %fs:0x28,%rcx
  40595f:	00 00 
  405961:	74 4c                	je     4059af <_ZNK2cl8Platform10getDevicesEmPSt6vectorINS_6DeviceESaIS2_EE+0x21d>
  405963:	eb 45                	jmp    4059aa <_ZNK2cl8Platform10getDevicesEmPSt6vectorINS_6DeviceESaIS2_EE+0x218>
  405965:	48 89 c3             	mov    %rax,%rbx
  405968:	48 8d 45 c0          	lea    -0x40(%rbp),%rax
  40596c:	48 89 c7             	mov    %rax,%rdi
  40596f:	e8 84 24 00 00       	callq  407df8 <_ZNSaIP13_cl_device_idED1Ev>
  405974:	48 89 d8             	mov    %rbx,%rax
  405977:	48 89 c7             	mov    %rax,%rdi
  40597a:	e8 11 e8 ff ff       	callq  404190 <_Unwind_Resume@plt>
  40597f:	48 89 c3             	mov    %rax,%rbx
  405982:	48 8d 45 c0          	lea    -0x40(%rbp),%rax
  405986:	48 89 c7             	mov    %rax,%rdi
  405989:	e8 f8 f9 ff ff       	callq  405386 <_ZN2cl6DeviceD1Ev>
  40598e:	eb 03                	jmp    405993 <_ZNK2cl8Platform10getDevicesEmPSt6vectorINS_6DeviceESaIS2_EE+0x201>
  405990:	48 89 c3             	mov    %rax,%rbx
  405993:	48 8d 45 d0          	lea    -0x30(%rbp),%rax
  405997:	48 89 c7             	mov    %rax,%rdi
  40599a:	e8 d7 24 00 00       	callq  407e76 <_ZNSt6vectorIP13_cl_device_idSaIS1_EED1Ev>
  40599f:	48 89 d8             	mov    %rbx,%rax
  4059a2:	48 89 c7             	mov    %rax,%rdi
  4059a5:	e8 e6 e7 ff ff       	callq  404190 <_Unwind_Resume@plt>
  4059aa:	e8 81 e5 ff ff       	callq  403f30 <__stack_chk_fail@plt>
  4059af:	48 83 c4 68          	add    $0x68,%rsp
  4059b3:	5b                   	pop    %rbx
  4059b4:	5d                   	pop    %rbp
  4059b5:	c3                   	retq   

00000000004059b6 <_ZN2cl8Platform3getEPSt6vectorIS0_SaIS0_EE>:
  4059b6:	55                   	push   %rbp
  4059b7:	48 89 e5             	mov    %rsp,%rbp
  4059ba:	53                   	push   %rbx
  4059bb:	48 83 ec 58          	sub    $0x58,%rsp
  4059bf:	48 89 7d a8          	mov    %rdi,-0x58(%rbp)
  4059c3:	64 48 8b 04 25 28 00 	mov    %fs:0x28,%rax
  4059ca:	00 00 
  4059cc:	48 89 45 e8          	mov    %rax,-0x18(%rbp)
  4059d0:	31 c0                	xor    %eax,%eax
  4059d2:	c7 45 b8 00 00 00 00 	movl   $0x0,-0x48(%rbp)
  4059d9:	48 83 7d a8 00       	cmpq   $0x0,-0x58(%rbp)
  4059de:	75 16                	jne    4059f6 <_ZN2cl8Platform3getEPSt6vectorIS0_SaIS0_EE+0x40>
  4059e0:	be cf 03 41 00       	mov    $0x4103cf,%esi
  4059e5:	bf ce ff ff ff       	mov    $0xffffffce,%edi
  4059ea:	e8 ae e9 ff ff       	callq  40439d <_ZN2cl6detailL10errHandlerEiPKc>
  4059ef:	89 c3                	mov    %eax,%ebx
  4059f1:	e9 60 01 00 00       	jmpq   405b56 <_ZN2cl8Platform3getEPSt6vectorIS0_SaIS0_EE+0x1a0>
  4059f6:	48 8d 45 b8          	lea    -0x48(%rbp),%rax
  4059fa:	48 89 c2             	mov    %rax,%rdx
  4059fd:	be 00 00 00 00       	mov    $0x0,%esi
  405a02:	bf 00 00 00 00       	mov    $0x0,%edi
  405a07:	e8 04 e6 ff ff       	callq  404010 <clGetPlatformIDs@plt>
  405a0c:	89 45 bc             	mov    %eax,-0x44(%rbp)
  405a0f:	83 7d bc 00          	cmpl   $0x0,-0x44(%rbp)
  405a13:	74 16                	je     405a2b <_ZN2cl8Platform3getEPSt6vectorIS0_SaIS0_EE+0x75>
  405a15:	8b 45 bc             	mov    -0x44(%rbp),%eax
  405a18:	be cf 03 41 00       	mov    $0x4103cf,%esi
  405a1d:	89 c7                	mov    %eax,%edi
  405a1f:	e8 79 e9 ff ff       	callq  40439d <_ZN2cl6detailL10errHandlerEiPKc>
  405a24:	89 c3                	mov    %eax,%ebx
  405a26:	e9 2b 01 00 00       	jmpq   405b56 <_ZN2cl8Platform3getEPSt6vectorIS0_SaIS0_EE+0x1a0>
  405a2b:	48 8d 45 c0          	lea    -0x40(%rbp),%rax
  405a2f:	48 89 c7             	mov    %rax,%rdi
  405a32:	e8 75 21 00 00       	callq  407bac <_ZNSaIP15_cl_platform_idEC1Ev>
  405a37:	8b 45 b8             	mov    -0x48(%rbp),%eax
  405a3a:	89 c1                	mov    %eax,%ecx
  405a3c:	48 8d 55 c0          	lea    -0x40(%rbp),%rdx
  405a40:	48 8d 45 d0          	lea    -0x30(%rbp),%rax
  405a44:	48 89 ce             	mov    %rcx,%rsi
  405a47:	48 89 c7             	mov    %rax,%rdi
  405a4a:	e8 95 21 00 00       	callq  407be4 <_ZNSt6vectorIP15_cl_platform_idSaIS1_EEC1EmRKS2_>
  405a4f:	48 8d 45 c0          	lea    -0x40(%rbp),%rax
  405a53:	48 89 c7             	mov    %rax,%rdi
  405a56:	e8 6d 21 00 00       	callq  407bc8 <_ZNSaIP15_cl_platform_idED1Ev>
  405a5b:	48 8d 45 d0          	lea    -0x30(%rbp),%rax
  405a5f:	48 89 c7             	mov    %rax,%rdi
  405a62:	e8 23 22 00 00       	callq  407c8a <_ZNSt6vectorIP15_cl_platform_idSaIS1_EE4dataEv>
  405a67:	48 89 c1             	mov    %rax,%rcx
  405a6a:	8b 45 b8             	mov    -0x48(%rbp),%eax
  405a6d:	ba 00 00 00 00       	mov    $0x0,%edx
  405a72:	48 89 ce             	mov    %rcx,%rsi
  405a75:	89 c7                	mov    %eax,%edi
  405a77:	e8 94 e5 ff ff       	callq  404010 <clGetPlatformIDs@plt>
  405a7c:	89 45 bc             	mov    %eax,-0x44(%rbp)
  405a7f:	83 7d bc 00          	cmpl   $0x0,-0x44(%rbp)
  405a83:	74 16                	je     405a9b <_ZN2cl8Platform3getEPSt6vectorIS0_SaIS0_EE+0xe5>
  405a85:	8b 45 bc             	mov    -0x44(%rbp),%eax
  405a88:	be cf 03 41 00       	mov    $0x4103cf,%esi
  405a8d:	89 c7                	mov    %eax,%edi
  405a8f:	e8 09 e9 ff ff       	callq  40439d <_ZN2cl6detailL10errHandlerEiPKc>
  405a94:	89 c3                	mov    %eax,%ebx
  405a96:	e9 af 00 00 00       	jmpq   405b4a <_ZN2cl8Platform3getEPSt6vectorIS0_SaIS0_EE+0x194>
  405a9b:	48 83 7d a8 00       	cmpq   $0x0,-0x58(%rbp)
  405aa0:	0f 84 9f 00 00 00    	je     405b45 <_ZN2cl8Platform3getEPSt6vectorIS0_SaIS0_EE+0x18f>
  405aa6:	48 8d 45 d0          	lea    -0x30(%rbp),%rax
  405aaa:	48 89 c7             	mov    %rax,%rdi
  405aad:	e8 1e 25 00 00       	callq  407fd0 <_ZNKSt6vectorIP15_cl_platform_idSaIS1_EE4sizeEv>
  405ab2:	48 89 c2             	mov    %rax,%rdx
  405ab5:	48 8b 45 a8          	mov    -0x58(%rbp),%rax
  405ab9:	48 89 d6             	mov    %rdx,%rsi
  405abc:	48 89 c7             	mov    %rax,%rdi
  405abf:	e8 32 25 00 00       	callq  407ff6 <_ZNSt6vectorIN2cl8PlatformESaIS1_EE6resizeEm>
  405ac4:	48 c7 45 c8 00 00 00 	movq   $0x0,-0x38(%rbp)
  405acb:	00 
  405acc:	48 8d 45 d0          	lea    -0x30(%rbp),%rax
  405ad0:	48 89 c7             	mov    %rax,%rdi
  405ad3:	e8 f8 24 00 00       	callq  407fd0 <_ZNKSt6vectorIP15_cl_platform_idSaIS1_EE4sizeEv>
  405ad8:	48 3b 45 c8          	cmp    -0x38(%rbp),%rax
  405adc:	0f 97 c0             	seta   %al
  405adf:	84 c0                	test   %al,%al
  405ae1:	74 62                	je     405b45 <_ZN2cl8Platform3getEPSt6vectorIS0_SaIS0_EE+0x18f>
  405ae3:	48 8b 55 c8          	mov    -0x38(%rbp),%rdx
  405ae7:	48 8d 45 d0          	lea    -0x30(%rbp),%rax
  405aeb:	48 89 d6             	mov    %rdx,%rsi
  405aee:	48 89 c7             	mov    %rax,%rdi
  405af1:	e8 b8 21 00 00       	callq  407cae <_ZNSt6vectorIP15_cl_platform_idSaIS1_EEixEm>
  405af6:	48 89 c1             	mov    %rax,%rcx
  405af9:	48 8d 45 c0          	lea    -0x40(%rbp),%rax
  405afd:	ba 00 00 00 00       	mov    $0x0,%edx
  405b02:	48 89 ce             	mov    %rcx,%rsi
  405b05:	48 89 c7             	mov    %rax,%rdi
  405b08:	e8 d3 fb ff ff       	callq  4056e0 <_ZN2cl8PlatformC1ERKP15_cl_platform_idb>
  405b0d:	48 8b 55 c8          	mov    -0x38(%rbp),%rdx
  405b11:	48 8b 45 a8          	mov    -0x58(%rbp),%rax
  405b15:	48 89 d6             	mov    %rdx,%rsi
  405b18:	48 89 c7             	mov    %rax,%rdi
  405b1b:	e8 62 25 00 00       	callq  408082 <_ZNSt6vectorIN2cl8PlatformESaIS1_EEixEm>
  405b20:	48 89 c2             	mov    %rax,%rdx
  405b23:	48 8d 45 c0          	lea    -0x40(%rbp),%rax
  405b27:	48 89 c6             	mov    %rax,%rsi
  405b2a:	48 89 d7             	mov    %rdx,%rdi
  405b2d:	e8 aa f9 ff ff       	callq  4054dc <_ZN2cl8PlatformaSEOS0_>
  405b32:	48 8d 45 c0          	lea    -0x40(%rbp),%rax
  405b36:	48 89 c7             	mov    %rax,%rdi
  405b39:	e8 82 f9 ff ff       	callq  4054c0 <_ZN2cl8PlatformD1Ev>
  405b3e:	48 83 45 c8 01       	addq   $0x1,-0x38(%rbp)
  405b43:	eb 87                	jmp    405acc <_ZN2cl8Platform3getEPSt6vectorIS0_SaIS0_EE+0x116>
  405b45:	bb 00 00 00 00       	mov    $0x0,%ebx
  405b4a:	48 8d 45 d0          	lea    -0x30(%rbp),%rax
  405b4e:	48 89 c7             	mov    %rax,%rdi
  405b51:	e8 f0 20 00 00       	callq  407c46 <_ZNSt6vectorIP15_cl_platform_idSaIS1_EED1Ev>
  405b56:	89 d8                	mov    %ebx,%eax
  405b58:	48 8b 4d e8          	mov    -0x18(%rbp),%rcx
  405b5c:	64 48 33 0c 25 28 00 	xor    %fs:0x28,%rcx
  405b63:	00 00 
  405b65:	74 4c                	je     405bb3 <_ZN2cl8Platform3getEPSt6vectorIS0_SaIS0_EE+0x1fd>
  405b67:	eb 45                	jmp    405bae <_ZN2cl8Platform3getEPSt6vectorIS0_SaIS0_EE+0x1f8>
  405b69:	48 89 c3             	mov    %rax,%rbx
  405b6c:	48 8d 45 c0          	lea    -0x40(%rbp),%rax
  405b70:	48 89 c7             	mov    %rax,%rdi
  405b73:	e8 50 20 00 00       	callq  407bc8 <_ZNSaIP15_cl_platform_idED1Ev>
  405b78:	48 89 d8             	mov    %rbx,%rax
  405b7b:	48 89 c7             	mov    %rax,%rdi
  405b7e:	e8 0d e6 ff ff       	callq  404190 <_Unwind_Resume@plt>
  405b83:	48 89 c3             	mov    %rax,%rbx
  405b86:	48 8d 45 c0          	lea    -0x40(%rbp),%rax
  405b8a:	48 89 c7             	mov    %rax,%rdi
  405b8d:	e8 2e f9 ff ff       	callq  4054c0 <_ZN2cl8PlatformD1Ev>
  405b92:	eb 03                	jmp    405b97 <_ZN2cl8Platform3getEPSt6vectorIS0_SaIS0_EE+0x1e1>
  405b94:	48 89 c3             	mov    %rax,%rbx
  405b97:	48 8d 45 d0          	lea    -0x30(%rbp),%rax
  405b9b:	48 89 c7             	mov    %rax,%rdi
  405b9e:	e8 a3 20 00 00       	callq  407c46 <_ZNSt6vectorIP15_cl_platform_idSaIS1_EED1Ev>
  405ba3:	48 89 d8             	mov    %rbx,%rax
  405ba6:	48 89 c7             	mov    %rax,%rdi
  405ba9:	e8 e2 e5 ff ff       	callq  404190 <_Unwind_Resume@plt>
  405bae:	e8 7d e3 ff ff       	callq  403f30 <__stack_chk_fail@plt>
  405bb3:	48 83 c4 58          	add    $0x58,%rsp
  405bb7:	5b                   	pop    %rbx
  405bb8:	5d                   	pop    %rbp
  405bb9:	c3                   	retq   

0000000000405bba <_ZN2cl8PlatformC1EOS0_>:
  405bba:	55                   	push   %rbp
  405bbb:	48 89 e5             	mov    %rsp,%rbp
  405bbe:	48 83 ec 10          	sub    $0x10,%rsp
  405bc2:	48 89 7d f8          	mov    %rdi,-0x8(%rbp)
  405bc6:	48 89 75 f0          	mov    %rsi,-0x10(%rbp)
  405bca:	48 8b 55 f0          	mov    -0x10(%rbp),%rdx
  405bce:	48 8b 45 f8          	mov    -0x8(%rbp),%rax
  405bd2:	48 89 d6             	mov    %rdx,%rsi
  405bd5:	48 89 c7             	mov    %rax,%rdi
  405bd8:	e8 c5 24 00 00       	callq  4080a2 <_ZN2cl6detail7WrapperIP15_cl_platform_idEC1EOS4_>
  405bdd:	90                   	nop
  405bde:	c9                   	leaveq 
  405bdf:	c3                   	retq   

0000000000405be0 <_ZN2cl8Platform3getEPi>:
  405be0:	55                   	push   %rbp
  405be1:	48 89 e5             	mov    %rsp,%rbp
  405be4:	48 83 ec 20          	sub    $0x20,%rsp
  405be8:	48 89 7d e8          	mov    %rdi,-0x18(%rbp)
  405bec:	48 89 75 e0          	mov    %rsi,-0x20(%rbp)
  405bf0:	64 48 8b 04 25 28 00 	mov    %fs:0x28,%rax
  405bf7:	00 00 
  405bf9:	48 89 45 f8          	mov    %rax,-0x8(%rbp)
  405bfd:	31 c0                	xor    %eax,%eax
  405bff:	48 8b 45 e8          	mov    -0x18(%rbp),%rax
  405c03:	48 8d 55 f4          	lea    -0xc(%rbp),%rdx
  405c07:	48 89 d6             	mov    %rdx,%rsi
  405c0a:	48 89 c7             	mov    %rax,%rdi
  405c0d:	e8 24 fb ff ff       	callq  405736 <_ZN2cl8Platform10getDefaultEPi>
  405c12:	48 83 7d e0 00       	cmpq   $0x0,-0x20(%rbp)
  405c17:	74 0a                	je     405c23 <_ZN2cl8Platform3getEPi+0x43>
  405c19:	8b 55 f4             	mov    -0xc(%rbp),%edx
  405c1c:	48 8b 45 e0          	mov    -0x20(%rbp),%rax
  405c20:	89 10                	mov    %edx,(%rax)
  405c22:	90                   	nop
  405c23:	90                   	nop
  405c24:	48 8b 45 e8          	mov    -0x18(%rbp),%rax
  405c28:	48 8b 4d f8          	mov    -0x8(%rbp),%rcx
  405c2c:	64 48 33 0c 25 28 00 	xor    %fs:0x28,%rcx
  405c33:	00 00 
  405c35:	74 05                	je     405c3c <_ZN2cl8Platform3getEPi+0x5c>
  405c37:	e8 f4 e2 ff ff       	callq  403f30 <__stack_chk_fail@plt>
  405c3c:	c9                   	leaveq 
  405c3d:	c3                   	retq   

0000000000405c3e <_ZN2cl7ContextD1Ev>:
  405c3e:	55                   	push   %rbp
  405c3f:	48 89 e5             	mov    %rsp,%rbp
  405c42:	48 83 ec 10          	sub    $0x10,%rsp
  405c46:	48 89 7d f8          	mov    %rdi,-0x8(%rbp)
  405c4a:	48 8b 45 f8          	mov    -0x8(%rbp),%rax
  405c4e:	48 89 c7             	mov    %rax,%rdi
  405c51:	e8 82 24 00 00       	callq  4080d8 <_ZN2cl6detail7WrapperIP11_cl_contextED1Ev>
  405c56:	90                   	nop
  405c57:	c9                   	leaveq 
  405c58:	c3                   	retq   

0000000000405c59 <_ZN2cl7Context11makeDefaultEv>:
  405c59:	55                   	push   %rbp
  405c5a:	48 89 e5             	mov    %rsp,%rbp
  405c5d:	41 54                	push   %r12
  405c5f:	53                   	push   %rbx
  405c60:	48 83 ec 50          	sub    $0x50,%rsp
  405c64:	64 48 8b 04 25 28 00 	mov    %fs:0x28,%rax
  405c6b:	00 00 
  405c6d:	48 89 45 e8          	mov    %rax,-0x18(%rbp)
  405c71:	31 c0                	xor    %eax,%eax
  405c73:	48 8d 45 a8          	lea    -0x58(%rbp),%rax
  405c77:	be 00 00 00 00       	mov    $0x0,%esi
  405c7c:	48 89 c7             	mov    %rax,%rdi
  405c7f:	e8 b2 fa ff ff       	callq  405736 <_ZN2cl8Platform10getDefaultEPi>
  405c84:	48 8d 45 a8          	lea    -0x58(%rbp),%rax
  405c88:	48 89 45 b8          	mov    %rax,-0x48(%rbp)
  405c8c:	48 8b 45 b8          	mov    -0x48(%rbp),%rax
  405c90:	48 89 c7             	mov    %rax,%rdi
  405c93:	e8 32 24 00 00       	callq  4080ca <_ZNK2cl6detail7WrapperIP15_cl_platform_idEclEv>
  405c98:	48 8b 00             	mov    (%rax),%rax
  405c9b:	48 89 45 c0          	mov    %rax,-0x40(%rbp)
  405c9f:	48 c7 45 d0 00 00 00 	movq   $0x0,-0x30(%rbp)
  405ca6:	00 
  405ca7:	48 c7 45 d8 00 00 00 	movq   $0x0,-0x28(%rbp)
  405cae:	00 
  405caf:	48 c7 45 e0 00 00 00 	movq   $0x0,-0x20(%rbp)
  405cb6:	00 
  405cb7:	48 c7 45 d0 84 10 00 	movq   $0x1084,-0x30(%rbp)
  405cbe:	00 
  405cbf:	48 8b 45 c0          	mov    -0x40(%rbp),%rax
  405cc3:	48 89 45 d8          	mov    %rax,-0x28(%rbp)
  405cc7:	48 8d 55 d0          	lea    -0x30(%rbp),%rdx
  405ccb:	48 8d 45 b0          	lea    -0x50(%rbp),%rax
  405ccf:	41 b9 80 96 61 00    	mov    $0x619680,%r9d
  405cd5:	41 b8 00 00 00 00    	mov    $0x0,%r8d
  405cdb:	b9 00 00 00 00       	mov    $0x0,%ecx
  405ce0:	be 01 00 00 00       	mov    $0x1,%esi
  405ce5:	48 89 c7             	mov    %rax,%rdi
  405ce8:	e8 c9 00 00 00       	callq  405db6 <_ZN2cl7ContextC1EmPlPFvPKcPKvmPvES6_Pi>
  405ced:	48 8d 45 b0          	lea    -0x50(%rbp),%rax
  405cf1:	48 89 c6             	mov    %rax,%rsi
  405cf4:	bf 78 96 61 00       	mov    $0x619678,%edi
  405cf9:	e8 a6 04 00 00       	callq  4061a4 <_ZN2cl7ContextaSEOS0_>
  405cfe:	48 8d 45 b0          	lea    -0x50(%rbp),%rax
  405d02:	48 89 c7             	mov    %rax,%rdi
  405d05:	e8 34 ff ff ff       	callq  405c3e <_ZN2cl7ContextD1Ev>
  405d0a:	48 8d 45 a8          	lea    -0x58(%rbp),%rax
  405d0e:	48 89 c7             	mov    %rax,%rdi
  405d11:	e8 aa f7 ff ff       	callq  4054c0 <_ZN2cl8PlatformD1Ev>
  405d16:	eb 5f                	jmp    405d77 <_ZN2cl7Context11makeDefaultEv+0x11e>
  405d18:	49 89 c4             	mov    %rax,%r12
  405d1b:	48 89 d3             	mov    %rdx,%rbx
  405d1e:	48 8d 45 b0          	lea    -0x50(%rbp),%rax
  405d22:	48 89 c7             	mov    %rax,%rdi
  405d25:	e8 14 ff ff ff       	callq  405c3e <_ZN2cl7ContextD1Ev>
  405d2a:	eb 06                	jmp    405d32 <_ZN2cl7Context11makeDefaultEv+0xd9>
  405d2c:	49 89 c4             	mov    %rax,%r12
  405d2f:	48 89 d3             	mov    %rdx,%rbx
  405d32:	48 8d 45 a8          	lea    -0x58(%rbp),%rax
  405d36:	48 89 c7             	mov    %rax,%rdi
  405d39:	e8 82 f7 ff ff       	callq  4054c0 <_ZN2cl8PlatformD1Ev>
  405d3e:	4c 89 e0             	mov    %r12,%rax
  405d41:	48 89 da             	mov    %rbx,%rdx
  405d44:	eb 00                	jmp    405d46 <_ZN2cl7Context11makeDefaultEv+0xed>
  405d46:	48 83 fa 01          	cmp    $0x1,%rdx
  405d4a:	74 08                	je     405d54 <_ZN2cl7Context11makeDefaultEv+0xfb>
  405d4c:	48 89 c7             	mov    %rax,%rdi
  405d4f:	e8 3c e4 ff ff       	callq  404190 <_Unwind_Resume@plt>
  405d54:	48 89 c7             	mov    %rax,%rdi
  405d57:	e8 64 e0 ff ff       	callq  403dc0 <__cxa_begin_catch@plt>
  405d5c:	48 89 45 c8          	mov    %rax,-0x38(%rbp)
  405d60:	48 8b 45 c8          	mov    -0x38(%rbp),%rax
  405d64:	48 89 c7             	mov    %rax,%rdi
  405d67:	e8 f4 f1 ff ff       	callq  404f60 <_ZNK2cl5Error3errEv>
  405d6c:	89 05 0e 39 21 00    	mov    %eax,0x21390e(%rip)        # 619680 <_ZN2cl7Context14default_error_E>
  405d72:	e8 99 e3 ff ff       	callq  404110 <__cxa_end_catch@plt>
  405d77:	90                   	nop
  405d78:	48 8b 45 e8          	mov    -0x18(%rbp),%rax
  405d7c:	64 48 33 04 25 28 00 	xor    %fs:0x28,%rax
  405d83:	00 00 
  405d85:	74 05                	je     405d8c <_ZN2cl7Context11makeDefaultEv+0x133>
  405d87:	e8 a4 e1 ff ff       	callq  403f30 <__stack_chk_fail@plt>
  405d8c:	48 83 c4 50          	add    $0x50,%rsp
  405d90:	5b                   	pop    %rbx
  405d91:	41 5c                	pop    %r12
  405d93:	5d                   	pop    %rbp
  405d94:	c3                   	retq   

0000000000405d95 <_ZN2cl7Context19makeDefaultProvidedERKS0_>:
  405d95:	55                   	push   %rbp
  405d96:	48 89 e5             	mov    %rsp,%rbp
  405d99:	48 83 ec 10          	sub    $0x10,%rsp
  405d9d:	48 89 7d f8          	mov    %rdi,-0x8(%rbp)
  405da1:	48 8b 45 f8          	mov    -0x8(%rbp),%rax
  405da5:	48 89 c6             	mov    %rax,%rsi
  405da8:	bf 78 96 61 00       	mov    $0x619678,%edi
  405dad:	e8 ba 03 00 00       	callq  40616c <_ZN2cl7ContextaSERKS0_>
  405db2:	90                   	nop
  405db3:	c9                   	leaveq 
  405db4:	c3                   	retq   
  405db5:	90                   	nop

0000000000405db6 <_ZN2cl7ContextC1EmPlPFvPKcPKvmPvES6_Pi>:
  405db6:	55                   	push   %rbp
  405db7:	48 89 e5             	mov    %rsp,%rbp
  405dba:	53                   	push   %rbx
  405dbb:	48 81 ec d8 00 00 00 	sub    $0xd8,%rsp
  405dc2:	48 89 bd 48 ff ff ff 	mov    %rdi,-0xb8(%rbp)
  405dc9:	48 89 b5 40 ff ff ff 	mov    %rsi,-0xc0(%rbp)
  405dd0:	48 89 95 38 ff ff ff 	mov    %rdx,-0xc8(%rbp)
  405dd7:	48 89 8d 30 ff ff ff 	mov    %rcx,-0xd0(%rbp)
  405dde:	4c 89 85 28 ff ff ff 	mov    %r8,-0xd8(%rbp)
  405de5:	4c 89 8d 20 ff ff ff 	mov    %r9,-0xe0(%rbp)
  405dec:	64 48 8b 04 25 28 00 	mov    %fs:0x28,%rax
  405df3:	00 00 
  405df5:	48 89 45 e8          	mov    %rax,-0x18(%rbp)
  405df9:	31 c0                	xor    %eax,%eax
  405dfb:	48 8b 85 48 ff ff ff 	mov    -0xb8(%rbp),%rax
  405e02:	48 89 c7             	mov    %rax,%rdi
  405e05:	e8 f6 22 00 00       	callq  408100 <_ZN2cl6detail7WrapperIP11_cl_contextEC1Ev>
  405e0a:	48 c7 45 c0 84 10 00 	movq   $0x1084,-0x40(%rbp)
  405e11:	00 
  405e12:	48 c7 45 c8 00 00 00 	movq   $0x0,-0x38(%rbp)
  405e19:	00 
  405e1a:	48 c7 45 d0 00 00 00 	movq   $0x0,-0x30(%rbp)
  405e21:	00 
  405e22:	48 c7 45 d8 00 00 00 	movq   $0x0,-0x28(%rbp)
  405e29:	00 
  405e2a:	48 83 bd 38 ff ff ff 	cmpq   $0x0,-0xc8(%rbp)
  405e31:	00 
  405e32:	0f 85 f3 01 00 00    	jne    40602b <_ZN2cl7ContextC1EmPlPFvPKcPKvmPvES6_Pi+0x275>
  405e38:	48 8d 85 60 ff ff ff 	lea    -0xa0(%rbp),%rax
  405e3f:	48 89 c7             	mov    %rax,%rdi
  405e42:	e8 f5 22 00 00       	callq  40813c <_ZNSt6vectorIN2cl8PlatformESaIS1_EEC1Ev>
  405e47:	48 8d 85 60 ff ff ff 	lea    -0xa0(%rbp),%rax
  405e4e:	48 89 c7             	mov    %rax,%rdi
  405e51:	e8 60 fb ff ff       	callq  4059b6 <_ZN2cl8Platform3getEPSt6vectorIS0_SaIS0_EE>
  405e56:	89 85 50 ff ff ff    	mov    %eax,-0xb0(%rbp)
  405e5c:	8b 85 50 ff ff ff    	mov    -0xb0(%rbp),%eax
  405e62:	85 c0                	test   %eax,%eax
  405e64:	74 35                	je     405e9b <_ZN2cl7ContextC1EmPlPFvPKcPKvmPvES6_Pi+0xe5>
  405e66:	8b 85 50 ff ff ff    	mov    -0xb0(%rbp),%eax
  405e6c:	be e0 03 41 00       	mov    $0x4103e0,%esi
  405e71:	89 c7                	mov    %eax,%edi
  405e73:	e8 25 e5 ff ff       	callq  40439d <_ZN2cl6detailL10errHandlerEiPKc>
  405e78:	48 83 bd 20 ff ff ff 	cmpq   $0x0,-0xe0(%rbp)
  405e7f:	00 
  405e80:	74 0f                	je     405e91 <_ZN2cl7ContextC1EmPlPFvPKcPKvmPvES6_Pi+0xdb>
  405e82:	8b 95 50 ff ff ff    	mov    -0xb0(%rbp),%edx
  405e88:	48 8b 85 20 ff ff ff 	mov    -0xe0(%rbp),%rax
  405e8f:	89 10                	mov    %edx,(%rax)
  405e91:	bb 00 00 00 00       	mov    $0x0,%ebx
  405e96:	e9 77 01 00 00       	jmpq   406012 <_ZN2cl7ContextC1EmPlPFvPKcPKvmPvES6_Pi+0x25c>
  405e9b:	48 c7 85 58 ff ff ff 	movq   $0x0,-0xa8(%rbp)
  405ea2:	00 00 00 00 
  405ea6:	c7 85 54 ff ff ff 00 	movl   $0x0,-0xac(%rbp)
  405ead:	00 00 00 
  405eb0:	8b 9d 54 ff ff ff    	mov    -0xac(%rbp),%ebx
  405eb6:	48 8d 85 60 ff ff ff 	lea    -0xa0(%rbp),%rax
  405ebd:	48 89 c7             	mov    %rax,%rdi
  405ec0:	e8 d7 22 00 00       	callq  40819c <_ZNKSt6vectorIN2cl8PlatformESaIS1_EE4sizeEv>
  405ec5:	48 39 c3             	cmp    %rax,%rbx
  405ec8:	0f 92 c0             	setb   %al
  405ecb:	84 c0                	test   %al,%al
  405ecd:	0f 84 ed 00 00 00    	je     405fc0 <_ZN2cl7ContextC1EmPlPFvPKcPKvmPvES6_Pi+0x20a>
  405ed3:	48 8d 45 80          	lea    -0x80(%rbp),%rax
  405ed7:	48 89 c7             	mov    %rax,%rdi
  405eda:	e8 e3 22 00 00       	callq  4081c2 <_ZNSt6vectorIN2cl6DeviceESaIS1_EEC1Ev>
  405edf:	8b 95 54 ff ff ff    	mov    -0xac(%rbp),%edx
  405ee5:	48 8d 85 60 ff ff ff 	lea    -0xa0(%rbp),%rax
  405eec:	48 89 d6             	mov    %rdx,%rsi
  405eef:	48 89 c7             	mov    %rax,%rdi
  405ef2:	e8 8b 21 00 00       	callq  408082 <_ZNSt6vectorIN2cl8PlatformESaIS1_EEixEm>
  405ef7:	48 89 c1             	mov    %rax,%rcx
  405efa:	48 8d 55 80          	lea    -0x80(%rbp),%rdx
  405efe:	48 8b 85 40 ff ff ff 	mov    -0xc0(%rbp),%rax
  405f05:	48 89 c6             	mov    %rax,%rsi
  405f08:	48 89 cf             	mov    %rcx,%rdi
  405f0b:	e8 82 f8 ff ff       	callq  405792 <_ZNK2cl8Platform10getDevicesEmPSt6vectorINS_6DeviceESaIS2_EE>
  405f10:	89 85 50 ff ff ff    	mov    %eax,-0xb0(%rbp)
  405f16:	8b 85 50 ff ff ff    	mov    -0xb0(%rbp),%eax
  405f1c:	85 c0                	test   %eax,%eax
  405f1e:	74 36                	je     405f56 <_ZN2cl7ContextC1EmPlPFvPKcPKvmPvES6_Pi+0x1a0>
  405f20:	8b 85 50 ff ff ff    	mov    -0xb0(%rbp),%eax
  405f26:	83 f8 ff             	cmp    $0xffffffff,%eax
  405f29:	74 2b                	je     405f56 <_ZN2cl7ContextC1EmPlPFvPKcPKvmPvES6_Pi+0x1a0>
  405f2b:	8b 85 50 ff ff ff    	mov    -0xb0(%rbp),%eax
  405f31:	be e0 03 41 00       	mov    $0x4103e0,%esi
  405f36:	89 c7                	mov    %eax,%edi
  405f38:	e8 60 e4 ff ff       	callq  40439d <_ZN2cl6detailL10errHandlerEiPKc>
  405f3d:	48 83 bd 20 ff ff ff 	cmpq   $0x0,-0xe0(%rbp)
  405f44:	00 
  405f45:	74 0f                	je     405f56 <_ZN2cl7ContextC1EmPlPFvPKcPKvmPvES6_Pi+0x1a0>
  405f47:	8b 95 50 ff ff ff    	mov    -0xb0(%rbp),%edx
  405f4d:	48 8b 85 20 ff ff ff 	mov    -0xe0(%rbp),%rax
  405f54:	89 10                	mov    %edx,(%rax)
  405f56:	48 8d 45 80          	lea    -0x80(%rbp),%rax
  405f5a:	48 89 c7             	mov    %rax,%rdi
  405f5d:	e8 b4 21 00 00       	callq  408116 <_ZNKSt6vectorIN2cl6DeviceESaIS1_EE4sizeEv>
  405f62:	48 85 c0             	test   %rax,%rax
  405f65:	0f 95 c0             	setne  %al
  405f68:	84 c0                	test   %al,%al
  405f6a:	74 31                	je     405f9d <_ZN2cl7ContextC1EmPlPFvPKcPKvmPvES6_Pi+0x1e7>
  405f6c:	8b 95 54 ff ff ff    	mov    -0xac(%rbp),%edx
  405f72:	48 8d 85 60 ff ff ff 	lea    -0xa0(%rbp),%rax
  405f79:	48 89 d6             	mov    %rdx,%rsi
  405f7c:	48 89 c7             	mov    %rax,%rdi
  405f7f:	e8 fe 20 00 00       	callq  408082 <_ZNSt6vectorIN2cl8PlatformESaIS1_EEixEm>
  405f84:	48 89 c7             	mov    %rax,%rdi
  405f87:	e8 96 22 00 00       	callq  408222 <_ZN2cl6detail7WrapperIP15_cl_platform_idEclEv>
  405f8c:	48 8b 00             	mov    (%rax),%rax
  405f8f:	48 89 85 58 ff ff ff 	mov    %rax,-0xa8(%rbp)
  405f96:	bb 00 00 00 00       	mov    $0x0,%ebx
  405f9b:	eb 05                	jmp    405fa2 <_ZN2cl7ContextC1EmPlPFvPKcPKvmPvES6_Pi+0x1ec>
  405f9d:	bb 01 00 00 00       	mov    $0x1,%ebx
  405fa2:	48 8d 45 80          	lea    -0x80(%rbp),%rax
  405fa6:	48 89 c7             	mov    %rax,%rdi
  405fa9:	e8 30 22 00 00       	callq  4081de <_ZNSt6vectorIN2cl6DeviceESaIS1_EED1Ev>
  405fae:	83 fb 01             	cmp    $0x1,%ebx
  405fb1:	75 0d                	jne    405fc0 <_ZN2cl7ContextC1EmPlPFvPKcPKvmPvES6_Pi+0x20a>
  405fb3:	90                   	nop
  405fb4:	83 85 54 ff ff ff 01 	addl   $0x1,-0xac(%rbp)
  405fbb:	e9 f0 fe ff ff       	jmpq   405eb0 <_ZN2cl7ContextC1EmPlPFvPKcPKvmPvES6_Pi+0xfa>
  405fc0:	48 83 bd 58 ff ff ff 	cmpq   $0x0,-0xa8(%rbp)
  405fc7:	00 
  405fc8:	75 2d                	jne    405ff7 <_ZN2cl7ContextC1EmPlPFvPKcPKvmPvES6_Pi+0x241>
  405fca:	be e0 03 41 00       	mov    $0x4103e0,%esi
  405fcf:	bf ff ff ff ff       	mov    $0xffffffff,%edi
  405fd4:	e8 c4 e3 ff ff       	callq  40439d <_ZN2cl6detailL10errHandlerEiPKc>
  405fd9:	48 83 bd 20 ff ff ff 	cmpq   $0x0,-0xe0(%rbp)
  405fe0:	00 
  405fe1:	74 0d                	je     405ff0 <_ZN2cl7ContextC1EmPlPFvPKcPKvmPvES6_Pi+0x23a>
  405fe3:	48 8b 85 20 ff ff ff 	mov    -0xe0(%rbp),%rax
  405fea:	c7 00 ff ff ff ff    	movl   $0xffffffff,(%rax)
  405ff0:	bb 00 00 00 00       	mov    $0x0,%ebx
  405ff5:	eb 1b                	jmp    406012 <_ZN2cl7ContextC1EmPlPFvPKcPKvmPvES6_Pi+0x25c>
  405ff7:	48 8b 85 58 ff ff ff 	mov    -0xa8(%rbp),%rax
  405ffe:	48 89 45 c8          	mov    %rax,-0x38(%rbp)
  406002:	48 8d 45 c0          	lea    -0x40(%rbp),%rax
  406006:	48 89 85 38 ff ff ff 	mov    %rax,-0xc8(%rbp)
  40600d:	bb 01 00 00 00       	mov    $0x1,%ebx
  406012:	48 8d 85 60 ff ff ff 	lea    -0xa0(%rbp),%rax
  406019:	48 89 c7             	mov    %rax,%rdi
  40601c:	e8 37 21 00 00       	callq  408158 <_ZNSt6vectorIN2cl8PlatformESaIS1_EED1Ev>
  406021:	83 fb 01             	cmp    $0x1,%ebx
  406024:	0f 85 fe 00 00 00    	jne    406128 <_ZN2cl7ContextC1EmPlPFvPKcPKvmPvES6_Pi+0x372>
  40602a:	90                   	nop
  40602b:	48 8d bd 50 ff ff ff 	lea    -0xb0(%rbp),%rdi
  406032:	48 8b 8d 28 ff ff ff 	mov    -0xd8(%rbp),%rcx
  406039:	48 8b 95 30 ff ff ff 	mov    -0xd0(%rbp),%rdx
  406040:	48 8b b5 40 ff ff ff 	mov    -0xc0(%rbp),%rsi
  406047:	48 8b 85 38 ff ff ff 	mov    -0xc8(%rbp),%rax
  40604e:	49 89 f8             	mov    %rdi,%r8
  406051:	48 89 c7             	mov    %rax,%rdi
  406054:	e8 c7 dd ff ff       	callq  403e20 <clCreateContextFromType@plt>
  406059:	48 89 c2             	mov    %rax,%rdx
  40605c:	48 8b 85 48 ff ff ff 	mov    -0xb8(%rbp),%rax
  406063:	48 89 10             	mov    %rdx,(%rax)
  406066:	8b 85 50 ff ff ff    	mov    -0xb0(%rbp),%eax
  40606c:	be e0 03 41 00       	mov    $0x4103e0,%esi
  406071:	89 c7                	mov    %eax,%edi
  406073:	e8 25 e3 ff ff       	callq  40439d <_ZN2cl6detailL10errHandlerEiPKc>
  406078:	48 83 bd 20 ff ff ff 	cmpq   $0x0,-0xe0(%rbp)
  40607f:	00 
  406080:	0f 84 a2 00 00 00    	je     406128 <_ZN2cl7ContextC1EmPlPFvPKcPKvmPvES6_Pi+0x372>
  406086:	8b 95 50 ff ff ff    	mov    -0xb0(%rbp),%edx
  40608c:	48 8b 85 20 ff ff ff 	mov    -0xe0(%rbp),%rax
  406093:	89 10                	mov    %edx,(%rax)
  406095:	e9 8e 00 00 00       	jmpq   406128 <_ZN2cl7ContextC1EmPlPFvPKcPKvmPvES6_Pi+0x372>
  40609a:	48 89 c3             	mov    %rax,%rbx
  40609d:	48 89 d0             	mov    %rdx,%rax
  4060a0:	48 83 f8 01          	cmp    $0x1,%rax
  4060a4:	74 02                	je     4060a8 <_ZN2cl7ContextC1EmPlPFvPKcPKvmPvES6_Pi+0x2f2>
  4060a6:	eb 41                	jmp    4060e9 <_ZN2cl7ContextC1EmPlPFvPKcPKvmPvES6_Pi+0x333>
  4060a8:	48 89 d8             	mov    %rbx,%rax
  4060ab:	48 89 c7             	mov    %rax,%rdi
  4060ae:	e8 0d df ff ff       	callq  403fc0 <__cxa_get_exception_ptr@plt>
  4060b3:	48 89 c2             	mov    %rax,%rdx
  4060b6:	48 8d 45 a0          	lea    -0x60(%rbp),%rax
  4060ba:	48 89 d6             	mov    %rdx,%rsi
  4060bd:	48 89 c7             	mov    %rax,%rdi
  4060c0:	e8 c9 ee ff ff       	callq  404f8e <_ZN2cl5ErrorC1ERKS0_>
  4060c5:	48 89 d8             	mov    %rbx,%rax
  4060c8:	48 89 c7             	mov    %rax,%rdi
  4060cb:	e8 f0 dc ff ff       	callq  403dc0 <__cxa_begin_catch@plt>
  4060d0:	48 8d 45 a0          	lea    -0x60(%rbp),%rax
  4060d4:	48 89 c7             	mov    %rax,%rdi
  4060d7:	e8 10 ee ff ff       	callq  404eec <_ZN2cl5ErrorD1Ev>
  4060dc:	e8 2f e0 ff ff       	callq  404110 <__cxa_end_catch@plt>
  4060e1:	e9 30 fe ff ff       	jmpq   405f16 <_ZN2cl7ContextC1EmPlPFvPKcPKvmPvES6_Pi+0x160>
  4060e6:	48 89 c3             	mov    %rax,%rbx
  4060e9:	48 8d 45 80          	lea    -0x80(%rbp),%rax
  4060ed:	48 89 c7             	mov    %rax,%rdi
  4060f0:	e8 e9 20 00 00       	callq  4081de <_ZNSt6vectorIN2cl6DeviceESaIS1_EED1Ev>
  4060f5:	eb 03                	jmp    4060fa <_ZN2cl7ContextC1EmPlPFvPKcPKvmPvES6_Pi+0x344>
  4060f7:	48 89 c3             	mov    %rax,%rbx
  4060fa:	48 8d 85 60 ff ff ff 	lea    -0xa0(%rbp),%rax
  406101:	48 89 c7             	mov    %rax,%rdi
  406104:	e8 4f 20 00 00       	callq  408158 <_ZNSt6vectorIN2cl8PlatformESaIS1_EED1Ev>
  406109:	eb 03                	jmp    40610e <_ZN2cl7ContextC1EmPlPFvPKcPKvmPvES6_Pi+0x358>
  40610b:	48 89 c3             	mov    %rax,%rbx
  40610e:	48 8b 85 48 ff ff ff 	mov    -0xb8(%rbp),%rax
  406115:	48 89 c7             	mov    %rax,%rdi
  406118:	e8 bb 1f 00 00       	callq  4080d8 <_ZN2cl6detail7WrapperIP11_cl_contextED1Ev>
  40611d:	48 89 d8             	mov    %rbx,%rax
  406120:	48 89 c7             	mov    %rax,%rdi
  406123:	e8 68 e0 ff ff       	callq  404190 <_Unwind_Resume@plt>
  406128:	48 8b 45 e8          	mov    -0x18(%rbp),%rax
  40612c:	64 48 33 04 25 28 00 	xor    %fs:0x28,%rax
  406133:	00 00 
  406135:	74 05                	je     40613c <_ZN2cl7ContextC1EmPlPFvPKcPKvmPvES6_Pi+0x386>
  406137:	e8 f4 dd ff ff       	callq  403f30 <__stack_chk_fail@plt>
  40613c:	48 81 c4 d8 00 00 00 	add    $0xd8,%rsp
  406143:	5b                   	pop    %rbx
  406144:	5d                   	pop    %rbp
  406145:	c3                   	retq   

0000000000406146 <_ZN2cl7ContextC1ERKS0_>:
  406146:	55                   	push   %rbp
  406147:	48 89 e5             	mov    %rsp,%rbp
  40614a:	48 83 ec 10          	sub    $0x10,%rsp
  40614e:	48 89 7d f8          	mov    %rdi,-0x8(%rbp)
  406152:	48 89 75 f0          	mov    %rsi,-0x10(%rbp)
  406156:	48 8b 55 f0          	mov    -0x10(%rbp),%rdx
  40615a:	48 8b 45 f8          	mov    -0x8(%rbp),%rax
  40615e:	48 89 d6             	mov    %rdx,%rsi
  406161:	48 89 c7             	mov    %rax,%rdi
  406164:	e8 c7 20 00 00       	callq  408230 <_ZN2cl6detail7WrapperIP11_cl_contextEC1ERKS4_>
  406169:	90                   	nop
  40616a:	c9                   	leaveq 
  40616b:	c3                   	retq   

000000000040616c <_ZN2cl7ContextaSERKS0_>:
  40616c:	55                   	push   %rbp
  40616d:	48 89 e5             	mov    %rsp,%rbp
  406170:	48 83 ec 10          	sub    $0x10,%rsp
  406174:	48 89 7d f8          	mov    %rdi,-0x8(%rbp)
  406178:	48 89 75 f0          	mov    %rsi,-0x10(%rbp)
  40617c:	48 8b 55 f0          	mov    -0x10(%rbp),%rdx
  406180:	48 8b 45 f8          	mov    -0x8(%rbp),%rax
  406184:	48 89 d6             	mov    %rdx,%rsi
  406187:	48 89 c7             	mov    %rax,%rdi
  40618a:	e8 db 20 00 00       	callq  40826a <_ZN2cl6detail7WrapperIP11_cl_contextEaSERKS4_>
  40618f:	48 8b 45 f8          	mov    -0x8(%rbp),%rax
  406193:	c9                   	leaveq 
  406194:	c3                   	retq   

0000000000406195 <_ZSt4moveIRN2cl7ContextEEONSt16remove_referenceIT_E4typeEOS4_>:
  406195:	55                   	push   %rbp
  406196:	48 89 e5             	mov    %rsp,%rbp
  406199:	48 89 7d f8          	mov    %rdi,-0x8(%rbp)
  40619d:	48 8b 45 f8          	mov    -0x8(%rbp),%rax
  4061a1:	5d                   	pop    %rbp
  4061a2:	c3                   	retq   
  4061a3:	90                   	nop

00000000004061a4 <_ZN2cl7ContextaSEOS0_>:
  4061a4:	55                   	push   %rbp
  4061a5:	48 89 e5             	mov    %rsp,%rbp
  4061a8:	48 83 ec 10          	sub    $0x10,%rsp
  4061ac:	48 89 7d f8          	mov    %rdi,-0x8(%rbp)
  4061b0:	48 89 75 f0          	mov    %rsi,-0x10(%rbp)
  4061b4:	48 8b 45 f0          	mov    -0x10(%rbp),%rax
  4061b8:	48 89 c7             	mov    %rax,%rdi
  4061bb:	e8 d5 ff ff ff       	callq  406195 <_ZSt4moveIRN2cl7ContextEEONSt16remove_referenceIT_E4typeEOS4_>
  4061c0:	48 89 c2             	mov    %rax,%rdx
  4061c3:	48 8b 45 f8          	mov    -0x8(%rbp),%rax
  4061c7:	48 89 d6             	mov    %rdx,%rsi
  4061ca:	48 89 c7             	mov    %rax,%rdi
  4061cd:	e8 f6 20 00 00       	callq  4082c8 <_ZN2cl6detail7WrapperIP11_cl_contextEaSEOS4_>
  4061d2:	48 8b 45 f8          	mov    -0x8(%rbp),%rax
  4061d6:	c9                   	leaveq 
  4061d7:	c3                   	retq   

00000000004061d8 <_ZN2cl7Context10getDefaultEPi>:
  4061d8:	55                   	push   %rbp
  4061d9:	48 89 e5             	mov    %rsp,%rbp
  4061dc:	48 83 ec 10          	sub    $0x10,%rsp
  4061e0:	48 89 7d f8          	mov    %rdi,-0x8(%rbp)
  4061e4:	48 89 75 f0          	mov    %rsi,-0x10(%rbp)
  4061e8:	be 59 5c 40 00       	mov    $0x405c59,%esi
  4061ed:	bf 74 96 61 00       	mov    $0x619674,%edi
  4061f2:	e8 1e 19 00 00       	callq  407b15 <_ZSt9call_onceIRFvvEJEEvRSt9once_flagOT_DpOT0_>
  4061f7:	8b 05 83 34 21 00    	mov    0x213483(%rip),%eax        # 619680 <_ZN2cl7Context14default_error_E>
  4061fd:	be 00 00 00 00       	mov    $0x0,%esi
  406202:	89 c7                	mov    %eax,%edi
  406204:	e8 94 e1 ff ff       	callq  40439d <_ZN2cl6detailL10errHandlerEiPKc>
  406209:	48 83 7d f0 00       	cmpq   $0x0,-0x10(%rbp)
  40620e:	74 0c                	je     40621c <_ZN2cl7Context10getDefaultEPi+0x44>
  406210:	8b 15 6a 34 21 00    	mov    0x21346a(%rip),%edx        # 619680 <_ZN2cl7Context14default_error_E>
  406216:	48 8b 45 f0          	mov    -0x10(%rbp),%rax
  40621a:	89 10                	mov    %edx,(%rax)
  40621c:	48 8b 45 f8          	mov    -0x8(%rbp),%rax
  406220:	be 78 96 61 00       	mov    $0x619678,%esi
  406225:	48 89 c7             	mov    %rax,%rdi
  406228:	e8 19 ff ff ff       	callq  406146 <_ZN2cl7ContextC1ERKS0_>
  40622d:	48 8b 45 f8          	mov    -0x8(%rbp),%rax
  406231:	c9                   	leaveq 
  406232:	c3                   	retq   

0000000000406233 <_ZN2cl7Context10setDefaultERKS0_>:
  406233:	55                   	push   %rbp
  406234:	48 89 e5             	mov    %rsp,%rbp
  406237:	48 83 ec 20          	sub    $0x20,%rsp
  40623b:	48 89 7d e8          	mov    %rdi,-0x18(%rbp)
  40623f:	48 89 75 e0          	mov    %rsi,-0x20(%rbp)
  406243:	64 48 8b 04 25 28 00 	mov    %fs:0x28,%rax
  40624a:	00 00 
  40624c:	48 89 45 f8          	mov    %rax,-0x8(%rbp)
  406250:	31 c0                	xor    %eax,%eax
  406252:	48 8b 45 e0          	mov    -0x20(%rbp),%rax
  406256:	48 89 c7             	mov    %rax,%rdi
  406259:	e8 bb 20 00 00       	callq  408319 <_ZSt4crefIN2cl7ContextEESt17reference_wrapperIKT_ERS4_>
  40625e:	48 89 45 f0          	mov    %rax,-0x10(%rbp)
  406262:	48 8d 45 f0          	lea    -0x10(%rbp),%rax
  406266:	48 89 c2             	mov    %rax,%rdx
  406269:	be 95 5d 40 00       	mov    $0x405d95,%esi
  40626e:	bf 74 96 61 00       	mov    $0x619674,%edi
  406273:	e8 89 21 00 00       	callq  408401 <_ZSt9call_onceIRFvRKN2cl7ContextEEJSt17reference_wrapperIS2_EEEvRSt9once_flagOT_DpOT0_>
  406278:	8b 05 02 34 21 00    	mov    0x213402(%rip),%eax        # 619680 <_ZN2cl7Context14default_error_E>
  40627e:	be 00 00 00 00       	mov    $0x0,%esi
  406283:	89 c7                	mov    %eax,%edi
  406285:	e8 13 e1 ff ff       	callq  40439d <_ZN2cl6detailL10errHandlerEiPKc>
  40628a:	48 8b 45 e8          	mov    -0x18(%rbp),%rax
  40628e:	be 78 96 61 00       	mov    $0x619678,%esi
  406293:	48 89 c7             	mov    %rax,%rdi
  406296:	e8 ab fe ff ff       	callq  406146 <_ZN2cl7ContextC1ERKS0_>
  40629b:	48 8b 45 e8          	mov    -0x18(%rbp),%rax
  40629f:	48 8b 4d f8          	mov    -0x8(%rbp),%rcx
  4062a3:	64 48 33 0c 25 28 00 	xor    %fs:0x28,%rcx
  4062aa:	00 00 
  4062ac:	74 05                	je     4062b3 <_ZN2cl7Context10setDefaultERKS0_+0x80>
  4062ae:	e8 7d dc ff ff       	callq  403f30 <__stack_chk_fail@plt>
  4062b3:	c9                   	leaveq 
  4062b4:	c3                   	retq   
  4062b5:	90                   	nop

00000000004062b6 <_ZN2cl7ContextC1Ev>:
  4062b6:	55                   	push   %rbp
  4062b7:	48 89 e5             	mov    %rsp,%rbp
  4062ba:	48 83 ec 10          	sub    $0x10,%rsp
  4062be:	48 89 7d f8          	mov    %rdi,-0x8(%rbp)
  4062c2:	48 8b 45 f8          	mov    -0x8(%rbp),%rax
  4062c6:	48 89 c7             	mov    %rax,%rdi
  4062c9:	e8 32 1e 00 00       	callq  408100 <_ZN2cl6detail7WrapperIP11_cl_contextEC1Ev>
  4062ce:	90                   	nop
  4062cf:	c9                   	leaveq 
  4062d0:	c3                   	retq   
  4062d1:	90                   	nop

00000000004062d2 <_ZN2cl6Device11makeDefaultEv>:
  4062d2:	55                   	push   %rbp
  4062d3:	48 89 e5             	mov    %rsp,%rbp
  4062d6:	41 54                	push   %r12
  4062d8:	53                   	push   %rbx
  4062d9:	48 83 ec 40          	sub    $0x40,%rsp
  4062dd:	64 48 8b 04 25 28 00 	mov    %fs:0x28,%rax
  4062e4:	00 00 
  4062e6:	48 89 45 e8          	mov    %rax,-0x18(%rbp)
  4062ea:	31 c0                	xor    %eax,%eax
  4062ec:	c7 45 bc 00 00 00 00 	movl   $0x0,-0x44(%rbp)
  4062f3:	48 8d 45 c0          	lea    -0x40(%rbp),%rax
  4062f7:	48 8d 55 bc          	lea    -0x44(%rbp),%rdx
  4062fb:	48 89 d6             	mov    %rdx,%rsi
  4062fe:	48 89 c7             	mov    %rax,%rdi
  406301:	e8 d2 fe ff ff       	callq  4061d8 <_ZN2cl7Context10getDefaultEPi>
  406306:	8b 45 bc             	mov    -0x44(%rbp),%eax
  406309:	be f8 03 41 00       	mov    $0x4103f8,%esi
  40630e:	89 c7                	mov    %eax,%edi
  406310:	e8 88 e0 ff ff       	callq  40439d <_ZN2cl6detailL10errHandlerEiPKc>
  406315:	8b 45 bc             	mov    -0x44(%rbp),%eax
  406318:	85 c0                	test   %eax,%eax
  40631a:	74 0b                	je     406327 <_ZN2cl6Device11makeDefaultEv+0x55>
  40631c:	8b 45 bc             	mov    -0x44(%rbp),%eax
  40631f:	89 05 3b 33 21 00    	mov    %eax,0x21333b(%rip)        # 619660 <_ZN2cl6Device14default_error_E>
  406325:	eb 4c                	jmp    406373 <_ZN2cl6Device11makeDefaultEv+0xa1>
  406327:	48 8d 45 d0          	lea    -0x30(%rbp),%rax
  40632b:	48 8d 4d c0          	lea    -0x40(%rbp),%rcx
  40632f:	ba 00 00 00 00       	mov    $0x0,%edx
  406334:	48 89 ce             	mov    %rcx,%rsi
  406337:	48 89 c7             	mov    %rax,%rdi
  40633a:	e8 65 21 00 00       	callq  4084a4 <_ZNK2cl7Context7getInfoILi4225EEENS_6detail12param_traitsINS2_15cl_context_infoEXT_EE10param_typeEPi>
  40633f:	48 8d 45 d0          	lea    -0x30(%rbp),%rax
  406343:	be 00 00 00 00       	mov    $0x0,%esi
  406348:	48 89 c7             	mov    %rax,%rdi
  40634b:	e8 40 1c 00 00       	callq  407f90 <_ZNSt6vectorIN2cl6DeviceESaIS1_EEixEm>
  406350:	48 89 c6             	mov    %rax,%rsi
  406353:	bf 50 96 61 00       	mov    $0x619650,%edi
  406358:	e8 c5 f0 ff ff       	callq  405422 <_ZN2cl6DeviceaSERKS0_>
  40635d:	48 8d 45 d0          	lea    -0x30(%rbp),%rax
  406361:	48 89 c7             	mov    %rax,%rdi
  406364:	e8 75 1e 00 00       	callq  4081de <_ZNSt6vectorIN2cl6DeviceESaIS1_EED1Ev>
  406369:	c7 05 ed 32 21 00 00 	movl   $0x0,0x2132ed(%rip)        # 619660 <_ZN2cl6Device14default_error_E>
  406370:	00 00 00 
  406373:	48 8d 45 c0          	lea    -0x40(%rbp),%rax
  406377:	48 89 c7             	mov    %rax,%rdi
  40637a:	e8 bf f8 ff ff       	callq  405c3e <_ZN2cl7ContextD1Ev>
  40637f:	eb 5f                	jmp    4063e0 <_ZN2cl6Device11makeDefaultEv+0x10e>
  406381:	49 89 c4             	mov    %rax,%r12
  406384:	48 89 d3             	mov    %rdx,%rbx
  406387:	48 8d 45 d0          	lea    -0x30(%rbp),%rax
  40638b:	48 89 c7             	mov    %rax,%rdi
  40638e:	e8 4b 1e 00 00       	callq  4081de <_ZNSt6vectorIN2cl6DeviceESaIS1_EED1Ev>
  406393:	eb 06                	jmp    40639b <_ZN2cl6Device11makeDefaultEv+0xc9>
  406395:	49 89 c4             	mov    %rax,%r12
  406398:	48 89 d3             	mov    %rdx,%rbx
  40639b:	48 8d 45 c0          	lea    -0x40(%rbp),%rax
  40639f:	48 89 c7             	mov    %rax,%rdi
  4063a2:	e8 97 f8 ff ff       	callq  405c3e <_ZN2cl7ContextD1Ev>
  4063a7:	4c 89 e0             	mov    %r12,%rax
  4063aa:	48 89 da             	mov    %rbx,%rdx
  4063ad:	eb 00                	jmp    4063af <_ZN2cl6Device11makeDefaultEv+0xdd>
  4063af:	48 83 fa 01          	cmp    $0x1,%rdx
  4063b3:	74 08                	je     4063bd <_ZN2cl6Device11makeDefaultEv+0xeb>
  4063b5:	48 89 c7             	mov    %rax,%rdi
  4063b8:	e8 d3 dd ff ff       	callq  404190 <_Unwind_Resume@plt>
  4063bd:	48 89 c7             	mov    %rax,%rdi
  4063c0:	e8 fb d9 ff ff       	callq  403dc0 <__cxa_begin_catch@plt>
  4063c5:	48 89 45 c8          	mov    %rax,-0x38(%rbp)
  4063c9:	48 8b 45 c8          	mov    -0x38(%rbp),%rax
  4063cd:	48 89 c7             	mov    %rax,%rdi
  4063d0:	e8 8b eb ff ff       	callq  404f60 <_ZNK2cl5Error3errEv>
  4063d5:	89 05 85 32 21 00    	mov    %eax,0x213285(%rip)        # 619660 <_ZN2cl6Device14default_error_E>
  4063db:	e8 30 dd ff ff       	callq  404110 <__cxa_end_catch@plt>
  4063e0:	90                   	nop
  4063e1:	48 8b 45 e8          	mov    -0x18(%rbp),%rax
  4063e5:	64 48 33 04 25 28 00 	xor    %fs:0x28,%rax
  4063ec:	00 00 
  4063ee:	74 05                	je     4063f5 <_ZN2cl6Device11makeDefaultEv+0x123>
  4063f0:	e8 3b db ff ff       	callq  403f30 <__stack_chk_fail@plt>
  4063f5:	48 83 c4 40          	add    $0x40,%rsp
  4063f9:	5b                   	pop    %rbx
  4063fa:	41 5c                	pop    %r12
  4063fc:	5d                   	pop    %rbp
  4063fd:	c3                   	retq   

00000000004063fe <_ZN2cl7NDRangeC1Ev>:
  4063fe:	55                   	push   %rbp
  4063ff:	48 89 e5             	mov    %rsp,%rbp
  406402:	48 89 7d f8          	mov    %rdi,-0x8(%rbp)
  406406:	48 8b 45 f8          	mov    -0x8(%rbp),%rax
  40640a:	c7 40 18 00 00 00 00 	movl   $0x0,0x18(%rax)
  406411:	48 8b 45 f8          	mov    -0x8(%rbp),%rax
  406415:	48 c7 00 00 00 00 00 	movq   $0x0,(%rax)
  40641c:	48 8b 45 f8          	mov    -0x8(%rbp),%rax
  406420:	48 c7 40 08 00 00 00 	movq   $0x0,0x8(%rax)
  406427:	00 
  406428:	48 8b 45 f8          	mov    -0x8(%rbp),%rax
  40642c:	48 c7 40 10 00 00 00 	movq   $0x0,0x10(%rax)
  406433:	00 
  406434:	90                   	nop
  406435:	5d                   	pop    %rbp
  406436:	c3                   	retq   
  406437:	90                   	nop

0000000000406438 <_ZN2cl7NDRangeC1Emm>:
  406438:	55                   	push   %rbp
  406439:	48 89 e5             	mov    %rsp,%rbp
  40643c:	48 89 7d f8          	mov    %rdi,-0x8(%rbp)
  406440:	48 89 75 f0          	mov    %rsi,-0x10(%rbp)
  406444:	48 89 55 e8          	mov    %rdx,-0x18(%rbp)
  406448:	48 8b 45 f8          	mov    -0x8(%rbp),%rax
  40644c:	c7 40 18 02 00 00 00 	movl   $0x2,0x18(%rax)
  406453:	48 8b 45 f8          	mov    -0x8(%rbp),%rax
  406457:	48 8b 55 f0          	mov    -0x10(%rbp),%rdx
  40645b:	48 89 10             	mov    %rdx,(%rax)
  40645e:	48 8b 45 f8          	mov    -0x8(%rbp),%rax
  406462:	48 8b 55 e8          	mov    -0x18(%rbp),%rdx
  406466:	48 89 50 08          	mov    %rdx,0x8(%rax)
  40646a:	48 8b 45 f8          	mov    -0x8(%rbp),%rax
  40646e:	48 c7 40 10 01 00 00 	movq   $0x1,0x10(%rax)
  406475:	00 
  406476:	90                   	nop
  406477:	5d                   	pop    %rbp
  406478:	c3                   	retq   
  406479:	90                   	nop

000000000040647a <_ZN2cl6KernelD1Ev>:
  40647a:	55                   	push   %rbp
  40647b:	48 89 e5             	mov    %rsp,%rbp
  40647e:	48 83 ec 10          	sub    $0x10,%rsp
  406482:	48 89 7d f8          	mov    %rdi,-0x8(%rbp)
  406486:	48 8b 45 f8          	mov    -0x8(%rbp),%rax
  40648a:	48 89 c7             	mov    %rax,%rdi
  40648d:	e8 b4 20 00 00       	callq  408546 <_ZN2cl6detail7WrapperIP10_cl_kernelED1Ev>
  406492:	90                   	nop
  406493:	c9                   	leaveq 
  406494:	c3                   	retq   
  406495:	90                   	nop

0000000000406496 <_ZN2cl12CommandQueueD1Ev>:
  406496:	55                   	push   %rbp
  406497:	48 89 e5             	mov    %rsp,%rbp
  40649a:	48 83 ec 10          	sub    $0x10,%rsp
  40649e:	48 89 7d f8          	mov    %rdi,-0x8(%rbp)
  4064a2:	48 8b 45 f8          	mov    -0x8(%rbp),%rax
  4064a6:	48 89 c7             	mov    %rax,%rdi
  4064a9:	e8 c0 20 00 00       	callq  40856e <_ZN2cl6detail7WrapperIP17_cl_command_queueED1Ev>
  4064ae:	90                   	nop
  4064af:	c9                   	leaveq 
  4064b0:	c3                   	retq   

00000000004064b1 <_ZN2cl12CommandQueue11makeDefaultEv>:
  4064b1:	55                   	push   %rbp
  4064b2:	48 89 e5             	mov    %rsp,%rbp
  4064b5:	41 54                	push   %r12
  4064b7:	53                   	push   %rbx
  4064b8:	48 83 ec 40          	sub    $0x40,%rsp
  4064bc:	64 48 8b 04 25 28 00 	mov    %fs:0x28,%rax
  4064c3:	00 00 
  4064c5:	48 89 45 e8          	mov    %rax,-0x18(%rbp)
  4064c9:	31 c0                	xor    %eax,%eax
  4064cb:	48 8d 45 b8          	lea    -0x48(%rbp),%rax
  4064cf:	48 8d 55 b4          	lea    -0x4c(%rbp),%rdx
  4064d3:	48 89 d6             	mov    %rdx,%rsi
  4064d6:	48 89 c7             	mov    %rax,%rdi
  4064d9:	e8 fa fc ff ff       	callq  4061d8 <_ZN2cl7Context10getDefaultEPi>
  4064de:	8b 45 b4             	mov    -0x4c(%rbp),%eax
  4064e1:	85 c0                	test   %eax,%eax
  4064e3:	74 0b                	je     4064f0 <_ZN2cl12CommandQueue11makeDefaultEv+0x3f>
  4064e5:	8b 45 b4             	mov    -0x4c(%rbp),%eax
  4064e8:	89 05 a2 31 21 00    	mov    %eax,0x2131a2(%rip)        # 619690 <_ZN2cl12CommandQueue14default_error_E>
  4064ee:	eb 59                	jmp    406549 <_ZN2cl12CommandQueue11makeDefaultEv+0x98>
  4064f0:	48 8d 45 d0          	lea    -0x30(%rbp),%rax
  4064f4:	be 00 00 00 00       	mov    $0x0,%esi
  4064f9:	48 89 c7             	mov    %rax,%rdi
  4064fc:	e8 a0 ee ff ff       	callq  4053a1 <_ZN2cl6Device10getDefaultEPi>
  406501:	48 8d 55 d0          	lea    -0x30(%rbp),%rdx
  406505:	48 8d 75 b8          	lea    -0x48(%rbp),%rsi
  406509:	48 8d 45 c0          	lea    -0x40(%rbp),%rax
  40650d:	41 b8 90 96 61 00    	mov    $0x619690,%r8d
  406513:	b9 00 00 00 00       	mov    $0x0,%ecx
  406518:	48 89 c7             	mov    %rax,%rdi
  40651b:	e8 c8 00 00 00       	callq  4065e8 <_ZN2cl12CommandQueueC1ERKNS_7ContextERKNS_6DeviceEmPi>
  406520:	48 8d 45 c0          	lea    -0x40(%rbp),%rax
  406524:	48 89 c6             	mov    %rax,%rsi
  406527:	bf 88 96 61 00       	mov    $0x619688,%edi
  40652c:	e8 2d 02 00 00       	callq  40675e <_ZN2cl12CommandQueueaSEOS0_>
  406531:	48 8d 45 c0          	lea    -0x40(%rbp),%rax
  406535:	48 89 c7             	mov    %rax,%rdi
  406538:	e8 59 ff ff ff       	callq  406496 <_ZN2cl12CommandQueueD1Ev>
  40653d:	48 8d 45 d0          	lea    -0x30(%rbp),%rax
  406541:	48 89 c7             	mov    %rax,%rdi
  406544:	e8 3d ee ff ff       	callq  405386 <_ZN2cl6DeviceD1Ev>
  406549:	48 8d 45 b8          	lea    -0x48(%rbp),%rax
  40654d:	48 89 c7             	mov    %rax,%rdi
  406550:	e8 e9 f6 ff ff       	callq  405c3e <_ZN2cl7ContextD1Ev>
  406555:	eb 73                	jmp    4065ca <_ZN2cl12CommandQueue11makeDefaultEv+0x119>
  406557:	49 89 c4             	mov    %rax,%r12
  40655a:	48 89 d3             	mov    %rdx,%rbx
  40655d:	48 8d 45 c0          	lea    -0x40(%rbp),%rax
  406561:	48 89 c7             	mov    %rax,%rdi
  406564:	e8 2d ff ff ff       	callq  406496 <_ZN2cl12CommandQueueD1Ev>
  406569:	eb 06                	jmp    406571 <_ZN2cl12CommandQueue11makeDefaultEv+0xc0>
  40656b:	49 89 c4             	mov    %rax,%r12
  40656e:	48 89 d3             	mov    %rdx,%rbx
  406571:	48 8d 45 d0          	lea    -0x30(%rbp),%rax
  406575:	48 89 c7             	mov    %rax,%rdi
  406578:	e8 09 ee ff ff       	callq  405386 <_ZN2cl6DeviceD1Ev>
  40657d:	eb 06                	jmp    406585 <_ZN2cl12CommandQueue11makeDefaultEv+0xd4>
  40657f:	49 89 c4             	mov    %rax,%r12
  406582:	48 89 d3             	mov    %rdx,%rbx
  406585:	48 8d 45 b8          	lea    -0x48(%rbp),%rax
  406589:	48 89 c7             	mov    %rax,%rdi
  40658c:	e8 ad f6 ff ff       	callq  405c3e <_ZN2cl7ContextD1Ev>
  406591:	4c 89 e0             	mov    %r12,%rax
  406594:	48 89 da             	mov    %rbx,%rdx
  406597:	eb 00                	jmp    406599 <_ZN2cl12CommandQueue11makeDefaultEv+0xe8>
  406599:	48 83 fa 01          	cmp    $0x1,%rdx
  40659d:	74 08                	je     4065a7 <_ZN2cl12CommandQueue11makeDefaultEv+0xf6>
  40659f:	48 89 c7             	mov    %rax,%rdi
  4065a2:	e8 e9 db ff ff       	callq  404190 <_Unwind_Resume@plt>
  4065a7:	48 89 c7             	mov    %rax,%rdi
  4065aa:	e8 11 d8 ff ff       	callq  403dc0 <__cxa_begin_catch@plt>
  4065af:	48 89 45 c8          	mov    %rax,-0x38(%rbp)
  4065b3:	48 8b 45 c8          	mov    -0x38(%rbp),%rax
  4065b7:	48 89 c7             	mov    %rax,%rdi
  4065ba:	e8 a1 e9 ff ff       	callq  404f60 <_ZNK2cl5Error3errEv>
  4065bf:	89 05 cb 30 21 00    	mov    %eax,0x2130cb(%rip)        # 619690 <_ZN2cl12CommandQueue14default_error_E>
  4065c5:	e8 46 db ff ff       	callq  404110 <__cxa_end_catch@plt>
  4065ca:	90                   	nop
  4065cb:	48 8b 45 e8          	mov    -0x18(%rbp),%rax
  4065cf:	64 48 33 04 25 28 00 	xor    %fs:0x28,%rax
  4065d6:	00 00 
  4065d8:	74 05                	je     4065df <_ZN2cl12CommandQueue11makeDefaultEv+0x12e>
  4065da:	e8 51 d9 ff ff       	callq  403f30 <__stack_chk_fail@plt>
  4065df:	48 83 c4 40          	add    $0x40,%rsp
  4065e3:	5b                   	pop    %rbx
  4065e4:	41 5c                	pop    %r12
  4065e6:	5d                   	pop    %rbp
  4065e7:	c3                   	retq   

00000000004065e8 <_ZN2cl12CommandQueueC1ERKNS_7ContextERKNS_6DeviceEmPi>:
  4065e8:	55                   	push   %rbp
  4065e9:	48 89 e5             	mov    %rsp,%rbp
  4065ec:	53                   	push   %rbx
  4065ed:	48 83 ec 48          	sub    $0x48,%rsp
  4065f1:	48 89 7d d8          	mov    %rdi,-0x28(%rbp)
  4065f5:	48 89 75 d0          	mov    %rsi,-0x30(%rbp)
  4065f9:	48 89 55 c8          	mov    %rdx,-0x38(%rbp)
  4065fd:	48 89 4d c0          	mov    %rcx,-0x40(%rbp)
  406601:	4c 89 45 b8          	mov    %r8,-0x48(%rbp)
  406605:	64 48 8b 04 25 28 00 	mov    %fs:0x28,%rax
  40660c:	00 00 
  40660e:	48 89 45 e8          	mov    %rax,-0x18(%rbp)
  406612:	31 c0                	xor    %eax,%eax
  406614:	48 8b 45 d8          	mov    -0x28(%rbp),%rax
  406618:	48 89 c7             	mov    %rax,%rdi
  40661b:	e8 76 1f 00 00       	callq  408596 <_ZN2cl6detail7WrapperIP17_cl_command_queueEC1Ev>
  406620:	48 8b 45 c8          	mov    -0x38(%rbp),%rax
  406624:	48 89 c7             	mov    %rax,%rdi
  406627:	e8 88 ec ff ff       	callq  4052b4 <_ZNK2cl6detail7WrapperIP13_cl_device_idEclEv>
  40662c:	48 8b 18             	mov    (%rax),%rbx
  40662f:	48 8b 45 d0          	mov    -0x30(%rbp),%rax
  406633:	48 89 c7             	mov    %rax,%rdi
  406636:	e8 fd 1e 00 00       	callq  408538 <_ZNK2cl6detail7WrapperIP11_cl_contextEclEv>
  40663b:	48 8b 00             	mov    (%rax),%rax
  40663e:	48 8d 4d e4          	lea    -0x1c(%rbp),%rcx
  406642:	48 8b 55 c0          	mov    -0x40(%rbp),%rdx
  406646:	48 89 de             	mov    %rbx,%rsi
  406649:	48 89 c7             	mov    %rax,%rdi
  40664c:	e8 9f da ff ff       	callq  4040f0 <clCreateCommandQueue@plt>
  406651:	48 89 c2             	mov    %rax,%rdx
  406654:	48 8b 45 d8          	mov    -0x28(%rbp),%rax
  406658:	48 89 10             	mov    %rdx,(%rax)
  40665b:	8b 45 e4             	mov    -0x1c(%rbp),%eax
  40665e:	be 08 04 41 00       	mov    $0x410408,%esi
  406663:	89 c7                	mov    %eax,%edi
  406665:	e8 33 dd ff ff       	callq  40439d <_ZN2cl6detailL10errHandlerEiPKc>
  40666a:	48 83 7d b8 00       	cmpq   $0x0,-0x48(%rbp)
  40666f:	74 25                	je     406696 <_ZN2cl12CommandQueueC1ERKNS_7ContextERKNS_6DeviceEmPi+0xae>
  406671:	8b 55 e4             	mov    -0x1c(%rbp),%edx
  406674:	48 8b 45 b8          	mov    -0x48(%rbp),%rax
  406678:	89 10                	mov    %edx,(%rax)
  40667a:	eb 1a                	jmp    406696 <_ZN2cl12CommandQueueC1ERKNS_7ContextERKNS_6DeviceEmPi+0xae>
  40667c:	48 89 c3             	mov    %rax,%rbx
  40667f:	48 8b 45 d8          	mov    -0x28(%rbp),%rax
  406683:	48 89 c7             	mov    %rax,%rdi
  406686:	e8 e3 1e 00 00       	callq  40856e <_ZN2cl6detail7WrapperIP17_cl_command_queueED1Ev>
  40668b:	48 89 d8             	mov    %rbx,%rax
  40668e:	48 89 c7             	mov    %rax,%rdi
  406691:	e8 fa da ff ff       	callq  404190 <_Unwind_Resume@plt>
  406696:	90                   	nop
  406697:	48 8b 45 e8          	mov    -0x18(%rbp),%rax
  40669b:	64 48 33 04 25 28 00 	xor    %fs:0x28,%rax
  4066a2:	00 00 
  4066a4:	74 05                	je     4066ab <_ZN2cl12CommandQueueC1ERKNS_7ContextERKNS_6DeviceEmPi+0xc3>
  4066a6:	e8 85 d8 ff ff       	callq  403f30 <__stack_chk_fail@plt>
  4066ab:	48 83 c4 48          	add    $0x48,%rsp
  4066af:	5b                   	pop    %rbx
  4066b0:	5d                   	pop    %rbp
  4066b1:	c3                   	retq   

00000000004066b2 <_ZN2cl12CommandQueue10getDefaultEPi>:
  4066b2:	55                   	push   %rbp
  4066b3:	48 89 e5             	mov    %rsp,%rbp
  4066b6:	48 83 ec 10          	sub    $0x10,%rsp
  4066ba:	48 89 7d f8          	mov    %rdi,-0x8(%rbp)
  4066be:	48 89 75 f0          	mov    %rsi,-0x10(%rbp)
  4066c2:	be b1 64 40 00       	mov    $0x4064b1,%esi
  4066c7:	bf 84 96 61 00       	mov    $0x619684,%edi
  4066cc:	e8 44 14 00 00       	callq  407b15 <_ZSt9call_onceIRFvvEJEEvRSt9once_flagOT_DpOT0_>
  4066d1:	8b 05 b9 2f 21 00    	mov    0x212fb9(%rip),%eax        # 619690 <_ZN2cl12CommandQueue14default_error_E>
  4066d7:	be 08 04 41 00       	mov    $0x410408,%esi
  4066dc:	89 c7                	mov    %eax,%edi
  4066de:	e8 ba dc ff ff       	callq  40439d <_ZN2cl6detailL10errHandlerEiPKc>
  4066e3:	48 83 7d f0 00       	cmpq   $0x0,-0x10(%rbp)
  4066e8:	74 0c                	je     4066f6 <_ZN2cl12CommandQueue10getDefaultEPi+0x44>
  4066ea:	8b 15 a0 2f 21 00    	mov    0x212fa0(%rip),%edx        # 619690 <_ZN2cl12CommandQueue14default_error_E>
  4066f0:	48 8b 45 f0          	mov    -0x10(%rbp),%rax
  4066f4:	89 10                	mov    %edx,(%rax)
  4066f6:	48 8b 45 f8          	mov    -0x8(%rbp),%rax
  4066fa:	be 88 96 61 00       	mov    $0x619688,%esi
  4066ff:	48 89 c7             	mov    %rax,%rdi
  406702:	e8 23 00 00 00       	callq  40672a <_ZN2cl12CommandQueueC1ERKS0_>
  406707:	48 8b 45 f8          	mov    -0x8(%rbp),%rax
  40670b:	c9                   	leaveq 
  40670c:	c3                   	retq   
  40670d:	90                   	nop

000000000040670e <_ZN2cl12CommandQueueC1Ev>:
  40670e:	55                   	push   %rbp
  40670f:	48 89 e5             	mov    %rsp,%rbp
  406712:	48 83 ec 10          	sub    $0x10,%rsp
  406716:	48 89 7d f8          	mov    %rdi,-0x8(%rbp)
  40671a:	48 8b 45 f8          	mov    -0x8(%rbp),%rax
  40671e:	48 89 c7             	mov    %rax,%rdi
  406721:	e8 70 1e 00 00       	callq  408596 <_ZN2cl6detail7WrapperIP17_cl_command_queueEC1Ev>
  406726:	90                   	nop
  406727:	c9                   	leaveq 
  406728:	c3                   	retq   
  406729:	90                   	nop

000000000040672a <_ZN2cl12CommandQueueC1ERKS0_>:
  40672a:	55                   	push   %rbp
  40672b:	48 89 e5             	mov    %rsp,%rbp
  40672e:	48 83 ec 10          	sub    $0x10,%rsp
  406732:	48 89 7d f8          	mov    %rdi,-0x8(%rbp)
  406736:	48 89 75 f0          	mov    %rsi,-0x10(%rbp)
  40673a:	48 8b 55 f0          	mov    -0x10(%rbp),%rdx
  40673e:	48 8b 45 f8          	mov    -0x8(%rbp),%rax
  406742:	48 89 d6             	mov    %rdx,%rsi
  406745:	48 89 c7             	mov    %rax,%rdi
  406748:	e8 99 1e 00 00       	callq  4085e6 <_ZN2cl6detail7WrapperIP17_cl_command_queueEC1ERKS4_>
  40674d:	90                   	nop
  40674e:	c9                   	leaveq 
  40674f:	c3                   	retq   

0000000000406750 <_ZSt4moveIRN2cl12CommandQueueEEONSt16remove_referenceIT_E4typeEOS4_>:
  406750:	55                   	push   %rbp
  406751:	48 89 e5             	mov    %rsp,%rbp
  406754:	48 89 7d f8          	mov    %rdi,-0x8(%rbp)
  406758:	48 8b 45 f8          	mov    -0x8(%rbp),%rax
  40675c:	5d                   	pop    %rbp
  40675d:	c3                   	retq   

000000000040675e <_ZN2cl12CommandQueueaSEOS0_>:
  40675e:	55                   	push   %rbp
  40675f:	48 89 e5             	mov    %rsp,%rbp
  406762:	48 83 ec 10          	sub    $0x10,%rsp
  406766:	48 89 7d f8          	mov    %rdi,-0x8(%rbp)
  40676a:	48 89 75 f0          	mov    %rsi,-0x10(%rbp)
  40676e:	48 8b 45 f0          	mov    -0x10(%rbp),%rax
  406772:	48 89 c7             	mov    %rax,%rdi
  406775:	e8 d6 ff ff ff       	callq  406750 <_ZSt4moveIRN2cl12CommandQueueEEONSt16remove_referenceIT_E4typeEOS4_>
  40677a:	48 89 c2             	mov    %rax,%rdx
  40677d:	48 8b 45 f8          	mov    -0x8(%rbp),%rax
  406781:	48 89 d6             	mov    %rdx,%rsi
  406784:	48 89 c7             	mov    %rax,%rdi
  406787:	e8 94 1e 00 00       	callq  408620 <_ZN2cl6detail7WrapperIP17_cl_command_queueEaSEOS4_>
  40678c:	48 8b 45 f8          	mov    -0x8(%rbp),%rax
  406790:	c9                   	leaveq 
  406791:	c3                   	retq   

0000000000406792 <_ZNK2cl12CommandQueue6finishEv>:
  406792:	55                   	push   %rbp
  406793:	48 89 e5             	mov    %rsp,%rbp
  406796:	48 83 ec 10          	sub    $0x10,%rsp
  40679a:	48 89 7d f8          	mov    %rdi,-0x8(%rbp)
  40679e:	48 8b 45 f8          	mov    -0x8(%rbp),%rax
  4067a2:	48 8b 00             	mov    (%rax),%rax
  4067a5:	48 89 c7             	mov    %rax,%rdi
  4067a8:	e8 b3 d5 ff ff       	callq  403d60 <clFinish@plt>
  4067ad:	be 1d 04 41 00       	mov    $0x41041d,%esi
  4067b2:	89 c7                	mov    %eax,%edi
  4067b4:	e8 e4 db ff ff       	callq  40439d <_ZN2cl6detailL10errHandlerEiPKc>
  4067b9:	c9                   	leaveq 
  4067ba:	c3                   	retq   

00000000004067bb <_ZSt4moveIRNSt7__cxx1112basic_stringIcSt11char_traitsIcESaIcEEEEONSt16remove_referenceIT_E4typeEOS8_>:
  4067bb:	55                   	push   %rbp
  4067bc:	48 89 e5             	mov    %rsp,%rbp
  4067bf:	48 89 7d f8          	mov    %rdi,-0x8(%rbp)
  4067c3:	48 8b 45 f8          	mov    -0x8(%rbp),%rax
  4067c7:	5d                   	pop    %rbp
  4067c8:	c3                   	retq   
  4067c9:	90                   	nop

00000000004067ca <_ZN11arm_compute15CLKernelLibrary4initENSt7__cxx1112basic_stringIcSt11char_traitsIcESaIcEEEN2cl7ContextENS7_6DeviceE>:
  4067ca:	55                   	push   %rbp
  4067cb:	48 89 e5             	mov    %rsp,%rbp
  4067ce:	48 83 ec 20          	sub    $0x20,%rsp
  4067d2:	48 89 7d f8          	mov    %rdi,-0x8(%rbp)
  4067d6:	48 89 75 f0          	mov    %rsi,-0x10(%rbp)
  4067da:	48 89 55 e8          	mov    %rdx,-0x18(%rbp)
  4067de:	48 89 4d e0          	mov    %rcx,-0x20(%rbp)
  4067e2:	48 8b 45 f0          	mov    -0x10(%rbp),%rax
  4067e6:	48 89 c7             	mov    %rax,%rdi
  4067e9:	e8 cd ff ff ff       	callq  4067bb <_ZSt4moveIRNSt7__cxx1112basic_stringIcSt11char_traitsIcESaIcEEEEONSt16remove_referenceIT_E4typeEOS8_>
  4067ee:	48 89 c2             	mov    %rax,%rdx
  4067f1:	48 8b 45 f8          	mov    -0x8(%rbp),%rax
  4067f5:	48 83 c0 18          	add    $0x18,%rax
  4067f9:	48 89 d6             	mov    %rdx,%rsi
  4067fc:	48 89 c7             	mov    %rax,%rdi
  4067ff:	e8 8c d7 ff ff       	callq  403f90 <_ZNSt7__cxx1112basic_stringIcSt11char_traitsIcESaIcEEaSEOS4_@plt>
  406804:	48 8b 45 e8          	mov    -0x18(%rbp),%rax
  406808:	48 89 c7             	mov    %rax,%rdi
  40680b:	e8 85 f9 ff ff       	callq  406195 <_ZSt4moveIRN2cl7ContextEEONSt16remove_referenceIT_E4typeEOS4_>
  406810:	48 89 c2             	mov    %rax,%rdx
  406813:	48 8b 45 f8          	mov    -0x8(%rbp),%rax
  406817:	48 89 d6             	mov    %rdx,%rsi
  40681a:	48 89 c7             	mov    %rax,%rdi
  40681d:	e8 82 f9 ff ff       	callq  4061a4 <_ZN2cl7ContextaSEOS0_>
  406822:	48 8b 45 e0          	mov    -0x20(%rbp),%rax
  406826:	48 89 c7             	mov    %rax,%rdi
  406829:	e8 1d ec ff ff       	callq  40544b <_ZSt4moveIRN2cl6DeviceEEONSt16remove_referenceIT_E4typeEOS4_>
  40682e:	48 89 c2             	mov    %rax,%rdx
  406831:	48 8b 45 f8          	mov    -0x8(%rbp),%rax
  406835:	48 83 c0 08          	add    $0x8,%rax
  406839:	48 89 d6             	mov    %rdx,%rsi
  40683c:	48 89 c7             	mov    %rax,%rdi
  40683f:	e8 48 ec ff ff       	callq  40548c <_ZN2cl6DeviceaSEOS0_>
  406844:	90                   	nop
  406845:	c9                   	leaveq 
  406846:	c3                   	retq   
  406847:	90                   	nop

0000000000406848 <_ZN11arm_compute15CLKernelLibrary15set_kernel_pathERKNSt7__cxx1112basic_stringIcSt11char_traitsIcESaIcEEE>:
  406848:	55                   	push   %rbp
  406849:	48 89 e5             	mov    %rsp,%rbp
  40684c:	48 83 ec 10          	sub    $0x10,%rsp
  406850:	48 89 7d f8          	mov    %rdi,-0x8(%rbp)
  406854:	48 89 75 f0          	mov    %rsi,-0x10(%rbp)
  406858:	48 8b 45 f8          	mov    -0x8(%rbp),%rax
  40685c:	48 8d 50 18          	lea    0x18(%rax),%rdx
  406860:	48 8b 45 f0          	mov    -0x10(%rbp),%rax
  406864:	48 89 c6             	mov    %rax,%rsi
  406867:	48 89 d7             	mov    %rdx,%rdi
  40686a:	e8 71 d4 ff ff       	callq  403ce0 <_ZNSt7__cxx1112basic_stringIcSt11char_traitsIcESaIcEEaSERKS4_@plt>
  40686f:	90                   	nop
  406870:	c9                   	leaveq 
  406871:	c3                   	retq   

0000000000406872 <_ZN11arm_compute11TensorShape3setEmm>:
  406872:	55                   	push   %rbp
  406873:	48 89 e5             	mov    %rsp,%rbp
  406876:	53                   	push   %rbx
  406877:	48 83 ec 38          	sub    $0x38,%rsp
  40687b:	48 89 7d d8          	mov    %rdi,-0x28(%rbp)
  40687f:	48 89 75 d0          	mov    %rsi,-0x30(%rbp)
  406883:	48 89 55 c8          	mov    %rdx,-0x38(%rbp)
  406887:	64 48 8b 04 25 28 00 	mov    %fs:0x28,%rax
  40688e:	00 00 
  406890:	48 89 45 e8          	mov    %rax,-0x18(%rbp)
  406894:	31 c0                	xor    %eax,%eax
  406896:	48 83 7d c8 00       	cmpq   $0x0,-0x38(%rbp)
  40689b:	75 45                	jne    4068e2 <_ZN11arm_compute11TensorShape3setEmm+0x70>
  40689d:	48 8b 45 d8          	mov    -0x28(%rbp),%rax
  4068a1:	48 c7 40 30 00 00 00 	movq   $0x0,0x30(%rax)
  4068a8:	00 
  4068a9:	c7 45 e4 00 00 00 00 	movl   $0x0,-0x1c(%rbp)
  4068b0:	48 8b 45 d8          	mov    -0x28(%rbp),%rax
  4068b4:	48 89 c7             	mov    %rax,%rdi
  4068b7:	e8 d0 1d 00 00       	callq  40868c <_ZNSt5arrayImLm6EE3endEv>
  4068bc:	48 89 c3             	mov    %rax,%rbx
  4068bf:	48 8b 45 d8          	mov    -0x28(%rbp),%rax
  4068c3:	48 89 c7             	mov    %rax,%rdi
  4068c6:	e8 a7 1d 00 00       	callq  408672 <_ZNSt5arrayImLm6EE5beginEv>
  4068cb:	48 89 c1             	mov    %rax,%rcx
  4068ce:	48 8d 45 e4          	lea    -0x1c(%rbp),%rax
  4068d2:	48 89 c2             	mov    %rax,%rdx
  4068d5:	48 89 de             	mov    %rbx,%rsi
  4068d8:	48 89 cf             	mov    %rcx,%rdi
  4068db:	e8 57 11 00 00       	callq  407a37 <_ZSt4fillIPmiEvT_S1_RKT0_>
  4068e0:	eb 6a                	jmp    40694c <_ZN11arm_compute11TensorShape3setEmm+0xda>
  4068e2:	c7 45 e4 01 00 00 00 	movl   $0x1,-0x1c(%rbp)
  4068e9:	48 8b 45 d8          	mov    -0x28(%rbp),%rax
  4068ed:	48 89 c7             	mov    %rax,%rdi
  4068f0:	e8 97 1d 00 00       	callq  40868c <_ZNSt5arrayImLm6EE3endEv>
  4068f5:	48 89 c3             	mov    %rax,%rbx
  4068f8:	48 8b 45 d8          	mov    -0x28(%rbp),%rax
  4068fc:	48 89 c7             	mov    %rax,%rdi
  4068ff:	e8 6e 1d 00 00       	callq  408672 <_ZNSt5arrayImLm6EE5beginEv>
  406904:	48 89 c2             	mov    %rax,%rdx
  406907:	48 8b 45 d8          	mov    -0x28(%rbp),%rax
  40690b:	48 8b 40 30          	mov    0x30(%rax),%rax
  40690f:	48 c1 e0 03          	shl    $0x3,%rax
  406913:	48 8d 0c 02          	lea    (%rdx,%rax,1),%rcx
  406917:	48 8d 45 e4          	lea    -0x1c(%rbp),%rax
  40691b:	48 89 c2             	mov    %rax,%rdx
  40691e:	48 89 de             	mov    %rbx,%rsi
  406921:	48 89 cf             	mov    %rcx,%rdi
  406924:	e8 0e 11 00 00       	callq  407a37 <_ZSt4fillIPmiEvT_S1_RKT0_>
  406929:	48 8b 45 d8          	mov    -0x28(%rbp),%rax
  40692d:	48 8b 55 c8          	mov    -0x38(%rbp),%rdx
  406931:	48 8b 4d d0          	mov    -0x30(%rbp),%rcx
  406935:	48 89 ce             	mov    %rcx,%rsi
  406938:	48 89 c7             	mov    %rax,%rdi
  40693b:	e8 6a 1d 00 00       	callq  4086aa <_ZN11arm_compute10DimensionsImE3setEmm>
  406940:	48 8b 45 d8          	mov    -0x28(%rbp),%rax
  406944:	48 89 c7             	mov    %rax,%rdi
  406947:	e8 1c 00 00 00       	callq  406968 <_ZN11arm_compute11TensorShape26apply_dimension_correctionEv>
  40694c:	48 8b 45 e8          	mov    -0x18(%rbp),%rax
  406950:	64 48 33 04 25 28 00 	xor    %fs:0x28,%rax
  406957:	00 00 
  406959:	74 05                	je     406960 <_ZN11arm_compute11TensorShape3setEmm+0xee>
  40695b:	e8 d0 d5 ff ff       	callq  403f30 <__stack_chk_fail@plt>
  406960:	48 83 c4 38          	add    $0x38,%rsp
  406964:	5b                   	pop    %rbx
  406965:	5d                   	pop    %rbp
  406966:	c3                   	retq   
  406967:	90                   	nop

0000000000406968 <_ZN11arm_compute11TensorShape26apply_dimension_correctionEv>:
  406968:	55                   	push   %rbp
  406969:	48 89 e5             	mov    %rsp,%rbp
  40696c:	48 83 ec 20          	sub    $0x20,%rsp
  406970:	48 89 7d e8          	mov    %rdi,-0x18(%rbp)
  406974:	48 8b 45 e8          	mov    -0x18(%rbp),%rax
  406978:	48 8b 40 30          	mov    0x30(%rax),%rax
  40697c:	83 e8 01             	sub    $0x1,%eax
  40697f:	89 45 fc             	mov    %eax,-0x4(%rbp)
  406982:	83 7d fc 00          	cmpl   $0x0,-0x4(%rbp)
  406986:	7e 3e                	jle    4069c6 <_ZN11arm_compute11TensorShape26apply_dimension_correctionEv+0x5e>
  406988:	8b 45 fc             	mov    -0x4(%rbp),%eax
  40698b:	48 63 d0             	movslq %eax,%rdx
  40698e:	48 8b 45 e8          	mov    -0x18(%rbp),%rax
  406992:	48 89 d6             	mov    %rdx,%rsi
  406995:	48 89 c7             	mov    %rax,%rdi
  406998:	e8 b3 1d 00 00       	callq  408750 <_ZNSt5arrayImLm6EEixEm>
  40699d:	48 8b 00             	mov    (%rax),%rax
  4069a0:	48 83 f8 01          	cmp    $0x1,%rax
  4069a4:	0f 94 c0             	sete   %al
  4069a7:	84 c0                	test   %al,%al
  4069a9:	74 1a                	je     4069c5 <_ZN11arm_compute11TensorShape26apply_dimension_correctionEv+0x5d>
  4069ab:	48 8b 45 e8          	mov    -0x18(%rbp),%rax
  4069af:	48 8b 40 30          	mov    0x30(%rax),%rax
  4069b3:	48 8d 50 ff          	lea    -0x1(%rax),%rdx
  4069b7:	48 8b 45 e8          	mov    -0x18(%rbp),%rax
  4069bb:	48 89 50 30          	mov    %rdx,0x30(%rax)
  4069bf:	83 6d fc 01          	subl   $0x1,-0x4(%rbp)
  4069c3:	eb bd                	jmp    406982 <_ZN11arm_compute11TensorShape26apply_dimension_correctionEv+0x1a>
  4069c5:	90                   	nop
  4069c6:	90                   	nop
  4069c7:	c9                   	leaveq 
  4069c8:	c3                   	retq   
  4069c9:	90                   	nop

00000000004069ca <_ZN11arm_compute11CoordinatesC1IJEEEDpT_>:
  4069ca:	55                   	push   %rbp
  4069cb:	48 89 e5             	mov    %rsp,%rbp
  4069ce:	48 83 ec 10          	sub    $0x10,%rsp
  4069d2:	48 89 7d f8          	mov    %rdi,-0x8(%rbp)
  4069d6:	48 8b 45 f8          	mov    -0x8(%rbp),%rax
  4069da:	48 89 c7             	mov    %rax,%rdi
  4069dd:	e8 94 1d 00 00       	callq  408776 <_ZN11arm_compute10DimensionsIiEC1IJEEEDpT_>
  4069e2:	90                   	nop
  4069e3:	c9                   	leaveq 
  4069e4:	c3                   	retq   
  4069e5:	90                   	nop

00000000004069e6 <_ZN11arm_compute6Window9DimensionC1Eiii>:
  4069e6:	55                   	push   %rbp
  4069e7:	48 89 e5             	mov    %rsp,%rbp
  4069ea:	48 89 7d f8          	mov    %rdi,-0x8(%rbp)
  4069ee:	89 75 f4             	mov    %esi,-0xc(%rbp)
  4069f1:	89 55 f0             	mov    %edx,-0x10(%rbp)
  4069f4:	89 4d ec             	mov    %ecx,-0x14(%rbp)
  4069f7:	48 8b 45 f8          	mov    -0x8(%rbp),%rax
  4069fb:	8b 55 f4             	mov    -0xc(%rbp),%edx
  4069fe:	89 10                	mov    %edx,(%rax)
  406a00:	48 8b 45 f8          	mov    -0x8(%rbp),%rax
  406a04:	8b 55 f0             	mov    -0x10(%rbp),%edx
  406a07:	89 50 04             	mov    %edx,0x4(%rax)
  406a0a:	48 8b 45 f8          	mov    -0x8(%rbp),%rax
  406a0e:	8b 55 ec             	mov    -0x14(%rbp),%edx
  406a11:	89 50 08             	mov    %edx,0x8(%rax)
  406a14:	90                   	nop
  406a15:	5d                   	pop    %rbp
  406a16:	c3                   	retq   
  406a17:	90                   	nop

0000000000406a18 <_ZNK11arm_compute6Window9Dimension5startEv>:
  406a18:	55                   	push   %rbp
  406a19:	48 89 e5             	mov    %rsp,%rbp
  406a1c:	48 89 7d f8          	mov    %rdi,-0x8(%rbp)
  406a20:	48 8b 45 f8          	mov    -0x8(%rbp),%rax
  406a24:	8b 00                	mov    (%rax),%eax
  406a26:	5d                   	pop    %rbp
  406a27:	c3                   	retq   

0000000000406a28 <_ZNK11arm_compute6Window9Dimension3endEv>:
  406a28:	55                   	push   %rbp
  406a29:	48 89 e5             	mov    %rsp,%rbp
  406a2c:	48 89 7d f8          	mov    %rdi,-0x8(%rbp)
  406a30:	48 8b 45 f8          	mov    -0x8(%rbp),%rax
  406a34:	8b 40 04             	mov    0x4(%rax),%eax
  406a37:	5d                   	pop    %rbp
  406a38:	c3                   	retq   
  406a39:	90                   	nop

0000000000406a3a <_ZNK11arm_compute6Window9Dimension4stepEv>:
  406a3a:	55                   	push   %rbp
  406a3b:	48 89 e5             	mov    %rsp,%rbp
  406a3e:	48 89 7d f8          	mov    %rdi,-0x8(%rbp)
  406a42:	48 8b 45 f8          	mov    -0x8(%rbp),%rax
  406a46:	8b 40 08             	mov    0x8(%rax),%eax
  406a49:	5d                   	pop    %rbp
  406a4a:	c3                   	retq   

0000000000406a4b <_ZNSt14__array_traitsIN11arm_compute6Window9DimensionELm6EE6_S_refERA6_KS2_m>:
  406a4b:	55                   	push   %rbp
  406a4c:	48 89 e5             	mov    %rsp,%rbp
  406a4f:	48 89 7d f8          	mov    %rdi,-0x8(%rbp)
  406a53:	48 89 75 f0          	mov    %rsi,-0x10(%rbp)
  406a57:	48 8b 55 f0          	mov    -0x10(%rbp),%rdx
  406a5b:	48 89 d0             	mov    %rdx,%rax
  406a5e:	48 01 c0             	add    %rax,%rax
  406a61:	48 01 d0             	add    %rdx,%rax
  406a64:	48 c1 e0 02          	shl    $0x2,%rax
  406a68:	48 8b 55 f8          	mov    -0x8(%rbp),%rdx
  406a6c:	48 01 d0             	add    %rdx,%rax
  406a6f:	5d                   	pop    %rbp
  406a70:	c3                   	retq   
  406a71:	90                   	nop

0000000000406a72 <_ZNKSt5arrayIN11arm_compute6Window9DimensionELm6EE2atEm>:
  406a72:	55                   	push   %rbp
  406a73:	48 89 e5             	mov    %rsp,%rbp
  406a76:	48 83 ec 10          	sub    $0x10,%rsp
  406a7a:	48 89 7d f8          	mov    %rdi,-0x8(%rbp)
  406a7e:	48 89 75 f0          	mov    %rsi,-0x10(%rbp)
  406a82:	48 83 7d f0 05       	cmpq   $0x5,-0x10(%rbp)
  406a87:	77 15                	ja     406a9e <_ZNKSt5arrayIN11arm_compute6Window9DimensionELm6EE2atEm+0x2c>
  406a89:	48 8b 45 f8          	mov    -0x8(%rbp),%rax
  406a8d:	48 8b 55 f0          	mov    -0x10(%rbp),%rdx
  406a91:	48 89 d6             	mov    %rdx,%rsi
  406a94:	48 89 c7             	mov    %rax,%rdi
  406a97:	e8 af ff ff ff       	callq  406a4b <_ZNSt14__array_traitsIN11arm_compute6Window9DimensionELm6EE6_S_refERA6_KS2_m>
  406a9c:	eb 1b                	jmp    406ab9 <_ZNKSt5arrayIN11arm_compute6Window9DimensionELm6EE2atEm+0x47>
  406a9e:	48 8b 45 f0          	mov    -0x10(%rbp),%rax
  406aa2:	ba 06 00 00 00       	mov    $0x6,%edx
  406aa7:	48 89 c6             	mov    %rax,%rsi
  406aaa:	bf 40 04 41 00       	mov    $0x410440,%edi
  406aaf:	b8 00 00 00 00       	mov    $0x0,%eax
  406ab4:	e8 d7 d5 ff ff       	callq  404090 <_ZSt24__throw_out_of_range_fmtPKcz@plt>
  406ab9:	c9                   	leaveq 
  406aba:	c3                   	retq   
  406abb:	90                   	nop

0000000000406abc <_ZNK11arm_compute6WindowixEm>:
  406abc:	55                   	push   %rbp
  406abd:	48 89 e5             	mov    %rsp,%rbp
  406ac0:	48 83 ec 10          	sub    $0x10,%rsp
  406ac4:	48 89 7d f8          	mov    %rdi,-0x8(%rbp)
  406ac8:	48 89 75 f0          	mov    %rsi,-0x10(%rbp)
  406acc:	48 8b 45 f8          	mov    -0x8(%rbp),%rax
  406ad0:	48 8b 55 f0          	mov    -0x10(%rbp),%rdx
  406ad4:	48 89 d6             	mov    %rdx,%rsi
  406ad7:	48 89 c7             	mov    %rax,%rdi
  406ada:	e8 93 ff ff ff       	callq  406a72 <_ZNKSt5arrayIN11arm_compute6Window9DimensionELm6EE2atEm>
  406adf:	c9                   	leaveq 
  406ae0:	c3                   	retq   
  406ae1:	90                   	nop

0000000000406ae2 <_ZN11arm_compute6Window3setEmRKNS0_9DimensionE>:
  406ae2:	55                   	push   %rbp
  406ae3:	48 89 e5             	mov    %rsp,%rbp
  406ae6:	48 83 ec 20          	sub    $0x20,%rsp
  406aea:	48 89 7d f8          	mov    %rdi,-0x8(%rbp)
  406aee:	48 89 75 f0          	mov    %rsi,-0x10(%rbp)
  406af2:	48 89 55 e8          	mov    %rdx,-0x18(%rbp)
  406af6:	48 8b 45 f8          	mov    -0x8(%rbp),%rax
  406afa:	48 8b 55 f0          	mov    -0x10(%rbp),%rdx
  406afe:	48 89 d6             	mov    %rdx,%rsi
  406b01:	48 89 c7             	mov    %rax,%rdi
  406b04:	e8 0f 1e 00 00       	callq  408918 <_ZNSt5arrayIN11arm_compute6Window9DimensionELm6EEixEm>
  406b09:	48 89 c2             	mov    %rax,%rdx
  406b0c:	48 8b 45 e8          	mov    -0x18(%rbp),%rax
  406b10:	48 8b 08             	mov    (%rax),%rcx
  406b13:	48 89 0a             	mov    %rcx,(%rdx)
  406b16:	8b 40 08             	mov    0x8(%rax),%eax
  406b19:	89 42 08             	mov    %eax,0x8(%rdx)
  406b1c:	90                   	nop
  406b1d:	c9                   	leaveq 
  406b1e:	c3                   	retq   
  406b1f:	90                   	nop

0000000000406b20 <_ZNK11arm_compute6Window8validateEv>:
  406b20:	55                   	push   %rbp
  406b21:	48 89 e5             	mov    %rsp,%rbp
  406b24:	48 89 7d e8          	mov    %rdi,-0x18(%rbp)
  406b28:	48 c7 45 f8 00 00 00 	movq   $0x0,-0x8(%rbp)
  406b2f:	00 
  406b30:	48 83 7d f8 05       	cmpq   $0x5,-0x8(%rbp)
  406b35:	77 07                	ja     406b3e <_ZNK11arm_compute6Window8validateEv+0x1e>
  406b37:	48 83 45 f8 01       	addq   $0x1,-0x8(%rbp)
  406b3c:	eb f2                	jmp    406b30 <_ZNK11arm_compute6Window8validateEv+0x10>
  406b3e:	90                   	nop
  406b3f:	5d                   	pop    %rbp
  406b40:	c3                   	retq   
  406b41:	90                   	nop

0000000000406b42 <_ZN11arm_compute6Window21use_tensor_dimensionsERKNS_11TensorShapeEm>:
  406b42:	55                   	push   %rbp
  406b43:	48 89 e5             	mov    %rsp,%rbp
  406b46:	48 83 ec 50          	sub    $0x50,%rsp
  406b4a:	48 89 7d c8          	mov    %rdi,-0x38(%rbp)
  406b4e:	48 89 75 c0          	mov    %rsi,-0x40(%rbp)
  406b52:	48 89 55 b8          	mov    %rdx,-0x48(%rbp)
  406b56:	64 48 8b 04 25 28 00 	mov    %fs:0x28,%rax
  406b5d:	00 00 
  406b5f:	48 89 45 f8          	mov    %rax,-0x8(%rbp)
  406b63:	31 c0                	xor    %eax,%eax
  406b65:	48 8b 45 b8          	mov    -0x48(%rbp),%rax
  406b69:	89 45 dc             	mov    %eax,-0x24(%rbp)
  406b6c:	48 8b 45 c0          	mov    -0x40(%rbp),%rax
  406b70:	48 89 c7             	mov    %rax,%rdi
  406b73:	e8 d4 1c 00 00       	callq  40884c <_ZNK11arm_compute10DimensionsImE14num_dimensionsEv>
  406b78:	3b 45 dc             	cmp    -0x24(%rbp),%eax
  406b7b:	0f 97 c0             	seta   %al
  406b7e:	84 c0                	test   %al,%al
  406b80:	74 63                	je     406be5 <_ZN11arm_compute6Window21use_tensor_dimensionsERKNS_11TensorShapeEm+0xa3>
  406b82:	48 c7 45 e0 01 00 00 	movq   $0x1,-0x20(%rbp)
  406b89:	00 
  406b8a:	8b 55 dc             	mov    -0x24(%rbp),%edx
  406b8d:	48 8b 45 c0          	mov    -0x40(%rbp),%rax
  406b91:	48 89 d6             	mov    %rdx,%rsi
  406b94:	48 89 c7             	mov    %rax,%rdi
  406b97:	e8 56 1d 00 00       	callq  4088f2 <_ZNK11arm_compute10DimensionsImEixEm>
  406b9c:	48 89 c2             	mov    %rax,%rdx
  406b9f:	48 8d 45 e0          	lea    -0x20(%rbp),%rax
  406ba3:	48 89 c6             	mov    %rax,%rsi
  406ba6:	48 89 d7             	mov    %rdx,%rdi
  406ba9:	e8 8f 1d 00 00       	callq  40893d <_ZSt3maxImERKT_S2_S2_>
  406bae:	48 8b 00             	mov    (%rax),%rax
  406bb1:	89 c2                	mov    %eax,%edx
  406bb3:	48 8d 45 ec          	lea    -0x14(%rbp),%rax
  406bb7:	b9 01 00 00 00       	mov    $0x1,%ecx
  406bbc:	be 00 00 00 00       	mov    $0x0,%esi
  406bc1:	48 89 c7             	mov    %rax,%rdi
  406bc4:	e8 1d fe ff ff       	callq  4069e6 <_ZN11arm_compute6Window9DimensionC1Eiii>
  406bc9:	8b 4d dc             	mov    -0x24(%rbp),%ecx
  406bcc:	48 8d 55 ec          	lea    -0x14(%rbp),%rdx
  406bd0:	48 8b 45 c8          	mov    -0x38(%rbp),%rax
  406bd4:	48 89 ce             	mov    %rcx,%rsi
  406bd7:	48 89 c7             	mov    %rax,%rdi
  406bda:	e8 03 ff ff ff       	callq  406ae2 <_ZN11arm_compute6Window3setEmRKNS0_9DimensionE>
  406bdf:	83 45 dc 01          	addl   $0x1,-0x24(%rbp)
  406be3:	eb 87                	jmp    406b6c <_ZN11arm_compute6Window21use_tensor_dimensionsERKNS_11TensorShapeEm+0x2a>
  406be5:	90                   	nop
  406be6:	48 8b 45 f8          	mov    -0x8(%rbp),%rax
  406bea:	64 48 33 04 25 28 00 	xor    %fs:0x28,%rax
  406bf1:	00 00 
  406bf3:	74 05                	je     406bfa <_ZN11arm_compute6Window21use_tensor_dimensionsERKNS_11TensorShapeEm+0xb8>
  406bf5:	e8 36 d3 ff ff       	callq  403f30 <__stack_chk_fail@plt>
  406bfa:	c9                   	leaveq 
  406bfb:	c3                   	retq   

0000000000406bfc <_ZNK11arm_compute10TensorInfo9dimensionEm>:
  406bfc:	55                   	push   %rbp
  406bfd:	48 89 e5             	mov    %rsp,%rbp
  406c00:	48 83 ec 10          	sub    $0x10,%rsp
  406c04:	48 89 7d f8          	mov    %rdi,-0x8(%rbp)
  406c08:	48 89 75 f0          	mov    %rsi,-0x10(%rbp)
  406c0c:	48 8b 45 f8          	mov    -0x8(%rbp),%rax
  406c10:	48 8d 50 60          	lea    0x60(%rax),%rdx
  406c14:	48 8b 45 f0          	mov    -0x10(%rbp),%rax
  406c18:	48 89 c6             	mov    %rax,%rsi
  406c1b:	48 89 d7             	mov    %rdx,%rdi
  406c1e:	e8 cf 1c 00 00       	callq  4088f2 <_ZNK11arm_compute10DimensionsImEixEm>
  406c23:	48 8b 00             	mov    (%rax),%rax
  406c26:	c9                   	leaveq 
  406c27:	c3                   	retq   

0000000000406c28 <_ZNK11arm_compute10TensorInfo14num_dimensionsEv>:
  406c28:	55                   	push   %rbp
  406c29:	48 89 e5             	mov    %rsp,%rbp
  406c2c:	48 83 ec 10          	sub    $0x10,%rsp
  406c30:	48 89 7d f8          	mov    %rdi,-0x8(%rbp)
  406c34:	48 8b 45 f8          	mov    -0x8(%rbp),%rax
  406c38:	48 83 c0 60          	add    $0x60,%rax
  406c3c:	48 89 c7             	mov    %rax,%rdi
  406c3f:	e8 08 1c 00 00       	callq  40884c <_ZNK11arm_compute10DimensionsImE14num_dimensionsEv>
  406c44:	89 c0                	mov    %eax,%eax
  406c46:	c9                   	leaveq 
  406c47:	c3                   	retq   

0000000000406c48 <_ZNSt5arrayIN11arm_compute8Iterator9DimensionELm6EEC1Ev>:
  406c48:	55                   	push   %rbp
  406c49:	48 89 e5             	mov    %rsp,%rbp
  406c4c:	48 89 7d f8          	mov    %rdi,-0x8(%rbp)
  406c50:	48 8b 45 f8          	mov    -0x8(%rbp),%rax
  406c54:	b9 30 00 00 00       	mov    $0x30,%ecx
  406c59:	be 00 00 00 00       	mov    $0x0,%esi
  406c5e:	48 89 30             	mov    %rsi,(%rax)
  406c61:	89 ca                	mov    %ecx,%edx
  406c63:	48 01 c2             	add    %rax,%rdx
  406c66:	48 83 c2 08          	add    $0x8,%rdx
  406c6a:	48 89 72 f0          	mov    %rsi,-0x10(%rdx)
  406c6e:	48 8d 50 08          	lea    0x8(%rax),%rdx
  406c72:	48 83 e2 f8          	and    $0xfffffffffffffff8,%rdx
  406c76:	48 29 d0             	sub    %rdx,%rax
  406c79:	01 c1                	add    %eax,%ecx
  406c7b:	83 e1 f8             	and    $0xfffffff8,%ecx
  406c7e:	89 c8                	mov    %ecx,%eax
  406c80:	c1 e8 03             	shr    $0x3,%eax
  406c83:	89 c1                	mov    %eax,%ecx
  406c85:	48 89 d7             	mov    %rdx,%rdi
  406c88:	48 89 f0             	mov    %rsi,%rax
  406c8b:	f3 48 ab             	rep stos %rax,%es:(%rdi)
  406c8e:	90                   	nop
  406c8f:	5d                   	pop    %rbp
  406c90:	c3                   	retq   
  406c91:	90                   	nop

0000000000406c92 <_ZN11arm_compute8IteratorC1Ev>:
  406c92:	55                   	push   %rbp
  406c93:	48 89 e5             	mov    %rsp,%rbp
  406c96:	48 83 ec 10          	sub    $0x10,%rsp
  406c9a:	48 89 7d f8          	mov    %rdi,-0x8(%rbp)
  406c9e:	48 8b 45 f8          	mov    -0x8(%rbp),%rax
  406ca2:	48 c7 00 00 00 00 00 	movq   $0x0,(%rax)
  406ca9:	48 8b 45 f8          	mov    -0x8(%rbp),%rax
  406cad:	48 8d 50 08          	lea    0x8(%rax),%rdx
  406cb1:	b8 00 00 00 00       	mov    $0x0,%eax
  406cb6:	b9 06 00 00 00       	mov    $0x6,%ecx
  406cbb:	48 89 d7             	mov    %rdx,%rdi
  406cbe:	f3 48 ab             	rep stos %rax,%es:(%rdi)
  406cc1:	48 8b 45 f8          	mov    -0x8(%rbp),%rax
  406cc5:	48 83 c0 08          	add    $0x8,%rax
  406cc9:	48 89 c7             	mov    %rax,%rdi
  406ccc:	e8 77 ff ff ff       	callq  406c48 <_ZNSt5arrayIN11arm_compute8Iterator9DimensionELm6EEC1Ev>
  406cd1:	90                   	nop
  406cd2:	c9                   	leaveq 
  406cd3:	c3                   	retq   

0000000000406cd4 <_ZNSt14__array_traitsIN11arm_compute8Iterator9DimensionELm6EE6_S_refERA6_KS2_m>:
  406cd4:	55                   	push   %rbp
  406cd5:	48 89 e5             	mov    %rsp,%rbp
  406cd8:	48 89 7d f8          	mov    %rdi,-0x8(%rbp)
  406cdc:	48 89 75 f0          	mov    %rsi,-0x10(%rbp)
  406ce0:	48 8b 45 f0          	mov    -0x10(%rbp),%rax
  406ce4:	48 8d 14 c5 00 00 00 	lea    0x0(,%rax,8),%rdx
  406ceb:	00 
  406cec:	48 8b 45 f8          	mov    -0x8(%rbp),%rax
  406cf0:	48 01 d0             	add    %rdx,%rax
  406cf3:	5d                   	pop    %rbp
  406cf4:	c3                   	retq   

0000000000406cf5 <_ZSt3getILm0EN11arm_compute8Iterator9DimensionELm6EERT0_RSt5arrayIS3_XT1_EE>:
  406cf5:	55                   	push   %rbp
  406cf6:	48 89 e5             	mov    %rsp,%rbp
  406cf9:	48 83 ec 10          	sub    $0x10,%rsp
  406cfd:	48 89 7d f8          	mov    %rdi,-0x8(%rbp)
  406d01:	48 8b 45 f8          	mov    -0x8(%rbp),%rax
  406d05:	be 00 00 00 00       	mov    $0x0,%esi
  406d0a:	48 89 c7             	mov    %rax,%rdi
  406d0d:	e8 c2 ff ff ff       	callq  406cd4 <_ZNSt14__array_traitsIN11arm_compute8Iterator9DimensionELm6EE6_S_refERA6_KS2_m>
  406d12:	c9                   	leaveq 
  406d13:	c3                   	retq   

0000000000406d14 <_ZN11arm_compute8IteratorC1EPKNS_7ITensorERKNS_6WindowE>:
  406d14:	55                   	push   %rbp
  406d15:	48 89 e5             	mov    %rsp,%rbp
  406d18:	41 54                	push   %r12
  406d1a:	53                   	push   %rbx
  406d1b:	48 83 ec 40          	sub    $0x40,%rsp
  406d1f:	48 89 7d c8          	mov    %rdi,-0x38(%rbp)
  406d23:	48 89 75 c0          	mov    %rsi,-0x40(%rbp)
  406d27:	48 89 55 b8          	mov    %rdx,-0x48(%rbp)
  406d2b:	48 8b 45 c8          	mov    -0x38(%rbp),%rax
  406d2f:	48 89 c7             	mov    %rax,%rdi
  406d32:	e8 5b ff ff ff       	callq  406c92 <_ZN11arm_compute8IteratorC1Ev>
  406d37:	48 8b 45 c0          	mov    -0x40(%rbp),%rax
  406d3b:	48 8b 00             	mov    (%rax),%rax
  406d3e:	48 8b 00             	mov    (%rax),%rax
  406d41:	48 8b 55 c0          	mov    -0x40(%rbp),%rdx
  406d45:	48 89 d7             	mov    %rdx,%rdi
  406d48:	ff d0                	callq  *%rax
  406d4a:	48 89 45 e0          	mov    %rax,-0x20(%rbp)
  406d4e:	48 8b 45 e0          	mov    -0x20(%rbp),%rax
  406d52:	48 8b 00             	mov    (%rax),%rax
  406d55:	48 83 c0 68          	add    $0x68,%rax
  406d59:	48 8b 00             	mov    (%rax),%rax
  406d5c:	48 8b 55 e0          	mov    -0x20(%rbp),%rdx
  406d60:	48 89 d7             	mov    %rdx,%rdi
  406d63:	ff d0                	callq  *%rax
  406d65:	48 89 45 e8          	mov    %rax,-0x18(%rbp)
  406d69:	48 8b 45 c0          	mov    -0x40(%rbp),%rax
  406d6d:	48 8b 00             	mov    (%rax),%rax
  406d70:	48 83 c0 20          	add    $0x20,%rax
  406d74:	48 8b 00             	mov    (%rax),%rax
  406d77:	48 8b 55 c0          	mov    -0x40(%rbp),%rdx
  406d7b:	48 89 d7             	mov    %rdx,%rdi
  406d7e:	ff d0                	callq  *%rax
  406d80:	48 89 c3             	mov    %rax,%rbx
  406d83:	48 8b 45 e0          	mov    -0x20(%rbp),%rax
  406d87:	48 8b 00             	mov    (%rax),%rax
  406d8a:	48 83 c0 70          	add    $0x70,%rax
  406d8e:	48 8b 00             	mov    (%rax),%rax
  406d91:	48 8b 55 e0          	mov    -0x20(%rbp),%rdx
  406d95:	48 89 d7             	mov    %rdx,%rdi
  406d98:	ff d0                	callq  *%rax
  406d9a:	48 8d 14 03          	lea    (%rbx,%rax,1),%rdx
  406d9e:	48 8b 45 c8          	mov    -0x38(%rbp),%rax
  406da2:	48 89 10             	mov    %rdx,(%rax)
  406da5:	c7 45 d8 00 00 00 00 	movl   $0x0,-0x28(%rbp)
  406dac:	8b 5d d8             	mov    -0x28(%rbp),%ebx
  406daf:	48 8b 45 e0          	mov    -0x20(%rbp),%rax
  406db3:	48 8b 00             	mov    (%rax),%rax
  406db6:	48 05 90 00 00 00    	add    $0x90,%rax
  406dbc:	48 8b 00             	mov    (%rax),%rax
  406dbf:	48 8b 55 e0          	mov    -0x20(%rbp),%rdx
  406dc3:	48 89 d7             	mov    %rdx,%rdi
  406dc6:	ff d0                	callq  *%rax
  406dc8:	48 39 c3             	cmp    %rax,%rbx
  406dcb:	0f 92 c0             	setb   %al
  406dce:	84 c0                	test   %al,%al
  406dd0:	0f 84 ac 00 00 00    	je     406e82 <_ZN11arm_compute8IteratorC1EPKNS_7ITensorERKNS_6WindowE+0x16e>
  406dd6:	8b 45 d8             	mov    -0x28(%rbp),%eax
  406dd9:	48 8b 55 c8          	mov    -0x38(%rbp),%rdx
  406ddd:	48 83 c2 08          	add    $0x8,%rdx
  406de1:	48 89 c6             	mov    %rax,%rsi
  406de4:	48 89 d7             	mov    %rdx,%rdi
  406de7:	e8 7c 1b 00 00       	callq  408968 <_ZNSt5arrayIN11arm_compute8Iterator9DimensionELm6EEixEm>
  406dec:	48 89 c3             	mov    %rax,%rbx
  406def:	8b 55 d8             	mov    -0x28(%rbp),%edx
  406df2:	48 8b 45 b8          	mov    -0x48(%rbp),%rax
  406df6:	48 89 d6             	mov    %rdx,%rsi
  406df9:	48 89 c7             	mov    %rax,%rdi
  406dfc:	e8 bb fc ff ff       	callq  406abc <_ZNK11arm_compute6WindowixEm>
  406e01:	48 89 c7             	mov    %rax,%rdi
  406e04:	e8 31 fc ff ff       	callq  406a3a <_ZNK11arm_compute6Window9Dimension4stepEv>
  406e09:	48 98                	cltq   
  406e0b:	41 89 c4             	mov    %eax,%r12d
  406e0e:	8b 55 d8             	mov    -0x28(%rbp),%edx
  406e11:	48 8b 45 e8          	mov    -0x18(%rbp),%rax
  406e15:	48 89 d6             	mov    %rdx,%rsi
  406e18:	48 89 c7             	mov    %rax,%rdi
  406e1b:	e8 d2 1a 00 00       	callq  4088f2 <_ZNK11arm_compute10DimensionsImEixEm>
  406e20:	48 8b 00             	mov    (%rax),%rax
  406e23:	41 0f af c4          	imul   %r12d,%eax
  406e27:	89 43 04             	mov    %eax,0x4(%rbx)
  406e2a:	8b 55 d8             	mov    -0x28(%rbp),%edx
  406e2d:	48 8b 45 e8          	mov    -0x18(%rbp),%rax
  406e31:	48 89 d6             	mov    %rdx,%rsi
  406e34:	48 89 c7             	mov    %rax,%rdi
  406e37:	e8 b6 1a 00 00       	callq  4088f2 <_ZNK11arm_compute10DimensionsImEixEm>
  406e3c:	48 8b 18             	mov    (%rax),%rbx
  406e3f:	8b 55 d8             	mov    -0x28(%rbp),%edx
  406e42:	48 8b 45 b8          	mov    -0x48(%rbp),%rax
  406e46:	48 89 d6             	mov    %rdx,%rsi
  406e49:	48 89 c7             	mov    %rax,%rdi
  406e4c:	e8 6b fc ff ff       	callq  406abc <_ZNK11arm_compute6WindowixEm>
  406e51:	48 89 c7             	mov    %rax,%rdi
  406e54:	e8 bf fb ff ff       	callq  406a18 <_ZNK11arm_compute6Window9Dimension5startEv>
  406e59:	48 98                	cltq   
  406e5b:	48 0f af d8          	imul   %rax,%rbx
  406e5f:	48 8b 45 c8          	mov    -0x38(%rbp),%rax
  406e63:	48 83 c0 08          	add    $0x8,%rax
  406e67:	48 89 c7             	mov    %rax,%rdi
  406e6a:	e8 86 fe ff ff       	callq  406cf5 <_ZSt3getILm0EN11arm_compute8Iterator9DimensionELm6EERT0_RSt5arrayIS3_XT1_EE>
  406e6f:	8b 10                	mov    (%rax),%edx
  406e71:	89 d1                	mov    %edx,%ecx
  406e73:	89 da                	mov    %ebx,%edx
  406e75:	01 ca                	add    %ecx,%edx
  406e77:	89 10                	mov    %edx,(%rax)
  406e79:	83 45 d8 01          	addl   $0x1,-0x28(%rbp)
  406e7d:	e9 2a ff ff ff       	jmpq   406dac <_ZN11arm_compute8IteratorC1EPKNS_7ITensorERKNS_6WindowE+0x98>
  406e82:	c7 45 dc 01 00 00 00 	movl   $0x1,-0x24(%rbp)
  406e89:	83 7d dc 05          	cmpl   $0x5,-0x24(%rbp)
  406e8d:	77 33                	ja     406ec2 <_ZN11arm_compute8IteratorC1EPKNS_7ITensorERKNS_6WindowE+0x1ae>
  406e8f:	8b 45 dc             	mov    -0x24(%rbp),%eax
  406e92:	48 8b 55 c8          	mov    -0x38(%rbp),%rdx
  406e96:	48 83 c2 08          	add    $0x8,%rdx
  406e9a:	48 89 c6             	mov    %rax,%rsi
  406e9d:	48 89 d7             	mov    %rdx,%rdi
  406ea0:	e8 c3 1a 00 00       	callq  408968 <_ZNSt5arrayIN11arm_compute8Iterator9DimensionELm6EEixEm>
  406ea5:	48 89 c3             	mov    %rax,%rbx
  406ea8:	48 8b 45 c8          	mov    -0x38(%rbp),%rax
  406eac:	48 83 c0 08          	add    $0x8,%rax
  406eb0:	48 89 c7             	mov    %rax,%rdi
  406eb3:	e8 3d fe ff ff       	callq  406cf5 <_ZSt3getILm0EN11arm_compute8Iterator9DimensionELm6EERT0_RSt5arrayIS3_XT1_EE>
  406eb8:	8b 00                	mov    (%rax),%eax
  406eba:	89 03                	mov    %eax,(%rbx)
  406ebc:	83 45 dc 01          	addl   $0x1,-0x24(%rbp)
  406ec0:	eb c7                	jmp    406e89 <_ZN11arm_compute8IteratorC1EPKNS_7ITensorERKNS_6WindowE+0x175>
  406ec2:	90                   	nop
  406ec3:	48 83 c4 40          	add    $0x40,%rsp
  406ec7:	5b                   	pop    %rbx
  406ec8:	41 5c                	pop    %r12
  406eca:	5d                   	pop    %rbp
  406ecb:	c3                   	retq   

0000000000406ecc <_ZN11arm_compute8Iterator9incrementEm>:
  406ecc:	55                   	push   %rbp
  406ecd:	48 89 e5             	mov    %rsp,%rbp
  406ed0:	53                   	push   %rbx
  406ed1:	48 83 ec 28          	sub    $0x28,%rsp
  406ed5:	48 89 7d d8          	mov    %rdi,-0x28(%rbp)
  406ed9:	48 89 75 d0          	mov    %rsi,-0x30(%rbp)
  406edd:	48 8b 45 d8          	mov    -0x28(%rbp),%rax
  406ee1:	48 8d 50 08          	lea    0x8(%rax),%rdx
  406ee5:	48 8b 45 d0          	mov    -0x30(%rbp),%rax
  406ee9:	48 89 c6             	mov    %rax,%rsi
  406eec:	48 89 d7             	mov    %rdx,%rdi
  406eef:	e8 74 1a 00 00       	callq  408968 <_ZNSt5arrayIN11arm_compute8Iterator9DimensionELm6EEixEm>
  406ef4:	8b 58 04             	mov    0x4(%rax),%ebx
  406ef7:	48 8b 45 d8          	mov    -0x28(%rbp),%rax
  406efb:	48 8d 50 08          	lea    0x8(%rax),%rdx
  406eff:	48 8b 45 d0          	mov    -0x30(%rbp),%rax
  406f03:	48 89 c6             	mov    %rax,%rsi
  406f06:	48 89 d7             	mov    %rdx,%rdi
  406f09:	e8 5a 1a 00 00       	callq  408968 <_ZNSt5arrayIN11arm_compute8Iterator9DimensionELm6EEixEm>
  406f0e:	8b 10                	mov    (%rax),%edx
  406f10:	01 da                	add    %ebx,%edx
  406f12:	89 10                	mov    %edx,(%rax)
  406f14:	c7 45 ec 00 00 00 00 	movl   $0x0,-0x14(%rbp)
  406f1b:	8b 45 ec             	mov    -0x14(%rbp),%eax
  406f1e:	48 3b 45 d0          	cmp    -0x30(%rbp),%rax
  406f22:	73 3a                	jae    406f5e <_ZN11arm_compute8Iterator9incrementEm+0x92>
  406f24:	8b 45 ec             	mov    -0x14(%rbp),%eax
  406f27:	48 8b 55 d8          	mov    -0x28(%rbp),%rdx
  406f2b:	48 83 c2 08          	add    $0x8,%rdx
  406f2f:	48 89 c6             	mov    %rax,%rsi
  406f32:	48 89 d7             	mov    %rdx,%rdi
  406f35:	e8 2e 1a 00 00       	callq  408968 <_ZNSt5arrayIN11arm_compute8Iterator9DimensionELm6EEixEm>
  406f3a:	48 89 c3             	mov    %rax,%rbx
  406f3d:	48 8b 45 d8          	mov    -0x28(%rbp),%rax
  406f41:	48 8d 50 08          	lea    0x8(%rax),%rdx
  406f45:	48 8b 45 d0          	mov    -0x30(%rbp),%rax
  406f49:	48 89 c6             	mov    %rax,%rsi
  406f4c:	48 89 d7             	mov    %rdx,%rdi
  406f4f:	e8 14 1a 00 00       	callq  408968 <_ZNSt5arrayIN11arm_compute8Iterator9DimensionELm6EEixEm>
  406f54:	8b 00                	mov    (%rax),%eax
  406f56:	89 03                	mov    %eax,(%rbx)
  406f58:	83 45 ec 01          	addl   $0x1,-0x14(%rbp)
  406f5c:	eb bd                	jmp    406f1b <_ZN11arm_compute8Iterator9incrementEm+0x4f>
  406f5e:	90                   	nop
  406f5f:	48 83 c4 28          	add    $0x28,%rsp
  406f63:	5b                   	pop    %rbx
  406f64:	5d                   	pop    %rbp
  406f65:	c3                   	retq   

0000000000406f66 <_ZNKSt5arrayIN11arm_compute8Iterator9DimensionELm6EE2atEm>:
  406f66:	55                   	push   %rbp
  406f67:	48 89 e5             	mov    %rsp,%rbp
  406f6a:	48 83 ec 10          	sub    $0x10,%rsp
  406f6e:	48 89 7d f8          	mov    %rdi,-0x8(%rbp)
  406f72:	48 89 75 f0          	mov    %rsi,-0x10(%rbp)
  406f76:	48 83 7d f0 05       	cmpq   $0x5,-0x10(%rbp)
  406f7b:	77 15                	ja     406f92 <_ZNKSt5arrayIN11arm_compute8Iterator9DimensionELm6EE2atEm+0x2c>
  406f7d:	48 8b 45 f8          	mov    -0x8(%rbp),%rax
  406f81:	48 8b 55 f0          	mov    -0x10(%rbp),%rdx
  406f85:	48 89 d6             	mov    %rdx,%rsi
  406f88:	48 89 c7             	mov    %rax,%rdi
  406f8b:	e8 44 fd ff ff       	callq  406cd4 <_ZNSt14__array_traitsIN11arm_compute8Iterator9DimensionELm6EE6_S_refERA6_KS2_m>
  406f90:	eb 1b                	jmp    406fad <_ZNKSt5arrayIN11arm_compute8Iterator9DimensionELm6EE2atEm+0x47>
  406f92:	48 8b 45 f0          	mov    -0x10(%rbp),%rax
  406f96:	ba 06 00 00 00       	mov    $0x6,%edx
  406f9b:	48 89 c6             	mov    %rax,%rsi
  406f9e:	bf 40 04 41 00       	mov    $0x410440,%edi
  406fa3:	b8 00 00 00 00       	mov    $0x0,%eax
  406fa8:	e8 e3 d0 ff ff       	callq  404090 <_ZSt24__throw_out_of_range_fmtPKcz@plt>
  406fad:	c9                   	leaveq 
  406fae:	c3                   	retq   
  406faf:	90                   	nop

0000000000406fb0 <_ZNK11arm_compute8Iterator3ptrEv>:
  406fb0:	55                   	push   %rbp
  406fb1:	48 89 e5             	mov    %rsp,%rbp
  406fb4:	53                   	push   %rbx
  406fb5:	48 83 ec 18          	sub    $0x18,%rsp
  406fb9:	48 89 7d e8          	mov    %rdi,-0x18(%rbp)
  406fbd:	48 8b 45 e8          	mov    -0x18(%rbp),%rax
  406fc1:	48 8b 18             	mov    (%rax),%rbx
  406fc4:	48 8b 45 e8          	mov    -0x18(%rbp),%rax
  406fc8:	48 83 c0 08          	add    $0x8,%rax
  406fcc:	be 00 00 00 00       	mov    $0x0,%esi
  406fd1:	48 89 c7             	mov    %rax,%rdi
  406fd4:	e8 8d ff ff ff       	callq  406f66 <_ZNKSt5arrayIN11arm_compute8Iterator9DimensionELm6EE2atEm>
  406fd9:	8b 00                	mov    (%rax),%eax
  406fdb:	48 98                	cltq   
  406fdd:	48 01 d8             	add    %rbx,%rax
  406fe0:	48 83 c4 18          	add    $0x18,%rsp
  406fe4:	5b                   	pop    %rbx
  406fe5:	5d                   	pop    %rbp
  406fe6:	c3                   	retq   
  406fe7:	90                   	nop

0000000000406fe8 <_ZN11arm_compute11CLScheduler12default_initEPNS_8ICLTunerE>:
  406fe8:	55                   	push   %rbp
  406fe9:	48 89 e5             	mov    %rsp,%rbp
  406fec:	53                   	push   %rbx
  406fed:	48 83 ec 68          	sub    $0x68,%rsp
  406ff1:	48 89 7d 98          	mov    %rdi,-0x68(%rbp)
  406ff5:	48 89 75 90          	mov    %rsi,-0x70(%rbp)
  406ff9:	64 48 8b 04 25 28 00 	mov    %fs:0x28,%rax
  407000:	00 00 
  407002:	48 89 45 e8          	mov    %rax,-0x18(%rbp)
  407006:	31 c0                	xor    %eax,%eax
  407008:	48 8b 45 98          	mov    -0x68(%rbp),%rax
  40700c:	0f b6 40 14          	movzbl 0x14(%rax),%eax
  407010:	83 f0 01             	xor    $0x1,%eax
  407013:	84 c0                	test   %al,%al
  407015:	0f 84 0a 01 00 00    	je     407125 <_ZN11arm_compute11CLScheduler12default_initEPNS_8ICLTunerE+0x13d>
  40701b:	48 8d 45 b0          	lea    -0x50(%rbp),%rax
  40701f:	be 00 00 00 00       	mov    $0x0,%esi
  407024:	48 89 c7             	mov    %rax,%rdi
  407027:	e8 75 e3 ff ff       	callq  4053a1 <_ZN2cl6Device10getDefaultEPi>
  40702c:	48 8d 45 a8          	lea    -0x58(%rbp),%rax
  407030:	be 00 00 00 00       	mov    $0x0,%esi
  407035:	48 89 c7             	mov    %rax,%rdi
  407038:	e8 9b f1 ff ff       	callq  4061d8 <_ZN2cl7Context10getDefaultEPi>
  40703d:	48 8d 45 a0          	lea    -0x60(%rbp),%rax
  407041:	48 89 c7             	mov    %rax,%rdi
  407044:	e8 57 d1 ff ff       	callq  4041a0 <_ZNSaIcEC1Ev@plt>
  407049:	48 8d 55 a0          	lea    -0x60(%rbp),%rdx
  40704d:	48 8d 45 c0          	lea    -0x40(%rbp),%rax
  407051:	be 78 04 41 00       	mov    $0x410478,%esi
  407056:	48 89 c7             	mov    %rax,%rdi
  407059:	e8 e2 cf ff ff       	callq  404040 <_ZNSt7__cxx1112basic_stringIcSt11char_traitsIcESaIcEEC1EPKcRKS3_@plt>
  40705e:	e8 0d ce ff ff       	callq  403e70 <_ZN11arm_compute15CLKernelLibrary3getEv@plt>
  407063:	48 89 c7             	mov    %rax,%rdi
  407066:	48 8d 4d b0          	lea    -0x50(%rbp),%rcx
  40706a:	48 8d 55 a8          	lea    -0x58(%rbp),%rdx
  40706e:	48 8d 45 c0          	lea    -0x40(%rbp),%rax
  407072:	48 89 c6             	mov    %rax,%rsi
  407075:	e8 50 f7 ff ff       	callq  4067ca <_ZN11arm_compute15CLKernelLibrary4initENSt7__cxx1112basic_stringIcSt11char_traitsIcESaIcEEEN2cl7ContextENS7_6DeviceE>
  40707a:	48 8d 45 c0          	lea    -0x40(%rbp),%rax
  40707e:	48 89 c7             	mov    %rax,%rdi
  407081:	e8 0a ce ff ff       	callq  403e90 <_ZNSt7__cxx1112basic_stringIcSt11char_traitsIcESaIcEED1Ev@plt>
  407086:	48 8d 45 a0          	lea    -0x60(%rbp),%rax
  40708a:	48 89 c7             	mov    %rax,%rdi
  40708d:	e8 7e ce ff ff       	callq  403f10 <_ZNSaIcED1Ev@plt>
  407092:	48 8d 45 a8          	lea    -0x58(%rbp),%rax
  407096:	48 89 c7             	mov    %rax,%rdi
  407099:	e8 a0 eb ff ff       	callq  405c3e <_ZN2cl7ContextD1Ev>
  40709e:	48 8d 45 b0          	lea    -0x50(%rbp),%rax
  4070a2:	48 89 c7             	mov    %rax,%rdi
  4070a5:	e8 dc e2 ff ff       	callq  405386 <_ZN2cl6DeviceD1Ev>
  4070aa:	48 8d 45 b0          	lea    -0x50(%rbp),%rax
  4070ae:	be 00 00 00 00       	mov    $0x0,%esi
  4070b3:	48 89 c7             	mov    %rax,%rdi
  4070b6:	e8 e6 e2 ff ff       	callq  4053a1 <_ZN2cl6Device10getDefaultEPi>
  4070bb:	48 8d 45 a8          	lea    -0x58(%rbp),%rax
  4070bf:	be 00 00 00 00       	mov    $0x0,%esi
  4070c4:	48 89 c7             	mov    %rax,%rdi
  4070c7:	e8 e6 f5 ff ff       	callq  4066b2 <_ZN2cl12CommandQueue10getDefaultEPi>
  4070cc:	48 8d 45 a0          	lea    -0x60(%rbp),%rax
  4070d0:	be 00 00 00 00       	mov    $0x0,%esi
  4070d5:	48 89 c7             	mov    %rax,%rdi
  4070d8:	e8 fb f0 ff ff       	callq  4061d8 <_ZN2cl7Context10getDefaultEPi>
  4070dd:	48 8b 7d 90          	mov    -0x70(%rbp),%rdi
  4070e1:	48 8d 4d b0          	lea    -0x50(%rbp),%rcx
  4070e5:	48 8d 55 a8          	lea    -0x58(%rbp),%rdx
  4070e9:	48 8d 75 a0          	lea    -0x60(%rbp),%rsi
  4070ed:	48 8b 45 98          	mov    -0x68(%rbp),%rax
  4070f1:	49 89 f8             	mov    %rdi,%r8
  4070f4:	48 89 c7             	mov    %rax,%rdi
  4070f7:	e8 da 00 00 00       	callq  4071d6 <_ZN11arm_compute11CLScheduler4initEN2cl7ContextENS1_12CommandQueueENS1_6DeviceEPNS_8ICLTunerE>
  4070fc:	48 8d 45 a0          	lea    -0x60(%rbp),%rax
  407100:	48 89 c7             	mov    %rax,%rdi
  407103:	e8 36 eb ff ff       	callq  405c3e <_ZN2cl7ContextD1Ev>
  407108:	48 8d 45 a8          	lea    -0x58(%rbp),%rax
  40710c:	48 89 c7             	mov    %rax,%rdi
  40710f:	e8 82 f3 ff ff       	callq  406496 <_ZN2cl12CommandQueueD1Ev>
  407114:	48 8d 45 b0          	lea    -0x50(%rbp),%rax
  407118:	48 89 c7             	mov    %rax,%rdi
  40711b:	e8 66 e2 ff ff       	callq  405386 <_ZN2cl6DeviceD1Ev>
  407120:	e9 95 00 00 00       	jmpq   4071ba <_ZN11arm_compute11CLScheduler12default_initEPNS_8ICLTunerE+0x1d2>
  407125:	48 8b 45 98          	mov    -0x68(%rbp),%rax
  407129:	48 8b 55 90          	mov    -0x70(%rbp),%rdx
  40712d:	48 89 50 18          	mov    %rdx,0x18(%rax)
  407131:	e9 84 00 00 00       	jmpq   4071ba <_ZN11arm_compute11CLScheduler12default_initEPNS_8ICLTunerE+0x1d2>
  407136:	48 89 c3             	mov    %rax,%rbx
  407139:	48 8d 45 c0          	lea    -0x40(%rbp),%rax
  40713d:	48 89 c7             	mov    %rax,%rdi
  407140:	e8 4b cd ff ff       	callq  403e90 <_ZNSt7__cxx1112basic_stringIcSt11char_traitsIcESaIcEED1Ev@plt>
  407145:	eb 03                	jmp    40714a <_ZN11arm_compute11CLScheduler12default_initEPNS_8ICLTunerE+0x162>
  407147:	48 89 c3             	mov    %rax,%rbx
  40714a:	48 8d 45 a0          	lea    -0x60(%rbp),%rax
  40714e:	48 89 c7             	mov    %rax,%rdi
  407151:	e8 ba cd ff ff       	callq  403f10 <_ZNSaIcED1Ev@plt>
  407156:	48 8d 45 a8          	lea    -0x58(%rbp),%rax
  40715a:	48 89 c7             	mov    %rax,%rdi
  40715d:	e8 dc ea ff ff       	callq  405c3e <_ZN2cl7ContextD1Ev>
  407162:	eb 03                	jmp    407167 <_ZN11arm_compute11CLScheduler12default_initEPNS_8ICLTunerE+0x17f>
  407164:	48 89 c3             	mov    %rax,%rbx
  407167:	48 8d 45 b0          	lea    -0x50(%rbp),%rax
  40716b:	48 89 c7             	mov    %rax,%rdi
  40716e:	e8 13 e2 ff ff       	callq  405386 <_ZN2cl6DeviceD1Ev>
  407173:	48 89 d8             	mov    %rbx,%rax
  407176:	48 89 c7             	mov    %rax,%rdi
  407179:	e8 12 d0 ff ff       	callq  404190 <_Unwind_Resume@plt>
  40717e:	48 89 c3             	mov    %rax,%rbx
  407181:	48 8d 45 a0          	lea    -0x60(%rbp),%rax
  407185:	48 89 c7             	mov    %rax,%rdi
  407188:	e8 b1 ea ff ff       	callq  405c3e <_ZN2cl7ContextD1Ev>
  40718d:	eb 03                	jmp    407192 <_ZN11arm_compute11CLScheduler12default_initEPNS_8ICLTunerE+0x1aa>
  40718f:	48 89 c3             	mov    %rax,%rbx
  407192:	48 8d 45 a8          	lea    -0x58(%rbp),%rax
  407196:	48 89 c7             	mov    %rax,%rdi
  407199:	e8 f8 f2 ff ff       	callq  406496 <_ZN2cl12CommandQueueD1Ev>
  40719e:	eb 03                	jmp    4071a3 <_ZN11arm_compute11CLScheduler12default_initEPNS_8ICLTunerE+0x1bb>
  4071a0:	48 89 c3             	mov    %rax,%rbx
  4071a3:	48 8d 45 b0          	lea    -0x50(%rbp),%rax
  4071a7:	48 89 c7             	mov    %rax,%rdi
  4071aa:	e8 d7 e1 ff ff       	callq  405386 <_ZN2cl6DeviceD1Ev>
  4071af:	48 89 d8             	mov    %rbx,%rax
  4071b2:	48 89 c7             	mov    %rax,%rdi
  4071b5:	e8 d6 cf ff ff       	callq  404190 <_Unwind_Resume@plt>
  4071ba:	48 8b 45 e8          	mov    -0x18(%rbp),%rax
  4071be:	64 48 33 04 25 28 00 	xor    %fs:0x28,%rax
  4071c5:	00 00 
  4071c7:	74 05                	je     4071ce <_ZN11arm_compute11CLScheduler12default_initEPNS_8ICLTunerE+0x1e6>
  4071c9:	e8 62 cd ff ff       	callq  403f30 <__stack_chk_fail@plt>
  4071ce:	48 83 c4 68          	add    $0x68,%rsp
  4071d2:	5b                   	pop    %rbx
  4071d3:	5d                   	pop    %rbp
  4071d4:	c3                   	retq   
  4071d5:	90                   	nop

00000000004071d6 <_ZN11arm_compute11CLScheduler4initEN2cl7ContextENS1_12CommandQueueENS1_6DeviceEPNS_8ICLTunerE>:
  4071d6:	55                   	push   %rbp
  4071d7:	48 89 e5             	mov    %rsp,%rbp
  4071da:	48 83 ec 30          	sub    $0x30,%rsp
  4071de:	48 89 7d f8          	mov    %rdi,-0x8(%rbp)
  4071e2:	48 89 75 f0          	mov    %rsi,-0x10(%rbp)
  4071e6:	48 89 55 e8          	mov    %rdx,-0x18(%rbp)
  4071ea:	48 89 4d e0          	mov    %rcx,-0x20(%rbp)
  4071ee:	4c 89 45 d8          	mov    %r8,-0x28(%rbp)
  4071f2:	48 8b 45 f0          	mov    -0x10(%rbp),%rax
  4071f6:	48 89 c7             	mov    %rax,%rdi
  4071f9:	e8 97 ef ff ff       	callq  406195 <_ZSt4moveIRN2cl7ContextEEONSt16remove_referenceIT_E4typeEOS4_>
  4071fe:	48 89 c2             	mov    %rax,%rdx
  407201:	48 8b 45 f8          	mov    -0x8(%rbp),%rax
  407205:	48 89 d6             	mov    %rdx,%rsi
  407208:	48 89 c7             	mov    %rax,%rdi
  40720b:	e8 94 ef ff ff       	callq  4061a4 <_ZN2cl7ContextaSEOS0_>
  407210:	48 8b 45 e8          	mov    -0x18(%rbp),%rax
  407214:	48 89 c7             	mov    %rax,%rdi
  407217:	e8 34 f5 ff ff       	callq  406750 <_ZSt4moveIRN2cl12CommandQueueEEONSt16remove_referenceIT_E4typeEOS4_>
  40721c:	48 89 c2             	mov    %rax,%rdx
  40721f:	48 8b 45 f8          	mov    -0x8(%rbp),%rax
  407223:	48 83 c0 08          	add    $0x8,%rax
  407227:	48 89 d6             	mov    %rdx,%rsi
  40722a:	48 89 c7             	mov    %rax,%rdi
  40722d:	e8 2c f5 ff ff       	callq  40675e <_ZN2cl12CommandQueueaSEOS0_>
  407232:	48 8b 45 e0          	mov    -0x20(%rbp),%rax
  407236:	48 89 c7             	mov    %rax,%rdi
  407239:	e8 c2 cd ff ff       	callq  404000 <_ZN11arm_compute22get_target_from_deviceERN2cl6DeviceE@plt>
  40723e:	89 c2                	mov    %eax,%edx
  407240:	48 8b 45 f8          	mov    -0x8(%rbp),%rax
  407244:	89 50 10             	mov    %edx,0x10(%rax)
  407247:	48 8b 45 f8          	mov    -0x8(%rbp),%rax
  40724b:	c6 40 14 01          	movb   $0x1,0x14(%rax)
  40724f:	48 8b 45 f8          	mov    -0x8(%rbp),%rax
  407253:	48 8b 55 d8          	mov    -0x28(%rbp),%rdx
  407257:	48 89 50 18          	mov    %rdx,0x18(%rax)
  40725b:	90                   	nop
  40725c:	c9                   	leaveq 
  40725d:	c3                   	retq   

000000000040725e <_ZN11arm_compute11CLScheduler4syncEv>:
  40725e:	55                   	push   %rbp
  40725f:	48 89 e5             	mov    %rsp,%rbp
  407262:	48 83 ec 10          	sub    $0x10,%rsp
  407266:	48 89 7d f8          	mov    %rdi,-0x8(%rbp)
  40726a:	48 8b 45 f8          	mov    -0x8(%rbp),%rax
  40726e:	48 83 c0 08          	add    $0x8,%rax
  407272:	48 89 c7             	mov    %rax,%rdi
  407275:	e8 18 f5 ff ff       	callq  406792 <_ZNK2cl12CommandQueue6finishEv>
  40727a:	90                   	nop
  40727b:	c9                   	leaveq 
  40727c:	c3                   	retq   
  40727d:	90                   	nop

000000000040727e <_ZNK2CK5Shape10data_countEv>:
  40727e:	55                   	push   %rbp
  40727f:	48 89 e5             	mov    %rsp,%rbp
  407282:	48 89 7d f8          	mov    %rdi,-0x8(%rbp)
  407286:	48 8b 45 f8          	mov    -0x8(%rbp),%rax
  40728a:	8b 10                	mov    (%rax),%edx
  40728c:	48 8b 45 f8          	mov    -0x8(%rbp),%rax
  407290:	8b 40 04             	mov    0x4(%rax),%eax
  407293:	0f af d0             	imul   %eax,%edx
  407296:	48 8b 45 f8          	mov    -0x8(%rbp),%rax
  40729a:	8b 40 08             	mov    0x8(%rax),%eax
  40729d:	0f af d0             	imul   %eax,%edx
  4072a0:	48 8b 45 f8          	mov    -0x8(%rbp),%rax
  4072a4:	8b 40 0c             	mov    0xc(%rax),%eax
  4072a7:	0f af c2             	imul   %edx,%eax
  4072aa:	5d                   	pop    %rbp
  4072ab:	c3                   	retq   

00000000004072ac <_ZNK2CK5Shape14get_flat_indexEiiii>:
  4072ac:	55                   	push   %rbp
  4072ad:	48 89 e5             	mov    %rsp,%rbp
  4072b0:	48 83 ec 20          	sub    $0x20,%rsp
  4072b4:	48 89 7d f8          	mov    %rdi,-0x8(%rbp)
  4072b8:	89 75 f4             	mov    %esi,-0xc(%rbp)
  4072bb:	89 55 f0             	mov    %edx,-0x10(%rbp)
  4072be:	89 4d ec             	mov    %ecx,-0x14(%rbp)
  4072c1:	44 89 45 e8          	mov    %r8d,-0x18(%rbp)
  4072c5:	8b 7d e8             	mov    -0x18(%rbp),%edi
  4072c8:	8b 4d ec             	mov    -0x14(%rbp),%ecx
  4072cb:	8b 55 f0             	mov    -0x10(%rbp),%edx
  4072ce:	8b 75 f4             	mov    -0xc(%rbp),%esi
  4072d1:	48 8b 45 f8          	mov    -0x8(%rbp),%rax
  4072d5:	41 89 f8             	mov    %edi,%r8d
  4072d8:	48 89 c7             	mov    %rax,%rdi
  4072db:	e8 02 00 00 00       	callq  4072e2 <_ZNK2CK5Shape19get_flat_index_nchwEiiii>
  4072e0:	c9                   	leaveq 
  4072e1:	c3                   	retq   

00000000004072e2 <_ZNK2CK5Shape19get_flat_index_nchwEiiii>:
  4072e2:	55                   	push   %rbp
  4072e3:	48 89 e5             	mov    %rsp,%rbp
  4072e6:	48 89 7d f8          	mov    %rdi,-0x8(%rbp)
  4072ea:	89 75 f4             	mov    %esi,-0xc(%rbp)
  4072ed:	89 55 f0             	mov    %edx,-0x10(%rbp)
  4072f0:	89 4d ec             	mov    %ecx,-0x14(%rbp)
  4072f3:	44 89 45 e8          	mov    %r8d,-0x18(%rbp)
  4072f7:	48 8b 45 f8          	mov    -0x8(%rbp),%rax
  4072fb:	8b 40 04             	mov    0x4(%rax),%eax
  4072fe:	0f af 45 f4          	imul   -0xc(%rbp),%eax
  407302:	89 c2                	mov    %eax,%edx
  407304:	8b 45 f0             	mov    -0x10(%rbp),%eax
  407307:	01 c2                	add    %eax,%edx
  407309:	48 8b 45 f8          	mov    -0x8(%rbp),%rax
  40730d:	8b 40 08             	mov    0x8(%rax),%eax
  407310:	0f af d0             	imul   %eax,%edx
  407313:	8b 45 ec             	mov    -0x14(%rbp),%eax
  407316:	01 c2                	add    %eax,%edx
  407318:	48 8b 45 f8          	mov    -0x8(%rbp),%rax
  40731c:	8b 40 0c             	mov    0xc(%rax),%eax
  40731f:	0f af d0             	imul   %eax,%edx
  407322:	8b 45 e8             	mov    -0x18(%rbp),%eax
  407325:	01 d0                	add    %edx,%eax
  407327:	5d                   	pop    %rbp
  407328:	c3                   	retq   

0000000000407329 <_ZN2CK8getenv_iEPKci>:
  407329:	55                   	push   %rbp
  40732a:	48 89 e5             	mov    %rsp,%rbp
  40732d:	48 83 ec 10          	sub    $0x10,%rsp
  407331:	48 89 7d f8          	mov    %rdi,-0x8(%rbp)
  407335:	89 75 f4             	mov    %esi,-0xc(%rbp)
  407338:	48 8b 45 f8          	mov    -0x8(%rbp),%rax
  40733c:	48 89 c7             	mov    %rax,%rdi
  40733f:	e8 3c cc ff ff       	callq  403f80 <getenv@plt>
  407344:	48 85 c0             	test   %rax,%rax
  407347:	74 16                	je     40735f <_ZN2CK8getenv_iEPKci+0x36>
  407349:	48 8b 45 f8          	mov    -0x8(%rbp),%rax
  40734d:	48 89 c7             	mov    %rax,%rdi
  407350:	e8 2b cc ff ff       	callq  403f80 <getenv@plt>
  407355:	48 89 c7             	mov    %rax,%rdi
  407358:	e8 73 cd ff ff       	callq  4040d0 <atoi@plt>
  40735d:	eb 03                	jmp    407362 <_ZN2CK8getenv_iEPKci+0x39>
  40735f:	8b 45 f4             	mov    -0xc(%rbp),%eax
  407362:	c9                   	leaveq 
  407363:	c3                   	retq   

0000000000407364 <_ZN2CK13store_value_iEiPKci>:
  407364:	55                   	push   %rbp
  407365:	48 89 e5             	mov    %rsp,%rbp
  407368:	48 83 ec 20          	sub    $0x20,%rsp
  40736c:	89 7d ec             	mov    %edi,-0x14(%rbp)
  40736f:	48 89 75 e0          	mov    %rsi,-0x20(%rbp)
  407373:	89 55 e8             	mov    %edx,-0x18(%rbp)
  407376:	48 8b 45 e0          	mov    -0x20(%rbp),%rax
  40737a:	48 89 c7             	mov    %rax,%rdi
  40737d:	e8 5e ca ff ff       	callq  403de0 <strlen@plt>
  407382:	48 83 c0 06          	add    $0x6,%rax
  407386:	48 89 c7             	mov    %rax,%rdi
  407389:	e8 42 c9 ff ff       	callq  403cd0 <_Znam@plt>
  40738e:	48 89 45 f8          	mov    %rax,-0x8(%rbp)
  407392:	48 8b 55 e0          	mov    -0x20(%rbp),%rdx
  407396:	48 8b 45 f8          	mov    -0x8(%rbp),%rax
  40739a:	be 86 04 41 00       	mov    $0x410486,%esi
  40739f:	48 89 c7             	mov    %rax,%rdi
  4073a2:	b8 00 00 00 00       	mov    $0x0,%eax
  4073a7:	e8 74 c9 ff ff       	callq  403d20 <sprintf@plt>
  4073ac:	8b 55 e8             	mov    -0x18(%rbp),%edx
  4073af:	48 8b 4d f8          	mov    -0x8(%rbp),%rcx
  4073b3:	8b 45 ec             	mov    -0x14(%rbp),%eax
  4073b6:	48 89 ce             	mov    %rcx,%rsi
  4073b9:	89 c7                	mov    %eax,%edi
  4073bb:	e8 a0 cb ff ff       	callq  403f60 <xopenme_add_var_i@plt>
  4073c0:	48 83 7d f8 00       	cmpq   $0x0,-0x8(%rbp)
  4073c5:	74 0c                	je     4073d3 <_ZN2CK13store_value_iEiPKci+0x6f>
  4073c7:	48 8b 45 f8          	mov    -0x8(%rbp),%rax
  4073cb:	48 89 c7             	mov    %rax,%rdi
  4073ce:	e8 0d cc ff ff       	callq  403fe0 <_ZdaPv@plt>
  4073d3:	90                   	nop
  4073d4:	c9                   	leaveq 
  4073d5:	c3                   	retq   

00000000004073d6 <_ZN2CK13store_value_fEiPKcf>:
  4073d6:	55                   	push   %rbp
  4073d7:	48 89 e5             	mov    %rsp,%rbp
  4073da:	48 83 ec 30          	sub    $0x30,%rsp
  4073de:	89 7d ec             	mov    %edi,-0x14(%rbp)
  4073e1:	48 89 75 e0          	mov    %rsi,-0x20(%rbp)
  4073e5:	f3 0f 11 45 e8       	movss  %xmm0,-0x18(%rbp)
  4073ea:	48 8b 45 e0          	mov    -0x20(%rbp),%rax
  4073ee:	48 89 c7             	mov    %rax,%rdi
  4073f1:	e8 ea c9 ff ff       	callq  403de0 <strlen@plt>
  4073f6:	48 83 c0 06          	add    $0x6,%rax
  4073fa:	48 89 c7             	mov    %rax,%rdi
  4073fd:	e8 ce c8 ff ff       	callq  403cd0 <_Znam@plt>
  407402:	48 89 45 f8          	mov    %rax,-0x8(%rbp)
  407406:	48 8b 55 e0          	mov    -0x20(%rbp),%rdx
  40740a:	48 8b 45 f8          	mov    -0x8(%rbp),%rax
  40740e:	be 8f 04 41 00       	mov    $0x41048f,%esi
  407413:	48 89 c7             	mov    %rax,%rdi
  407416:	b8 00 00 00 00       	mov    $0x0,%eax
  40741b:	e8 00 c9 ff ff       	callq  403d20 <sprintf@plt>
  407420:	8b 4d e8             	mov    -0x18(%rbp),%ecx
  407423:	48 8b 55 f8          	mov    -0x8(%rbp),%rdx
  407427:	8b 45 ec             	mov    -0x14(%rbp),%eax
  40742a:	89 4d dc             	mov    %ecx,-0x24(%rbp)
  40742d:	f3 0f 10 45 dc       	movss  -0x24(%rbp),%xmm0
  407432:	48 89 d6             	mov    %rdx,%rsi
  407435:	89 c7                	mov    %eax,%edi
  407437:	e8 b4 cd ff ff       	callq  4041f0 <xopenme_add_var_f@plt>
  40743c:	48 83 7d f8 00       	cmpq   $0x0,-0x8(%rbp)
  407441:	74 0c                	je     40744f <_ZN2CK13store_value_fEiPKcf+0x79>
  407443:	48 8b 45 f8          	mov    -0x8(%rbp),%rax
  407447:	48 89 c7             	mov    %rax,%rdi
  40744a:	e8 91 cb ff ff       	callq  403fe0 <_ZdaPv@plt>
  40744f:	90                   	nop
  407450:	c9                   	leaveq 
  407451:	c3                   	retq   

0000000000407452 <_ZN2CK24get_input_shape_from_envEiiii>:
  407452:	55                   	push   %rbp
  407453:	48 89 e5             	mov    %rsp,%rbp
  407456:	48 83 ec 30          	sub    $0x30,%rsp
  40745a:	89 7d dc             	mov    %edi,-0x24(%rbp)
  40745d:	89 75 d8             	mov    %esi,-0x28(%rbp)
  407460:	89 55 d4             	mov    %edx,-0x2c(%rbp)
  407463:	89 4d d0             	mov    %ecx,-0x30(%rbp)
  407466:	64 48 8b 04 25 28 00 	mov    %fs:0x28,%rax
  40746d:	00 00 
  40746f:	48 89 45 f8          	mov    %rax,-0x8(%rbp)
  407473:	31 c0                	xor    %eax,%eax
  407475:	c7 45 e0 01 00 00 00 	movl   $0x1,-0x20(%rbp)
  40747c:	c7 45 e4 01 00 00 00 	movl   $0x1,-0x1c(%rbp)
  407483:	c7 45 e8 01 00 00 00 	movl   $0x1,-0x18(%rbp)
  40748a:	c7 45 ec 01 00 00 00 	movl   $0x1,-0x14(%rbp)
  407491:	8b 45 dc             	mov    -0x24(%rbp),%eax
  407494:	89 c6                	mov    %eax,%esi
  407496:	bf 98 04 41 00       	mov    $0x410498,%edi
  40749b:	e8 89 fe ff ff       	callq  407329 <_ZN2CK8getenv_iEPKci>
  4074a0:	89 45 e0             	mov    %eax,-0x20(%rbp)
  4074a3:	8b 45 d8             	mov    -0x28(%rbp),%eax
  4074a6:	89 c6                	mov    %eax,%esi
  4074a8:	bf a6 04 41 00       	mov    $0x4104a6,%edi
  4074ad:	e8 77 fe ff ff       	callq  407329 <_ZN2CK8getenv_iEPKci>
  4074b2:	89 45 e4             	mov    %eax,-0x1c(%rbp)
  4074b5:	8b 45 d4             	mov    -0x2c(%rbp),%eax
  4074b8:	89 c6                	mov    %eax,%esi
  4074ba:	bf b4 04 41 00       	mov    $0x4104b4,%edi
  4074bf:	e8 65 fe ff ff       	callq  407329 <_ZN2CK8getenv_iEPKci>
  4074c4:	89 45 e8             	mov    %eax,-0x18(%rbp)
  4074c7:	8b 45 d0             	mov    -0x30(%rbp),%eax
  4074ca:	89 c6                	mov    %eax,%esi
  4074cc:	bf c2 04 41 00       	mov    $0x4104c2,%edi
  4074d1:	e8 53 fe ff ff       	callq  407329 <_ZN2CK8getenv_iEPKci>
  4074d6:	89 45 ec             	mov    %eax,-0x14(%rbp)
  4074d9:	8b 45 e0             	mov    -0x20(%rbp),%eax
  4074dc:	89 c2                	mov    %eax,%edx
  4074de:	be d0 04 41 00       	mov    $0x4104d0,%esi
  4074e3:	bf 04 00 00 00       	mov    $0x4,%edi
  4074e8:	e8 77 fe ff ff       	callq  407364 <_ZN2CK13store_value_iEiPKci>
  4074ed:	8b 45 e4             	mov    -0x1c(%rbp),%eax
  4074f0:	89 c2                	mov    %eax,%edx
  4074f2:	be db 04 41 00       	mov    $0x4104db,%esi
  4074f7:	bf 05 00 00 00       	mov    $0x5,%edi
  4074fc:	e8 63 fe ff ff       	callq  407364 <_ZN2CK13store_value_iEiPKci>
  407501:	8b 45 e8             	mov    -0x18(%rbp),%eax
  407504:	89 c2                	mov    %eax,%edx
  407506:	be e6 04 41 00       	mov    $0x4104e6,%esi
  40750b:	bf 06 00 00 00       	mov    $0x6,%edi
  407510:	e8 4f fe ff ff       	callq  407364 <_ZN2CK13store_value_iEiPKci>
  407515:	8b 45 ec             	mov    -0x14(%rbp),%eax
  407518:	89 c2                	mov    %eax,%edx
  40751a:	be f1 04 41 00       	mov    $0x4104f1,%esi
  40751f:	bf 07 00 00 00       	mov    $0x7,%edi
  407524:	e8 3b fe ff ff       	callq  407364 <_ZN2CK13store_value_iEiPKci>
  407529:	8b 75 ec             	mov    -0x14(%rbp),%esi
  40752c:	8b 4d e8             	mov    -0x18(%rbp),%ecx
  40752f:	8b 55 e4             	mov    -0x1c(%rbp),%edx
  407532:	8b 45 e0             	mov    -0x20(%rbp),%eax
  407535:	41 89 f0             	mov    %esi,%r8d
  407538:	89 c6                	mov    %eax,%esi
  40753a:	bf 00 05 41 00       	mov    $0x410500,%edi
  40753f:	b8 00 00 00 00       	mov    $0x0,%eax
  407544:	e8 a7 c7 ff ff       	callq  403cf0 <printf@plt>
  407549:	48 8b 45 e0          	mov    -0x20(%rbp),%rax
  40754d:	48 8b 55 e8          	mov    -0x18(%rbp),%rdx
  407551:	48 8b 4d f8          	mov    -0x8(%rbp),%rcx
  407555:	64 48 33 0c 25 28 00 	xor    %fs:0x28,%rcx
  40755c:	00 00 
  40755e:	74 05                	je     407565 <_ZN2CK24get_input_shape_from_envEiiii+0x113>
  407560:	e8 cb c9 ff ff       	callq  403f30 <__stack_chk_fail@plt>
  407565:	c9                   	leaveq 
  407566:	c3                   	retq   

0000000000407567 <_ZN2CK9init_testEv>:
  407567:	55                   	push   %rbp
  407568:	48 89 e5             	mov    %rsp,%rbp
  40756b:	48 83 ec 10          	sub    $0x10,%rsp
  40756f:	be 0c 00 00 00       	mov    $0xc,%esi
  407574:	bf 02 00 00 00       	mov    $0x2,%edi
  407579:	e8 32 c8 ff ff       	callq  403db0 <xopenme_init@plt>
  40757e:	be 2a 00 00 00       	mov    $0x2a,%esi
  407583:	bf 37 05 41 00       	mov    $0x410537,%edi
  407588:	e8 9c fd ff ff       	callq  407329 <_ZN2CK8getenv_iEPKci>
  40758d:	89 45 fc             	mov    %eax,-0x4(%rbp)
  407590:	8b 45 fc             	mov    -0x4(%rbp),%eax
  407593:	89 c2                	mov    %eax,%edx
  407595:	be 3f 05 41 00       	mov    $0x41053f,%esi
  40759a:	bf 08 00 00 00       	mov    $0x8,%edi
  40759f:	e8 c0 fd ff ff       	callq  407364 <_ZN2CK13store_value_iEiPKci>
  4075a4:	8b 45 fc             	mov    -0x4(%rbp),%eax
  4075a7:	89 c7                	mov    %eax,%edi
  4075a9:	e8 32 c9 ff ff       	callq  403ee0 <srand@plt>
  4075ae:	90                   	nop
  4075af:	c9                   	leaveq 
  4075b0:	c3                   	retq   

00000000004075b1 <_ZN2CK11finish_testEv>:
  4075b1:	55                   	push   %rbp
  4075b2:	48 89 e5             	mov    %rsp,%rbp
  4075b5:	bf 00 00 00 00       	mov    $0x0,%edi
  4075ba:	e8 61 cc ff ff       	callq  404220 <xopenme_get_timer@plt>
  4075bf:	be 00 00 00 00       	mov    $0x0,%esi
  4075c4:	bf 48 05 41 00       	mov    $0x410548,%edi
  4075c9:	b8 01 00 00 00       	mov    $0x1,%eax
  4075ce:	e8 1d c7 ff ff       	callq  403cf0 <printf@plt>
  4075d3:	bf 01 00 00 00       	mov    $0x1,%edi
  4075d8:	e8 43 cc ff ff       	callq  404220 <xopenme_get_timer@plt>
  4075dd:	be 01 00 00 00       	mov    $0x1,%esi
  4075e2:	bf 5c 05 41 00       	mov    $0x41055c,%edi
  4075e7:	b8 01 00 00 00       	mov    $0x1,%eax
  4075ec:	e8 ff c6 ff ff       	callq  403cf0 <printf@plt>
  4075f1:	e8 5a c7 ff ff       	callq  403d50 <xopenme_dump_state@plt>
  4075f6:	e8 75 c7 ff ff       	callq  403d70 <xopenme_finish@plt>
  4075fb:	90                   	nop
  4075fc:	5d                   	pop    %rbp
  4075fd:	c3                   	retq   

00000000004075fe <_ZN2CK5armcl15set_kernel_pathEv>:
  4075fe:	55                   	push   %rbp
  4075ff:	48 89 e5             	mov    %rsp,%rbp
  407602:	53                   	push   %rbx
  407603:	48 83 ec 48          	sub    $0x48,%rsp
  407607:	64 48 8b 04 25 28 00 	mov    %fs:0x28,%rax
  40760e:	00 00 
  407610:	48 89 45 e8          	mov    %rax,-0x18(%rbp)
  407614:	31 c0                	xor    %eax,%eax
  407616:	bf 8a 05 41 00       	mov    $0x41058a,%edi
  40761b:	e8 60 c9 ff ff       	callq  403f80 <getenv@plt>
  407620:	48 89 45 b8          	mov    %rax,-0x48(%rbp)
  407624:	48 83 7d b8 00       	cmpq   $0x0,-0x48(%rbp)
  407629:	0f 84 95 00 00 00    	je     4076c4 <_ZN2CK5armcl15set_kernel_pathEv+0xc6>
  40762f:	48 8b 45 b8          	mov    -0x48(%rbp),%rax
  407633:	48 89 c6             	mov    %rax,%rsi
  407636:	bf a6 05 41 00       	mov    $0x4105a6,%edi
  40763b:	b8 00 00 00 00       	mov    $0x0,%eax
  407640:	e8 ab c6 ff ff       	callq  403cf0 <printf@plt>
  407645:	48 8d 45 b7          	lea    -0x49(%rbp),%rax
  407649:	48 89 c7             	mov    %rax,%rdi
  40764c:	e8 4f cb ff ff       	callq  4041a0 <_ZNSaIcEC1Ev@plt>
  407651:	48 8d 55 b7          	lea    -0x49(%rbp),%rdx
  407655:	48 8b 4d b8          	mov    -0x48(%rbp),%rcx
  407659:	48 8d 45 c0          	lea    -0x40(%rbp),%rax
  40765d:	48 89 ce             	mov    %rcx,%rsi
  407660:	48 89 c7             	mov    %rax,%rdi
  407663:	e8 d8 c9 ff ff       	callq  404040 <_ZNSt7__cxx1112basic_stringIcSt11char_traitsIcESaIcEEC1EPKcRKS3_@plt>
  407668:	e8 03 c8 ff ff       	callq  403e70 <_ZN11arm_compute15CLKernelLibrary3getEv@plt>
  40766d:	48 89 c2             	mov    %rax,%rdx
  407670:	48 8d 45 c0          	lea    -0x40(%rbp),%rax
  407674:	48 89 c6             	mov    %rax,%rsi
  407677:	48 89 d7             	mov    %rdx,%rdi
  40767a:	e8 c9 f1 ff ff       	callq  406848 <_ZN11arm_compute15CLKernelLibrary15set_kernel_pathERKNSt7__cxx1112basic_stringIcSt11char_traitsIcESaIcEEE>
  40767f:	48 8d 45 c0          	lea    -0x40(%rbp),%rax
  407683:	48 89 c7             	mov    %rax,%rdi
  407686:	e8 05 c8 ff ff       	callq  403e90 <_ZNSt7__cxx1112basic_stringIcSt11char_traitsIcESaIcEED1Ev@plt>
  40768b:	48 8d 45 b7          	lea    -0x49(%rbp),%rax
  40768f:	48 89 c7             	mov    %rax,%rdi
  407692:	e8 79 c8 ff ff       	callq  403f10 <_ZNSaIcED1Ev@plt>
  407697:	eb 2b                	jmp    4076c4 <_ZN2CK5armcl15set_kernel_pathEv+0xc6>
  407699:	48 89 c3             	mov    %rax,%rbx
  40769c:	48 8d 45 c0          	lea    -0x40(%rbp),%rax
  4076a0:	48 89 c7             	mov    %rax,%rdi
  4076a3:	e8 e8 c7 ff ff       	callq  403e90 <_ZNSt7__cxx1112basic_stringIcSt11char_traitsIcESaIcEED1Ev@plt>
  4076a8:	eb 03                	jmp    4076ad <_ZN2CK5armcl15set_kernel_pathEv+0xaf>
  4076aa:	48 89 c3             	mov    %rax,%rbx
  4076ad:	48 8d 45 b7          	lea    -0x49(%rbp),%rax
  4076b1:	48 89 c7             	mov    %rax,%rdi
  4076b4:	e8 57 c8 ff ff       	callq  403f10 <_ZNSaIcED1Ev@plt>
  4076b9:	48 89 d8             	mov    %rbx,%rax
  4076bc:	48 89 c7             	mov    %rax,%rdi
  4076bf:	e8 cc ca ff ff       	callq  404190 <_Unwind_Resume@plt>
  4076c4:	90                   	nop
  4076c5:	48 8b 45 e8          	mov    -0x18(%rbp),%rax
  4076c9:	64 48 33 04 25 28 00 	xor    %fs:0x28,%rax
  4076d0:	00 00 
  4076d2:	74 05                	je     4076d9 <_ZN2CK5armcl15set_kernel_pathEv+0xdb>
  4076d4:	e8 57 c8 ff ff       	callq  403f30 <__stack_chk_fail@plt>
  4076d9:	48 83 c4 48          	add    $0x48,%rsp
  4076dd:	5b                   	pop    %rbx
  4076de:	5d                   	pop    %rbp
  4076df:	c3                   	retq   

00000000004076e0 <_ZN2CK5armcl10init_armclEPN11arm_compute8ICLTunerE>:
  4076e0:	55                   	push   %rbp
  4076e1:	48 89 e5             	mov    %rsp,%rbp
  4076e4:	53                   	push   %rbx
  4076e5:	48 83 ec 68          	sub    $0x68,%rsp
  4076e9:	48 89 7d 98          	mov    %rdi,-0x68(%rbp)
  4076ed:	64 48 8b 04 25 28 00 	mov    %fs:0x28,%rax
  4076f4:	00 00 
  4076f6:	48 89 45 e8          	mov    %rax,-0x18(%rbp)
  4076fa:	31 c0                	xor    %eax,%eax
  4076fc:	48 8d 55 b0          	lea    -0x50(%rbp),%rdx
  407700:	b8 00 00 00 00       	mov    $0x0,%eax
  407705:	b9 07 00 00 00       	mov    $0x7,%ecx
  40770a:	48 89 d7             	mov    %rdx,%rdi
  40770d:	f3 48 ab             	rep stos %rax,%es:(%rdi)
  407710:	48 c7 45 b0 b0 40 00 	movq   $0x40b0,-0x50(%rbp)
  407717:	00 
  407718:	b8 46 45 40 00       	mov    $0x404546,%eax
  40771d:	48 89 45 b8          	mov    %rax,-0x48(%rbp)
  407721:	48 c7 45 c0 b1 40 00 	movq   $0x40b1,-0x40(%rbp)
  407728:	00 
  407729:	48 c7 45 c8 00 00 10 	movq   $0x100000,-0x38(%rbp)
  407730:	00 
  407731:	48 c7 45 d0 84 10 00 	movq   $0x1084,-0x30(%rbp)
  407738:	00 
  407739:	48 8d 45 a8          	lea    -0x58(%rbp),%rax
  40773d:	be 00 00 00 00       	mov    $0x0,%esi
  407742:	48 89 c7             	mov    %rax,%rdi
  407745:	e8 96 e4 ff ff       	callq  405be0 <_ZN2cl8Platform3getEPi>
  40774a:	48 8d 45 a8          	lea    -0x58(%rbp),%rax
  40774e:	48 89 c7             	mov    %rax,%rdi
  407751:	e8 cc 0a 00 00       	callq  408222 <_ZN2cl6detail7WrapperIP15_cl_platform_idEclEv>
  407756:	48 8b 00             	mov    (%rax),%rax
  407759:	48 89 45 d8          	mov    %rax,-0x28(%rbp)
  40775d:	48 8d 45 a8          	lea    -0x58(%rbp),%rax
  407761:	48 89 c7             	mov    %rax,%rdi
  407764:	e8 57 dd ff ff       	callq  4054c0 <_ZN2cl8PlatformD1Ev>
  407769:	48 8d 55 b0          	lea    -0x50(%rbp),%rdx
  40776d:	48 8d 45 a0          	lea    -0x60(%rbp),%rax
  407771:	41 b9 00 00 00 00    	mov    $0x0,%r9d
  407777:	41 b8 00 00 00 00    	mov    $0x0,%r8d
  40777d:	b9 00 00 00 00       	mov    $0x0,%ecx
  407782:	be 01 00 00 00       	mov    $0x1,%esi
  407787:	48 89 c7             	mov    %rax,%rdi
  40778a:	e8 27 e6 ff ff       	callq  405db6 <_ZN2cl7ContextC1EmPlPFvPKcPKvmPvES6_Pi>
  40778f:	48 8d 45 a8          	lea    -0x58(%rbp),%rax
  407793:	48 8d 55 a0          	lea    -0x60(%rbp),%rdx
  407797:	48 89 d6             	mov    %rdx,%rsi
  40779a:	48 89 c7             	mov    %rax,%rdi
  40779d:	e8 91 ea ff ff       	callq  406233 <_ZN2cl7Context10setDefaultERKS0_>
  4077a2:	48 8d 45 a8          	lea    -0x58(%rbp),%rax
  4077a6:	48 89 c7             	mov    %rax,%rdi
  4077a9:	e8 90 e4 ff ff       	callq  405c3e <_ZN2cl7ContextD1Ev>
  4077ae:	48 8d 45 a0          	lea    -0x60(%rbp),%rax
  4077b2:	48 89 c7             	mov    %rax,%rdi
  4077b5:	e8 84 e4 ff ff       	callq  405c3e <_ZN2cl7ContextD1Ev>
  4077ba:	e8 51 c5 ff ff       	callq  403d10 <_ZN11arm_compute11CLScheduler3getEv@plt>
  4077bf:	48 89 c2             	mov    %rax,%rdx
  4077c2:	48 8b 45 98          	mov    -0x68(%rbp),%rax
  4077c6:	48 89 c6             	mov    %rax,%rsi
  4077c9:	48 89 d7             	mov    %rdx,%rdi
  4077cc:	e8 17 f8 ff ff       	callq  406fe8 <_ZN11arm_compute11CLScheduler12default_initEPNS_8ICLTunerE>
  4077d1:	e8 28 fe ff ff       	callq  4075fe <_ZN2CK5armcl15set_kernel_pathEv>
  4077d6:	90                   	nop
  4077d7:	48 8b 45 e8          	mov    -0x18(%rbp),%rax
  4077db:	64 48 33 04 25 28 00 	xor    %fs:0x28,%rax
  4077e2:	00 00 
  4077e4:	74 21                	je     407807 <_ZN2CK5armcl10init_armclEPN11arm_compute8ICLTunerE+0x127>
  4077e6:	eb 1a                	jmp    407802 <_ZN2CK5armcl10init_armclEPN11arm_compute8ICLTunerE+0x122>
  4077e8:	48 89 c3             	mov    %rax,%rbx
  4077eb:	48 8d 45 a0          	lea    -0x60(%rbp),%rax
  4077ef:	48 89 c7             	mov    %rax,%rdi
  4077f2:	e8 47 e4 ff ff       	callq  405c3e <_ZN2cl7ContextD1Ev>
  4077f7:	48 89 d8             	mov    %rbx,%rax
  4077fa:	48 89 c7             	mov    %rax,%rdi
  4077fd:	e8 8e c9 ff ff       	callq  404190 <_Unwind_Resume@plt>
  407802:	e8 29 c7 ff ff       	callq  403f30 <__stack_chk_fail@plt>
  407807:	48 83 c4 68          	add    $0x68,%rsp
  40780b:	5b                   	pop    %rbx
  40780c:	5d                   	pop    %rbp
  40780d:	c3                   	retq   

000000000040780e <_ZN2CK5armcl14get_flat_indexERKNS_5ShapeERKN11arm_compute11CoordinatesE>:
  40780e:	55                   	push   %rbp
  40780f:	48 89 e5             	mov    %rsp,%rbp
  407812:	48 83 ec 20          	sub    $0x20,%rsp
  407816:	48 89 7d e8          	mov    %rdi,-0x18(%rbp)
  40781a:	48 89 75 e0          	mov    %rsi,-0x20(%rbp)
  40781e:	48 8b 45 e0          	mov    -0x20(%rbp),%rax
  407822:	be 03 00 00 00       	mov    $0x3,%esi
  407827:	48 89 c7             	mov    %rax,%rdi
  40782a:	e8 77 10 00 00       	callq  4088a6 <_ZNK11arm_compute10DimensionsIiEixEm>
  40782f:	8b 00                	mov    (%rax),%eax
  407831:	89 45 f0             	mov    %eax,-0x10(%rbp)
  407834:	48 8b 45 e0          	mov    -0x20(%rbp),%rax
  407838:	be 02 00 00 00       	mov    $0x2,%esi
  40783d:	48 89 c7             	mov    %rax,%rdi
  407840:	e8 61 10 00 00       	callq  4088a6 <_ZNK11arm_compute10DimensionsIiEixEm>
  407845:	8b 00                	mov    (%rax),%eax
  407847:	89 45 f4             	mov    %eax,-0xc(%rbp)
  40784a:	48 8b 45 e0          	mov    -0x20(%rbp),%rax
  40784e:	be 01 00 00 00       	mov    $0x1,%esi
  407853:	48 89 c7             	mov    %rax,%rdi
  407856:	e8 4b 10 00 00       	callq  4088a6 <_ZNK11arm_compute10DimensionsIiEixEm>
  40785b:	8b 00                	mov    (%rax),%eax
  40785d:	89 45 f8             	mov    %eax,-0x8(%rbp)
  407860:	48 8b 45 e0          	mov    -0x20(%rbp),%rax
  407864:	be 00 00 00 00       	mov    $0x0,%esi
  407869:	48 89 c7             	mov    %rax,%rdi
  40786c:	e8 35 10 00 00       	callq  4088a6 <_ZNK11arm_compute10DimensionsIiEixEm>
  407871:	8b 00                	mov    (%rax),%eax
  407873:	89 45 fc             	mov    %eax,-0x4(%rbp)
  407876:	48 8b 45 e8          	mov    -0x18(%rbp),%rax
  40787a:	8b 50 0c             	mov    0xc(%rax),%edx
  40787d:	48 8b 45 e8          	mov    -0x18(%rbp),%rax
  407881:	8b 40 08             	mov    0x8(%rax),%eax
  407884:	0f af d0             	imul   %eax,%edx
  407887:	48 8b 45 e8          	mov    -0x18(%rbp),%rax
  40788b:	8b 40 04             	mov    0x4(%rax),%eax
  40788e:	0f af c2             	imul   %edx,%eax
  407891:	0f af 45 f0          	imul   -0x10(%rbp),%eax
  407895:	89 c2                	mov    %eax,%edx
  407897:	48 8b 45 e8          	mov    -0x18(%rbp),%rax
  40789b:	8b 48 0c             	mov    0xc(%rax),%ecx
  40789e:	48 8b 45 e8          	mov    -0x18(%rbp),%rax
  4078a2:	8b 40 08             	mov    0x8(%rax),%eax
  4078a5:	0f af c1             	imul   %ecx,%eax
  4078a8:	0f af 45 f4          	imul   -0xc(%rbp),%eax
  4078ac:	01 c2                	add    %eax,%edx
  4078ae:	48 8b 45 e8          	mov    -0x18(%rbp),%rax
  4078b2:	8b 40 0c             	mov    0xc(%rax),%eax
  4078b5:	0f af 45 f8          	imul   -0x8(%rbp),%eax
  4078b9:	01 c2                	add    %eax,%edx
  4078bb:	8b 45 fc             	mov    -0x4(%rbp),%eax
  4078be:	01 d0                	add    %edx,%eax
  4078c0:	c9                   	leaveq 
  4078c1:	c3                   	retq   

00000000004078c2 <_ZN2CK5armcl20tensor_info_to_shapeEPKN11arm_compute10TensorInfoE>:
  4078c2:	55                   	push   %rbp
  4078c3:	48 89 e5             	mov    %rsp,%rbp
  4078c6:	53                   	push   %rbx
  4078c7:	48 83 ec 28          	sub    $0x28,%rsp
  4078cb:	48 89 7d d8          	mov    %rdi,-0x28(%rbp)
  4078cf:	48 89 75 d0          	mov    %rsi,-0x30(%rbp)
  4078d3:	64 48 8b 04 25 28 00 	mov    %fs:0x28,%rax
  4078da:	00 00 
  4078dc:	48 89 45 e8          	mov    %rax,-0x18(%rbp)
  4078e0:	31 c0                	xor    %eax,%eax
  4078e2:	48 8b 45 d8          	mov    -0x28(%rbp),%rax
  4078e6:	48 89 c7             	mov    %rax,%rdi
  4078e9:	e8 ba 0e 00 00       	callq  4087a8 <_ZN11arm_compute11TensorShapeC1IJEEEDpT_>
  4078ee:	c7 45 e4 00 00 00 00 	movl   $0x0,-0x1c(%rbp)
  4078f5:	8b 45 e4             	mov    -0x1c(%rbp),%eax
  4078f8:	48 63 d8             	movslq %eax,%rbx
  4078fb:	48 8b 45 d0          	mov    -0x30(%rbp),%rax
  4078ff:	48 89 c7             	mov    %rax,%rdi
  407902:	e8 21 f3 ff ff       	callq  406c28 <_ZNK11arm_compute10TensorInfo14num_dimensionsEv>
  407907:	48 39 c3             	cmp    %rax,%rbx
  40790a:	0f 92 c0             	setb   %al
  40790d:	84 c0                	test   %al,%al
  40790f:	74 33                	je     407944 <_ZN2CK5armcl20tensor_info_to_shapeEPKN11arm_compute10TensorInfoE+0x82>
  407911:	8b 45 e4             	mov    -0x1c(%rbp),%eax
  407914:	48 63 d0             	movslq %eax,%rdx
  407917:	48 8b 45 d0          	mov    -0x30(%rbp),%rax
  40791b:	48 89 d6             	mov    %rdx,%rsi
  40791e:	48 89 c7             	mov    %rax,%rdi
  407921:	e8 d6 f2 ff ff       	callq  406bfc <_ZNK11arm_compute10TensorInfo9dimensionEm>
  407926:	48 89 c2             	mov    %rax,%rdx
  407929:	8b 45 e4             	mov    -0x1c(%rbp),%eax
  40792c:	48 63 c8             	movslq %eax,%rcx
  40792f:	48 8b 45 d8          	mov    -0x28(%rbp),%rax
  407933:	48 89 ce             	mov    %rcx,%rsi
  407936:	48 89 c7             	mov    %rax,%rdi
  407939:	e8 34 ef ff ff       	callq  406872 <_ZN11arm_compute11TensorShape3setEmm>
  40793e:	83 45 e4 01          	addl   $0x1,-0x1c(%rbp)
  407942:	eb b1                	jmp    4078f5 <_ZN2CK5armcl20tensor_info_to_shapeEPKN11arm_compute10TensorInfoE+0x33>
  407944:	90                   	nop
  407945:	48 8b 45 d8          	mov    -0x28(%rbp),%rax
  407949:	48 8b 4d e8          	mov    -0x18(%rbp),%rcx
  40794d:	64 48 33 0c 25 28 00 	xor    %fs:0x28,%rcx
  407954:	00 00 
  407956:	74 05                	je     40795d <_ZN2CK5armcl20tensor_info_to_shapeEPKN11arm_compute10TensorInfoE+0x9b>
  407958:	e8 d3 c5 ff ff       	callq  403f30 <__stack_chk_fail@plt>
  40795d:	48 83 c4 28          	add    $0x28,%rsp
  407961:	5b                   	pop    %rbx
  407962:	5d                   	pop    %rbp
  407963:	c3                   	retq   

0000000000407964 <_ZN11arm_compute9IFunctionD1Ev>:
  407964:	55                   	push   %rbp
  407965:	48 89 e5             	mov    %rsp,%rbp
  407968:	48 89 7d f8          	mov    %rdi,-0x8(%rbp)
  40796c:	ba 80 07 41 00       	mov    $0x410780,%edx
  407971:	48 8b 45 f8          	mov    -0x8(%rbp),%rax
  407975:	48 89 10             	mov    %rdx,(%rax)
  407978:	90                   	nop
  407979:	5d                   	pop    %rbp
  40797a:	c3                   	retq   
  40797b:	90                   	nop

000000000040797c <_ZN11arm_compute9IFunctionD0Ev>:
  40797c:	55                   	push   %rbp
  40797d:	48 89 e5             	mov    %rsp,%rbp
  407980:	48 83 ec 10          	sub    $0x10,%rsp
  407984:	48 89 7d f8          	mov    %rdi,-0x8(%rbp)
  407988:	48 8b 45 f8          	mov    -0x8(%rbp),%rax
  40798c:	48 89 c7             	mov    %rax,%rdi
  40798f:	e8 d0 ff ff ff       	callq  407964 <_ZN11arm_compute9IFunctionD1Ev>
  407994:	48 8b 45 f8          	mov    -0x8(%rbp),%rax
  407998:	48 89 c7             	mov    %rax,%rdi
  40799b:	e8 30 c5 ff ff       	callq  403ed0 <_ZdlPv@plt>
  4079a0:	c9                   	leaveq 
  4079a1:	c3                   	retq   

00000000004079a2 <_ZN11arm_compute17ICLSimpleFunctionD1Ev>:
  4079a2:	55                   	push   %rbp
  4079a3:	48 89 e5             	mov    %rsp,%rbp
  4079a6:	48 83 ec 10          	sub    $0x10,%rsp
  4079aa:	48 89 7d f8          	mov    %rdi,-0x8(%rbp)
  4079ae:	ba 58 94 61 00       	mov    $0x619458,%edx
  4079b3:	48 8b 45 f8          	mov    -0x8(%rbp),%rax
  4079b7:	48 89 10             	mov    %rdx,(%rax)
  4079ba:	48 8b 45 f8          	mov    -0x8(%rbp),%rax
  4079be:	48 83 c0 10          	add    $0x10,%rax
  4079c2:	48 89 c7             	mov    %rax,%rdi
  4079c5:	e8 12 50 00 00       	callq  40c9dc <_ZN11arm_compute18CLFillBorderKernelD1Ev>
  4079ca:	48 8b 45 f8          	mov    -0x8(%rbp),%rax
  4079ce:	48 83 c0 08          	add    $0x8,%rax
  4079d2:	48 89 c7             	mov    %rax,%rdi
  4079d5:	e8 92 10 00 00       	callq  408a6c <_ZNSt10unique_ptrIN11arm_compute9ICLKernelESt14default_deleteIS1_EED1Ev>
  4079da:	48 8b 45 f8          	mov    -0x8(%rbp),%rax
  4079de:	48 89 c7             	mov    %rax,%rdi
  4079e1:	e8 7e ff ff ff       	callq  407964 <_ZN11arm_compute9IFunctionD1Ev>
  4079e6:	90                   	nop
  4079e7:	c9                   	leaveq 
  4079e8:	c3                   	retq   
  4079e9:	90                   	nop

00000000004079ea <_ZN11arm_compute17ICLSimpleFunctionD0Ev>:
  4079ea:	55                   	push   %rbp
  4079eb:	48 89 e5             	mov    %rsp,%rbp
  4079ee:	48 83 ec 10          	sub    $0x10,%rsp
  4079f2:	48 89 7d f8          	mov    %rdi,-0x8(%rbp)
  4079f6:	48 8b 45 f8          	mov    -0x8(%rbp),%rax
  4079fa:	48 89 c7             	mov    %rax,%rdi
  4079fd:	e8 a0 ff ff ff       	callq  4079a2 <_ZN11arm_compute17ICLSimpleFunctionD1Ev>
  407a02:	48 8b 45 f8          	mov    -0x8(%rbp),%rax
  407a06:	48 89 c7             	mov    %rax,%rdi
  407a09:	e8 c2 c4 ff ff       	callq  403ed0 <_ZdlPv@plt>
  407a0e:	c9                   	leaveq 
  407a0f:	c3                   	retq   

0000000000407a10 <_ZN11arm_compute14CLReshapeLayerC1Ev>:
  407a10:	55                   	push   %rbp
  407a11:	48 89 e5             	mov    %rsp,%rbp
  407a14:	48 83 ec 10          	sub    $0x10,%rsp
  407a18:	48 89 7d f8          	mov    %rdi,-0x8(%rbp)
  407a1c:	48 8b 45 f8          	mov    -0x8(%rbp),%rax
  407a20:	48 89 c7             	mov    %rax,%rdi
  407a23:	e8 f8 c4 ff ff       	callq  403f20 <_ZN11arm_compute17ICLSimpleFunctionC2Ev@plt>
  407a28:	ba 58 07 41 00       	mov    $0x410758,%edx
  407a2d:	48 8b 45 f8          	mov    -0x8(%rbp),%rax
  407a31:	48 89 10             	mov    %rdx,(%rax)
  407a34:	90                   	nop
  407a35:	c9                   	leaveq 
  407a36:	c3                   	retq   

0000000000407a37 <_ZSt4fillIPmiEvT_S1_RKT0_>:
  407a37:	55                   	push   %rbp
  407a38:	48 89 e5             	mov    %rsp,%rbp
  407a3b:	53                   	push   %rbx
  407a3c:	48 83 ec 28          	sub    $0x28,%rsp
  407a40:	48 89 7d e8          	mov    %rdi,-0x18(%rbp)
  407a44:	48 89 75 e0          	mov    %rsi,-0x20(%rbp)
  407a48:	48 89 55 d8          	mov    %rdx,-0x28(%rbp)
  407a4c:	48 8b 45 e0          	mov    -0x20(%rbp),%rax
  407a50:	48 89 c7             	mov    %rax,%rdi
  407a53:	e8 13 17 00 00       	callq  40916b <_ZSt12__niter_baseIPmET_S1_>
  407a58:	48 89 c3             	mov    %rax,%rbx
  407a5b:	48 8b 45 e8          	mov    -0x18(%rbp),%rax
  407a5f:	48 89 c7             	mov    %rax,%rdi
  407a62:	e8 04 17 00 00       	callq  40916b <_ZSt12__niter_baseIPmET_S1_>
  407a67:	48 89 c1             	mov    %rax,%rcx
  407a6a:	48 8b 45 d8          	mov    -0x28(%rbp),%rax
  407a6e:	48 89 c2             	mov    %rax,%rdx
  407a71:	48 89 de             	mov    %rbx,%rsi
  407a74:	48 89 cf             	mov    %rcx,%rdi
  407a77:	e8 fd 16 00 00       	callq  409179 <_ZSt8__fill_aIPmiEN9__gnu_cxx11__enable_ifIXsrSt11__is_scalarIT0_E7__valueEvE6__typeET_S8_RKS4_>
  407a7c:	90                   	nop
  407a7d:	48 83 c4 28          	add    $0x28,%rsp
  407a81:	5b                   	pop    %rbx
  407a82:	5d                   	pop    %rbp
  407a83:	c3                   	retq   

0000000000407a84 <_ZNKSt6vectorIcSaIcEEixEm>:
  407a84:	55                   	push   %rbp
  407a85:	48 89 e5             	mov    %rsp,%rbp
  407a88:	48 89 7d f8          	mov    %rdi,-0x8(%rbp)
  407a8c:	48 89 75 f0          	mov    %rsi,-0x10(%rbp)
  407a90:	48 8b 45 f8          	mov    -0x8(%rbp),%rax
  407a94:	48 8b 10             	mov    (%rax),%rdx
  407a97:	48 8b 45 f0          	mov    -0x10(%rbp),%rax
  407a9b:	48 01 d0             	add    %rdx,%rax
  407a9e:	5d                   	pop    %rbp
  407a9f:	c3                   	retq   

0000000000407aa0 <_ZZSt9call_onceIRFvvEJEEvRSt9once_flagOT_DpOT0_ENKUlvE_clEv>:
  407aa0:	55                   	push   %rbp
  407aa1:	48 89 e5             	mov    %rsp,%rbp
  407aa4:	48 83 ec 10          	sub    $0x10,%rsp
  407aa8:	48 89 7d f8          	mov    %rdi,-0x8(%rbp)
  407aac:	48 8b 45 f8          	mov    -0x8(%rbp),%rax
  407ab0:	48 8b 00             	mov    (%rax),%rax
  407ab3:	48 89 c7             	mov    %rax,%rdi
  407ab6:	e8 0b 00 00 00       	callq  407ac6 <_ZSt7forwardIRFvvEEOT_RNSt16remove_referenceIS2_E4typeE>
  407abb:	48 89 c7             	mov    %rax,%rdi
  407abe:	e8 f0 16 00 00       	callq  4091b3 <_ZSt8__invokeIRFvvEJEENSt9result_ofIFOT_DpOT0_EE4typeES4_S7_>
  407ac3:	90                   	nop
  407ac4:	c9                   	leaveq 
  407ac5:	c3                   	retq   

0000000000407ac6 <_ZSt7forwardIRFvvEEOT_RNSt16remove_referenceIS2_E4typeE>:
  407ac6:	55                   	push   %rbp
  407ac7:	48 89 e5             	mov    %rsp,%rbp
  407aca:	48 89 7d f8          	mov    %rdi,-0x8(%rbp)
  407ace:	48 8b 45 f8          	mov    -0x8(%rbp),%rax
  407ad2:	5d                   	pop    %rbp
  407ad3:	c3                   	retq   

0000000000407ad4 <_ZZSt9call_onceIRFvvEJEEvRSt9once_flagOT_DpOT0_ENKUlvE0_clEv>:
  407ad4:	55                   	push   %rbp
  407ad5:	48 89 e5             	mov    %rsp,%rbp
  407ad8:	48 83 ec 10          	sub    $0x10,%rsp
  407adc:	48 89 7d f8          	mov    %rdi,-0x8(%rbp)
  407ae0:	48 8b 05 01 15 21 00 	mov    0x211501(%rip),%rax        # 618fe8 <_DYNAMIC+0x220>
  407ae7:	64 48 8b 00          	mov    %fs:(%rax),%rax
  407aeb:	48 89 c7             	mov    %rax,%rdi
  407aee:	e8 ad ff ff ff       	callq  407aa0 <_ZZSt9call_onceIRFvvEJEEvRSt9once_flagOT_DpOT0_ENKUlvE_clEv>
  407af3:	90                   	nop
  407af4:	c9                   	leaveq 
  407af5:	c3                   	retq   

0000000000407af6 <_ZZSt9call_onceIRFvvEJEEvRSt9once_flagOT_DpOT0_ENUlvE0_4_FUNEv>:
  407af6:	55                   	push   %rbp
  407af7:	48 89 e5             	mov    %rsp,%rbp
  407afa:	bf 00 00 00 00       	mov    $0x0,%edi
  407aff:	e8 d0 ff ff ff       	callq  407ad4 <_ZZSt9call_onceIRFvvEJEEvRSt9once_flagOT_DpOT0_ENKUlvE0_clEv>
  407b04:	5d                   	pop    %rbp
  407b05:	c3                   	retq   

0000000000407b06 <_ZZSt9call_onceIRFvvEJEEvRSt9once_flagOT_DpOT0_ENKUlvE0_cvPS0_Ev>:
  407b06:	55                   	push   %rbp
  407b07:	48 89 e5             	mov    %rsp,%rbp
  407b0a:	48 89 7d f8          	mov    %rdi,-0x8(%rbp)
  407b0e:	b8 f6 7a 40 00       	mov    $0x407af6,%eax
  407b13:	5d                   	pop    %rbp
  407b14:	c3                   	retq   

0000000000407b15 <_ZSt9call_onceIRFvvEJEEvRSt9once_flagOT_DpOT0_>:
  407b15:	55                   	push   %rbp
  407b16:	48 89 e5             	mov    %rsp,%rbp
  407b19:	48 83 ec 30          	sub    $0x30,%rsp
  407b1d:	48 89 7d d8          	mov    %rdi,-0x28(%rbp)
  407b21:	48 89 75 d0          	mov    %rsi,-0x30(%rbp)
  407b25:	64 48 8b 04 25 28 00 	mov    %fs:0x28,%rax
  407b2c:	00 00 
  407b2e:	48 89 45 f8          	mov    %rax,-0x8(%rbp)
  407b32:	31 c0                	xor    %eax,%eax
  407b34:	48 8b 45 d0          	mov    -0x30(%rbp),%rax
  407b38:	48 89 45 f0          	mov    %rax,-0x10(%rbp)
  407b3c:	48 8d 45 f0          	lea    -0x10(%rbp),%rax
  407b40:	48 89 c7             	mov    %rax,%rdi
  407b43:	e8 be 16 00 00       	callq  409206 <_ZSt11__addressofIZSt9call_onceIRFvvEJEEvRSt9once_flagOT_DpOT0_EUlvE_EPS5_RS5_>
  407b48:	48 89 c2             	mov    %rax,%rdx
  407b4b:	48 8b 05 96 14 21 00 	mov    0x211496(%rip),%rax        # 618fe8 <_DYNAMIC+0x220>
  407b52:	64 48 89 10          	mov    %rdx,%fs:(%rax)
  407b56:	48 8d 45 eb          	lea    -0x15(%rbp),%rax
  407b5a:	48 89 c7             	mov    %rax,%rdi
  407b5d:	e8 a4 ff ff ff       	callq  407b06 <_ZZSt9call_onceIRFvvEJEEvRSt9once_flagOT_DpOT0_ENKUlvE0_cvPS0_Ev>
  407b62:	48 89 c2             	mov    %rax,%rdx
  407b65:	48 8b 05 84 14 21 00 	mov    0x211484(%rip),%rax        # 618ff0 <_DYNAMIC+0x228>
  407b6c:	64 48 89 10          	mov    %rdx,%fs:(%rax)
  407b70:	48 8b 45 d8          	mov    -0x28(%rbp),%rax
  407b74:	be 00 41 40 00       	mov    $0x404100,%esi
  407b79:	48 89 c7             	mov    %rax,%rdi
  407b7c:	e8 e2 c7 ff ff       	callq  404363 <_ZL14__gthread_oncePiPFvvE>
  407b81:	89 45 ec             	mov    %eax,-0x14(%rbp)
  407b84:	83 7d ec 00          	cmpl   $0x0,-0x14(%rbp)
  407b88:	74 0a                	je     407b94 <_ZSt9call_onceIRFvvEJEEvRSt9once_flagOT_DpOT0_+0x7f>
  407b8a:	8b 45 ec             	mov    -0x14(%rbp),%eax
  407b8d:	89 c7                	mov    %eax,%edi
  407b8f:	e8 0c c3 ff ff       	callq  403ea0 <_ZSt20__throw_system_errori@plt>
  407b94:	90                   	nop
  407b95:	48 8b 45 f8          	mov    -0x8(%rbp),%rax
  407b99:	64 48 33 04 25 28 00 	xor    %fs:0x28,%rax
  407ba0:	00 00 
  407ba2:	74 05                	je     407ba9 <_ZSt9call_onceIRFvvEJEEvRSt9once_flagOT_DpOT0_+0x94>
  407ba4:	e8 87 c3 ff ff       	callq  403f30 <__stack_chk_fail@plt>
  407ba9:	c9                   	leaveq 
  407baa:	c3                   	retq   
  407bab:	90                   	nop

0000000000407bac <_ZNSaIP15_cl_platform_idEC1Ev>:
  407bac:	55                   	push   %rbp
  407bad:	48 89 e5             	mov    %rsp,%rbp
  407bb0:	48 83 ec 10          	sub    $0x10,%rsp
  407bb4:	48 89 7d f8          	mov    %rdi,-0x8(%rbp)
  407bb8:	48 8b 45 f8          	mov    -0x8(%rbp),%rax
  407bbc:	48 89 c7             	mov    %rax,%rdi
  407bbf:	e8 50 16 00 00       	callq  409214 <_ZN9__gnu_cxx13new_allocatorIP15_cl_platform_idEC1Ev>
  407bc4:	90                   	nop
  407bc5:	c9                   	leaveq 
  407bc6:	c3                   	retq   
  407bc7:	90                   	nop

0000000000407bc8 <_ZNSaIP15_cl_platform_idED1Ev>:
  407bc8:	55                   	push   %rbp
  407bc9:	48 89 e5             	mov    %rsp,%rbp
  407bcc:	48 83 ec 10          	sub    $0x10,%rsp
  407bd0:	48 89 7d f8          	mov    %rdi,-0x8(%rbp)
  407bd4:	48 8b 45 f8          	mov    -0x8(%rbp),%rax
  407bd8:	48 89 c7             	mov    %rax,%rdi
  407bdb:	e8 40 16 00 00       	callq  409220 <_ZN9__gnu_cxx13new_allocatorIP15_cl_platform_idED1Ev>
  407be0:	90                   	nop
  407be1:	c9                   	leaveq 
  407be2:	c3                   	retq   
  407be3:	90                   	nop

0000000000407be4 <_ZNSt6vectorIP15_cl_platform_idSaIS1_EEC1EmRKS2_>:
  407be4:	55                   	push   %rbp
  407be5:	48 89 e5             	mov    %rsp,%rbp
  407be8:	53                   	push   %rbx
  407be9:	48 83 ec 28          	sub    $0x28,%rsp
  407bed:	48 89 7d e8          	mov    %rdi,-0x18(%rbp)
  407bf1:	48 89 75 e0          	mov    %rsi,-0x20(%rbp)
  407bf5:	48 89 55 d8          	mov    %rdx,-0x28(%rbp)
  407bf9:	48 8b 45 e8          	mov    -0x18(%rbp),%rax
  407bfd:	48 8b 55 d8          	mov    -0x28(%rbp),%rdx
  407c01:	48 8b 4d e0          	mov    -0x20(%rbp),%rcx
  407c05:	48 89 ce             	mov    %rcx,%rsi
  407c08:	48 89 c7             	mov    %rax,%rdi
  407c0b:	e8 38 16 00 00       	callq  409248 <_ZNSt12_Vector_baseIP15_cl_platform_idSaIS1_EEC1EmRKS2_>
  407c10:	48 8b 55 e0          	mov    -0x20(%rbp),%rdx
  407c14:	48 8b 45 e8          	mov    -0x18(%rbp),%rax
  407c18:	48 89 d6             	mov    %rdx,%rsi
  407c1b:	48 89 c7             	mov    %rax,%rdi
  407c1e:	e8 d3 16 00 00       	callq  4092f6 <_ZNSt6vectorIP15_cl_platform_idSaIS1_EE21_M_default_initializeEm>
  407c23:	eb 1a                	jmp    407c3f <_ZNSt6vectorIP15_cl_platform_idSaIS1_EEC1EmRKS2_+0x5b>
  407c25:	48 89 c3             	mov    %rax,%rbx
  407c28:	48 8b 45 e8          	mov    -0x18(%rbp),%rax
  407c2c:	48 89 c7             	mov    %rax,%rdi
  407c2f:	e8 72 16 00 00       	callq  4092a6 <_ZNSt12_Vector_baseIP15_cl_platform_idSaIS1_EED1Ev>
  407c34:	48 89 d8             	mov    %rbx,%rax
  407c37:	48 89 c7             	mov    %rax,%rdi
  407c3a:	e8 51 c5 ff ff       	callq  404190 <_Unwind_Resume@plt>
  407c3f:	48 83 c4 28          	add    $0x28,%rsp
  407c43:	5b                   	pop    %rbx
  407c44:	5d                   	pop    %rbp
  407c45:	c3                   	retq   

0000000000407c46 <_ZNSt6vectorIP15_cl_platform_idSaIS1_EED1Ev>:
  407c46:	55                   	push   %rbp
  407c47:	48 89 e5             	mov    %rsp,%rbp
  407c4a:	48 83 ec 10          	sub    $0x10,%rsp
  407c4e:	48 89 7d f8          	mov    %rdi,-0x8(%rbp)
  407c52:	48 8b 45 f8          	mov    -0x8(%rbp),%rax
  407c56:	48 89 c7             	mov    %rax,%rdi
  407c59:	e8 dc 16 00 00       	callq  40933a <_ZNSt12_Vector_baseIP15_cl_platform_idSaIS1_EE19_M_get_Tp_allocatorEv>
  407c5e:	48 89 c2             	mov    %rax,%rdx
  407c61:	48 8b 45 f8          	mov    -0x8(%rbp),%rax
  407c65:	48 8b 48 08          	mov    0x8(%rax),%rcx
  407c69:	48 8b 45 f8          	mov    -0x8(%rbp),%rax
  407c6d:	48 8b 00             	mov    (%rax),%rax
  407c70:	48 89 ce             	mov    %rcx,%rsi
  407c73:	48 89 c7             	mov    %rax,%rdi
  407c76:	e8 cd 16 00 00       	callq  409348 <_ZSt8_DestroyIPP15_cl_platform_idS1_EvT_S3_RSaIT0_E>
  407c7b:	48 8b 45 f8          	mov    -0x8(%rbp),%rax
  407c7f:	48 89 c7             	mov    %rax,%rdi
  407c82:	e8 1f 16 00 00       	callq  4092a6 <_ZNSt12_Vector_baseIP15_cl_platform_idSaIS1_EED1Ev>
  407c87:	90                   	nop
  407c88:	c9                   	leaveq 
  407c89:	c3                   	retq   

0000000000407c8a <_ZNSt6vectorIP15_cl_platform_idSaIS1_EE4dataEv>:
  407c8a:	55                   	push   %rbp
  407c8b:	48 89 e5             	mov    %rsp,%rbp
  407c8e:	48 83 ec 10          	sub    $0x10,%rsp
  407c92:	48 89 7d f8          	mov    %rdi,-0x8(%rbp)
  407c96:	48 8b 45 f8          	mov    -0x8(%rbp),%rax
  407c9a:	48 8b 10             	mov    (%rax),%rdx
  407c9d:	48 8b 45 f8          	mov    -0x8(%rbp),%rax
  407ca1:	48 89 d6             	mov    %rdx,%rsi
  407ca4:	48 89 c7             	mov    %rax,%rdi
  407ca7:	e8 c6 16 00 00       	callq  409372 <_ZNKSt6vectorIP15_cl_platform_idSaIS1_EE11_M_data_ptrIS1_EEPT_S6_>
  407cac:	c9                   	leaveq 
  407cad:	c3                   	retq   

0000000000407cae <_ZNSt6vectorIP15_cl_platform_idSaIS1_EEixEm>:
  407cae:	55                   	push   %rbp
  407caf:	48 89 e5             	mov    %rsp,%rbp
  407cb2:	48 89 7d f8          	mov    %rdi,-0x8(%rbp)
  407cb6:	48 89 75 f0          	mov    %rsi,-0x10(%rbp)
  407cba:	48 8b 45 f8          	mov    -0x8(%rbp),%rax
  407cbe:	48 8b 00             	mov    (%rax),%rax
  407cc1:	48 8b 55 f0          	mov    -0x10(%rbp),%rdx
  407cc5:	48 c1 e2 03          	shl    $0x3,%rdx
  407cc9:	48 01 d0             	add    %rdx,%rax
  407ccc:	5d                   	pop    %rbp
  407ccd:	c3                   	retq   

0000000000407cce <_ZN2cl6detail7WrapperIP15_cl_platform_idED1Ev>:
  407cce:	55                   	push   %rbp
  407ccf:	48 89 e5             	mov    %rsp,%rbp
  407cd2:	48 83 ec 10          	sub    $0x10,%rsp
  407cd6:	48 89 7d f8          	mov    %rdi,-0x8(%rbp)
  407cda:	48 8b 45 f8          	mov    -0x8(%rbp),%rax
  407cde:	48 8b 00             	mov    (%rax),%rax
  407ce1:	48 85 c0             	test   %rax,%rax
  407ce4:	74 0c                	je     407cf2 <_ZN2cl6detail7WrapperIP15_cl_platform_idED1Ev+0x24>
  407ce6:	48 8b 45 f8          	mov    -0x8(%rbp),%rax
  407cea:	48 89 c7             	mov    %rax,%rdi
  407ced:	e8 92 16 00 00       	callq  409384 <_ZNK2cl6detail7WrapperIP15_cl_platform_idE7releaseEv>
  407cf2:	90                   	nop
  407cf3:	c9                   	leaveq 
  407cf4:	c3                   	retq   
  407cf5:	90                   	nop

0000000000407cf6 <_ZN2cl6detail7WrapperIP15_cl_platform_idEaSEOS4_>:
  407cf6:	55                   	push   %rbp
  407cf7:	48 89 e5             	mov    %rsp,%rbp
  407cfa:	48 83 ec 10          	sub    $0x10,%rsp
  407cfe:	48 89 7d f8          	mov    %rdi,-0x8(%rbp)
  407d02:	48 89 75 f0          	mov    %rsi,-0x10(%rbp)
  407d06:	48 8b 45 f8          	mov    -0x8(%rbp),%rax
  407d0a:	48 3b 45 f0          	cmp    -0x10(%rbp),%rax
  407d0e:	74 31                	je     407d41 <_ZN2cl6detail7WrapperIP15_cl_platform_idEaSEOS4_+0x4b>
  407d10:	48 8b 45 f8          	mov    -0x8(%rbp),%rax
  407d14:	48 89 c7             	mov    %rax,%rdi
  407d17:	e8 68 16 00 00       	callq  409384 <_ZNK2cl6detail7WrapperIP15_cl_platform_idE7releaseEv>
  407d1c:	be b1 03 41 00       	mov    $0x4103b1,%esi
  407d21:	89 c7                	mov    %eax,%edi
  407d23:	e8 75 c6 ff ff       	callq  40439d <_ZN2cl6detailL10errHandlerEiPKc>
  407d28:	48 8b 45 f0          	mov    -0x10(%rbp),%rax
  407d2c:	48 8b 10             	mov    (%rax),%rdx
  407d2f:	48 8b 45 f8          	mov    -0x8(%rbp),%rax
  407d33:	48 89 10             	mov    %rdx,(%rax)
  407d36:	48 8b 45 f0          	mov    -0x10(%rbp),%rax
  407d3a:	48 c7 00 00 00 00 00 	movq   $0x0,(%rax)
  407d41:	48 8b 45 f8          	mov    -0x8(%rbp),%rax
  407d45:	c9                   	leaveq 
  407d46:	c3                   	retq   
  407d47:	90                   	nop

0000000000407d48 <_ZN2cl6detail7WrapperIP15_cl_platform_idEC1Ev>:
  407d48:	55                   	push   %rbp
  407d49:	48 89 e5             	mov    %rsp,%rbp
  407d4c:	48 89 7d f8          	mov    %rdi,-0x8(%rbp)
  407d50:	48 8b 45 f8          	mov    -0x8(%rbp),%rax
  407d54:	48 c7 00 00 00 00 00 	movq   $0x0,(%rax)
  407d5b:	90                   	nop
  407d5c:	5d                   	pop    %rbp
  407d5d:	c3                   	retq   

0000000000407d5e <_ZN2cl6detail7WrapperIP15_cl_platform_idEC1ERKS3_b>:
  407d5e:	55                   	push   %rbp
  407d5f:	48 89 e5             	mov    %rsp,%rbp
  407d62:	48 83 ec 20          	sub    $0x20,%rsp
  407d66:	48 89 7d f8          	mov    %rdi,-0x8(%rbp)
  407d6a:	48 89 75 f0          	mov    %rsi,-0x10(%rbp)
  407d6e:	89 d0                	mov    %edx,%eax
  407d70:	88 45 ec             	mov    %al,-0x14(%rbp)
  407d73:	48 8b 45 f0          	mov    -0x10(%rbp),%rax
  407d77:	48 8b 10             	mov    (%rax),%rdx
  407d7a:	48 8b 45 f8          	mov    -0x8(%rbp),%rax
  407d7e:	48 89 10             	mov    %rdx,(%rax)
  407d81:	80 7d ec 00          	cmpb   $0x0,-0x14(%rbp)
  407d85:	74 18                	je     407d9f <_ZN2cl6detail7WrapperIP15_cl_platform_idEC1ERKS3_b+0x41>
  407d87:	48 8b 45 f8          	mov    -0x8(%rbp),%rax
  407d8b:	48 89 c7             	mov    %rax,%rdi
  407d8e:	e8 21 16 00 00       	callq  4093b4 <_ZNK2cl6detail7WrapperIP15_cl_platform_idE6retainEv>
  407d93:	be a3 03 41 00       	mov    $0x4103a3,%esi
  407d98:	89 c7                	mov    %eax,%edi
  407d9a:	e8 fe c5 ff ff       	callq  40439d <_ZN2cl6detailL10errHandlerEiPKc>
  407d9f:	90                   	nop
  407da0:	c9                   	leaveq 
  407da1:	c3                   	retq   

0000000000407da2 <_ZN2cl6detail7WrapperIP15_cl_platform_idEC1ERKS4_>:
  407da2:	55                   	push   %rbp
  407da3:	48 89 e5             	mov    %rsp,%rbp
  407da6:	48 83 ec 10          	sub    $0x10,%rsp
  407daa:	48 89 7d f8          	mov    %rdi,-0x8(%rbp)
  407dae:	48 89 75 f0          	mov    %rsi,-0x10(%rbp)
  407db2:	48 8b 45 f0          	mov    -0x10(%rbp),%rax
  407db6:	48 8b 10             	mov    (%rax),%rdx
  407db9:	48 8b 45 f8          	mov    -0x8(%rbp),%rax
  407dbd:	48 89 10             	mov    %rdx,(%rax)
  407dc0:	48 8b 45 f8          	mov    -0x8(%rbp),%rax
  407dc4:	48 89 c7             	mov    %rax,%rdi
  407dc7:	e8 e8 15 00 00       	callq  4093b4 <_ZNK2cl6detail7WrapperIP15_cl_platform_idE6retainEv>
  407dcc:	be a3 03 41 00       	mov    $0x4103a3,%esi
  407dd1:	89 c7                	mov    %eax,%edi
  407dd3:	e8 c5 c5 ff ff       	callq  40439d <_ZN2cl6detailL10errHandlerEiPKc>
  407dd8:	90                   	nop
  407dd9:	c9                   	leaveq 
  407dda:	c3                   	retq   
  407ddb:	90                   	nop

0000000000407ddc <_ZNSaIP13_cl_device_idEC1Ev>:
  407ddc:	55                   	push   %rbp
  407ddd:	48 89 e5             	mov    %rsp,%rbp
  407de0:	48 83 ec 10          	sub    $0x10,%rsp
  407de4:	48 89 7d f8          	mov    %rdi,-0x8(%rbp)
  407de8:	48 8b 45 f8          	mov    -0x8(%rbp),%rax
  407dec:	48 89 c7             	mov    %rax,%rdi
  407def:	e8 f0 15 00 00       	callq  4093e4 <_ZN9__gnu_cxx13new_allocatorIP13_cl_device_idEC1Ev>
  407df4:	90                   	nop
  407df5:	c9                   	leaveq 
  407df6:	c3                   	retq   
  407df7:	90                   	nop

0000000000407df8 <_ZNSaIP13_cl_device_idED1Ev>:
  407df8:	55                   	push   %rbp
  407df9:	48 89 e5             	mov    %rsp,%rbp
  407dfc:	48 83 ec 10          	sub    $0x10,%rsp
  407e00:	48 89 7d f8          	mov    %rdi,-0x8(%rbp)
  407e04:	48 8b 45 f8          	mov    -0x8(%rbp),%rax
  407e08:	48 89 c7             	mov    %rax,%rdi
  407e0b:	e8 e0 15 00 00       	callq  4093f0 <_ZN9__gnu_cxx13new_allocatorIP13_cl_device_idED1Ev>
  407e10:	90                   	nop
  407e11:	c9                   	leaveq 
  407e12:	c3                   	retq   
  407e13:	90                   	nop

0000000000407e14 <_ZNSt6vectorIP13_cl_device_idSaIS1_EEC1EmRKS2_>:
  407e14:	55                   	push   %rbp
  407e15:	48 89 e5             	mov    %rsp,%rbp
  407e18:	53                   	push   %rbx
  407e19:	48 83 ec 28          	sub    $0x28,%rsp
  407e1d:	48 89 7d e8          	mov    %rdi,-0x18(%rbp)
  407e21:	48 89 75 e0          	mov    %rsi,-0x20(%rbp)
  407e25:	48 89 55 d8          	mov    %rdx,-0x28(%rbp)
  407e29:	48 8b 45 e8          	mov    -0x18(%rbp),%rax
  407e2d:	48 8b 55 d8          	mov    -0x28(%rbp),%rdx
  407e31:	48 8b 4d e0          	mov    -0x20(%rbp),%rcx
  407e35:	48 89 ce             	mov    %rcx,%rsi
  407e38:	48 89 c7             	mov    %rax,%rdi
  407e3b:	e8 d8 15 00 00       	callq  409418 <_ZNSt12_Vector_baseIP13_cl_device_idSaIS1_EEC1EmRKS2_>
  407e40:	48 8b 55 e0          	mov    -0x20(%rbp),%rdx
  407e44:	48 8b 45 e8          	mov    -0x18(%rbp),%rax
  407e48:	48 89 d6             	mov    %rdx,%rsi
  407e4b:	48 89 c7             	mov    %rax,%rdi
  407e4e:	e8 73 16 00 00       	callq  4094c6 <_ZNSt6vectorIP13_cl_device_idSaIS1_EE21_M_default_initializeEm>
  407e53:	eb 1a                	jmp    407e6f <_ZNSt6vectorIP13_cl_device_idSaIS1_EEC1EmRKS2_+0x5b>
  407e55:	48 89 c3             	mov    %rax,%rbx
  407e58:	48 8b 45 e8          	mov    -0x18(%rbp),%rax
  407e5c:	48 89 c7             	mov    %rax,%rdi
  407e5f:	e8 12 16 00 00       	callq  409476 <_ZNSt12_Vector_baseIP13_cl_device_idSaIS1_EED1Ev>
  407e64:	48 89 d8             	mov    %rbx,%rax
  407e67:	48 89 c7             	mov    %rax,%rdi
  407e6a:	e8 21 c3 ff ff       	callq  404190 <_Unwind_Resume@plt>
  407e6f:	48 83 c4 28          	add    $0x28,%rsp
  407e73:	5b                   	pop    %rbx
  407e74:	5d                   	pop    %rbp
  407e75:	c3                   	retq   

0000000000407e76 <_ZNSt6vectorIP13_cl_device_idSaIS1_EED1Ev>:
  407e76:	55                   	push   %rbp
  407e77:	48 89 e5             	mov    %rsp,%rbp
  407e7a:	48 83 ec 10          	sub    $0x10,%rsp
  407e7e:	48 89 7d f8          	mov    %rdi,-0x8(%rbp)
  407e82:	48 8b 45 f8          	mov    -0x8(%rbp),%rax
  407e86:	48 89 c7             	mov    %rax,%rdi
  407e89:	e8 7c 16 00 00       	callq  40950a <_ZNSt12_Vector_baseIP13_cl_device_idSaIS1_EE19_M_get_Tp_allocatorEv>
  407e8e:	48 89 c2             	mov    %rax,%rdx
  407e91:	48 8b 45 f8          	mov    -0x8(%rbp),%rax
  407e95:	48 8b 48 08          	mov    0x8(%rax),%rcx
  407e99:	48 8b 45 f8          	mov    -0x8(%rbp),%rax
  407e9d:	48 8b 00             	mov    (%rax),%rax
  407ea0:	48 89 ce             	mov    %rcx,%rsi
  407ea3:	48 89 c7             	mov    %rax,%rdi
  407ea6:	e8 6d 16 00 00       	callq  409518 <_ZSt8_DestroyIPP13_cl_device_idS1_EvT_S3_RSaIT0_E>
  407eab:	48 8b 45 f8          	mov    -0x8(%rbp),%rax
  407eaf:	48 89 c7             	mov    %rax,%rdi
  407eb2:	e8 bf 15 00 00       	callq  409476 <_ZNSt12_Vector_baseIP13_cl_device_idSaIS1_EED1Ev>
  407eb7:	90                   	nop
  407eb8:	c9                   	leaveq 
  407eb9:	c3                   	retq   

0000000000407eba <_ZNSt6vectorIP13_cl_device_idSaIS1_EE4dataEv>:
  407eba:	55                   	push   %rbp
  407ebb:	48 89 e5             	mov    %rsp,%rbp
  407ebe:	48 83 ec 10          	sub    $0x10,%rsp
  407ec2:	48 89 7d f8          	mov    %rdi,-0x8(%rbp)
  407ec6:	48 8b 45 f8          	mov    -0x8(%rbp),%rax
  407eca:	48 8b 10             	mov    (%rax),%rdx
  407ecd:	48 8b 45 f8          	mov    -0x8(%rbp),%rax
  407ed1:	48 89 d6             	mov    %rdx,%rsi
  407ed4:	48 89 c7             	mov    %rax,%rdi
  407ed7:	e8 66 16 00 00       	callq  409542 <_ZNKSt6vectorIP13_cl_device_idSaIS1_EE11_M_data_ptrIS1_EEPT_S6_>
  407edc:	c9                   	leaveq 
  407edd:	c3                   	retq   

0000000000407ede <_ZNKSt6vectorIP13_cl_device_idSaIS1_EE4sizeEv>:
  407ede:	55                   	push   %rbp
  407edf:	48 89 e5             	mov    %rsp,%rbp
  407ee2:	48 89 7d f8          	mov    %rdi,-0x8(%rbp)
  407ee6:	48 8b 45 f8          	mov    -0x8(%rbp),%rax
  407eea:	48 8b 40 08          	mov    0x8(%rax),%rax
  407eee:	48 89 c2             	mov    %rax,%rdx
  407ef1:	48 8b 45 f8          	mov    -0x8(%rbp),%rax
  407ef5:	48 8b 00             	mov    (%rax),%rax
  407ef8:	48 29 c2             	sub    %rax,%rdx
  407efb:	48 89 d0             	mov    %rdx,%rax
  407efe:	48 c1 f8 03          	sar    $0x3,%rax
  407f02:	5d                   	pop    %rbp
  407f03:	c3                   	retq   

0000000000407f04 <_ZNSt6vectorIN2cl6DeviceESaIS1_EE6resizeEm>:
  407f04:	55                   	push   %rbp
  407f05:	48 89 e5             	mov    %rsp,%rbp
  407f08:	48 83 ec 10          	sub    $0x10,%rsp
  407f0c:	48 89 7d f8          	mov    %rdi,-0x8(%rbp)
  407f10:	48 89 75 f0          	mov    %rsi,-0x10(%rbp)
  407f14:	48 8b 45 f8          	mov    -0x8(%rbp),%rax
  407f18:	48 89 c7             	mov    %rax,%rdi
  407f1b:	e8 f6 01 00 00       	callq  408116 <_ZNKSt6vectorIN2cl6DeviceESaIS1_EE4sizeEv>
  407f20:	48 3b 45 f0          	cmp    -0x10(%rbp),%rax
  407f24:	0f 92 c0             	setb   %al
  407f27:	84 c0                	test   %al,%al
  407f29:	74 2a                	je     407f55 <_ZNSt6vectorIN2cl6DeviceESaIS1_EE6resizeEm+0x51>
  407f2b:	48 8b 45 f8          	mov    -0x8(%rbp),%rax
  407f2f:	48 89 c7             	mov    %rax,%rdi
  407f32:	e8 df 01 00 00       	callq  408116 <_ZNKSt6vectorIN2cl6DeviceESaIS1_EE4sizeEv>
  407f37:	48 89 c2             	mov    %rax,%rdx
  407f3a:	48 8b 45 f0          	mov    -0x10(%rbp),%rax
  407f3e:	48 29 d0             	sub    %rdx,%rax
  407f41:	48 89 c2             	mov    %rax,%rdx
  407f44:	48 8b 45 f8          	mov    -0x8(%rbp),%rax
  407f48:	48 89 d6             	mov    %rdx,%rsi
  407f4b:	48 89 c7             	mov    %rax,%rdi
  407f4e:	e8 01 16 00 00       	callq  409554 <_ZNSt6vectorIN2cl6DeviceESaIS1_EE17_M_default_appendEm>
  407f53:	eb 38                	jmp    407f8d <_ZNSt6vectorIN2cl6DeviceESaIS1_EE6resizeEm+0x89>
  407f55:	48 8b 45 f8          	mov    -0x8(%rbp),%rax
  407f59:	48 89 c7             	mov    %rax,%rdi
  407f5c:	e8 b5 01 00 00       	callq  408116 <_ZNKSt6vectorIN2cl6DeviceESaIS1_EE4sizeEv>
  407f61:	48 3b 45 f0          	cmp    -0x10(%rbp),%rax
  407f65:	0f 97 c0             	seta   %al
  407f68:	84 c0                	test   %al,%al
  407f6a:	74 21                	je     407f8d <_ZNSt6vectorIN2cl6DeviceESaIS1_EE6resizeEm+0x89>
  407f6c:	48 8b 45 f8          	mov    -0x8(%rbp),%rax
  407f70:	48 8b 00             	mov    (%rax),%rax
  407f73:	48 8b 55 f0          	mov    -0x10(%rbp),%rdx
  407f77:	48 c1 e2 04          	shl    $0x4,%rdx
  407f7b:	48 01 c2             	add    %rax,%rdx
  407f7e:	48 8b 45 f8          	mov    -0x8(%rbp),%rax
  407f82:	48 89 d6             	mov    %rdx,%rsi
  407f85:	48 89 c7             	mov    %rax,%rdi
  407f88:	e8 cd 17 00 00       	callq  40975a <_ZNSt6vectorIN2cl6DeviceESaIS1_EE15_M_erase_at_endEPS1_>
  407f8d:	90                   	nop
  407f8e:	c9                   	leaveq 
  407f8f:	c3                   	retq   

0000000000407f90 <_ZNSt6vectorIN2cl6DeviceESaIS1_EEixEm>:
  407f90:	55                   	push   %rbp
  407f91:	48 89 e5             	mov    %rsp,%rbp
  407f94:	48 89 7d f8          	mov    %rdi,-0x8(%rbp)
  407f98:	48 89 75 f0          	mov    %rsi,-0x10(%rbp)
  407f9c:	48 8b 45 f8          	mov    -0x8(%rbp),%rax
  407fa0:	48 8b 00             	mov    (%rax),%rax
  407fa3:	48 8b 55 f0          	mov    -0x10(%rbp),%rdx
  407fa7:	48 c1 e2 04          	shl    $0x4,%rdx
  407fab:	48 01 d0             	add    %rdx,%rax
  407fae:	5d                   	pop    %rbp
  407faf:	c3                   	retq   

0000000000407fb0 <_ZNSt6vectorIP13_cl_device_idSaIS1_EEixEm>:
  407fb0:	55                   	push   %rbp
  407fb1:	48 89 e5             	mov    %rsp,%rbp
  407fb4:	48 89 7d f8          	mov    %rdi,-0x8(%rbp)
  407fb8:	48 89 75 f0          	mov    %rsi,-0x10(%rbp)
  407fbc:	48 8b 45 f8          	mov    -0x8(%rbp),%rax
  407fc0:	48 8b 00             	mov    (%rax),%rax
  407fc3:	48 8b 55 f0          	mov    -0x10(%rbp),%rdx
  407fc7:	48 c1 e2 03          	shl    $0x3,%rdx
  407fcb:	48 01 d0             	add    %rdx,%rax
  407fce:	5d                   	pop    %rbp
  407fcf:	c3                   	retq   

0000000000407fd0 <_ZNKSt6vectorIP15_cl_platform_idSaIS1_EE4sizeEv>:
  407fd0:	55                   	push   %rbp
  407fd1:	48 89 e5             	mov    %rsp,%rbp
  407fd4:	48 89 7d f8          	mov    %rdi,-0x8(%rbp)
  407fd8:	48 8b 45 f8          	mov    -0x8(%rbp),%rax
  407fdc:	48 8b 40 08          	mov    0x8(%rax),%rax
  407fe0:	48 89 c2             	mov    %rax,%rdx
  407fe3:	48 8b 45 f8          	mov    -0x8(%rbp),%rax
  407fe7:	48 8b 00             	mov    (%rax),%rax
  407fea:	48 29 c2             	sub    %rax,%rdx
  407fed:	48 89 d0             	mov    %rdx,%rax
  407ff0:	48 c1 f8 03          	sar    $0x3,%rax
  407ff4:	5d                   	pop    %rbp
  407ff5:	c3                   	retq   

0000000000407ff6 <_ZNSt6vectorIN2cl8PlatformESaIS1_EE6resizeEm>:
  407ff6:	55                   	push   %rbp
  407ff7:	48 89 e5             	mov    %rsp,%rbp
  407ffa:	48 83 ec 10          	sub    $0x10,%rsp
  407ffe:	48 89 7d f8          	mov    %rdi,-0x8(%rbp)
  408002:	48 89 75 f0          	mov    %rsi,-0x10(%rbp)
  408006:	48 8b 45 f8          	mov    -0x8(%rbp),%rax
  40800a:	48 89 c7             	mov    %rax,%rdi
  40800d:	e8 8a 01 00 00       	callq  40819c <_ZNKSt6vectorIN2cl8PlatformESaIS1_EE4sizeEv>
  408012:	48 3b 45 f0          	cmp    -0x10(%rbp),%rax
  408016:	0f 92 c0             	setb   %al
  408019:	84 c0                	test   %al,%al
  40801b:	74 2a                	je     408047 <_ZNSt6vectorIN2cl8PlatformESaIS1_EE6resizeEm+0x51>
  40801d:	48 8b 45 f8          	mov    -0x8(%rbp),%rax
  408021:	48 89 c7             	mov    %rax,%rdi
  408024:	e8 73 01 00 00       	callq  40819c <_ZNKSt6vectorIN2cl8PlatformESaIS1_EE4sizeEv>
  408029:	48 89 c2             	mov    %rax,%rdx
  40802c:	48 8b 45 f0          	mov    -0x10(%rbp),%rax
  408030:	48 29 d0             	sub    %rdx,%rax
  408033:	48 89 c2             	mov    %rax,%rdx
  408036:	48 8b 45 f8          	mov    -0x8(%rbp),%rax
  40803a:	48 89 d6             	mov    %rdx,%rsi
  40803d:	48 89 c7             	mov    %rax,%rdi
  408040:	e8 5b 17 00 00       	callq  4097a0 <_ZNSt6vectorIN2cl8PlatformESaIS1_EE17_M_default_appendEm>
  408045:	eb 38                	jmp    40807f <_ZNSt6vectorIN2cl8PlatformESaIS1_EE6resizeEm+0x89>
  408047:	48 8b 45 f8          	mov    -0x8(%rbp),%rax
  40804b:	48 89 c7             	mov    %rax,%rdi
  40804e:	e8 49 01 00 00       	callq  40819c <_ZNKSt6vectorIN2cl8PlatformESaIS1_EE4sizeEv>
  408053:	48 3b 45 f0          	cmp    -0x10(%rbp),%rax
  408057:	0f 97 c0             	seta   %al
  40805a:	84 c0                	test   %al,%al
  40805c:	74 21                	je     40807f <_ZNSt6vectorIN2cl8PlatformESaIS1_EE6resizeEm+0x89>
  40805e:	48 8b 45 f8          	mov    -0x8(%rbp),%rax
  408062:	48 8b 00             	mov    (%rax),%rax
  408065:	48 8b 55 f0          	mov    -0x10(%rbp),%rdx
  408069:	48 c1 e2 03          	shl    $0x3,%rdx
  40806d:	48 01 c2             	add    %rax,%rdx
  408070:	48 8b 45 f8          	mov    -0x8(%rbp),%rax
  408074:	48 89 d6             	mov    %rdx,%rsi
  408077:	48 89 c7             	mov    %rax,%rdi
  40807a:	e8 29 19 00 00       	callq  4099a8 <_ZNSt6vectorIN2cl8PlatformESaIS1_EE15_M_erase_at_endEPS1_>
  40807f:	90                   	nop
  408080:	c9                   	leaveq 
  408081:	c3                   	retq   

0000000000408082 <_ZNSt6vectorIN2cl8PlatformESaIS1_EEixEm>:
  408082:	55                   	push   %rbp
  408083:	48 89 e5             	mov    %rsp,%rbp
  408086:	48 89 7d f8          	mov    %rdi,-0x8(%rbp)
  40808a:	48 89 75 f0          	mov    %rsi,-0x10(%rbp)
  40808e:	48 8b 45 f8          	mov    -0x8(%rbp),%rax
  408092:	48 8b 00             	mov    (%rax),%rax
  408095:	48 8b 55 f0          	mov    -0x10(%rbp),%rdx
  408099:	48 c1 e2 03          	shl    $0x3,%rdx
  40809d:	48 01 d0             	add    %rdx,%rax
  4080a0:	5d                   	pop    %rbp
  4080a1:	c3                   	retq   

00000000004080a2 <_ZN2cl6detail7WrapperIP15_cl_platform_idEC1EOS4_>:
  4080a2:	55                   	push   %rbp
  4080a3:	48 89 e5             	mov    %rsp,%rbp
  4080a6:	48 89 7d f8          	mov    %rdi,-0x8(%rbp)
  4080aa:	48 89 75 f0          	mov    %rsi,-0x10(%rbp)
  4080ae:	48 8b 45 f0          	mov    -0x10(%rbp),%rax
  4080b2:	48 8b 10             	mov    (%rax),%rdx
  4080b5:	48 8b 45 f8          	mov    -0x8(%rbp),%rax
  4080b9:	48 89 10             	mov    %rdx,(%rax)
  4080bc:	48 8b 45 f0          	mov    -0x10(%rbp),%rax
  4080c0:	48 c7 00 00 00 00 00 	movq   $0x0,(%rax)
  4080c7:	90                   	nop
  4080c8:	5d                   	pop    %rbp
  4080c9:	c3                   	retq   

00000000004080ca <_ZNK2cl6detail7WrapperIP15_cl_platform_idEclEv>:
  4080ca:	55                   	push   %rbp
  4080cb:	48 89 e5             	mov    %rsp,%rbp
  4080ce:	48 89 7d f8          	mov    %rdi,-0x8(%rbp)
  4080d2:	48 8b 45 f8          	mov    -0x8(%rbp),%rax
  4080d6:	5d                   	pop    %rbp
  4080d7:	c3                   	retq   

00000000004080d8 <_ZN2cl6detail7WrapperIP11_cl_contextED1Ev>:
  4080d8:	55                   	push   %rbp
  4080d9:	48 89 e5             	mov    %rsp,%rbp
  4080dc:	48 83 ec 10          	sub    $0x10,%rsp
  4080e0:	48 89 7d f8          	mov    %rdi,-0x8(%rbp)
  4080e4:	48 8b 45 f8          	mov    -0x8(%rbp),%rax
  4080e8:	48 8b 00             	mov    (%rax),%rax
  4080eb:	48 85 c0             	test   %rax,%rax
  4080ee:	74 0c                	je     4080fc <_ZN2cl6detail7WrapperIP11_cl_contextED1Ev+0x24>
  4080f0:	48 8b 45 f8          	mov    -0x8(%rbp),%rax
  4080f4:	48 89 c7             	mov    %rax,%rdi
  4080f7:	e8 f2 18 00 00       	callq  4099ee <_ZNK2cl6detail7WrapperIP11_cl_contextE7releaseEv>
  4080fc:	90                   	nop
  4080fd:	c9                   	leaveq 
  4080fe:	c3                   	retq   
  4080ff:	90                   	nop

0000000000408100 <_ZN2cl6detail7WrapperIP11_cl_contextEC1Ev>:
  408100:	55                   	push   %rbp
  408101:	48 89 e5             	mov    %rsp,%rbp
  408104:	48 89 7d f8          	mov    %rdi,-0x8(%rbp)
  408108:	48 8b 45 f8          	mov    -0x8(%rbp),%rax
  40810c:	48 c7 00 00 00 00 00 	movq   $0x0,(%rax)
  408113:	90                   	nop
  408114:	5d                   	pop    %rbp
  408115:	c3                   	retq   

0000000000408116 <_ZNKSt6vectorIN2cl6DeviceESaIS1_EE4sizeEv>:
  408116:	55                   	push   %rbp
  408117:	48 89 e5             	mov    %rsp,%rbp
  40811a:	48 89 7d f8          	mov    %rdi,-0x8(%rbp)
  40811e:	48 8b 45 f8          	mov    -0x8(%rbp),%rax
  408122:	48 8b 40 08          	mov    0x8(%rax),%rax
  408126:	48 89 c2             	mov    %rax,%rdx
  408129:	48 8b 45 f8          	mov    -0x8(%rbp),%rax
  40812d:	48 8b 00             	mov    (%rax),%rax
  408130:	48 29 c2             	sub    %rax,%rdx
  408133:	48 89 d0             	mov    %rdx,%rax
  408136:	48 c1 f8 04          	sar    $0x4,%rax
  40813a:	5d                   	pop    %rbp
  40813b:	c3                   	retq   

000000000040813c <_ZNSt6vectorIN2cl8PlatformESaIS1_EEC1Ev>:
  40813c:	55                   	push   %rbp
  40813d:	48 89 e5             	mov    %rsp,%rbp
  408140:	48 83 ec 10          	sub    $0x10,%rsp
  408144:	48 89 7d f8          	mov    %rdi,-0x8(%rbp)
  408148:	48 8b 45 f8          	mov    -0x8(%rbp),%rax
  40814c:	48 89 c7             	mov    %rax,%rdi
  40814f:	e8 e6 18 00 00       	callq  409a3a <_ZNSt12_Vector_baseIN2cl8PlatformESaIS1_EEC1Ev>
  408154:	90                   	nop
  408155:	c9                   	leaveq 
  408156:	c3                   	retq   
  408157:	90                   	nop

0000000000408158 <_ZNSt6vectorIN2cl8PlatformESaIS1_EED1Ev>:
  408158:	55                   	push   %rbp
  408159:	48 89 e5             	mov    %rsp,%rbp
  40815c:	48 83 ec 10          	sub    $0x10,%rsp
  408160:	48 89 7d f8          	mov    %rdi,-0x8(%rbp)
  408164:	48 8b 45 f8          	mov    -0x8(%rbp),%rax
  408168:	48 89 c7             	mov    %rax,%rdi
  40816b:	e8 36 19 00 00       	callq  409aa6 <_ZNSt12_Vector_baseIN2cl8PlatformESaIS1_EE19_M_get_Tp_allocatorEv>
  408170:	48 89 c2             	mov    %rax,%rdx
  408173:	48 8b 45 f8          	mov    -0x8(%rbp),%rax
  408177:	48 8b 48 08          	mov    0x8(%rax),%rcx
  40817b:	48 8b 45 f8          	mov    -0x8(%rbp),%rax
  40817f:	48 8b 00             	mov    (%rax),%rax
  408182:	48 89 ce             	mov    %rcx,%rsi
  408185:	48 89 c7             	mov    %rax,%rdi
  408188:	e8 27 19 00 00       	callq  409ab4 <_ZSt8_DestroyIPN2cl8PlatformES1_EvT_S3_RSaIT0_E>
  40818d:	48 8b 45 f8          	mov    -0x8(%rbp),%rax
  408191:	48 89 c7             	mov    %rax,%rdi
  408194:	e8 bd 18 00 00       	callq  409a56 <_ZNSt12_Vector_baseIN2cl8PlatformESaIS1_EED1Ev>
  408199:	90                   	nop
  40819a:	c9                   	leaveq 
  40819b:	c3                   	retq   

000000000040819c <_ZNKSt6vectorIN2cl8PlatformESaIS1_EE4sizeEv>:
  40819c:	55                   	push   %rbp
  40819d:	48 89 e5             	mov    %rsp,%rbp
  4081a0:	48 89 7d f8          	mov    %rdi,-0x8(%rbp)
  4081a4:	48 8b 45 f8          	mov    -0x8(%rbp),%rax
  4081a8:	48 8b 40 08          	mov    0x8(%rax),%rax
  4081ac:	48 89 c2             	mov    %rax,%rdx
  4081af:	48 8b 45 f8          	mov    -0x8(%rbp),%rax
  4081b3:	48 8b 00             	mov    (%rax),%rax
  4081b6:	48 29 c2             	sub    %rax,%rdx
  4081b9:	48 89 d0             	mov    %rdx,%rax
  4081bc:	48 c1 f8 03          	sar    $0x3,%rax
  4081c0:	5d                   	pop    %rbp
  4081c1:	c3                   	retq   

00000000004081c2 <_ZNSt6vectorIN2cl6DeviceESaIS1_EEC1Ev>:
  4081c2:	55                   	push   %rbp
  4081c3:	48 89 e5             	mov    %rsp,%rbp
  4081c6:	48 83 ec 10          	sub    $0x10,%rsp
  4081ca:	48 89 7d f8          	mov    %rdi,-0x8(%rbp)
  4081ce:	48 8b 45 f8          	mov    -0x8(%rbp),%rax
  4081d2:	48 89 c7             	mov    %rax,%rdi
  4081d5:	e8 20 19 00 00       	callq  409afa <_ZNSt12_Vector_baseIN2cl6DeviceESaIS1_EEC1Ev>
  4081da:	90                   	nop
  4081db:	c9                   	leaveq 
  4081dc:	c3                   	retq   
  4081dd:	90                   	nop

00000000004081de <_ZNSt6vectorIN2cl6DeviceESaIS1_EED1Ev>:
  4081de:	55                   	push   %rbp
  4081df:	48 89 e5             	mov    %rsp,%rbp
  4081e2:	48 83 ec 10          	sub    $0x10,%rsp
  4081e6:	48 89 7d f8          	mov    %rdi,-0x8(%rbp)
  4081ea:	48 8b 45 f8          	mov    -0x8(%rbp),%rax
  4081ee:	48 89 c7             	mov    %rax,%rdi
  4081f1:	e8 70 19 00 00       	callq  409b66 <_ZNSt12_Vector_baseIN2cl6DeviceESaIS1_EE19_M_get_Tp_allocatorEv>
  4081f6:	48 89 c2             	mov    %rax,%rdx
  4081f9:	48 8b 45 f8          	mov    -0x8(%rbp),%rax
  4081fd:	48 8b 48 08          	mov    0x8(%rax),%rcx
  408201:	48 8b 45 f8          	mov    -0x8(%rbp),%rax
  408205:	48 8b 00             	mov    (%rax),%rax
  408208:	48 89 ce             	mov    %rcx,%rsi
  40820b:	48 89 c7             	mov    %rax,%rdi
  40820e:	e8 61 19 00 00       	callq  409b74 <_ZSt8_DestroyIPN2cl6DeviceES1_EvT_S3_RSaIT0_E>
  408213:	48 8b 45 f8          	mov    -0x8(%rbp),%rax
  408217:	48 89 c7             	mov    %rax,%rdi
  40821a:	e8 f7 18 00 00       	callq  409b16 <_ZNSt12_Vector_baseIN2cl6DeviceESaIS1_EED1Ev>
  40821f:	90                   	nop
  408220:	c9                   	leaveq 
  408221:	c3                   	retq   

0000000000408222 <_ZN2cl6detail7WrapperIP15_cl_platform_idEclEv>:
  408222:	55                   	push   %rbp
  408223:	48 89 e5             	mov    %rsp,%rbp
  408226:	48 89 7d f8          	mov    %rdi,-0x8(%rbp)
  40822a:	48 8b 45 f8          	mov    -0x8(%rbp),%rax
  40822e:	5d                   	pop    %rbp
  40822f:	c3                   	retq   

0000000000408230 <_ZN2cl6detail7WrapperIP11_cl_contextEC1ERKS4_>:
  408230:	55                   	push   %rbp
  408231:	48 89 e5             	mov    %rsp,%rbp
  408234:	48 83 ec 10          	sub    $0x10,%rsp
  408238:	48 89 7d f8          	mov    %rdi,-0x8(%rbp)
  40823c:	48 89 75 f0          	mov    %rsi,-0x10(%rbp)
  408240:	48 8b 45 f0          	mov    -0x10(%rbp),%rax
  408244:	48 8b 10             	mov    (%rax),%rdx
  408247:	48 8b 45 f8          	mov    -0x8(%rbp),%rax
  40824b:	48 89 10             	mov    %rdx,(%rax)
  40824e:	48 8b 45 f8          	mov    -0x8(%rbp),%rax
  408252:	48 89 c7             	mov    %rax,%rdi
  408255:	e8 44 19 00 00       	callq  409b9e <_ZNK2cl6detail7WrapperIP11_cl_contextE6retainEv>
  40825a:	be a3 03 41 00       	mov    $0x4103a3,%esi
  40825f:	89 c7                	mov    %eax,%edi
  408261:	e8 37 c1 ff ff       	callq  40439d <_ZN2cl6detailL10errHandlerEiPKc>
  408266:	90                   	nop
  408267:	c9                   	leaveq 
  408268:	c3                   	retq   
  408269:	90                   	nop

000000000040826a <_ZN2cl6detail7WrapperIP11_cl_contextEaSERKS4_>:
  40826a:	55                   	push   %rbp
  40826b:	48 89 e5             	mov    %rsp,%rbp
  40826e:	48 83 ec 10          	sub    $0x10,%rsp
  408272:	48 89 7d f8          	mov    %rdi,-0x8(%rbp)
  408276:	48 89 75 f0          	mov    %rsi,-0x10(%rbp)
  40827a:	48 8b 45 f8          	mov    -0x8(%rbp),%rax
  40827e:	48 3b 45 f0          	cmp    -0x10(%rbp),%rax
  408282:	74 3e                	je     4082c2 <_ZN2cl6detail7WrapperIP11_cl_contextEaSERKS4_+0x58>
  408284:	48 8b 45 f8          	mov    -0x8(%rbp),%rax
  408288:	48 89 c7             	mov    %rax,%rdi
  40828b:	e8 5e 17 00 00       	callq  4099ee <_ZNK2cl6detail7WrapperIP11_cl_contextE7releaseEv>
  408290:	be b1 03 41 00       	mov    $0x4103b1,%esi
  408295:	89 c7                	mov    %eax,%edi
  408297:	e8 01 c1 ff ff       	callq  40439d <_ZN2cl6detailL10errHandlerEiPKc>
  40829c:	48 8b 45 f0          	mov    -0x10(%rbp),%rax
  4082a0:	48 8b 10             	mov    (%rax),%rdx
  4082a3:	48 8b 45 f8          	mov    -0x8(%rbp),%rax
  4082a7:	48 89 10             	mov    %rdx,(%rax)
  4082aa:	48 8b 45 f8          	mov    -0x8(%rbp),%rax
  4082ae:	48 89 c7             	mov    %rax,%rdi
  4082b1:	e8 e8 18 00 00       	callq  409b9e <_ZNK2cl6detail7WrapperIP11_cl_contextE6retainEv>
  4082b6:	be a3 03 41 00       	mov    $0x4103a3,%esi
  4082bb:	89 c7                	mov    %eax,%edi
  4082bd:	e8 db c0 ff ff       	callq  40439d <_ZN2cl6detailL10errHandlerEiPKc>
  4082c2:	48 8b 45 f8          	mov    -0x8(%rbp),%rax
  4082c6:	c9                   	leaveq 
  4082c7:	c3                   	retq   

00000000004082c8 <_ZN2cl6detail7WrapperIP11_cl_contextEaSEOS4_>:
  4082c8:	55                   	push   %rbp
  4082c9:	48 89 e5             	mov    %rsp,%rbp
  4082cc:	48 83 ec 10          	sub    $0x10,%rsp
  4082d0:	48 89 7d f8          	mov    %rdi,-0x8(%rbp)
  4082d4:	48 89 75 f0          	mov    %rsi,-0x10(%rbp)
  4082d8:	48 8b 45 f8          	mov    -0x8(%rbp),%rax
  4082dc:	48 3b 45 f0          	cmp    -0x10(%rbp),%rax
  4082e0:	74 31                	je     408313 <_ZN2cl6detail7WrapperIP11_cl_contextEaSEOS4_+0x4b>
  4082e2:	48 8b 45 f8          	mov    -0x8(%rbp),%rax
  4082e6:	48 89 c7             	mov    %rax,%rdi
  4082e9:	e8 00 17 00 00       	callq  4099ee <_ZNK2cl6detail7WrapperIP11_cl_contextE7releaseEv>
  4082ee:	be b1 03 41 00       	mov    $0x4103b1,%esi
  4082f3:	89 c7                	mov    %eax,%edi
  4082f5:	e8 a3 c0 ff ff       	callq  40439d <_ZN2cl6detailL10errHandlerEiPKc>
  4082fa:	48 8b 45 f0          	mov    -0x10(%rbp),%rax
  4082fe:	48 8b 10             	mov    (%rax),%rdx
  408301:	48 8b 45 f8          	mov    -0x8(%rbp),%rax
  408305:	48 89 10             	mov    %rdx,(%rax)
  408308:	48 8b 45 f0          	mov    -0x10(%rbp),%rax
  40830c:	48 c7 00 00 00 00 00 	movq   $0x0,(%rax)
  408313:	48 8b 45 f8          	mov    -0x8(%rbp),%rax
  408317:	c9                   	leaveq 
  408318:	c3                   	retq   

0000000000408319 <_ZSt4crefIN2cl7ContextEESt17reference_wrapperIKT_ERS4_>:
  408319:	55                   	push   %rbp
  40831a:	48 89 e5             	mov    %rsp,%rbp
  40831d:	48 83 ec 20          	sub    $0x20,%rsp
  408321:	48 89 7d e8          	mov    %rdi,-0x18(%rbp)
  408325:	64 48 8b 04 25 28 00 	mov    %fs:0x28,%rax
  40832c:	00 00 
  40832e:	48 89 45 f8          	mov    %rax,-0x8(%rbp)
  408332:	31 c0                	xor    %eax,%eax
  408334:	48 8b 55 e8          	mov    -0x18(%rbp),%rdx
  408338:	48 8d 45 f0          	lea    -0x10(%rbp),%rax
  40833c:	48 89 d6             	mov    %rdx,%rsi
  40833f:	48 89 c7             	mov    %rax,%rdi
  408342:	e8 03 19 00 00       	callq  409c4a <_ZNSt17reference_wrapperIKN2cl7ContextEEC1ERS2_>
  408347:	48 8b 45 f0          	mov    -0x10(%rbp),%rax
  40834b:	48 8b 4d f8          	mov    -0x8(%rbp),%rcx
  40834f:	64 48 33 0c 25 28 00 	xor    %fs:0x28,%rcx
  408356:	00 00 
  408358:	74 05                	je     40835f <_ZSt4crefIN2cl7ContextEESt17reference_wrapperIKT_ERS4_+0x46>
  40835a:	e8 d1 bb ff ff       	callq  403f30 <__stack_chk_fail@plt>
  40835f:	c9                   	leaveq 
  408360:	c3                   	retq   
  408361:	90                   	nop

0000000000408362 <_ZZSt9call_onceIRFvRKN2cl7ContextEEJSt17reference_wrapperIS2_EEEvRSt9once_flagOT_DpOT0_ENKUlvE_clEv>:
  408362:	55                   	push   %rbp
  408363:	48 89 e5             	mov    %rsp,%rbp
  408366:	53                   	push   %rbx
  408367:	48 83 ec 18          	sub    $0x18,%rsp
  40836b:	48 89 7d e8          	mov    %rdi,-0x18(%rbp)
  40836f:	48 8b 45 e8          	mov    -0x18(%rbp),%rax
  408373:	48 8b 40 08          	mov    0x8(%rax),%rax
  408377:	48 89 c7             	mov    %rax,%rdi
  40837a:	e8 33 00 00 00       	callq  4083b2 <_ZSt7forwardISt17reference_wrapperIKN2cl7ContextEEEOT_RNSt16remove_referenceIS5_E4typeE>
  40837f:	48 89 c3             	mov    %rax,%rbx
  408382:	48 8b 45 e8          	mov    -0x18(%rbp),%rax
  408386:	48 8b 00             	mov    (%rax),%rax
  408389:	48 89 c7             	mov    %rax,%rdi
  40838c:	e8 13 00 00 00       	callq  4083a4 <_ZSt7forwardIRFvRKN2cl7ContextEEEOT_RNSt16remove_referenceIS6_E4typeE>
  408391:	48 89 de             	mov    %rbx,%rsi
  408394:	48 89 c7             	mov    %rax,%rdi
  408397:	e8 e3 18 00 00       	callq  409c7f <_ZSt8__invokeIRFvRKN2cl7ContextEEJSt17reference_wrapperIS2_EEENSt9result_ofIFOT_DpOT0_EE4typeESA_SD_>
  40839c:	90                   	nop
  40839d:	48 83 c4 18          	add    $0x18,%rsp
  4083a1:	5b                   	pop    %rbx
  4083a2:	5d                   	pop    %rbp
  4083a3:	c3                   	retq   

00000000004083a4 <_ZSt7forwardIRFvRKN2cl7ContextEEEOT_RNSt16remove_referenceIS6_E4typeE>:
  4083a4:	55                   	push   %rbp
  4083a5:	48 89 e5             	mov    %rsp,%rbp
  4083a8:	48 89 7d f8          	mov    %rdi,-0x8(%rbp)
  4083ac:	48 8b 45 f8          	mov    -0x8(%rbp),%rax
  4083b0:	5d                   	pop    %rbp
  4083b1:	c3                   	retq   

00000000004083b2 <_ZSt7forwardISt17reference_wrapperIKN2cl7ContextEEEOT_RNSt16remove_referenceIS5_E4typeE>:
  4083b2:	55                   	push   %rbp
  4083b3:	48 89 e5             	mov    %rsp,%rbp
  4083b6:	48 89 7d f8          	mov    %rdi,-0x8(%rbp)
  4083ba:	48 8b 45 f8          	mov    -0x8(%rbp),%rax
  4083be:	5d                   	pop    %rbp
  4083bf:	c3                   	retq   

00000000004083c0 <_ZZSt9call_onceIRFvRKN2cl7ContextEEJSt17reference_wrapperIS2_EEEvRSt9once_flagOT_DpOT0_ENKUlvE0_clEv>:
  4083c0:	55                   	push   %rbp
  4083c1:	48 89 e5             	mov    %rsp,%rbp
  4083c4:	48 83 ec 10          	sub    $0x10,%rsp
  4083c8:	48 89 7d f8          	mov    %rdi,-0x8(%rbp)
  4083cc:	48 8b 05 15 0c 21 00 	mov    0x210c15(%rip),%rax        # 618fe8 <_DYNAMIC+0x220>
  4083d3:	64 48 8b 00          	mov    %fs:(%rax),%rax
  4083d7:	48 89 c7             	mov    %rax,%rdi
  4083da:	e8 83 ff ff ff       	callq  408362 <_ZZSt9call_onceIRFvRKN2cl7ContextEEJSt17reference_wrapperIS2_EEEvRSt9once_flagOT_DpOT0_ENKUlvE_clEv>
  4083df:	90                   	nop
  4083e0:	c9                   	leaveq 
  4083e1:	c3                   	retq   

00000000004083e2 <_ZZSt9call_onceIRFvRKN2cl7ContextEEJSt17reference_wrapperIS2_EEEvRSt9once_flagOT_DpOT0_ENUlvE0_4_FUNEv>:
  4083e2:	55                   	push   %rbp
  4083e3:	48 89 e5             	mov    %rsp,%rbp
  4083e6:	bf 00 00 00 00       	mov    $0x0,%edi
  4083eb:	e8 d0 ff ff ff       	callq  4083c0 <_ZZSt9call_onceIRFvRKN2cl7ContextEEJSt17reference_wrapperIS2_EEEvRSt9once_flagOT_DpOT0_ENKUlvE0_clEv>
  4083f0:	5d                   	pop    %rbp
  4083f1:	c3                   	retq   

00000000004083f2 <_ZZSt9call_onceIRFvRKN2cl7ContextEEJSt17reference_wrapperIS2_EEEvRSt9once_flagOT_DpOT0_ENKUlvE0_cvPFvvEEv>:
  4083f2:	55                   	push   %rbp
  4083f3:	48 89 e5             	mov    %rsp,%rbp
  4083f6:	48 89 7d f8          	mov    %rdi,-0x8(%rbp)
  4083fa:	b8 e2 83 40 00       	mov    $0x4083e2,%eax
  4083ff:	5d                   	pop    %rbp
  408400:	c3                   	retq   

0000000000408401 <_ZSt9call_onceIRFvRKN2cl7ContextEEJSt17reference_wrapperIS2_EEEvRSt9once_flagOT_DpOT0_>:
  408401:	55                   	push   %rbp
  408402:	48 89 e5             	mov    %rsp,%rbp
  408405:	48 83 ec 50          	sub    $0x50,%rsp
  408409:	48 89 7d c8          	mov    %rdi,-0x38(%rbp)
  40840d:	48 89 75 c0          	mov    %rsi,-0x40(%rbp)
  408411:	48 89 55 b8          	mov    %rdx,-0x48(%rbp)
  408415:	64 48 8b 04 25 28 00 	mov    %fs:0x28,%rax
  40841c:	00 00 
  40841e:	48 89 45 f8          	mov    %rax,-0x8(%rbp)
  408422:	31 c0                	xor    %eax,%eax
  408424:	48 8b 45 c0          	mov    -0x40(%rbp),%rax
  408428:	48 89 45 e0          	mov    %rax,-0x20(%rbp)
  40842c:	48 8b 45 b8          	mov    -0x48(%rbp),%rax
  408430:	48 89 45 e8          	mov    %rax,-0x18(%rbp)
  408434:	48 8d 45 e0          	lea    -0x20(%rbp),%rax
  408438:	48 89 c7             	mov    %rax,%rdi
  40843b:	e8 ae 18 00 00       	callq  409cee <_ZSt11__addressofIZSt9call_onceIRFvRKN2cl7ContextEEJSt17reference_wrapperIS3_EEEvRSt9once_flagOT_DpOT0_EUlvE_EPSB_RSB_>
  408440:	48 89 c2             	mov    %rax,%rdx
  408443:	48 8b 05 9e 0b 21 00 	mov    0x210b9e(%rip),%rax        # 618fe8 <_DYNAMIC+0x220>
  40844a:	64 48 89 10          	mov    %rdx,%fs:(%rax)
  40844e:	48 8d 45 db          	lea    -0x25(%rbp),%rax
  408452:	48 89 c7             	mov    %rax,%rdi
  408455:	e8 98 ff ff ff       	callq  4083f2 <_ZZSt9call_onceIRFvRKN2cl7ContextEEJSt17reference_wrapperIS2_EEEvRSt9once_flagOT_DpOT0_ENKUlvE0_cvPFvvEEv>
  40845a:	48 89 c2             	mov    %rax,%rdx
  40845d:	48 8b 05 8c 0b 21 00 	mov    0x210b8c(%rip),%rax        # 618ff0 <_DYNAMIC+0x228>
  408464:	64 48 89 10          	mov    %rdx,%fs:(%rax)
  408468:	48 8b 45 c8          	mov    -0x38(%rbp),%rax
  40846c:	be 00 41 40 00       	mov    $0x404100,%esi
  408471:	48 89 c7             	mov    %rax,%rdi
  408474:	e8 ea be ff ff       	callq  404363 <_ZL14__gthread_oncePiPFvvE>
  408479:	89 45 dc             	mov    %eax,-0x24(%rbp)
  40847c:	83 7d dc 00          	cmpl   $0x0,-0x24(%rbp)
  408480:	74 0a                	je     40848c <_ZSt9call_onceIRFvRKN2cl7ContextEEJSt17reference_wrapperIS2_EEEvRSt9once_flagOT_DpOT0_+0x8b>
  408482:	8b 45 dc             	mov    -0x24(%rbp),%eax
  408485:	89 c7                	mov    %eax,%edi
  408487:	e8 14 ba ff ff       	callq  403ea0 <_ZSt20__throw_system_errori@plt>
  40848c:	90                   	nop
  40848d:	48 8b 45 f8          	mov    -0x8(%rbp),%rax
  408491:	64 48 33 04 25 28 00 	xor    %fs:0x28,%rax
  408498:	00 00 
  40849a:	74 05                	je     4084a1 <_ZSt9call_onceIRFvRKN2cl7ContextEEJSt17reference_wrapperIS2_EEEvRSt9once_flagOT_DpOT0_+0xa0>
  40849c:	e8 8f ba ff ff       	callq  403f30 <__stack_chk_fail@plt>
  4084a1:	c9                   	leaveq 
  4084a2:	c3                   	retq   
  4084a3:	90                   	nop

00000000004084a4 <_ZNK2cl7Context7getInfoILi4225EEENS_6detail12param_traitsINS2_15cl_context_infoEXT_EE10param_typeEPi>:
  4084a4:	55                   	push   %rbp
  4084a5:	48 89 e5             	mov    %rsp,%rbp
  4084a8:	53                   	push   %rbx
  4084a9:	48 83 ec 38          	sub    $0x38,%rsp
  4084ad:	48 89 7d d8          	mov    %rdi,-0x28(%rbp)
  4084b1:	48 89 75 d0          	mov    %rsi,-0x30(%rbp)
  4084b5:	48 89 55 c8          	mov    %rdx,-0x38(%rbp)
  4084b9:	64 48 8b 04 25 28 00 	mov    %fs:0x28,%rax
  4084c0:	00 00 
  4084c2:	48 89 45 e8          	mov    %rax,-0x18(%rbp)
  4084c6:	31 c0                	xor    %eax,%eax
  4084c8:	48 8b 45 d8          	mov    -0x28(%rbp),%rax
  4084cc:	48 89 c7             	mov    %rax,%rdi
  4084cf:	e8 ee fc ff ff       	callq  4081c2 <_ZNSt6vectorIN2cl6DeviceESaIS1_EEC1Ev>
  4084d4:	48 8b 55 d8          	mov    -0x28(%rbp),%rdx
  4084d8:	48 8b 45 d0          	mov    -0x30(%rbp),%rax
  4084dc:	be 81 10 00 00       	mov    $0x1081,%esi
  4084e1:	48 89 c7             	mov    %rax,%rdi
  4084e4:	e8 c3 00 00 00       	callq  4085ac <_ZNK2cl7Context7getInfoISt6vectorINS_6DeviceESaIS3_EEEEijPT_>
  4084e9:	89 45 e4             	mov    %eax,-0x1c(%rbp)
  4084ec:	48 83 7d c8 00       	cmpq   $0x0,-0x38(%rbp)
  4084f1:	74 25                	je     408518 <_ZNK2cl7Context7getInfoILi4225EEENS_6detail12param_traitsINS2_15cl_context_infoEXT_EE10param_typeEPi+0x74>
  4084f3:	48 8b 45 c8          	mov    -0x38(%rbp),%rax
  4084f7:	8b 55 e4             	mov    -0x1c(%rbp),%edx
  4084fa:	89 10                	mov    %edx,(%rax)
  4084fc:	eb 1a                	jmp    408518 <_ZNK2cl7Context7getInfoILi4225EEENS_6detail12param_traitsINS2_15cl_context_infoEXT_EE10param_typeEPi+0x74>
  4084fe:	48 89 c3             	mov    %rax,%rbx
  408501:	48 8b 45 d8          	mov    -0x28(%rbp),%rax
  408505:	48 89 c7             	mov    %rax,%rdi
  408508:	e8 d1 fc ff ff       	callq  4081de <_ZNSt6vectorIN2cl6DeviceESaIS1_EED1Ev>
  40850d:	48 89 d8             	mov    %rbx,%rax
  408510:	48 89 c7             	mov    %rax,%rdi
  408513:	e8 78 bc ff ff       	callq  404190 <_Unwind_Resume@plt>
  408518:	90                   	nop
  408519:	48 8b 45 d8          	mov    -0x28(%rbp),%rax
  40851d:	48 8b 4d e8          	mov    -0x18(%rbp),%rcx
  408521:	64 48 33 0c 25 28 00 	xor    %fs:0x28,%rcx
  408528:	00 00 
  40852a:	74 05                	je     408531 <_ZNK2cl7Context7getInfoILi4225EEENS_6detail12param_traitsINS2_15cl_context_infoEXT_EE10param_typeEPi+0x8d>
  40852c:	e8 ff b9 ff ff       	callq  403f30 <__stack_chk_fail@plt>
  408531:	48 83 c4 38          	add    $0x38,%rsp
  408535:	5b                   	pop    %rbx
  408536:	5d                   	pop    %rbp
  408537:	c3                   	retq   

0000000000408538 <_ZNK2cl6detail7WrapperIP11_cl_contextEclEv>:
  408538:	55                   	push   %rbp
  408539:	48 89 e5             	mov    %rsp,%rbp
  40853c:	48 89 7d f8          	mov    %rdi,-0x8(%rbp)
  408540:	48 8b 45 f8          	mov    -0x8(%rbp),%rax
  408544:	5d                   	pop    %rbp
  408545:	c3                   	retq   

0000000000408546 <_ZN2cl6detail7WrapperIP10_cl_kernelED1Ev>:
  408546:	55                   	push   %rbp
  408547:	48 89 e5             	mov    %rsp,%rbp
  40854a:	48 83 ec 10          	sub    $0x10,%rsp
  40854e:	48 89 7d f8          	mov    %rdi,-0x8(%rbp)
  408552:	48 8b 45 f8          	mov    -0x8(%rbp),%rax
  408556:	48 8b 00             	mov    (%rax),%rax
  408559:	48 85 c0             	test   %rax,%rax
  40855c:	74 0c                	je     40856a <_ZN2cl6detail7WrapperIP10_cl_kernelED1Ev+0x24>
  40855e:	48 8b 45 f8          	mov    -0x8(%rbp),%rax
  408562:	48 89 c7             	mov    %rax,%rdi
  408565:	e8 92 17 00 00       	callq  409cfc <_ZNK2cl6detail7WrapperIP10_cl_kernelE7releaseEv>
  40856a:	90                   	nop
  40856b:	c9                   	leaveq 
  40856c:	c3                   	retq   
  40856d:	90                   	nop

000000000040856e <_ZN2cl6detail7WrapperIP17_cl_command_queueED1Ev>:
  40856e:	55                   	push   %rbp
  40856f:	48 89 e5             	mov    %rsp,%rbp
  408572:	48 83 ec 10          	sub    $0x10,%rsp
  408576:	48 89 7d f8          	mov    %rdi,-0x8(%rbp)
  40857a:	48 8b 45 f8          	mov    -0x8(%rbp),%rax
  40857e:	48 8b 00             	mov    (%rax),%rax
  408581:	48 85 c0             	test   %rax,%rax
  408584:	74 0c                	je     408592 <_ZN2cl6detail7WrapperIP17_cl_command_queueED1Ev+0x24>
  408586:	48 8b 45 f8          	mov    -0x8(%rbp),%rax
  40858a:	48 89 c7             	mov    %rax,%rdi
  40858d:	e8 9a 17 00 00       	callq  409d2c <_ZNK2cl6detail7WrapperIP17_cl_command_queueE7releaseEv>
  408592:	90                   	nop
  408593:	c9                   	leaveq 
  408594:	c3                   	retq   
  408595:	90                   	nop

0000000000408596 <_ZN2cl6detail7WrapperIP17_cl_command_queueEC1Ev>:
  408596:	55                   	push   %rbp
  408597:	48 89 e5             	mov    %rsp,%rbp
  40859a:	48 89 7d f8          	mov    %rdi,-0x8(%rbp)
  40859e:	48 8b 45 f8          	mov    -0x8(%rbp),%rax
  4085a2:	48 c7 00 00 00 00 00 	movq   $0x0,(%rax)
  4085a9:	90                   	nop
  4085aa:	5d                   	pop    %rbp
  4085ab:	c3                   	retq   

00000000004085ac <_ZNK2cl7Context7getInfoISt6vectorINS_6DeviceESaIS3_EEEEijPT_>:
  4085ac:	55                   	push   %rbp
  4085ad:	48 89 e5             	mov    %rsp,%rbp
  4085b0:	48 83 ec 20          	sub    $0x20,%rsp
  4085b4:	48 89 7d f8          	mov    %rdi,-0x8(%rbp)
  4085b8:	89 75 f4             	mov    %esi,-0xc(%rbp)
  4085bb:	48 89 55 e8          	mov    %rdx,-0x18(%rbp)
  4085bf:	48 8b 45 f8          	mov    -0x8(%rbp),%rax
  4085c3:	48 8b 4d e8          	mov    -0x18(%rbp),%rcx
  4085c7:	8b 55 f4             	mov    -0xc(%rbp),%edx
  4085ca:	48 89 c6             	mov    %rax,%rsi
  4085cd:	bf b0 3f 40 00       	mov    $0x403fb0,%edi
  4085d2:	e8 85 17 00 00       	callq  409d5c <_ZN2cl6detail7getInfoIPFiP11_cl_contextjmPvPmES3_St6vectorINS_6DeviceESaIS9_EEEEiT_RKT0_jPT1_>
  4085d7:	be f8 05 41 00       	mov    $0x4105f8,%esi
  4085dc:	89 c7                	mov    %eax,%edi
  4085de:	e8 ba bd ff ff       	callq  40439d <_ZN2cl6detailL10errHandlerEiPKc>
  4085e3:	c9                   	leaveq 
  4085e4:	c3                   	retq   
  4085e5:	90                   	nop

00000000004085e6 <_ZN2cl6detail7WrapperIP17_cl_command_queueEC1ERKS4_>:
  4085e6:	55                   	push   %rbp
  4085e7:	48 89 e5             	mov    %rsp,%rbp
  4085ea:	48 83 ec 10          	sub    $0x10,%rsp
  4085ee:	48 89 7d f8          	mov    %rdi,-0x8(%rbp)
  4085f2:	48 89 75 f0          	mov    %rsi,-0x10(%rbp)
  4085f6:	48 8b 45 f0          	mov    -0x10(%rbp),%rax
  4085fa:	48 8b 10             	mov    (%rax),%rdx
  4085fd:	48 8b 45 f8          	mov    -0x8(%rbp),%rax
  408601:	48 89 10             	mov    %rdx,(%rax)
  408604:	48 8b 45 f8          	mov    -0x8(%rbp),%rax
  408608:	48 89 c7             	mov    %rax,%rdi
  40860b:	e8 be 17 00 00       	callq  409dce <_ZNK2cl6detail7WrapperIP17_cl_command_queueE6retainEv>
  408610:	be a3 03 41 00       	mov    $0x4103a3,%esi
  408615:	89 c7                	mov    %eax,%edi
  408617:	e8 81 bd ff ff       	callq  40439d <_ZN2cl6detailL10errHandlerEiPKc>
  40861c:	90                   	nop
  40861d:	c9                   	leaveq 
  40861e:	c3                   	retq   
  40861f:	90                   	nop

0000000000408620 <_ZN2cl6detail7WrapperIP17_cl_command_queueEaSEOS4_>:
  408620:	55                   	push   %rbp
  408621:	48 89 e5             	mov    %rsp,%rbp
  408624:	48 83 ec 10          	sub    $0x10,%rsp
  408628:	48 89 7d f8          	mov    %rdi,-0x8(%rbp)
  40862c:	48 89 75 f0          	mov    %rsi,-0x10(%rbp)
  408630:	48 8b 45 f8          	mov    -0x8(%rbp),%rax
  408634:	48 3b 45 f0          	cmp    -0x10(%rbp),%rax
  408638:	74 31                	je     40866b <_ZN2cl6detail7WrapperIP17_cl_command_queueEaSEOS4_+0x4b>
  40863a:	48 8b 45 f8          	mov    -0x8(%rbp),%rax
  40863e:	48 89 c7             	mov    %rax,%rdi
  408641:	e8 e6 16 00 00       	callq  409d2c <_ZNK2cl6detail7WrapperIP17_cl_command_queueE7releaseEv>
  408646:	be b1 03 41 00       	mov    $0x4103b1,%esi
  40864b:	89 c7                	mov    %eax,%edi
  40864d:	e8 4b bd ff ff       	callq  40439d <_ZN2cl6detailL10errHandlerEiPKc>
  408652:	48 8b 45 f0          	mov    -0x10(%rbp),%rax
  408656:	48 8b 10             	mov    (%rax),%rdx
  408659:	48 8b 45 f8          	mov    -0x8(%rbp),%rax
  40865d:	48 89 10             	mov    %rdx,(%rax)
  408660:	48 8b 45 f0          	mov    -0x10(%rbp),%rax
  408664:	48 c7 00 00 00 00 00 	movq   $0x0,(%rax)
  40866b:	48 8b 45 f8          	mov    -0x8(%rbp),%rax
  40866f:	c9                   	leaveq 
  408670:	c3                   	retq   
  408671:	90                   	nop

0000000000408672 <_ZNSt5arrayImLm6EE5beginEv>:
  408672:	55                   	push   %rbp
  408673:	48 89 e5             	mov    %rsp,%rbp
  408676:	48 83 ec 10          	sub    $0x10,%rsp
  40867a:	48 89 7d f8          	mov    %rdi,-0x8(%rbp)
  40867e:	48 8b 45 f8          	mov    -0x8(%rbp),%rax
  408682:	48 89 c7             	mov    %rax,%rdi
  408685:	e8 82 17 00 00       	callq  409e0c <_ZNSt5arrayImLm6EE4dataEv>
  40868a:	c9                   	leaveq 
  40868b:	c3                   	retq   

000000000040868c <_ZNSt5arrayImLm6EE3endEv>:
  40868c:	55                   	push   %rbp
  40868d:	48 89 e5             	mov    %rsp,%rbp
  408690:	48 83 ec 10          	sub    $0x10,%rsp
  408694:	48 89 7d f8          	mov    %rdi,-0x8(%rbp)
  408698:	48 8b 45 f8          	mov    -0x8(%rbp),%rax
  40869c:	48 89 c7             	mov    %rax,%rdi
  40869f:	e8 68 17 00 00       	callq  409e0c <_ZNSt5arrayImLm6EE4dataEv>
  4086a4:	48 83 c0 30          	add    $0x30,%rax
  4086a8:	c9                   	leaveq 
  4086a9:	c3                   	retq   

00000000004086aa <_ZN11arm_compute10DimensionsImE3setEmm>:
  4086aa:	55                   	push   %rbp
  4086ab:	48 89 e5             	mov    %rsp,%rbp
  4086ae:	48 83 ec 30          	sub    $0x30,%rsp
  4086b2:	48 89 7d e8          	mov    %rdi,-0x18(%rbp)
  4086b6:	48 89 75 e0          	mov    %rsi,-0x20(%rbp)
  4086ba:	48 89 55 d8          	mov    %rdx,-0x28(%rbp)
  4086be:	64 48 8b 04 25 28 00 	mov    %fs:0x28,%rax
  4086c5:	00 00 
  4086c7:	48 89 45 f8          	mov    %rax,-0x8(%rbp)
  4086cb:	31 c0                	xor    %eax,%eax
  4086cd:	48 8b 45 e8          	mov    -0x18(%rbp),%rax
  4086d1:	48 8b 55 e0          	mov    -0x20(%rbp),%rdx
  4086d5:	48 89 d6             	mov    %rdx,%rsi
  4086d8:	48 89 c7             	mov    %rax,%rdi
  4086db:	e8 70 00 00 00       	callq  408750 <_ZNSt5arrayImLm6EEixEm>
  4086e0:	48 89 c2             	mov    %rax,%rdx
  4086e3:	48 8b 45 d8          	mov    -0x28(%rbp),%rax
  4086e7:	48 89 02             	mov    %rax,(%rdx)
  4086ea:	48 8b 45 e0          	mov    -0x20(%rbp),%rax
  4086ee:	48 83 c0 01          	add    $0x1,%rax
  4086f2:	48 89 45 f0          	mov    %rax,-0x10(%rbp)
  4086f6:	48 8b 45 e8          	mov    -0x18(%rbp),%rax
  4086fa:	48 8d 50 30          	lea    0x30(%rax),%rdx
  4086fe:	48 8d 45 f0          	lea    -0x10(%rbp),%rax
  408702:	48 89 c6             	mov    %rax,%rsi
  408705:	48 89 d7             	mov    %rdx,%rdi
  408708:	e8 30 02 00 00       	callq  40893d <_ZSt3maxImERKT_S2_S2_>
  40870d:	48 8b 10             	mov    (%rax),%rdx
  408710:	48 8b 45 e8          	mov    -0x18(%rbp),%rax
  408714:	48 89 50 30          	mov    %rdx,0x30(%rax)
  408718:	90                   	nop
  408719:	48 8b 45 f8          	mov    -0x8(%rbp),%rax
  40871d:	64 48 33 04 25 28 00 	xor    %fs:0x28,%rax
  408724:	00 00 
  408726:	74 05                	je     40872d <_ZN11arm_compute10DimensionsImE3setEmm+0x83>
  408728:	e8 03 b8 ff ff       	callq  403f30 <__stack_chk_fail@plt>
  40872d:	c9                   	leaveq 
  40872e:	c3                   	retq   

000000000040872f <_ZNSt14__array_traitsImLm6EE6_S_refERA6_Kmm>:
  40872f:	55                   	push   %rbp
  408730:	48 89 e5             	mov    %rsp,%rbp
  408733:	48 89 7d f8          	mov    %rdi,-0x8(%rbp)
  408737:	48 89 75 f0          	mov    %rsi,-0x10(%rbp)
  40873b:	48 8b 45 f0          	mov    -0x10(%rbp),%rax
  40873f:	48 8d 14 c5 00 00 00 	lea    0x0(,%rax,8),%rdx
  408746:	00 
  408747:	48 8b 45 f8          	mov    -0x8(%rbp),%rax
  40874b:	48 01 d0             	add    %rdx,%rax
  40874e:	5d                   	pop    %rbp
  40874f:	c3                   	retq   

0000000000408750 <_ZNSt5arrayImLm6EEixEm>:
  408750:	55                   	push   %rbp
  408751:	48 89 e5             	mov    %rsp,%rbp
  408754:	48 83 ec 10          	sub    $0x10,%rsp
  408758:	48 89 7d f8          	mov    %rdi,-0x8(%rbp)
  40875c:	48 89 75 f0          	mov    %rsi,-0x10(%rbp)
  408760:	48 8b 45 f8          	mov    -0x8(%rbp),%rax
  408764:	48 8b 55 f0          	mov    -0x10(%rbp),%rdx
  408768:	48 89 d6             	mov    %rdx,%rsi
  40876b:	48 89 c7             	mov    %rax,%rdi
  40876e:	e8 bc ff ff ff       	callq  40872f <_ZNSt14__array_traitsImLm6EE6_S_refERA6_Kmm>
  408773:	c9                   	leaveq 
  408774:	c3                   	retq   
  408775:	90                   	nop

0000000000408776 <_ZN11arm_compute10DimensionsIiEC1IJEEEDpT_>:
  408776:	55                   	push   %rbp
  408777:	48 89 e5             	mov    %rsp,%rbp
  40877a:	48 89 7d f8          	mov    %rdi,-0x8(%rbp)
  40877e:	48 8b 45 f8          	mov    -0x8(%rbp),%rax
  408782:	48 c7 00 00 00 00 00 	movq   $0x0,(%rax)
  408789:	48 c7 40 08 00 00 00 	movq   $0x0,0x8(%rax)
  408790:	00 
  408791:	48 c7 40 10 00 00 00 	movq   $0x0,0x10(%rax)
  408798:	00 
  408799:	48 8b 45 f8          	mov    -0x8(%rbp),%rax
  40879d:	48 c7 40 18 00 00 00 	movq   $0x0,0x18(%rax)
  4087a4:	00 
  4087a5:	90                   	nop
  4087a6:	5d                   	pop    %rbp
  4087a7:	c3                   	retq   

00000000004087a8 <_ZN11arm_compute11TensorShapeC1IJEEEDpT_>:
  4087a8:	55                   	push   %rbp
  4087a9:	48 89 e5             	mov    %rsp,%rbp
  4087ac:	53                   	push   %rbx
  4087ad:	48 83 ec 28          	sub    $0x28,%rsp
  4087b1:	48 89 7d d8          	mov    %rdi,-0x28(%rbp)
  4087b5:	64 48 8b 04 25 28 00 	mov    %fs:0x28,%rax
  4087bc:	00 00 
  4087be:	48 89 45 e8          	mov    %rax,-0x18(%rbp)
  4087c2:	31 c0                	xor    %eax,%eax
  4087c4:	48 8b 45 d8          	mov    -0x28(%rbp),%rax
  4087c8:	48 89 c7             	mov    %rax,%rdi
  4087cb:	e8 56 16 00 00       	callq  409e26 <_ZN11arm_compute10DimensionsImEC1IJEEEDpT_>
  4087d0:	48 8b 45 d8          	mov    -0x28(%rbp),%rax
  4087d4:	48 8b 40 30          	mov    0x30(%rax),%rax
  4087d8:	48 85 c0             	test   %rax,%rax
  4087db:	74 47                	je     408824 <_ZN11arm_compute11TensorShapeC1IJEEEDpT_+0x7c>
  4087dd:	c7 45 e4 01 00 00 00 	movl   $0x1,-0x1c(%rbp)
  4087e4:	48 8b 45 d8          	mov    -0x28(%rbp),%rax
  4087e8:	48 89 c7             	mov    %rax,%rdi
  4087eb:	e8 9c fe ff ff       	callq  40868c <_ZNSt5arrayImLm6EE3endEv>
  4087f0:	48 89 c3             	mov    %rax,%rbx
  4087f3:	48 8b 45 d8          	mov    -0x28(%rbp),%rax
  4087f7:	48 89 c7             	mov    %rax,%rdi
  4087fa:	e8 73 fe ff ff       	callq  408672 <_ZNSt5arrayImLm6EE5beginEv>
  4087ff:	48 89 c2             	mov    %rax,%rdx
  408802:	48 8b 45 d8          	mov    -0x28(%rbp),%rax
  408806:	48 8b 40 30          	mov    0x30(%rax),%rax
  40880a:	48 c1 e0 03          	shl    $0x3,%rax
  40880e:	48 8d 0c 02          	lea    (%rdx,%rax,1),%rcx
  408812:	48 8d 45 e4          	lea    -0x1c(%rbp),%rax
  408816:	48 89 c2             	mov    %rax,%rdx
  408819:	48 89 de             	mov    %rbx,%rsi
  40881c:	48 89 cf             	mov    %rcx,%rdi
  40881f:	e8 13 f2 ff ff       	callq  407a37 <_ZSt4fillIPmiEvT_S1_RKT0_>
  408824:	48 8b 45 d8          	mov    -0x28(%rbp),%rax
  408828:	48 89 c7             	mov    %rax,%rdi
  40882b:	e8 38 e1 ff ff       	callq  406968 <_ZN11arm_compute11TensorShape26apply_dimension_correctionEv>
  408830:	90                   	nop
  408831:	48 8b 45 e8          	mov    -0x18(%rbp),%rax
  408835:	64 48 33 04 25 28 00 	xor    %fs:0x28,%rax
  40883c:	00 00 
  40883e:	74 05                	je     408845 <_ZN11arm_compute11TensorShapeC1IJEEEDpT_+0x9d>
  408840:	e8 eb b6 ff ff       	callq  403f30 <__stack_chk_fail@plt>
  408845:	48 83 c4 28          	add    $0x28,%rsp
  408849:	5b                   	pop    %rbx
  40884a:	5d                   	pop    %rbp
  40884b:	c3                   	retq   

000000000040884c <_ZNK11arm_compute10DimensionsImE14num_dimensionsEv>:
  40884c:	55                   	push   %rbp
  40884d:	48 89 e5             	mov    %rsp,%rbp
  408850:	48 89 7d f8          	mov    %rdi,-0x8(%rbp)
  408854:	48 8b 45 f8          	mov    -0x8(%rbp),%rax
  408858:	48 8b 40 30          	mov    0x30(%rax),%rax
  40885c:	5d                   	pop    %rbp
  40885d:	c3                   	retq   

000000000040885e <_ZNSt14__array_traitsIiLm6EE6_S_refERA6_Kim>:
  40885e:	55                   	push   %rbp
  40885f:	48 89 e5             	mov    %rsp,%rbp
  408862:	48 89 7d f8          	mov    %rdi,-0x8(%rbp)
  408866:	48 89 75 f0          	mov    %rsi,-0x10(%rbp)
  40886a:	48 8b 45 f0          	mov    -0x10(%rbp),%rax
  40886e:	48 8d 14 85 00 00 00 	lea    0x0(,%rax,4),%rdx
  408875:	00 
  408876:	48 8b 45 f8          	mov    -0x8(%rbp),%rax
  40887a:	48 01 d0             	add    %rdx,%rax
  40887d:	5d                   	pop    %rbp
  40887e:	c3                   	retq   
  40887f:	90                   	nop

0000000000408880 <_ZNKSt5arrayIiLm6EEixEm>:
  408880:	55                   	push   %rbp
  408881:	48 89 e5             	mov    %rsp,%rbp
  408884:	48 83 ec 10          	sub    $0x10,%rsp
  408888:	48 89 7d f8          	mov    %rdi,-0x8(%rbp)
  40888c:	48 89 75 f0          	mov    %rsi,-0x10(%rbp)
  408890:	48 8b 45 f8          	mov    -0x8(%rbp),%rax
  408894:	48 8b 55 f0          	mov    -0x10(%rbp),%rdx
  408898:	48 89 d6             	mov    %rdx,%rsi
  40889b:	48 89 c7             	mov    %rax,%rdi
  40889e:	e8 bb ff ff ff       	callq  40885e <_ZNSt14__array_traitsIiLm6EE6_S_refERA6_Kim>
  4088a3:	c9                   	leaveq 
  4088a4:	c3                   	retq   
  4088a5:	90                   	nop

00000000004088a6 <_ZNK11arm_compute10DimensionsIiEixEm>:
  4088a6:	55                   	push   %rbp
  4088a7:	48 89 e5             	mov    %rsp,%rbp
  4088aa:	48 83 ec 10          	sub    $0x10,%rsp
  4088ae:	48 89 7d f8          	mov    %rdi,-0x8(%rbp)
  4088b2:	48 89 75 f0          	mov    %rsi,-0x10(%rbp)
  4088b6:	48 8b 45 f8          	mov    -0x8(%rbp),%rax
  4088ba:	48 8b 55 f0          	mov    -0x10(%rbp),%rdx
  4088be:	48 89 d6             	mov    %rdx,%rsi
  4088c1:	48 89 c7             	mov    %rax,%rdi
  4088c4:	e8 b7 ff ff ff       	callq  408880 <_ZNKSt5arrayIiLm6EEixEm>
  4088c9:	c9                   	leaveq 
  4088ca:	c3                   	retq   
  4088cb:	90                   	nop

00000000004088cc <_ZNKSt5arrayImLm6EEixEm>:
  4088cc:	55                   	push   %rbp
  4088cd:	48 89 e5             	mov    %rsp,%rbp
  4088d0:	48 83 ec 10          	sub    $0x10,%rsp
  4088d4:	48 89 7d f8          	mov    %rdi,-0x8(%rbp)
  4088d8:	48 89 75 f0          	mov    %rsi,-0x10(%rbp)
  4088dc:	48 8b 45 f8          	mov    -0x8(%rbp),%rax
  4088e0:	48 8b 55 f0          	mov    -0x10(%rbp),%rdx
  4088e4:	48 89 d6             	mov    %rdx,%rsi
  4088e7:	48 89 c7             	mov    %rax,%rdi
  4088ea:	e8 40 fe ff ff       	callq  40872f <_ZNSt14__array_traitsImLm6EE6_S_refERA6_Kmm>
  4088ef:	c9                   	leaveq 
  4088f0:	c3                   	retq   
  4088f1:	90                   	nop

00000000004088f2 <_ZNK11arm_compute10DimensionsImEixEm>:
  4088f2:	55                   	push   %rbp
  4088f3:	48 89 e5             	mov    %rsp,%rbp
  4088f6:	48 83 ec 10          	sub    $0x10,%rsp
  4088fa:	48 89 7d f8          	mov    %rdi,-0x8(%rbp)
  4088fe:	48 89 75 f0          	mov    %rsi,-0x10(%rbp)
  408902:	48 8b 45 f8          	mov    -0x8(%rbp),%rax
  408906:	48 8b 55 f0          	mov    -0x10(%rbp),%rdx
  40890a:	48 89 d6             	mov    %rdx,%rsi
  40890d:	48 89 c7             	mov    %rax,%rdi
  408910:	e8 b7 ff ff ff       	callq  4088cc <_ZNKSt5arrayImLm6EEixEm>
  408915:	c9                   	leaveq 
  408916:	c3                   	retq   
  408917:	90                   	nop

0000000000408918 <_ZNSt5arrayIN11arm_compute6Window9DimensionELm6EEixEm>:
  408918:	55                   	push   %rbp
  408919:	48 89 e5             	mov    %rsp,%rbp
  40891c:	48 83 ec 10          	sub    $0x10,%rsp
  408920:	48 89 7d f8          	mov    %rdi,-0x8(%rbp)
  408924:	48 89 75 f0          	mov    %rsi,-0x10(%rbp)
  408928:	48 8b 45 f8          	mov    -0x8(%rbp),%rax
  40892c:	48 8b 55 f0          	mov    -0x10(%rbp),%rdx
  408930:	48 89 d6             	mov    %rdx,%rsi
  408933:	48 89 c7             	mov    %rax,%rdi
  408936:	e8 10 e1 ff ff       	callq  406a4b <_ZNSt14__array_traitsIN11arm_compute6Window9DimensionELm6EE6_S_refERA6_KS2_m>
  40893b:	c9                   	leaveq 
  40893c:	c3                   	retq   

000000000040893d <_ZSt3maxImERKT_S2_S2_>:
  40893d:	55                   	push   %rbp
  40893e:	48 89 e5             	mov    %rsp,%rbp
  408941:	48 89 7d f8          	mov    %rdi,-0x8(%rbp)
  408945:	48 89 75 f0          	mov    %rsi,-0x10(%rbp)
  408949:	48 8b 45 f8          	mov    -0x8(%rbp),%rax
  40894d:	48 8b 10             	mov    (%rax),%rdx
  408950:	48 8b 45 f0          	mov    -0x10(%rbp),%rax
  408954:	48 8b 00             	mov    (%rax),%rax
  408957:	48 39 c2             	cmp    %rax,%rdx
  40895a:	73 06                	jae    408962 <_ZSt3maxImERKT_S2_S2_+0x25>
  40895c:	48 8b 45 f0          	mov    -0x10(%rbp),%rax
  408960:	eb 04                	jmp    408966 <_ZSt3maxImERKT_S2_S2_+0x29>
  408962:	48 8b 45 f8          	mov    -0x8(%rbp),%rax
  408966:	5d                   	pop    %rbp
  408967:	c3                   	retq   

0000000000408968 <_ZNSt5arrayIN11arm_compute8Iterator9DimensionELm6EEixEm>:
  408968:	55                   	push   %rbp
  408969:	48 89 e5             	mov    %rsp,%rbp
  40896c:	48 83 ec 10          	sub    $0x10,%rsp
  408970:	48 89 7d f8          	mov    %rdi,-0x8(%rbp)
  408974:	48 89 75 f0          	mov    %rsi,-0x10(%rbp)
  408978:	48 8b 45 f8          	mov    -0x8(%rbp),%rax
  40897c:	48 8b 55 f0          	mov    -0x10(%rbp),%rdx
  408980:	48 89 d6             	mov    %rdx,%rsi
  408983:	48 89 c7             	mov    %rax,%rdi
  408986:	e8 49 e3 ff ff       	callq  406cd4 <_ZNSt14__array_traitsIN11arm_compute8Iterator9DimensionELm6EE6_S_refERA6_KS2_m>
  40898b:	c9                   	leaveq 
  40898c:	c3                   	retq   
  40898d:	90                   	nop

000000000040898e <_ZN11arm_compute10DimensionsIiE3setEmi>:
  40898e:	55                   	push   %rbp
  40898f:	48 89 e5             	mov    %rsp,%rbp
  408992:	48 83 ec 30          	sub    $0x30,%rsp
  408996:	48 89 7d e8          	mov    %rdi,-0x18(%rbp)
  40899a:	48 89 75 e0          	mov    %rsi,-0x20(%rbp)
  40899e:	89 55 dc             	mov    %edx,-0x24(%rbp)
  4089a1:	64 48 8b 04 25 28 00 	mov    %fs:0x28,%rax
  4089a8:	00 00 
  4089aa:	48 89 45 f8          	mov    %rax,-0x8(%rbp)
  4089ae:	31 c0                	xor    %eax,%eax
  4089b0:	48 8b 45 e8          	mov    -0x18(%rbp),%rax
  4089b4:	48 8b 55 e0          	mov    -0x20(%rbp),%rdx
  4089b8:	48 89 d6             	mov    %rdx,%rsi
  4089bb:	48 89 c7             	mov    %rax,%rdi
  4089be:	e8 95 14 00 00       	callq  409e58 <_ZNSt5arrayIiLm6EEixEm>
  4089c3:	48 89 c2             	mov    %rax,%rdx
  4089c6:	8b 45 dc             	mov    -0x24(%rbp),%eax
  4089c9:	89 02                	mov    %eax,(%rdx)
  4089cb:	48 8b 45 e0          	mov    -0x20(%rbp),%rax
  4089cf:	48 83 c0 01          	add    $0x1,%rax
  4089d3:	48 89 45 f0          	mov    %rax,-0x10(%rbp)
  4089d7:	48 8b 45 e8          	mov    -0x18(%rbp),%rax
  4089db:	48 8d 50 18          	lea    0x18(%rax),%rdx
  4089df:	48 8d 45 f0          	lea    -0x10(%rbp),%rax
  4089e3:	48 89 c6             	mov    %rax,%rsi
  4089e6:	48 89 d7             	mov    %rdx,%rdi
  4089e9:	e8 4f ff ff ff       	callq  40893d <_ZSt3maxImERKT_S2_S2_>
  4089ee:	48 8b 10             	mov    (%rax),%rdx
  4089f1:	48 8b 45 e8          	mov    -0x18(%rbp),%rax
  4089f5:	48 89 50 18          	mov    %rdx,0x18(%rax)
  4089f9:	90                   	nop
  4089fa:	48 8b 45 f8          	mov    -0x8(%rbp),%rax
  4089fe:	64 48 33 04 25 28 00 	xor    %fs:0x28,%rax
  408a05:	00 00 
  408a07:	74 05                	je     408a0e <_ZN11arm_compute10DimensionsIiE3setEmi+0x80>
  408a09:	e8 22 b5 ff ff       	callq  403f30 <__stack_chk_fail@plt>
  408a0e:	c9                   	leaveq 
  408a0f:	c3                   	retq   

0000000000408a10 <_ZNSt10_Head_baseILm0EPN11arm_compute9ICLKernelELb0EE7_M_headERS3_>:
  408a10:	55                   	push   %rbp
  408a11:	48 89 e5             	mov    %rsp,%rbp
  408a14:	48 89 7d f8          	mov    %rdi,-0x8(%rbp)
  408a18:	48 8b 45 f8          	mov    -0x8(%rbp),%rax
  408a1c:	5d                   	pop    %rbp
  408a1d:	c3                   	retq   

0000000000408a1e <_ZNSt11_Tuple_implILm0EJPN11arm_compute9ICLKernelESt14default_deleteIS1_EEE7_M_headERS5_>:
  408a1e:	55                   	push   %rbp
  408a1f:	48 89 e5             	mov    %rsp,%rbp
  408a22:	48 83 ec 10          	sub    $0x10,%rsp
  408a26:	48 89 7d f8          	mov    %rdi,-0x8(%rbp)
  408a2a:	48 8b 45 f8          	mov    -0x8(%rbp),%rax
  408a2e:	48 89 c7             	mov    %rax,%rdi
  408a31:	e8 da ff ff ff       	callq  408a10 <_ZNSt10_Head_baseILm0EPN11arm_compute9ICLKernelELb0EE7_M_headERS3_>
  408a36:	c9                   	leaveq 
  408a37:	c3                   	retq   

0000000000408a38 <_ZSt12__get_helperILm0EPN11arm_compute9ICLKernelEJSt14default_deleteIS1_EEERT0_RSt11_Tuple_implIXT_EJS5_DpT1_EE>:
  408a38:	55                   	push   %rbp
  408a39:	48 89 e5             	mov    %rsp,%rbp
  408a3c:	48 83 ec 10          	sub    $0x10,%rsp
  408a40:	48 89 7d f8          	mov    %rdi,-0x8(%rbp)
  408a44:	48 8b 45 f8          	mov    -0x8(%rbp),%rax
  408a48:	48 89 c7             	mov    %rax,%rdi
  408a4b:	e8 ce ff ff ff       	callq  408a1e <_ZNSt11_Tuple_implILm0EJPN11arm_compute9ICLKernelESt14default_deleteIS1_EEE7_M_headERS5_>
  408a50:	c9                   	leaveq 
  408a51:	c3                   	retq   

0000000000408a52 <_ZSt3getILm0EJPN11arm_compute9ICLKernelESt14default_deleteIS1_EEERNSt13tuple_elementIXT_ESt5tupleIJDpT0_EEE4typeERS9_>:
  408a52:	55                   	push   %rbp
  408a53:	48 89 e5             	mov    %rsp,%rbp
  408a56:	48 83 ec 10          	sub    $0x10,%rsp
  408a5a:	48 89 7d f8          	mov    %rdi,-0x8(%rbp)
  408a5e:	48 8b 45 f8          	mov    -0x8(%rbp),%rax
  408a62:	48 89 c7             	mov    %rax,%rdi
  408a65:	e8 ce ff ff ff       	callq  408a38 <_ZSt12__get_helperILm0EPN11arm_compute9ICLKernelEJSt14default_deleteIS1_EEERT0_RSt11_Tuple_implIXT_EJS5_DpT1_EE>
  408a6a:	c9                   	leaveq 
  408a6b:	c3                   	retq   

0000000000408a6c <_ZNSt10unique_ptrIN11arm_compute9ICLKernelESt14default_deleteIS1_EED1Ev>:
  408a6c:	55                   	push   %rbp
  408a6d:	48 89 e5             	mov    %rsp,%rbp
  408a70:	53                   	push   %rbx
  408a71:	48 83 ec 28          	sub    $0x28,%rsp
  408a75:	48 89 7d d8          	mov    %rdi,-0x28(%rbp)
  408a79:	48 8b 45 d8          	mov    -0x28(%rbp),%rax
  408a7d:	48 89 c7             	mov    %rax,%rdi
  408a80:	e8 cd ff ff ff       	callq  408a52 <_ZSt3getILm0EJPN11arm_compute9ICLKernelESt14default_deleteIS1_EEERNSt13tuple_elementIXT_ESt5tupleIJDpT0_EEE4typeERS9_>
  408a85:	48 89 45 e8          	mov    %rax,-0x18(%rbp)
  408a89:	48 8b 45 e8          	mov    -0x18(%rbp),%rax
  408a8d:	48 8b 00             	mov    (%rax),%rax
  408a90:	48 85 c0             	test   %rax,%rax
  408a93:	74 1e                	je     408ab3 <_ZNSt10unique_ptrIN11arm_compute9ICLKernelESt14default_deleteIS1_EED1Ev+0x47>
  408a95:	48 8b 45 e8          	mov    -0x18(%rbp),%rax
  408a99:	48 8b 18             	mov    (%rax),%rbx
  408a9c:	48 8b 45 d8          	mov    -0x28(%rbp),%rax
  408aa0:	48 89 c7             	mov    %rax,%rdi
  408aa3:	e8 32 14 00 00       	callq  409eda <_ZNSt10unique_ptrIN11arm_compute9ICLKernelESt14default_deleteIS1_EE11get_deleterEv>
  408aa8:	48 89 de             	mov    %rbx,%rsi
  408aab:	48 89 c7             	mov    %rax,%rdi
  408aae:	e8 ed 14 00 00       	callq  409fa0 <_ZNKSt14default_deleteIN11arm_compute9ICLKernelEEclEPS1_>
  408ab3:	48 8b 45 e8          	mov    -0x18(%rbp),%rax
  408ab7:	48 c7 00 00 00 00 00 	movq   $0x0,(%rax)
  408abe:	90                   	nop
  408abf:	48 83 c4 28          	add    $0x28,%rsp
  408ac3:	5b                   	pop    %rbx
  408ac4:	5d                   	pop    %rbp
  408ac5:	c3                   	retq   

0000000000408ac6 <_ZN11arm_compute11TensorShapeC1IJjjjjEEEDpT_>:
  408ac6:	55                   	push   %rbp
  408ac7:	48 89 e5             	mov    %rsp,%rbp
  408aca:	53                   	push   %rbx
  408acb:	48 83 ec 38          	sub    $0x38,%rsp
  408acf:	48 89 7d d8          	mov    %rdi,-0x28(%rbp)
  408ad3:	89 75 d4             	mov    %esi,-0x2c(%rbp)
  408ad6:	89 55 d0             	mov    %edx,-0x30(%rbp)
  408ad9:	89 4d cc             	mov    %ecx,-0x34(%rbp)
  408adc:	44 89 45 c8          	mov    %r8d,-0x38(%rbp)
  408ae0:	64 48 8b 04 25 28 00 	mov    %fs:0x28,%rax
  408ae7:	00 00 
  408ae9:	48 89 45 e8          	mov    %rax,-0x18(%rbp)
  408aed:	31 c0                	xor    %eax,%eax
  408aef:	48 8b 45 d8          	mov    -0x28(%rbp),%rax
  408af3:	8b 7d c8             	mov    -0x38(%rbp),%edi
  408af6:	8b 4d cc             	mov    -0x34(%rbp),%ecx
  408af9:	8b 55 d0             	mov    -0x30(%rbp),%edx
  408afc:	8b 75 d4             	mov    -0x2c(%rbp),%esi
  408aff:	41 89 f8             	mov    %edi,%r8d
  408b02:	48 89 c7             	mov    %rax,%rdi
  408b05:	e8 c8 14 00 00       	callq  409fd2 <_ZN11arm_compute10DimensionsImEC1IJjjjjEEEDpT_>
  408b0a:	48 8b 45 d8          	mov    -0x28(%rbp),%rax
  408b0e:	48 8b 40 30          	mov    0x30(%rax),%rax
  408b12:	48 85 c0             	test   %rax,%rax
  408b15:	74 47                	je     408b5e <_ZN11arm_compute11TensorShapeC1IJjjjjEEEDpT_+0x98>
  408b17:	c7 45 e4 01 00 00 00 	movl   $0x1,-0x1c(%rbp)
  408b1e:	48 8b 45 d8          	mov    -0x28(%rbp),%rax
  408b22:	48 89 c7             	mov    %rax,%rdi
  408b25:	e8 62 fb ff ff       	callq  40868c <_ZNSt5arrayImLm6EE3endEv>
  408b2a:	48 89 c3             	mov    %rax,%rbx
  408b2d:	48 8b 45 d8          	mov    -0x28(%rbp),%rax
  408b31:	48 89 c7             	mov    %rax,%rdi
  408b34:	e8 39 fb ff ff       	callq  408672 <_ZNSt5arrayImLm6EE5beginEv>
  408b39:	48 89 c2             	mov    %rax,%rdx
  408b3c:	48 8b 45 d8          	mov    -0x28(%rbp),%rax
  408b40:	48 8b 40 30          	mov    0x30(%rax),%rax
  408b44:	48 c1 e0 03          	shl    $0x3,%rax
  408b48:	48 8d 0c 02          	lea    (%rdx,%rax,1),%rcx
  408b4c:	48 8d 45 e4          	lea    -0x1c(%rbp),%rax
  408b50:	48 89 c2             	mov    %rax,%rdx
  408b53:	48 89 de             	mov    %rbx,%rsi
  408b56:	48 89 cf             	mov    %rcx,%rdi
  408b59:	e8 d9 ee ff ff       	callq  407a37 <_ZSt4fillIPmiEvT_S1_RKT0_>
  408b5e:	48 8b 45 d8          	mov    -0x28(%rbp),%rax
  408b62:	48 89 c7             	mov    %rax,%rdi
  408b65:	e8 fe dd ff ff       	callq  406968 <_ZN11arm_compute11TensorShape26apply_dimension_correctionEv>
  408b6a:	90                   	nop
  408b6b:	48 8b 45 e8          	mov    -0x18(%rbp),%rax
  408b6f:	64 48 33 04 25 28 00 	xor    %fs:0x28,%rax
  408b76:	00 00 
  408b78:	74 05                	je     408b7f <_ZN11arm_compute11TensorShapeC1IJjjjjEEEDpT_+0xb9>
  408b7a:	e8 b1 b3 ff ff       	callq  403f30 <__stack_chk_fail@plt>
  408b7f:	48 83 c4 38          	add    $0x38,%rsp
  408b83:	5b                   	pop    %rbx
  408b84:	5d                   	pop    %rbp
  408b85:	c3                   	retq   

0000000000408b86 <_ZN2CK19get_random_raw_dataIfEEPT_RKNS_5ShapeE>:
  408b86:	55                   	push   %rbp
  408b87:	48 89 e5             	mov    %rsp,%rbp
  408b8a:	53                   	push   %rbx
  408b8b:	48 83 ec 38          	sub    $0x38,%rsp
  408b8f:	48 89 7d c8          	mov    %rdi,-0x38(%rbp)
  408b93:	ba 20 00 00 00       	mov    $0x20,%edx
  408b98:	be 09 06 41 00       	mov    $0x410609,%esi
  408b9d:	bf 09 00 00 00       	mov    $0x9,%edi
  408ba2:	e8 bd e7 ff ff       	callq  407364 <_ZN2CK13store_value_iEiPKci>
  408ba7:	c7 45 dc 40 42 0f 00 	movl   $0xf4240,-0x24(%rbp)
  408bae:	c7 45 e0 81 84 1e 00 	movl   $0x1e8481,-0x20(%rbp)
  408bb5:	48 8b 45 c8          	mov    -0x38(%rbp),%rax
  408bb9:	48 89 c7             	mov    %rax,%rdi
  408bbc:	e8 bd e6 ff ff       	callq  40727e <_ZNK2CK5Shape10data_countEv>
  408bc1:	89 45 e4             	mov    %eax,-0x1c(%rbp)
  408bc4:	8b 45 e4             	mov    -0x1c(%rbp),%eax
  408bc7:	48 63 d0             	movslq %eax,%rdx
  408bca:	48 b8 fe ff ff ff ff 	movabs $0x1ffffffffffffffe,%rax
  408bd1:	ff ff 1f 
  408bd4:	48 39 c2             	cmp    %rax,%rdx
  408bd7:	77 1e                	ja     408bf7 <_ZN2CK19get_random_raw_dataIfEEPT_RKNS_5ShapeE+0x71>
  408bd9:	8b 45 e4             	mov    -0x1c(%rbp),%eax
  408bdc:	48 98                	cltq   
  408bde:	48 c1 e0 02          	shl    $0x2,%rax
  408be2:	48 89 c7             	mov    %rax,%rdi
  408be5:	e8 e6 b0 ff ff       	callq  403cd0 <_Znam@plt>
  408bea:	48 89 45 e8          	mov    %rax,-0x18(%rbp)
  408bee:	c7 45 d8 00 00 00 00 	movl   $0x0,-0x28(%rbp)
  408bf5:	eb 05                	jmp    408bfc <_ZN2CK19get_random_raw_dataIfEEPT_RKNS_5ShapeE+0x76>
  408bf7:	e8 64 b4 ff ff       	callq  404060 <__cxa_throw_bad_array_new_length@plt>
  408bfc:	8b 45 d8             	mov    -0x28(%rbp),%eax
  408bff:	3b 45 e4             	cmp    -0x1c(%rbp),%eax
  408c02:	7d 5e                	jge    408c62 <_ZN2CK19get_random_raw_dataIfEEPT_RKNS_5ShapeE+0xdc>
  408c04:	8b 45 d8             	mov    -0x28(%rbp),%eax
  408c07:	48 98                	cltq   
  408c09:	48 8d 14 85 00 00 00 	lea    0x0(,%rax,4),%rdx
  408c10:	00 
  408c11:	48 8b 45 e8          	mov    -0x18(%rbp),%rax
  408c15:	48 8d 1c 02          	lea    (%rdx,%rax,1),%rbx
  408c19:	e8 62 b1 ff ff       	callq  403d80 <rand@plt>
  408c1e:	89 c1                	mov    %eax,%ecx
  408c20:	ba c5 bd 31 04       	mov    $0x431bdc5,%edx
  408c25:	89 c8                	mov    %ecx,%eax
  408c27:	f7 ea                	imul   %edx
  408c29:	c1 fa 0f             	sar    $0xf,%edx
  408c2c:	89 c8                	mov    %ecx,%eax
  408c2e:	c1 f8 1f             	sar    $0x1f,%eax
  408c31:	29 c2                	sub    %eax,%edx
  408c33:	89 d0                	mov    %edx,%eax
  408c35:	69 c0 81 84 1e 00    	imul   $0x1e8481,%eax,%eax
  408c3b:	29 c1                	sub    %eax,%ecx
  408c3d:	89 c8                	mov    %ecx,%eax
  408c3f:	2d 40 42 0f 00       	sub    $0xf4240,%eax
  408c44:	66 0f ef c0          	pxor   %xmm0,%xmm0
  408c48:	f3 0f 2a c0          	cvtsi2ss %eax,%xmm0
  408c4c:	f3 0f 10 0d b8 7a 00 	movss  0x7ab8(%rip),%xmm1        # 41070c <_ZN11arm_computeL19max_cl_vector_widthE+0x298>
  408c53:	00 
  408c54:	f3 0f 5e c1          	divss  %xmm1,%xmm0
  408c58:	f3 0f 11 03          	movss  %xmm0,(%rbx)
  408c5c:	83 45 d8 01          	addl   $0x1,-0x28(%rbp)
  408c60:	eb 9a                	jmp    408bfc <_ZN2CK19get_random_raw_dataIfEEPT_RKNS_5ShapeE+0x76>
  408c62:	48 8b 45 e8          	mov    -0x18(%rbp),%rax
  408c66:	48 83 c4 38          	add    $0x38,%rsp
  408c6a:	5b                   	pop    %rbx
  408c6b:	5d                   	pop    %rbp
  408c6c:	c3                   	retq   

0000000000408c6d <_ZN2CK20print_input_raw_dataIfEEvPT_RKNS_5ShapeE>:
  408c6d:	55                   	push   %rbp
  408c6e:	48 89 e5             	mov    %rsp,%rbp
  408c71:	48 83 ec 10          	sub    $0x10,%rsp
  408c75:	48 89 7d f8          	mov    %rdi,-0x8(%rbp)
  408c79:	48 89 75 f0          	mov    %rsi,-0x10(%rbp)
  408c7d:	48 8b 75 f0          	mov    -0x10(%rbp),%rsi
  408c81:	48 8b 45 f8          	mov    -0x8(%rbp),%rax
  408c85:	b9 13 06 41 00       	mov    $0x410613,%ecx
  408c8a:	ba 19 06 41 00       	mov    $0x410619,%edx
  408c8f:	48 89 c7             	mov    %rax,%rdi
  408c92:	e8 a4 13 00 00       	callq  40a03b <_ZN2CK12log_raw_dataIfEEvPT_RKNS_5ShapeEPKcS7_>
  408c97:	90                   	nop
  408c98:	c9                   	leaveq 
  408c99:	c3                   	retq   

0000000000408c9a <_ZZN2CK5armcl23copy_raw_data_to_tensorIfEEvPN11arm_compute8CLTensorEPT_RKNS_5ShapeEENKUlRKNS2_11CoordinatesEE_clESC_>:
  408c9a:	55                   	push   %rbp
  408c9b:	48 89 e5             	mov    %rsp,%rbp
  408c9e:	41 54                	push   %r12
  408ca0:	53                   	push   %rbx
  408ca1:	48 83 ec 10          	sub    $0x10,%rsp
  408ca5:	48 89 7d e8          	mov    %rdi,-0x18(%rbp)
  408ca9:	48 89 75 e0          	mov    %rsi,-0x20(%rbp)
  408cad:	48 8b 45 e8          	mov    -0x18(%rbp),%rax
  408cb1:	48 8b 00             	mov    (%rax),%rax
  408cb4:	48 89 c7             	mov    %rax,%rdi
  408cb7:	e8 f4 e2 ff ff       	callq  406fb0 <_ZNK11arm_compute8Iterator3ptrEv>
  408cbc:	49 89 c4             	mov    %rax,%r12
  408cbf:	48 8b 45 e8          	mov    -0x18(%rbp),%rax
  408cc3:	48 8b 40 08          	mov    0x8(%rax),%rax
  408cc7:	48 8b 18             	mov    (%rax),%rbx
  408cca:	48 8b 45 e8          	mov    -0x18(%rbp),%rax
  408cce:	48 8b 40 10          	mov    0x10(%rax),%rax
  408cd2:	48 8b 55 e0          	mov    -0x20(%rbp),%rdx
  408cd6:	48 89 d6             	mov    %rdx,%rsi
  408cd9:	48 89 c7             	mov    %rax,%rdi
  408cdc:	e8 2d eb ff ff       	callq  40780e <_ZN2CK5armcl14get_flat_indexERKNS_5ShapeERKN11arm_compute11CoordinatesE>
  408ce1:	48 98                	cltq   
  408ce3:	48 c1 e0 02          	shl    $0x2,%rax
  408ce7:	48 01 d8             	add    %rbx,%rax
  408cea:	f3 0f 10 00          	movss  (%rax),%xmm0
  408cee:	f3 41 0f 11 04 24    	movss  %xmm0,(%r12)
  408cf4:	90                   	nop
  408cf5:	48 83 c4 10          	add    $0x10,%rsp
  408cf9:	5b                   	pop    %rbx
  408cfa:	41 5c                	pop    %r12
  408cfc:	5d                   	pop    %rbp
  408cfd:	c3                   	retq   

0000000000408cfe <_ZN2CK5armcl23copy_raw_data_to_tensorIfEEvPN11arm_compute8CLTensorEPT_RKNS_5ShapeE>:
  408cfe:	55                   	push   %rbp
  408cff:	48 89 e5             	mov    %rsp,%rbp
  408d02:	48 81 ec d0 00 00 00 	sub    $0xd0,%rsp
  408d09:	48 89 bd 48 ff ff ff 	mov    %rdi,-0xb8(%rbp)
  408d10:	48 89 b5 40 ff ff ff 	mov    %rsi,-0xc0(%rbp)
  408d17:	48 89 95 38 ff ff ff 	mov    %rdx,-0xc8(%rbp)
  408d1e:	64 48 8b 04 25 28 00 	mov    %fs:0x28,%rax
  408d25:	00 00 
  408d27:	48 89 45 f8          	mov    %rax,-0x8(%rbp)
  408d2b:	31 c0                	xor    %eax,%eax
  408d2d:	c7 45 b0 00 00 00 00 	movl   $0x0,-0x50(%rbp)
  408d34:	c7 45 b4 01 00 00 00 	movl   $0x1,-0x4c(%rbp)
  408d3b:	c7 45 b8 01 00 00 00 	movl   $0x1,-0x48(%rbp)
  408d42:	c7 45 bc 00 00 00 00 	movl   $0x0,-0x44(%rbp)
  408d49:	c7 45 c0 01 00 00 00 	movl   $0x1,-0x40(%rbp)
  408d50:	c7 45 c4 01 00 00 00 	movl   $0x1,-0x3c(%rbp)
  408d57:	c7 45 c8 00 00 00 00 	movl   $0x0,-0x38(%rbp)
  408d5e:	c7 45 cc 01 00 00 00 	movl   $0x1,-0x34(%rbp)
  408d65:	c7 45 d0 01 00 00 00 	movl   $0x1,-0x30(%rbp)
  408d6c:	c7 45 d4 00 00 00 00 	movl   $0x0,-0x2c(%rbp)
  408d73:	c7 45 d8 01 00 00 00 	movl   $0x1,-0x28(%rbp)
  408d7a:	c7 45 dc 01 00 00 00 	movl   $0x1,-0x24(%rbp)
  408d81:	c7 45 e0 00 00 00 00 	movl   $0x0,-0x20(%rbp)
  408d88:	c7 45 e4 01 00 00 00 	movl   $0x1,-0x1c(%rbp)
  408d8f:	c7 45 e8 01 00 00 00 	movl   $0x1,-0x18(%rbp)
  408d96:	c7 45 ec 00 00 00 00 	movl   $0x0,-0x14(%rbp)
  408d9d:	c7 45 f0 01 00 00 00 	movl   $0x1,-0x10(%rbp)
  408da4:	c7 45 f4 01 00 00 00 	movl   $0x1,-0xc(%rbp)
  408dab:	48 8b 85 48 ff ff ff 	mov    -0xb8(%rbp),%rax
  408db2:	48 8b 00             	mov    (%rax),%rax
  408db5:	48 83 c0 08          	add    $0x8,%rax
  408db9:	48 8b 00             	mov    (%rax),%rax
  408dbc:	48 8b 95 48 ff ff ff 	mov    -0xb8(%rbp),%rdx
  408dc3:	48 89 d7             	mov    %rdx,%rdi
  408dc6:	ff d0                	callq  *%rax
  408dc8:	48 89 c2             	mov    %rax,%rdx
  408dcb:	48 8d 85 70 ff ff ff 	lea    -0x90(%rbp),%rax
  408dd2:	48 89 d6             	mov    %rdx,%rsi
  408dd5:	48 89 c7             	mov    %rax,%rdi
  408dd8:	e8 e5 ea ff ff       	callq  4078c2 <_ZN2CK5armcl20tensor_info_to_shapeEPKN11arm_compute10TensorInfoE>
  408ddd:	48 8d 8d 70 ff ff ff 	lea    -0x90(%rbp),%rcx
  408de4:	48 8d 45 b0          	lea    -0x50(%rbp),%rax
  408de8:	ba 00 00 00 00       	mov    $0x0,%edx
  408ded:	48 89 ce             	mov    %rcx,%rsi
  408df0:	48 89 c7             	mov    %rax,%rdi
  408df3:	e8 4a dd ff ff       	callq  406b42 <_ZN11arm_compute6Window21use_tensor_dimensionsERKNS_11TensorShapeEm>
  408df8:	48 8b 85 48 ff ff ff 	mov    -0xb8(%rbp),%rax
  408dff:	be 01 00 00 00       	mov    $0x1,%esi
  408e04:	48 89 c7             	mov    %rax,%rdi
  408e07:	e8 a4 b3 ff ff       	callq  4041b0 <_ZN11arm_compute8CLTensor3mapEb@plt>
  408e0c:	48 8d 55 b0          	lea    -0x50(%rbp),%rdx
  408e10:	48 8b 8d 48 ff ff ff 	mov    -0xb8(%rbp),%rcx
  408e17:	48 8d 85 70 ff ff ff 	lea    -0x90(%rbp),%rax
  408e1e:	48 89 ce             	mov    %rcx,%rsi
  408e21:	48 89 c7             	mov    %rax,%rdi
  408e24:	e8 eb de ff ff       	callq  406d14 <_ZN11arm_compute8IteratorC1EPKNS_7ITensorERKNS_6WindowE>
  408e29:	48 8d 85 70 ff ff ff 	lea    -0x90(%rbp),%rax
  408e30:	48 89 85 50 ff ff ff 	mov    %rax,-0xb0(%rbp)
  408e37:	48 8d 85 40 ff ff ff 	lea    -0xc0(%rbp),%rax
  408e3e:	48 89 85 58 ff ff ff 	mov    %rax,-0xa8(%rbp)
  408e45:	48 8b 85 38 ff ff ff 	mov    -0xc8(%rbp),%rax
  408e4c:	48 89 85 60 ff ff ff 	mov    %rax,-0xa0(%rbp)
  408e53:	48 8d 95 70 ff ff ff 	lea    -0x90(%rbp),%rdx
  408e5a:	48 8d 8d 50 ff ff ff 	lea    -0xb0(%rbp),%rcx
  408e61:	48 8d 45 b0          	lea    -0x50(%rbp),%rax
  408e65:	48 89 ce             	mov    %rcx,%rsi
  408e68:	48 89 c7             	mov    %rax,%rdi
  408e6b:	e8 5e 12 00 00       	callq  40a0ce <_ZN11arm_compute19execute_window_loopIZN2CK5armcl23copy_raw_data_to_tensorIfEEvPNS_8CLTensorEPT_RKNS1_5ShapeEEUlRKNS_11CoordinatesEE_JRNS_8IteratorEEEEvRKNS_6WindowEOS6_DpOT0_>
  408e70:	48 8b 85 48 ff ff ff 	mov    -0xb8(%rbp),%rax
  408e77:	48 89 c7             	mov    %rax,%rdi
  408e7a:	e8 11 af ff ff       	callq  403d90 <_ZN11arm_compute8CLTensor5unmapEv@plt>
  408e7f:	90                   	nop
  408e80:	48 8b 45 f8          	mov    -0x8(%rbp),%rax
  408e84:	64 48 33 04 25 28 00 	xor    %fs:0x28,%rax
  408e8b:	00 00 
  408e8d:	74 05                	je     408e94 <_ZN2CK5armcl23copy_raw_data_to_tensorIfEEvPN11arm_compute8CLTensorEPT_RKNS_5ShapeE+0x196>
  408e8f:	e8 9c b0 ff ff       	callq  403f30 <__stack_chk_fail@plt>
  408e94:	c9                   	leaveq 
  408e95:	c3                   	retq   

0000000000408e96 <_ZZN2CK5armcl25copy_raw_data_from_tensorIfEEvPN11arm_compute8CLTensorEPT_RKNS_5ShapeEENKUlRKNS2_11CoordinatesEE_clESC_>:
  408e96:	55                   	push   %rbp
  408e97:	48 89 e5             	mov    %rsp,%rbp
  408e9a:	53                   	push   %rbx
  408e9b:	48 83 ec 18          	sub    $0x18,%rsp
  408e9f:	48 89 7d e8          	mov    %rdi,-0x18(%rbp)
  408ea3:	48 89 75 e0          	mov    %rsi,-0x20(%rbp)
  408ea7:	48 8b 45 e8          	mov    -0x18(%rbp),%rax
  408eab:	48 8b 00             	mov    (%rax),%rax
  408eae:	48 8b 18             	mov    (%rax),%rbx
  408eb1:	48 8b 45 e8          	mov    -0x18(%rbp),%rax
  408eb5:	48 8b 40 08          	mov    0x8(%rax),%rax
  408eb9:	48 8b 55 e0          	mov    -0x20(%rbp),%rdx
  408ebd:	48 89 d6             	mov    %rdx,%rsi
  408ec0:	48 89 c7             	mov    %rax,%rdi
  408ec3:	e8 46 e9 ff ff       	callq  40780e <_ZN2CK5armcl14get_flat_indexERKNS_5ShapeERKN11arm_compute11CoordinatesE>
  408ec8:	48 98                	cltq   
  408eca:	48 c1 e0 02          	shl    $0x2,%rax
  408ece:	48 01 c3             	add    %rax,%rbx
  408ed1:	48 8b 45 e8          	mov    -0x18(%rbp),%rax
  408ed5:	48 8b 40 10          	mov    0x10(%rax),%rax
  408ed9:	48 89 c7             	mov    %rax,%rdi
  408edc:	e8 cf e0 ff ff       	callq  406fb0 <_ZNK11arm_compute8Iterator3ptrEv>
  408ee1:	f3 0f 10 00          	movss  (%rax),%xmm0
  408ee5:	f3 0f 11 03          	movss  %xmm0,(%rbx)
  408ee9:	90                   	nop
  408eea:	48 83 c4 18          	add    $0x18,%rsp
  408eee:	5b                   	pop    %rbx
  408eef:	5d                   	pop    %rbp
  408ef0:	c3                   	retq   

0000000000408ef1 <_ZN2CK5armcl25copy_raw_data_from_tensorIfEEvPN11arm_compute8CLTensorEPT_RKNS_5ShapeE>:
  408ef1:	55                   	push   %rbp
  408ef2:	48 89 e5             	mov    %rsp,%rbp
  408ef5:	48 81 ec d0 00 00 00 	sub    $0xd0,%rsp
  408efc:	48 89 bd 48 ff ff ff 	mov    %rdi,-0xb8(%rbp)
  408f03:	48 89 b5 40 ff ff ff 	mov    %rsi,-0xc0(%rbp)
  408f0a:	48 89 95 38 ff ff ff 	mov    %rdx,-0xc8(%rbp)
  408f11:	64 48 8b 04 25 28 00 	mov    %fs:0x28,%rax
  408f18:	00 00 
  408f1a:	48 89 45 f8          	mov    %rax,-0x8(%rbp)
  408f1e:	31 c0                	xor    %eax,%eax
  408f20:	c7 45 b0 00 00 00 00 	movl   $0x0,-0x50(%rbp)
  408f27:	c7 45 b4 01 00 00 00 	movl   $0x1,-0x4c(%rbp)
  408f2e:	c7 45 b8 01 00 00 00 	movl   $0x1,-0x48(%rbp)
  408f35:	c7 45 bc 00 00 00 00 	movl   $0x0,-0x44(%rbp)
  408f3c:	c7 45 c0 01 00 00 00 	movl   $0x1,-0x40(%rbp)
  408f43:	c7 45 c4 01 00 00 00 	movl   $0x1,-0x3c(%rbp)
  408f4a:	c7 45 c8 00 00 00 00 	movl   $0x0,-0x38(%rbp)
  408f51:	c7 45 cc 01 00 00 00 	movl   $0x1,-0x34(%rbp)
  408f58:	c7 45 d0 01 00 00 00 	movl   $0x1,-0x30(%rbp)
  408f5f:	c7 45 d4 00 00 00 00 	movl   $0x0,-0x2c(%rbp)
  408f66:	c7 45 d8 01 00 00 00 	movl   $0x1,-0x28(%rbp)
  408f6d:	c7 45 dc 01 00 00 00 	movl   $0x1,-0x24(%rbp)
  408f74:	c7 45 e0 00 00 00 00 	movl   $0x0,-0x20(%rbp)
  408f7b:	c7 45 e4 01 00 00 00 	movl   $0x1,-0x1c(%rbp)
  408f82:	c7 45 e8 01 00 00 00 	movl   $0x1,-0x18(%rbp)
  408f89:	c7 45 ec 00 00 00 00 	movl   $0x0,-0x14(%rbp)
  408f90:	c7 45 f0 01 00 00 00 	movl   $0x1,-0x10(%rbp)
  408f97:	c7 45 f4 01 00 00 00 	movl   $0x1,-0xc(%rbp)
  408f9e:	48 8b 85 48 ff ff ff 	mov    -0xb8(%rbp),%rax
  408fa5:	48 8b 00             	mov    (%rax),%rax
  408fa8:	48 83 c0 08          	add    $0x8,%rax
  408fac:	48 8b 00             	mov    (%rax),%rax
  408faf:	48 8b 95 48 ff ff ff 	mov    -0xb8(%rbp),%rdx
  408fb6:	48 89 d7             	mov    %rdx,%rdi
  408fb9:	ff d0                	callq  *%rax
  408fbb:	48 89 c2             	mov    %rax,%rdx
  408fbe:	48 8d 85 70 ff ff ff 	lea    -0x90(%rbp),%rax
  408fc5:	48 89 d6             	mov    %rdx,%rsi
  408fc8:	48 89 c7             	mov    %rax,%rdi
  408fcb:	e8 f2 e8 ff ff       	callq  4078c2 <_ZN2CK5armcl20tensor_info_to_shapeEPKN11arm_compute10TensorInfoE>
  408fd0:	48 8d 8d 70 ff ff ff 	lea    -0x90(%rbp),%rcx
  408fd7:	48 8d 45 b0          	lea    -0x50(%rbp),%rax
  408fdb:	ba 00 00 00 00       	mov    $0x0,%edx
  408fe0:	48 89 ce             	mov    %rcx,%rsi
  408fe3:	48 89 c7             	mov    %rax,%rdi
  408fe6:	e8 57 db ff ff       	callq  406b42 <_ZN11arm_compute6Window21use_tensor_dimensionsERKNS_11TensorShapeEm>
  408feb:	48 8b 85 48 ff ff ff 	mov    -0xb8(%rbp),%rax
  408ff2:	be 01 00 00 00       	mov    $0x1,%esi
  408ff7:	48 89 c7             	mov    %rax,%rdi
  408ffa:	e8 b1 b1 ff ff       	callq  4041b0 <_ZN11arm_compute8CLTensor3mapEb@plt>
  408fff:	48 8d 55 b0          	lea    -0x50(%rbp),%rdx
  409003:	48 8b 8d 48 ff ff ff 	mov    -0xb8(%rbp),%rcx
  40900a:	48 8d 85 70 ff ff ff 	lea    -0x90(%rbp),%rax
  409011:	48 89 ce             	mov    %rcx,%rsi
  409014:	48 89 c7             	mov    %rax,%rdi
  409017:	e8 f8 dc ff ff       	callq  406d14 <_ZN11arm_compute8IteratorC1EPKNS_7ITensorERKNS_6WindowE>
  40901c:	48 8d 85 40 ff ff ff 	lea    -0xc0(%rbp),%rax
  409023:	48 89 85 50 ff ff ff 	mov    %rax,-0xb0(%rbp)
  40902a:	48 8b 85 38 ff ff ff 	mov    -0xc8(%rbp),%rax
  409031:	48 89 85 58 ff ff ff 	mov    %rax,-0xa8(%rbp)
  409038:	48 8d 85 70 ff ff ff 	lea    -0x90(%rbp),%rax
  40903f:	48 89 85 60 ff ff ff 	mov    %rax,-0xa0(%rbp)
  409046:	48 8d 95 70 ff ff ff 	lea    -0x90(%rbp),%rdx
  40904d:	48 8d 8d 50 ff ff ff 	lea    -0xb0(%rbp),%rcx
  409054:	48 8d 45 b0          	lea    -0x50(%rbp),%rax
  409058:	48 89 ce             	mov    %rcx,%rsi
  40905b:	48 89 c7             	mov    %rax,%rdi
  40905e:	e8 02 11 00 00       	callq  40a165 <_ZN11arm_compute19execute_window_loopIZN2CK5armcl25copy_raw_data_from_tensorIfEEvPNS_8CLTensorEPT_RKNS1_5ShapeEEUlRKNS_11CoordinatesEE_JRNS_8IteratorEEEEvRKNS_6WindowEOS6_DpOT0_>
  409063:	48 8b 85 48 ff ff ff 	mov    -0xb8(%rbp),%rax
  40906a:	48 89 c7             	mov    %rax,%rdi
  40906d:	e8 1e ad ff ff       	callq  403d90 <_ZN11arm_compute8CLTensor5unmapEv@plt>
  409072:	90                   	nop
  409073:	48 8b 45 f8          	mov    -0x8(%rbp),%rax
  409077:	64 48 33 04 25 28 00 	xor    %fs:0x28,%rax
  40907e:	00 00 
  409080:	74 05                	je     409087 <_ZN2CK5armcl25copy_raw_data_from_tensorIfEEvPN11arm_compute8CLTensorEPT_RKNS_5ShapeE+0x196>
  409082:	e8 a9 ae ff ff       	callq  403f30 <__stack_chk_fail@plt>
  409087:	c9                   	leaveq 
  409088:	c3                   	retq   

0000000000409089 <_ZN2CK21print_output_raw_dataIfEEvPT_RKNS_5ShapeE>:
  409089:	55                   	push   %rbp
  40908a:	48 89 e5             	mov    %rsp,%rbp
  40908d:	48 83 ec 10          	sub    $0x10,%rsp
  409091:	48 89 7d f8          	mov    %rdi,-0x8(%rbp)
  409095:	48 89 75 f0          	mov    %rsi,-0x10(%rbp)
  409099:	48 8b 75 f0          	mov    -0x10(%rbp),%rsi
  40909d:	48 8b 45 f8          	mov    -0x8(%rbp),%rax
  4090a1:	b9 2c 06 41 00       	mov    $0x41062c,%ecx
  4090a6:	ba 33 06 41 00       	mov    $0x410633,%edx
  4090ab:	48 89 c7             	mov    %rax,%rdi
  4090ae:	e8 88 0f 00 00       	callq  40a03b <_ZN2CK12log_raw_dataIfEEvPT_RKNS_5ShapeEPKcS7_>
  4090b3:	90                   	nop
  4090b4:	c9                   	leaveq 
  4090b5:	c3                   	retq   

00000000004090b6 <_ZN2CK20dump_output_raw_dataIfEEvPT_RKNS_5ShapeE>:
  4090b6:	55                   	push   %rbp
  4090b7:	48 89 e5             	mov    %rsp,%rbp
  4090ba:	48 83 ec 20          	sub    $0x20,%rsp
  4090be:	48 89 7d e8          	mov    %rdi,-0x18(%rbp)
  4090c2:	48 89 75 e0          	mov    %rsi,-0x20(%rbp)
  4090c6:	bf 47 06 41 00       	mov    $0x410647,%edi
  4090cb:	e8 b0 ae ff ff       	callq  403f80 <getenv@plt>
  4090d0:	48 89 45 f8          	mov    %rax,-0x8(%rbp)
  4090d4:	48 83 7d f8 00       	cmpq   $0x0,-0x8(%rbp)
  4090d9:	0f 84 89 00 00 00    	je     409168 <_ZN2CK20dump_output_raw_dataIfEEvPT_RKNS_5ShapeE+0xb2>
  4090df:	48 8b 45 e0          	mov    -0x20(%rbp),%rax
  4090e3:	48 89 c7             	mov    %rax,%rdi
  4090e6:	e8 93 e1 ff ff       	callq  40727e <_ZNK2CK5Shape10data_countEv>
  4090eb:	48 98                	cltq   
  4090ed:	48 c1 e0 02          	shl    $0x2,%rax
  4090f1:	48 89 c2             	mov    %rax,%rdx
  4090f4:	48 8b 4d e8          	mov    -0x18(%rbp),%rcx
  4090f8:	48 8b 45 f8          	mov    -0x8(%rbp),%rax
  4090fc:	48 89 ce             	mov    %rcx,%rsi
  4090ff:	48 89 c7             	mov    %rax,%rdi
  409102:	e8 e9 ac ff ff       	callq  403df0 <xopenme_dump_memory@plt>
  409107:	48 8b 45 e0          	mov    -0x20(%rbp),%rax
  40910b:	8b 00                	mov    (%rax),%eax
  40910d:	89 c2                	mov    %eax,%edx
  40910f:	be 57 06 41 00       	mov    $0x410657,%esi
  409114:	bf 00 00 00 00       	mov    $0x0,%edi
  409119:	e8 46 e2 ff ff       	callq  407364 <_ZN2CK13store_value_iEiPKci>
  40911e:	48 8b 45 e0          	mov    -0x20(%rbp),%rax
  409122:	8b 40 04             	mov    0x4(%rax),%eax
  409125:	89 c2                	mov    %eax,%edx
  409127:	be 63 06 41 00       	mov    $0x410663,%esi
  40912c:	bf 01 00 00 00       	mov    $0x1,%edi
  409131:	e8 2e e2 ff ff       	callq  407364 <_ZN2CK13store_value_iEiPKci>
  409136:	48 8b 45 e0          	mov    -0x20(%rbp),%rax
  40913a:	8b 40 08             	mov    0x8(%rax),%eax
  40913d:	89 c2                	mov    %eax,%edx
  40913f:	be 6f 06 41 00       	mov    $0x41066f,%esi
  409144:	bf 02 00 00 00       	mov    $0x2,%edi
  409149:	e8 16 e2 ff ff       	callq  407364 <_ZN2CK13store_value_iEiPKci>
  40914e:	48 8b 45 e0          	mov    -0x20(%rbp),%rax
  409152:	8b 40 0c             	mov    0xc(%rax),%eax
  409155:	89 c2                	mov    %eax,%edx
  409157:	be 7b 06 41 00       	mov    $0x41067b,%esi
  40915c:	bf 03 00 00 00       	mov    $0x3,%edi
  409161:	e8 fe e1 ff ff       	callq  407364 <_ZN2CK13store_value_iEiPKci>
  409166:	eb 01                	jmp    409169 <_ZN2CK20dump_output_raw_dataIfEEvPT_RKNS_5ShapeE+0xb3>
  409168:	90                   	nop
  409169:	c9                   	leaveq 
  40916a:	c3                   	retq   

000000000040916b <_ZSt12__niter_baseIPmET_S1_>:
  40916b:	55                   	push   %rbp
  40916c:	48 89 e5             	mov    %rsp,%rbp
  40916f:	48 89 7d f8          	mov    %rdi,-0x8(%rbp)
  409173:	48 8b 45 f8          	mov    -0x8(%rbp),%rax
  409177:	5d                   	pop    %rbp
  409178:	c3                   	retq   

0000000000409179 <_ZSt8__fill_aIPmiEN9__gnu_cxx11__enable_ifIXsrSt11__is_scalarIT0_E7__valueEvE6__typeET_S8_RKS4_>:
  409179:	55                   	push   %rbp
  40917a:	48 89 e5             	mov    %rsp,%rbp
  40917d:	48 89 7d e8          	mov    %rdi,-0x18(%rbp)
  409181:	48 89 75 e0          	mov    %rsi,-0x20(%rbp)
  409185:	48 89 55 d8          	mov    %rdx,-0x28(%rbp)
  409189:	48 8b 45 d8          	mov    -0x28(%rbp),%rax
  40918d:	8b 00                	mov    (%rax),%eax
  40918f:	89 45 fc             	mov    %eax,-0x4(%rbp)
  409192:	48 8b 45 e8          	mov    -0x18(%rbp),%rax
  409196:	48 3b 45 e0          	cmp    -0x20(%rbp),%rax
  40919a:	74 14                	je     4091b0 <_ZSt8__fill_aIPmiEN9__gnu_cxx11__enable_ifIXsrSt11__is_scalarIT0_E7__valueEvE6__typeET_S8_RKS4_+0x37>
  40919c:	8b 45 fc             	mov    -0x4(%rbp),%eax
  40919f:	48 63 d0             	movslq %eax,%rdx
  4091a2:	48 8b 45 e8          	mov    -0x18(%rbp),%rax
  4091a6:	48 89 10             	mov    %rdx,(%rax)
  4091a9:	48 83 45 e8 08       	addq   $0x8,-0x18(%rbp)
  4091ae:	eb e2                	jmp    409192 <_ZSt8__fill_aIPmiEN9__gnu_cxx11__enable_ifIXsrSt11__is_scalarIT0_E7__valueEvE6__typeET_S8_RKS4_+0x19>
  4091b0:	90                   	nop
  4091b1:	5d                   	pop    %rbp
  4091b2:	c3                   	retq   

00000000004091b3 <_ZSt8__invokeIRFvvEJEENSt9result_ofIFOT_DpOT0_EE4typeES4_S7_>:
  4091b3:	55                   	push   %rbp
  4091b4:	48 89 e5             	mov    %rsp,%rbp
  4091b7:	53                   	push   %rbx
  4091b8:	48 83 ec 28          	sub    $0x28,%rsp
  4091bc:	48 89 7d d8          	mov    %rdi,-0x28(%rbp)
  4091c0:	64 48 8b 04 25 28 00 	mov    %fs:0x28,%rax
  4091c7:	00 00 
  4091c9:	48 89 45 e8          	mov    %rax,-0x18(%rbp)
  4091cd:	31 c0                	xor    %eax,%eax
  4091cf:	48 8b 45 d8          	mov    -0x28(%rbp),%rax
  4091d3:	48 89 c7             	mov    %rax,%rdi
  4091d6:	e8 eb e8 ff ff       	callq  407ac6 <_ZSt7forwardIRFvvEEOT_RNSt16remove_referenceIS2_E4typeE>
  4091db:	48 83 ec 08          	sub    $0x8,%rsp
  4091df:	53                   	push   %rbx
  4091e0:	48 89 c7             	mov    %rax,%rdi
  4091e3:	e8 06 10 00 00       	callq  40a1ee <_ZSt13__invoke_implIvRFvvEJEET_St14__invoke_otherOT0_DpOT1_>
  4091e8:	48 83 c4 10          	add    $0x10,%rsp
  4091ec:	48 8b 45 e8          	mov    -0x18(%rbp),%rax
  4091f0:	64 48 33 04 25 28 00 	xor    %fs:0x28,%rax
  4091f7:	00 00 
  4091f9:	74 05                	je     409200 <_ZSt8__invokeIRFvvEJEENSt9result_ofIFOT_DpOT0_EE4typeES4_S7_+0x4d>
  4091fb:	e8 30 ad ff ff       	callq  403f30 <__stack_chk_fail@plt>
  409200:	48 8b 5d f8          	mov    -0x8(%rbp),%rbx
  409204:	c9                   	leaveq 
  409205:	c3                   	retq   

0000000000409206 <_ZSt11__addressofIZSt9call_onceIRFvvEJEEvRSt9once_flagOT_DpOT0_EUlvE_EPS5_RS5_>:
  409206:	55                   	push   %rbp
  409207:	48 89 e5             	mov    %rsp,%rbp
  40920a:	48 89 7d f8          	mov    %rdi,-0x8(%rbp)
  40920e:	48 8b 45 f8          	mov    -0x8(%rbp),%rax
  409212:	5d                   	pop    %rbp
  409213:	c3                   	retq   

0000000000409214 <_ZN9__gnu_cxx13new_allocatorIP15_cl_platform_idEC1Ev>:
  409214:	55                   	push   %rbp
  409215:	48 89 e5             	mov    %rsp,%rbp
  409218:	48 89 7d f8          	mov    %rdi,-0x8(%rbp)
  40921c:	90                   	nop
  40921d:	5d                   	pop    %rbp
  40921e:	c3                   	retq   
  40921f:	90                   	nop

0000000000409220 <_ZN9__gnu_cxx13new_allocatorIP15_cl_platform_idED1Ev>:
  409220:	55                   	push   %rbp
  409221:	48 89 e5             	mov    %rsp,%rbp
  409224:	48 89 7d f8          	mov    %rdi,-0x8(%rbp)
  409228:	90                   	nop
  409229:	5d                   	pop    %rbp
  40922a:	c3                   	retq   
  40922b:	90                   	nop

000000000040922c <_ZNSt12_Vector_baseIP15_cl_platform_idSaIS1_EE12_Vector_implD1Ev>:
  40922c:	55                   	push   %rbp
  40922d:	48 89 e5             	mov    %rsp,%rbp
  409230:	48 83 ec 10          	sub    $0x10,%rsp
  409234:	48 89 7d f8          	mov    %rdi,-0x8(%rbp)
  409238:	48 8b 45 f8          	mov    -0x8(%rbp),%rax
  40923c:	48 89 c7             	mov    %rax,%rdi
  40923f:	e8 84 e9 ff ff       	callq  407bc8 <_ZNSaIP15_cl_platform_idED1Ev>
  409244:	90                   	nop
  409245:	c9                   	leaveq 
  409246:	c3                   	retq   
  409247:	90                   	nop

0000000000409248 <_ZNSt12_Vector_baseIP15_cl_platform_idSaIS1_EEC1EmRKS2_>:
  409248:	55                   	push   %rbp
  409249:	48 89 e5             	mov    %rsp,%rbp
  40924c:	53                   	push   %rbx
  40924d:	48 83 ec 28          	sub    $0x28,%rsp
  409251:	48 89 7d e8          	mov    %rdi,-0x18(%rbp)
  409255:	48 89 75 e0          	mov    %rsi,-0x20(%rbp)
  409259:	48 89 55 d8          	mov    %rdx,-0x28(%rbp)
  40925d:	48 8b 45 e8          	mov    -0x18(%rbp),%rax
  409261:	48 8b 55 d8          	mov    -0x28(%rbp),%rdx
  409265:	48 89 d6             	mov    %rdx,%rsi
  409268:	48 89 c7             	mov    %rax,%rdi
  40926b:	e8 9a 0f 00 00       	callq  40a20a <_ZNSt12_Vector_baseIP15_cl_platform_idSaIS1_EE12_Vector_implC1ERKS2_>
  409270:	48 8b 55 e0          	mov    -0x20(%rbp),%rdx
  409274:	48 8b 45 e8          	mov    -0x18(%rbp),%rax
  409278:	48 89 d6             	mov    %rdx,%rsi
  40927b:	48 89 c7             	mov    %rax,%rdi
  40927e:	e8 d1 0f 00 00       	callq  40a254 <_ZNSt12_Vector_baseIP15_cl_platform_idSaIS1_EE17_M_create_storageEm>
  409283:	eb 1a                	jmp    40929f <_ZNSt12_Vector_baseIP15_cl_platform_idSaIS1_EEC1EmRKS2_+0x57>
  409285:	48 89 c3             	mov    %rax,%rbx
  409288:	48 8b 45 e8          	mov    -0x18(%rbp),%rax
  40928c:	48 89 c7             	mov    %rax,%rdi
  40928f:	e8 98 ff ff ff       	callq  40922c <_ZNSt12_Vector_baseIP15_cl_platform_idSaIS1_EE12_Vector_implD1Ev>
  409294:	48 89 d8             	mov    %rbx,%rax
  409297:	48 89 c7             	mov    %rax,%rdi
  40929a:	e8 f1 ae ff ff       	callq  404190 <_Unwind_Resume@plt>
  40929f:	48 83 c4 28          	add    $0x28,%rsp
  4092a3:	5b                   	pop    %rbx
  4092a4:	5d                   	pop    %rbp
  4092a5:	c3                   	retq   

00000000004092a6 <_ZNSt12_Vector_baseIP15_cl_platform_idSaIS1_EED1Ev>:
  4092a6:	55                   	push   %rbp
  4092a7:	48 89 e5             	mov    %rsp,%rbp
  4092aa:	48 83 ec 10          	sub    $0x10,%rsp
  4092ae:	48 89 7d f8          	mov    %rdi,-0x8(%rbp)
  4092b2:	48 8b 45 f8          	mov    -0x8(%rbp),%rax
  4092b6:	48 8b 40 10          	mov    0x10(%rax),%rax
  4092ba:	48 89 c2             	mov    %rax,%rdx
  4092bd:	48 8b 45 f8          	mov    -0x8(%rbp),%rax
  4092c1:	48 8b 00             	mov    (%rax),%rax
  4092c4:	48 29 c2             	sub    %rax,%rdx
  4092c7:	48 89 d0             	mov    %rdx,%rax
  4092ca:	48 c1 f8 03          	sar    $0x3,%rax
  4092ce:	48 89 c2             	mov    %rax,%rdx
  4092d1:	48 8b 45 f8          	mov    -0x8(%rbp),%rax
  4092d5:	48 8b 08             	mov    (%rax),%rcx
  4092d8:	48 8b 45 f8          	mov    -0x8(%rbp),%rax
  4092dc:	48 89 ce             	mov    %rcx,%rsi
  4092df:	48 89 c7             	mov    %rax,%rdi
  4092e2:	e8 c7 0f 00 00       	callq  40a2ae <_ZNSt12_Vector_baseIP15_cl_platform_idSaIS1_EE13_M_deallocateEPS1_m>
  4092e7:	48 8b 45 f8          	mov    -0x8(%rbp),%rax
  4092eb:	48 89 c7             	mov    %rax,%rdi
  4092ee:	e8 39 ff ff ff       	callq  40922c <_ZNSt12_Vector_baseIP15_cl_platform_idSaIS1_EE12_Vector_implD1Ev>
  4092f3:	90                   	nop
  4092f4:	c9                   	leaveq 
  4092f5:	c3                   	retq   

00000000004092f6 <_ZNSt6vectorIP15_cl_platform_idSaIS1_EE21_M_default_initializeEm>:
  4092f6:	55                   	push   %rbp
  4092f7:	48 89 e5             	mov    %rsp,%rbp
  4092fa:	48 83 ec 10          	sub    $0x10,%rsp
  4092fe:	48 89 7d f8          	mov    %rdi,-0x8(%rbp)
  409302:	48 89 75 f0          	mov    %rsi,-0x10(%rbp)
  409306:	48 8b 45 f8          	mov    -0x8(%rbp),%rax
  40930a:	48 89 c7             	mov    %rax,%rdi
  40930d:	e8 28 00 00 00       	callq  40933a <_ZNSt12_Vector_baseIP15_cl_platform_idSaIS1_EE19_M_get_Tp_allocatorEv>
  409312:	48 89 c2             	mov    %rax,%rdx
  409315:	48 8b 45 f8          	mov    -0x8(%rbp),%rax
  409319:	48 8b 00             	mov    (%rax),%rax
  40931c:	48 8b 4d f0          	mov    -0x10(%rbp),%rcx
  409320:	48 89 ce             	mov    %rcx,%rsi
  409323:	48 89 c7             	mov    %rax,%rdi
  409326:	e8 b8 0f 00 00       	callq  40a2e3 <_ZSt27__uninitialized_default_n_aIPP15_cl_platform_idmS1_ET_S3_T0_RSaIT1_E>
  40932b:	48 89 c2             	mov    %rax,%rdx
  40932e:	48 8b 45 f8          	mov    -0x8(%rbp),%rax
  409332:	48 89 50 08          	mov    %rdx,0x8(%rax)
  409336:	90                   	nop
  409337:	c9                   	leaveq 
  409338:	c3                   	retq   
  409339:	90                   	nop

000000000040933a <_ZNSt12_Vector_baseIP15_cl_platform_idSaIS1_EE19_M_get_Tp_allocatorEv>:
  40933a:	55                   	push   %rbp
  40933b:	48 89 e5             	mov    %rsp,%rbp
  40933e:	48 89 7d f8          	mov    %rdi,-0x8(%rbp)
  409342:	48 8b 45 f8          	mov    -0x8(%rbp),%rax
  409346:	5d                   	pop    %rbp
  409347:	c3                   	retq   

0000000000409348 <_ZSt8_DestroyIPP15_cl_platform_idS1_EvT_S3_RSaIT0_E>:
  409348:	55                   	push   %rbp
  409349:	48 89 e5             	mov    %rsp,%rbp
  40934c:	48 83 ec 20          	sub    $0x20,%rsp
  409350:	48 89 7d f8          	mov    %rdi,-0x8(%rbp)
  409354:	48 89 75 f0          	mov    %rsi,-0x10(%rbp)
  409358:	48 89 55 e8          	mov    %rdx,-0x18(%rbp)
  40935c:	48 8b 55 f0          	mov    -0x10(%rbp),%rdx
  409360:	48 8b 45 f8          	mov    -0x8(%rbp),%rax
  409364:	48 89 d6             	mov    %rdx,%rsi
  409367:	48 89 c7             	mov    %rax,%rdi
  40936a:	e8 9d 0f 00 00       	callq  40a30c <_ZSt8_DestroyIPP15_cl_platform_idEvT_S3_>
  40936f:	90                   	nop
  409370:	c9                   	leaveq 
  409371:	c3                   	retq   

0000000000409372 <_ZNKSt6vectorIP15_cl_platform_idSaIS1_EE11_M_data_ptrIS1_EEPT_S6_>:
  409372:	55                   	push   %rbp
  409373:	48 89 e5             	mov    %rsp,%rbp
  409376:	48 89 7d f8          	mov    %rdi,-0x8(%rbp)
  40937a:	48 89 75 f0          	mov    %rsi,-0x10(%rbp)
  40937e:	48 8b 45 f0          	mov    -0x10(%rbp),%rax
  409382:	5d                   	pop    %rbp
  409383:	c3                   	retq   

0000000000409384 <_ZNK2cl6detail7WrapperIP15_cl_platform_idE7releaseEv>:
  409384:	55                   	push   %rbp
  409385:	48 89 e5             	mov    %rsp,%rbp
  409388:	48 83 ec 10          	sub    $0x10,%rsp
  40938c:	48 89 7d f8          	mov    %rdi,-0x8(%rbp)
  409390:	48 8b 45 f8          	mov    -0x8(%rbp),%rax
  409394:	48 8b 00             	mov    (%rax),%rax
  409397:	48 85 c0             	test   %rax,%rax
  40939a:	74 11                	je     4093ad <_ZNK2cl6detail7WrapperIP15_cl_platform_idE7releaseEv+0x29>
  40939c:	48 8b 45 f8          	mov    -0x8(%rbp),%rax
  4093a0:	48 8b 00             	mov    (%rax),%rax
  4093a3:	48 89 c7             	mov    %rax,%rdi
  4093a6:	e8 60 bc ff ff       	callq  40500b <_ZN2cl6detail16ReferenceHandlerIP15_cl_platform_idE7releaseES3_>
  4093ab:	eb 05                	jmp    4093b2 <_ZNK2cl6detail7WrapperIP15_cl_platform_idE7releaseEv+0x2e>
  4093ad:	b8 00 00 00 00       	mov    $0x0,%eax
  4093b2:	c9                   	leaveq 
  4093b3:	c3                   	retq   

00000000004093b4 <_ZNK2cl6detail7WrapperIP15_cl_platform_idE6retainEv>:
  4093b4:	55                   	push   %rbp
  4093b5:	48 89 e5             	mov    %rsp,%rbp
  4093b8:	48 83 ec 10          	sub    $0x10,%rsp
  4093bc:	48 89 7d f8          	mov    %rdi,-0x8(%rbp)
  4093c0:	48 8b 45 f8          	mov    -0x8(%rbp),%rax
  4093c4:	48 8b 00             	mov    (%rax),%rax
  4093c7:	48 85 c0             	test   %rax,%rax
  4093ca:	74 11                	je     4093dd <_ZNK2cl6detail7WrapperIP15_cl_platform_idE6retainEv+0x29>
  4093cc:	48 8b 45 f8          	mov    -0x8(%rbp),%rax
  4093d0:	48 8b 00             	mov    (%rax),%rax
  4093d3:	48 89 c7             	mov    %rax,%rdi
  4093d6:	e8 21 bc ff ff       	callq  404ffc <_ZN2cl6detail16ReferenceHandlerIP15_cl_platform_idE6retainES3_>
  4093db:	eb 05                	jmp    4093e2 <_ZNK2cl6detail7WrapperIP15_cl_platform_idE6retainEv+0x2e>
  4093dd:	b8 00 00 00 00       	mov    $0x0,%eax
  4093e2:	c9                   	leaveq 
  4093e3:	c3                   	retq   

00000000004093e4 <_ZN9__gnu_cxx13new_allocatorIP13_cl_device_idEC1Ev>:
  4093e4:	55                   	push   %rbp
  4093e5:	48 89 e5             	mov    %rsp,%rbp
  4093e8:	48 89 7d f8          	mov    %rdi,-0x8(%rbp)
  4093ec:	90                   	nop
  4093ed:	5d                   	pop    %rbp
  4093ee:	c3                   	retq   
  4093ef:	90                   	nop

00000000004093f0 <_ZN9__gnu_cxx13new_allocatorIP13_cl_device_idED1Ev>:
  4093f0:	55                   	push   %rbp
  4093f1:	48 89 e5             	mov    %rsp,%rbp
  4093f4:	48 89 7d f8          	mov    %rdi,-0x8(%rbp)
  4093f8:	90                   	nop
  4093f9:	5d                   	pop    %rbp
  4093fa:	c3                   	retq   
  4093fb:	90                   	nop

00000000004093fc <_ZNSt12_Vector_baseIP13_cl_device_idSaIS1_EE12_Vector_implD1Ev>:
  4093fc:	55                   	push   %rbp
  4093fd:	48 89 e5             	mov    %rsp,%rbp
  409400:	48 83 ec 10          	sub    $0x10,%rsp
  409404:	48 89 7d f8          	mov    %rdi,-0x8(%rbp)
  409408:	48 8b 45 f8          	mov    -0x8(%rbp),%rax
  40940c:	48 89 c7             	mov    %rax,%rdi
  40940f:	e8 e4 e9 ff ff       	callq  407df8 <_ZNSaIP13_cl_device_idED1Ev>
  409414:	90                   	nop
  409415:	c9                   	leaveq 
  409416:	c3                   	retq   
  409417:	90                   	nop

0000000000409418 <_ZNSt12_Vector_baseIP13_cl_device_idSaIS1_EEC1EmRKS2_>:
  409418:	55                   	push   %rbp
  409419:	48 89 e5             	mov    %rsp,%rbp
  40941c:	53                   	push   %rbx
  40941d:	48 83 ec 28          	sub    $0x28,%rsp
  409421:	48 89 7d e8          	mov    %rdi,-0x18(%rbp)
  409425:	48 89 75 e0          	mov    %rsi,-0x20(%rbp)
  409429:	48 89 55 d8          	mov    %rdx,-0x28(%rbp)
  40942d:	48 8b 45 e8          	mov    -0x18(%rbp),%rax
  409431:	48 8b 55 d8          	mov    -0x28(%rbp),%rdx
  409435:	48 89 d6             	mov    %rdx,%rsi
  409438:	48 89 c7             	mov    %rax,%rdi
  40943b:	e8 f2 0e 00 00       	callq  40a332 <_ZNSt12_Vector_baseIP13_cl_device_idSaIS1_EE12_Vector_implC1ERKS2_>
  409440:	48 8b 55 e0          	mov    -0x20(%rbp),%rdx
  409444:	48 8b 45 e8          	mov    -0x18(%rbp),%rax
  409448:	48 89 d6             	mov    %rdx,%rsi
  40944b:	48 89 c7             	mov    %rax,%rdi
  40944e:	e8 29 0f 00 00       	callq  40a37c <_ZNSt12_Vector_baseIP13_cl_device_idSaIS1_EE17_M_create_storageEm>
  409453:	eb 1a                	jmp    40946f <_ZNSt12_Vector_baseIP13_cl_device_idSaIS1_EEC1EmRKS2_+0x57>
  409455:	48 89 c3             	mov    %rax,%rbx
  409458:	48 8b 45 e8          	mov    -0x18(%rbp),%rax
  40945c:	48 89 c7             	mov    %rax,%rdi
  40945f:	e8 98 ff ff ff       	callq  4093fc <_ZNSt12_Vector_baseIP13_cl_device_idSaIS1_EE12_Vector_implD1Ev>
  409464:	48 89 d8             	mov    %rbx,%rax
  409467:	48 89 c7             	mov    %rax,%rdi
  40946a:	e8 21 ad ff ff       	callq  404190 <_Unwind_Resume@plt>
  40946f:	48 83 c4 28          	add    $0x28,%rsp
  409473:	5b                   	pop    %rbx
  409474:	5d                   	pop    %rbp
  409475:	c3                   	retq   

0000000000409476 <_ZNSt12_Vector_baseIP13_cl_device_idSaIS1_EED1Ev>:
  409476:	55                   	push   %rbp
  409477:	48 89 e5             	mov    %rsp,%rbp
  40947a:	48 83 ec 10          	sub    $0x10,%rsp
  40947e:	48 89 7d f8          	mov    %rdi,-0x8(%rbp)
  409482:	48 8b 45 f8          	mov    -0x8(%rbp),%rax
  409486:	48 8b 40 10          	mov    0x10(%rax),%rax
  40948a:	48 89 c2             	mov    %rax,%rdx
  40948d:	48 8b 45 f8          	mov    -0x8(%rbp),%rax
  409491:	48 8b 00             	mov    (%rax),%rax
  409494:	48 29 c2             	sub    %rax,%rdx
  409497:	48 89 d0             	mov    %rdx,%rax
  40949a:	48 c1 f8 03          	sar    $0x3,%rax
  40949e:	48 89 c2             	mov    %rax,%rdx
  4094a1:	48 8b 45 f8          	mov    -0x8(%rbp),%rax
  4094a5:	48 8b 08             	mov    (%rax),%rcx
  4094a8:	48 8b 45 f8          	mov    -0x8(%rbp),%rax
  4094ac:	48 89 ce             	mov    %rcx,%rsi
  4094af:	48 89 c7             	mov    %rax,%rdi
  4094b2:	e8 1f 0f 00 00       	callq  40a3d6 <_ZNSt12_Vector_baseIP13_cl_device_idSaIS1_EE13_M_deallocateEPS1_m>
  4094b7:	48 8b 45 f8          	mov    -0x8(%rbp),%rax
  4094bb:	48 89 c7             	mov    %rax,%rdi
  4094be:	e8 39 ff ff ff       	callq  4093fc <_ZNSt12_Vector_baseIP13_cl_device_idSaIS1_EE12_Vector_implD1Ev>
  4094c3:	90                   	nop
  4094c4:	c9                   	leaveq 
  4094c5:	c3                   	retq   

00000000004094c6 <_ZNSt6vectorIP13_cl_device_idSaIS1_EE21_M_default_initializeEm>:
  4094c6:	55                   	push   %rbp
  4094c7:	48 89 e5             	mov    %rsp,%rbp
  4094ca:	48 83 ec 10          	sub    $0x10,%rsp
  4094ce:	48 89 7d f8          	mov    %rdi,-0x8(%rbp)
  4094d2:	48 89 75 f0          	mov    %rsi,-0x10(%rbp)
  4094d6:	48 8b 45 f8          	mov    -0x8(%rbp),%rax
  4094da:	48 89 c7             	mov    %rax,%rdi
  4094dd:	e8 28 00 00 00       	callq  40950a <_ZNSt12_Vector_baseIP13_cl_device_idSaIS1_EE19_M_get_Tp_allocatorEv>
  4094e2:	48 89 c2             	mov    %rax,%rdx
  4094e5:	48 8b 45 f8          	mov    -0x8(%rbp),%rax
  4094e9:	48 8b 00             	mov    (%rax),%rax
  4094ec:	48 8b 4d f0          	mov    -0x10(%rbp),%rcx
  4094f0:	48 89 ce             	mov    %rcx,%rsi
  4094f3:	48 89 c7             	mov    %rax,%rdi
  4094f6:	e8 10 0f 00 00       	callq  40a40b <_ZSt27__uninitialized_default_n_aIPP13_cl_device_idmS1_ET_S3_T0_RSaIT1_E>
  4094fb:	48 89 c2             	mov    %rax,%rdx
  4094fe:	48 8b 45 f8          	mov    -0x8(%rbp),%rax
  409502:	48 89 50 08          	mov    %rdx,0x8(%rax)
  409506:	90                   	nop
  409507:	c9                   	leaveq 
  409508:	c3                   	retq   
  409509:	90                   	nop

000000000040950a <_ZNSt12_Vector_baseIP13_cl_device_idSaIS1_EE19_M_get_Tp_allocatorEv>:
  40950a:	55                   	push   %rbp
  40950b:	48 89 e5             	mov    %rsp,%rbp
  40950e:	48 89 7d f8          	mov    %rdi,-0x8(%rbp)
  409512:	48 8b 45 f8          	mov    -0x8(%rbp),%rax
  409516:	5d                   	pop    %rbp
  409517:	c3                   	retq   

0000000000409518 <_ZSt8_DestroyIPP13_cl_device_idS1_EvT_S3_RSaIT0_E>:
  409518:	55                   	push   %rbp
  409519:	48 89 e5             	mov    %rsp,%rbp
  40951c:	48 83 ec 20          	sub    $0x20,%rsp
  409520:	48 89 7d f8          	mov    %rdi,-0x8(%rbp)
  409524:	48 89 75 f0          	mov    %rsi,-0x10(%rbp)
  409528:	48 89 55 e8          	mov    %rdx,-0x18(%rbp)
  40952c:	48 8b 55 f0          	mov    -0x10(%rbp),%rdx
  409530:	48 8b 45 f8          	mov    -0x8(%rbp),%rax
  409534:	48 89 d6             	mov    %rdx,%rsi
  409537:	48 89 c7             	mov    %rax,%rdi
  40953a:	e8 f5 0e 00 00       	callq  40a434 <_ZSt8_DestroyIPP13_cl_device_idEvT_S3_>
  40953f:	90                   	nop
  409540:	c9                   	leaveq 
  409541:	c3                   	retq   

0000000000409542 <_ZNKSt6vectorIP13_cl_device_idSaIS1_EE11_M_data_ptrIS1_EEPT_S6_>:
  409542:	55                   	push   %rbp
  409543:	48 89 e5             	mov    %rsp,%rbp
  409546:	48 89 7d f8          	mov    %rdi,-0x8(%rbp)
  40954a:	48 89 75 f0          	mov    %rsi,-0x10(%rbp)
  40954e:	48 8b 45 f0          	mov    -0x10(%rbp),%rax
  409552:	5d                   	pop    %rbp
  409553:	c3                   	retq   

0000000000409554 <_ZNSt6vectorIN2cl6DeviceESaIS1_EE17_M_default_appendEm>:
  409554:	55                   	push   %rbp
  409555:	48 89 e5             	mov    %rsp,%rbp
  409558:	53                   	push   %rbx
  409559:	48 83 ec 38          	sub    $0x38,%rsp
  40955d:	48 89 7d c8          	mov    %rdi,-0x38(%rbp)
  409561:	48 89 75 c0          	mov    %rsi,-0x40(%rbp)
  409565:	48 83 7d c0 00       	cmpq   $0x0,-0x40(%rbp)
  40956a:	0f 84 e2 01 00 00    	je     409752 <_ZNSt6vectorIN2cl6DeviceESaIS1_EE17_M_default_appendEm+0x1fe>
  409570:	48 8b 45 c8          	mov    -0x38(%rbp),%rax
  409574:	48 8b 40 10          	mov    0x10(%rax),%rax
  409578:	48 89 c2             	mov    %rax,%rdx
  40957b:	48 8b 45 c8          	mov    -0x38(%rbp),%rax
  40957f:	48 8b 40 08          	mov    0x8(%rax),%rax
  409583:	48 29 c2             	sub    %rax,%rdx
  409586:	48 89 d0             	mov    %rdx,%rax
  409589:	48 c1 f8 04          	sar    $0x4,%rax
  40958d:	48 3b 45 c0          	cmp    -0x40(%rbp),%rax
  409591:	72 36                	jb     4095c9 <_ZNSt6vectorIN2cl6DeviceESaIS1_EE17_M_default_appendEm+0x75>
  409593:	48 8b 45 c8          	mov    -0x38(%rbp),%rax
  409597:	48 89 c7             	mov    %rax,%rdi
  40959a:	e8 c7 05 00 00       	callq  409b66 <_ZNSt12_Vector_baseIN2cl6DeviceESaIS1_EE19_M_get_Tp_allocatorEv>
  40959f:	48 89 c2             	mov    %rax,%rdx
  4095a2:	48 8b 45 c8          	mov    -0x38(%rbp),%rax
  4095a6:	48 8b 40 08          	mov    0x8(%rax),%rax
  4095aa:	48 8b 4d c0          	mov    -0x40(%rbp),%rcx
  4095ae:	48 89 ce             	mov    %rcx,%rsi
  4095b1:	48 89 c7             	mov    %rax,%rdi
  4095b4:	e8 a1 0e 00 00       	callq  40a45a <_ZSt27__uninitialized_default_n_aIPN2cl6DeviceEmS1_ET_S3_T0_RSaIT1_E>
  4095b9:	48 89 c2             	mov    %rax,%rdx
  4095bc:	48 8b 45 c8          	mov    -0x38(%rbp),%rax
  4095c0:	48 89 50 08          	mov    %rdx,0x8(%rax)
  4095c4:	e9 89 01 00 00       	jmpq   409752 <_ZNSt6vectorIN2cl6DeviceESaIS1_EE17_M_default_appendEm+0x1fe>
  4095c9:	48 8b 4d c0          	mov    -0x40(%rbp),%rcx
  4095cd:	48 8b 45 c8          	mov    -0x38(%rbp),%rax
  4095d1:	ba 87 06 41 00       	mov    $0x410687,%edx
  4095d6:	48 89 ce             	mov    %rcx,%rsi
  4095d9:	48 89 c7             	mov    %rax,%rdi
  4095dc:	e8 a3 0e 00 00       	callq  40a484 <_ZNKSt6vectorIN2cl6DeviceESaIS1_EE12_M_check_lenEmPKc>
  4095e1:	48 89 45 d8          	mov    %rax,-0x28(%rbp)
  4095e5:	48 8b 45 c8          	mov    -0x38(%rbp),%rax
  4095e9:	48 89 c7             	mov    %rax,%rdi
  4095ec:	e8 25 eb ff ff       	callq  408116 <_ZNKSt6vectorIN2cl6DeviceESaIS1_EE4sizeEv>
  4095f1:	48 89 45 e0          	mov    %rax,-0x20(%rbp)
  4095f5:	48 8b 45 c8          	mov    -0x38(%rbp),%rax
  4095f9:	48 8b 55 d8          	mov    -0x28(%rbp),%rdx
  4095fd:	48 89 d6             	mov    %rdx,%rsi
  409600:	48 89 c7             	mov    %rax,%rdi
  409603:	e8 68 0f 00 00       	callq  40a570 <_ZNSt12_Vector_baseIN2cl6DeviceESaIS1_EE11_M_allocateEm>
  409608:	48 89 45 e8          	mov    %rax,-0x18(%rbp)
  40960c:	48 8b 45 e8          	mov    -0x18(%rbp),%rax
  409610:	48 89 45 d0          	mov    %rax,-0x30(%rbp)
  409614:	48 8b 45 c8          	mov    -0x38(%rbp),%rax
  409618:	48 89 c7             	mov    %rax,%rdi
  40961b:	e8 46 05 00 00       	callq  409b66 <_ZNSt12_Vector_baseIN2cl6DeviceESaIS1_EE19_M_get_Tp_allocatorEv>
  409620:	48 89 c1             	mov    %rax,%rcx
  409623:	48 8b 45 c8          	mov    -0x38(%rbp),%rax
  409627:	48 8b 70 08          	mov    0x8(%rax),%rsi
  40962b:	48 8b 45 c8          	mov    -0x38(%rbp),%rax
  40962f:	48 8b 00             	mov    (%rax),%rax
  409632:	48 8b 55 e8          	mov    -0x18(%rbp),%rdx
  409636:	48 89 c7             	mov    %rax,%rdi
  409639:	e8 65 0f 00 00       	callq  40a5a3 <_ZSt34__uninitialized_move_if_noexcept_aIPN2cl6DeviceES2_SaIS1_EET0_T_S5_S4_RT1_>
  40963e:	48 89 45 d0          	mov    %rax,-0x30(%rbp)
  409642:	48 8b 45 c8          	mov    -0x38(%rbp),%rax
  409646:	48 89 c7             	mov    %rax,%rdi
  409649:	e8 18 05 00 00       	callq  409b66 <_ZNSt12_Vector_baseIN2cl6DeviceESaIS1_EE19_M_get_Tp_allocatorEv>
  40964e:	48 89 c2             	mov    %rax,%rdx
  409651:	48 8b 4d c0          	mov    -0x40(%rbp),%rcx
  409655:	48 8b 45 d0          	mov    -0x30(%rbp),%rax
  409659:	48 89 ce             	mov    %rcx,%rsi
  40965c:	48 89 c7             	mov    %rax,%rdi
  40965f:	e8 f6 0d 00 00       	callq  40a45a <_ZSt27__uninitialized_default_n_aIPN2cl6DeviceEmS1_ET_S3_T0_RSaIT1_E>
  409664:	48 89 45 d0          	mov    %rax,-0x30(%rbp)
  409668:	48 8b 45 c8          	mov    -0x38(%rbp),%rax
  40966c:	48 89 c7             	mov    %rax,%rdi
  40966f:	e8 f2 04 00 00       	callq  409b66 <_ZNSt12_Vector_baseIN2cl6DeviceESaIS1_EE19_M_get_Tp_allocatorEv>
  409674:	48 89 c2             	mov    %rax,%rdx
  409677:	48 8b 45 c8          	mov    -0x38(%rbp),%rax
  40967b:	48 8b 48 08          	mov    0x8(%rax),%rcx
  40967f:	48 8b 45 c8          	mov    -0x38(%rbp),%rax
  409683:	48 8b 00             	mov    (%rax),%rax
  409686:	48 89 ce             	mov    %rcx,%rsi
  409689:	48 89 c7             	mov    %rax,%rdi
  40968c:	e8 e3 04 00 00       	callq  409b74 <_ZSt8_DestroyIPN2cl6DeviceES1_EvT_S3_RSaIT0_E>
  409691:	48 8b 45 c8          	mov    -0x38(%rbp),%rax
  409695:	48 8b 40 10          	mov    0x10(%rax),%rax
  409699:	48 89 c2             	mov    %rax,%rdx
  40969c:	48 8b 45 c8          	mov    -0x38(%rbp),%rax
  4096a0:	48 8b 00             	mov    (%rax),%rax
  4096a3:	48 29 c2             	sub    %rax,%rdx
  4096a6:	48 89 d0             	mov    %rdx,%rax
  4096a9:	48 c1 f8 04          	sar    $0x4,%rax
  4096ad:	48 89 c2             	mov    %rax,%rdx
  4096b0:	48 8b 45 c8          	mov    -0x38(%rbp),%rax
  4096b4:	48 8b 08             	mov    (%rax),%rcx
  4096b7:	48 8b 45 c8          	mov    -0x38(%rbp),%rax
  4096bb:	48 89 ce             	mov    %rcx,%rsi
  4096be:	48 89 c7             	mov    %rax,%rdi
  4096c1:	e8 32 0f 00 00       	callq  40a5f8 <_ZNSt12_Vector_baseIN2cl6DeviceESaIS1_EE13_M_deallocateEPS1_m>
  4096c6:	48 8b 45 c8          	mov    -0x38(%rbp),%rax
  4096ca:	48 8b 55 e8          	mov    -0x18(%rbp),%rdx
  4096ce:	48 89 10             	mov    %rdx,(%rax)
  4096d1:	48 8b 45 c8          	mov    -0x38(%rbp),%rax
  4096d5:	48 8b 55 d0          	mov    -0x30(%rbp),%rdx
  4096d9:	48 89 50 08          	mov    %rdx,0x8(%rax)
  4096dd:	48 8b 45 d8          	mov    -0x28(%rbp),%rax
  4096e1:	48 c1 e0 04          	shl    $0x4,%rax
  4096e5:	48 89 c2             	mov    %rax,%rdx
  4096e8:	48 8b 45 e8          	mov    -0x18(%rbp),%rax
  4096ec:	48 01 c2             	add    %rax,%rdx
  4096ef:	48 8b 45 c8          	mov    -0x38(%rbp),%rax
  4096f3:	48 89 50 10          	mov    %rdx,0x10(%rax)
  4096f7:	eb 59                	jmp    409752 <_ZNSt6vectorIN2cl6DeviceESaIS1_EE17_M_default_appendEm+0x1fe>
  4096f9:	48 89 c7             	mov    %rax,%rdi
  4096fc:	e8 bf a6 ff ff       	callq  403dc0 <__cxa_begin_catch@plt>
  409701:	48 8b 45 c8          	mov    -0x38(%rbp),%rax
  409705:	48 89 c7             	mov    %rax,%rdi
  409708:	e8 59 04 00 00       	callq  409b66 <_ZNSt12_Vector_baseIN2cl6DeviceESaIS1_EE19_M_get_Tp_allocatorEv>
  40970d:	48 89 c2             	mov    %rax,%rdx
  409710:	48 8b 4d d0          	mov    -0x30(%rbp),%rcx
  409714:	48 8b 45 e8          	mov    -0x18(%rbp),%rax
  409718:	48 89 ce             	mov    %rcx,%rsi
  40971b:	48 89 c7             	mov    %rax,%rdi
  40971e:	e8 51 04 00 00       	callq  409b74 <_ZSt8_DestroyIPN2cl6DeviceES1_EvT_S3_RSaIT0_E>
  409723:	48 8b 45 c8          	mov    -0x38(%rbp),%rax
  409727:	48 8b 55 d8          	mov    -0x28(%rbp),%rdx
  40972b:	48 8b 4d e8          	mov    -0x18(%rbp),%rcx
  40972f:	48 89 ce             	mov    %rcx,%rsi
  409732:	48 89 c7             	mov    %rax,%rdi
  409735:	e8 be 0e 00 00       	callq  40a5f8 <_ZNSt12_Vector_baseIN2cl6DeviceESaIS1_EE13_M_deallocateEPS1_m>
  40973a:	e8 31 a9 ff ff       	callq  404070 <__cxa_rethrow@plt>
  40973f:	48 89 c3             	mov    %rax,%rbx
  409742:	e8 c9 a9 ff ff       	callq  404110 <__cxa_end_catch@plt>
  409747:	48 89 d8             	mov    %rbx,%rax
  40974a:	48 89 c7             	mov    %rax,%rdi
  40974d:	e8 3e aa ff ff       	callq  404190 <_Unwind_Resume@plt>
  409752:	90                   	nop
  409753:	48 83 c4 38          	add    $0x38,%rsp
  409757:	5b                   	pop    %rbx
  409758:	5d                   	pop    %rbp
  409759:	c3                   	retq   

000000000040975a <_ZNSt6vectorIN2cl6DeviceESaIS1_EE15_M_erase_at_endEPS1_>:
  40975a:	55                   	push   %rbp
  40975b:	48 89 e5             	mov    %rsp,%rbp
  40975e:	48 83 ec 10          	sub    $0x10,%rsp
  409762:	48 89 7d f8          	mov    %rdi,-0x8(%rbp)
  409766:	48 89 75 f0          	mov    %rsi,-0x10(%rbp)
  40976a:	48 8b 45 f8          	mov    -0x8(%rbp),%rax
  40976e:	48 89 c7             	mov    %rax,%rdi
  409771:	e8 f0 03 00 00       	callq  409b66 <_ZNSt12_Vector_baseIN2cl6DeviceESaIS1_EE19_M_get_Tp_allocatorEv>
  409776:	48 89 c2             	mov    %rax,%rdx
  409779:	48 8b 45 f8          	mov    -0x8(%rbp),%rax
  40977d:	48 8b 48 08          	mov    0x8(%rax),%rcx
  409781:	48 8b 45 f0          	mov    -0x10(%rbp),%rax
  409785:	48 89 ce             	mov    %rcx,%rsi
  409788:	48 89 c7             	mov    %rax,%rdi
  40978b:	e8 e4 03 00 00       	callq  409b74 <_ZSt8_DestroyIPN2cl6DeviceES1_EvT_S3_RSaIT0_E>
  409790:	48 8b 45 f8          	mov    -0x8(%rbp),%rax
  409794:	48 8b 55 f0          	mov    -0x10(%rbp),%rdx
  409798:	48 89 50 08          	mov    %rdx,0x8(%rax)
  40979c:	90                   	nop
  40979d:	c9                   	leaveq 
  40979e:	c3                   	retq   
  40979f:	90                   	nop

00000000004097a0 <_ZNSt6vectorIN2cl8PlatformESaIS1_EE17_M_default_appendEm>:
  4097a0:	55                   	push   %rbp
  4097a1:	48 89 e5             	mov    %rsp,%rbp
  4097a4:	53                   	push   %rbx
  4097a5:	48 83 ec 38          	sub    $0x38,%rsp
  4097a9:	48 89 7d c8          	mov    %rdi,-0x38(%rbp)
  4097ad:	48 89 75 c0          	mov    %rsi,-0x40(%rbp)
  4097b1:	48 83 7d c0 00       	cmpq   $0x0,-0x40(%rbp)
  4097b6:	0f 84 e3 01 00 00    	je     40999f <_ZNSt6vectorIN2cl8PlatformESaIS1_EE17_M_default_appendEm+0x1ff>
  4097bc:	48 8b 45 c8          	mov    -0x38(%rbp),%rax
  4097c0:	48 8b 40 10          	mov    0x10(%rax),%rax
  4097c4:	48 89 c2             	mov    %rax,%rdx
  4097c7:	48 8b 45 c8          	mov    -0x38(%rbp),%rax
  4097cb:	48 8b 40 08          	mov    0x8(%rax),%rax
  4097cf:	48 29 c2             	sub    %rax,%rdx
  4097d2:	48 89 d0             	mov    %rdx,%rax
  4097d5:	48 c1 f8 03          	sar    $0x3,%rax
  4097d9:	48 3b 45 c0          	cmp    -0x40(%rbp),%rax
  4097dd:	72 36                	jb     409815 <_ZNSt6vectorIN2cl8PlatformESaIS1_EE17_M_default_appendEm+0x75>
  4097df:	48 8b 45 c8          	mov    -0x38(%rbp),%rax
  4097e3:	48 89 c7             	mov    %rax,%rdi
  4097e6:	e8 bb 02 00 00       	callq  409aa6 <_ZNSt12_Vector_baseIN2cl8PlatformESaIS1_EE19_M_get_Tp_allocatorEv>
  4097eb:	48 89 c2             	mov    %rax,%rdx
  4097ee:	48 8b 45 c8          	mov    -0x38(%rbp),%rax
  4097f2:	48 8b 40 08          	mov    0x8(%rax),%rax
  4097f6:	48 8b 4d c0          	mov    -0x40(%rbp),%rcx
  4097fa:	48 89 ce             	mov    %rcx,%rsi
  4097fd:	48 89 c7             	mov    %rax,%rdi
  409800:	e8 28 0e 00 00       	callq  40a62d <_ZSt27__uninitialized_default_n_aIPN2cl8PlatformEmS1_ET_S3_T0_RSaIT1_E>
  409805:	48 89 c2             	mov    %rax,%rdx
  409808:	48 8b 45 c8          	mov    -0x38(%rbp),%rax
  40980c:	48 89 50 08          	mov    %rdx,0x8(%rax)
  409810:	e9 8a 01 00 00       	jmpq   40999f <_ZNSt6vectorIN2cl8PlatformESaIS1_EE17_M_default_appendEm+0x1ff>
  409815:	48 8b 4d c0          	mov    -0x40(%rbp),%rcx
  409819:	48 8b 45 c8          	mov    -0x38(%rbp),%rax
  40981d:	ba 87 06 41 00       	mov    $0x410687,%edx
  409822:	48 89 ce             	mov    %rcx,%rsi
  409825:	48 89 c7             	mov    %rax,%rdi
  409828:	e8 29 0e 00 00       	callq  40a656 <_ZNKSt6vectorIN2cl8PlatformESaIS1_EE12_M_check_lenEmPKc>
  40982d:	48 89 45 d8          	mov    %rax,-0x28(%rbp)
  409831:	48 8b 45 c8          	mov    -0x38(%rbp),%rax
  409835:	48 89 c7             	mov    %rax,%rdi
  409838:	e8 5f e9 ff ff       	callq  40819c <_ZNKSt6vectorIN2cl8PlatformESaIS1_EE4sizeEv>
  40983d:	48 89 45 e0          	mov    %rax,-0x20(%rbp)
  409841:	48 8b 45 c8          	mov    -0x38(%rbp),%rax
  409845:	48 8b 55 d8          	mov    -0x28(%rbp),%rdx
  409849:	48 89 d6             	mov    %rdx,%rsi
  40984c:	48 89 c7             	mov    %rax,%rdi
  40984f:	e8 ee 0e 00 00       	callq  40a742 <_ZNSt12_Vector_baseIN2cl8PlatformESaIS1_EE11_M_allocateEm>
  409854:	48 89 45 e8          	mov    %rax,-0x18(%rbp)
  409858:	48 8b 45 e8          	mov    -0x18(%rbp),%rax
  40985c:	48 89 45 d0          	mov    %rax,-0x30(%rbp)
  409860:	48 8b 45 c8          	mov    -0x38(%rbp),%rax
  409864:	48 89 c7             	mov    %rax,%rdi
  409867:	e8 3a 02 00 00       	callq  409aa6 <_ZNSt12_Vector_baseIN2cl8PlatformESaIS1_EE19_M_get_Tp_allocatorEv>
  40986c:	48 89 c1             	mov    %rax,%rcx
  40986f:	48 8b 45 c8          	mov    -0x38(%rbp),%rax
  409873:	48 8b 70 08          	mov    0x8(%rax),%rsi
  409877:	48 8b 45 c8          	mov    -0x38(%rbp),%rax
  40987b:	48 8b 00             	mov    (%rax),%rax
  40987e:	48 8b 55 e8          	mov    -0x18(%rbp),%rdx
  409882:	48 89 c7             	mov    %rax,%rdi
  409885:	e8 eb 0e 00 00       	callq  40a775 <_ZSt34__uninitialized_move_if_noexcept_aIPN2cl8PlatformES2_SaIS1_EET0_T_S5_S4_RT1_>
  40988a:	48 89 45 d0          	mov    %rax,-0x30(%rbp)
  40988e:	48 8b 45 c8          	mov    -0x38(%rbp),%rax
  409892:	48 89 c7             	mov    %rax,%rdi
  409895:	e8 0c 02 00 00       	callq  409aa6 <_ZNSt12_Vector_baseIN2cl8PlatformESaIS1_EE19_M_get_Tp_allocatorEv>
  40989a:	48 89 c2             	mov    %rax,%rdx
  40989d:	48 8b 4d c0          	mov    -0x40(%rbp),%rcx
  4098a1:	48 8b 45 d0          	mov    -0x30(%rbp),%rax
  4098a5:	48 89 ce             	mov    %rcx,%rsi
  4098a8:	48 89 c7             	mov    %rax,%rdi
  4098ab:	e8 7d 0d 00 00       	callq  40a62d <_ZSt27__uninitialized_default_n_aIPN2cl8PlatformEmS1_ET_S3_T0_RSaIT1_E>
  4098b0:	48 89 45 d0          	mov    %rax,-0x30(%rbp)
  4098b4:	48 8b 45 c8          	mov    -0x38(%rbp),%rax
  4098b8:	48 89 c7             	mov    %rax,%rdi
  4098bb:	e8 e6 01 00 00       	callq  409aa6 <_ZNSt12_Vector_baseIN2cl8PlatformESaIS1_EE19_M_get_Tp_allocatorEv>
  4098c0:	48 89 c2             	mov    %rax,%rdx
  4098c3:	48 8b 45 c8          	mov    -0x38(%rbp),%rax
  4098c7:	48 8b 48 08          	mov    0x8(%rax),%rcx
  4098cb:	48 8b 45 c8          	mov    -0x38(%rbp),%rax
  4098cf:	48 8b 00             	mov    (%rax),%rax
  4098d2:	48 89 ce             	mov    %rcx,%rsi
  4098d5:	48 89 c7             	mov    %rax,%rdi
  4098d8:	e8 d7 01 00 00       	callq  409ab4 <_ZSt8_DestroyIPN2cl8PlatformES1_EvT_S3_RSaIT0_E>
  4098dd:	48 8b 45 c8          	mov    -0x38(%rbp),%rax
  4098e1:	48 8b 40 10          	mov    0x10(%rax),%rax
  4098e5:	48 89 c2             	mov    %rax,%rdx
  4098e8:	48 8b 45 c8          	mov    -0x38(%rbp),%rax
  4098ec:	48 8b 00             	mov    (%rax),%rax
  4098ef:	48 29 c2             	sub    %rax,%rdx
  4098f2:	48 89 d0             	mov    %rdx,%rax
  4098f5:	48 c1 f8 03          	sar    $0x3,%rax
  4098f9:	48 89 c2             	mov    %rax,%rdx
  4098fc:	48 8b 45 c8          	mov    -0x38(%rbp),%rax
  409900:	48 8b 08             	mov    (%rax),%rcx
  409903:	48 8b 45 c8          	mov    -0x38(%rbp),%rax
  409907:	48 89 ce             	mov    %rcx,%rsi
  40990a:	48 89 c7             	mov    %rax,%rdi
  40990d:	e8 b8 0e 00 00       	callq  40a7ca <_ZNSt12_Vector_baseIN2cl8PlatformESaIS1_EE13_M_deallocateEPS1_m>
  409912:	48 8b 45 c8          	mov    -0x38(%rbp),%rax
  409916:	48 8b 55 e8          	mov    -0x18(%rbp),%rdx
  40991a:	48 89 10             	mov    %rdx,(%rax)
  40991d:	48 8b 45 c8          	mov    -0x38(%rbp),%rax
  409921:	48 8b 55 d0          	mov    -0x30(%rbp),%rdx
  409925:	48 89 50 08          	mov    %rdx,0x8(%rax)
  409929:	48 8b 45 d8          	mov    -0x28(%rbp),%rax
  40992d:	48 8d 14 c5 00 00 00 	lea    0x0(,%rax,8),%rdx
  409934:	00 
  409935:	48 8b 45 e8          	mov    -0x18(%rbp),%rax
  409939:	48 01 c2             	add    %rax,%rdx
  40993c:	48 8b 45 c8          	mov    -0x38(%rbp),%rax
  409940:	48 89 50 10          	mov    %rdx,0x10(%rax)
  409944:	eb 59                	jmp    40999f <_ZNSt6vectorIN2cl8PlatformESaIS1_EE17_M_default_appendEm+0x1ff>
  409946:	48 89 c7             	mov    %rax,%rdi
  409949:	e8 72 a4 ff ff       	callq  403dc0 <__cxa_begin_catch@plt>
  40994e:	48 8b 45 c8          	mov    -0x38(%rbp),%rax
  409952:	48 89 c7             	mov    %rax,%rdi
  409955:	e8 4c 01 00 00       	callq  409aa6 <_ZNSt12_Vector_baseIN2cl8PlatformESaIS1_EE19_M_get_Tp_allocatorEv>
  40995a:	48 89 c2             	mov    %rax,%rdx
  40995d:	48 8b 4d d0          	mov    -0x30(%rbp),%rcx
  409961:	48 8b 45 e8          	mov    -0x18(%rbp),%rax
  409965:	48 89 ce             	mov    %rcx,%rsi
  409968:	48 89 c7             	mov    %rax,%rdi
  40996b:	e8 44 01 00 00       	callq  409ab4 <_ZSt8_DestroyIPN2cl8PlatformES1_EvT_S3_RSaIT0_E>
  409970:	48 8b 45 c8          	mov    -0x38(%rbp),%rax
  409974:	48 8b 55 d8          	mov    -0x28(%rbp),%rdx
  409978:	48 8b 4d e8          	mov    -0x18(%rbp),%rcx
  40997c:	48 89 ce             	mov    %rcx,%rsi
  40997f:	48 89 c7             	mov    %rax,%rdi
  409982:	e8 43 0e 00 00       	callq  40a7ca <_ZNSt12_Vector_baseIN2cl8PlatformESaIS1_EE13_M_deallocateEPS1_m>
  409987:	e8 e4 a6 ff ff       	callq  404070 <__cxa_rethrow@plt>
  40998c:	48 89 c3             	mov    %rax,%rbx
  40998f:	e8 7c a7 ff ff       	callq  404110 <__cxa_end_catch@plt>
  409994:	48 89 d8             	mov    %rbx,%rax
  409997:	48 89 c7             	mov    %rax,%rdi
  40999a:	e8 f1 a7 ff ff       	callq  404190 <_Unwind_Resume@plt>
  40999f:	90                   	nop
  4099a0:	48 83 c4 38          	add    $0x38,%rsp
  4099a4:	5b                   	pop    %rbx
  4099a5:	5d                   	pop    %rbp
  4099a6:	c3                   	retq   
  4099a7:	90                   	nop

00000000004099a8 <_ZNSt6vectorIN2cl8PlatformESaIS1_EE15_M_erase_at_endEPS1_>:
  4099a8:	55                   	push   %rbp
  4099a9:	48 89 e5             	mov    %rsp,%rbp
  4099ac:	48 83 ec 10          	sub    $0x10,%rsp
  4099b0:	48 89 7d f8          	mov    %rdi,-0x8(%rbp)
  4099b4:	48 89 75 f0          	mov    %rsi,-0x10(%rbp)
  4099b8:	48 8b 45 f8          	mov    -0x8(%rbp),%rax
  4099bc:	48 89 c7             	mov    %rax,%rdi
  4099bf:	e8 e2 00 00 00       	callq  409aa6 <_ZNSt12_Vector_baseIN2cl8PlatformESaIS1_EE19_M_get_Tp_allocatorEv>
  4099c4:	48 89 c2             	mov    %rax,%rdx
  4099c7:	48 8b 45 f8          	mov    -0x8(%rbp),%rax
  4099cb:	48 8b 48 08          	mov    0x8(%rax),%rcx
  4099cf:	48 8b 45 f0          	mov    -0x10(%rbp),%rax
  4099d3:	48 89 ce             	mov    %rcx,%rsi
  4099d6:	48 89 c7             	mov    %rax,%rdi
  4099d9:	e8 d6 00 00 00       	callq  409ab4 <_ZSt8_DestroyIPN2cl8PlatformES1_EvT_S3_RSaIT0_E>
  4099de:	48 8b 45 f8          	mov    -0x8(%rbp),%rax
  4099e2:	48 8b 55 f0          	mov    -0x10(%rbp),%rdx
  4099e6:	48 89 50 08          	mov    %rdx,0x8(%rax)
  4099ea:	90                   	nop
  4099eb:	c9                   	leaveq 
  4099ec:	c3                   	retq   
  4099ed:	90                   	nop

00000000004099ee <_ZNK2cl6detail7WrapperIP11_cl_contextE7releaseEv>:
  4099ee:	55                   	push   %rbp
  4099ef:	48 89 e5             	mov    %rsp,%rbp
  4099f2:	48 83 ec 10          	sub    $0x10,%rsp
  4099f6:	48 89 7d f8          	mov    %rdi,-0x8(%rbp)
  4099fa:	48 8b 45 f8          	mov    -0x8(%rbp),%rax
  4099fe:	48 8b 00             	mov    (%rax),%rax
  409a01:	48 85 c0             	test   %rax,%rax
  409a04:	74 11                	je     409a17 <_ZNK2cl6detail7WrapperIP11_cl_contextE7releaseEv+0x29>
  409a06:	48 8b 45 f8          	mov    -0x8(%rbp),%rax
  409a0a:	48 8b 00             	mov    (%rax),%rax
  409a0d:	48 89 c7             	mov    %rax,%rdi
  409a10:	e8 1f b6 ff ff       	callq  405034 <_ZN2cl6detail16ReferenceHandlerIP11_cl_contextE7releaseES3_>
  409a15:	eb 05                	jmp    409a1c <_ZNK2cl6detail7WrapperIP11_cl_contextE7releaseEv+0x2e>
  409a17:	b8 00 00 00 00       	mov    $0x0,%eax
  409a1c:	c9                   	leaveq 
  409a1d:	c3                   	retq   

0000000000409a1e <_ZNSt12_Vector_baseIN2cl8PlatformESaIS1_EE12_Vector_implD1Ev>:
  409a1e:	55                   	push   %rbp
  409a1f:	48 89 e5             	mov    %rsp,%rbp
  409a22:	48 83 ec 10          	sub    $0x10,%rsp
  409a26:	48 89 7d f8          	mov    %rdi,-0x8(%rbp)
  409a2a:	48 8b 45 f8          	mov    -0x8(%rbp),%rax
  409a2e:	48 89 c7             	mov    %rax,%rdi
  409a31:	e8 08 0e 00 00       	callq  40a83e <_ZNSaIN2cl8PlatformEED1Ev>
  409a36:	90                   	nop
  409a37:	c9                   	leaveq 
  409a38:	c3                   	retq   
  409a39:	90                   	nop

0000000000409a3a <_ZNSt12_Vector_baseIN2cl8PlatformESaIS1_EEC1Ev>:
  409a3a:	55                   	push   %rbp
  409a3b:	48 89 e5             	mov    %rsp,%rbp
  409a3e:	48 83 ec 10          	sub    $0x10,%rsp
  409a42:	48 89 7d f8          	mov    %rdi,-0x8(%rbp)
  409a46:	48 8b 45 f8          	mov    -0x8(%rbp),%rax
  409a4a:	48 89 c7             	mov    %rax,%rdi
  409a4d:	e8 ae 0d 00 00       	callq  40a800 <_ZNSt12_Vector_baseIN2cl8PlatformESaIS1_EE12_Vector_implC1Ev>
  409a52:	90                   	nop
  409a53:	c9                   	leaveq 
  409a54:	c3                   	retq   
  409a55:	90                   	nop

0000000000409a56 <_ZNSt12_Vector_baseIN2cl8PlatformESaIS1_EED1Ev>:
  409a56:	55                   	push   %rbp
  409a57:	48 89 e5             	mov    %rsp,%rbp
  409a5a:	48 83 ec 10          	sub    $0x10,%rsp
  409a5e:	48 89 7d f8          	mov    %rdi,-0x8(%rbp)
  409a62:	48 8b 45 f8          	mov    -0x8(%rbp),%rax
  409a66:	48 8b 40 10          	mov    0x10(%rax),%rax
  409a6a:	48 89 c2             	mov    %rax,%rdx
  409a6d:	48 8b 45 f8          	mov    -0x8(%rbp),%rax
  409a71:	48 8b 00             	mov    (%rax),%rax
  409a74:	48 29 c2             	sub    %rax,%rdx
  409a77:	48 89 d0             	mov    %rdx,%rax
  409a7a:	48 c1 f8 03          	sar    $0x3,%rax
  409a7e:	48 89 c2             	mov    %rax,%rdx
  409a81:	48 8b 45 f8          	mov    -0x8(%rbp),%rax
  409a85:	48 8b 08             	mov    (%rax),%rcx
  409a88:	48 8b 45 f8          	mov    -0x8(%rbp),%rax
  409a8c:	48 89 ce             	mov    %rcx,%rsi
  409a8f:	48 89 c7             	mov    %rax,%rdi
  409a92:	e8 33 0d 00 00       	callq  40a7ca <_ZNSt12_Vector_baseIN2cl8PlatformESaIS1_EE13_M_deallocateEPS1_m>
  409a97:	48 8b 45 f8          	mov    -0x8(%rbp),%rax
  409a9b:	48 89 c7             	mov    %rax,%rdi
  409a9e:	e8 7b ff ff ff       	callq  409a1e <_ZNSt12_Vector_baseIN2cl8PlatformESaIS1_EE12_Vector_implD1Ev>
  409aa3:	90                   	nop
  409aa4:	c9                   	leaveq 
  409aa5:	c3                   	retq   

0000000000409aa6 <_ZNSt12_Vector_baseIN2cl8PlatformESaIS1_EE19_M_get_Tp_allocatorEv>:
  409aa6:	55                   	push   %rbp
  409aa7:	48 89 e5             	mov    %rsp,%rbp
  409aaa:	48 89 7d f8          	mov    %rdi,-0x8(%rbp)
  409aae:	48 8b 45 f8          	mov    -0x8(%rbp),%rax
  409ab2:	5d                   	pop    %rbp
  409ab3:	c3                   	retq   

0000000000409ab4 <_ZSt8_DestroyIPN2cl8PlatformES1_EvT_S3_RSaIT0_E>:
  409ab4:	55                   	push   %rbp
  409ab5:	48 89 e5             	mov    %rsp,%rbp
  409ab8:	48 83 ec 20          	sub    $0x20,%rsp
  409abc:	48 89 7d f8          	mov    %rdi,-0x8(%rbp)
  409ac0:	48 89 75 f0          	mov    %rsi,-0x10(%rbp)
  409ac4:	48 89 55 e8          	mov    %rdx,-0x18(%rbp)
  409ac8:	48 8b 55 f0          	mov    -0x10(%rbp),%rdx
  409acc:	48 8b 45 f8          	mov    -0x8(%rbp),%rax
  409ad0:	48 89 d6             	mov    %rdx,%rsi
  409ad3:	48 89 c7             	mov    %rax,%rdi
  409ad6:	e8 7e 0d 00 00       	callq  40a859 <_ZSt8_DestroyIPN2cl8PlatformEEvT_S3_>
  409adb:	90                   	nop
  409adc:	c9                   	leaveq 
  409add:	c3                   	retq   

0000000000409ade <_ZNSt12_Vector_baseIN2cl6DeviceESaIS1_EE12_Vector_implD1Ev>:
  409ade:	55                   	push   %rbp
  409adf:	48 89 e5             	mov    %rsp,%rbp
  409ae2:	48 83 ec 10          	sub    $0x10,%rsp
  409ae6:	48 89 7d f8          	mov    %rdi,-0x8(%rbp)
  409aea:	48 8b 45 f8          	mov    -0x8(%rbp),%rax
  409aee:	48 89 c7             	mov    %rax,%rdi
  409af1:	e8 c8 0d 00 00       	callq  40a8be <_ZNSaIN2cl6DeviceEED1Ev>
  409af6:	90                   	nop
  409af7:	c9                   	leaveq 
  409af8:	c3                   	retq   
  409af9:	90                   	nop

0000000000409afa <_ZNSt12_Vector_baseIN2cl6DeviceESaIS1_EEC1Ev>:
  409afa:	55                   	push   %rbp
  409afb:	48 89 e5             	mov    %rsp,%rbp
  409afe:	48 83 ec 10          	sub    $0x10,%rsp
  409b02:	48 89 7d f8          	mov    %rdi,-0x8(%rbp)
  409b06:	48 8b 45 f8          	mov    -0x8(%rbp),%rax
  409b0a:	48 89 c7             	mov    %rax,%rdi
  409b0d:	e8 6e 0d 00 00       	callq  40a880 <_ZNSt12_Vector_baseIN2cl6DeviceESaIS1_EE12_Vector_implC1Ev>
  409b12:	90                   	nop
  409b13:	c9                   	leaveq 
  409b14:	c3                   	retq   
  409b15:	90                   	nop

0000000000409b16 <_ZNSt12_Vector_baseIN2cl6DeviceESaIS1_EED1Ev>:
  409b16:	55                   	push   %rbp
  409b17:	48 89 e5             	mov    %rsp,%rbp
  409b1a:	48 83 ec 10          	sub    $0x10,%rsp
  409b1e:	48 89 7d f8          	mov    %rdi,-0x8(%rbp)
  409b22:	48 8b 45 f8          	mov    -0x8(%rbp),%rax
  409b26:	48 8b 40 10          	mov    0x10(%rax),%rax
  409b2a:	48 89 c2             	mov    %rax,%rdx
  409b2d:	48 8b 45 f8          	mov    -0x8(%rbp),%rax
  409b31:	48 8b 00             	mov    (%rax),%rax
  409b34:	48 29 c2             	sub    %rax,%rdx
  409b37:	48 89 d0             	mov    %rdx,%rax
  409b3a:	48 c1 f8 04          	sar    $0x4,%rax
  409b3e:	48 89 c2             	mov    %rax,%rdx
  409b41:	48 8b 45 f8          	mov    -0x8(%rbp),%rax
  409b45:	48 8b 08             	mov    (%rax),%rcx
  409b48:	48 8b 45 f8          	mov    -0x8(%rbp),%rax
  409b4c:	48 89 ce             	mov    %rcx,%rsi
  409b4f:	48 89 c7             	mov    %rax,%rdi
  409b52:	e8 a1 0a 00 00       	callq  40a5f8 <_ZNSt12_Vector_baseIN2cl6DeviceESaIS1_EE13_M_deallocateEPS1_m>
  409b57:	48 8b 45 f8          	mov    -0x8(%rbp),%rax
  409b5b:	48 89 c7             	mov    %rax,%rdi
  409b5e:	e8 7b ff ff ff       	callq  409ade <_ZNSt12_Vector_baseIN2cl6DeviceESaIS1_EE12_Vector_implD1Ev>
  409b63:	90                   	nop
  409b64:	c9                   	leaveq 
  409b65:	c3                   	retq   

0000000000409b66 <_ZNSt12_Vector_baseIN2cl6DeviceESaIS1_EE19_M_get_Tp_allocatorEv>:
  409b66:	55                   	push   %rbp
  409b67:	48 89 e5             	mov    %rsp,%rbp
  409b6a:	48 89 7d f8          	mov    %rdi,-0x8(%rbp)
  409b6e:	48 8b 45 f8          	mov    -0x8(%rbp),%rax
  409b72:	5d                   	pop    %rbp
  409b73:	c3                   	retq   

0000000000409b74 <_ZSt8_DestroyIPN2cl6DeviceES1_EvT_S3_RSaIT0_E>:
  409b74:	55                   	push   %rbp
  409b75:	48 89 e5             	mov    %rsp,%rbp
  409b78:	48 83 ec 20          	sub    $0x20,%rsp
  409b7c:	48 89 7d f8          	mov    %rdi,-0x8(%rbp)
  409b80:	48 89 75 f0          	mov    %rsi,-0x10(%rbp)
  409b84:	48 89 55 e8          	mov    %rdx,-0x18(%rbp)
  409b88:	48 8b 55 f0          	mov    -0x10(%rbp),%rdx
  409b8c:	48 8b 45 f8          	mov    -0x8(%rbp),%rax
  409b90:	48 89 d6             	mov    %rdx,%rsi
  409b93:	48 89 c7             	mov    %rax,%rdi
  409b96:	e8 3e 0d 00 00       	callq  40a8d9 <_ZSt8_DestroyIPN2cl6DeviceEEvT_S3_>
  409b9b:	90                   	nop
  409b9c:	c9                   	leaveq 
  409b9d:	c3                   	retq   

0000000000409b9e <_ZNK2cl6detail7WrapperIP11_cl_contextE6retainEv>:
  409b9e:	55                   	push   %rbp
  409b9f:	48 89 e5             	mov    %rsp,%rbp
  409ba2:	48 83 ec 10          	sub    $0x10,%rsp
  409ba6:	48 89 7d f8          	mov    %rdi,-0x8(%rbp)
  409baa:	48 8b 45 f8          	mov    -0x8(%rbp),%rax
  409bae:	48 8b 00             	mov    (%rax),%rax
  409bb1:	48 85 c0             	test   %rax,%rax
  409bb4:	74 11                	je     409bc7 <_ZNK2cl6detail7WrapperIP11_cl_contextE6retainEv+0x29>
  409bb6:	48 8b 45 f8          	mov    -0x8(%rbp),%rax
  409bba:	48 8b 00             	mov    (%rax),%rax
  409bbd:	48 89 c7             	mov    %rax,%rdi
  409bc0:	e8 55 b4 ff ff       	callq  40501a <_ZN2cl6detail16ReferenceHandlerIP11_cl_contextE6retainES3_>
  409bc5:	eb 05                	jmp    409bcc <_ZNK2cl6detail7WrapperIP11_cl_contextE6retainEv+0x2e>
  409bc7:	b8 00 00 00 00       	mov    $0x0,%eax
  409bcc:	c9                   	leaveq 
  409bcd:	c3                   	retq   

0000000000409bce <_ZNSt22_Maybe_get_result_typeIN2cl7ContextEvEC1Ev>:
  409bce:	55                   	push   %rbp
  409bcf:	48 89 e5             	mov    %rsp,%rbp
  409bd2:	48 89 7d f8          	mov    %rdi,-0x8(%rbp)
  409bd6:	90                   	nop
  409bd7:	5d                   	pop    %rbp
  409bd8:	c3                   	retq   
  409bd9:	90                   	nop

0000000000409bda <_ZNSt22_Weak_result_type_implIN2cl7ContextEEC1Ev>:
  409bda:	55                   	push   %rbp
  409bdb:	48 89 e5             	mov    %rsp,%rbp
  409bde:	48 83 ec 10          	sub    $0x10,%rsp
  409be2:	48 89 7d f8          	mov    %rdi,-0x8(%rbp)
  409be6:	48 8b 45 f8          	mov    -0x8(%rbp),%rax
  409bea:	48 89 c7             	mov    %rax,%rdi
  409bed:	e8 dc ff ff ff       	callq  409bce <_ZNSt22_Maybe_get_result_typeIN2cl7ContextEvEC1Ev>
  409bf2:	90                   	nop
  409bf3:	c9                   	leaveq 
  409bf4:	c3                   	retq   
  409bf5:	90                   	nop

0000000000409bf6 <_ZNSt17_Weak_result_typeIN2cl7ContextEEC1Ev>:
  409bf6:	55                   	push   %rbp
  409bf7:	48 89 e5             	mov    %rsp,%rbp
  409bfa:	48 83 ec 10          	sub    $0x10,%rsp
  409bfe:	48 89 7d f8          	mov    %rdi,-0x8(%rbp)
  409c02:	48 8b 45 f8          	mov    -0x8(%rbp),%rax
  409c06:	48 89 c7             	mov    %rax,%rdi
  409c09:	e8 cc ff ff ff       	callq  409bda <_ZNSt22_Weak_result_type_implIN2cl7ContextEEC1Ev>
  409c0e:	90                   	nop
  409c0f:	c9                   	leaveq 
  409c10:	c3                   	retq   
  409c11:	90                   	nop

0000000000409c12 <_ZNSt28_Reference_wrapper_base_implILb0ELb0EN2cl7ContextEEC1Ev>:
  409c12:	55                   	push   %rbp
  409c13:	48 89 e5             	mov    %rsp,%rbp
  409c16:	48 83 ec 10          	sub    $0x10,%rsp
  409c1a:	48 89 7d f8          	mov    %rdi,-0x8(%rbp)
  409c1e:	48 8b 45 f8          	mov    -0x8(%rbp),%rax
  409c22:	48 89 c7             	mov    %rax,%rdi
  409c25:	e8 cc ff ff ff       	callq  409bf6 <_ZNSt17_Weak_result_typeIN2cl7ContextEEC1Ev>
  409c2a:	90                   	nop
  409c2b:	c9                   	leaveq 
  409c2c:	c3                   	retq   
  409c2d:	90                   	nop

0000000000409c2e <_ZNSt23_Reference_wrapper_baseIN2cl7ContextEEC1Ev>:
  409c2e:	55                   	push   %rbp
  409c2f:	48 89 e5             	mov    %rsp,%rbp
  409c32:	48 83 ec 10          	sub    $0x10,%rsp
  409c36:	48 89 7d f8          	mov    %rdi,-0x8(%rbp)
  409c3a:	48 8b 45 f8          	mov    -0x8(%rbp),%rax
  409c3e:	48 89 c7             	mov    %rax,%rdi
  409c41:	e8 cc ff ff ff       	callq  409c12 <_ZNSt28_Reference_wrapper_base_implILb0ELb0EN2cl7ContextEEC1Ev>
  409c46:	90                   	nop
  409c47:	c9                   	leaveq 
  409c48:	c3                   	retq   
  409c49:	90                   	nop

0000000000409c4a <_ZNSt17reference_wrapperIKN2cl7ContextEEC1ERS2_>:
  409c4a:	55                   	push   %rbp
  409c4b:	48 89 e5             	mov    %rsp,%rbp
  409c4e:	48 83 ec 10          	sub    $0x10,%rsp
  409c52:	48 89 7d f8          	mov    %rdi,-0x8(%rbp)
  409c56:	48 89 75 f0          	mov    %rsi,-0x10(%rbp)
  409c5a:	48 8b 45 f8          	mov    -0x8(%rbp),%rax
  409c5e:	48 89 c7             	mov    %rax,%rdi
  409c61:	e8 c8 ff ff ff       	callq  409c2e <_ZNSt23_Reference_wrapper_baseIN2cl7ContextEEC1Ev>
  409c66:	48 8b 45 f0          	mov    -0x10(%rbp),%rax
  409c6a:	48 89 c7             	mov    %rax,%rdi
  409c6d:	e8 8d 0c 00 00       	callq  40a8ff <_ZSt11__addressofIKN2cl7ContextEEPT_RS3_>
  409c72:	48 89 c2             	mov    %rax,%rdx
  409c75:	48 8b 45 f8          	mov    -0x8(%rbp),%rax
  409c79:	48 89 10             	mov    %rdx,(%rax)
  409c7c:	90                   	nop
  409c7d:	c9                   	leaveq 
  409c7e:	c3                   	retq   

0000000000409c7f <_ZSt8__invokeIRFvRKN2cl7ContextEEJSt17reference_wrapperIS2_EEENSt9result_ofIFOT_DpOT0_EE4typeESA_SD_>:
  409c7f:	55                   	push   %rbp
  409c80:	48 89 e5             	mov    %rsp,%rbp
  409c83:	41 54                	push   %r12
  409c85:	53                   	push   %rbx
  409c86:	48 83 ec 20          	sub    $0x20,%rsp
  409c8a:	48 89 7d d8          	mov    %rdi,-0x28(%rbp)
  409c8e:	48 89 75 d0          	mov    %rsi,-0x30(%rbp)
  409c92:	64 48 8b 04 25 28 00 	mov    %fs:0x28,%rax
  409c99:	00 00 
  409c9b:	48 89 45 e8          	mov    %rax,-0x18(%rbp)
  409c9f:	31 c0                	xor    %eax,%eax
  409ca1:	48 8b 45 d0          	mov    -0x30(%rbp),%rax
  409ca5:	48 89 c7             	mov    %rax,%rdi
  409ca8:	e8 05 e7 ff ff       	callq  4083b2 <_ZSt7forwardISt17reference_wrapperIKN2cl7ContextEEEOT_RNSt16remove_referenceIS5_E4typeE>
  409cad:	48 89 c3             	mov    %rax,%rbx
  409cb0:	48 8b 45 d8          	mov    -0x28(%rbp),%rax
  409cb4:	48 89 c7             	mov    %rax,%rdi
  409cb7:	e8 e8 e6 ff ff       	callq  4083a4 <_ZSt7forwardIRFvRKN2cl7ContextEEEOT_RNSt16remove_referenceIS6_E4typeE>
  409cbc:	48 83 ec 08          	sub    $0x8,%rsp
  409cc0:	41 54                	push   %r12
  409cc2:	48 89 de             	mov    %rbx,%rsi
  409cc5:	48 89 c7             	mov    %rax,%rdi
  409cc8:	e8 40 0c 00 00       	callq  40a90d <_ZSt13__invoke_implIvRFvRKN2cl7ContextEEJSt17reference_wrapperIS2_EEET_St14__invoke_otherOT0_DpOT1_>
  409ccd:	48 83 c4 10          	add    $0x10,%rsp
  409cd1:	48 8b 45 e8          	mov    -0x18(%rbp),%rax
  409cd5:	64 48 33 04 25 28 00 	xor    %fs:0x28,%rax
  409cdc:	00 00 
  409cde:	74 05                	je     409ce5 <_ZSt8__invokeIRFvRKN2cl7ContextEEJSt17reference_wrapperIS2_EEENSt9result_ofIFOT_DpOT0_EE4typeESA_SD_+0x66>
  409ce0:	e8 4b a2 ff ff       	callq  403f30 <__stack_chk_fail@plt>
  409ce5:	48 8d 65 f0          	lea    -0x10(%rbp),%rsp
  409ce9:	5b                   	pop    %rbx
  409cea:	41 5c                	pop    %r12
  409cec:	5d                   	pop    %rbp
  409ced:	c3                   	retq   

0000000000409cee <_ZSt11__addressofIZSt9call_onceIRFvRKN2cl7ContextEEJSt17reference_wrapperIS3_EEEvRSt9once_flagOT_DpOT0_EUlvE_EPSB_RSB_>:
  409cee:	55                   	push   %rbp
  409cef:	48 89 e5             	mov    %rsp,%rbp
  409cf2:	48 89 7d f8          	mov    %rdi,-0x8(%rbp)
  409cf6:	48 8b 45 f8          	mov    -0x8(%rbp),%rax
  409cfa:	5d                   	pop    %rbp
  409cfb:	c3                   	retq   

0000000000409cfc <_ZNK2cl6detail7WrapperIP10_cl_kernelE7releaseEv>:
  409cfc:	55                   	push   %rbp
  409cfd:	48 89 e5             	mov    %rsp,%rbp
  409d00:	48 83 ec 10          	sub    $0x10,%rsp
  409d04:	48 89 7d f8          	mov    %rdi,-0x8(%rbp)
  409d08:	48 8b 45 f8          	mov    -0x8(%rbp),%rax
  409d0c:	48 8b 00             	mov    (%rax),%rax
  409d0f:	48 85 c0             	test   %rax,%rax
  409d12:	74 11                	je     409d25 <_ZNK2cl6detail7WrapperIP10_cl_kernelE7releaseEv+0x29>
  409d14:	48 8b 45 f8          	mov    -0x8(%rbp),%rax
  409d18:	48 8b 00             	mov    (%rax),%rax
  409d1b:	48 89 c7             	mov    %rax,%rdi
  409d1e:	e8 5f b3 ff ff       	callq  405082 <_ZN2cl6detail16ReferenceHandlerIP10_cl_kernelE7releaseES3_>
  409d23:	eb 05                	jmp    409d2a <_ZNK2cl6detail7WrapperIP10_cl_kernelE7releaseEv+0x2e>
  409d25:	b8 00 00 00 00       	mov    $0x0,%eax
  409d2a:	c9                   	leaveq 
  409d2b:	c3                   	retq   

0000000000409d2c <_ZNK2cl6detail7WrapperIP17_cl_command_queueE7releaseEv>:
  409d2c:	55                   	push   %rbp
  409d2d:	48 89 e5             	mov    %rsp,%rbp
  409d30:	48 83 ec 10          	sub    $0x10,%rsp
  409d34:	48 89 7d f8          	mov    %rdi,-0x8(%rbp)
  409d38:	48 8b 45 f8          	mov    -0x8(%rbp),%rax
  409d3c:	48 8b 00             	mov    (%rax),%rax
  409d3f:	48 85 c0             	test   %rax,%rax
  409d42:	74 11                	je     409d55 <_ZNK2cl6detail7WrapperIP17_cl_command_queueE7releaseEv+0x29>
  409d44:	48 8b 45 f8          	mov    -0x8(%rbp),%rax
  409d48:	48 8b 00             	mov    (%rax),%rax
  409d4b:	48 89 c7             	mov    %rax,%rdi
  409d4e:	e8 15 b3 ff ff       	callq  405068 <_ZN2cl6detail16ReferenceHandlerIP17_cl_command_queueE7releaseES3_>
  409d53:	eb 05                	jmp    409d5a <_ZNK2cl6detail7WrapperIP17_cl_command_queueE7releaseEv+0x2e>
  409d55:	b8 00 00 00 00       	mov    $0x0,%eax
  409d5a:	c9                   	leaveq 
  409d5b:	c3                   	retq   

0000000000409d5c <_ZN2cl6detail7getInfoIPFiP11_cl_contextjmPvPmES3_St6vectorINS_6DeviceESaIS9_EEEEiT_RKT0_jPT1_>:
  409d5c:	55                   	push   %rbp
  409d5d:	48 89 e5             	mov    %rsp,%rbp
  409d60:	48 83 ec 40          	sub    $0x40,%rsp
  409d64:	48 89 7d d8          	mov    %rdi,-0x28(%rbp)
  409d68:	48 89 75 d0          	mov    %rsi,-0x30(%rbp)
  409d6c:	89 55 cc             	mov    %edx,-0x34(%rbp)
  409d6f:	48 89 4d c0          	mov    %rcx,-0x40(%rbp)
  409d73:	64 48 8b 04 25 28 00 	mov    %fs:0x28,%rax
  409d7a:	00 00 
  409d7c:	48 89 45 f8          	mov    %rax,-0x8(%rbp)
  409d80:	31 c0                	xor    %eax,%eax
  409d82:	48 8b 45 d8          	mov    -0x28(%rbp),%rax
  409d86:	48 89 45 e0          	mov    %rax,-0x20(%rbp)
  409d8a:	48 8b 45 d0          	mov    -0x30(%rbp),%rax
  409d8e:	48 89 45 e8          	mov    %rax,-0x18(%rbp)
  409d92:	48 8b 4d c0          	mov    -0x40(%rbp),%rcx
  409d96:	8b 55 cc             	mov    -0x34(%rbp),%edx
  409d99:	48 8b 75 e0          	mov    -0x20(%rbp),%rsi
  409d9d:	48 8b 45 e8          	mov    -0x18(%rbp),%rax
  409da1:	41 b9 00 00 00 00    	mov    $0x0,%r9d
  409da7:	41 b8 00 00 00 00    	mov    $0x0,%r8d
  409dad:	48 89 f7             	mov    %rsi,%rdi
  409db0:	48 89 c6             	mov    %rax,%rsi
  409db3:	e8 95 0b 00 00       	callq  40a94d <_ZN2cl6detail13getInfoHelperINS0_15GetInfoFunctor0IPFiP11_cl_contextjmPvPmES4_EENS_6DeviceEEEiT_jPSt6vectorIT0_SaISD_EEiNSD_7cl_typeE>
  409db8:	48 8b 7d f8          	mov    -0x8(%rbp),%rdi
  409dbc:	64 48 33 3c 25 28 00 	xor    %fs:0x28,%rdi
  409dc3:	00 00 
  409dc5:	74 05                	je     409dcc <_ZN2cl6detail7getInfoIPFiP11_cl_contextjmPvPmES3_St6vectorINS_6DeviceESaIS9_EEEEiT_RKT0_jPT1_+0x70>
  409dc7:	e8 64 a1 ff ff       	callq  403f30 <__stack_chk_fail@plt>
  409dcc:	c9                   	leaveq 
  409dcd:	c3                   	retq   

0000000000409dce <_ZNK2cl6detail7WrapperIP17_cl_command_queueE6retainEv>:
  409dce:	55                   	push   %rbp
  409dcf:	48 89 e5             	mov    %rsp,%rbp
  409dd2:	48 83 ec 10          	sub    $0x10,%rsp
  409dd6:	48 89 7d f8          	mov    %rdi,-0x8(%rbp)
  409dda:	48 8b 45 f8          	mov    -0x8(%rbp),%rax
  409dde:	48 8b 00             	mov    (%rax),%rax
  409de1:	48 85 c0             	test   %rax,%rax
  409de4:	74 11                	je     409df7 <_ZNK2cl6detail7WrapperIP17_cl_command_queueE6retainEv+0x29>
  409de6:	48 8b 45 f8          	mov    -0x8(%rbp),%rax
  409dea:	48 8b 00             	mov    (%rax),%rax
  409ded:	48 89 c7             	mov    %rax,%rdi
  409df0:	e8 59 b2 ff ff       	callq  40504e <_ZN2cl6detail16ReferenceHandlerIP17_cl_command_queueE6retainES3_>
  409df5:	eb 05                	jmp    409dfc <_ZNK2cl6detail7WrapperIP17_cl_command_queueE6retainEv+0x2e>
  409df7:	b8 00 00 00 00       	mov    $0x0,%eax
  409dfc:	c9                   	leaveq 
  409dfd:	c3                   	retq   

0000000000409dfe <_ZNSt14__array_traitsImLm6EE6_S_ptrERA6_Km>:
  409dfe:	55                   	push   %rbp
  409dff:	48 89 e5             	mov    %rsp,%rbp
  409e02:	48 89 7d f8          	mov    %rdi,-0x8(%rbp)
  409e06:	48 8b 45 f8          	mov    -0x8(%rbp),%rax
  409e0a:	5d                   	pop    %rbp
  409e0b:	c3                   	retq   

0000000000409e0c <_ZNSt5arrayImLm6EE4dataEv>:
  409e0c:	55                   	push   %rbp
  409e0d:	48 89 e5             	mov    %rsp,%rbp
  409e10:	48 83 ec 10          	sub    $0x10,%rsp
  409e14:	48 89 7d f8          	mov    %rdi,-0x8(%rbp)
  409e18:	48 8b 45 f8          	mov    -0x8(%rbp),%rax
  409e1c:	48 89 c7             	mov    %rax,%rdi
  409e1f:	e8 da ff ff ff       	callq  409dfe <_ZNSt14__array_traitsImLm6EE6_S_ptrERA6_Km>
  409e24:	c9                   	leaveq 
  409e25:	c3                   	retq   

0000000000409e26 <_ZN11arm_compute10DimensionsImEC1IJEEEDpT_>:
  409e26:	55                   	push   %rbp
  409e27:	48 89 e5             	mov    %rsp,%rbp
  409e2a:	48 89 7d f8          	mov    %rdi,-0x8(%rbp)
  409e2e:	48 8b 45 f8          	mov    -0x8(%rbp),%rax
  409e32:	48 89 c6             	mov    %rax,%rsi
  409e35:	b8 00 00 00 00       	mov    $0x0,%eax
  409e3a:	ba 06 00 00 00       	mov    $0x6,%edx
  409e3f:	48 89 f7             	mov    %rsi,%rdi
  409e42:	48 89 d1             	mov    %rdx,%rcx
  409e45:	f3 48 ab             	rep stos %rax,%es:(%rdi)
  409e48:	48 8b 45 f8          	mov    -0x8(%rbp),%rax
  409e4c:	48 c7 40 30 00 00 00 	movq   $0x0,0x30(%rax)
  409e53:	00 
  409e54:	90                   	nop
  409e55:	5d                   	pop    %rbp
  409e56:	c3                   	retq   
  409e57:	90                   	nop

0000000000409e58 <_ZNSt5arrayIiLm6EEixEm>:
  409e58:	55                   	push   %rbp
  409e59:	48 89 e5             	mov    %rsp,%rbp
  409e5c:	48 83 ec 10          	sub    $0x10,%rsp
  409e60:	48 89 7d f8          	mov    %rdi,-0x8(%rbp)
  409e64:	48 89 75 f0          	mov    %rsi,-0x10(%rbp)
  409e68:	48 8b 45 f8          	mov    -0x8(%rbp),%rax
  409e6c:	48 8b 55 f0          	mov    -0x10(%rbp),%rdx
  409e70:	48 89 d6             	mov    %rdx,%rsi
  409e73:	48 89 c7             	mov    %rax,%rdi
  409e76:	e8 e3 e9 ff ff       	callq  40885e <_ZNSt14__array_traitsIiLm6EE6_S_refERA6_Kim>
  409e7b:	c9                   	leaveq 
  409e7c:	c3                   	retq   

0000000000409e7d <_ZNSt10_Head_baseILm1ESt14default_deleteIN11arm_compute9ICLKernelEELb1EE7_M_headERS4_>:
  409e7d:	55                   	push   %rbp
  409e7e:	48 89 e5             	mov    %rsp,%rbp
  409e81:	48 89 7d f8          	mov    %rdi,-0x8(%rbp)
  409e85:	48 8b 45 f8          	mov    -0x8(%rbp),%rax
  409e89:	5d                   	pop    %rbp
  409e8a:	c3                   	retq   

0000000000409e8b <_ZNSt11_Tuple_implILm1EJSt14default_deleteIN11arm_compute9ICLKernelEEEE7_M_headERS4_>:
  409e8b:	55                   	push   %rbp
  409e8c:	48 89 e5             	mov    %rsp,%rbp
  409e8f:	48 83 ec 10          	sub    $0x10,%rsp
  409e93:	48 89 7d f8          	mov    %rdi,-0x8(%rbp)
  409e97:	48 8b 45 f8          	mov    -0x8(%rbp),%rax
  409e9b:	48 89 c7             	mov    %rax,%rdi
  409e9e:	e8 da ff ff ff       	callq  409e7d <_ZNSt10_Head_baseILm1ESt14default_deleteIN11arm_compute9ICLKernelEELb1EE7_M_headERS4_>
  409ea3:	c9                   	leaveq 
  409ea4:	c3                   	retq   

0000000000409ea5 <_ZSt12__get_helperILm1ESt14default_deleteIN11arm_compute9ICLKernelEEJEERT0_RSt11_Tuple_implIXT_EJS4_DpT1_EE>:
  409ea5:	55                   	push   %rbp
  409ea6:	48 89 e5             	mov    %rsp,%rbp
  409ea9:	48 83 ec 10          	sub    $0x10,%rsp
  409ead:	48 89 7d f8          	mov    %rdi,-0x8(%rbp)
  409eb1:	48 8b 45 f8          	mov    -0x8(%rbp),%rax
  409eb5:	48 89 c7             	mov    %rax,%rdi
  409eb8:	e8 ce ff ff ff       	callq  409e8b <_ZNSt11_Tuple_implILm1EJSt14default_deleteIN11arm_compute9ICLKernelEEEE7_M_headERS4_>
  409ebd:	c9                   	leaveq 
  409ebe:	c3                   	retq   

0000000000409ebf <_ZSt3getILm1EJPN11arm_compute9ICLKernelESt14default_deleteIS1_EEERNSt13tuple_elementIXT_ESt5tupleIJDpT0_EEE4typeERS9_>:
  409ebf:	55                   	push   %rbp
  409ec0:	48 89 e5             	mov    %rsp,%rbp
  409ec3:	48 83 ec 10          	sub    $0x10,%rsp
  409ec7:	48 89 7d f8          	mov    %rdi,-0x8(%rbp)
  409ecb:	48 8b 45 f8          	mov    -0x8(%rbp),%rax
  409ecf:	48 89 c7             	mov    %rax,%rdi
  409ed2:	e8 ce ff ff ff       	callq  409ea5 <_ZSt12__get_helperILm1ESt14default_deleteIN11arm_compute9ICLKernelEEJEERT0_RSt11_Tuple_implIXT_EJS4_DpT1_EE>
  409ed7:	c9                   	leaveq 
  409ed8:	c3                   	retq   
  409ed9:	90                   	nop

0000000000409eda <_ZNSt10unique_ptrIN11arm_compute9ICLKernelESt14default_deleteIS1_EE11get_deleterEv>:
  409eda:	55                   	push   %rbp
  409edb:	48 89 e5             	mov    %rsp,%rbp
  409ede:	48 83 ec 10          	sub    $0x10,%rsp
  409ee2:	48 89 7d f8          	mov    %rdi,-0x8(%rbp)
  409ee6:	48 8b 45 f8          	mov    -0x8(%rbp),%rax
  409eea:	48 89 c7             	mov    %rax,%rdi
  409eed:	e8 cd ff ff ff       	callq  409ebf <_ZSt3getILm1EJPN11arm_compute9ICLKernelESt14default_deleteIS1_EEERNSt13tuple_elementIXT_ESt5tupleIJDpT0_EEE4typeERS9_>
  409ef2:	c9                   	leaveq 
  409ef3:	c3                   	retq   

0000000000409ef4 <_ZN11arm_compute7IKernelD1Ev>:
  409ef4:	55                   	push   %rbp
  409ef5:	48 89 e5             	mov    %rsp,%rbp
  409ef8:	48 89 7d f8          	mov    %rdi,-0x8(%rbp)
  409efc:	ba c0 95 61 00       	mov    $0x6195c0,%edx
  409f01:	48 8b 45 f8          	mov    -0x8(%rbp),%rax
  409f05:	48 89 10             	mov    %rdx,(%rax)
  409f08:	90                   	nop
  409f09:	5d                   	pop    %rbp
  409f0a:	c3                   	retq   
  409f0b:	90                   	nop

0000000000409f0c <_ZN11arm_compute7IKernelD0Ev>:
  409f0c:	55                   	push   %rbp
  409f0d:	48 89 e5             	mov    %rsp,%rbp
  409f10:	48 83 ec 10          	sub    $0x10,%rsp
  409f14:	48 89 7d f8          	mov    %rdi,-0x8(%rbp)
  409f18:	48 8b 45 f8          	mov    -0x8(%rbp),%rax
  409f1c:	48 89 c7             	mov    %rax,%rdi
  409f1f:	e8 d0 ff ff ff       	callq  409ef4 <_ZN11arm_compute7IKernelD1Ev>
  409f24:	48 8b 45 f8          	mov    -0x8(%rbp),%rax
  409f28:	48 89 c7             	mov    %rax,%rdi
  409f2b:	e8 a0 9f ff ff       	callq  403ed0 <_ZdlPv@plt>
  409f30:	c9                   	leaveq 
  409f31:	c3                   	retq   

0000000000409f32 <_ZN11arm_compute9ICLKernelD1Ev>:
  409f32:	55                   	push   %rbp
  409f33:	48 89 e5             	mov    %rsp,%rbp
  409f36:	48 83 ec 10          	sub    $0x10,%rsp
  409f3a:	48 89 7d f8          	mov    %rdi,-0x8(%rbp)
  409f3e:	ba a8 07 41 00       	mov    $0x4107a8,%edx
  409f43:	48 8b 45 f8          	mov    -0x8(%rbp),%rax
  409f47:	48 89 10             	mov    %rdx,(%rax)
  409f4a:	48 8b 45 f8          	mov    -0x8(%rbp),%rax
  409f4e:	48 83 e8 80          	sub    $0xffffffffffffff80,%rax
  409f52:	48 89 c7             	mov    %rax,%rdi
  409f55:	e8 36 9f ff ff       	callq  403e90 <_ZNSt7__cxx1112basic_stringIcSt11char_traitsIcESaIcEED1Ev@plt>
  409f5a:	48 8b 45 f8          	mov    -0x8(%rbp),%rax
  409f5e:	48 83 c0 50          	add    $0x50,%rax
  409f62:	48 89 c7             	mov    %rax,%rdi
  409f65:	e8 10 c5 ff ff       	callq  40647a <_ZN2cl6KernelD1Ev>
  409f6a:	48 8b 45 f8          	mov    -0x8(%rbp),%rax
  409f6e:	48 89 c7             	mov    %rax,%rdi
  409f71:	e8 7e ff ff ff       	callq  409ef4 <_ZN11arm_compute7IKernelD1Ev>
  409f76:	90                   	nop
  409f77:	c9                   	leaveq 
  409f78:	c3                   	retq   
  409f79:	90                   	nop

0000000000409f7a <_ZN11arm_compute9ICLKernelD0Ev>:
  409f7a:	55                   	push   %rbp
  409f7b:	48 89 e5             	mov    %rsp,%rbp
  409f7e:	48 83 ec 10          	sub    $0x10,%rsp
  409f82:	48 89 7d f8          	mov    %rdi,-0x8(%rbp)
  409f86:	48 8b 45 f8          	mov    -0x8(%rbp),%rax
  409f8a:	48 89 c7             	mov    %rax,%rdi
  409f8d:	e8 a0 ff ff ff       	callq  409f32 <_ZN11arm_compute9ICLKernelD1Ev>
  409f92:	48 8b 45 f8          	mov    -0x8(%rbp),%rax
  409f96:	48 89 c7             	mov    %rax,%rdi
  409f99:	e8 32 9f ff ff       	callq  403ed0 <_ZdlPv@plt>
  409f9e:	c9                   	leaveq 
  409f9f:	c3                   	retq   

0000000000409fa0 <_ZNKSt14default_deleteIN11arm_compute9ICLKernelEEclEPS1_>:
  409fa0:	55                   	push   %rbp
  409fa1:	48 89 e5             	mov    %rsp,%rbp
  409fa4:	48 83 ec 10          	sub    $0x10,%rsp
  409fa8:	48 89 7d f8          	mov    %rdi,-0x8(%rbp)
  409fac:	48 89 75 f0          	mov    %rsi,-0x10(%rbp)
  409fb0:	48 83 7d f0 00       	cmpq   $0x0,-0x10(%rbp)
  409fb5:	74 17                	je     409fce <_ZNKSt14default_deleteIN11arm_compute9ICLKernelEEclEPS1_+0x2e>
  409fb7:	48 8b 45 f0          	mov    -0x10(%rbp),%rax
  409fbb:	48 8b 00             	mov    (%rax),%rax
  409fbe:	48 83 c0 08          	add    $0x8,%rax
  409fc2:	48 8b 00             	mov    (%rax),%rax
  409fc5:	48 8b 55 f0          	mov    -0x10(%rbp),%rdx
  409fc9:	48 89 d7             	mov    %rdx,%rdi
  409fcc:	ff d0                	callq  *%rax
  409fce:	90                   	nop
  409fcf:	c9                   	leaveq 
  409fd0:	c3                   	retq   
  409fd1:	90                   	nop

0000000000409fd2 <_ZN11arm_compute10DimensionsImEC1IJjjjjEEEDpT_>:
  409fd2:	55                   	push   %rbp
  409fd3:	48 89 e5             	mov    %rsp,%rbp
  409fd6:	48 89 7d f8          	mov    %rdi,-0x8(%rbp)
  409fda:	89 75 f4             	mov    %esi,-0xc(%rbp)
  409fdd:	89 55 f0             	mov    %edx,-0x10(%rbp)
  409fe0:	89 4d ec             	mov    %ecx,-0x14(%rbp)
  409fe3:	44 89 45 e8          	mov    %r8d,-0x18(%rbp)
  409fe7:	48 8b 45 f8          	mov    -0x8(%rbp),%rax
  409feb:	48 89 c6             	mov    %rax,%rsi
  409fee:	b8 00 00 00 00       	mov    $0x0,%eax
  409ff3:	ba 06 00 00 00       	mov    $0x6,%edx
  409ff8:	48 89 f7             	mov    %rsi,%rdi
  409ffb:	48 89 d1             	mov    %rdx,%rcx
  409ffe:	f3 48 ab             	rep stos %rax,%es:(%rdi)
  40a001:	8b 55 f4             	mov    -0xc(%rbp),%edx
  40a004:	48 8b 45 f8          	mov    -0x8(%rbp),%rax
  40a008:	48 89 10             	mov    %rdx,(%rax)
  40a00b:	8b 55 f0             	mov    -0x10(%rbp),%edx
  40a00e:	48 8b 45 f8          	mov    -0x8(%rbp),%rax
  40a012:	48 89 50 08          	mov    %rdx,0x8(%rax)
  40a016:	8b 55 ec             	mov    -0x14(%rbp),%edx
  40a019:	48 8b 45 f8          	mov    -0x8(%rbp),%rax
  40a01d:	48 89 50 10          	mov    %rdx,0x10(%rax)
  40a021:	8b 55 e8             	mov    -0x18(%rbp),%edx
  40a024:	48 8b 45 f8          	mov    -0x8(%rbp),%rax
  40a028:	48 89 50 18          	mov    %rdx,0x18(%rax)
  40a02c:	48 8b 45 f8          	mov    -0x8(%rbp),%rax
  40a030:	48 c7 40 30 04 00 00 	movq   $0x4,0x30(%rax)
  40a037:	00 
  40a038:	90                   	nop
  40a039:	5d                   	pop    %rbp
  40a03a:	c3                   	retq   

000000000040a03b <_ZN2CK12log_raw_dataIfEEvPT_RKNS_5ShapeEPKcS7_>:
  40a03b:	55                   	push   %rbp
  40a03c:	48 89 e5             	mov    %rsp,%rbp
  40a03f:	48 83 ec 20          	sub    $0x20,%rsp
  40a043:	48 89 7d f8          	mov    %rdi,-0x8(%rbp)
  40a047:	48 89 75 f0          	mov    %rsi,-0x10(%rbp)
  40a04b:	48 89 55 e8          	mov    %rdx,-0x18(%rbp)
  40a04f:	48 89 4d e0          	mov    %rcx,-0x20(%rbp)
  40a053:	48 83 7d e8 00       	cmpq   $0x0,-0x18(%rbp)
  40a058:	74 1c                	je     40a076 <_ZN2CK12log_raw_dataIfEEvPT_RKNS_5ShapeEPKcS7_+0x3b>
  40a05a:	48 8b 45 e8          	mov    -0x18(%rbp),%rax
  40a05e:	be 00 00 00 00       	mov    $0x0,%esi
  40a063:	48 89 c7             	mov    %rax,%rdi
  40a066:	e8 be d2 ff ff       	callq  407329 <_ZN2CK8getenv_iEPKci>
  40a06b:	85 c0                	test   %eax,%eax
  40a06d:	74 07                	je     40a076 <_ZN2CK12log_raw_dataIfEEvPT_RKNS_5ShapeEPKcS7_+0x3b>
  40a06f:	b8 01 00 00 00       	mov    $0x1,%eax
  40a074:	eb 05                	jmp    40a07b <_ZN2CK12log_raw_dataIfEEvPT_RKNS_5ShapeEPKcS7_+0x40>
  40a076:	b8 00 00 00 00       	mov    $0x0,%eax
  40a07b:	84 c0                	test   %al,%al
  40a07d:	74 30                	je     40a0af <_ZN2CK12log_raw_dataIfEEvPT_RKNS_5ShapeEPKcS7_+0x74>
  40a07f:	48 83 7d e0 00       	cmpq   $0x0,-0x20(%rbp)
  40a084:	74 16                	je     40a09c <_ZN2CK12log_raw_dataIfEEvPT_RKNS_5ShapeEPKcS7_+0x61>
  40a086:	48 8b 45 e0          	mov    -0x20(%rbp),%rax
  40a08a:	48 89 c6             	mov    %rax,%rsi
  40a08d:	bf a1 06 41 00       	mov    $0x4106a1,%edi
  40a092:	b8 00 00 00 00       	mov    $0x0,%eax
  40a097:	e8 54 9c ff ff       	callq  403cf0 <printf@plt>
  40a09c:	48 8b 55 f0          	mov    -0x10(%rbp),%rdx
  40a0a0:	48 8b 45 f8          	mov    -0x8(%rbp),%rax
  40a0a4:	48 89 d6             	mov    %rdx,%rsi
  40a0a7:	48 89 c7             	mov    %rax,%rdi
  40a0aa:	e8 91 0a 00 00       	callq  40ab40 <_ZN2CK14print_raw_dataIfEEvPT_RKNS_5ShapeE>
  40a0af:	90                   	nop
  40a0b0:	c9                   	leaveq 
  40a0b1:	c3                   	retq   

000000000040a0b2 <_ZSt7forwardIZN2CK5armcl23copy_raw_data_to_tensorIfEEvPN11arm_compute8CLTensorEPT_RKNS0_5ShapeEEUlRKNS3_11CoordinatesEE_EOS6_RNSt16remove_referenceIS6_E4typeE>:
  40a0b2:	55                   	push   %rbp
  40a0b3:	48 89 e5             	mov    %rsp,%rbp
  40a0b6:	48 89 7d f8          	mov    %rdi,-0x8(%rbp)
  40a0ba:	48 8b 45 f8          	mov    -0x8(%rbp),%rax
  40a0be:	5d                   	pop    %rbp
  40a0bf:	c3                   	retq   

000000000040a0c0 <_ZSt7forwardIRN11arm_compute8IteratorEEOT_RNSt16remove_referenceIS3_E4typeE>:
  40a0c0:	55                   	push   %rbp
  40a0c1:	48 89 e5             	mov    %rsp,%rbp
  40a0c4:	48 89 7d f8          	mov    %rdi,-0x8(%rbp)
  40a0c8:	48 8b 45 f8          	mov    -0x8(%rbp),%rax
  40a0cc:	5d                   	pop    %rbp
  40a0cd:	c3                   	retq   

000000000040a0ce <_ZN11arm_compute19execute_window_loopIZN2CK5armcl23copy_raw_data_to_tensorIfEEvPNS_8CLTensorEPT_RKNS1_5ShapeEEUlRKNS_11CoordinatesEE_JRNS_8IteratorEEEEvRKNS_6WindowEOS6_DpOT0_>:
  40a0ce:	55                   	push   %rbp
  40a0cf:	48 89 e5             	mov    %rsp,%rbp
  40a0d2:	53                   	push   %rbx
  40a0d3:	48 83 ec 58          	sub    $0x58,%rsp
  40a0d7:	48 89 7d b8          	mov    %rdi,-0x48(%rbp)
  40a0db:	48 89 75 b0          	mov    %rsi,-0x50(%rbp)
  40a0df:	48 89 55 a8          	mov    %rdx,-0x58(%rbp)
  40a0e3:	64 48 8b 04 25 28 00 	mov    %fs:0x28,%rax
  40a0ea:	00 00 
  40a0ec:	48 89 45 e8          	mov    %rax,-0x18(%rbp)
  40a0f0:	31 c0                	xor    %eax,%eax
  40a0f2:	48 8b 45 b8          	mov    -0x48(%rbp),%rax
  40a0f6:	48 89 c7             	mov    %rax,%rdi
  40a0f9:	e8 22 ca ff ff       	callq  406b20 <_ZNK11arm_compute6Window8validateEv>
  40a0fe:	48 8d 45 c0          	lea    -0x40(%rbp),%rax
  40a102:	48 89 c7             	mov    %rax,%rdi
  40a105:	e8 c0 c8 ff ff       	callq  4069ca <_ZN11arm_compute11CoordinatesC1IJEEEDpT_>
  40a10a:	48 8b 45 a8          	mov    -0x58(%rbp),%rax
  40a10e:	48 89 c7             	mov    %rax,%rdi
  40a111:	e8 aa ff ff ff       	callq  40a0c0 <_ZSt7forwardIRN11arm_compute8IteratorEEOT_RNSt16remove_referenceIS3_E4typeE>
  40a116:	48 89 c3             	mov    %rax,%rbx
  40a119:	48 8b 45 b0          	mov    -0x50(%rbp),%rax
  40a11d:	48 89 c7             	mov    %rax,%rdi
  40a120:	e8 8d ff ff ff       	callq  40a0b2 <_ZSt7forwardIZN2CK5armcl23copy_raw_data_to_tensorIfEEvPN11arm_compute8CLTensorEPT_RKNS0_5ShapeEEUlRKNS3_11CoordinatesEE_EOS6_RNSt16remove_referenceIS6_E4typeE>
  40a125:	48 89 c2             	mov    %rax,%rdx
  40a128:	48 8d 75 c0          	lea    -0x40(%rbp),%rsi
  40a12c:	48 8b 45 b8          	mov    -0x48(%rbp),%rax
  40a130:	48 89 d9             	mov    %rbx,%rcx
  40a133:	48 89 c7             	mov    %rax,%rdi
  40a136:	e8 36 0b 00 00       	callq  40ac71 <_ZN11arm_compute16ForEachDimensionILm6EE6unrollIZN2CK5armcl23copy_raw_data_to_tensorIfEEvPNS_8CLTensorEPT_RKNS3_5ShapeEEUlRKNS_11CoordinatesEE_JRNS_8IteratorEEEEvRKNS_6WindowERSD_OS8_DpOT0_>
  40a13b:	90                   	nop
  40a13c:	48 8b 45 e8          	mov    -0x18(%rbp),%rax
  40a140:	64 48 33 04 25 28 00 	xor    %fs:0x28,%rax
  40a147:	00 00 
  40a149:	74 05                	je     40a150 <_ZN11arm_compute19execute_window_loopIZN2CK5armcl23copy_raw_data_to_tensorIfEEvPNS_8CLTensorEPT_RKNS1_5ShapeEEUlRKNS_11CoordinatesEE_JRNS_8IteratorEEEEvRKNS_6WindowEOS6_DpOT0_+0x82>
  40a14b:	e8 e0 9d ff ff       	callq  403f30 <__stack_chk_fail@plt>
  40a150:	48 83 c4 58          	add    $0x58,%rsp
  40a154:	5b                   	pop    %rbx
  40a155:	5d                   	pop    %rbp
  40a156:	c3                   	retq   

000000000040a157 <_ZSt7forwardIZN2CK5armcl25copy_raw_data_from_tensorIfEEvPN11arm_compute8CLTensorEPT_RKNS0_5ShapeEEUlRKNS3_11CoordinatesEE_EOS6_RNSt16remove_referenceIS6_E4typeE>:
  40a157:	55                   	push   %rbp
  40a158:	48 89 e5             	mov    %rsp,%rbp
  40a15b:	48 89 7d f8          	mov    %rdi,-0x8(%rbp)
  40a15f:	48 8b 45 f8          	mov    -0x8(%rbp),%rax
  40a163:	5d                   	pop    %rbp
  40a164:	c3                   	retq   

000000000040a165 <_ZN11arm_compute19execute_window_loopIZN2CK5armcl25copy_raw_data_from_tensorIfEEvPNS_8CLTensorEPT_RKNS1_5ShapeEEUlRKNS_11CoordinatesEE_JRNS_8IteratorEEEEvRKNS_6WindowEOS6_DpOT0_>:
  40a165:	55                   	push   %rbp
  40a166:	48 89 e5             	mov    %rsp,%rbp
  40a169:	53                   	push   %rbx
  40a16a:	48 83 ec 58          	sub    $0x58,%rsp
  40a16e:	48 89 7d b8          	mov    %rdi,-0x48(%rbp)
  40a172:	48 89 75 b0          	mov    %rsi,-0x50(%rbp)
  40a176:	48 89 55 a8          	mov    %rdx,-0x58(%rbp)
  40a17a:	64 48 8b 04 25 28 00 	mov    %fs:0x28,%rax
  40a181:	00 00 
  40a183:	48 89 45 e8          	mov    %rax,-0x18(%rbp)
  40a187:	31 c0                	xor    %eax,%eax
  40a189:	48 8b 45 b8          	mov    -0x48(%rbp),%rax
  40a18d:	48 89 c7             	mov    %rax,%rdi
  40a190:	e8 8b c9 ff ff       	callq  406b20 <_ZNK11arm_compute6Window8validateEv>
  40a195:	48 8d 45 c0          	lea    -0x40(%rbp),%rax
  40a199:	48 89 c7             	mov    %rax,%rdi
  40a19c:	e8 29 c8 ff ff       	callq  4069ca <_ZN11arm_compute11CoordinatesC1IJEEEDpT_>
  40a1a1:	48 8b 45 a8          	mov    -0x58(%rbp),%rax
  40a1a5:	48 89 c7             	mov    %rax,%rdi
  40a1a8:	e8 13 ff ff ff       	callq  40a0c0 <_ZSt7forwardIRN11arm_compute8IteratorEEOT_RNSt16remove_referenceIS3_E4typeE>
  40a1ad:	48 89 c3             	mov    %rax,%rbx
  40a1b0:	48 8b 45 b0          	mov    -0x50(%rbp),%rax
  40a1b4:	48 89 c7             	mov    %rax,%rdi
  40a1b7:	e8 9b ff ff ff       	callq  40a157 <_ZSt7forwardIZN2CK5armcl25copy_raw_data_from_tensorIfEEvPN11arm_compute8CLTensorEPT_RKNS0_5ShapeEEUlRKNS3_11CoordinatesEE_EOS6_RNSt16remove_referenceIS6_E4typeE>
  40a1bc:	48 89 c2             	mov    %rax,%rdx
  40a1bf:	48 8d 75 c0          	lea    -0x40(%rbp),%rsi
  40a1c3:	48 8b 45 b8          	mov    -0x48(%rbp),%rax
  40a1c7:	48 89 d9             	mov    %rbx,%rcx
  40a1ca:	48 89 c7             	mov    %rax,%rdi
  40a1cd:	e8 3d 0b 00 00       	callq  40ad0f <_ZN11arm_compute16ForEachDimensionILm6EE6unrollIZN2CK5armcl25copy_raw_data_from_tensorIfEEvPNS_8CLTensorEPT_RKNS3_5ShapeEEUlRKNS_11CoordinatesEE_JRNS_8IteratorEEEEvRKNS_6WindowERSD_OS8_DpOT0_>
  40a1d2:	90                   	nop
  40a1d3:	48 8b 45 e8          	mov    -0x18(%rbp),%rax
  40a1d7:	64 48 33 04 25 28 00 	xor    %fs:0x28,%rax
  40a1de:	00 00 
  40a1e0:	74 05                	je     40a1e7 <_ZN11arm_compute19execute_window_loopIZN2CK5armcl25copy_raw_data_from_tensorIfEEvPNS_8CLTensorEPT_RKNS1_5ShapeEEUlRKNS_11CoordinatesEE_JRNS_8IteratorEEEEvRKNS_6WindowEOS6_DpOT0_+0x82>
  40a1e2:	e8 49 9d ff ff       	callq  403f30 <__stack_chk_fail@plt>
  40a1e7:	48 83 c4 58          	add    $0x58,%rsp
  40a1eb:	5b                   	pop    %rbx
  40a1ec:	5d                   	pop    %rbp
  40a1ed:	c3                   	retq   

000000000040a1ee <_ZSt13__invoke_implIvRFvvEJEET_St14__invoke_otherOT0_DpOT1_>:
  40a1ee:	55                   	push   %rbp
  40a1ef:	48 89 e5             	mov    %rsp,%rbp
  40a1f2:	48 83 ec 10          	sub    $0x10,%rsp
  40a1f6:	48 89 7d f8          	mov    %rdi,-0x8(%rbp)
  40a1fa:	48 8b 45 f8          	mov    -0x8(%rbp),%rax
  40a1fe:	48 89 c7             	mov    %rax,%rdi
  40a201:	e8 c0 d8 ff ff       	callq  407ac6 <_ZSt7forwardIRFvvEEOT_RNSt16remove_referenceIS2_E4typeE>
  40a206:	ff d0                	callq  *%rax
  40a208:	c9                   	leaveq 
  40a209:	c3                   	retq   

000000000040a20a <_ZNSt12_Vector_baseIP15_cl_platform_idSaIS1_EE12_Vector_implC1ERKS2_>:
  40a20a:	55                   	push   %rbp
  40a20b:	48 89 e5             	mov    %rsp,%rbp
  40a20e:	48 83 ec 10          	sub    $0x10,%rsp
  40a212:	48 89 7d f8          	mov    %rdi,-0x8(%rbp)
  40a216:	48 89 75 f0          	mov    %rsi,-0x10(%rbp)
  40a21a:	48 8b 55 f0          	mov    -0x10(%rbp),%rdx
  40a21e:	48 8b 45 f8          	mov    -0x8(%rbp),%rax
  40a222:	48 89 d6             	mov    %rdx,%rsi
  40a225:	48 89 c7             	mov    %rax,%rdi
  40a228:	e8 81 0b 00 00       	callq  40adae <_ZNSaIP15_cl_platform_idEC1ERKS1_>
  40a22d:	48 8b 45 f8          	mov    -0x8(%rbp),%rax
  40a231:	48 c7 00 00 00 00 00 	movq   $0x0,(%rax)
  40a238:	48 8b 45 f8          	mov    -0x8(%rbp),%rax
  40a23c:	48 c7 40 08 00 00 00 	movq   $0x0,0x8(%rax)
  40a243:	00 
  40a244:	48 8b 45 f8          	mov    -0x8(%rbp),%rax
  40a248:	48 c7 40 10 00 00 00 	movq   $0x0,0x10(%rax)
  40a24f:	00 
  40a250:	90                   	nop
  40a251:	c9                   	leaveq 
  40a252:	c3                   	retq   
  40a253:	90                   	nop

000000000040a254 <_ZNSt12_Vector_baseIP15_cl_platform_idSaIS1_EE17_M_create_storageEm>:
  40a254:	55                   	push   %rbp
  40a255:	48 89 e5             	mov    %rsp,%rbp
  40a258:	48 83 ec 10          	sub    $0x10,%rsp
  40a25c:	48 89 7d f8          	mov    %rdi,-0x8(%rbp)
  40a260:	48 89 75 f0          	mov    %rsi,-0x10(%rbp)
  40a264:	48 8b 55 f0          	mov    -0x10(%rbp),%rdx
  40a268:	48 8b 45 f8          	mov    -0x8(%rbp),%rax
  40a26c:	48 89 d6             	mov    %rdx,%rsi
  40a26f:	48 89 c7             	mov    %rax,%rdi
  40a272:	e8 5d 0b 00 00       	callq  40add4 <_ZNSt12_Vector_baseIP15_cl_platform_idSaIS1_EE11_M_allocateEm>
  40a277:	48 89 c2             	mov    %rax,%rdx
  40a27a:	48 8b 45 f8          	mov    -0x8(%rbp),%rax
  40a27e:	48 89 10             	mov    %rdx,(%rax)
  40a281:	48 8b 45 f8          	mov    -0x8(%rbp),%rax
  40a285:	48 8b 10             	mov    (%rax),%rdx
  40a288:	48 8b 45 f8          	mov    -0x8(%rbp),%rax
  40a28c:	48 89 50 08          	mov    %rdx,0x8(%rax)
  40a290:	48 8b 45 f8          	mov    -0x8(%rbp),%rax
  40a294:	48 8b 00             	mov    (%rax),%rax
  40a297:	48 8b 55 f0          	mov    -0x10(%rbp),%rdx
  40a29b:	48 c1 e2 03          	shl    $0x3,%rdx
  40a29f:	48 01 c2             	add    %rax,%rdx
  40a2a2:	48 8b 45 f8          	mov    -0x8(%rbp),%rax
  40a2a6:	48 89 50 10          	mov    %rdx,0x10(%rax)
  40a2aa:	90                   	nop
  40a2ab:	c9                   	leaveq 
  40a2ac:	c3                   	retq   
  40a2ad:	90                   	nop

000000000040a2ae <_ZNSt12_Vector_baseIP15_cl_platform_idSaIS1_EE13_M_deallocateEPS1_m>:
  40a2ae:	55                   	push   %rbp
  40a2af:	48 89 e5             	mov    %rsp,%rbp
  40a2b2:	48 83 ec 20          	sub    $0x20,%rsp
  40a2b6:	48 89 7d f8          	mov    %rdi,-0x8(%rbp)
  40a2ba:	48 89 75 f0          	mov    %rsi,-0x10(%rbp)
  40a2be:	48 89 55 e8          	mov    %rdx,-0x18(%rbp)
  40a2c2:	48 83 7d f0 00       	cmpq   $0x0,-0x10(%rbp)
  40a2c7:	74 17                	je     40a2e0 <_ZNSt12_Vector_baseIP15_cl_platform_idSaIS1_EE13_M_deallocateEPS1_m+0x32>
  40a2c9:	48 8b 45 f8          	mov    -0x8(%rbp),%rax
  40a2cd:	48 8b 55 e8          	mov    -0x18(%rbp),%rdx
  40a2d1:	48 8b 4d f0          	mov    -0x10(%rbp),%rcx
  40a2d5:	48 89 ce             	mov    %rcx,%rsi
  40a2d8:	48 89 c7             	mov    %rax,%rdi
  40a2db:	e8 27 0b 00 00       	callq  40ae07 <_ZNSt16allocator_traitsISaIP15_cl_platform_idEE10deallocateERS2_PS1_m>
  40a2e0:	90                   	nop
  40a2e1:	c9                   	leaveq 
  40a2e2:	c3                   	retq   

000000000040a2e3 <_ZSt27__uninitialized_default_n_aIPP15_cl_platform_idmS1_ET_S3_T0_RSaIT1_E>:
  40a2e3:	55                   	push   %rbp
  40a2e4:	48 89 e5             	mov    %rsp,%rbp
  40a2e7:	48 83 ec 20          	sub    $0x20,%rsp
  40a2eb:	48 89 7d f8          	mov    %rdi,-0x8(%rbp)
  40a2ef:	48 89 75 f0          	mov    %rsi,-0x10(%rbp)
  40a2f3:	48 89 55 e8          	mov    %rdx,-0x18(%rbp)
  40a2f7:	48 8b 55 f0          	mov    -0x10(%rbp),%rdx
  40a2fb:	48 8b 45 f8          	mov    -0x8(%rbp),%rax
  40a2ff:	48 89 d6             	mov    %rdx,%rsi
  40a302:	48 89 c7             	mov    %rax,%rdi
  40a305:	e8 2b 0b 00 00       	callq  40ae35 <_ZSt25__uninitialized_default_nIPP15_cl_platform_idmET_S3_T0_>
  40a30a:	c9                   	leaveq 
  40a30b:	c3                   	retq   

000000000040a30c <_ZSt8_DestroyIPP15_cl_platform_idEvT_S3_>:
  40a30c:	55                   	push   %rbp
  40a30d:	48 89 e5             	mov    %rsp,%rbp
  40a310:	48 83 ec 10          	sub    $0x10,%rsp
  40a314:	48 89 7d f8          	mov    %rdi,-0x8(%rbp)
  40a318:	48 89 75 f0          	mov    %rsi,-0x10(%rbp)
  40a31c:	48 8b 55 f0          	mov    -0x10(%rbp),%rdx
  40a320:	48 8b 45 f8          	mov    -0x8(%rbp),%rax
  40a324:	48 89 d6             	mov    %rdx,%rsi
  40a327:	48 89 c7             	mov    %rax,%rdi
  40a32a:	e8 2f 0b 00 00       	callq  40ae5e <_ZNSt12_Destroy_auxILb1EE9__destroyIPP15_cl_platform_idEEvT_S5_>
  40a32f:	90                   	nop
  40a330:	c9                   	leaveq 
  40a331:	c3                   	retq   

000000000040a332 <_ZNSt12_Vector_baseIP13_cl_device_idSaIS1_EE12_Vector_implC1ERKS2_>:
  40a332:	55                   	push   %rbp
  40a333:	48 89 e5             	mov    %rsp,%rbp
  40a336:	48 83 ec 10          	sub    $0x10,%rsp
  40a33a:	48 89 7d f8          	mov    %rdi,-0x8(%rbp)
  40a33e:	48 89 75 f0          	mov    %rsi,-0x10(%rbp)
  40a342:	48 8b 55 f0          	mov    -0x10(%rbp),%rdx
  40a346:	48 8b 45 f8          	mov    -0x8(%rbp),%rax
  40a34a:	48 89 d6             	mov    %rdx,%rsi
  40a34d:	48 89 c7             	mov    %rax,%rdi
  40a350:	e8 19 0b 00 00       	callq  40ae6e <_ZNSaIP13_cl_device_idEC1ERKS1_>
  40a355:	48 8b 45 f8          	mov    -0x8(%rbp),%rax
  40a359:	48 c7 00 00 00 00 00 	movq   $0x0,(%rax)
  40a360:	48 8b 45 f8          	mov    -0x8(%rbp),%rax
  40a364:	48 c7 40 08 00 00 00 	movq   $0x0,0x8(%rax)
  40a36b:	00 
  40a36c:	48 8b 45 f8          	mov    -0x8(%rbp),%rax
  40a370:	48 c7 40 10 00 00 00 	movq   $0x0,0x10(%rax)
  40a377:	00 
  40a378:	90                   	nop
  40a379:	c9                   	leaveq 
  40a37a:	c3                   	retq   
  40a37b:	90                   	nop

000000000040a37c <_ZNSt12_Vector_baseIP13_cl_device_idSaIS1_EE17_M_create_storageEm>:
  40a37c:	55                   	push   %rbp
  40a37d:	48 89 e5             	mov    %rsp,%rbp
  40a380:	48 83 ec 10          	sub    $0x10,%rsp
  40a384:	48 89 7d f8          	mov    %rdi,-0x8(%rbp)
  40a388:	48 89 75 f0          	mov    %rsi,-0x10(%rbp)
  40a38c:	48 8b 55 f0          	mov    -0x10(%rbp),%rdx
  40a390:	48 8b 45 f8          	mov    -0x8(%rbp),%rax
  40a394:	48 89 d6             	mov    %rdx,%rsi
  40a397:	48 89 c7             	mov    %rax,%rdi
  40a39a:	e8 f5 0a 00 00       	callq  40ae94 <_ZNSt12_Vector_baseIP13_cl_device_idSaIS1_EE11_M_allocateEm>
  40a39f:	48 89 c2             	mov    %rax,%rdx
  40a3a2:	48 8b 45 f8          	mov    -0x8(%rbp),%rax
  40a3a6:	48 89 10             	mov    %rdx,(%rax)
  40a3a9:	48 8b 45 f8          	mov    -0x8(%rbp),%rax
  40a3ad:	48 8b 10             	mov    (%rax),%rdx
  40a3b0:	48 8b 45 f8          	mov    -0x8(%rbp),%rax
  40a3b4:	48 89 50 08          	mov    %rdx,0x8(%rax)
  40a3b8:	48 8b 45 f8          	mov    -0x8(%rbp),%rax
  40a3bc:	48 8b 00             	mov    (%rax),%rax
  40a3bf:	48 8b 55 f0          	mov    -0x10(%rbp),%rdx
  40a3c3:	48 c1 e2 03          	shl    $0x3,%rdx
  40a3c7:	48 01 c2             	add    %rax,%rdx
  40a3ca:	48 8b 45 f8          	mov    -0x8(%rbp),%rax
  40a3ce:	48 89 50 10          	mov    %rdx,0x10(%rax)
  40a3d2:	90                   	nop
  40a3d3:	c9                   	leaveq 
  40a3d4:	c3                   	retq   
  40a3d5:	90                   	nop

000000000040a3d6 <_ZNSt12_Vector_baseIP13_cl_device_idSaIS1_EE13_M_deallocateEPS1_m>:
  40a3d6:	55                   	push   %rbp
  40a3d7:	48 89 e5             	mov    %rsp,%rbp
  40a3da:	48 83 ec 20          	sub    $0x20,%rsp
  40a3de:	48 89 7d f8          	mov    %rdi,-0x8(%rbp)
  40a3e2:	48 89 75 f0          	mov    %rsi,-0x10(%rbp)
  40a3e6:	48 89 55 e8          	mov    %rdx,-0x18(%rbp)
  40a3ea:	48 83 7d f0 00       	cmpq   $0x0,-0x10(%rbp)
  40a3ef:	74 17                	je     40a408 <_ZNSt12_Vector_baseIP13_cl_device_idSaIS1_EE13_M_deallocateEPS1_m+0x32>
  40a3f1:	48 8b 45 f8          	mov    -0x8(%rbp),%rax
  40a3f5:	48 8b 55 e8          	mov    -0x18(%rbp),%rdx
  40a3f9:	48 8b 4d f0          	mov    -0x10(%rbp),%rcx
  40a3fd:	48 89 ce             	mov    %rcx,%rsi
  40a400:	48 89 c7             	mov    %rax,%rdi
  40a403:	e8 bf 0a 00 00       	callq  40aec7 <_ZNSt16allocator_traitsISaIP13_cl_device_idEE10deallocateERS2_PS1_m>
  40a408:	90                   	nop
  40a409:	c9                   	leaveq 
  40a40a:	c3                   	retq   

000000000040a40b <_ZSt27__uninitialized_default_n_aIPP13_cl_device_idmS1_ET_S3_T0_RSaIT1_E>:
  40a40b:	55                   	push   %rbp
  40a40c:	48 89 e5             	mov    %rsp,%rbp
  40a40f:	48 83 ec 20          	sub    $0x20,%rsp
  40a413:	48 89 7d f8          	mov    %rdi,-0x8(%rbp)
  40a417:	48 89 75 f0          	mov    %rsi,-0x10(%rbp)
  40a41b:	48 89 55 e8          	mov    %rdx,-0x18(%rbp)
  40a41f:	48 8b 55 f0          	mov    -0x10(%rbp),%rdx
  40a423:	48 8b 45 f8          	mov    -0x8(%rbp),%rax
  40a427:	48 89 d6             	mov    %rdx,%rsi
  40a42a:	48 89 c7             	mov    %rax,%rdi
  40a42d:	e8 c3 0a 00 00       	callq  40aef5 <_ZSt25__uninitialized_default_nIPP13_cl_device_idmET_S3_T0_>
  40a432:	c9                   	leaveq 
  40a433:	c3                   	retq   

000000000040a434 <_ZSt8_DestroyIPP13_cl_device_idEvT_S3_>:
  40a434:	55                   	push   %rbp
  40a435:	48 89 e5             	mov    %rsp,%rbp
  40a438:	48 83 ec 10          	sub    $0x10,%rsp
  40a43c:	48 89 7d f8          	mov    %rdi,-0x8(%rbp)
  40a440:	48 89 75 f0          	mov    %rsi,-0x10(%rbp)
  40a444:	48 8b 55 f0          	mov    -0x10(%rbp),%rdx
  40a448:	48 8b 45 f8          	mov    -0x8(%rbp),%rax
  40a44c:	48 89 d6             	mov    %rdx,%rsi
  40a44f:	48 89 c7             	mov    %rax,%rdi
  40a452:	e8 c7 0a 00 00       	callq  40af1e <_ZNSt12_Destroy_auxILb1EE9__destroyIPP13_cl_device_idEEvT_S5_>
  40a457:	90                   	nop
  40a458:	c9                   	leaveq 
  40a459:	c3                   	retq   

000000000040a45a <_ZSt27__uninitialized_default_n_aIPN2cl6DeviceEmS1_ET_S3_T0_RSaIT1_E>:
  40a45a:	55                   	push   %rbp
  40a45b:	48 89 e5             	mov    %rsp,%rbp
  40a45e:	48 83 ec 20          	sub    $0x20,%rsp
  40a462:	48 89 7d f8          	mov    %rdi,-0x8(%rbp)
  40a466:	48 89 75 f0          	mov    %rsi,-0x10(%rbp)
  40a46a:	48 89 55 e8          	mov    %rdx,-0x18(%rbp)
  40a46e:	48 8b 55 f0          	mov    -0x10(%rbp),%rdx
  40a472:	48 8b 45 f8          	mov    -0x8(%rbp),%rax
  40a476:	48 89 d6             	mov    %rdx,%rsi
  40a479:	48 89 c7             	mov    %rax,%rdi
  40a47c:	e8 ac 0a 00 00       	callq  40af2d <_ZSt25__uninitialized_default_nIPN2cl6DeviceEmET_S3_T0_>
  40a481:	c9                   	leaveq 
  40a482:	c3                   	retq   
  40a483:	90                   	nop

000000000040a484 <_ZNKSt6vectorIN2cl6DeviceESaIS1_EE12_M_check_lenEmPKc>:
  40a484:	55                   	push   %rbp
  40a485:	48 89 e5             	mov    %rsp,%rbp
  40a488:	53                   	push   %rbx
  40a489:	48 83 ec 48          	sub    $0x48,%rsp
  40a48d:	48 89 7d c8          	mov    %rdi,-0x38(%rbp)
  40a491:	48 89 75 c0          	mov    %rsi,-0x40(%rbp)
  40a495:	48 89 55 b8          	mov    %rdx,-0x48(%rbp)
  40a499:	64 48 8b 04 25 28 00 	mov    %fs:0x28,%rax
  40a4a0:	00 00 
  40a4a2:	48 89 45 e8          	mov    %rax,-0x18(%rbp)
  40a4a6:	31 c0                	xor    %eax,%eax
  40a4a8:	48 8b 45 c8          	mov    -0x38(%rbp),%rax
  40a4ac:	48 89 c7             	mov    %rax,%rdi
  40a4af:	e8 a2 0a 00 00       	callq  40af56 <_ZNKSt6vectorIN2cl6DeviceESaIS1_EE8max_sizeEv>
  40a4b4:	48 89 c3             	mov    %rax,%rbx
  40a4b7:	48 8b 45 c8          	mov    -0x38(%rbp),%rax
  40a4bb:	48 89 c7             	mov    %rax,%rdi
  40a4be:	e8 53 dc ff ff       	callq  408116 <_ZNKSt6vectorIN2cl6DeviceESaIS1_EE4sizeEv>
  40a4c3:	48 29 c3             	sub    %rax,%rbx
  40a4c6:	48 89 da             	mov    %rbx,%rdx
  40a4c9:	48 8b 45 c0          	mov    -0x40(%rbp),%rax
  40a4cd:	48 39 c2             	cmp    %rax,%rdx
  40a4d0:	0f 92 c0             	setb   %al
  40a4d3:	84 c0                	test   %al,%al
  40a4d5:	74 0c                	je     40a4e3 <_ZNKSt6vectorIN2cl6DeviceESaIS1_EE12_M_check_lenEmPKc+0x5f>
  40a4d7:	48 8b 45 b8          	mov    -0x48(%rbp),%rax
  40a4db:	48 89 c7             	mov    %rax,%rdi
  40a4de:	e8 5d 99 ff ff       	callq  403e40 <_ZSt20__throw_length_errorPKc@plt>
  40a4e3:	48 8b 45 c8          	mov    -0x38(%rbp),%rax
  40a4e7:	48 89 c7             	mov    %rax,%rdi
  40a4ea:	e8 27 dc ff ff       	callq  408116 <_ZNKSt6vectorIN2cl6DeviceESaIS1_EE4sizeEv>
  40a4ef:	48 89 c3             	mov    %rax,%rbx
  40a4f2:	48 8b 45 c8          	mov    -0x38(%rbp),%rax
  40a4f6:	48 89 c7             	mov    %rax,%rdi
  40a4f9:	e8 18 dc ff ff       	callq  408116 <_ZNKSt6vectorIN2cl6DeviceESaIS1_EE4sizeEv>
  40a4fe:	48 89 45 d8          	mov    %rax,-0x28(%rbp)
  40a502:	48 8d 55 c0          	lea    -0x40(%rbp),%rdx
  40a506:	48 8d 45 d8          	lea    -0x28(%rbp),%rax
  40a50a:	48 89 d6             	mov    %rdx,%rsi
  40a50d:	48 89 c7             	mov    %rax,%rdi
  40a510:	e8 28 e4 ff ff       	callq  40893d <_ZSt3maxImERKT_S2_S2_>
  40a515:	48 8b 00             	mov    (%rax),%rax
  40a518:	48 01 d8             	add    %rbx,%rax
  40a51b:	48 89 45 e0          	mov    %rax,-0x20(%rbp)
  40a51f:	48 8b 45 c8          	mov    -0x38(%rbp),%rax
  40a523:	48 89 c7             	mov    %rax,%rdi
  40a526:	e8 eb db ff ff       	callq  408116 <_ZNKSt6vectorIN2cl6DeviceESaIS1_EE4sizeEv>
  40a52b:	48 3b 45 e0          	cmp    -0x20(%rbp),%rax
  40a52f:	77 12                	ja     40a543 <_ZNKSt6vectorIN2cl6DeviceESaIS1_EE12_M_check_lenEmPKc+0xbf>
  40a531:	48 8b 45 c8          	mov    -0x38(%rbp),%rax
  40a535:	48 89 c7             	mov    %rax,%rdi
  40a538:	e8 19 0a 00 00       	callq  40af56 <_ZNKSt6vectorIN2cl6DeviceESaIS1_EE8max_sizeEv>
  40a53d:	48 3b 45 e0          	cmp    -0x20(%rbp),%rax
  40a541:	73 0e                	jae    40a551 <_ZNKSt6vectorIN2cl6DeviceESaIS1_EE12_M_check_lenEmPKc+0xcd>
  40a543:	48 8b 45 c8          	mov    -0x38(%rbp),%rax
  40a547:	48 89 c7             	mov    %rax,%rdi
  40a54a:	e8 07 0a 00 00       	callq  40af56 <_ZNKSt6vectorIN2cl6DeviceESaIS1_EE8max_sizeEv>
  40a54f:	eb 04                	jmp    40a555 <_ZNKSt6vectorIN2cl6DeviceESaIS1_EE12_M_check_lenEmPKc+0xd1>
  40a551:	48 8b 45 e0          	mov    -0x20(%rbp),%rax
  40a555:	48 8b 4d e8          	mov    -0x18(%rbp),%rcx
  40a559:	64 48 33 0c 25 28 00 	xor    %fs:0x28,%rcx
  40a560:	00 00 
  40a562:	74 05                	je     40a569 <_ZNKSt6vectorIN2cl6DeviceESaIS1_EE12_M_check_lenEmPKc+0xe5>
  40a564:	e8 c7 99 ff ff       	callq  403f30 <__stack_chk_fail@plt>
  40a569:	48 83 c4 48          	add    $0x48,%rsp
  40a56d:	5b                   	pop    %rbx
  40a56e:	5d                   	pop    %rbp
  40a56f:	c3                   	retq   

000000000040a570 <_ZNSt12_Vector_baseIN2cl6DeviceESaIS1_EE11_M_allocateEm>:
  40a570:	55                   	push   %rbp
  40a571:	48 89 e5             	mov    %rsp,%rbp
  40a574:	48 83 ec 10          	sub    $0x10,%rsp
  40a578:	48 89 7d f8          	mov    %rdi,-0x8(%rbp)
  40a57c:	48 89 75 f0          	mov    %rsi,-0x10(%rbp)
  40a580:	48 83 7d f0 00       	cmpq   $0x0,-0x10(%rbp)
  40a585:	74 15                	je     40a59c <_ZNSt12_Vector_baseIN2cl6DeviceESaIS1_EE11_M_allocateEm+0x2c>
  40a587:	48 8b 45 f8          	mov    -0x8(%rbp),%rax
  40a58b:	48 8b 55 f0          	mov    -0x10(%rbp),%rdx
  40a58f:	48 89 d6             	mov    %rdx,%rsi
  40a592:	48 89 c7             	mov    %rax,%rdi
  40a595:	e8 de 09 00 00       	callq  40af78 <_ZNSt16allocator_traitsISaIN2cl6DeviceEEE8allocateERS2_m>
  40a59a:	eb 05                	jmp    40a5a1 <_ZNSt12_Vector_baseIN2cl6DeviceESaIS1_EE11_M_allocateEm+0x31>
  40a59c:	b8 00 00 00 00       	mov    $0x0,%eax
  40a5a1:	c9                   	leaveq 
  40a5a2:	c3                   	retq   

000000000040a5a3 <_ZSt34__uninitialized_move_if_noexcept_aIPN2cl6DeviceES2_SaIS1_EET0_T_S5_S4_RT1_>:
  40a5a3:	55                   	push   %rbp
  40a5a4:	48 89 e5             	mov    %rsp,%rbp
  40a5a7:	53                   	push   %rbx
  40a5a8:	48 83 ec 28          	sub    $0x28,%rsp
  40a5ac:	48 89 7d e8          	mov    %rdi,-0x18(%rbp)
  40a5b0:	48 89 75 e0          	mov    %rsi,-0x20(%rbp)
  40a5b4:	48 89 55 d8          	mov    %rdx,-0x28(%rbp)
  40a5b8:	48 89 4d d0          	mov    %rcx,-0x30(%rbp)
  40a5bc:	48 8b 45 e0          	mov    -0x20(%rbp),%rax
  40a5c0:	48 89 c7             	mov    %rax,%rdi
  40a5c3:	e8 da 09 00 00       	callq  40afa2 <_ZSt32__make_move_if_noexcept_iteratorIN2cl6DeviceESt13move_iteratorIPS1_EET0_PT_>
  40a5c8:	48 89 c3             	mov    %rax,%rbx
  40a5cb:	48 8b 45 e8          	mov    -0x18(%rbp),%rax
  40a5cf:	48 89 c7             	mov    %rax,%rdi
  40a5d2:	e8 cb 09 00 00       	callq  40afa2 <_ZSt32__make_move_if_noexcept_iteratorIN2cl6DeviceESt13move_iteratorIPS1_EET0_PT_>
  40a5d7:	48 89 c7             	mov    %rax,%rdi
  40a5da:	48 8b 55 d0          	mov    -0x30(%rbp),%rdx
  40a5de:	48 8b 45 d8          	mov    -0x28(%rbp),%rax
  40a5e2:	48 89 d1             	mov    %rdx,%rcx
  40a5e5:	48 89 c2             	mov    %rax,%rdx
  40a5e8:	48 89 de             	mov    %rbx,%rsi
  40a5eb:	e8 fa 09 00 00       	callq  40afea <_ZSt22__uninitialized_copy_aISt13move_iteratorIPN2cl6DeviceEES3_S2_ET0_T_S6_S5_RSaIT1_E>
  40a5f0:	48 83 c4 28          	add    $0x28,%rsp
  40a5f4:	5b                   	pop    %rbx
  40a5f5:	5d                   	pop    %rbp
  40a5f6:	c3                   	retq   
  40a5f7:	90                   	nop

000000000040a5f8 <_ZNSt12_Vector_baseIN2cl6DeviceESaIS1_EE13_M_deallocateEPS1_m>:
  40a5f8:	55                   	push   %rbp
  40a5f9:	48 89 e5             	mov    %rsp,%rbp
  40a5fc:	48 83 ec 20          	sub    $0x20,%rsp
  40a600:	48 89 7d f8          	mov    %rdi,-0x8(%rbp)
  40a604:	48 89 75 f0          	mov    %rsi,-0x10(%rbp)
  40a608:	48 89 55 e8          	mov    %rdx,-0x18(%rbp)
  40a60c:	48 83 7d f0 00       	cmpq   $0x0,-0x10(%rbp)
  40a611:	74 17                	je     40a62a <_ZNSt12_Vector_baseIN2cl6DeviceESaIS1_EE13_M_deallocateEPS1_m+0x32>
  40a613:	48 8b 45 f8          	mov    -0x8(%rbp),%rax
  40a617:	48 8b 55 e8          	mov    -0x18(%rbp),%rdx
  40a61b:	48 8b 4d f0          	mov    -0x10(%rbp),%rcx
  40a61f:	48 89 ce             	mov    %rcx,%rsi
  40a622:	48 89 c7             	mov    %rax,%rdi
  40a625:	e8 f1 09 00 00       	callq  40b01b <_ZNSt16allocator_traitsISaIN2cl6DeviceEEE10deallocateERS2_PS1_m>
  40a62a:	90                   	nop
  40a62b:	c9                   	leaveq 
  40a62c:	c3                   	retq   

000000000040a62d <_ZSt27__uninitialized_default_n_aIPN2cl8PlatformEmS1_ET_S3_T0_RSaIT1_E>:
  40a62d:	55                   	push   %rbp
  40a62e:	48 89 e5             	mov    %rsp,%rbp
  40a631:	48 83 ec 20          	sub    $0x20,%rsp
  40a635:	48 89 7d f8          	mov    %rdi,-0x8(%rbp)
  40a639:	48 89 75 f0          	mov    %rsi,-0x10(%rbp)
  40a63d:	48 89 55 e8          	mov    %rdx,-0x18(%rbp)
  40a641:	48 8b 55 f0          	mov    -0x10(%rbp),%rdx
  40a645:	48 8b 45 f8          	mov    -0x8(%rbp),%rax
  40a649:	48 89 d6             	mov    %rdx,%rsi
  40a64c:	48 89 c7             	mov    %rax,%rdi
  40a64f:	e8 f5 09 00 00       	callq  40b049 <_ZSt25__uninitialized_default_nIPN2cl8PlatformEmET_S3_T0_>
  40a654:	c9                   	leaveq 
  40a655:	c3                   	retq   

000000000040a656 <_ZNKSt6vectorIN2cl8PlatformESaIS1_EE12_M_check_lenEmPKc>:
  40a656:	55                   	push   %rbp
  40a657:	48 89 e5             	mov    %rsp,%rbp
  40a65a:	53                   	push   %rbx
  40a65b:	48 83 ec 48          	sub    $0x48,%rsp
  40a65f:	48 89 7d c8          	mov    %rdi,-0x38(%rbp)
  40a663:	48 89 75 c0          	mov    %rsi,-0x40(%rbp)
  40a667:	48 89 55 b8          	mov    %rdx,-0x48(%rbp)
  40a66b:	64 48 8b 04 25 28 00 	mov    %fs:0x28,%rax
  40a672:	00 00 
  40a674:	48 89 45 e8          	mov    %rax,-0x18(%rbp)
  40a678:	31 c0                	xor    %eax,%eax
  40a67a:	48 8b 45 c8          	mov    -0x38(%rbp),%rax
  40a67e:	48 89 c7             	mov    %rax,%rdi
  40a681:	e8 ec 09 00 00       	callq  40b072 <_ZNKSt6vectorIN2cl8PlatformESaIS1_EE8max_sizeEv>
  40a686:	48 89 c3             	mov    %rax,%rbx
  40a689:	48 8b 45 c8          	mov    -0x38(%rbp),%rax
  40a68d:	48 89 c7             	mov    %rax,%rdi
  40a690:	e8 07 db ff ff       	callq  40819c <_ZNKSt6vectorIN2cl8PlatformESaIS1_EE4sizeEv>
  40a695:	48 29 c3             	sub    %rax,%rbx
  40a698:	48 89 da             	mov    %rbx,%rdx
  40a69b:	48 8b 45 c0          	mov    -0x40(%rbp),%rax
  40a69f:	48 39 c2             	cmp    %rax,%rdx
  40a6a2:	0f 92 c0             	setb   %al
  40a6a5:	84 c0                	test   %al,%al
  40a6a7:	74 0c                	je     40a6b5 <_ZNKSt6vectorIN2cl8PlatformESaIS1_EE12_M_check_lenEmPKc+0x5f>
  40a6a9:	48 8b 45 b8          	mov    -0x48(%rbp),%rax
  40a6ad:	48 89 c7             	mov    %rax,%rdi
  40a6b0:	e8 8b 97 ff ff       	callq  403e40 <_ZSt20__throw_length_errorPKc@plt>
  40a6b5:	48 8b 45 c8          	mov    -0x38(%rbp),%rax
  40a6b9:	48 89 c7             	mov    %rax,%rdi
  40a6bc:	e8 db da ff ff       	callq  40819c <_ZNKSt6vectorIN2cl8PlatformESaIS1_EE4sizeEv>
  40a6c1:	48 89 c3             	mov    %rax,%rbx
  40a6c4:	48 8b 45 c8          	mov    -0x38(%rbp),%rax
  40a6c8:	48 89 c7             	mov    %rax,%rdi
  40a6cb:	e8 cc da ff ff       	callq  40819c <_ZNKSt6vectorIN2cl8PlatformESaIS1_EE4sizeEv>
  40a6d0:	48 89 45 d8          	mov    %rax,-0x28(%rbp)
  40a6d4:	48 8d 55 c0          	lea    -0x40(%rbp),%rdx
  40a6d8:	48 8d 45 d8          	lea    -0x28(%rbp),%rax
  40a6dc:	48 89 d6             	mov    %rdx,%rsi
  40a6df:	48 89 c7             	mov    %rax,%rdi
  40a6e2:	e8 56 e2 ff ff       	callq  40893d <_ZSt3maxImERKT_S2_S2_>
  40a6e7:	48 8b 00             	mov    (%rax),%rax
  40a6ea:	48 01 d8             	add    %rbx,%rax
  40a6ed:	48 89 45 e0          	mov    %rax,-0x20(%rbp)
  40a6f1:	48 8b 45 c8          	mov    -0x38(%rbp),%rax
  40a6f5:	48 89 c7             	mov    %rax,%rdi
  40a6f8:	e8 9f da ff ff       	callq  40819c <_ZNKSt6vectorIN2cl8PlatformESaIS1_EE4sizeEv>
  40a6fd:	48 3b 45 e0          	cmp    -0x20(%rbp),%rax
  40a701:	77 12                	ja     40a715 <_ZNKSt6vectorIN2cl8PlatformESaIS1_EE12_M_check_lenEmPKc+0xbf>
  40a703:	48 8b 45 c8          	mov    -0x38(%rbp),%rax
  40a707:	48 89 c7             	mov    %rax,%rdi
  40a70a:	e8 63 09 00 00       	callq  40b072 <_ZNKSt6vectorIN2cl8PlatformESaIS1_EE8max_sizeEv>
  40a70f:	48 3b 45 e0          	cmp    -0x20(%rbp),%rax
  40a713:	73 0e                	jae    40a723 <_ZNKSt6vectorIN2cl8PlatformESaIS1_EE12_M_check_lenEmPKc+0xcd>
  40a715:	48 8b 45 c8          	mov    -0x38(%rbp),%rax
  40a719:	48 89 c7             	mov    %rax,%rdi
  40a71c:	e8 51 09 00 00       	callq  40b072 <_ZNKSt6vectorIN2cl8PlatformESaIS1_EE8max_sizeEv>
  40a721:	eb 04                	jmp    40a727 <_ZNKSt6vectorIN2cl8PlatformESaIS1_EE12_M_check_lenEmPKc+0xd1>
  40a723:	48 8b 45 e0          	mov    -0x20(%rbp),%rax
  40a727:	48 8b 4d e8          	mov    -0x18(%rbp),%rcx
  40a72b:	64 48 33 0c 25 28 00 	xor    %fs:0x28,%rcx
  40a732:	00 00 
  40a734:	74 05                	je     40a73b <_ZNKSt6vectorIN2cl8PlatformESaIS1_EE12_M_check_lenEmPKc+0xe5>
  40a736:	e8 f5 97 ff ff       	callq  403f30 <__stack_chk_fail@plt>
  40a73b:	48 83 c4 48          	add    $0x48,%rsp
  40a73f:	5b                   	pop    %rbx
  40a740:	5d                   	pop    %rbp
  40a741:	c3                   	retq   

000000000040a742 <_ZNSt12_Vector_baseIN2cl8PlatformESaIS1_EE11_M_allocateEm>:
  40a742:	55                   	push   %rbp
  40a743:	48 89 e5             	mov    %rsp,%rbp
  40a746:	48 83 ec 10          	sub    $0x10,%rsp
  40a74a:	48 89 7d f8          	mov    %rdi,-0x8(%rbp)
  40a74e:	48 89 75 f0          	mov    %rsi,-0x10(%rbp)
  40a752:	48 83 7d f0 00       	cmpq   $0x0,-0x10(%rbp)
  40a757:	74 15                	je     40a76e <_ZNSt12_Vector_baseIN2cl8PlatformESaIS1_EE11_M_allocateEm+0x2c>
  40a759:	48 8b 45 f8          	mov    -0x8(%rbp),%rax
  40a75d:	48 8b 55 f0          	mov    -0x10(%rbp),%rdx
  40a761:	48 89 d6             	mov    %rdx,%rsi
  40a764:	48 89 c7             	mov    %rax,%rdi
  40a767:	e8 28 09 00 00       	callq  40b094 <_ZNSt16allocator_traitsISaIN2cl8PlatformEEE8allocateERS2_m>
  40a76c:	eb 05                	jmp    40a773 <_ZNSt12_Vector_baseIN2cl8PlatformESaIS1_EE11_M_allocateEm+0x31>
  40a76e:	b8 00 00 00 00       	mov    $0x0,%eax
  40a773:	c9                   	leaveq 
  40a774:	c3                   	retq   

000000000040a775 <_ZSt34__uninitialized_move_if_noexcept_aIPN2cl8PlatformES2_SaIS1_EET0_T_S5_S4_RT1_>:
  40a775:	55                   	push   %rbp
  40a776:	48 89 e5             	mov    %rsp,%rbp
  40a779:	53                   	push   %rbx
  40a77a:	48 83 ec 28          	sub    $0x28,%rsp
  40a77e:	48 89 7d e8          	mov    %rdi,-0x18(%rbp)
  40a782:	48 89 75 e0          	mov    %rsi,-0x20(%rbp)
  40a786:	48 89 55 d8          	mov    %rdx,-0x28(%rbp)
  40a78a:	48 89 4d d0          	mov    %rcx,-0x30(%rbp)
  40a78e:	48 8b 45 e0          	mov    -0x20(%rbp),%rax
  40a792:	48 89 c7             	mov    %rax,%rdi
  40a795:	e8 24 09 00 00       	callq  40b0be <_ZSt32__make_move_if_noexcept_iteratorIN2cl8PlatformESt13move_iteratorIPS1_EET0_PT_>
  40a79a:	48 89 c3             	mov    %rax,%rbx
  40a79d:	48 8b 45 e8          	mov    -0x18(%rbp),%rax
  40a7a1:	48 89 c7             	mov    %rax,%rdi
  40a7a4:	e8 15 09 00 00       	callq  40b0be <_ZSt32__make_move_if_noexcept_iteratorIN2cl8PlatformESt13move_iteratorIPS1_EET0_PT_>
  40a7a9:	48 89 c7             	mov    %rax,%rdi
  40a7ac:	48 8b 55 d0          	mov    -0x30(%rbp),%rdx
  40a7b0:	48 8b 45 d8          	mov    -0x28(%rbp),%rax
  40a7b4:	48 89 d1             	mov    %rdx,%rcx
  40a7b7:	48 89 c2             	mov    %rax,%rdx
  40a7ba:	48 89 de             	mov    %rbx,%rsi
  40a7bd:	e8 44 09 00 00       	callq  40b106 <_ZSt22__uninitialized_copy_aISt13move_iteratorIPN2cl8PlatformEES3_S2_ET0_T_S6_S5_RSaIT1_E>
  40a7c2:	48 83 c4 28          	add    $0x28,%rsp
  40a7c6:	5b                   	pop    %rbx
  40a7c7:	5d                   	pop    %rbp
  40a7c8:	c3                   	retq   
  40a7c9:	90                   	nop

000000000040a7ca <_ZNSt12_Vector_baseIN2cl8PlatformESaIS1_EE13_M_deallocateEPS1_m>:
  40a7ca:	55                   	push   %rbp
  40a7cb:	48 89 e5             	mov    %rsp,%rbp
  40a7ce:	48 83 ec 20          	sub    $0x20,%rsp
  40a7d2:	48 89 7d f8          	mov    %rdi,-0x8(%rbp)
  40a7d6:	48 89 75 f0          	mov    %rsi,-0x10(%rbp)
  40a7da:	48 89 55 e8          	mov    %rdx,-0x18(%rbp)
  40a7de:	48 83 7d f0 00       	cmpq   $0x0,-0x10(%rbp)
  40a7e3:	74 17                	je     40a7fc <_ZNSt12_Vector_baseIN2cl8PlatformESaIS1_EE13_M_deallocateEPS1_m+0x32>
  40a7e5:	48 8b 45 f8          	mov    -0x8(%rbp),%rax
  40a7e9:	48 8b 55 e8          	mov    -0x18(%rbp),%rdx
  40a7ed:	48 8b 4d f0          	mov    -0x10(%rbp),%rcx
  40a7f1:	48 89 ce             	mov    %rcx,%rsi
  40a7f4:	48 89 c7             	mov    %rax,%rdi
  40a7f7:	e8 3b 09 00 00       	callq  40b137 <_ZNSt16allocator_traitsISaIN2cl8PlatformEEE10deallocateERS2_PS1_m>
  40a7fc:	90                   	nop
  40a7fd:	c9                   	leaveq 
  40a7fe:	c3                   	retq   
  40a7ff:	90                   	nop

000000000040a800 <_ZNSt12_Vector_baseIN2cl8PlatformESaIS1_EE12_Vector_implC1Ev>:
  40a800:	55                   	push   %rbp
  40a801:	48 89 e5             	mov    %rsp,%rbp
  40a804:	48 83 ec 10          	sub    $0x10,%rsp
  40a808:	48 89 7d f8          	mov    %rdi,-0x8(%rbp)
  40a80c:	48 8b 45 f8          	mov    -0x8(%rbp),%rax
  40a810:	48 89 c7             	mov    %rax,%rdi
  40a813:	e8 4e 09 00 00       	callq  40b166 <_ZNSaIN2cl8PlatformEEC1Ev>
  40a818:	48 8b 45 f8          	mov    -0x8(%rbp),%rax
  40a81c:	48 c7 00 00 00 00 00 	movq   $0x0,(%rax)
  40a823:	48 8b 45 f8          	mov    -0x8(%rbp),%rax
  40a827:	48 c7 40 08 00 00 00 	movq   $0x0,0x8(%rax)
  40a82e:	00 
  40a82f:	48 8b 45 f8          	mov    -0x8(%rbp),%rax
  40a833:	48 c7 40 10 00 00 00 	movq   $0x0,0x10(%rax)
  40a83a:	00 
  40a83b:	90                   	nop
  40a83c:	c9                   	leaveq 
  40a83d:	c3                   	retq   

000000000040a83e <_ZNSaIN2cl8PlatformEED1Ev>:
  40a83e:	55                   	push   %rbp
  40a83f:	48 89 e5             	mov    %rsp,%rbp
  40a842:	48 83 ec 10          	sub    $0x10,%rsp
  40a846:	48 89 7d f8          	mov    %rdi,-0x8(%rbp)
  40a84a:	48 8b 45 f8          	mov    -0x8(%rbp),%rax
  40a84e:	48 89 c7             	mov    %rax,%rdi
  40a851:	e8 2c 09 00 00       	callq  40b182 <_ZN9__gnu_cxx13new_allocatorIN2cl8PlatformEED1Ev>
  40a856:	90                   	nop
  40a857:	c9                   	leaveq 
  40a858:	c3                   	retq   

000000000040a859 <_ZSt8_DestroyIPN2cl8PlatformEEvT_S3_>:
  40a859:	55                   	push   %rbp
  40a85a:	48 89 e5             	mov    %rsp,%rbp
  40a85d:	48 83 ec 10          	sub    $0x10,%rsp
  40a861:	48 89 7d f8          	mov    %rdi,-0x8(%rbp)
  40a865:	48 89 75 f0          	mov    %rsi,-0x10(%rbp)
  40a869:	48 8b 55 f0          	mov    -0x10(%rbp),%rdx
  40a86d:	48 8b 45 f8          	mov    -0x8(%rbp),%rax
  40a871:	48 89 d6             	mov    %rdx,%rsi
  40a874:	48 89 c7             	mov    %rax,%rdi
  40a877:	e8 11 09 00 00       	callq  40b18d <_ZNSt12_Destroy_auxILb0EE9__destroyIPN2cl8PlatformEEEvT_S5_>
  40a87c:	90                   	nop
  40a87d:	c9                   	leaveq 
  40a87e:	c3                   	retq   
  40a87f:	90                   	nop

000000000040a880 <_ZNSt12_Vector_baseIN2cl6DeviceESaIS1_EE12_Vector_implC1Ev>:
  40a880:	55                   	push   %rbp
  40a881:	48 89 e5             	mov    %rsp,%rbp
  40a884:	48 83 ec 10          	sub    $0x10,%rsp
  40a888:	48 89 7d f8          	mov    %rdi,-0x8(%rbp)
  40a88c:	48 8b 45 f8          	mov    -0x8(%rbp),%rax
  40a890:	48 89 c7             	mov    %rax,%rdi
  40a893:	e8 2e 09 00 00       	callq  40b1c6 <_ZNSaIN2cl6DeviceEEC1Ev>
  40a898:	48 8b 45 f8          	mov    -0x8(%rbp),%rax
  40a89c:	48 c7 00 00 00 00 00 	movq   $0x0,(%rax)
  40a8a3:	48 8b 45 f8          	mov    -0x8(%rbp),%rax
  40a8a7:	48 c7 40 08 00 00 00 	movq   $0x0,0x8(%rax)
  40a8ae:	00 
  40a8af:	48 8b 45 f8          	mov    -0x8(%rbp),%rax
  40a8b3:	48 c7 40 10 00 00 00 	movq   $0x0,0x10(%rax)
  40a8ba:	00 
  40a8bb:	90                   	nop
  40a8bc:	c9                   	leaveq 
  40a8bd:	c3                   	retq   

000000000040a8be <_ZNSaIN2cl6DeviceEED1Ev>:
  40a8be:	55                   	push   %rbp
  40a8bf:	48 89 e5             	mov    %rsp,%rbp
  40a8c2:	48 83 ec 10          	sub    $0x10,%rsp
  40a8c6:	48 89 7d f8          	mov    %rdi,-0x8(%rbp)
  40a8ca:	48 8b 45 f8          	mov    -0x8(%rbp),%rax
  40a8ce:	48 89 c7             	mov    %rax,%rdi
  40a8d1:	e8 0c 09 00 00       	callq  40b1e2 <_ZN9__gnu_cxx13new_allocatorIN2cl6DeviceEED1Ev>
  40a8d6:	90                   	nop
  40a8d7:	c9                   	leaveq 
  40a8d8:	c3                   	retq   

000000000040a8d9 <_ZSt8_DestroyIPN2cl6DeviceEEvT_S3_>:
  40a8d9:	55                   	push   %rbp
  40a8da:	48 89 e5             	mov    %rsp,%rbp
  40a8dd:	48 83 ec 10          	sub    $0x10,%rsp
  40a8e1:	48 89 7d f8          	mov    %rdi,-0x8(%rbp)
  40a8e5:	48 89 75 f0          	mov    %rsi,-0x10(%rbp)
  40a8e9:	48 8b 55 f0          	mov    -0x10(%rbp),%rdx
  40a8ed:	48 8b 45 f8          	mov    -0x8(%rbp),%rax
  40a8f1:	48 89 d6             	mov    %rdx,%rsi
  40a8f4:	48 89 c7             	mov    %rax,%rdi
  40a8f7:	e8 f1 08 00 00       	callq  40b1ed <_ZNSt12_Destroy_auxILb0EE9__destroyIPN2cl6DeviceEEEvT_S5_>
  40a8fc:	90                   	nop
  40a8fd:	c9                   	leaveq 
  40a8fe:	c3                   	retq   

000000000040a8ff <_ZSt11__addressofIKN2cl7ContextEEPT_RS3_>:
  40a8ff:	55                   	push   %rbp
  40a900:	48 89 e5             	mov    %rsp,%rbp
  40a903:	48 89 7d f8          	mov    %rdi,-0x8(%rbp)
  40a907:	48 8b 45 f8          	mov    -0x8(%rbp),%rax
  40a90b:	5d                   	pop    %rbp
  40a90c:	c3                   	retq   

000000000040a90d <_ZSt13__invoke_implIvRFvRKN2cl7ContextEEJSt17reference_wrapperIS2_EEET_St14__invoke_otherOT0_DpOT1_>:
  40a90d:	55                   	push   %rbp
  40a90e:	48 89 e5             	mov    %rsp,%rbp
  40a911:	53                   	push   %rbx
  40a912:	48 83 ec 18          	sub    $0x18,%rsp
  40a916:	48 89 7d e8          	mov    %rdi,-0x18(%rbp)
  40a91a:	48 89 75 e0          	mov    %rsi,-0x20(%rbp)
  40a91e:	48 8b 45 e8          	mov    -0x18(%rbp),%rax
  40a922:	48 89 c7             	mov    %rax,%rdi
  40a925:	e8 7a da ff ff       	callq  4083a4 <_ZSt7forwardIRFvRKN2cl7ContextEEEOT_RNSt16remove_referenceIS6_E4typeE>
  40a92a:	48 89 c3             	mov    %rax,%rbx
  40a92d:	48 8b 45 e0          	mov    -0x20(%rbp),%rax
  40a931:	48 89 c7             	mov    %rax,%rdi
  40a934:	e8 79 da ff ff       	callq  4083b2 <_ZSt7forwardISt17reference_wrapperIKN2cl7ContextEEEOT_RNSt16remove_referenceIS5_E4typeE>
  40a939:	48 89 c7             	mov    %rax,%rdi
  40a93c:	e8 e5 08 00 00       	callq  40b226 <_ZNKSt17reference_wrapperIKN2cl7ContextEEcvRS2_Ev>
  40a941:	48 89 c7             	mov    %rax,%rdi
  40a944:	ff d3                	callq  *%rbx
  40a946:	48 83 c4 18          	add    $0x18,%rsp
  40a94a:	5b                   	pop    %rbx
  40a94b:	5d                   	pop    %rbp
  40a94c:	c3                   	retq   

000000000040a94d <_ZN2cl6detail13getInfoHelperINS0_15GetInfoFunctor0IPFiP11_cl_contextjmPvPmES4_EENS_6DeviceEEEiT_jPSt6vectorIT0_SaISD_EEiNSD_7cl_typeE>:
  40a94d:	55                   	push   %rbp
  40a94e:	48 89 e5             	mov    %rsp,%rbp
  40a951:	53                   	push   %rbx
  40a952:	48 81 ec 88 00 00 00 	sub    $0x88,%rsp
  40a959:	48 89 f8             	mov    %rdi,%rax
  40a95c:	49 89 f2             	mov    %rsi,%r10
  40a95f:	48 89 c6             	mov    %rax,%rsi
  40a962:	48 89 d7             	mov    %rdx,%rdi
  40a965:	4c 89 d7             	mov    %r10,%rdi
  40a968:	48 89 75 90          	mov    %rsi,-0x70(%rbp)
  40a96c:	48 89 7d 98          	mov    %rdi,-0x68(%rbp)
  40a970:	89 55 8c             	mov    %edx,-0x74(%rbp)
  40a973:	48 89 4d 80          	mov    %rcx,-0x80(%rbp)
  40a977:	44 89 45 88          	mov    %r8d,-0x78(%rbp)
  40a97b:	4c 89 8d 78 ff ff ff 	mov    %r9,-0x88(%rbp)
  40a982:	64 48 8b 04 25 28 00 	mov    %fs:0x28,%rax
  40a989:	00 00 
  40a98b:	48 89 45 e8          	mov    %rax,-0x18(%rbp)
  40a98f:	31 c0                	xor    %eax,%eax
  40a991:	48 8d 55 a8          	lea    -0x58(%rbp),%rdx
  40a995:	8b 75 8c             	mov    -0x74(%rbp),%esi
  40a998:	48 8d 45 90          	lea    -0x70(%rbp),%rax
  40a99c:	49 89 d0             	mov    %rdx,%r8
  40a99f:	b9 00 00 00 00       	mov    $0x0,%ecx
  40a9a4:	ba 00 00 00 00       	mov    $0x0,%edx
  40a9a9:	48 89 c7             	mov    %rax,%rdi
  40a9ac:	e8 8f 08 00 00       	callq  40b240 <_ZN2cl6detail15GetInfoFunctor0IPFiP11_cl_contextjmPvPmES3_EclEjmS4_S5_>
  40a9b1:	89 45 a4             	mov    %eax,-0x5c(%rbp)
  40a9b4:	83 7d a4 00          	cmpl   $0x0,-0x5c(%rbp)
  40a9b8:	74 08                	je     40a9c2 <_ZN2cl6detail13getInfoHelperINS0_15GetInfoFunctor0IPFiP11_cl_contextjmPvPmES4_EENS_6DeviceEEEiT_jPSt6vectorIT0_SaISD_EEiNSD_7cl_typeE+0x75>
  40a9ba:	8b 5d a4             	mov    -0x5c(%rbp),%ebx
  40a9bd:	e9 17 01 00 00       	jmpq   40aad9 <_ZN2cl6detail13getInfoHelperINS0_15GetInfoFunctor0IPFiP11_cl_contextjmPvPmES4_EENS_6DeviceEEEiT_jPSt6vectorIT0_SaISD_EEiNSD_7cl_typeE+0x18c>
  40a9c2:	48 8b 45 a8          	mov    -0x58(%rbp),%rax
  40a9c6:	48 c1 e8 03          	shr    $0x3,%rax
  40a9ca:	48 89 45 b8          	mov    %rax,-0x48(%rbp)
  40a9ce:	48 8d 45 c0          	lea    -0x40(%rbp),%rax
  40a9d2:	48 89 c7             	mov    %rax,%rdi
  40a9d5:	e8 02 d4 ff ff       	callq  407ddc <_ZNSaIP13_cl_device_idEC1Ev>
  40a9da:	48 8d 55 c0          	lea    -0x40(%rbp),%rdx
  40a9de:	48 8b 4d b8          	mov    -0x48(%rbp),%rcx
  40a9e2:	48 8d 45 d0          	lea    -0x30(%rbp),%rax
  40a9e6:	48 89 ce             	mov    %rcx,%rsi
  40a9e9:	48 89 c7             	mov    %rax,%rdi
  40a9ec:	e8 23 d4 ff ff       	callq  407e14 <_ZNSt6vectorIP13_cl_device_idSaIS1_EEC1EmRKS2_>
  40a9f1:	48 8d 45 c0          	lea    -0x40(%rbp),%rax
  40a9f5:	48 89 c7             	mov    %rax,%rdi
  40a9f8:	e8 fb d3 ff ff       	callq  407df8 <_ZNSaIP13_cl_device_idED1Ev>
  40a9fd:	48 8d 45 d0          	lea    -0x30(%rbp),%rax
  40aa01:	48 89 c7             	mov    %rax,%rdi
  40aa04:	e8 b1 d4 ff ff       	callq  407eba <_ZNSt6vectorIP13_cl_device_idSaIS1_EE4dataEv>
  40aa09:	48 89 c1             	mov    %rax,%rcx
  40aa0c:	48 8b 55 a8          	mov    -0x58(%rbp),%rdx
  40aa10:	8b 75 8c             	mov    -0x74(%rbp),%esi
  40aa13:	48 8d 45 90          	lea    -0x70(%rbp),%rax
  40aa17:	41 b8 00 00 00 00    	mov    $0x0,%r8d
  40aa1d:	48 89 c7             	mov    %rax,%rdi
  40aa20:	e8 1b 08 00 00       	callq  40b240 <_ZN2cl6detail15GetInfoFunctor0IPFiP11_cl_contextjmPvPmES3_EclEjmS4_S5_>
  40aa25:	89 45 a4             	mov    %eax,-0x5c(%rbp)
  40aa28:	83 7d a4 00          	cmpl   $0x0,-0x5c(%rbp)
  40aa2c:	74 08                	je     40aa36 <_ZN2cl6detail13getInfoHelperINS0_15GetInfoFunctor0IPFiP11_cl_contextjmPvPmES4_EENS_6DeviceEEEiT_jPSt6vectorIT0_SaISD_EEiNSD_7cl_typeE+0xe9>
  40aa2e:	8b 5d a4             	mov    -0x5c(%rbp),%ebx
  40aa31:	e9 97 00 00 00       	jmpq   40aacd <_ZN2cl6detail13getInfoHelperINS0_15GetInfoFunctor0IPFiP11_cl_contextjmPvPmES4_EENS_6DeviceEEEiT_jPSt6vectorIT0_SaISD_EEiNSD_7cl_typeE+0x180>
  40aa36:	48 83 7d 80 00       	cmpq   $0x0,-0x80(%rbp)
  40aa3b:	0f 84 87 00 00 00    	je     40aac8 <_ZN2cl6detail13getInfoHelperINS0_15GetInfoFunctor0IPFiP11_cl_contextjmPvPmES4_EENS_6DeviceEEEiT_jPSt6vectorIT0_SaISD_EEiNSD_7cl_typeE+0x17b>
  40aa41:	48 8b 55 b8          	mov    -0x48(%rbp),%rdx
  40aa45:	48 8b 45 80          	mov    -0x80(%rbp),%rax
  40aa49:	48 89 d6             	mov    %rdx,%rsi
  40aa4c:	48 89 c7             	mov    %rax,%rdi
  40aa4f:	e8 b0 d4 ff ff       	callq  407f04 <_ZNSt6vectorIN2cl6DeviceESaIS1_EE6resizeEm>
  40aa54:	48 c7 45 b0 00 00 00 	movq   $0x0,-0x50(%rbp)
  40aa5b:	00 
  40aa5c:	48 8b 45 b0          	mov    -0x50(%rbp),%rax
  40aa60:	48 3b 45 b8          	cmp    -0x48(%rbp),%rax
  40aa64:	73 62                	jae    40aac8 <_ZN2cl6detail13getInfoHelperINS0_15GetInfoFunctor0IPFiP11_cl_contextjmPvPmES4_EENS_6DeviceEEEiT_jPSt6vectorIT0_SaISD_EEiNSD_7cl_typeE+0x17b>
  40aa66:	48 8b 55 b0          	mov    -0x50(%rbp),%rdx
  40aa6a:	48 8d 45 d0          	lea    -0x30(%rbp),%rax
  40aa6e:	48 89 d6             	mov    %rdx,%rsi
  40aa71:	48 89 c7             	mov    %rax,%rdi
  40aa74:	e8 37 d5 ff ff       	callq  407fb0 <_ZNSt6vectorIP13_cl_device_idSaIS1_EEixEm>
  40aa79:	48 89 c1             	mov    %rax,%rcx
  40aa7c:	48 8d 45 c0          	lea    -0x40(%rbp),%rax
  40aa80:	ba 01 00 00 00       	mov    $0x1,%edx
  40aa85:	48 89 ce             	mov    %rcx,%rsi
  40aa88:	48 89 c7             	mov    %rax,%rdi
  40aa8b:	e8 c6 a8 ff ff       	callq  405356 <_ZN2cl6DeviceC1ERKP13_cl_device_idb>
  40aa90:	48 8b 55 b0          	mov    -0x50(%rbp),%rdx
  40aa94:	48 8b 45 80          	mov    -0x80(%rbp),%rax
  40aa98:	48 89 d6             	mov    %rdx,%rsi
  40aa9b:	48 89 c7             	mov    %rax,%rdi
  40aa9e:	e8 ed d4 ff ff       	callq  407f90 <_ZNSt6vectorIN2cl6DeviceESaIS1_EEixEm>
  40aaa3:	48 89 c2             	mov    %rax,%rdx
  40aaa6:	48 8d 45 c0          	lea    -0x40(%rbp),%rax
  40aaaa:	48 89 c6             	mov    %rax,%rsi
  40aaad:	48 89 d7             	mov    %rdx,%rdi
  40aab0:	e8 d7 a9 ff ff       	callq  40548c <_ZN2cl6DeviceaSEOS0_>
  40aab5:	48 8d 45 c0          	lea    -0x40(%rbp),%rax
  40aab9:	48 89 c7             	mov    %rax,%rdi
  40aabc:	e8 c5 a8 ff ff       	callq  405386 <_ZN2cl6DeviceD1Ev>
  40aac1:	48 83 45 b0 01       	addq   $0x1,-0x50(%rbp)
  40aac6:	eb 94                	jmp    40aa5c <_ZN2cl6detail13getInfoHelperINS0_15GetInfoFunctor0IPFiP11_cl_contextjmPvPmES4_EENS_6DeviceEEEiT_jPSt6vectorIT0_SaISD_EEiNSD_7cl_typeE+0x10f>
  40aac8:	bb 00 00 00 00       	mov    $0x0,%ebx
  40aacd:	48 8d 45 d0          	lea    -0x30(%rbp),%rax
  40aad1:	48 89 c7             	mov    %rax,%rdi
  40aad4:	e8 9d d3 ff ff       	callq  407e76 <_ZNSt6vectorIP13_cl_device_idSaIS1_EED1Ev>
  40aad9:	89 d8                	mov    %ebx,%eax
  40aadb:	48 8b 4d e8          	mov    -0x18(%rbp),%rcx
  40aadf:	64 48 33 0c 25 28 00 	xor    %fs:0x28,%rcx
  40aae6:	00 00 
  40aae8:	74 4c                	je     40ab36 <_ZN2cl6detail13getInfoHelperINS0_15GetInfoFunctor0IPFiP11_cl_contextjmPvPmES4_EENS_6DeviceEEEiT_jPSt6vectorIT0_SaISD_EEiNSD_7cl_typeE+0x1e9>
  40aaea:	eb 45                	jmp    40ab31 <_ZN2cl6detail13getInfoHelperINS0_15GetInfoFunctor0IPFiP11_cl_contextjmPvPmES4_EENS_6DeviceEEEiT_jPSt6vectorIT0_SaISD_EEiNSD_7cl_typeE+0x1e4>
  40aaec:	48 89 c3             	mov    %rax,%rbx
  40aaef:	48 8d 45 c0          	lea    -0x40(%rbp),%rax
  40aaf3:	48 89 c7             	mov    %rax,%rdi
  40aaf6:	e8 fd d2 ff ff       	callq  407df8 <_ZNSaIP13_cl_device_idED1Ev>
  40aafb:	48 89 d8             	mov    %rbx,%rax
  40aafe:	48 89 c7             	mov    %rax,%rdi
  40ab01:	e8 8a 96 ff ff       	callq  404190 <_Unwind_Resume@plt>
  40ab06:	48 89 c3             	mov    %rax,%rbx
  40ab09:	48 8d 45 c0          	lea    -0x40(%rbp),%rax
  40ab0d:	48 89 c7             	mov    %rax,%rdi
  40ab10:	e8 71 a8 ff ff       	callq  405386 <_ZN2cl6DeviceD1Ev>
  40ab15:	eb 03                	jmp    40ab1a <_ZN2cl6detail13getInfoHelperINS0_15GetInfoFunctor0IPFiP11_cl_contextjmPvPmES4_EENS_6DeviceEEEiT_jPSt6vectorIT0_SaISD_EEiNSD_7cl_typeE+0x1cd>
  40ab17:	48 89 c3             	mov    %rax,%rbx
  40ab1a:	48 8d 45 d0          	lea    -0x30(%rbp),%rax
  40ab1e:	48 89 c7             	mov    %rax,%rdi
  40ab21:	e8 50 d3 ff ff       	callq  407e76 <_ZNSt6vectorIP13_cl_device_idSaIS1_EED1Ev>
  40ab26:	48 89 d8             	mov    %rbx,%rax
  40ab29:	48 89 c7             	mov    %rax,%rdi
  40ab2c:	e8 5f 96 ff ff       	callq  404190 <_Unwind_Resume@plt>
  40ab31:	e8 fa 93 ff ff       	callq  403f30 <__stack_chk_fail@plt>
  40ab36:	48 81 c4 88 00 00 00 	add    $0x88,%rsp
  40ab3d:	5b                   	pop    %rbx
  40ab3e:	5d                   	pop    %rbp
  40ab3f:	c3                   	retq   

000000000040ab40 <_ZN2CK14print_raw_dataIfEEvPT_RKNS_5ShapeE>:
  40ab40:	55                   	push   %rbp
  40ab41:	48 89 e5             	mov    %rsp,%rbp
  40ab44:	48 83 ec 30          	sub    $0x30,%rsp
  40ab48:	48 89 7d d8          	mov    %rdi,-0x28(%rbp)
  40ab4c:	48 89 75 d0          	mov    %rsi,-0x30(%rbp)
  40ab50:	bf a8 06 41 00       	mov    $0x4106a8,%edi
  40ab55:	e8 66 95 ff ff       	callq  4040c0 <puts@plt>
  40ab5a:	48 8b 45 d0          	mov    -0x30(%rbp),%rax
  40ab5e:	8b 70 0c             	mov    0xc(%rax),%esi
  40ab61:	48 8b 45 d0          	mov    -0x30(%rbp),%rax
  40ab65:	8b 48 08             	mov    0x8(%rax),%ecx
  40ab68:	48 8b 45 d0          	mov    -0x30(%rbp),%rax
  40ab6c:	8b 50 04             	mov    0x4(%rax),%edx
  40ab6f:	48 8b 45 d0          	mov    -0x30(%rbp),%rax
  40ab73:	8b 00                	mov    (%rax),%eax
  40ab75:	41 89 f0             	mov    %esi,%r8d
  40ab78:	89 c6                	mov    %eax,%esi
  40ab7a:	bf cc 06 41 00       	mov    $0x4106cc,%edi
  40ab7f:	b8 00 00 00 00       	mov    $0x0,%eax
  40ab84:	e8 67 91 ff ff       	callq  403cf0 <printf@plt>
  40ab89:	c7 45 ec 00 00 00 00 	movl   $0x0,-0x14(%rbp)
  40ab90:	48 8b 45 d0          	mov    -0x30(%rbp),%rax
  40ab94:	8b 00                	mov    (%rax),%eax
  40ab96:	3b 45 ec             	cmp    -0x14(%rbp),%eax
  40ab99:	0f 8e c5 00 00 00    	jle    40ac64 <_ZN2CK14print_raw_dataIfEEvPT_RKNS_5ShapeE+0x124>
  40ab9f:	c7 45 f0 00 00 00 00 	movl   $0x0,-0x10(%rbp)
  40aba6:	48 8b 45 d0          	mov    -0x30(%rbp),%rax
  40abaa:	8b 40 04             	mov    0x4(%rax),%eax
  40abad:	3b 45 f0             	cmp    -0x10(%rbp),%eax
  40abb0:	0f 8e a5 00 00 00    	jle    40ac5b <_ZN2CK14print_raw_dataIfEEvPT_RKNS_5ShapeE+0x11b>
  40abb6:	8b 55 f0             	mov    -0x10(%rbp),%edx
  40abb9:	8b 45 ec             	mov    -0x14(%rbp),%eax
  40abbc:	89 c6                	mov    %eax,%esi
  40abbe:	bf ea 06 41 00       	mov    $0x4106ea,%edi
  40abc3:	b8 00 00 00 00       	mov    $0x0,%eax
  40abc8:	e8 23 91 ff ff       	callq  403cf0 <printf@plt>
  40abcd:	c7 45 f4 00 00 00 00 	movl   $0x0,-0xc(%rbp)
  40abd4:	48 8b 45 d0          	mov    -0x30(%rbp),%rax
  40abd8:	8b 40 08             	mov    0x8(%rax),%eax
  40abdb:	3b 45 f4             	cmp    -0xc(%rbp),%eax
  40abde:	7e 72                	jle    40ac52 <_ZN2CK14print_raw_dataIfEEvPT_RKNS_5ShapeE+0x112>
  40abe0:	c7 45 f8 00 00 00 00 	movl   $0x0,-0x8(%rbp)
  40abe7:	48 8b 45 d0          	mov    -0x30(%rbp),%rax
  40abeb:	8b 40 0c             	mov    0xc(%rax),%eax
  40abee:	3b 45 f8             	cmp    -0x8(%rbp),%eax
  40abf1:	7e 4f                	jle    40ac42 <_ZN2CK14print_raw_dataIfEEvPT_RKNS_5ShapeE+0x102>
  40abf3:	8b 7d f8             	mov    -0x8(%rbp),%edi
  40abf6:	8b 4d f4             	mov    -0xc(%rbp),%ecx
  40abf9:	8b 55 f0             	mov    -0x10(%rbp),%edx
  40abfc:	8b 75 ec             	mov    -0x14(%rbp),%esi
  40abff:	48 8b 45 d0          	mov    -0x30(%rbp),%rax
  40ac03:	41 89 f8             	mov    %edi,%r8d
  40ac06:	48 89 c7             	mov    %rax,%rdi
  40ac09:	e8 9e c6 ff ff       	callq  4072ac <_ZNK2CK5Shape14get_flat_indexEiiii>
  40ac0e:	89 45 fc             	mov    %eax,-0x4(%rbp)
  40ac11:	8b 45 fc             	mov    -0x4(%rbp),%eax
  40ac14:	48 98                	cltq   
  40ac16:	48 8d 14 85 00 00 00 	lea    0x0(,%rax,4),%rdx
  40ac1d:	00 
  40ac1e:	48 8b 45 d8          	mov    -0x28(%rbp),%rax
  40ac22:	48 01 d0             	add    %rdx,%rax
  40ac25:	f3 0f 10 00          	movss  (%rax),%xmm0
  40ac29:	f3 0f 5a c0          	cvtss2sd %xmm0,%xmm0
  40ac2d:	bf f7 06 41 00       	mov    $0x4106f7,%edi
  40ac32:	b8 01 00 00 00       	mov    $0x1,%eax
  40ac37:	e8 b4 90 ff ff       	callq  403cf0 <printf@plt>
  40ac3c:	83 45 f8 01          	addl   $0x1,-0x8(%rbp)
  40ac40:	eb a5                	jmp    40abe7 <_ZN2CK14print_raw_dataIfEEvPT_RKNS_5ShapeE+0xa7>
  40ac42:	bf 0a 00 00 00       	mov    $0xa,%edi
  40ac47:	e8 04 94 ff ff       	callq  404050 <putchar@plt>
  40ac4c:	83 45 f4 01          	addl   $0x1,-0xc(%rbp)
  40ac50:	eb 82                	jmp    40abd4 <_ZN2CK14print_raw_dataIfEEvPT_RKNS_5ShapeE+0x94>
  40ac52:	83 45 f0 01          	addl   $0x1,-0x10(%rbp)
  40ac56:	e9 4b ff ff ff       	jmpq   40aba6 <_ZN2CK14print_raw_dataIfEEvPT_RKNS_5ShapeE+0x66>
  40ac5b:	83 45 ec 01          	addl   $0x1,-0x14(%rbp)
  40ac5f:	e9 2c ff ff ff       	jmpq   40ab90 <_ZN2CK14print_raw_dataIfEEvPT_RKNS_5ShapeE+0x50>
  40ac64:	bf a8 06 41 00       	mov    $0x4106a8,%edi
  40ac69:	e8 52 94 ff ff       	callq  4040c0 <puts@plt>
  40ac6e:	90                   	nop
  40ac6f:	c9                   	leaveq 
  40ac70:	c3                   	retq   

000000000040ac71 <_ZN11arm_compute16ForEachDimensionILm6EE6unrollIZN2CK5armcl23copy_raw_data_to_tensorIfEEvPNS_8CLTensorEPT_RKNS3_5ShapeEEUlRKNS_11CoordinatesEE_JRNS_8IteratorEEEEvRKNS_6WindowERSD_OS8_DpOT0_>:
  40ac71:	55                   	push   %rbp
  40ac72:	48 89 e5             	mov    %rsp,%rbp
  40ac75:	48 83 ec 30          	sub    $0x30,%rsp
  40ac79:	48 89 7d e8          	mov    %rdi,-0x18(%rbp)
  40ac7d:	48 89 75 e0          	mov    %rsi,-0x20(%rbp)
  40ac81:	48 89 55 d8          	mov    %rdx,-0x28(%rbp)
  40ac85:	48 89 4d d0          	mov    %rcx,-0x30(%rbp)
  40ac89:	48 8b 45 e8          	mov    -0x18(%rbp),%rax
  40ac8d:	be 05 00 00 00       	mov    $0x5,%esi
  40ac92:	48 89 c7             	mov    %rax,%rdi
  40ac95:	e8 22 be ff ff       	callq  406abc <_ZNK11arm_compute6WindowixEm>
  40ac9a:	48 89 45 f8          	mov    %rax,-0x8(%rbp)
  40ac9e:	48 8b 45 f8          	mov    -0x8(%rbp),%rax
  40aca2:	48 89 c7             	mov    %rax,%rdi
  40aca5:	e8 6e bd ff ff       	callq  406a18 <_ZNK11arm_compute6Window9Dimension5startEv>
  40acaa:	89 45 f4             	mov    %eax,-0xc(%rbp)
  40acad:	48 8b 45 f8          	mov    -0x8(%rbp),%rax
  40acb1:	48 89 c7             	mov    %rax,%rdi
  40acb4:	e8 6f bd ff ff       	callq  406a28 <_ZNK11arm_compute6Window9Dimension3endEv>
  40acb9:	3b 45 f4             	cmp    -0xc(%rbp),%eax
  40acbc:	0f 9f c0             	setg   %al
  40acbf:	84 c0                	test   %al,%al
  40acc1:	74 49                	je     40ad0c <_ZN11arm_compute16ForEachDimensionILm6EE6unrollIZN2CK5armcl23copy_raw_data_to_tensorIfEEvPNS_8CLTensorEPT_RKNS3_5ShapeEEUlRKNS_11CoordinatesEE_JRNS_8IteratorEEEEvRKNS_6WindowERSD_OS8_DpOT0_+0x9b>
  40acc3:	48 8b 45 e0          	mov    -0x20(%rbp),%rax
  40acc7:	8b 55 f4             	mov    -0xc(%rbp),%edx
  40acca:	be 05 00 00 00       	mov    $0x5,%esi
  40accf:	48 89 c7             	mov    %rax,%rdi
  40acd2:	e8 b7 dc ff ff       	callq  40898e <_ZN11arm_compute10DimensionsIiE3setEmi>
  40acd7:	48 8b 4d d0          	mov    -0x30(%rbp),%rcx
  40acdb:	48 8b 55 d8          	mov    -0x28(%rbp),%rdx
  40acdf:	48 8b 75 e0          	mov    -0x20(%rbp),%rsi
  40ace3:	48 8b 45 e8          	mov    -0x18(%rbp),%rax
  40ace7:	48 89 c7             	mov    %rax,%rdi
  40acea:	e8 24 06 00 00       	callq  40b313 <_ZN11arm_compute16ForEachDimensionILm5EE6unrollIRZN2CK5armcl23copy_raw_data_to_tensorIfEEvPNS_8CLTensorEPT_RKNS3_5ShapeEEUlRKNS_11CoordinatesEE_JRNS_8IteratorEEEEvRKNS_6WindowERSD_OS8_DpOT0_>
  40acef:	48 8b 45 f8          	mov    -0x8(%rbp),%rax
  40acf3:	48 89 c7             	mov    %rax,%rdi
  40acf6:	e8 3f bd ff ff       	callq  406a3a <_ZNK11arm_compute6Window9Dimension4stepEv>
  40acfb:	01 45 f4             	add    %eax,-0xc(%rbp)
  40acfe:	48 8b 45 d0          	mov    -0x30(%rbp),%rax
  40ad02:	48 89 c7             	mov    %rax,%rdi
  40ad05:	e8 b9 05 00 00       	callq  40b2c3 <_ZN11arm_compute18IncrementIteratorsILm5EE6unrollIRNS_8IteratorEJEEEvOT_DpOT0_>
  40ad0a:	eb a1                	jmp    40acad <_ZN11arm_compute16ForEachDimensionILm6EE6unrollIZN2CK5armcl23copy_raw_data_to_tensorIfEEvPNS_8CLTensorEPT_RKNS3_5ShapeEEUlRKNS_11CoordinatesEE_JRNS_8IteratorEEEEvRKNS_6WindowERSD_OS8_DpOT0_+0x3c>
  40ad0c:	90                   	nop
  40ad0d:	c9                   	leaveq 
  40ad0e:	c3                   	retq   

000000000040ad0f <_ZN11arm_compute16ForEachDimensionILm6EE6unrollIZN2CK5armcl25copy_raw_data_from_tensorIfEEvPNS_8CLTensorEPT_RKNS3_5ShapeEEUlRKNS_11CoordinatesEE_JRNS_8IteratorEEEEvRKNS_6WindowERSD_OS8_DpOT0_>:
  40ad0f:	55                   	push   %rbp
  40ad10:	48 89 e5             	mov    %rsp,%rbp
  40ad13:	48 83 ec 30          	sub    $0x30,%rsp
  40ad17:	48 89 7d e8          	mov    %rdi,-0x18(%rbp)
  40ad1b:	48 89 75 e0          	mov    %rsi,-0x20(%rbp)
  40ad1f:	48 89 55 d8          	mov    %rdx,-0x28(%rbp)
  40ad23:	48 89 4d d0          	mov    %rcx,-0x30(%rbp)
  40ad27:	48 8b 45 e8          	mov    -0x18(%rbp),%rax
  40ad2b:	be 05 00 00 00       	mov    $0x5,%esi
  40ad30:	48 89 c7             	mov    %rax,%rdi
  40ad33:	e8 84 bd ff ff       	callq  406abc <_ZNK11arm_compute6WindowixEm>
  40ad38:	48 89 45 f8          	mov    %rax,-0x8(%rbp)
  40ad3c:	48 8b 45 f8          	mov    -0x8(%rbp),%rax
  40ad40:	48 89 c7             	mov    %rax,%rdi
  40ad43:	e8 d0 bc ff ff       	callq  406a18 <_ZNK11arm_compute6Window9Dimension5startEv>
  40ad48:	89 45 f4             	mov    %eax,-0xc(%rbp)
  40ad4b:	48 8b 45 f8          	mov    -0x8(%rbp),%rax
  40ad4f:	48 89 c7             	mov    %rax,%rdi
  40ad52:	e8 d1 bc ff ff       	callq  406a28 <_ZNK11arm_compute6Window9Dimension3endEv>
  40ad57:	3b 45 f4             	cmp    -0xc(%rbp),%eax
  40ad5a:	0f 9f c0             	setg   %al
  40ad5d:	84 c0                	test   %al,%al
  40ad5f:	74 49                	je     40adaa <_ZN11arm_compute16ForEachDimensionILm6EE6unrollIZN2CK5armcl25copy_raw_data_from_tensorIfEEvPNS_8CLTensorEPT_RKNS3_5ShapeEEUlRKNS_11CoordinatesEE_JRNS_8IteratorEEEEvRKNS_6WindowERSD_OS8_DpOT0_+0x9b>
  40ad61:	48 8b 45 e0          	mov    -0x20(%rbp),%rax
  40ad65:	8b 55 f4             	mov    -0xc(%rbp),%edx
  40ad68:	be 05 00 00 00       	mov    $0x5,%esi
  40ad6d:	48 89 c7             	mov    %rax,%rdi
  40ad70:	e8 19 dc ff ff       	callq  40898e <_ZN11arm_compute10DimensionsIiE3setEmi>
  40ad75:	48 8b 4d d0          	mov    -0x30(%rbp),%rcx
  40ad79:	48 8b 55 d8          	mov    -0x28(%rbp),%rdx
  40ad7d:	48 8b 75 e0          	mov    -0x20(%rbp),%rsi
  40ad81:	48 8b 45 e8          	mov    -0x18(%rbp),%rax
  40ad85:	48 89 c7             	mov    %rax,%rdi
  40ad88:	e8 24 06 00 00       	callq  40b3b1 <_ZN11arm_compute16ForEachDimensionILm5EE6unrollIRZN2CK5armcl25copy_raw_data_from_tensorIfEEvPNS_8CLTensorEPT_RKNS3_5ShapeEEUlRKNS_11CoordinatesEE_JRNS_8IteratorEEEEvRKNS_6WindowERSD_OS8_DpOT0_>
  40ad8d:	48 8b 45 f8          	mov    -0x8(%rbp),%rax
  40ad91:	48 89 c7             	mov    %rax,%rdi
  40ad94:	e8 a1 bc ff ff       	callq  406a3a <_ZNK11arm_compute6Window9Dimension4stepEv>
  40ad99:	01 45 f4             	add    %eax,-0xc(%rbp)
  40ad9c:	48 8b 45 d0          	mov    -0x30(%rbp),%rax
  40ada0:	48 89 c7             	mov    %rax,%rdi
  40ada3:	e8 1b 05 00 00       	callq  40b2c3 <_ZN11arm_compute18IncrementIteratorsILm5EE6unrollIRNS_8IteratorEJEEEvOT_DpOT0_>
  40ada8:	eb a1                	jmp    40ad4b <_ZN11arm_compute16ForEachDimensionILm6EE6unrollIZN2CK5armcl25copy_raw_data_from_tensorIfEEvPNS_8CLTensorEPT_RKNS3_5ShapeEEUlRKNS_11CoordinatesEE_JRNS_8IteratorEEEEvRKNS_6WindowERSD_OS8_DpOT0_+0x3c>
  40adaa:	90                   	nop
  40adab:	c9                   	leaveq 
  40adac:	c3                   	retq   
  40adad:	90                   	nop

000000000040adae <_ZNSaIP15_cl_platform_idEC1ERKS1_>:
  40adae:	55                   	push   %rbp
  40adaf:	48 89 e5             	mov    %rsp,%rbp
  40adb2:	48 83 ec 10          	sub    $0x10,%rsp
  40adb6:	48 89 7d f8          	mov    %rdi,-0x8(%rbp)
  40adba:	48 89 75 f0          	mov    %rsi,-0x10(%rbp)
  40adbe:	48 8b 55 f0          	mov    -0x10(%rbp),%rdx
  40adc2:	48 8b 45 f8          	mov    -0x8(%rbp),%rax
  40adc6:	48 89 d6             	mov    %rdx,%rsi
  40adc9:	48 89 c7             	mov    %rax,%rdi
  40adcc:	e8 7f 06 00 00       	callq  40b450 <_ZN9__gnu_cxx13new_allocatorIP15_cl_platform_idEC1ERKS3_>
  40add1:	90                   	nop
  40add2:	c9                   	leaveq 
  40add3:	c3                   	retq   

000000000040add4 <_ZNSt12_Vector_baseIP15_cl_platform_idSaIS1_EE11_M_allocateEm>:
  40add4:	55                   	push   %rbp
  40add5:	48 89 e5             	mov    %rsp,%rbp
  40add8:	48 83 ec 10          	sub    $0x10,%rsp
  40addc:	48 89 7d f8          	mov    %rdi,-0x8(%rbp)
  40ade0:	48 89 75 f0          	mov    %rsi,-0x10(%rbp)
  40ade4:	48 83 7d f0 00       	cmpq   $0x0,-0x10(%rbp)
  40ade9:	74 15                	je     40ae00 <_ZNSt12_Vector_baseIP15_cl_platform_idSaIS1_EE11_M_allocateEm+0x2c>
  40adeb:	48 8b 45 f8          	mov    -0x8(%rbp),%rax
  40adef:	48 8b 55 f0          	mov    -0x10(%rbp),%rdx
  40adf3:	48 89 d6             	mov    %rdx,%rsi
  40adf6:	48 89 c7             	mov    %rax,%rdi
  40adf9:	e8 61 06 00 00       	callq  40b45f <_ZNSt16allocator_traitsISaIP15_cl_platform_idEE8allocateERS2_m>
  40adfe:	eb 05                	jmp    40ae05 <_ZNSt12_Vector_baseIP15_cl_platform_idSaIS1_EE11_M_allocateEm+0x31>
  40ae00:	b8 00 00 00 00       	mov    $0x0,%eax
  40ae05:	c9                   	leaveq 
  40ae06:	c3                   	retq   

000000000040ae07 <_ZNSt16allocator_traitsISaIP15_cl_platform_idEE10deallocateERS2_PS1_m>:
  40ae07:	55                   	push   %rbp
  40ae08:	48 89 e5             	mov    %rsp,%rbp
  40ae0b:	48 83 ec 20          	sub    $0x20,%rsp
  40ae0f:	48 89 7d f8          	mov    %rdi,-0x8(%rbp)
  40ae13:	48 89 75 f0          	mov    %rsi,-0x10(%rbp)
  40ae17:	48 89 55 e8          	mov    %rdx,-0x18(%rbp)
  40ae1b:	48 8b 55 e8          	mov    -0x18(%rbp),%rdx
  40ae1f:	48 8b 4d f0          	mov    -0x10(%rbp),%rcx
  40ae23:	48 8b 45 f8          	mov    -0x8(%rbp),%rax
  40ae27:	48 89 ce             	mov    %rcx,%rsi
  40ae2a:	48 89 c7             	mov    %rax,%rdi
  40ae2d:	e8 58 06 00 00       	callq  40b48a <_ZN9__gnu_cxx13new_allocatorIP15_cl_platform_idE10deallocateEPS2_m>
  40ae32:	90                   	nop
  40ae33:	c9                   	leaveq 
  40ae34:	c3                   	retq   

000000000040ae35 <_ZSt25__uninitialized_default_nIPP15_cl_platform_idmET_S3_T0_>:
  40ae35:	55                   	push   %rbp
  40ae36:	48 89 e5             	mov    %rsp,%rbp
  40ae39:	48 83 ec 20          	sub    $0x20,%rsp
  40ae3d:	48 89 7d e8          	mov    %rdi,-0x18(%rbp)
  40ae41:	48 89 75 e0          	mov    %rsi,-0x20(%rbp)
  40ae45:	c6 45 ff 01          	movb   $0x1,-0x1(%rbp)
  40ae49:	48 8b 55 e0          	mov    -0x20(%rbp),%rdx
  40ae4d:	48 8b 45 e8          	mov    -0x18(%rbp),%rax
  40ae51:	48 89 d6             	mov    %rdx,%rsi
  40ae54:	48 89 c7             	mov    %rax,%rdi
  40ae57:	e8 51 06 00 00       	callq  40b4ad <_ZNSt27__uninitialized_default_n_1ILb1EE18__uninit_default_nIPP15_cl_platform_idmEET_S5_T0_>
  40ae5c:	c9                   	leaveq 
  40ae5d:	c3                   	retq   

000000000040ae5e <_ZNSt12_Destroy_auxILb1EE9__destroyIPP15_cl_platform_idEEvT_S5_>:
  40ae5e:	55                   	push   %rbp
  40ae5f:	48 89 e5             	mov    %rsp,%rbp
  40ae62:	48 89 7d f8          	mov    %rdi,-0x8(%rbp)
  40ae66:	48 89 75 f0          	mov    %rsi,-0x10(%rbp)
  40ae6a:	90                   	nop
  40ae6b:	5d                   	pop    %rbp
  40ae6c:	c3                   	retq   
  40ae6d:	90                   	nop

000000000040ae6e <_ZNSaIP13_cl_device_idEC1ERKS1_>:
  40ae6e:	55                   	push   %rbp
  40ae6f:	48 89 e5             	mov    %rsp,%rbp
  40ae72:	48 83 ec 10          	sub    $0x10,%rsp
  40ae76:	48 89 7d f8          	mov    %rdi,-0x8(%rbp)
  40ae7a:	48 89 75 f0          	mov    %rsi,-0x10(%rbp)
  40ae7e:	48 8b 55 f0          	mov    -0x10(%rbp),%rdx
  40ae82:	48 8b 45 f8          	mov    -0x8(%rbp),%rax
  40ae86:	48 89 d6             	mov    %rdx,%rsi
  40ae89:	48 89 c7             	mov    %rax,%rdi
  40ae8c:	e8 71 06 00 00       	callq  40b502 <_ZN9__gnu_cxx13new_allocatorIP13_cl_device_idEC1ERKS3_>
  40ae91:	90                   	nop
  40ae92:	c9                   	leaveq 
  40ae93:	c3                   	retq   

000000000040ae94 <_ZNSt12_Vector_baseIP13_cl_device_idSaIS1_EE11_M_allocateEm>:
  40ae94:	55                   	push   %rbp
  40ae95:	48 89 e5             	mov    %rsp,%rbp
  40ae98:	48 83 ec 10          	sub    $0x10,%rsp
  40ae9c:	48 89 7d f8          	mov    %rdi,-0x8(%rbp)
  40aea0:	48 89 75 f0          	mov    %rsi,-0x10(%rbp)
  40aea4:	48 83 7d f0 00       	cmpq   $0x0,-0x10(%rbp)
  40aea9:	74 15                	je     40aec0 <_ZNSt12_Vector_baseIP13_cl_device_idSaIS1_EE11_M_allocateEm+0x2c>
  40aeab:	48 8b 45 f8          	mov    -0x8(%rbp),%rax
  40aeaf:	48 8b 55 f0          	mov    -0x10(%rbp),%rdx
  40aeb3:	48 89 d6             	mov    %rdx,%rsi
  40aeb6:	48 89 c7             	mov    %rax,%rdi
  40aeb9:	e8 53 06 00 00       	callq  40b511 <_ZNSt16allocator_traitsISaIP13_cl_device_idEE8allocateERS2_m>
  40aebe:	eb 05                	jmp    40aec5 <_ZNSt12_Vector_baseIP13_cl_device_idSaIS1_EE11_M_allocateEm+0x31>
  40aec0:	b8 00 00 00 00       	mov    $0x0,%eax
  40aec5:	c9                   	leaveq 
  40aec6:	c3                   	retq   

000000000040aec7 <_ZNSt16allocator_traitsISaIP13_cl_device_idEE10deallocateERS2_PS1_m>:
  40aec7:	55                   	push   %rbp
  40aec8:	48 89 e5             	mov    %rsp,%rbp
  40aecb:	48 83 ec 20          	sub    $0x20,%rsp
  40aecf:	48 89 7d f8          	mov    %rdi,-0x8(%rbp)
  40aed3:	48 89 75 f0          	mov    %rsi,-0x10(%rbp)
  40aed7:	48 89 55 e8          	mov    %rdx,-0x18(%rbp)
  40aedb:	48 8b 55 e8          	mov    -0x18(%rbp),%rdx
  40aedf:	48 8b 4d f0          	mov    -0x10(%rbp),%rcx
  40aee3:	48 8b 45 f8          	mov    -0x8(%rbp),%rax
  40aee7:	48 89 ce             	mov    %rcx,%rsi
  40aeea:	48 89 c7             	mov    %rax,%rdi
  40aeed:	e8 4a 06 00 00       	callq  40b53c <_ZN9__gnu_cxx13new_allocatorIP13_cl_device_idE10deallocateEPS2_m>
  40aef2:	90                   	nop
  40aef3:	c9                   	leaveq 
  40aef4:	c3                   	retq   

000000000040aef5 <_ZSt25__uninitialized_default_nIPP13_cl_device_idmET_S3_T0_>:
  40aef5:	55                   	push   %rbp
  40aef6:	48 89 e5             	mov    %rsp,%rbp
  40aef9:	48 83 ec 20          	sub    $0x20,%rsp
  40aefd:	48 89 7d e8          	mov    %rdi,-0x18(%rbp)
  40af01:	48 89 75 e0          	mov    %rsi,-0x20(%rbp)
  40af05:	c6 45 ff 01          	movb   $0x1,-0x1(%rbp)
  40af09:	48 8b 55 e0          	mov    -0x20(%rbp),%rdx
  40af0d:	48 8b 45 e8          	mov    -0x18(%rbp),%rax
  40af11:	48 89 d6             	mov    %rdx,%rsi
  40af14:	48 89 c7             	mov    %rax,%rdi
  40af17:	e8 43 06 00 00       	callq  40b55f <_ZNSt27__uninitialized_default_n_1ILb1EE18__uninit_default_nIPP13_cl_device_idmEET_S5_T0_>
  40af1c:	c9                   	leaveq 
  40af1d:	c3                   	retq   

000000000040af1e <_ZNSt12_Destroy_auxILb1EE9__destroyIPP13_cl_device_idEEvT_S5_>:
  40af1e:	55                   	push   %rbp
  40af1f:	48 89 e5             	mov    %rsp,%rbp
  40af22:	48 89 7d f8          	mov    %rdi,-0x8(%rbp)
  40af26:	48 89 75 f0          	mov    %rsi,-0x10(%rbp)
  40af2a:	90                   	nop
  40af2b:	5d                   	pop    %rbp
  40af2c:	c3                   	retq   

000000000040af2d <_ZSt25__uninitialized_default_nIPN2cl6DeviceEmET_S3_T0_>:
  40af2d:	55                   	push   %rbp
  40af2e:	48 89 e5             	mov    %rsp,%rbp
  40af31:	48 83 ec 20          	sub    $0x20,%rsp
  40af35:	48 89 7d e8          	mov    %rdi,-0x18(%rbp)
  40af39:	48 89 75 e0          	mov    %rsi,-0x20(%rbp)
  40af3d:	c6 45 ff 01          	movb   $0x1,-0x1(%rbp)
  40af41:	48 8b 55 e0          	mov    -0x20(%rbp),%rdx
  40af45:	48 8b 45 e8          	mov    -0x18(%rbp),%rax
  40af49:	48 89 d6             	mov    %rdx,%rsi
  40af4c:	48 89 c7             	mov    %rax,%rdi
  40af4f:	e8 5f 06 00 00       	callq  40b5b3 <_ZNSt27__uninitialized_default_n_1ILb0EE18__uninit_default_nIPN2cl6DeviceEmEET_S5_T0_>
  40af54:	c9                   	leaveq 
  40af55:	c3                   	retq   

000000000040af56 <_ZNKSt6vectorIN2cl6DeviceESaIS1_EE8max_sizeEv>:
  40af56:	55                   	push   %rbp
  40af57:	48 89 e5             	mov    %rsp,%rbp
  40af5a:	48 83 ec 10          	sub    $0x10,%rsp
  40af5e:	48 89 7d f8          	mov    %rdi,-0x8(%rbp)
  40af62:	48 8b 45 f8          	mov    -0x8(%rbp),%rax
  40af66:	48 89 c7             	mov    %rax,%rdi
  40af69:	e8 a4 06 00 00       	callq  40b612 <_ZNKSt12_Vector_baseIN2cl6DeviceESaIS1_EE19_M_get_Tp_allocatorEv>
  40af6e:	48 89 c7             	mov    %rax,%rdi
  40af71:	e8 82 06 00 00       	callq  40b5f8 <_ZNSt16allocator_traitsISaIN2cl6DeviceEEE8max_sizeERKS2_>
  40af76:	c9                   	leaveq 
  40af77:	c3                   	retq   

000000000040af78 <_ZNSt16allocator_traitsISaIN2cl6DeviceEEE8allocateERS2_m>:
  40af78:	55                   	push   %rbp
  40af79:	48 89 e5             	mov    %rsp,%rbp
  40af7c:	48 83 ec 10          	sub    $0x10,%rsp
  40af80:	48 89 7d f8          	mov    %rdi,-0x8(%rbp)
  40af84:	48 89 75 f0          	mov    %rsi,-0x10(%rbp)
  40af88:	48 8b 4d f0          	mov    -0x10(%rbp),%rcx
  40af8c:	48 8b 45 f8          	mov    -0x8(%rbp),%rax
  40af90:	ba 00 00 00 00       	mov    $0x0,%edx
  40af95:	48 89 ce             	mov    %rcx,%rsi
  40af98:	48 89 c7             	mov    %rax,%rdi
  40af9b:	e8 80 06 00 00       	callq  40b620 <_ZN9__gnu_cxx13new_allocatorIN2cl6DeviceEE8allocateEmPKv>
  40afa0:	c9                   	leaveq 
  40afa1:	c3                   	retq   

000000000040afa2 <_ZSt32__make_move_if_noexcept_iteratorIN2cl6DeviceESt13move_iteratorIPS1_EET0_PT_>:
  40afa2:	55                   	push   %rbp
  40afa3:	48 89 e5             	mov    %rsp,%rbp
  40afa6:	48 83 ec 20          	sub    $0x20,%rsp
  40afaa:	48 89 7d e8          	mov    %rdi,-0x18(%rbp)
  40afae:	64 48 8b 04 25 28 00 	mov    %fs:0x28,%rax
  40afb5:	00 00 
  40afb7:	48 89 45 f8          	mov    %rax,-0x8(%rbp)
  40afbb:	31 c0                	xor    %eax,%eax
  40afbd:	48 8b 55 e8          	mov    -0x18(%rbp),%rdx
  40afc1:	48 8d 45 f0          	lea    -0x10(%rbp),%rax
  40afc5:	48 89 d6             	mov    %rdx,%rsi
  40afc8:	48 89 c7             	mov    %rax,%rdi
  40afcb:	e8 92 06 00 00       	callq  40b662 <_ZNSt13move_iteratorIPN2cl6DeviceEEC1ES2_>
  40afd0:	48 8b 45 f0          	mov    -0x10(%rbp),%rax
  40afd4:	48 8b 4d f8          	mov    -0x8(%rbp),%rcx
  40afd8:	64 48 33 0c 25 28 00 	xor    %fs:0x28,%rcx
  40afdf:	00 00 
  40afe1:	74 05                	je     40afe8 <_ZSt32__make_move_if_noexcept_iteratorIN2cl6DeviceESt13move_iteratorIPS1_EET0_PT_+0x46>
  40afe3:	e8 48 8f ff ff       	callq  403f30 <__stack_chk_fail@plt>
  40afe8:	c9                   	leaveq 
  40afe9:	c3                   	retq   

000000000040afea <_ZSt22__uninitialized_copy_aISt13move_iteratorIPN2cl6DeviceEES3_S2_ET0_T_S6_S5_RSaIT1_E>:
  40afea:	55                   	push   %rbp
  40afeb:	48 89 e5             	mov    %rsp,%rbp
  40afee:	48 83 ec 20          	sub    $0x20,%rsp
  40aff2:	48 89 7d f8          	mov    %rdi,-0x8(%rbp)
  40aff6:	48 89 75 f0          	mov    %rsi,-0x10(%rbp)
  40affa:	48 89 55 e8          	mov    %rdx,-0x18(%rbp)
  40affe:	48 89 4d e0          	mov    %rcx,-0x20(%rbp)
  40b002:	48 8b 55 e8          	mov    -0x18(%rbp),%rdx
  40b006:	48 8b 4d f0          	mov    -0x10(%rbp),%rcx
  40b00a:	48 8b 45 f8          	mov    -0x8(%rbp),%rax
  40b00e:	48 89 ce             	mov    %rcx,%rsi
  40b011:	48 89 c7             	mov    %rax,%rdi
  40b014:	e8 63 06 00 00       	callq  40b67c <_ZSt18uninitialized_copyISt13move_iteratorIPN2cl6DeviceEES3_ET0_T_S6_S5_>
  40b019:	c9                   	leaveq 
  40b01a:	c3                   	retq   

000000000040b01b <_ZNSt16allocator_traitsISaIN2cl6DeviceEEE10deallocateERS2_PS1_m>:
  40b01b:	55                   	push   %rbp
  40b01c:	48 89 e5             	mov    %rsp,%rbp
  40b01f:	48 83 ec 20          	sub    $0x20,%rsp
  40b023:	48 89 7d f8          	mov    %rdi,-0x8(%rbp)
  40b027:	48 89 75 f0          	mov    %rsi,-0x10(%rbp)
  40b02b:	48 89 55 e8          	mov    %rdx,-0x18(%rbp)
  40b02f:	48 8b 55 e8          	mov    -0x18(%rbp),%rdx
  40b033:	48 8b 4d f0          	mov    -0x10(%rbp),%rcx
  40b037:	48 8b 45 f8          	mov    -0x8(%rbp),%rax
  40b03b:	48 89 ce             	mov    %rcx,%rsi
  40b03e:	48 89 c7             	mov    %rax,%rdi
  40b041:	e8 68 06 00 00       	callq  40b6ae <_ZN9__gnu_cxx13new_allocatorIN2cl6DeviceEE10deallocateEPS2_m>
  40b046:	90                   	nop
  40b047:	c9                   	leaveq 
  40b048:	c3                   	retq   

000000000040b049 <_ZSt25__uninitialized_default_nIPN2cl8PlatformEmET_S3_T0_>:
  40b049:	55                   	push   %rbp
  40b04a:	48 89 e5             	mov    %rsp,%rbp
  40b04d:	48 83 ec 20          	sub    $0x20,%rsp
  40b051:	48 89 7d e8          	mov    %rdi,-0x18(%rbp)
  40b055:	48 89 75 e0          	mov    %rsi,-0x20(%rbp)
  40b059:	c6 45 ff 01          	movb   $0x1,-0x1(%rbp)
  40b05d:	48 8b 55 e0          	mov    -0x20(%rbp),%rdx
  40b061:	48 8b 45 e8          	mov    -0x18(%rbp),%rax
  40b065:	48 89 d6             	mov    %rdx,%rsi
  40b068:	48 89 c7             	mov    %rax,%rdi
  40b06b:	e8 61 06 00 00       	callq  40b6d1 <_ZNSt27__uninitialized_default_n_1ILb0EE18__uninit_default_nIPN2cl8PlatformEmEET_S5_T0_>
  40b070:	c9                   	leaveq 
  40b071:	c3                   	retq   

000000000040b072 <_ZNKSt6vectorIN2cl8PlatformESaIS1_EE8max_sizeEv>:
  40b072:	55                   	push   %rbp
  40b073:	48 89 e5             	mov    %rsp,%rbp
  40b076:	48 83 ec 10          	sub    $0x10,%rsp
  40b07a:	48 89 7d f8          	mov    %rdi,-0x8(%rbp)
  40b07e:	48 8b 45 f8          	mov    -0x8(%rbp),%rax
  40b082:	48 89 c7             	mov    %rax,%rdi
  40b085:	e8 e2 06 00 00       	callq  40b76c <_ZNKSt12_Vector_baseIN2cl8PlatformESaIS1_EE19_M_get_Tp_allocatorEv>
  40b08a:	48 89 c7             	mov    %rax,%rdi
  40b08d:	e8 bf 06 00 00       	callq  40b751 <_ZNSt16allocator_traitsISaIN2cl8PlatformEEE8max_sizeERKS2_>
  40b092:	c9                   	leaveq 
  40b093:	c3                   	retq   

000000000040b094 <_ZNSt16allocator_traitsISaIN2cl8PlatformEEE8allocateERS2_m>:
  40b094:	55                   	push   %rbp
  40b095:	48 89 e5             	mov    %rsp,%rbp
  40b098:	48 83 ec 10          	sub    $0x10,%rsp
  40b09c:	48 89 7d f8          	mov    %rdi,-0x8(%rbp)
  40b0a0:	48 89 75 f0          	mov    %rsi,-0x10(%rbp)
  40b0a4:	48 8b 4d f0          	mov    -0x10(%rbp),%rcx
  40b0a8:	48 8b 45 f8          	mov    -0x8(%rbp),%rax
  40b0ac:	ba 00 00 00 00       	mov    $0x0,%edx
  40b0b1:	48 89 ce             	mov    %rcx,%rsi
  40b0b4:	48 89 c7             	mov    %rax,%rdi
  40b0b7:	e8 be 06 00 00       	callq  40b77a <_ZN9__gnu_cxx13new_allocatorIN2cl8PlatformEE8allocateEmPKv>
  40b0bc:	c9                   	leaveq 
  40b0bd:	c3                   	retq   

000000000040b0be <_ZSt32__make_move_if_noexcept_iteratorIN2cl8PlatformESt13move_iteratorIPS1_EET0_PT_>:
  40b0be:	55                   	push   %rbp
  40b0bf:	48 89 e5             	mov    %rsp,%rbp
  40b0c2:	48 83 ec 20          	sub    $0x20,%rsp
  40b0c6:	48 89 7d e8          	mov    %rdi,-0x18(%rbp)
  40b0ca:	64 48 8b 04 25 28 00 	mov    %fs:0x28,%rax
  40b0d1:	00 00 
  40b0d3:	48 89 45 f8          	mov    %rax,-0x8(%rbp)
  40b0d7:	31 c0                	xor    %eax,%eax
  40b0d9:	48 8b 55 e8          	mov    -0x18(%rbp),%rdx
  40b0dd:	48 8d 45 f0          	lea    -0x10(%rbp),%rax
  40b0e1:	48 89 d6             	mov    %rdx,%rsi
  40b0e4:	48 89 c7             	mov    %rax,%rdi
  40b0e7:	e8 d0 06 00 00       	callq  40b7bc <_ZNSt13move_iteratorIPN2cl8PlatformEEC1ES2_>
  40b0ec:	48 8b 45 f0          	mov    -0x10(%rbp),%rax
  40b0f0:	48 8b 4d f8          	mov    -0x8(%rbp),%rcx
  40b0f4:	64 48 33 0c 25 28 00 	xor    %fs:0x28,%rcx
  40b0fb:	00 00 
  40b0fd:	74 05                	je     40b104 <_ZSt32__make_move_if_noexcept_iteratorIN2cl8PlatformESt13move_iteratorIPS1_EET0_PT_+0x46>
  40b0ff:	e8 2c 8e ff ff       	callq  403f30 <__stack_chk_fail@plt>
  40b104:	c9                   	leaveq 
  40b105:	c3                   	retq   

000000000040b106 <_ZSt22__uninitialized_copy_aISt13move_iteratorIPN2cl8PlatformEES3_S2_ET0_T_S6_S5_RSaIT1_E>:
  40b106:	55                   	push   %rbp
  40b107:	48 89 e5             	mov    %rsp,%rbp
  40b10a:	48 83 ec 20          	sub    $0x20,%rsp
  40b10e:	48 89 7d f8          	mov    %rdi,-0x8(%rbp)
  40b112:	48 89 75 f0          	mov    %rsi,-0x10(%rbp)
  40b116:	48 89 55 e8          	mov    %rdx,-0x18(%rbp)
  40b11a:	48 89 4d e0          	mov    %rcx,-0x20(%rbp)
  40b11e:	48 8b 55 e8          	mov    -0x18(%rbp),%rdx
  40b122:	48 8b 4d f0          	mov    -0x10(%rbp),%rcx
  40b126:	48 8b 45 f8          	mov    -0x8(%rbp),%rax
  40b12a:	48 89 ce             	mov    %rcx,%rsi
  40b12d:	48 89 c7             	mov    %rax,%rdi
  40b130:	e8 a1 06 00 00       	callq  40b7d6 <_ZSt18uninitialized_copyISt13move_iteratorIPN2cl8PlatformEES3_ET0_T_S6_S5_>
  40b135:	c9                   	leaveq 
  40b136:	c3                   	retq   

000000000040b137 <_ZNSt16allocator_traitsISaIN2cl8PlatformEEE10deallocateERS2_PS1_m>:
  40b137:	55                   	push   %rbp
  40b138:	48 89 e5             	mov    %rsp,%rbp
  40b13b:	48 83 ec 20          	sub    $0x20,%rsp
  40b13f:	48 89 7d f8          	mov    %rdi,-0x8(%rbp)
  40b143:	48 89 75 f0          	mov    %rsi,-0x10(%rbp)
  40b147:	48 89 55 e8          	mov    %rdx,-0x18(%rbp)
  40b14b:	48 8b 55 e8          	mov    -0x18(%rbp),%rdx
  40b14f:	48 8b 4d f0          	mov    -0x10(%rbp),%rcx
  40b153:	48 8b 45 f8          	mov    -0x8(%rbp),%rax
  40b157:	48 89 ce             	mov    %rcx,%rsi
  40b15a:	48 89 c7             	mov    %rax,%rdi
  40b15d:	e8 a6 06 00 00       	callq  40b808 <_ZN9__gnu_cxx13new_allocatorIN2cl8PlatformEE10deallocateEPS2_m>
  40b162:	90                   	nop
  40b163:	c9                   	leaveq 
  40b164:	c3                   	retq   
  40b165:	90                   	nop

000000000040b166 <_ZNSaIN2cl8PlatformEEC1Ev>:
  40b166:	55                   	push   %rbp
  40b167:	48 89 e5             	mov    %rsp,%rbp
  40b16a:	48 83 ec 10          	sub    $0x10,%rsp
  40b16e:	48 89 7d f8          	mov    %rdi,-0x8(%rbp)
  40b172:	48 8b 45 f8          	mov    -0x8(%rbp),%rax
  40b176:	48 89 c7             	mov    %rax,%rdi
  40b179:	e8 ae 06 00 00       	callq  40b82c <_ZN9__gnu_cxx13new_allocatorIN2cl8PlatformEEC1Ev>
  40b17e:	90                   	nop
  40b17f:	c9                   	leaveq 
  40b180:	c3                   	retq   
  40b181:	90                   	nop

000000000040b182 <_ZN9__gnu_cxx13new_allocatorIN2cl8PlatformEED1Ev>:
  40b182:	55                   	push   %rbp
  40b183:	48 89 e5             	mov    %rsp,%rbp
  40b186:	48 89 7d f8          	mov    %rdi,-0x8(%rbp)
  40b18a:	90                   	nop
  40b18b:	5d                   	pop    %rbp
  40b18c:	c3                   	retq   

000000000040b18d <_ZNSt12_Destroy_auxILb0EE9__destroyIPN2cl8PlatformEEEvT_S5_>:
  40b18d:	55                   	push   %rbp
  40b18e:	48 89 e5             	mov    %rsp,%rbp
  40b191:	48 83 ec 10          	sub    $0x10,%rsp
  40b195:	48 89 7d f8          	mov    %rdi,-0x8(%rbp)
  40b199:	48 89 75 f0          	mov    %rsi,-0x10(%rbp)
  40b19d:	48 8b 45 f8          	mov    -0x8(%rbp),%rax
  40b1a1:	48 3b 45 f0          	cmp    -0x10(%rbp),%rax
  40b1a5:	74 1b                	je     40b1c2 <_ZNSt12_Destroy_auxILb0EE9__destroyIPN2cl8PlatformEEEvT_S5_+0x35>
  40b1a7:	48 8b 45 f8          	mov    -0x8(%rbp),%rax
  40b1ab:	48 89 c7             	mov    %rax,%rdi
  40b1ae:	e8 84 06 00 00       	callq  40b837 <_ZSt11__addressofIN2cl8PlatformEEPT_RS2_>
  40b1b3:	48 89 c7             	mov    %rax,%rdi
  40b1b6:	e8 8a 06 00 00       	callq  40b845 <_ZSt8_DestroyIN2cl8PlatformEEvPT_>
  40b1bb:	48 83 45 f8 08       	addq   $0x8,-0x8(%rbp)
  40b1c0:	eb db                	jmp    40b19d <_ZNSt12_Destroy_auxILb0EE9__destroyIPN2cl8PlatformEEEvT_S5_+0x10>
  40b1c2:	90                   	nop
  40b1c3:	c9                   	leaveq 
  40b1c4:	c3                   	retq   
  40b1c5:	90                   	nop

000000000040b1c6 <_ZNSaIN2cl6DeviceEEC1Ev>:
  40b1c6:	55                   	push   %rbp
  40b1c7:	48 89 e5             	mov    %rsp,%rbp
  40b1ca:	48 83 ec 10          	sub    $0x10,%rsp
  40b1ce:	48 89 7d f8          	mov    %rdi,-0x8(%rbp)
  40b1d2:	48 8b 45 f8          	mov    -0x8(%rbp),%rax
  40b1d6:	48 89 c7             	mov    %rax,%rdi
  40b1d9:	e8 82 06 00 00       	callq  40b860 <_ZN9__gnu_cxx13new_allocatorIN2cl6DeviceEEC1Ev>
  40b1de:	90                   	nop
  40b1df:	c9                   	leaveq 
  40b1e0:	c3                   	retq   
  40b1e1:	90                   	nop

000000000040b1e2 <_ZN9__gnu_cxx13new_allocatorIN2cl6DeviceEED1Ev>:
  40b1e2:	55                   	push   %rbp
  40b1e3:	48 89 e5             	mov    %rsp,%rbp
  40b1e6:	48 89 7d f8          	mov    %rdi,-0x8(%rbp)
  40b1ea:	90                   	nop
  40b1eb:	5d                   	pop    %rbp
  40b1ec:	c3                   	retq   

000000000040b1ed <_ZNSt12_Destroy_auxILb0EE9__destroyIPN2cl6DeviceEEEvT_S5_>:
  40b1ed:	55                   	push   %rbp
  40b1ee:	48 89 e5             	mov    %rsp,%rbp
  40b1f1:	48 83 ec 10          	sub    $0x10,%rsp
  40b1f5:	48 89 7d f8          	mov    %rdi,-0x8(%rbp)
  40b1f9:	48 89 75 f0          	mov    %rsi,-0x10(%rbp)
  40b1fd:	48 8b 45 f8          	mov    -0x8(%rbp),%rax
  40b201:	48 3b 45 f0          	cmp    -0x10(%rbp),%rax
  40b205:	74 1b                	je     40b222 <_ZNSt12_Destroy_auxILb0EE9__destroyIPN2cl6DeviceEEEvT_S5_+0x35>
  40b207:	48 8b 45 f8          	mov    -0x8(%rbp),%rax
  40b20b:	48 89 c7             	mov    %rax,%rdi
  40b20e:	e8 58 06 00 00       	callq  40b86b <_ZSt11__addressofIN2cl6DeviceEEPT_RS2_>
  40b213:	48 89 c7             	mov    %rax,%rdi
  40b216:	e8 5e 06 00 00       	callq  40b879 <_ZSt8_DestroyIN2cl6DeviceEEvPT_>
  40b21b:	48 83 45 f8 10       	addq   $0x10,-0x8(%rbp)
  40b220:	eb db                	jmp    40b1fd <_ZNSt12_Destroy_auxILb0EE9__destroyIPN2cl6DeviceEEEvT_S5_+0x10>
  40b222:	90                   	nop
  40b223:	c9                   	leaveq 
  40b224:	c3                   	retq   
  40b225:	90                   	nop

000000000040b226 <_ZNKSt17reference_wrapperIKN2cl7ContextEEcvRS2_Ev>:
  40b226:	55                   	push   %rbp
  40b227:	48 89 e5             	mov    %rsp,%rbp
  40b22a:	48 83 ec 10          	sub    $0x10,%rsp
  40b22e:	48 89 7d f8          	mov    %rdi,-0x8(%rbp)
  40b232:	48 8b 45 f8          	mov    -0x8(%rbp),%rax
  40b236:	48 89 c7             	mov    %rax,%rdi
  40b239:	e8 56 06 00 00       	callq  40b894 <_ZNKSt17reference_wrapperIKN2cl7ContextEE3getEv>
  40b23e:	c9                   	leaveq 
  40b23f:	c3                   	retq   

000000000040b240 <_ZN2cl6detail15GetInfoFunctor0IPFiP11_cl_contextjmPvPmES3_EclEjmS4_S5_>:
  40b240:	55                   	push   %rbp
  40b241:	48 89 e5             	mov    %rsp,%rbp
  40b244:	48 83 ec 30          	sub    $0x30,%rsp
  40b248:	48 89 7d f8          	mov    %rdi,-0x8(%rbp)
  40b24c:	89 75 f4             	mov    %esi,-0xc(%rbp)
  40b24f:	48 89 55 e8          	mov    %rdx,-0x18(%rbp)
  40b253:	48 89 4d e0          	mov    %rcx,-0x20(%rbp)
  40b257:	4c 89 45 d8          	mov    %r8,-0x28(%rbp)
  40b25b:	48 8b 45 f8          	mov    -0x8(%rbp),%rax
  40b25f:	48 8b 00             	mov    (%rax),%rax
  40b262:	48 8b 55 f8          	mov    -0x8(%rbp),%rdx
  40b266:	48 8b 52 08          	mov    0x8(%rdx),%rdx
  40b26a:	48 8b 3a             	mov    (%rdx),%rdi
  40b26d:	4c 8b 45 d8          	mov    -0x28(%rbp),%r8
  40b271:	48 8b 4d e0          	mov    -0x20(%rbp),%rcx
  40b275:	48 8b 55 e8          	mov    -0x18(%rbp),%rdx
  40b279:	8b 75 f4             	mov    -0xc(%rbp),%esi
  40b27c:	ff d0                	callq  *%rax
  40b27e:	c9                   	leaveq 
  40b27f:	c3                   	retq   

000000000040b280 <_ZZN11arm_compute18IncrementIteratorsILm5EE6unrollIRNS_8IteratorEJEEEvOT_DpOT0_ENKUlS4_E_clES4_>:
  40b280:	55                   	push   %rbp
  40b281:	48 89 e5             	mov    %rsp,%rbp
  40b284:	48 83 ec 10          	sub    $0x10,%rsp
  40b288:	48 89 7d f8          	mov    %rdi,-0x8(%rbp)
  40b28c:	48 89 75 f0          	mov    %rsi,-0x10(%rbp)
  40b290:	48 8b 45 f0          	mov    -0x10(%rbp),%rax
  40b294:	be 05 00 00 00       	mov    $0x5,%esi
  40b299:	48 89 c7             	mov    %rax,%rdi
  40b29c:	e8 2b bc ff ff       	callq  406ecc <_ZN11arm_compute8Iterator9incrementEm>
  40b2a1:	90                   	nop
  40b2a2:	c9                   	leaveq 
  40b2a3:	c3                   	retq   

000000000040b2a4 <_ZZN11arm_compute18IncrementIteratorsILm5EE6unrollIRNS_8IteratorEJEEEvOT_DpOT0_ENUlS4_E_4_FUNES4_>:
  40b2a4:	55                   	push   %rbp
  40b2a5:	48 89 e5             	mov    %rsp,%rbp
  40b2a8:	48 83 ec 10          	sub    $0x10,%rsp
  40b2ac:	48 89 7d f8          	mov    %rdi,-0x8(%rbp)
  40b2b0:	48 8b 45 f8          	mov    -0x8(%rbp),%rax
  40b2b4:	48 89 c6             	mov    %rax,%rsi
  40b2b7:	bf 00 00 00 00       	mov    $0x0,%edi
  40b2bc:	e8 bf ff ff ff       	callq  40b280 <_ZZN11arm_compute18IncrementIteratorsILm5EE6unrollIRNS_8IteratorEJEEEvOT_DpOT0_ENKUlS4_E_clES4_>
  40b2c1:	c9                   	leaveq 
  40b2c2:	c3                   	retq   

000000000040b2c3 <_ZN11arm_compute18IncrementIteratorsILm5EE6unrollIRNS_8IteratorEJEEEvOT_DpOT0_>:
  40b2c3:	55                   	push   %rbp
  40b2c4:	48 89 e5             	mov    %rsp,%rbp
  40b2c7:	48 83 ec 20          	sub    $0x20,%rsp
  40b2cb:	48 89 7d e8          	mov    %rdi,-0x18(%rbp)
  40b2cf:	64 48 8b 04 25 28 00 	mov    %fs:0x28,%rax
  40b2d6:	00 00 
  40b2d8:	48 89 45 f8          	mov    %rax,-0x8(%rbp)
  40b2dc:	31 c0                	xor    %eax,%eax
  40b2de:	48 8b 45 e8          	mov    -0x18(%rbp),%rax
  40b2e2:	48 89 c7             	mov    %rax,%rdi
  40b2e5:	e8 d6 ed ff ff       	callq  40a0c0 <_ZSt7forwardIRN11arm_compute8IteratorEEOT_RNSt16remove_referenceIS3_E4typeE>
  40b2ea:	48 89 c2             	mov    %rax,%rdx
  40b2ed:	48 8d 45 f7          	lea    -0x9(%rbp),%rax
  40b2f1:	48 89 d6             	mov    %rdx,%rsi
  40b2f4:	48 89 c7             	mov    %rax,%rdi
  40b2f7:	e8 b7 05 00 00       	callq  40b8b3 <_ZN11arm_compute7utility8for_eachIRZNS_18IncrementIteratorsILm5EE6unrollIRNS_8IteratorEJEEEvOT_DpOT0_EUlS6_E_S6_JEEEvS8_OT0_DpOT1_>
  40b2fc:	90                   	nop
  40b2fd:	48 8b 45 f8          	mov    -0x8(%rbp),%rax
  40b301:	64 48 33 04 25 28 00 	xor    %fs:0x28,%rax
  40b308:	00 00 
  40b30a:	74 05                	je     40b311 <_ZN11arm_compute18IncrementIteratorsILm5EE6unrollIRNS_8IteratorEJEEEvOT_DpOT0_+0x4e>
  40b30c:	e8 1f 8c ff ff       	callq  403f30 <__stack_chk_fail@plt>
  40b311:	c9                   	leaveq 
  40b312:	c3                   	retq   

000000000040b313 <_ZN11arm_compute16ForEachDimensionILm5EE6unrollIRZN2CK5armcl23copy_raw_data_to_tensorIfEEvPNS_8CLTensorEPT_RKNS3_5ShapeEEUlRKNS_11CoordinatesEE_JRNS_8IteratorEEEEvRKNS_6WindowERSD_OS8_DpOT0_>:
  40b313:	55                   	push   %rbp
  40b314:	48 89 e5             	mov    %rsp,%rbp
  40b317:	48 83 ec 30          	sub    $0x30,%rsp
  40b31b:	48 89 7d e8          	mov    %rdi,-0x18(%rbp)
  40b31f:	48 89 75 e0          	mov    %rsi,-0x20(%rbp)
  40b323:	48 89 55 d8          	mov    %rdx,-0x28(%rbp)
  40b327:	48 89 4d d0          	mov    %rcx,-0x30(%rbp)
  40b32b:	48 8b 45 e8          	mov    -0x18(%rbp),%rax
  40b32f:	be 04 00 00 00       	mov    $0x4,%esi
  40b334:	48 89 c7             	mov    %rax,%rdi
  40b337:	e8 80 b7 ff ff       	callq  406abc <_ZNK11arm_compute6WindowixEm>
  40b33c:	48 89 45 f8          	mov    %rax,-0x8(%rbp)
  40b340:	48 8b 45 f8          	mov    -0x8(%rbp),%rax
  40b344:	48 89 c7             	mov    %rax,%rdi
  40b347:	e8 cc b6 ff ff       	callq  406a18 <_ZNK11arm_compute6Window9Dimension5startEv>
  40b34c:	89 45 f4             	mov    %eax,-0xc(%rbp)
  40b34f:	48 8b 45 f8          	mov    -0x8(%rbp),%rax
  40b353:	48 89 c7             	mov    %rax,%rdi
  40b356:	e8 cd b6 ff ff       	callq  406a28 <_ZNK11arm_compute6Window9Dimension3endEv>
  40b35b:	3b 45 f4             	cmp    -0xc(%rbp),%eax
  40b35e:	0f 9f c0             	setg   %al
  40b361:	84 c0                	test   %al,%al
  40b363:	74 49                	je     40b3ae <_ZN11arm_compute16ForEachDimensionILm5EE6unrollIRZN2CK5armcl23copy_raw_data_to_tensorIfEEvPNS_8CLTensorEPT_RKNS3_5ShapeEEUlRKNS_11CoordinatesEE_JRNS_8IteratorEEEEvRKNS_6WindowERSD_OS8_DpOT0_+0x9b>
  40b365:	48 8b 45 e0          	mov    -0x20(%rbp),%rax
  40b369:	8b 55 f4             	mov    -0xc(%rbp),%edx
  40b36c:	be 04 00 00 00       	mov    $0x4,%esi
  40b371:	48 89 c7             	mov    %rax,%rdi
  40b374:	e8 15 d6 ff ff       	callq  40898e <_ZN11arm_compute10DimensionsIiE3setEmi>
  40b379:	48 8b 4d d0          	mov    -0x30(%rbp),%rcx
  40b37d:	48 8b 55 d8          	mov    -0x28(%rbp),%rdx
  40b381:	48 8b 75 e0          	mov    -0x20(%rbp),%rsi
  40b385:	48 8b 45 e8          	mov    -0x18(%rbp),%rax
  40b389:	48 89 c7             	mov    %rax,%rdi
  40b38c:	e8 fa 05 00 00       	callq  40b98b <_ZN11arm_compute16ForEachDimensionILm4EE6unrollIRZN2CK5armcl23copy_raw_data_to_tensorIfEEvPNS_8CLTensorEPT_RKNS3_5ShapeEEUlRKNS_11CoordinatesEE_JRNS_8IteratorEEEEvRKNS_6WindowERSD_OS8_DpOT0_>
  40b391:	48 8b 45 f8          	mov    -0x8(%rbp),%rax
  40b395:	48 89 c7             	mov    %rax,%rdi
  40b398:	e8 9d b6 ff ff       	callq  406a3a <_ZNK11arm_compute6Window9Dimension4stepEv>
  40b39d:	01 45 f4             	add    %eax,-0xc(%rbp)
  40b3a0:	48 8b 45 d0          	mov    -0x30(%rbp),%rax
  40b3a4:	48 89 c7             	mov    %rax,%rdi
  40b3a7:	e8 8f 05 00 00       	callq  40b93b <_ZN11arm_compute18IncrementIteratorsILm4EE6unrollIRNS_8IteratorEJEEEvOT_DpOT0_>
  40b3ac:	eb a1                	jmp    40b34f <_ZN11arm_compute16ForEachDimensionILm5EE6unrollIRZN2CK5armcl23copy_raw_data_to_tensorIfEEvPNS_8CLTensorEPT_RKNS3_5ShapeEEUlRKNS_11CoordinatesEE_JRNS_8IteratorEEEEvRKNS_6WindowERSD_OS8_DpOT0_+0x3c>
  40b3ae:	90                   	nop
  40b3af:	c9                   	leaveq 
  40b3b0:	c3                   	retq   

000000000040b3b1 <_ZN11arm_compute16ForEachDimensionILm5EE6unrollIRZN2CK5armcl25copy_raw_data_from_tensorIfEEvPNS_8CLTensorEPT_RKNS3_5ShapeEEUlRKNS_11CoordinatesEE_JRNS_8IteratorEEEEvRKNS_6WindowERSD_OS8_DpOT0_>:
  40b3b1:	55                   	push   %rbp
  40b3b2:	48 89 e5             	mov    %rsp,%rbp
  40b3b5:	48 83 ec 30          	sub    $0x30,%rsp
  40b3b9:	48 89 7d e8          	mov    %rdi,-0x18(%rbp)
  40b3bd:	48 89 75 e0          	mov    %rsi,-0x20(%rbp)
  40b3c1:	48 89 55 d8          	mov    %rdx,-0x28(%rbp)
  40b3c5:	48 89 4d d0          	mov    %rcx,-0x30(%rbp)
  40b3c9:	48 8b 45 e8          	mov    -0x18(%rbp),%rax
  40b3cd:	be 04 00 00 00       	mov    $0x4,%esi
  40b3d2:	48 89 c7             	mov    %rax,%rdi
  40b3d5:	e8 e2 b6 ff ff       	callq  406abc <_ZNK11arm_compute6WindowixEm>
  40b3da:	48 89 45 f8          	mov    %rax,-0x8(%rbp)
  40b3de:	48 8b 45 f8          	mov    -0x8(%rbp),%rax
  40b3e2:	48 89 c7             	mov    %rax,%rdi
  40b3e5:	e8 2e b6 ff ff       	callq  406a18 <_ZNK11arm_compute6Window9Dimension5startEv>
  40b3ea:	89 45 f4             	mov    %eax,-0xc(%rbp)
  40b3ed:	48 8b 45 f8          	mov    -0x8(%rbp),%rax
  40b3f1:	48 89 c7             	mov    %rax,%rdi
  40b3f4:	e8 2f b6 ff ff       	callq  406a28 <_ZNK11arm_compute6Window9Dimension3endEv>
  40b3f9:	3b 45 f4             	cmp    -0xc(%rbp),%eax
  40b3fc:	0f 9f c0             	setg   %al
  40b3ff:	84 c0                	test   %al,%al
  40b401:	74 49                	je     40b44c <_ZN11arm_compute16ForEachDimensionILm5EE6unrollIRZN2CK5armcl25copy_raw_data_from_tensorIfEEvPNS_8CLTensorEPT_RKNS3_5ShapeEEUlRKNS_11CoordinatesEE_JRNS_8IteratorEEEEvRKNS_6WindowERSD_OS8_DpOT0_+0x9b>
  40b403:	48 8b 45 e0          	mov    -0x20(%rbp),%rax
  40b407:	8b 55 f4             	mov    -0xc(%rbp),%edx
  40b40a:	be 04 00 00 00       	mov    $0x4,%esi
  40b40f:	48 89 c7             	mov    %rax,%rdi
  40b412:	e8 77 d5 ff ff       	callq  40898e <_ZN11arm_compute10DimensionsIiE3setEmi>
  40b417:	48 8b 4d d0          	mov    -0x30(%rbp),%rcx
  40b41b:	48 8b 55 d8          	mov    -0x28(%rbp),%rdx
  40b41f:	48 8b 75 e0          	mov    -0x20(%rbp),%rsi
  40b423:	48 8b 45 e8          	mov    -0x18(%rbp),%rax
  40b427:	48 89 c7             	mov    %rax,%rdi
  40b42a:	e8 fa 05 00 00       	callq  40ba29 <_ZN11arm_compute16ForEachDimensionILm4EE6unrollIRZN2CK5armcl25copy_raw_data_from_tensorIfEEvPNS_8CLTensorEPT_RKNS3_5ShapeEEUlRKNS_11CoordinatesEE_JRNS_8IteratorEEEEvRKNS_6WindowERSD_OS8_DpOT0_>
  40b42f:	48 8b 45 f8          	mov    -0x8(%rbp),%rax
  40b433:	48 89 c7             	mov    %rax,%rdi
  40b436:	e8 ff b5 ff ff       	callq  406a3a <_ZNK11arm_compute6Window9Dimension4stepEv>
  40b43b:	01 45 f4             	add    %eax,-0xc(%rbp)
  40b43e:	48 8b 45 d0          	mov    -0x30(%rbp),%rax
  40b442:	48 89 c7             	mov    %rax,%rdi
  40b445:	e8 f1 04 00 00       	callq  40b93b <_ZN11arm_compute18IncrementIteratorsILm4EE6unrollIRNS_8IteratorEJEEEvOT_DpOT0_>
  40b44a:	eb a1                	jmp    40b3ed <_ZN11arm_compute16ForEachDimensionILm5EE6unrollIRZN2CK5armcl25copy_raw_data_from_tensorIfEEvPNS_8CLTensorEPT_RKNS3_5ShapeEEUlRKNS_11CoordinatesEE_JRNS_8IteratorEEEEvRKNS_6WindowERSD_OS8_DpOT0_+0x3c>
  40b44c:	90                   	nop
  40b44d:	c9                   	leaveq 
  40b44e:	c3                   	retq   
  40b44f:	90                   	nop

000000000040b450 <_ZN9__gnu_cxx13new_allocatorIP15_cl_platform_idEC1ERKS3_>:
  40b450:	55                   	push   %rbp
  40b451:	48 89 e5             	mov    %rsp,%rbp
  40b454:	48 89 7d f8          	mov    %rdi,-0x8(%rbp)
  40b458:	48 89 75 f0          	mov    %rsi,-0x10(%rbp)
  40b45c:	90                   	nop
  40b45d:	5d                   	pop    %rbp
  40b45e:	c3                   	retq   

000000000040b45f <_ZNSt16allocator_traitsISaIP15_cl_platform_idEE8allocateERS2_m>:
  40b45f:	55                   	push   %rbp
  40b460:	48 89 e5             	mov    %rsp,%rbp
  40b463:	48 83 ec 10          	sub    $0x10,%rsp
  40b467:	48 89 7d f8          	mov    %rdi,-0x8(%rbp)
  40b46b:	48 89 75 f0          	mov    %rsi,-0x10(%rbp)
  40b46f:	48 8b 4d f0          	mov    -0x10(%rbp),%rcx
  40b473:	48 8b 45 f8          	mov    -0x8(%rbp),%rax
  40b477:	ba 00 00 00 00       	mov    $0x0,%edx
  40b47c:	48 89 ce             	mov    %rcx,%rsi
  40b47f:	48 89 c7             	mov    %rax,%rdi
  40b482:	e8 41 06 00 00       	callq  40bac8 <_ZN9__gnu_cxx13new_allocatorIP15_cl_platform_idE8allocateEmPKv>
  40b487:	c9                   	leaveq 
  40b488:	c3                   	retq   
  40b489:	90                   	nop

000000000040b48a <_ZN9__gnu_cxx13new_allocatorIP15_cl_platform_idE10deallocateEPS2_m>:
  40b48a:	55                   	push   %rbp
  40b48b:	48 89 e5             	mov    %rsp,%rbp
  40b48e:	48 83 ec 20          	sub    $0x20,%rsp
  40b492:	48 89 7d f8          	mov    %rdi,-0x8(%rbp)
  40b496:	48 89 75 f0          	mov    %rsi,-0x10(%rbp)
  40b49a:	48 89 55 e8          	mov    %rdx,-0x18(%rbp)
  40b49e:	48 8b 45 f0          	mov    -0x10(%rbp),%rax
  40b4a2:	48 89 c7             	mov    %rax,%rdi
  40b4a5:	e8 26 8a ff ff       	callq  403ed0 <_ZdlPv@plt>
  40b4aa:	90                   	nop
  40b4ab:	c9                   	leaveq 
  40b4ac:	c3                   	retq   

000000000040b4ad <_ZNSt27__uninitialized_default_n_1ILb1EE18__uninit_default_nIPP15_cl_platform_idmEET_S5_T0_>:
  40b4ad:	55                   	push   %rbp
  40b4ae:	48 89 e5             	mov    %rsp,%rbp
  40b4b1:	48 83 ec 20          	sub    $0x20,%rsp
  40b4b5:	48 89 7d e8          	mov    %rdi,-0x18(%rbp)
  40b4b9:	48 89 75 e0          	mov    %rsi,-0x20(%rbp)
  40b4bd:	64 48 8b 04 25 28 00 	mov    %fs:0x28,%rax
  40b4c4:	00 00 
  40b4c6:	48 89 45 f8          	mov    %rax,-0x8(%rbp)
  40b4ca:	31 c0                	xor    %eax,%eax
  40b4cc:	48 c7 45 f0 00 00 00 	movq   $0x0,-0x10(%rbp)
  40b4d3:	00 
  40b4d4:	48 8d 55 f0          	lea    -0x10(%rbp),%rdx
  40b4d8:	48 8b 4d e0          	mov    -0x20(%rbp),%rcx
  40b4dc:	48 8b 45 e8          	mov    -0x18(%rbp),%rax
  40b4e0:	48 89 ce             	mov    %rcx,%rsi
  40b4e3:	48 89 c7             	mov    %rax,%rdi
  40b4e6:	e8 1f 06 00 00       	callq  40bb0a <_ZSt6fill_nIPP15_cl_platform_idmS1_ET_S3_T0_RKT1_>
  40b4eb:	48 8b 4d f8          	mov    -0x8(%rbp),%rcx
  40b4ef:	64 48 33 0c 25 28 00 	xor    %fs:0x28,%rcx
  40b4f6:	00 00 
  40b4f8:	74 05                	je     40b4ff <_ZNSt27__uninitialized_default_n_1ILb1EE18__uninit_default_nIPP15_cl_platform_idmEET_S5_T0_+0x52>
  40b4fa:	e8 31 8a ff ff       	callq  403f30 <__stack_chk_fail@plt>
  40b4ff:	c9                   	leaveq 
  40b500:	c3                   	retq   
  40b501:	90                   	nop

000000000040b502 <_ZN9__gnu_cxx13new_allocatorIP13_cl_device_idEC1ERKS3_>:
  40b502:	55                   	push   %rbp
  40b503:	48 89 e5             	mov    %rsp,%rbp
  40b506:	48 89 7d f8          	mov    %rdi,-0x8(%rbp)
  40b50a:	48 89 75 f0          	mov    %rsi,-0x10(%rbp)
  40b50e:	90                   	nop
  40b50f:	5d                   	pop    %rbp
  40b510:	c3                   	retq   

000000000040b511 <_ZNSt16allocator_traitsISaIP13_cl_device_idEE8allocateERS2_m>:
  40b511:	55                   	push   %rbp
  40b512:	48 89 e5             	mov    %rsp,%rbp
  40b515:	48 83 ec 10          	sub    $0x10,%rsp
  40b519:	48 89 7d f8          	mov    %rdi,-0x8(%rbp)
  40b51d:	48 89 75 f0          	mov    %rsi,-0x10(%rbp)
  40b521:	48 8b 4d f0          	mov    -0x10(%rbp),%rcx
  40b525:	48 8b 45 f8          	mov    -0x8(%rbp),%rax
  40b529:	ba 00 00 00 00       	mov    $0x0,%edx
  40b52e:	48 89 ce             	mov    %rcx,%rsi
  40b531:	48 89 c7             	mov    %rax,%rdi
  40b534:	e8 09 06 00 00       	callq  40bb42 <_ZN9__gnu_cxx13new_allocatorIP13_cl_device_idE8allocateEmPKv>
  40b539:	c9                   	leaveq 
  40b53a:	c3                   	retq   
  40b53b:	90                   	nop

000000000040b53c <_ZN9__gnu_cxx13new_allocatorIP13_cl_device_idE10deallocateEPS2_m>:
  40b53c:	55                   	push   %rbp
  40b53d:	48 89 e5             	mov    %rsp,%rbp
  40b540:	48 83 ec 20          	sub    $0x20,%rsp
  40b544:	48 89 7d f8          	mov    %rdi,-0x8(%rbp)
  40b548:	48 89 75 f0          	mov    %rsi,-0x10(%rbp)
  40b54c:	48 89 55 e8          	mov    %rdx,-0x18(%rbp)
  40b550:	48 8b 45 f0          	mov    -0x10(%rbp),%rax
  40b554:	48 89 c7             	mov    %rax,%rdi
  40b557:	e8 74 89 ff ff       	callq  403ed0 <_ZdlPv@plt>
  40b55c:	90                   	nop
  40b55d:	c9                   	leaveq 
  40b55e:	c3                   	retq   

000000000040b55f <_ZNSt27__uninitialized_default_n_1ILb1EE18__uninit_default_nIPP13_cl_device_idmEET_S5_T0_>:
  40b55f:	55                   	push   %rbp
  40b560:	48 89 e5             	mov    %rsp,%rbp
  40b563:	48 83 ec 20          	sub    $0x20,%rsp
  40b567:	48 89 7d e8          	mov    %rdi,-0x18(%rbp)
  40b56b:	48 89 75 e0          	mov    %rsi,-0x20(%rbp)
  40b56f:	64 48 8b 04 25 28 00 	mov    %fs:0x28,%rax
  40b576:	00 00 
  40b578:	48 89 45 f8          	mov    %rax,-0x8(%rbp)
  40b57c:	31 c0                	xor    %eax,%eax
  40b57e:	48 c7 45 f0 00 00 00 	movq   $0x0,-0x10(%rbp)
  40b585:	00 
  40b586:	48 8d 55 f0          	lea    -0x10(%rbp),%rdx
  40b58a:	48 8b 4d e0          	mov    -0x20(%rbp),%rcx
  40b58e:	48 8b 45 e8          	mov    -0x18(%rbp),%rax
  40b592:	48 89 ce             	mov    %rcx,%rsi
  40b595:	48 89 c7             	mov    %rax,%rdi
  40b598:	e8 e7 05 00 00       	callq  40bb84 <_ZSt6fill_nIPP13_cl_device_idmS1_ET_S3_T0_RKT1_>
  40b59d:	48 8b 4d f8          	mov    -0x8(%rbp),%rcx
  40b5a1:	64 48 33 0c 25 28 00 	xor    %fs:0x28,%rcx
  40b5a8:	00 00 
  40b5aa:	74 05                	je     40b5b1 <_ZNSt27__uninitialized_default_n_1ILb1EE18__uninit_default_nIPP13_cl_device_idmEET_S5_T0_+0x52>
  40b5ac:	e8 7f 89 ff ff       	callq  403f30 <__stack_chk_fail@plt>
  40b5b1:	c9                   	leaveq 
  40b5b2:	c3                   	retq   

000000000040b5b3 <_ZNSt27__uninitialized_default_n_1ILb0EE18__uninit_default_nIPN2cl6DeviceEmEET_S5_T0_>:
  40b5b3:	55                   	push   %rbp
  40b5b4:	48 89 e5             	mov    %rsp,%rbp
  40b5b7:	48 83 ec 20          	sub    $0x20,%rsp
  40b5bb:	48 89 7d e8          	mov    %rdi,-0x18(%rbp)
  40b5bf:	48 89 75 e0          	mov    %rsi,-0x20(%rbp)
  40b5c3:	48 8b 45 e8          	mov    -0x18(%rbp),%rax
  40b5c7:	48 89 45 f8          	mov    %rax,-0x8(%rbp)
  40b5cb:	48 83 7d e0 00       	cmpq   $0x0,-0x20(%rbp)
  40b5d0:	74 20                	je     40b5f2 <_ZNSt27__uninitialized_default_n_1ILb0EE18__uninit_default_nIPN2cl6DeviceEmEET_S5_T0_+0x3f>
  40b5d2:	48 8b 45 f8          	mov    -0x8(%rbp),%rax
  40b5d6:	48 89 c7             	mov    %rax,%rdi
  40b5d9:	e8 8d 02 00 00       	callq  40b86b <_ZSt11__addressofIN2cl6DeviceEEPT_RS2_>
  40b5de:	48 89 c7             	mov    %rax,%rdi
  40b5e1:	e8 d6 05 00 00       	callq  40bbbc <_ZSt10_ConstructIN2cl6DeviceEJEEvPT_DpOT0_>
  40b5e6:	48 83 6d e0 01       	subq   $0x1,-0x20(%rbp)
  40b5eb:	48 83 45 f8 10       	addq   $0x10,-0x8(%rbp)
  40b5f0:	eb d9                	jmp    40b5cb <_ZNSt27__uninitialized_default_n_1ILb0EE18__uninit_default_nIPN2cl6DeviceEmEET_S5_T0_+0x18>
  40b5f2:	48 8b 45 f8          	mov    -0x8(%rbp),%rax
  40b5f6:	c9                   	leaveq 
  40b5f7:	c3                   	retq   

000000000040b5f8 <_ZNSt16allocator_traitsISaIN2cl6DeviceEEE8max_sizeERKS2_>:
  40b5f8:	55                   	push   %rbp
  40b5f9:	48 89 e5             	mov    %rsp,%rbp
  40b5fc:	48 83 ec 10          	sub    $0x10,%rsp
  40b600:	48 89 7d f8          	mov    %rdi,-0x8(%rbp)
  40b604:	48 8b 45 f8          	mov    -0x8(%rbp),%rax
  40b608:	48 89 c7             	mov    %rax,%rdi
  40b60b:	e8 da 05 00 00       	callq  40bbea <_ZNK9__gnu_cxx13new_allocatorIN2cl6DeviceEE8max_sizeEv>
  40b610:	c9                   	leaveq 
  40b611:	c3                   	retq   

000000000040b612 <_ZNKSt12_Vector_baseIN2cl6DeviceESaIS1_EE19_M_get_Tp_allocatorEv>:
  40b612:	55                   	push   %rbp
  40b613:	48 89 e5             	mov    %rsp,%rbp
  40b616:	48 89 7d f8          	mov    %rdi,-0x8(%rbp)
  40b61a:	48 8b 45 f8          	mov    -0x8(%rbp),%rax
  40b61e:	5d                   	pop    %rbp
  40b61f:	c3                   	retq   

000000000040b620 <_ZN9__gnu_cxx13new_allocatorIN2cl6DeviceEE8allocateEmPKv>:
  40b620:	55                   	push   %rbp
  40b621:	48 89 e5             	mov    %rsp,%rbp
  40b624:	48 83 ec 20          	sub    $0x20,%rsp
  40b628:	48 89 7d f8          	mov    %rdi,-0x8(%rbp)
  40b62c:	48 89 75 f0          	mov    %rsi,-0x10(%rbp)
  40b630:	48 89 55 e8          	mov    %rdx,-0x18(%rbp)
  40b634:	48 8b 45 f8          	mov    -0x8(%rbp),%rax
  40b638:	48 89 c7             	mov    %rax,%rdi
  40b63b:	e8 aa 05 00 00       	callq  40bbea <_ZNK9__gnu_cxx13new_allocatorIN2cl6DeviceEE8max_sizeEv>
  40b640:	48 3b 45 f0          	cmp    -0x10(%rbp),%rax
  40b644:	0f 92 c0             	setb   %al
  40b647:	84 c0                	test   %al,%al
  40b649:	74 05                	je     40b650 <_ZN9__gnu_cxx13new_allocatorIN2cl6DeviceEE8allocateEmPKv+0x30>
  40b64b:	e8 50 87 ff ff       	callq  403da0 <_ZSt17__throw_bad_allocv@plt>
  40b650:	48 8b 45 f0          	mov    -0x10(%rbp),%rax
  40b654:	48 c1 e0 04          	shl    $0x4,%rax
  40b658:	48 89 c7             	mov    %rax,%rdi
  40b65b:	e8 90 88 ff ff       	callq  403ef0 <_Znwm@plt>
  40b660:	c9                   	leaveq 
  40b661:	c3                   	retq   

000000000040b662 <_ZNSt13move_iteratorIPN2cl6DeviceEEC1ES2_>:
  40b662:	55                   	push   %rbp
  40b663:	48 89 e5             	mov    %rsp,%rbp
  40b666:	48 89 7d f8          	mov    %rdi,-0x8(%rbp)
  40b66a:	48 89 75 f0          	mov    %rsi,-0x10(%rbp)
  40b66e:	48 8b 45 f8          	mov    -0x8(%rbp),%rax
  40b672:	48 8b 55 f0          	mov    -0x10(%rbp),%rdx
  40b676:	48 89 10             	mov    %rdx,(%rax)
  40b679:	90                   	nop
  40b67a:	5d                   	pop    %rbp
  40b67b:	c3                   	retq   

000000000040b67c <_ZSt18uninitialized_copyISt13move_iteratorIPN2cl6DeviceEES3_ET0_T_S6_S5_>:
  40b67c:	55                   	push   %rbp
  40b67d:	48 89 e5             	mov    %rsp,%rbp
  40b680:	48 83 ec 30          	sub    $0x30,%rsp
  40b684:	48 89 7d e8          	mov    %rdi,-0x18(%rbp)
  40b688:	48 89 75 e0          	mov    %rsi,-0x20(%rbp)
  40b68c:	48 89 55 d8          	mov    %rdx,-0x28(%rbp)
  40b690:	c6 45 ff 01          	movb   $0x1,-0x1(%rbp)
  40b694:	48 8b 55 d8          	mov    -0x28(%rbp),%rdx
  40b698:	48 8b 4d e0          	mov    -0x20(%rbp),%rcx
  40b69c:	48 8b 45 e8          	mov    -0x18(%rbp),%rax
  40b6a0:	48 89 ce             	mov    %rcx,%rsi
  40b6a3:	48 89 c7             	mov    %rax,%rdi
  40b6a6:	e8 53 05 00 00       	callq  40bbfe <_ZNSt20__uninitialized_copyILb0EE13__uninit_copyISt13move_iteratorIPN2cl6DeviceEES5_EET0_T_S8_S7_>
  40b6ab:	c9                   	leaveq 
  40b6ac:	c3                   	retq   
  40b6ad:	90                   	nop

000000000040b6ae <_ZN9__gnu_cxx13new_allocatorIN2cl6DeviceEE10deallocateEPS2_m>:
  40b6ae:	55                   	push   %rbp
  40b6af:	48 89 e5             	mov    %rsp,%rbp
  40b6b2:	48 83 ec 20          	sub    $0x20,%rsp
  40b6b6:	48 89 7d f8          	mov    %rdi,-0x8(%rbp)
  40b6ba:	48 89 75 f0          	mov    %rsi,-0x10(%rbp)
  40b6be:	48 89 55 e8          	mov    %rdx,-0x18(%rbp)
  40b6c2:	48 8b 45 f0          	mov    -0x10(%rbp),%rax
  40b6c6:	48 89 c7             	mov    %rax,%rdi
  40b6c9:	e8 02 88 ff ff       	callq  403ed0 <_ZdlPv@plt>
  40b6ce:	90                   	nop
  40b6cf:	c9                   	leaveq 
  40b6d0:	c3                   	retq   

000000000040b6d1 <_ZNSt27__uninitialized_default_n_1ILb0EE18__uninit_default_nIPN2cl8PlatformEmEET_S5_T0_>:
  40b6d1:	55                   	push   %rbp
  40b6d2:	48 89 e5             	mov    %rsp,%rbp
  40b6d5:	53                   	push   %rbx
  40b6d6:	48 83 ec 28          	sub    $0x28,%rsp
  40b6da:	48 89 7d d8          	mov    %rdi,-0x28(%rbp)
  40b6de:	48 89 75 d0          	mov    %rsi,-0x30(%rbp)
  40b6e2:	48 8b 45 d8          	mov    -0x28(%rbp),%rax
  40b6e6:	48 89 45 e8          	mov    %rax,-0x18(%rbp)
  40b6ea:	48 83 7d d0 00       	cmpq   $0x0,-0x30(%rbp)
  40b6ef:	74 20                	je     40b711 <_ZNSt27__uninitialized_default_n_1ILb0EE18__uninit_default_nIPN2cl8PlatformEmEET_S5_T0_+0x40>
  40b6f1:	48 8b 45 e8          	mov    -0x18(%rbp),%rax
  40b6f5:	48 89 c7             	mov    %rax,%rdi
  40b6f8:	e8 3a 01 00 00       	callq  40b837 <_ZSt11__addressofIN2cl8PlatformEEPT_RS2_>
  40b6fd:	48 89 c7             	mov    %rax,%rdi
  40b700:	e8 a6 05 00 00       	callq  40bcab <_ZSt10_ConstructIN2cl8PlatformEJEEvPT_DpOT0_>
  40b705:	48 83 6d d0 01       	subq   $0x1,-0x30(%rbp)
  40b70a:	48 83 45 e8 08       	addq   $0x8,-0x18(%rbp)
  40b70f:	eb d9                	jmp    40b6ea <_ZNSt27__uninitialized_default_n_1ILb0EE18__uninit_default_nIPN2cl8PlatformEmEET_S5_T0_+0x19>
  40b711:	48 8b 45 e8          	mov    -0x18(%rbp),%rax
  40b715:	eb 33                	jmp    40b74a <_ZNSt27__uninitialized_default_n_1ILb0EE18__uninit_default_nIPN2cl8PlatformEmEET_S5_T0_+0x79>
  40b717:	48 89 c7             	mov    %rax,%rdi
  40b71a:	e8 a1 86 ff ff       	callq  403dc0 <__cxa_begin_catch@plt>
  40b71f:	48 8b 55 e8          	mov    -0x18(%rbp),%rdx
  40b723:	48 8b 45 d8          	mov    -0x28(%rbp),%rax
  40b727:	48 89 d6             	mov    %rdx,%rsi
  40b72a:	48 89 c7             	mov    %rax,%rdi
  40b72d:	e8 27 f1 ff ff       	callq  40a859 <_ZSt8_DestroyIPN2cl8PlatformEEvT_S3_>
  40b732:	e8 39 89 ff ff       	callq  404070 <__cxa_rethrow@plt>
  40b737:	48 89 c3             	mov    %rax,%rbx
  40b73a:	e8 d1 89 ff ff       	callq  404110 <__cxa_end_catch@plt>
  40b73f:	48 89 d8             	mov    %rbx,%rax
  40b742:	48 89 c7             	mov    %rax,%rdi
  40b745:	e8 46 8a ff ff       	callq  404190 <_Unwind_Resume@plt>
  40b74a:	48 83 c4 28          	add    $0x28,%rsp
  40b74e:	5b                   	pop    %rbx
  40b74f:	5d                   	pop    %rbp
  40b750:	c3                   	retq   

000000000040b751 <_ZNSt16allocator_traitsISaIN2cl8PlatformEEE8max_sizeERKS2_>:
  40b751:	55                   	push   %rbp
  40b752:	48 89 e5             	mov    %rsp,%rbp
  40b755:	48 83 ec 10          	sub    $0x10,%rsp
  40b759:	48 89 7d f8          	mov    %rdi,-0x8(%rbp)
  40b75d:	48 8b 45 f8          	mov    -0x8(%rbp),%rax
  40b761:	48 89 c7             	mov    %rax,%rdi
  40b764:	e8 6f 05 00 00       	callq  40bcd8 <_ZNK9__gnu_cxx13new_allocatorIN2cl8PlatformEE8max_sizeEv>
  40b769:	c9                   	leaveq 
  40b76a:	c3                   	retq   
  40b76b:	90                   	nop

000000000040b76c <_ZNKSt12_Vector_baseIN2cl8PlatformESaIS1_EE19_M_get_Tp_allocatorEv>:
  40b76c:	55                   	push   %rbp
  40b76d:	48 89 e5             	mov    %rsp,%rbp
  40b770:	48 89 7d f8          	mov    %rdi,-0x8(%rbp)
  40b774:	48 8b 45 f8          	mov    -0x8(%rbp),%rax
  40b778:	5d                   	pop    %rbp
  40b779:	c3                   	retq   

000000000040b77a <_ZN9__gnu_cxx13new_allocatorIN2cl8PlatformEE8allocateEmPKv>:
  40b77a:	55                   	push   %rbp
  40b77b:	48 89 e5             	mov    %rsp,%rbp
  40b77e:	48 83 ec 20          	sub    $0x20,%rsp
  40b782:	48 89 7d f8          	mov    %rdi,-0x8(%rbp)
  40b786:	48 89 75 f0          	mov    %rsi,-0x10(%rbp)
  40b78a:	48 89 55 e8          	mov    %rdx,-0x18(%rbp)
  40b78e:	48 8b 45 f8          	mov    -0x8(%rbp),%rax
  40b792:	48 89 c7             	mov    %rax,%rdi
  40b795:	e8 3e 05 00 00       	callq  40bcd8 <_ZNK9__gnu_cxx13new_allocatorIN2cl8PlatformEE8max_sizeEv>
  40b79a:	48 3b 45 f0          	cmp    -0x10(%rbp),%rax
  40b79e:	0f 92 c0             	setb   %al
  40b7a1:	84 c0                	test   %al,%al
  40b7a3:	74 05                	je     40b7aa <_ZN9__gnu_cxx13new_allocatorIN2cl8PlatformEE8allocateEmPKv+0x30>
  40b7a5:	e8 f6 85 ff ff       	callq  403da0 <_ZSt17__throw_bad_allocv@plt>
  40b7aa:	48 8b 45 f0          	mov    -0x10(%rbp),%rax
  40b7ae:	48 c1 e0 03          	shl    $0x3,%rax
  40b7b2:	48 89 c7             	mov    %rax,%rdi
  40b7b5:	e8 36 87 ff ff       	callq  403ef0 <_Znwm@plt>
  40b7ba:	c9                   	leaveq 
  40b7bb:	c3                   	retq   

000000000040b7bc <_ZNSt13move_iteratorIPN2cl8PlatformEEC1ES2_>:
  40b7bc:	55                   	push   %rbp
  40b7bd:	48 89 e5             	mov    %rsp,%rbp
  40b7c0:	48 89 7d f8          	mov    %rdi,-0x8(%rbp)
  40b7c4:	48 89 75 f0          	mov    %rsi,-0x10(%rbp)
  40b7c8:	48 8b 45 f8          	mov    -0x8(%rbp),%rax
  40b7cc:	48 8b 55 f0          	mov    -0x10(%rbp),%rdx
  40b7d0:	48 89 10             	mov    %rdx,(%rax)
  40b7d3:	90                   	nop
  40b7d4:	5d                   	pop    %rbp
  40b7d5:	c3                   	retq   

000000000040b7d6 <_ZSt18uninitialized_copyISt13move_iteratorIPN2cl8PlatformEES3_ET0_T_S6_S5_>:
  40b7d6:	55                   	push   %rbp
  40b7d7:	48 89 e5             	mov    %rsp,%rbp
  40b7da:	48 83 ec 30          	sub    $0x30,%rsp
  40b7de:	48 89 7d e8          	mov    %rdi,-0x18(%rbp)
  40b7e2:	48 89 75 e0          	mov    %rsi,-0x20(%rbp)
  40b7e6:	48 89 55 d8          	mov    %rdx,-0x28(%rbp)
  40b7ea:	c6 45 ff 01          	movb   $0x1,-0x1(%rbp)
  40b7ee:	48 8b 55 d8          	mov    -0x28(%rbp),%rdx
  40b7f2:	48 8b 4d e0          	mov    -0x20(%rbp),%rcx
  40b7f6:	48 8b 45 e8          	mov    -0x18(%rbp),%rax
  40b7fa:	48 89 ce             	mov    %rcx,%rsi
  40b7fd:	48 89 c7             	mov    %rax,%rdi
  40b800:	e8 e7 04 00 00       	callq  40bcec <_ZNSt20__uninitialized_copyILb0EE13__uninit_copyISt13move_iteratorIPN2cl8PlatformEES5_EET0_T_S8_S7_>
  40b805:	c9                   	leaveq 
  40b806:	c3                   	retq   
  40b807:	90                   	nop

000000000040b808 <_ZN9__gnu_cxx13new_allocatorIN2cl8PlatformEE10deallocateEPS2_m>:
  40b808:	55                   	push   %rbp
  40b809:	48 89 e5             	mov    %rsp,%rbp
  40b80c:	48 83 ec 20          	sub    $0x20,%rsp
  40b810:	48 89 7d f8          	mov    %rdi,-0x8(%rbp)
  40b814:	48 89 75 f0          	mov    %rsi,-0x10(%rbp)
  40b818:	48 89 55 e8          	mov    %rdx,-0x18(%rbp)
  40b81c:	48 8b 45 f0          	mov    -0x10(%rbp),%rax
  40b820:	48 89 c7             	mov    %rax,%rdi
  40b823:	e8 a8 86 ff ff       	callq  403ed0 <_ZdlPv@plt>
  40b828:	90                   	nop
  40b829:	c9                   	leaveq 
  40b82a:	c3                   	retq   
  40b82b:	90                   	nop

000000000040b82c <_ZN9__gnu_cxx13new_allocatorIN2cl8PlatformEEC1Ev>:
  40b82c:	55                   	push   %rbp
  40b82d:	48 89 e5             	mov    %rsp,%rbp
  40b830:	48 89 7d f8          	mov    %rdi,-0x8(%rbp)
  40b834:	90                   	nop
  40b835:	5d                   	pop    %rbp
  40b836:	c3                   	retq   

000000000040b837 <_ZSt11__addressofIN2cl8PlatformEEPT_RS2_>:
  40b837:	55                   	push   %rbp
  40b838:	48 89 e5             	mov    %rsp,%rbp
  40b83b:	48 89 7d f8          	mov    %rdi,-0x8(%rbp)
  40b83f:	48 8b 45 f8          	mov    -0x8(%rbp),%rax
  40b843:	5d                   	pop    %rbp
  40b844:	c3                   	retq   

000000000040b845 <_ZSt8_DestroyIN2cl8PlatformEEvPT_>:
  40b845:	55                   	push   %rbp
  40b846:	48 89 e5             	mov    %rsp,%rbp
  40b849:	48 83 ec 10          	sub    $0x10,%rsp
  40b84d:	48 89 7d f8          	mov    %rdi,-0x8(%rbp)
  40b851:	48 8b 45 f8          	mov    -0x8(%rbp),%rax
  40b855:	48 89 c7             	mov    %rax,%rdi
  40b858:	e8 63 9c ff ff       	callq  4054c0 <_ZN2cl8PlatformD1Ev>
  40b85d:	90                   	nop
  40b85e:	c9                   	leaveq 
  40b85f:	c3                   	retq   

000000000040b860 <_ZN9__gnu_cxx13new_allocatorIN2cl6DeviceEEC1Ev>:
  40b860:	55                   	push   %rbp
  40b861:	48 89 e5             	mov    %rsp,%rbp
  40b864:	48 89 7d f8          	mov    %rdi,-0x8(%rbp)
  40b868:	90                   	nop
  40b869:	5d                   	pop    %rbp
  40b86a:	c3                   	retq   

000000000040b86b <_ZSt11__addressofIN2cl6DeviceEEPT_RS2_>:
  40b86b:	55                   	push   %rbp
  40b86c:	48 89 e5             	mov    %rsp,%rbp
  40b86f:	48 89 7d f8          	mov    %rdi,-0x8(%rbp)
  40b873:	48 8b 45 f8          	mov    -0x8(%rbp),%rax
  40b877:	5d                   	pop    %rbp
  40b878:	c3                   	retq   

000000000040b879 <_ZSt8_DestroyIN2cl6DeviceEEvPT_>:
  40b879:	55                   	push   %rbp
  40b87a:	48 89 e5             	mov    %rsp,%rbp
  40b87d:	48 83 ec 10          	sub    $0x10,%rsp
  40b881:	48 89 7d f8          	mov    %rdi,-0x8(%rbp)
  40b885:	48 8b 45 f8          	mov    -0x8(%rbp),%rax
  40b889:	48 89 c7             	mov    %rax,%rdi
  40b88c:	e8 f5 9a ff ff       	callq  405386 <_ZN2cl6DeviceD1Ev>
  40b891:	90                   	nop
  40b892:	c9                   	leaveq 
  40b893:	c3                   	retq   

000000000040b894 <_ZNKSt17reference_wrapperIKN2cl7ContextEE3getEv>:
  40b894:	55                   	push   %rbp
  40b895:	48 89 e5             	mov    %rsp,%rbp
  40b898:	48 89 7d f8          	mov    %rdi,-0x8(%rbp)
  40b89c:	48 8b 45 f8          	mov    -0x8(%rbp),%rax
  40b8a0:	48 8b 00             	mov    (%rax),%rax
  40b8a3:	5d                   	pop    %rbp
  40b8a4:	c3                   	retq   

000000000040b8a5 <_ZSt7forwardIRZN11arm_compute18IncrementIteratorsILm5EE6unrollIRNS0_8IteratorEJEEEvOT_DpOT0_EUlS5_E_ES7_RNSt16remove_referenceIS6_E4typeE>:
  40b8a5:	55                   	push   %rbp
  40b8a6:	48 89 e5             	mov    %rsp,%rbp
  40b8a9:	48 89 7d f8          	mov    %rdi,-0x8(%rbp)
  40b8ad:	48 8b 45 f8          	mov    -0x8(%rbp),%rax
  40b8b1:	5d                   	pop    %rbp
  40b8b2:	c3                   	retq   

000000000040b8b3 <_ZN11arm_compute7utility8for_eachIRZNS_18IncrementIteratorsILm5EE6unrollIRNS_8IteratorEJEEEvOT_DpOT0_EUlS6_E_S6_JEEEvS8_OT0_DpOT1_>:
  40b8b3:	55                   	push   %rbp
  40b8b4:	48 89 e5             	mov    %rsp,%rbp
  40b8b7:	48 83 ec 10          	sub    $0x10,%rsp
  40b8bb:	48 89 7d f8          	mov    %rdi,-0x8(%rbp)
  40b8bf:	48 89 75 f0          	mov    %rsi,-0x10(%rbp)
  40b8c3:	48 8b 45 f0          	mov    -0x10(%rbp),%rax
  40b8c7:	48 89 c7             	mov    %rax,%rdi
  40b8ca:	e8 f1 e7 ff ff       	callq  40a0c0 <_ZSt7forwardIRN11arm_compute8IteratorEEOT_RNSt16remove_referenceIS3_E4typeE>
  40b8cf:	48 89 c2             	mov    %rax,%rdx
  40b8d2:	48 8b 45 f8          	mov    -0x8(%rbp),%rax
  40b8d6:	48 89 d6             	mov    %rdx,%rsi
  40b8d9:	48 89 c7             	mov    %rax,%rdi
  40b8dc:	e8 9f f9 ff ff       	callq  40b280 <_ZZN11arm_compute18IncrementIteratorsILm5EE6unrollIRNS_8IteratorEJEEEvOT_DpOT0_ENKUlS4_E_clES4_>
  40b8e1:	48 8b 45 f8          	mov    -0x8(%rbp),%rax
  40b8e5:	48 89 c7             	mov    %rax,%rdi
  40b8e8:	e8 b8 ff ff ff       	callq  40b8a5 <_ZSt7forwardIRZN11arm_compute18IncrementIteratorsILm5EE6unrollIRNS0_8IteratorEJEEEvOT_DpOT0_EUlS5_E_ES7_RNSt16remove_referenceIS6_E4typeE>
  40b8ed:	48 89 c7             	mov    %rax,%rdi
  40b8f0:	e8 a4 04 00 00       	callq  40bd99 <_ZN11arm_compute7utility8for_eachIRZNS_18IncrementIteratorsILm5EE6unrollIRNS_8IteratorEJEEEvOT_DpOT0_EUlS6_E_EEvS8_>
  40b8f5:	90                   	nop
  40b8f6:	c9                   	leaveq 
  40b8f7:	c3                   	retq   

000000000040b8f8 <_ZZN11arm_compute18IncrementIteratorsILm4EE6unrollIRNS_8IteratorEJEEEvOT_DpOT0_ENKUlS4_E_clES4_>:
  40b8f8:	55                   	push   %rbp
  40b8f9:	48 89 e5             	mov    %rsp,%rbp
  40b8fc:	48 83 ec 10          	sub    $0x10,%rsp
  40b900:	48 89 7d f8          	mov    %rdi,-0x8(%rbp)
  40b904:	48 89 75 f0          	mov    %rsi,-0x10(%rbp)
  40b908:	48 8b 45 f0          	mov    -0x10(%rbp),%rax
  40b90c:	be 04 00 00 00       	mov    $0x4,%esi
  40b911:	48 89 c7             	mov    %rax,%rdi
  40b914:	e8 b3 b5 ff ff       	callq  406ecc <_ZN11arm_compute8Iterator9incrementEm>
  40b919:	90                   	nop
  40b91a:	c9                   	leaveq 
  40b91b:	c3                   	retq   

000000000040b91c <_ZZN11arm_compute18IncrementIteratorsILm4EE6unrollIRNS_8IteratorEJEEEvOT_DpOT0_ENUlS4_E_4_FUNES4_>:
  40b91c:	55                   	push   %rbp
  40b91d:	48 89 e5             	mov    %rsp,%rbp
  40b920:	48 83 ec 10          	sub    $0x10,%rsp
  40b924:	48 89 7d f8          	mov    %rdi,-0x8(%rbp)
  40b928:	48 8b 45 f8          	mov    -0x8(%rbp),%rax
  40b92c:	48 89 c6             	mov    %rax,%rsi
  40b92f:	bf 00 00 00 00       	mov    $0x0,%edi
  40b934:	e8 bf ff ff ff       	callq  40b8f8 <_ZZN11arm_compute18IncrementIteratorsILm4EE6unrollIRNS_8IteratorEJEEEvOT_DpOT0_ENKUlS4_E_clES4_>
  40b939:	c9                   	leaveq 
  40b93a:	c3                   	retq   

000000000040b93b <_ZN11arm_compute18IncrementIteratorsILm4EE6unrollIRNS_8IteratorEJEEEvOT_DpOT0_>:
  40b93b:	55                   	push   %rbp
  40b93c:	48 89 e5             	mov    %rsp,%rbp
  40b93f:	48 83 ec 20          	sub    $0x20,%rsp
  40b943:	48 89 7d e8          	mov    %rdi,-0x18(%rbp)
  40b947:	64 48 8b 04 25 28 00 	mov    %fs:0x28,%rax
  40b94e:	00 00 
  40b950:	48 89 45 f8          	mov    %rax,-0x8(%rbp)
  40b954:	31 c0                	xor    %eax,%eax
  40b956:	48 8b 45 e8          	mov    -0x18(%rbp),%rax
  40b95a:	48 89 c7             	mov    %rax,%rdi
  40b95d:	e8 5e e7 ff ff       	callq  40a0c0 <_ZSt7forwardIRN11arm_compute8IteratorEEOT_RNSt16remove_referenceIS3_E4typeE>
  40b962:	48 89 c2             	mov    %rax,%rdx
  40b965:	48 8d 45 f7          	lea    -0x9(%rbp),%rax
  40b969:	48 89 d6             	mov    %rdx,%rsi
  40b96c:	48 89 c7             	mov    %rax,%rdi
  40b96f:	e8 3e 04 00 00       	callq  40bdb2 <_ZN11arm_compute7utility8for_eachIRZNS_18IncrementIteratorsILm4EE6unrollIRNS_8IteratorEJEEEvOT_DpOT0_EUlS6_E_S6_JEEEvS8_OT0_DpOT1_>
  40b974:	90                   	nop
  40b975:	48 8b 45 f8          	mov    -0x8(%rbp),%rax
  40b979:	64 48 33 04 25 28 00 	xor    %fs:0x28,%rax
  40b980:	00 00 
  40b982:	74 05                	je     40b989 <_ZN11arm_compute18IncrementIteratorsILm4EE6unrollIRNS_8IteratorEJEEEvOT_DpOT0_+0x4e>
  40b984:	e8 a7 85 ff ff       	callq  403f30 <__stack_chk_fail@plt>
  40b989:	c9                   	leaveq 
  40b98a:	c3                   	retq   

000000000040b98b <_ZN11arm_compute16ForEachDimensionILm4EE6unrollIRZN2CK5armcl23copy_raw_data_to_tensorIfEEvPNS_8CLTensorEPT_RKNS3_5ShapeEEUlRKNS_11CoordinatesEE_JRNS_8IteratorEEEEvRKNS_6WindowERSD_OS8_DpOT0_>:
  40b98b:	55                   	push   %rbp
  40b98c:	48 89 e5             	mov    %rsp,%rbp
  40b98f:	48 83 ec 30          	sub    $0x30,%rsp
  40b993:	48 89 7d e8          	mov    %rdi,-0x18(%rbp)
  40b997:	48 89 75 e0          	mov    %rsi,-0x20(%rbp)
  40b99b:	48 89 55 d8          	mov    %rdx,-0x28(%rbp)
  40b99f:	48 89 4d d0          	mov    %rcx,-0x30(%rbp)
  40b9a3:	48 8b 45 e8          	mov    -0x18(%rbp),%rax
  40b9a7:	be 03 00 00 00       	mov    $0x3,%esi
  40b9ac:	48 89 c7             	mov    %rax,%rdi
  40b9af:	e8 08 b1 ff ff       	callq  406abc <_ZNK11arm_compute6WindowixEm>
  40b9b4:	48 89 45 f8          	mov    %rax,-0x8(%rbp)
  40b9b8:	48 8b 45 f8          	mov    -0x8(%rbp),%rax
  40b9bc:	48 89 c7             	mov    %rax,%rdi
  40b9bf:	e8 54 b0 ff ff       	callq  406a18 <_ZNK11arm_compute6Window9Dimension5startEv>
  40b9c4:	89 45 f4             	mov    %eax,-0xc(%rbp)
  40b9c7:	48 8b 45 f8          	mov    -0x8(%rbp),%rax
  40b9cb:	48 89 c7             	mov    %rax,%rdi
  40b9ce:	e8 55 b0 ff ff       	callq  406a28 <_ZNK11arm_compute6Window9Dimension3endEv>
  40b9d3:	3b 45 f4             	cmp    -0xc(%rbp),%eax
  40b9d6:	0f 9f c0             	setg   %al
  40b9d9:	84 c0                	test   %al,%al
  40b9db:	74 49                	je     40ba26 <_ZN11arm_compute16ForEachDimensionILm4EE6unrollIRZN2CK5armcl23copy_raw_data_to_tensorIfEEvPNS_8CLTensorEPT_RKNS3_5ShapeEEUlRKNS_11CoordinatesEE_JRNS_8IteratorEEEEvRKNS_6WindowERSD_OS8_DpOT0_+0x9b>
  40b9dd:	48 8b 45 e0          	mov    -0x20(%rbp),%rax
  40b9e1:	8b 55 f4             	mov    -0xc(%rbp),%edx
  40b9e4:	be 03 00 00 00       	mov    $0x3,%esi
  40b9e9:	48 89 c7             	mov    %rax,%rdi
  40b9ec:	e8 9d cf ff ff       	callq  40898e <_ZN11arm_compute10DimensionsIiE3setEmi>
  40b9f1:	48 8b 4d d0          	mov    -0x30(%rbp),%rcx
  40b9f5:	48 8b 55 d8          	mov    -0x28(%rbp),%rdx
  40b9f9:	48 8b 75 e0          	mov    -0x20(%rbp),%rsi
  40b9fd:	48 8b 45 e8          	mov    -0x18(%rbp),%rax
  40ba01:	48 89 c7             	mov    %rax,%rdi
  40ba04:	e8 82 04 00 00       	callq  40be8b <_ZN11arm_compute16ForEachDimensionILm3EE6unrollIRZN2CK5armcl23copy_raw_data_to_tensorIfEEvPNS_8CLTensorEPT_RKNS3_5ShapeEEUlRKNS_11CoordinatesEE_JRNS_8IteratorEEEEvRKNS_6WindowERSD_OS8_DpOT0_>
  40ba09:	48 8b 45 f8          	mov    -0x8(%rbp),%rax
  40ba0d:	48 89 c7             	mov    %rax,%rdi
  40ba10:	e8 25 b0 ff ff       	callq  406a3a <_ZNK11arm_compute6Window9Dimension4stepEv>
  40ba15:	01 45 f4             	add    %eax,-0xc(%rbp)
  40ba18:	48 8b 45 d0          	mov    -0x30(%rbp),%rax
  40ba1c:	48 89 c7             	mov    %rax,%rdi
  40ba1f:	e8 17 04 00 00       	callq  40be3b <_ZN11arm_compute18IncrementIteratorsILm3EE6unrollIRNS_8IteratorEJEEEvOT_DpOT0_>
  40ba24:	eb a1                	jmp    40b9c7 <_ZN11arm_compute16ForEachDimensionILm4EE6unrollIRZN2CK5armcl23copy_raw_data_to_tensorIfEEvPNS_8CLTensorEPT_RKNS3_5ShapeEEUlRKNS_11CoordinatesEE_JRNS_8IteratorEEEEvRKNS_6WindowERSD_OS8_DpOT0_+0x3c>
  40ba26:	90                   	nop
  40ba27:	c9                   	leaveq 
  40ba28:	c3                   	retq   

000000000040ba29 <_ZN11arm_compute16ForEachDimensionILm4EE6unrollIRZN2CK5armcl25copy_raw_data_from_tensorIfEEvPNS_8CLTensorEPT_RKNS3_5ShapeEEUlRKNS_11CoordinatesEE_JRNS_8IteratorEEEEvRKNS_6WindowERSD_OS8_DpOT0_>:
  40ba29:	55                   	push   %rbp
  40ba2a:	48 89 e5             	mov    %rsp,%rbp
  40ba2d:	48 83 ec 30          	sub    $0x30,%rsp
  40ba31:	48 89 7d e8          	mov    %rdi,-0x18(%rbp)
  40ba35:	48 89 75 e0          	mov    %rsi,-0x20(%rbp)
  40ba39:	48 89 55 d8          	mov    %rdx,-0x28(%rbp)
  40ba3d:	48 89 4d d0          	mov    %rcx,-0x30(%rbp)
  40ba41:	48 8b 45 e8          	mov    -0x18(%rbp),%rax
  40ba45:	be 03 00 00 00       	mov    $0x3,%esi
  40ba4a:	48 89 c7             	mov    %rax,%rdi
  40ba4d:	e8 6a b0 ff ff       	callq  406abc <_ZNK11arm_compute6WindowixEm>
  40ba52:	48 89 45 f8          	mov    %rax,-0x8(%rbp)
  40ba56:	48 8b 45 f8          	mov    -0x8(%rbp),%rax
  40ba5a:	48 89 c7             	mov    %rax,%rdi
  40ba5d:	e8 b6 af ff ff       	callq  406a18 <_ZNK11arm_compute6Window9Dimension5startEv>
  40ba62:	89 45 f4             	mov    %eax,-0xc(%rbp)
  40ba65:	48 8b 45 f8          	mov    -0x8(%rbp),%rax
  40ba69:	48 89 c7             	mov    %rax,%rdi
  40ba6c:	e8 b7 af ff ff       	callq  406a28 <_ZNK11arm_compute6Window9Dimension3endEv>
  40ba71:	3b 45 f4             	cmp    -0xc(%rbp),%eax
  40ba74:	0f 9f c0             	setg   %al
  40ba77:	84 c0                	test   %al,%al
  40ba79:	74 49                	je     40bac4 <_ZN11arm_compute16ForEachDimensionILm4EE6unrollIRZN2CK5armcl25copy_raw_data_from_tensorIfEEvPNS_8CLTensorEPT_RKNS3_5ShapeEEUlRKNS_11CoordinatesEE_JRNS_8IteratorEEEEvRKNS_6WindowERSD_OS8_DpOT0_+0x9b>
  40ba7b:	48 8b 45 e0          	mov    -0x20(%rbp),%rax
  40ba7f:	8b 55 f4             	mov    -0xc(%rbp),%edx
  40ba82:	be 03 00 00 00       	mov    $0x3,%esi
  40ba87:	48 89 c7             	mov    %rax,%rdi
  40ba8a:	e8 ff ce ff ff       	callq  40898e <_ZN11arm_compute10DimensionsIiE3setEmi>
  40ba8f:	48 8b 4d d0          	mov    -0x30(%rbp),%rcx
  40ba93:	48 8b 55 d8          	mov    -0x28(%rbp),%rdx
  40ba97:	48 8b 75 e0          	mov    -0x20(%rbp),%rsi
  40ba9b:	48 8b 45 e8          	mov    -0x18(%rbp),%rax
  40ba9f:	48 89 c7             	mov    %rax,%rdi
  40baa2:	e8 82 04 00 00       	callq  40bf29 <_ZN11arm_compute16ForEachDimensionILm3EE6unrollIRZN2CK5armcl25copy_raw_data_from_tensorIfEEvPNS_8CLTensorEPT_RKNS3_5ShapeEEUlRKNS_11CoordinatesEE_JRNS_8IteratorEEEEvRKNS_6WindowERSD_OS8_DpOT0_>
  40baa7:	48 8b 45 f8          	mov    -0x8(%rbp),%rax
  40baab:	48 89 c7             	mov    %rax,%rdi
  40baae:	e8 87 af ff ff       	callq  406a3a <_ZNK11arm_compute6Window9Dimension4stepEv>
  40bab3:	01 45 f4             	add    %eax,-0xc(%rbp)
  40bab6:	48 8b 45 d0          	mov    -0x30(%rbp),%rax
  40baba:	48 89 c7             	mov    %rax,%rdi
  40babd:	e8 79 03 00 00       	callq  40be3b <_ZN11arm_compute18IncrementIteratorsILm3EE6unrollIRNS_8IteratorEJEEEvOT_DpOT0_>
  40bac2:	eb a1                	jmp    40ba65 <_ZN11arm_compute16ForEachDimensionILm4EE6unrollIRZN2CK5armcl25copy_raw_data_from_tensorIfEEvPNS_8CLTensorEPT_RKNS3_5ShapeEEUlRKNS_11CoordinatesEE_JRNS_8IteratorEEEEvRKNS_6WindowERSD_OS8_DpOT0_+0x3c>
  40bac4:	90                   	nop
  40bac5:	c9                   	leaveq 
  40bac6:	c3                   	retq   
  40bac7:	90                   	nop

000000000040bac8 <_ZN9__gnu_cxx13new_allocatorIP15_cl_platform_idE8allocateEmPKv>:
  40bac8:	55                   	push   %rbp
  40bac9:	48 89 e5             	mov    %rsp,%rbp
  40bacc:	48 83 ec 20          	sub    $0x20,%rsp
  40bad0:	48 89 7d f8          	mov    %rdi,-0x8(%rbp)
  40bad4:	48 89 75 f0          	mov    %rsi,-0x10(%rbp)
  40bad8:	48 89 55 e8          	mov    %rdx,-0x18(%rbp)
  40badc:	48 8b 45 f8          	mov    -0x8(%rbp),%rax
  40bae0:	48 89 c7             	mov    %rax,%rdi
  40bae3:	e8 e0 04 00 00       	callq  40bfc8 <_ZNK9__gnu_cxx13new_allocatorIP15_cl_platform_idE8max_sizeEv>
  40bae8:	48 3b 45 f0          	cmp    -0x10(%rbp),%rax
  40baec:	0f 92 c0             	setb   %al
  40baef:	84 c0                	test   %al,%al
  40baf1:	74 05                	je     40baf8 <_ZN9__gnu_cxx13new_allocatorIP15_cl_platform_idE8allocateEmPKv+0x30>
  40baf3:	e8 a8 82 ff ff       	callq  403da0 <_ZSt17__throw_bad_allocv@plt>
  40baf8:	48 8b 45 f0          	mov    -0x10(%rbp),%rax
  40bafc:	48 c1 e0 03          	shl    $0x3,%rax
  40bb00:	48 89 c7             	mov    %rax,%rdi
  40bb03:	e8 e8 83 ff ff       	callq  403ef0 <_Znwm@plt>
  40bb08:	c9                   	leaveq 
  40bb09:	c3                   	retq   

000000000040bb0a <_ZSt6fill_nIPP15_cl_platform_idmS1_ET_S3_T0_RKT1_>:
  40bb0a:	55                   	push   %rbp
  40bb0b:	48 89 e5             	mov    %rsp,%rbp
  40bb0e:	48 83 ec 20          	sub    $0x20,%rsp
  40bb12:	48 89 7d f8          	mov    %rdi,-0x8(%rbp)
  40bb16:	48 89 75 f0          	mov    %rsi,-0x10(%rbp)
  40bb1a:	48 89 55 e8          	mov    %rdx,-0x18(%rbp)
  40bb1e:	48 8b 45 f8          	mov    -0x8(%rbp),%rax
  40bb22:	48 89 c7             	mov    %rax,%rdi
  40bb25:	e8 b2 04 00 00       	callq  40bfdc <_ZSt12__niter_baseIPP15_cl_platform_idET_S3_>
  40bb2a:	48 89 c1             	mov    %rax,%rcx
  40bb2d:	48 8b 55 e8          	mov    -0x18(%rbp),%rdx
  40bb31:	48 8b 45 f0          	mov    -0x10(%rbp),%rax
  40bb35:	48 89 c6             	mov    %rax,%rsi
  40bb38:	48 89 cf             	mov    %rcx,%rdi
  40bb3b:	e8 aa 04 00 00       	callq  40bfea <_ZSt10__fill_n_aIPP15_cl_platform_idmS1_EN9__gnu_cxx11__enable_ifIXsrSt11__is_scalarIT1_E7__valueET_E6__typeES8_T0_RKS6_>
  40bb40:	c9                   	leaveq 
  40bb41:	c3                   	retq   

000000000040bb42 <_ZN9__gnu_cxx13new_allocatorIP13_cl_device_idE8allocateEmPKv>:
  40bb42:	55                   	push   %rbp
  40bb43:	48 89 e5             	mov    %rsp,%rbp
  40bb46:	48 83 ec 20          	sub    $0x20,%rsp
  40bb4a:	48 89 7d f8          	mov    %rdi,-0x8(%rbp)
  40bb4e:	48 89 75 f0          	mov    %rsi,-0x10(%rbp)
  40bb52:	48 89 55 e8          	mov    %rdx,-0x18(%rbp)
  40bb56:	48 8b 45 f8          	mov    -0x8(%rbp),%rax
  40bb5a:	48 89 c7             	mov    %rax,%rdi
  40bb5d:	e8 d0 04 00 00       	callq  40c032 <_ZNK9__gnu_cxx13new_allocatorIP13_cl_device_idE8max_sizeEv>
  40bb62:	48 3b 45 f0          	cmp    -0x10(%rbp),%rax
  40bb66:	0f 92 c0             	setb   %al
  40bb69:	84 c0                	test   %al,%al
  40bb6b:	74 05                	je     40bb72 <_ZN9__gnu_cxx13new_allocatorIP13_cl_device_idE8allocateEmPKv+0x30>
  40bb6d:	e8 2e 82 ff ff       	callq  403da0 <_ZSt17__throw_bad_allocv@plt>
  40bb72:	48 8b 45 f0          	mov    -0x10(%rbp),%rax
  40bb76:	48 c1 e0 03          	shl    $0x3,%rax
  40bb7a:	48 89 c7             	mov    %rax,%rdi
  40bb7d:	e8 6e 83 ff ff       	callq  403ef0 <_Znwm@plt>
  40bb82:	c9                   	leaveq 
  40bb83:	c3                   	retq   

000000000040bb84 <_ZSt6fill_nIPP13_cl_device_idmS1_ET_S3_T0_RKT1_>:
  40bb84:	55                   	push   %rbp
  40bb85:	48 89 e5             	mov    %rsp,%rbp
  40bb88:	48 83 ec 20          	sub    $0x20,%rsp
  40bb8c:	48 89 7d f8          	mov    %rdi,-0x8(%rbp)
  40bb90:	48 89 75 f0          	mov    %rsi,-0x10(%rbp)
  40bb94:	48 89 55 e8          	mov    %rdx,-0x18(%rbp)
  40bb98:	48 8b 45 f8          	mov    -0x8(%rbp),%rax
  40bb9c:	48 89 c7             	mov    %rax,%rdi
  40bb9f:	e8 a2 04 00 00       	callq  40c046 <_ZSt12__niter_baseIPP13_cl_device_idET_S3_>
  40bba4:	48 89 c1             	mov    %rax,%rcx
  40bba7:	48 8b 55 e8          	mov    -0x18(%rbp),%rdx
  40bbab:	48 8b 45 f0          	mov    -0x10(%rbp),%rax
  40bbaf:	48 89 c6             	mov    %rax,%rsi
  40bbb2:	48 89 cf             	mov    %rcx,%rdi
  40bbb5:	e8 9a 04 00 00       	callq  40c054 <_ZSt10__fill_n_aIPP13_cl_device_idmS1_EN9__gnu_cxx11__enable_ifIXsrSt11__is_scalarIT1_E7__valueET_E6__typeES8_T0_RKS6_>
  40bbba:	c9                   	leaveq 
  40bbbb:	c3                   	retq   

000000000040bbbc <_ZSt10_ConstructIN2cl6DeviceEJEEvPT_DpOT0_>:
  40bbbc:	55                   	push   %rbp
  40bbbd:	48 89 e5             	mov    %rsp,%rbp
  40bbc0:	48 83 ec 10          	sub    $0x10,%rsp
  40bbc4:	48 89 7d f8          	mov    %rdi,-0x8(%rbp)
  40bbc8:	48 8b 45 f8          	mov    -0x8(%rbp),%rax
  40bbcc:	48 89 c6             	mov    %rax,%rsi
  40bbcf:	bf 10 00 00 00       	mov    $0x10,%edi
  40bbd4:	e8 ae 92 ff ff       	callq  404e87 <_ZnwmPv>
  40bbd9:	48 85 c0             	test   %rax,%rax
  40bbdc:	74 08                	je     40bbe6 <_ZSt10_ConstructIN2cl6DeviceEJEEvPT_DpOT0_+0x2a>
  40bbde:	48 89 c7             	mov    %rax,%rdi
  40bbe1:	e8 54 97 ff ff       	callq  40533a <_ZN2cl6DeviceC1Ev>
  40bbe6:	90                   	nop
  40bbe7:	c9                   	leaveq 
  40bbe8:	c3                   	retq   
  40bbe9:	90                   	nop

000000000040bbea <_ZNK9__gnu_cxx13new_allocatorIN2cl6DeviceEE8max_sizeEv>:
  40bbea:	55                   	push   %rbp
  40bbeb:	48 89 e5             	mov    %rsp,%rbp
  40bbee:	48 89 7d f8          	mov    %rdi,-0x8(%rbp)
  40bbf2:	48 b8 ff ff ff ff ff 	movabs $0xfffffffffffffff,%rax
  40bbf9:	ff ff 0f 
  40bbfc:	5d                   	pop    %rbp
  40bbfd:	c3                   	retq   

000000000040bbfe <_ZNSt20__uninitialized_copyILb0EE13__uninit_copyISt13move_iteratorIPN2cl6DeviceEES5_EET0_T_S8_S7_>:
  40bbfe:	55                   	push   %rbp
  40bbff:	48 89 e5             	mov    %rsp,%rbp
  40bc02:	53                   	push   %rbx
  40bc03:	48 83 ec 38          	sub    $0x38,%rsp
  40bc07:	48 89 7d d8          	mov    %rdi,-0x28(%rbp)
  40bc0b:	48 89 75 d0          	mov    %rsi,-0x30(%rbp)
  40bc0f:	48 89 55 c8          	mov    %rdx,-0x38(%rbp)
  40bc13:	48 8b 45 c8          	mov    -0x38(%rbp),%rax
  40bc17:	48 89 45 e8          	mov    %rax,-0x18(%rbp)
  40bc1b:	48 8d 55 d0          	lea    -0x30(%rbp),%rdx
  40bc1f:	48 8d 45 d8          	lea    -0x28(%rbp),%rax
  40bc23:	48 89 d6             	mov    %rdx,%rsi
  40bc26:	48 89 c7             	mov    %rax,%rdi
  40bc29:	e8 6d 04 00 00       	callq  40c09b <_ZStneIPN2cl6DeviceEEbRKSt13move_iteratorIT_ES7_>
  40bc2e:	84 c0                	test   %al,%al
  40bc30:	74 39                	je     40bc6b <_ZNSt20__uninitialized_copyILb0EE13__uninit_copyISt13move_iteratorIPN2cl6DeviceEES5_EET0_T_S8_S7_+0x6d>
  40bc32:	48 8d 45 d8          	lea    -0x28(%rbp),%rax
  40bc36:	48 89 c7             	mov    %rax,%rdi
  40bc39:	e8 a6 04 00 00       	callq  40c0e4 <_ZNKSt13move_iteratorIPN2cl6DeviceEEdeEv>
  40bc3e:	48 89 c3             	mov    %rax,%rbx
  40bc41:	48 8b 45 e8          	mov    -0x18(%rbp),%rax
  40bc45:	48 89 c7             	mov    %rax,%rdi
  40bc48:	e8 1e fc ff ff       	callq  40b86b <_ZSt11__addressofIN2cl6DeviceEEPT_RS2_>
  40bc4d:	48 89 de             	mov    %rbx,%rsi
  40bc50:	48 89 c7             	mov    %rax,%rdi
  40bc53:	e8 ab 04 00 00       	callq  40c103 <_ZSt10_ConstructIN2cl6DeviceEJS1_EEvPT_DpOT0_>
  40bc58:	48 8d 45 d8          	lea    -0x28(%rbp),%rax
  40bc5c:	48 89 c7             	mov    %rax,%rdi
  40bc5f:	e8 60 04 00 00       	callq  40c0c4 <_ZNSt13move_iteratorIPN2cl6DeviceEEppEv>
  40bc64:	48 83 45 e8 10       	addq   $0x10,-0x18(%rbp)
  40bc69:	eb b0                	jmp    40bc1b <_ZNSt20__uninitialized_copyILb0EE13__uninit_copyISt13move_iteratorIPN2cl6DeviceEES5_EET0_T_S8_S7_+0x1d>
  40bc6b:	48 8b 45 e8          	mov    -0x18(%rbp),%rax
  40bc6f:	eb 33                	jmp    40bca4 <_ZNSt20__uninitialized_copyILb0EE13__uninit_copyISt13move_iteratorIPN2cl6DeviceEES5_EET0_T_S8_S7_+0xa6>
  40bc71:	48 89 c7             	mov    %rax,%rdi
  40bc74:	e8 47 81 ff ff       	callq  403dc0 <__cxa_begin_catch@plt>
  40bc79:	48 8b 55 e8          	mov    -0x18(%rbp),%rdx
  40bc7d:	48 8b 45 c8          	mov    -0x38(%rbp),%rax
  40bc81:	48 89 d6             	mov    %rdx,%rsi
  40bc84:	48 89 c7             	mov    %rax,%rdi
  40bc87:	e8 4d ec ff ff       	callq  40a8d9 <_ZSt8_DestroyIPN2cl6DeviceEEvT_S3_>
  40bc8c:	e8 df 83 ff ff       	callq  404070 <__cxa_rethrow@plt>
  40bc91:	48 89 c3             	mov    %rax,%rbx
  40bc94:	e8 77 84 ff ff       	callq  404110 <__cxa_end_catch@plt>
  40bc99:	48 89 d8             	mov    %rbx,%rax
  40bc9c:	48 89 c7             	mov    %rax,%rdi
  40bc9f:	e8 ec 84 ff ff       	callq  404190 <_Unwind_Resume@plt>
  40bca4:	48 83 c4 38          	add    $0x38,%rsp
  40bca8:	5b                   	pop    %rbx
  40bca9:	5d                   	pop    %rbp
  40bcaa:	c3                   	retq   

000000000040bcab <_ZSt10_ConstructIN2cl8PlatformEJEEvPT_DpOT0_>:
  40bcab:	55                   	push   %rbp
  40bcac:	48 89 e5             	mov    %rsp,%rbp
  40bcaf:	48 83 ec 10          	sub    $0x10,%rsp
  40bcb3:	48 89 7d f8          	mov    %rdi,-0x8(%rbp)
  40bcb7:	48 8b 45 f8          	mov    -0x8(%rbp),%rax
  40bcbb:	48 89 c6             	mov    %rax,%rsi
  40bcbe:	bf 08 00 00 00       	mov    $0x8,%edi
  40bcc3:	e8 bf 91 ff ff       	callq  404e87 <_ZnwmPv>
  40bcc8:	48 85 c0             	test   %rax,%rax
  40bccb:	74 08                	je     40bcd5 <_ZSt10_ConstructIN2cl8PlatformEJEEvPT_DpOT0_+0x2a>
  40bccd:	48 89 c7             	mov    %rax,%rdi
  40bcd0:	e8 ef 99 ff ff       	callq  4056c4 <_ZN2cl8PlatformC1Ev>
  40bcd5:	90                   	nop
  40bcd6:	c9                   	leaveq 
  40bcd7:	c3                   	retq   

000000000040bcd8 <_ZNK9__gnu_cxx13new_allocatorIN2cl8PlatformEE8max_sizeEv>:
  40bcd8:	55                   	push   %rbp
  40bcd9:	48 89 e5             	mov    %rsp,%rbp
  40bcdc:	48 89 7d f8          	mov    %rdi,-0x8(%rbp)
  40bce0:	48 b8 ff ff ff ff ff 	movabs $0x1fffffffffffffff,%rax
  40bce7:	ff ff 1f 
  40bcea:	5d                   	pop    %rbp
  40bceb:	c3                   	retq   

000000000040bcec <_ZNSt20__uninitialized_copyILb0EE13__uninit_copyISt13move_iteratorIPN2cl8PlatformEES5_EET0_T_S8_S7_>:
  40bcec:	55                   	push   %rbp
  40bced:	48 89 e5             	mov    %rsp,%rbp
  40bcf0:	53                   	push   %rbx
  40bcf1:	48 83 ec 38          	sub    $0x38,%rsp
  40bcf5:	48 89 7d d8          	mov    %rdi,-0x28(%rbp)
  40bcf9:	48 89 75 d0          	mov    %rsi,-0x30(%rbp)
  40bcfd:	48 89 55 c8          	mov    %rdx,-0x38(%rbp)
  40bd01:	48 8b 45 c8          	mov    -0x38(%rbp),%rax
  40bd05:	48 89 45 e8          	mov    %rax,-0x18(%rbp)
  40bd09:	48 8d 55 d0          	lea    -0x30(%rbp),%rdx
  40bd0d:	48 8d 45 d8          	lea    -0x28(%rbp),%rax
  40bd11:	48 89 d6             	mov    %rdx,%rsi
  40bd14:	48 89 c7             	mov    %rax,%rdi
  40bd17:	e8 30 04 00 00       	callq  40c14c <_ZStneIPN2cl8PlatformEEbRKSt13move_iteratorIT_ES7_>
  40bd1c:	84 c0                	test   %al,%al
  40bd1e:	74 39                	je     40bd59 <_ZNSt20__uninitialized_copyILb0EE13__uninit_copyISt13move_iteratorIPN2cl8PlatformEES5_EET0_T_S8_S7_+0x6d>
  40bd20:	48 8d 45 d8          	lea    -0x28(%rbp),%rax
  40bd24:	48 89 c7             	mov    %rax,%rdi
  40bd27:	e8 68 04 00 00       	callq  40c194 <_ZNKSt13move_iteratorIPN2cl8PlatformEEdeEv>
  40bd2c:	48 89 c3             	mov    %rax,%rbx
  40bd2f:	48 8b 45 e8          	mov    -0x18(%rbp),%rax
  40bd33:	48 89 c7             	mov    %rax,%rdi
  40bd36:	e8 fc fa ff ff       	callq  40b837 <_ZSt11__addressofIN2cl8PlatformEEPT_RS2_>
  40bd3b:	48 89 de             	mov    %rbx,%rsi
  40bd3e:	48 89 c7             	mov    %rax,%rdi
  40bd41:	e8 6d 04 00 00       	callq  40c1b3 <_ZSt10_ConstructIN2cl8PlatformEJS1_EEvPT_DpOT0_>
  40bd46:	48 8d 45 d8          	lea    -0x28(%rbp),%rax
  40bd4a:	48 89 c7             	mov    %rax,%rdi
  40bd4d:	e8 22 04 00 00       	callq  40c174 <_ZNSt13move_iteratorIPN2cl8PlatformEEppEv>
  40bd52:	48 83 45 e8 08       	addq   $0x8,-0x18(%rbp)
  40bd57:	eb b0                	jmp    40bd09 <_ZNSt20__uninitialized_copyILb0EE13__uninit_copyISt13move_iteratorIPN2cl8PlatformEES5_EET0_T_S8_S7_+0x1d>
  40bd59:	48 8b 45 e8          	mov    -0x18(%rbp),%rax
  40bd5d:	eb 33                	jmp    40bd92 <_ZNSt20__uninitialized_copyILb0EE13__uninit_copyISt13move_iteratorIPN2cl8PlatformEES5_EET0_T_S8_S7_+0xa6>
  40bd5f:	48 89 c7             	mov    %rax,%rdi
  40bd62:	e8 59 80 ff ff       	callq  403dc0 <__cxa_begin_catch@plt>
  40bd67:	48 8b 55 e8          	mov    -0x18(%rbp),%rdx
  40bd6b:	48 8b 45 c8          	mov    -0x38(%rbp),%rax
  40bd6f:	48 89 d6             	mov    %rdx,%rsi
  40bd72:	48 89 c7             	mov    %rax,%rdi
  40bd75:	e8 df ea ff ff       	callq  40a859 <_ZSt8_DestroyIPN2cl8PlatformEEvT_S3_>
  40bd7a:	e8 f1 82 ff ff       	callq  404070 <__cxa_rethrow@plt>
  40bd7f:	48 89 c3             	mov    %rax,%rbx
  40bd82:	e8 89 83 ff ff       	callq  404110 <__cxa_end_catch@plt>
  40bd87:	48 89 d8             	mov    %rbx,%rax
  40bd8a:	48 89 c7             	mov    %rax,%rdi
  40bd8d:	e8 fe 83 ff ff       	callq  404190 <_Unwind_Resume@plt>
  40bd92:	48 83 c4 38          	add    $0x38,%rsp
  40bd96:	5b                   	pop    %rbx
  40bd97:	5d                   	pop    %rbp
  40bd98:	c3                   	retq   

000000000040bd99 <_ZN11arm_compute7utility8for_eachIRZNS_18IncrementIteratorsILm5EE6unrollIRNS_8IteratorEJEEEvOT_DpOT0_EUlS6_E_EEvS8_>:
  40bd99:	55                   	push   %rbp
  40bd9a:	48 89 e5             	mov    %rsp,%rbp
  40bd9d:	48 89 7d f8          	mov    %rdi,-0x8(%rbp)
  40bda1:	90                   	nop
  40bda2:	5d                   	pop    %rbp
  40bda3:	c3                   	retq   

000000000040bda4 <_ZSt7forwardIRZN11arm_compute18IncrementIteratorsILm4EE6unrollIRNS0_8IteratorEJEEEvOT_DpOT0_EUlS5_E_ES7_RNSt16remove_referenceIS6_E4typeE>:
  40bda4:	55                   	push   %rbp
  40bda5:	48 89 e5             	mov    %rsp,%rbp
  40bda8:	48 89 7d f8          	mov    %rdi,-0x8(%rbp)
  40bdac:	48 8b 45 f8          	mov    -0x8(%rbp),%rax
  40bdb0:	5d                   	pop    %rbp
  40bdb1:	c3                   	retq   

000000000040bdb2 <_ZN11arm_compute7utility8for_eachIRZNS_18IncrementIteratorsILm4EE6unrollIRNS_8IteratorEJEEEvOT_DpOT0_EUlS6_E_S6_JEEEvS8_OT0_DpOT1_>:
  40bdb2:	55                   	push   %rbp
  40bdb3:	48 89 e5             	mov    %rsp,%rbp
  40bdb6:	48 83 ec 10          	sub    $0x10,%rsp
  40bdba:	48 89 7d f8          	mov    %rdi,-0x8(%rbp)
  40bdbe:	48 89 75 f0          	mov    %rsi,-0x10(%rbp)
  40bdc2:	48 8b 45 f0          	mov    -0x10(%rbp),%rax
  40bdc6:	48 89 c7             	mov    %rax,%rdi
  40bdc9:	e8 f2 e2 ff ff       	callq  40a0c0 <_ZSt7forwardIRN11arm_compute8IteratorEEOT_RNSt16remove_referenceIS3_E4typeE>
  40bdce:	48 89 c2             	mov    %rax,%rdx
  40bdd1:	48 8b 45 f8          	mov    -0x8(%rbp),%rax
  40bdd5:	48 89 d6             	mov    %rdx,%rsi
  40bdd8:	48 89 c7             	mov    %rax,%rdi
  40bddb:	e8 18 fb ff ff       	callq  40b8f8 <_ZZN11arm_compute18IncrementIteratorsILm4EE6unrollIRNS_8IteratorEJEEEvOT_DpOT0_ENKUlS4_E_clES4_>
  40bde0:	48 8b 45 f8          	mov    -0x8(%rbp),%rax
  40bde4:	48 89 c7             	mov    %rax,%rdi
  40bde7:	e8 b8 ff ff ff       	callq  40bda4 <_ZSt7forwardIRZN11arm_compute18IncrementIteratorsILm4EE6unrollIRNS0_8IteratorEJEEEvOT_DpOT0_EUlS5_E_ES7_RNSt16remove_referenceIS6_E4typeE>
  40bdec:	48 89 c7             	mov    %rax,%rdi
  40bdef:	e8 08 04 00 00       	callq  40c1fc <_ZN11arm_compute7utility8for_eachIRZNS_18IncrementIteratorsILm4EE6unrollIRNS_8IteratorEJEEEvOT_DpOT0_EUlS6_E_EEvS8_>
  40bdf4:	90                   	nop
  40bdf5:	c9                   	leaveq 
  40bdf6:	c3                   	retq   
  40bdf7:	90                   	nop

000000000040bdf8 <_ZZN11arm_compute18IncrementIteratorsILm3EE6unrollIRNS_8IteratorEJEEEvOT_DpOT0_ENKUlS4_E_clES4_>:
  40bdf8:	55                   	push   %rbp
  40bdf9:	48 89 e5             	mov    %rsp,%rbp
  40bdfc:	48 83 ec 10          	sub    $0x10,%rsp
  40be00:	48 89 7d f8          	mov    %rdi,-0x8(%rbp)
  40be04:	48 89 75 f0          	mov    %rsi,-0x10(%rbp)
  40be08:	48 8b 45 f0          	mov    -0x10(%rbp),%rax
  40be0c:	be 03 00 00 00       	mov    $0x3,%esi
  40be11:	48 89 c7             	mov    %rax,%rdi
  40be14:	e8 b3 b0 ff ff       	callq  406ecc <_ZN11arm_compute8Iterator9incrementEm>
  40be19:	90                   	nop
  40be1a:	c9                   	leaveq 
  40be1b:	c3                   	retq   

000000000040be1c <_ZZN11arm_compute18IncrementIteratorsILm3EE6unrollIRNS_8IteratorEJEEEvOT_DpOT0_ENUlS4_E_4_FUNES4_>:
  40be1c:	55                   	push   %rbp
  40be1d:	48 89 e5             	mov    %rsp,%rbp
  40be20:	48 83 ec 10          	sub    $0x10,%rsp
  40be24:	48 89 7d f8          	mov    %rdi,-0x8(%rbp)
  40be28:	48 8b 45 f8          	mov    -0x8(%rbp),%rax
  40be2c:	48 89 c6             	mov    %rax,%rsi
  40be2f:	bf 00 00 00 00       	mov    $0x0,%edi
  40be34:	e8 bf ff ff ff       	callq  40bdf8 <_ZZN11arm_compute18IncrementIteratorsILm3EE6unrollIRNS_8IteratorEJEEEvOT_DpOT0_ENKUlS4_E_clES4_>
  40be39:	c9                   	leaveq 
  40be3a:	c3                   	retq   

000000000040be3b <_ZN11arm_compute18IncrementIteratorsILm3EE6unrollIRNS_8IteratorEJEEEvOT_DpOT0_>:
  40be3b:	55                   	push   %rbp
  40be3c:	48 89 e5             	mov    %rsp,%rbp
  40be3f:	48 83 ec 20          	sub    $0x20,%rsp
  40be43:	48 89 7d e8          	mov    %rdi,-0x18(%rbp)
  40be47:	64 48 8b 04 25 28 00 	mov    %fs:0x28,%rax
  40be4e:	00 00 
  40be50:	48 89 45 f8          	mov    %rax,-0x8(%rbp)
  40be54:	31 c0                	xor    %eax,%eax
  40be56:	48 8b 45 e8          	mov    -0x18(%rbp),%rax
  40be5a:	48 89 c7             	mov    %rax,%rdi
  40be5d:	e8 5e e2 ff ff       	callq  40a0c0 <_ZSt7forwardIRN11arm_compute8IteratorEEOT_RNSt16remove_referenceIS3_E4typeE>
  40be62:	48 89 c2             	mov    %rax,%rdx
  40be65:	48 8d 45 f7          	lea    -0x9(%rbp),%rax
  40be69:	48 89 d6             	mov    %rdx,%rsi
  40be6c:	48 89 c7             	mov    %rax,%rdi
  40be6f:	e8 a1 03 00 00       	callq  40c215 <_ZN11arm_compute7utility8for_eachIRZNS_18IncrementIteratorsILm3EE6unrollIRNS_8IteratorEJEEEvOT_DpOT0_EUlS6_E_S6_JEEEvS8_OT0_DpOT1_>
  40be74:	90                   	nop
  40be75:	48 8b 45 f8          	mov    -0x8(%rbp),%rax
  40be79:	64 48 33 04 25 28 00 	xor    %fs:0x28,%rax
  40be80:	00 00 
  40be82:	74 05                	je     40be89 <_ZN11arm_compute18IncrementIteratorsILm3EE6unrollIRNS_8IteratorEJEEEvOT_DpOT0_+0x4e>
  40be84:	e8 a7 80 ff ff       	callq  403f30 <__stack_chk_fail@plt>
  40be89:	c9                   	leaveq 
  40be8a:	c3                   	retq   

000000000040be8b <_ZN11arm_compute16ForEachDimensionILm3EE6unrollIRZN2CK5armcl23copy_raw_data_to_tensorIfEEvPNS_8CLTensorEPT_RKNS3_5ShapeEEUlRKNS_11CoordinatesEE_JRNS_8IteratorEEEEvRKNS_6WindowERSD_OS8_DpOT0_>:
  40be8b:	55                   	push   %rbp
  40be8c:	48 89 e5             	mov    %rsp,%rbp
  40be8f:	48 83 ec 30          	sub    $0x30,%rsp
  40be93:	48 89 7d e8          	mov    %rdi,-0x18(%rbp)
  40be97:	48 89 75 e0          	mov    %rsi,-0x20(%rbp)
  40be9b:	48 89 55 d8          	mov    %rdx,-0x28(%rbp)
  40be9f:	48 89 4d d0          	mov    %rcx,-0x30(%rbp)
  40bea3:	48 8b 45 e8          	mov    -0x18(%rbp),%rax
  40bea7:	be 02 00 00 00       	mov    $0x2,%esi
  40beac:	48 89 c7             	mov    %rax,%rdi
  40beaf:	e8 08 ac ff ff       	callq  406abc <_ZNK11arm_compute6WindowixEm>
  40beb4:	48 89 45 f8          	mov    %rax,-0x8(%rbp)
  40beb8:	48 8b 45 f8          	mov    -0x8(%rbp),%rax
  40bebc:	48 89 c7             	mov    %rax,%rdi
  40bebf:	e8 54 ab ff ff       	callq  406a18 <_ZNK11arm_compute6Window9Dimension5startEv>
  40bec4:	89 45 f4             	mov    %eax,-0xc(%rbp)
  40bec7:	48 8b 45 f8          	mov    -0x8(%rbp),%rax
  40becb:	48 89 c7             	mov    %rax,%rdi
  40bece:	e8 55 ab ff ff       	callq  406a28 <_ZNK11arm_compute6Window9Dimension3endEv>
  40bed3:	3b 45 f4             	cmp    -0xc(%rbp),%eax
  40bed6:	0f 9f c0             	setg   %al
  40bed9:	84 c0                	test   %al,%al
  40bedb:	74 49                	je     40bf26 <_ZN11arm_compute16ForEachDimensionILm3EE6unrollIRZN2CK5armcl23copy_raw_data_to_tensorIfEEvPNS_8CLTensorEPT_RKNS3_5ShapeEEUlRKNS_11CoordinatesEE_JRNS_8IteratorEEEEvRKNS_6WindowERSD_OS8_DpOT0_+0x9b>
  40bedd:	48 8b 45 e0          	mov    -0x20(%rbp),%rax
  40bee1:	8b 55 f4             	mov    -0xc(%rbp),%edx
  40bee4:	be 02 00 00 00       	mov    $0x2,%esi
  40bee9:	48 89 c7             	mov    %rax,%rdi
  40beec:	e8 9d ca ff ff       	callq  40898e <_ZN11arm_compute10DimensionsIiE3setEmi>
  40bef1:	48 8b 4d d0          	mov    -0x30(%rbp),%rcx
  40bef5:	48 8b 55 d8          	mov    -0x28(%rbp),%rdx
  40bef9:	48 8b 75 e0          	mov    -0x20(%rbp),%rsi
  40befd:	48 8b 45 e8          	mov    -0x18(%rbp),%rax
  40bf01:	48 89 c7             	mov    %rax,%rdi
  40bf04:	e8 e4 03 00 00       	callq  40c2ed <_ZN11arm_compute16ForEachDimensionILm2EE6unrollIRZN2CK5armcl23copy_raw_data_to_tensorIfEEvPNS_8CLTensorEPT_RKNS3_5ShapeEEUlRKNS_11CoordinatesEE_JRNS_8IteratorEEEEvRKNS_6WindowERSD_OS8_DpOT0_>
  40bf09:	48 8b 45 f8          	mov    -0x8(%rbp),%rax
  40bf0d:	48 89 c7             	mov    %rax,%rdi
  40bf10:	e8 25 ab ff ff       	callq  406a3a <_ZNK11arm_compute6Window9Dimension4stepEv>
  40bf15:	01 45 f4             	add    %eax,-0xc(%rbp)
  40bf18:	48 8b 45 d0          	mov    -0x30(%rbp),%rax
  40bf1c:	48 89 c7             	mov    %rax,%rdi
  40bf1f:	e8 79 03 00 00       	callq  40c29d <_ZN11arm_compute18IncrementIteratorsILm2EE6unrollIRNS_8IteratorEJEEEvOT_DpOT0_>
  40bf24:	eb a1                	jmp    40bec7 <_ZN11arm_compute16ForEachDimensionILm3EE6unrollIRZN2CK5armcl23copy_raw_data_to_tensorIfEEvPNS_8CLTensorEPT_RKNS3_5ShapeEEUlRKNS_11CoordinatesEE_JRNS_8IteratorEEEEvRKNS_6WindowERSD_OS8_DpOT0_+0x3c>
  40bf26:	90                   	nop
  40bf27:	c9                   	leaveq 
  40bf28:	c3                   	retq   

000000000040bf29 <_ZN11arm_compute16ForEachDimensionILm3EE6unrollIRZN2CK5armcl25copy_raw_data_from_tensorIfEEvPNS_8CLTensorEPT_RKNS3_5ShapeEEUlRKNS_11CoordinatesEE_JRNS_8IteratorEEEEvRKNS_6WindowERSD_OS8_DpOT0_>:
  40bf29:	55                   	push   %rbp
  40bf2a:	48 89 e5             	mov    %rsp,%rbp
  40bf2d:	48 83 ec 30          	sub    $0x30,%rsp
  40bf31:	48 89 7d e8          	mov    %rdi,-0x18(%rbp)
  40bf35:	48 89 75 e0          	mov    %rsi,-0x20(%rbp)
  40bf39:	48 89 55 d8          	mov    %rdx,-0x28(%rbp)
  40bf3d:	48 89 4d d0          	mov    %rcx,-0x30(%rbp)
  40bf41:	48 8b 45 e8          	mov    -0x18(%rbp),%rax
  40bf45:	be 02 00 00 00       	mov    $0x2,%esi
  40bf4a:	48 89 c7             	mov    %rax,%rdi
  40bf4d:	e8 6a ab ff ff       	callq  406abc <_ZNK11arm_compute6WindowixEm>
  40bf52:	48 89 45 f8          	mov    %rax,-0x8(%rbp)
  40bf56:	48 8b 45 f8          	mov    -0x8(%rbp),%rax
  40bf5a:	48 89 c7             	mov    %rax,%rdi
  40bf5d:	e8 b6 aa ff ff       	callq  406a18 <_ZNK11arm_compute6Window9Dimension5startEv>
  40bf62:	89 45 f4             	mov    %eax,-0xc(%rbp)
  40bf65:	48 8b 45 f8          	mov    -0x8(%rbp),%rax
  40bf69:	48 89 c7             	mov    %rax,%rdi
  40bf6c:	e8 b7 aa ff ff       	callq  406a28 <_ZNK11arm_compute6Window9Dimension3endEv>
  40bf71:	3b 45 f4             	cmp    -0xc(%rbp),%eax
  40bf74:	0f 9f c0             	setg   %al
  40bf77:	84 c0                	test   %al,%al
  40bf79:	74 49                	je     40bfc4 <_ZN11arm_compute16ForEachDimensionILm3EE6unrollIRZN2CK5armcl25copy_raw_data_from_tensorIfEEvPNS_8CLTensorEPT_RKNS3_5ShapeEEUlRKNS_11CoordinatesEE_JRNS_8IteratorEEEEvRKNS_6WindowERSD_OS8_DpOT0_+0x9b>
  40bf7b:	48 8b 45 e0          	mov    -0x20(%rbp),%rax
  40bf7f:	8b 55 f4             	mov    -0xc(%rbp),%edx
  40bf82:	be 02 00 00 00       	mov    $0x2,%esi
  40bf87:	48 89 c7             	mov    %rax,%rdi
  40bf8a:	e8 ff c9 ff ff       	callq  40898e <_ZN11arm_compute10DimensionsIiE3setEmi>
  40bf8f:	48 8b 4d d0          	mov    -0x30(%rbp),%rcx
  40bf93:	48 8b 55 d8          	mov    -0x28(%rbp),%rdx
  40bf97:	48 8b 75 e0          	mov    -0x20(%rbp),%rsi
  40bf9b:	48 8b 45 e8          	mov    -0x18(%rbp),%rax
  40bf9f:	48 89 c7             	mov    %rax,%rdi
  40bfa2:	e8 e4 03 00 00       	callq  40c38b <_ZN11arm_compute16ForEachDimensionILm2EE6unrollIRZN2CK5armcl25copy_raw_data_from_tensorIfEEvPNS_8CLTensorEPT_RKNS3_5ShapeEEUlRKNS_11CoordinatesEE_JRNS_8IteratorEEEEvRKNS_6WindowERSD_OS8_DpOT0_>
  40bfa7:	48 8b 45 f8          	mov    -0x8(%rbp),%rax
  40bfab:	48 89 c7             	mov    %rax,%rdi
  40bfae:	e8 87 aa ff ff       	callq  406a3a <_ZNK11arm_compute6Window9Dimension4stepEv>
  40bfb3:	01 45 f4             	add    %eax,-0xc(%rbp)
  40bfb6:	48 8b 45 d0          	mov    -0x30(%rbp),%rax
  40bfba:	48 89 c7             	mov    %rax,%rdi
  40bfbd:	e8 db 02 00 00       	callq  40c29d <_ZN11arm_compute18IncrementIteratorsILm2EE6unrollIRNS_8IteratorEJEEEvOT_DpOT0_>
  40bfc2:	eb a1                	jmp    40bf65 <_ZN11arm_compute16ForEachDimensionILm3EE6unrollIRZN2CK5armcl25copy_raw_data_from_tensorIfEEvPNS_8CLTensorEPT_RKNS3_5ShapeEEUlRKNS_11CoordinatesEE_JRNS_8IteratorEEEEvRKNS_6WindowERSD_OS8_DpOT0_+0x3c>
  40bfc4:	90                   	nop
  40bfc5:	c9                   	leaveq 
  40bfc6:	c3                   	retq   
  40bfc7:	90                   	nop

000000000040bfc8 <_ZNK9__gnu_cxx13new_allocatorIP15_cl_platform_idE8max_sizeEv>:
  40bfc8:	55                   	push   %rbp
  40bfc9:	48 89 e5             	mov    %rsp,%rbp
  40bfcc:	48 89 7d f8          	mov    %rdi,-0x8(%rbp)
  40bfd0:	48 b8 ff ff ff ff ff 	movabs $0x1fffffffffffffff,%rax
  40bfd7:	ff ff 1f 
  40bfda:	5d                   	pop    %rbp
  40bfdb:	c3                   	retq   

000000000040bfdc <_ZSt12__niter_baseIPP15_cl_platform_idET_S3_>:
  40bfdc:	55                   	push   %rbp
  40bfdd:	48 89 e5             	mov    %rsp,%rbp
  40bfe0:	48 89 7d f8          	mov    %rdi,-0x8(%rbp)
  40bfe4:	48 8b 45 f8          	mov    -0x8(%rbp),%rax
  40bfe8:	5d                   	pop    %rbp
  40bfe9:	c3                   	retq   

000000000040bfea <_ZSt10__fill_n_aIPP15_cl_platform_idmS1_EN9__gnu_cxx11__enable_ifIXsrSt11__is_scalarIT1_E7__valueET_E6__typeES8_T0_RKS6_>:
  40bfea:	55                   	push   %rbp
  40bfeb:	48 89 e5             	mov    %rsp,%rbp
  40bfee:	48 89 7d e8          	mov    %rdi,-0x18(%rbp)
  40bff2:	48 89 75 e0          	mov    %rsi,-0x20(%rbp)
  40bff6:	48 89 55 d8          	mov    %rdx,-0x28(%rbp)
  40bffa:	48 8b 45 d8          	mov    -0x28(%rbp),%rax
  40bffe:	48 8b 00             	mov    (%rax),%rax
  40c001:	48 89 45 f8          	mov    %rax,-0x8(%rbp)
  40c005:	48 8b 45 e0          	mov    -0x20(%rbp),%rax
  40c009:	48 89 45 f0          	mov    %rax,-0x10(%rbp)
  40c00d:	48 83 7d f0 00       	cmpq   $0x0,-0x10(%rbp)
  40c012:	74 17                	je     40c02b <_ZSt10__fill_n_aIPP15_cl_platform_idmS1_EN9__gnu_cxx11__enable_ifIXsrSt11__is_scalarIT1_E7__valueET_E6__typeES8_T0_RKS6_+0x41>
  40c014:	48 8b 45 e8          	mov    -0x18(%rbp),%rax
  40c018:	48 8b 55 f8          	mov    -0x8(%rbp),%rdx
  40c01c:	48 89 10             	mov    %rdx,(%rax)
  40c01f:	48 83 6d f0 01       	subq   $0x1,-0x10(%rbp)
  40c024:	48 83 45 e8 08       	addq   $0x8,-0x18(%rbp)
  40c029:	eb e2                	jmp    40c00d <_ZSt10__fill_n_aIPP15_cl_platform_idmS1_EN9__gnu_cxx11__enable_ifIXsrSt11__is_scalarIT1_E7__valueET_E6__typeES8_T0_RKS6_+0x23>
  40c02b:	48 8b 45 e8          	mov    -0x18(%rbp),%rax
  40c02f:	5d                   	pop    %rbp
  40c030:	c3                   	retq   
  40c031:	90                   	nop

000000000040c032 <_ZNK9__gnu_cxx13new_allocatorIP13_cl_device_idE8max_sizeEv>:
  40c032:	55                   	push   %rbp
  40c033:	48 89 e5             	mov    %rsp,%rbp
  40c036:	48 89 7d f8          	mov    %rdi,-0x8(%rbp)
  40c03a:	48 b8 ff ff ff ff ff 	movabs $0x1fffffffffffffff,%rax
  40c041:	ff ff 1f 
  40c044:	5d                   	pop    %rbp
  40c045:	c3                   	retq   

000000000040c046 <_ZSt12__niter_baseIPP13_cl_device_idET_S3_>:
  40c046:	55                   	push   %rbp
  40c047:	48 89 e5             	mov    %rsp,%rbp
  40c04a:	48 89 7d f8          	mov    %rdi,-0x8(%rbp)
  40c04e:	48 8b 45 f8          	mov    -0x8(%rbp),%rax
  40c052:	5d                   	pop    %rbp
  40c053:	c3                   	retq   

000000000040c054 <_ZSt10__fill_n_aIPP13_cl_device_idmS1_EN9__gnu_cxx11__enable_ifIXsrSt11__is_scalarIT1_E7__valueET_E6__typeES8_T0_RKS6_>:
  40c054:	55                   	push   %rbp
  40c055:	48 89 e5             	mov    %rsp,%rbp
  40c058:	48 89 7d e8          	mov    %rdi,-0x18(%rbp)
  40c05c:	48 89 75 e0          	mov    %rsi,-0x20(%rbp)
  40c060:	48 89 55 d8          	mov    %rdx,-0x28(%rbp)
  40c064:	48 8b 45 d8          	mov    -0x28(%rbp),%rax
  40c068:	48 8b 00             	mov    (%rax),%rax
  40c06b:	48 89 45 f8          	mov    %rax,-0x8(%rbp)
  40c06f:	48 8b 45 e0          	mov    -0x20(%rbp),%rax
  40c073:	48 89 45 f0          	mov    %rax,-0x10(%rbp)
  40c077:	48 83 7d f0 00       	cmpq   $0x0,-0x10(%rbp)
  40c07c:	74 17                	je     40c095 <_ZSt10__fill_n_aIPP13_cl_device_idmS1_EN9__gnu_cxx11__enable_ifIXsrSt11__is_scalarIT1_E7__valueET_E6__typeES8_T0_RKS6_+0x41>
  40c07e:	48 8b 45 e8          	mov    -0x18(%rbp),%rax
  40c082:	48 8b 55 f8          	mov    -0x8(%rbp),%rdx
  40c086:	48 89 10             	mov    %rdx,(%rax)
  40c089:	48 83 6d f0 01       	subq   $0x1,-0x10(%rbp)
  40c08e:	48 83 45 e8 08       	addq   $0x8,-0x18(%rbp)
  40c093:	eb e2                	jmp    40c077 <_ZSt10__fill_n_aIPP13_cl_device_idmS1_EN9__gnu_cxx11__enable_ifIXsrSt11__is_scalarIT1_E7__valueET_E6__typeES8_T0_RKS6_+0x23>
  40c095:	48 8b 45 e8          	mov    -0x18(%rbp),%rax
  40c099:	5d                   	pop    %rbp
  40c09a:	c3                   	retq   

000000000040c09b <_ZStneIPN2cl6DeviceEEbRKSt13move_iteratorIT_ES7_>:
  40c09b:	55                   	push   %rbp
  40c09c:	48 89 e5             	mov    %rsp,%rbp
  40c09f:	48 83 ec 10          	sub    $0x10,%rsp
  40c0a3:	48 89 7d f8          	mov    %rdi,-0x8(%rbp)
  40c0a7:	48 89 75 f0          	mov    %rsi,-0x10(%rbp)
  40c0ab:	48 8b 55 f0          	mov    -0x10(%rbp),%rdx
  40c0af:	48 8b 45 f8          	mov    -0x8(%rbp),%rax
  40c0b3:	48 89 d6             	mov    %rdx,%rsi
  40c0b6:	48 89 c7             	mov    %rax,%rdi
  40c0b9:	e8 6b 03 00 00       	callq  40c429 <_ZSteqIPN2cl6DeviceEEbRKSt13move_iteratorIT_ES7_>
  40c0be:	83 f0 01             	xor    $0x1,%eax
  40c0c1:	c9                   	leaveq 
  40c0c2:	c3                   	retq   
  40c0c3:	90                   	nop

000000000040c0c4 <_ZNSt13move_iteratorIPN2cl6DeviceEEppEv>:
  40c0c4:	55                   	push   %rbp
  40c0c5:	48 89 e5             	mov    %rsp,%rbp
  40c0c8:	48 89 7d f8          	mov    %rdi,-0x8(%rbp)
  40c0cc:	48 8b 45 f8          	mov    -0x8(%rbp),%rax
  40c0d0:	48 8b 00             	mov    (%rax),%rax
  40c0d3:	48 8d 50 10          	lea    0x10(%rax),%rdx
  40c0d7:	48 8b 45 f8          	mov    -0x8(%rbp),%rax
  40c0db:	48 89 10             	mov    %rdx,(%rax)
  40c0de:	48 8b 45 f8          	mov    -0x8(%rbp),%rax
  40c0e2:	5d                   	pop    %rbp
  40c0e3:	c3                   	retq   

000000000040c0e4 <_ZNKSt13move_iteratorIPN2cl6DeviceEEdeEv>:
  40c0e4:	55                   	push   %rbp
  40c0e5:	48 89 e5             	mov    %rsp,%rbp
  40c0e8:	48 89 7d f8          	mov    %rdi,-0x8(%rbp)
  40c0ec:	48 8b 45 f8          	mov    -0x8(%rbp),%rax
  40c0f0:	48 8b 00             	mov    (%rax),%rax
  40c0f3:	5d                   	pop    %rbp
  40c0f4:	c3                   	retq   

000000000040c0f5 <_ZSt7forwardIN2cl6DeviceEEOT_RNSt16remove_referenceIS2_E4typeE>:
  40c0f5:	55                   	push   %rbp
  40c0f6:	48 89 e5             	mov    %rsp,%rbp
  40c0f9:	48 89 7d f8          	mov    %rdi,-0x8(%rbp)
  40c0fd:	48 8b 45 f8          	mov    -0x8(%rbp),%rax
  40c101:	5d                   	pop    %rbp
  40c102:	c3                   	retq   

000000000040c103 <_ZSt10_ConstructIN2cl6DeviceEJS1_EEvPT_DpOT0_>:
  40c103:	55                   	push   %rbp
  40c104:	48 89 e5             	mov    %rsp,%rbp
  40c107:	53                   	push   %rbx
  40c108:	48 83 ec 18          	sub    $0x18,%rsp
  40c10c:	48 89 7d e8          	mov    %rdi,-0x18(%rbp)
  40c110:	48 89 75 e0          	mov    %rsi,-0x20(%rbp)
  40c114:	48 8b 45 e0          	mov    -0x20(%rbp),%rax
  40c118:	48 89 c7             	mov    %rax,%rdi
  40c11b:	e8 d5 ff ff ff       	callq  40c0f5 <_ZSt7forwardIN2cl6DeviceEEOT_RNSt16remove_referenceIS2_E4typeE>
  40c120:	48 89 c3             	mov    %rax,%rbx
  40c123:	48 8b 45 e8          	mov    -0x18(%rbp),%rax
  40c127:	48 89 c6             	mov    %rax,%rsi
  40c12a:	bf 10 00 00 00       	mov    $0x10,%edi
  40c12f:	e8 53 8d ff ff       	callq  404e87 <_ZnwmPv>
  40c134:	48 85 c0             	test   %rax,%rax
  40c137:	74 0b                	je     40c144 <_ZSt10_ConstructIN2cl6DeviceEJS1_EEvPT_DpOT0_+0x41>
  40c139:	48 89 de             	mov    %rbx,%rsi
  40c13c:	48 89 c7             	mov    %rax,%rdi
  40c13f:	e8 16 93 ff ff       	callq  40545a <_ZN2cl6DeviceC1EOS0_>
  40c144:	90                   	nop
  40c145:	48 83 c4 18          	add    $0x18,%rsp
  40c149:	5b                   	pop    %rbx
  40c14a:	5d                   	pop    %rbp
  40c14b:	c3                   	retq   

000000000040c14c <_ZStneIPN2cl8PlatformEEbRKSt13move_iteratorIT_ES7_>:
  40c14c:	55                   	push   %rbp
  40c14d:	48 89 e5             	mov    %rsp,%rbp
  40c150:	48 83 ec 10          	sub    $0x10,%rsp
  40c154:	48 89 7d f8          	mov    %rdi,-0x8(%rbp)
  40c158:	48 89 75 f0          	mov    %rsi,-0x10(%rbp)
  40c15c:	48 8b 55 f0          	mov    -0x10(%rbp),%rdx
  40c160:	48 8b 45 f8          	mov    -0x8(%rbp),%rax
  40c164:	48 89 d6             	mov    %rdx,%rsi
  40c167:	48 89 c7             	mov    %rax,%rdi
  40c16a:	e8 f3 02 00 00       	callq  40c462 <_ZSteqIPN2cl8PlatformEEbRKSt13move_iteratorIT_ES7_>
  40c16f:	83 f0 01             	xor    $0x1,%eax
  40c172:	c9                   	leaveq 
  40c173:	c3                   	retq   

000000000040c174 <_ZNSt13move_iteratorIPN2cl8PlatformEEppEv>:
  40c174:	55                   	push   %rbp
  40c175:	48 89 e5             	mov    %rsp,%rbp
  40c178:	48 89 7d f8          	mov    %rdi,-0x8(%rbp)
  40c17c:	48 8b 45 f8          	mov    -0x8(%rbp),%rax
  40c180:	48 8b 00             	mov    (%rax),%rax
  40c183:	48 8d 50 08          	lea    0x8(%rax),%rdx
  40c187:	48 8b 45 f8          	mov    -0x8(%rbp),%rax
  40c18b:	48 89 10             	mov    %rdx,(%rax)
  40c18e:	48 8b 45 f8          	mov    -0x8(%rbp),%rax
  40c192:	5d                   	pop    %rbp
  40c193:	c3                   	retq   

000000000040c194 <_ZNKSt13move_iteratorIPN2cl8PlatformEEdeEv>:
  40c194:	55                   	push   %rbp
  40c195:	48 89 e5             	mov    %rsp,%rbp
  40c198:	48 89 7d f8          	mov    %rdi,-0x8(%rbp)
  40c19c:	48 8b 45 f8          	mov    -0x8(%rbp),%rax
  40c1a0:	48 8b 00             	mov    (%rax),%rax
  40c1a3:	5d                   	pop    %rbp
  40c1a4:	c3                   	retq   

000000000040c1a5 <_ZSt7forwardIN2cl8PlatformEEOT_RNSt16remove_referenceIS2_E4typeE>:
  40c1a5:	55                   	push   %rbp
  40c1a6:	48 89 e5             	mov    %rsp,%rbp
  40c1a9:	48 89 7d f8          	mov    %rdi,-0x8(%rbp)
  40c1ad:	48 8b 45 f8          	mov    -0x8(%rbp),%rax
  40c1b1:	5d                   	pop    %rbp
  40c1b2:	c3                   	retq   

000000000040c1b3 <_ZSt10_ConstructIN2cl8PlatformEJS1_EEvPT_DpOT0_>:
  40c1b3:	55                   	push   %rbp
  40c1b4:	48 89 e5             	mov    %rsp,%rbp
  40c1b7:	53                   	push   %rbx
  40c1b8:	48 83 ec 18          	sub    $0x18,%rsp
  40c1bc:	48 89 7d e8          	mov    %rdi,-0x18(%rbp)
  40c1c0:	48 89 75 e0          	mov    %rsi,-0x20(%rbp)
  40c1c4:	48 8b 45 e0          	mov    -0x20(%rbp),%rax
  40c1c8:	48 89 c7             	mov    %rax,%rdi
  40c1cb:	e8 d5 ff ff ff       	callq  40c1a5 <_ZSt7forwardIN2cl8PlatformEEOT_RNSt16remove_referenceIS2_E4typeE>
  40c1d0:	48 89 c3             	mov    %rax,%rbx
  40c1d3:	48 8b 45 e8          	mov    -0x18(%rbp),%rax
  40c1d7:	48 89 c6             	mov    %rax,%rsi
  40c1da:	bf 08 00 00 00       	mov    $0x8,%edi
  40c1df:	e8 a3 8c ff ff       	callq  404e87 <_ZnwmPv>
  40c1e4:	48 85 c0             	test   %rax,%rax
  40c1e7:	74 0b                	je     40c1f4 <_ZSt10_ConstructIN2cl8PlatformEJS1_EEvPT_DpOT0_+0x41>
  40c1e9:	48 89 de             	mov    %rbx,%rsi
  40c1ec:	48 89 c7             	mov    %rax,%rdi
  40c1ef:	e8 c6 99 ff ff       	callq  405bba <_ZN2cl8PlatformC1EOS0_>
  40c1f4:	90                   	nop
  40c1f5:	48 83 c4 18          	add    $0x18,%rsp
  40c1f9:	5b                   	pop    %rbx
  40c1fa:	5d                   	pop    %rbp
  40c1fb:	c3                   	retq   

000000000040c1fc <_ZN11arm_compute7utility8for_eachIRZNS_18IncrementIteratorsILm4EE6unrollIRNS_8IteratorEJEEEvOT_DpOT0_EUlS6_E_EEvS8_>:
  40c1fc:	55                   	push   %rbp
  40c1fd:	48 89 e5             	mov    %rsp,%rbp
  40c200:	48 89 7d f8          	mov    %rdi,-0x8(%rbp)
  40c204:	90                   	nop
  40c205:	5d                   	pop    %rbp
  40c206:	c3                   	retq   

000000000040c207 <_ZSt7forwardIRZN11arm_compute18IncrementIteratorsILm3EE6unrollIRNS0_8IteratorEJEEEvOT_DpOT0_EUlS5_E_ES7_RNSt16remove_referenceIS6_E4typeE>:
  40c207:	55                   	push   %rbp
  40c208:	48 89 e5             	mov    %rsp,%rbp
  40c20b:	48 89 7d f8          	mov    %rdi,-0x8(%rbp)
  40c20f:	48 8b 45 f8          	mov    -0x8(%rbp),%rax
  40c213:	5d                   	pop    %rbp
  40c214:	c3                   	retq   

000000000040c215 <_ZN11arm_compute7utility8for_eachIRZNS_18IncrementIteratorsILm3EE6unrollIRNS_8IteratorEJEEEvOT_DpOT0_EUlS6_E_S6_JEEEvS8_OT0_DpOT1_>:
  40c215:	55                   	push   %rbp
  40c216:	48 89 e5             	mov    %rsp,%rbp
  40c219:	48 83 ec 10          	sub    $0x10,%rsp
  40c21d:	48 89 7d f8          	mov    %rdi,-0x8(%rbp)
  40c221:	48 89 75 f0          	mov    %rsi,-0x10(%rbp)
  40c225:	48 8b 45 f0          	mov    -0x10(%rbp),%rax
  40c229:	48 89 c7             	mov    %rax,%rdi
  40c22c:	e8 8f de ff ff       	callq  40a0c0 <_ZSt7forwardIRN11arm_compute8IteratorEEOT_RNSt16remove_referenceIS3_E4typeE>
  40c231:	48 89 c2             	mov    %rax,%rdx
  40c234:	48 8b 45 f8          	mov    -0x8(%rbp),%rax
  40c238:	48 89 d6             	mov    %rdx,%rsi
  40c23b:	48 89 c7             	mov    %rax,%rdi
  40c23e:	e8 b5 fb ff ff       	callq  40bdf8 <_ZZN11arm_compute18IncrementIteratorsILm3EE6unrollIRNS_8IteratorEJEEEvOT_DpOT0_ENKUlS4_E_clES4_>
  40c243:	48 8b 45 f8          	mov    -0x8(%rbp),%rax
  40c247:	48 89 c7             	mov    %rax,%rdi
  40c24a:	e8 b8 ff ff ff       	callq  40c207 <_ZSt7forwardIRZN11arm_compute18IncrementIteratorsILm3EE6unrollIRNS0_8IteratorEJEEEvOT_DpOT0_EUlS5_E_ES7_RNSt16remove_referenceIS6_E4typeE>
  40c24f:	48 89 c7             	mov    %rax,%rdi
  40c252:	e8 44 02 00 00       	callq  40c49b <_ZN11arm_compute7utility8for_eachIRZNS_18IncrementIteratorsILm3EE6unrollIRNS_8IteratorEJEEEvOT_DpOT0_EUlS6_E_EEvS8_>
  40c257:	90                   	nop
  40c258:	c9                   	leaveq 
  40c259:	c3                   	retq   

000000000040c25a <_ZZN11arm_compute18IncrementIteratorsILm2EE6unrollIRNS_8IteratorEJEEEvOT_DpOT0_ENKUlS4_E_clES4_>:
  40c25a:	55                   	push   %rbp
  40c25b:	48 89 e5             	mov    %rsp,%rbp
  40c25e:	48 83 ec 10          	sub    $0x10,%rsp
  40c262:	48 89 7d f8          	mov    %rdi,-0x8(%rbp)
  40c266:	48 89 75 f0          	mov    %rsi,-0x10(%rbp)
  40c26a:	48 8b 45 f0          	mov    -0x10(%rbp),%rax
  40c26e:	be 02 00 00 00       	mov    $0x2,%esi
  40c273:	48 89 c7             	mov    %rax,%rdi
  40c276:	e8 51 ac ff ff       	callq  406ecc <_ZN11arm_compute8Iterator9incrementEm>
  40c27b:	90                   	nop
  40c27c:	c9                   	leaveq 
  40c27d:	c3                   	retq   

000000000040c27e <_ZZN11arm_compute18IncrementIteratorsILm2EE6unrollIRNS_8IteratorEJEEEvOT_DpOT0_ENUlS4_E_4_FUNES4_>:
  40c27e:	55                   	push   %rbp
  40c27f:	48 89 e5             	mov    %rsp,%rbp
  40c282:	48 83 ec 10          	sub    $0x10,%rsp
  40c286:	48 89 7d f8          	mov    %rdi,-0x8(%rbp)
  40c28a:	48 8b 45 f8          	mov    -0x8(%rbp),%rax
  40c28e:	48 89 c6             	mov    %rax,%rsi
  40c291:	bf 00 00 00 00       	mov    $0x0,%edi
  40c296:	e8 bf ff ff ff       	callq  40c25a <_ZZN11arm_compute18IncrementIteratorsILm2EE6unrollIRNS_8IteratorEJEEEvOT_DpOT0_ENKUlS4_E_clES4_>
  40c29b:	c9                   	leaveq 
  40c29c:	c3                   	retq   

000000000040c29d <_ZN11arm_compute18IncrementIteratorsILm2EE6unrollIRNS_8IteratorEJEEEvOT_DpOT0_>:
  40c29d:	55                   	push   %rbp
  40c29e:	48 89 e5             	mov    %rsp,%rbp
  40c2a1:	48 83 ec 20          	sub    $0x20,%rsp
  40c2a5:	48 89 7d e8          	mov    %rdi,-0x18(%rbp)
  40c2a9:	64 48 8b 04 25 28 00 	mov    %fs:0x28,%rax
  40c2b0:	00 00 
  40c2b2:	48 89 45 f8          	mov    %rax,-0x8(%rbp)
  40c2b6:	31 c0                	xor    %eax,%eax
  40c2b8:	48 8b 45 e8          	mov    -0x18(%rbp),%rax
  40c2bc:	48 89 c7             	mov    %rax,%rdi
  40c2bf:	e8 fc dd ff ff       	callq  40a0c0 <_ZSt7forwardIRN11arm_compute8IteratorEEOT_RNSt16remove_referenceIS3_E4typeE>
  40c2c4:	48 89 c2             	mov    %rax,%rdx
  40c2c7:	48 8d 45 f7          	lea    -0x9(%rbp),%rax
  40c2cb:	48 89 d6             	mov    %rdx,%rsi
  40c2ce:	48 89 c7             	mov    %rax,%rdi
  40c2d1:	e8 de 01 00 00       	callq  40c4b4 <_ZN11arm_compute7utility8for_eachIRZNS_18IncrementIteratorsILm2EE6unrollIRNS_8IteratorEJEEEvOT_DpOT0_EUlS6_E_S6_JEEEvS8_OT0_DpOT1_>
  40c2d6:	90                   	nop
  40c2d7:	48 8b 45 f8          	mov    -0x8(%rbp),%rax
  40c2db:	64 48 33 04 25 28 00 	xor    %fs:0x28,%rax
  40c2e2:	00 00 
  40c2e4:	74 05                	je     40c2eb <_ZN11arm_compute18IncrementIteratorsILm2EE6unrollIRNS_8IteratorEJEEEvOT_DpOT0_+0x4e>
  40c2e6:	e8 45 7c ff ff       	callq  403f30 <__stack_chk_fail@plt>
  40c2eb:	c9                   	leaveq 
  40c2ec:	c3                   	retq   

000000000040c2ed <_ZN11arm_compute16ForEachDimensionILm2EE6unrollIRZN2CK5armcl23copy_raw_data_to_tensorIfEEvPNS_8CLTensorEPT_RKNS3_5ShapeEEUlRKNS_11CoordinatesEE_JRNS_8IteratorEEEEvRKNS_6WindowERSD_OS8_DpOT0_>:
  40c2ed:	55                   	push   %rbp
  40c2ee:	48 89 e5             	mov    %rsp,%rbp
  40c2f1:	48 83 ec 30          	sub    $0x30,%rsp
  40c2f5:	48 89 7d e8          	mov    %rdi,-0x18(%rbp)
  40c2f9:	48 89 75 e0          	mov    %rsi,-0x20(%rbp)
  40c2fd:	48 89 55 d8          	mov    %rdx,-0x28(%rbp)
  40c301:	48 89 4d d0          	mov    %rcx,-0x30(%rbp)
  40c305:	48 8b 45 e8          	mov    -0x18(%rbp),%rax
  40c309:	be 01 00 00 00       	mov    $0x1,%esi
  40c30e:	48 89 c7             	mov    %rax,%rdi
  40c311:	e8 a6 a7 ff ff       	callq  406abc <_ZNK11arm_compute6WindowixEm>
  40c316:	48 89 45 f8          	mov    %rax,-0x8(%rbp)
  40c31a:	48 8b 45 f8          	mov    -0x8(%rbp),%rax
  40c31e:	48 89 c7             	mov    %rax,%rdi
  40c321:	e8 f2 a6 ff ff       	callq  406a18 <_ZNK11arm_compute6Window9Dimension5startEv>
  40c326:	89 45 f4             	mov    %eax,-0xc(%rbp)
  40c329:	48 8b 45 f8          	mov    -0x8(%rbp),%rax
  40c32d:	48 89 c7             	mov    %rax,%rdi
  40c330:	e8 f3 a6 ff ff       	callq  406a28 <_ZNK11arm_compute6Window9Dimension3endEv>
  40c335:	3b 45 f4             	cmp    -0xc(%rbp),%eax
  40c338:	0f 9f c0             	setg   %al
  40c33b:	84 c0                	test   %al,%al
  40c33d:	74 49                	je     40c388 <_ZN11arm_compute16ForEachDimensionILm2EE6unrollIRZN2CK5armcl23copy_raw_data_to_tensorIfEEvPNS_8CLTensorEPT_RKNS3_5ShapeEEUlRKNS_11CoordinatesEE_JRNS_8IteratorEEEEvRKNS_6WindowERSD_OS8_DpOT0_+0x9b>
  40c33f:	48 8b 45 e0          	mov    -0x20(%rbp),%rax
  40c343:	8b 55 f4             	mov    -0xc(%rbp),%edx
  40c346:	be 01 00 00 00       	mov    $0x1,%esi
  40c34b:	48 89 c7             	mov    %rax,%rdi
  40c34e:	e8 3b c6 ff ff       	callq  40898e <_ZN11arm_compute10DimensionsIiE3setEmi>
  40c353:	48 8b 4d d0          	mov    -0x30(%rbp),%rcx
  40c357:	48 8b 55 d8          	mov    -0x28(%rbp),%rdx
  40c35b:	48 8b 75 e0          	mov    -0x20(%rbp),%rsi
  40c35f:	48 8b 45 e8          	mov    -0x18(%rbp),%rax
  40c363:	48 89 c7             	mov    %rax,%rdi
  40c366:	e8 22 02 00 00       	callq  40c58d <_ZN11arm_compute16ForEachDimensionILm1EE6unrollIRZN2CK5armcl23copy_raw_data_to_tensorIfEEvPNS_8CLTensorEPT_RKNS3_5ShapeEEUlRKNS_11CoordinatesEE_JRNS_8IteratorEEEEvRKNS_6WindowERSD_OS8_DpOT0_>
  40c36b:	48 8b 45 f8          	mov    -0x8(%rbp),%rax
  40c36f:	48 89 c7             	mov    %rax,%rdi
  40c372:	e8 c3 a6 ff ff       	callq  406a3a <_ZNK11arm_compute6Window9Dimension4stepEv>
  40c377:	01 45 f4             	add    %eax,-0xc(%rbp)
  40c37a:	48 8b 45 d0          	mov    -0x30(%rbp),%rax
  40c37e:	48 89 c7             	mov    %rax,%rdi
  40c381:	e8 b7 01 00 00       	callq  40c53d <_ZN11arm_compute18IncrementIteratorsILm1EE6unrollIRNS_8IteratorEJEEEvOT_DpOT0_>
  40c386:	eb a1                	jmp    40c329 <_ZN11arm_compute16ForEachDimensionILm2EE6unrollIRZN2CK5armcl23copy_raw_data_to_tensorIfEEvPNS_8CLTensorEPT_RKNS3_5ShapeEEUlRKNS_11CoordinatesEE_JRNS_8IteratorEEEEvRKNS_6WindowERSD_OS8_DpOT0_+0x3c>
  40c388:	90                   	nop
  40c389:	c9                   	leaveq 
  40c38a:	c3                   	retq   

000000000040c38b <_ZN11arm_compute16ForEachDimensionILm2EE6unrollIRZN2CK5armcl25copy_raw_data_from_tensorIfEEvPNS_8CLTensorEPT_RKNS3_5ShapeEEUlRKNS_11CoordinatesEE_JRNS_8IteratorEEEEvRKNS_6WindowERSD_OS8_DpOT0_>:
  40c38b:	55                   	push   %rbp
  40c38c:	48 89 e5             	mov    %rsp,%rbp
  40c38f:	48 83 ec 30          	sub    $0x30,%rsp
  40c393:	48 89 7d e8          	mov    %rdi,-0x18(%rbp)
  40c397:	48 89 75 e0          	mov    %rsi,-0x20(%rbp)
  40c39b:	48 89 55 d8          	mov    %rdx,-0x28(%rbp)
  40c39f:	48 89 4d d0          	mov    %rcx,-0x30(%rbp)
  40c3a3:	48 8b 45 e8          	mov    -0x18(%rbp),%rax
  40c3a7:	be 01 00 00 00       	mov    $0x1,%esi
  40c3ac:	48 89 c7             	mov    %rax,%rdi
  40c3af:	e8 08 a7 ff ff       	callq  406abc <_ZNK11arm_compute6WindowixEm>
  40c3b4:	48 89 45 f8          	mov    %rax,-0x8(%rbp)
  40c3b8:	48 8b 45 f8          	mov    -0x8(%rbp),%rax
  40c3bc:	48 89 c7             	mov    %rax,%rdi
  40c3bf:	e8 54 a6 ff ff       	callq  406a18 <_ZNK11arm_compute6Window9Dimension5startEv>
  40c3c4:	89 45 f4             	mov    %eax,-0xc(%rbp)
  40c3c7:	48 8b 45 f8          	mov    -0x8(%rbp),%rax
  40c3cb:	48 89 c7             	mov    %rax,%rdi
  40c3ce:	e8 55 a6 ff ff       	callq  406a28 <_ZNK11arm_compute6Window9Dimension3endEv>
  40c3d3:	3b 45 f4             	cmp    -0xc(%rbp),%eax
  40c3d6:	0f 9f c0             	setg   %al
  40c3d9:	84 c0                	test   %al,%al
  40c3db:	74 49                	je     40c426 <_ZN11arm_compute16ForEachDimensionILm2EE6unrollIRZN2CK5armcl25copy_raw_data_from_tensorIfEEvPNS_8CLTensorEPT_RKNS3_5ShapeEEUlRKNS_11CoordinatesEE_JRNS_8IteratorEEEEvRKNS_6WindowERSD_OS8_DpOT0_+0x9b>
  40c3dd:	48 8b 45 e0          	mov    -0x20(%rbp),%rax
  40c3e1:	8b 55 f4             	mov    -0xc(%rbp),%edx
  40c3e4:	be 01 00 00 00       	mov    $0x1,%esi
  40c3e9:	48 89 c7             	mov    %rax,%rdi
  40c3ec:	e8 9d c5 ff ff       	callq  40898e <_ZN11arm_compute10DimensionsIiE3setEmi>
  40c3f1:	48 8b 4d d0          	mov    -0x30(%rbp),%rcx
  40c3f5:	48 8b 55 d8          	mov    -0x28(%rbp),%rdx
  40c3f9:	48 8b 75 e0          	mov    -0x20(%rbp),%rsi
  40c3fd:	48 8b 45 e8          	mov    -0x18(%rbp),%rax
  40c401:	48 89 c7             	mov    %rax,%rdi
  40c404:	e8 22 02 00 00       	callq  40c62b <_ZN11arm_compute16ForEachDimensionILm1EE6unrollIRZN2CK5armcl25copy_raw_data_from_tensorIfEEvPNS_8CLTensorEPT_RKNS3_5ShapeEEUlRKNS_11CoordinatesEE_JRNS_8IteratorEEEEvRKNS_6WindowERSD_OS8_DpOT0_>
  40c409:	48 8b 45 f8          	mov    -0x8(%rbp),%rax
  40c40d:	48 89 c7             	mov    %rax,%rdi
  40c410:	e8 25 a6 ff ff       	callq  406a3a <_ZNK11arm_compute6Window9Dimension4stepEv>
  40c415:	01 45 f4             	add    %eax,-0xc(%rbp)
  40c418:	48 8b 45 d0          	mov    -0x30(%rbp),%rax
  40c41c:	48 89 c7             	mov    %rax,%rdi
  40c41f:	e8 19 01 00 00       	callq  40c53d <_ZN11arm_compute18IncrementIteratorsILm1EE6unrollIRNS_8IteratorEJEEEvOT_DpOT0_>
  40c424:	eb a1                	jmp    40c3c7 <_ZN11arm_compute16ForEachDimensionILm2EE6unrollIRZN2CK5armcl25copy_raw_data_from_tensorIfEEvPNS_8CLTensorEPT_RKNS3_5ShapeEEUlRKNS_11CoordinatesEE_JRNS_8IteratorEEEEvRKNS_6WindowERSD_OS8_DpOT0_+0x3c>
  40c426:	90                   	nop
  40c427:	c9                   	leaveq 
  40c428:	c3                   	retq   

000000000040c429 <_ZSteqIPN2cl6DeviceEEbRKSt13move_iteratorIT_ES7_>:
  40c429:	55                   	push   %rbp
  40c42a:	48 89 e5             	mov    %rsp,%rbp
  40c42d:	53                   	push   %rbx
  40c42e:	48 83 ec 18          	sub    $0x18,%rsp
  40c432:	48 89 7d e8          	mov    %rdi,-0x18(%rbp)
  40c436:	48 89 75 e0          	mov    %rsi,-0x20(%rbp)
  40c43a:	48 8b 45 e8          	mov    -0x18(%rbp),%rax
  40c43e:	48 89 c7             	mov    %rax,%rdi
  40c441:	e8 84 02 00 00       	callq  40c6ca <_ZNKSt13move_iteratorIPN2cl6DeviceEE4baseEv>
  40c446:	48 89 c3             	mov    %rax,%rbx
  40c449:	48 8b 45 e0          	mov    -0x20(%rbp),%rax
  40c44d:	48 89 c7             	mov    %rax,%rdi
  40c450:	e8 75 02 00 00       	callq  40c6ca <_ZNKSt13move_iteratorIPN2cl6DeviceEE4baseEv>
  40c455:	48 39 c3             	cmp    %rax,%rbx
  40c458:	0f 94 c0             	sete   %al
  40c45b:	48 83 c4 18          	add    $0x18,%rsp
  40c45f:	5b                   	pop    %rbx
  40c460:	5d                   	pop    %rbp
  40c461:	c3                   	retq   

000000000040c462 <_ZSteqIPN2cl8PlatformEEbRKSt13move_iteratorIT_ES7_>:
  40c462:	55                   	push   %rbp
  40c463:	48 89 e5             	mov    %rsp,%rbp
  40c466:	53                   	push   %rbx
  40c467:	48 83 ec 18          	sub    $0x18,%rsp
  40c46b:	48 89 7d e8          	mov    %rdi,-0x18(%rbp)
  40c46f:	48 89 75 e0          	mov    %rsi,-0x20(%rbp)
  40c473:	48 8b 45 e8          	mov    -0x18(%rbp),%rax
  40c477:	48 89 c7             	mov    %rax,%rdi
  40c47a:	e8 5d 02 00 00       	callq  40c6dc <_ZNKSt13move_iteratorIPN2cl8PlatformEE4baseEv>
  40c47f:	48 89 c3             	mov    %rax,%rbx
  40c482:	48 8b 45 e0          	mov    -0x20(%rbp),%rax
  40c486:	48 89 c7             	mov    %rax,%rdi
  40c489:	e8 4e 02 00 00       	callq  40c6dc <_ZNKSt13move_iteratorIPN2cl8PlatformEE4baseEv>
  40c48e:	48 39 c3             	cmp    %rax,%rbx
  40c491:	0f 94 c0             	sete   %al
  40c494:	48 83 c4 18          	add    $0x18,%rsp
  40c498:	5b                   	pop    %rbx
  40c499:	5d                   	pop    %rbp
  40c49a:	c3                   	retq   

000000000040c49b <_ZN11arm_compute7utility8for_eachIRZNS_18IncrementIteratorsILm3EE6unrollIRNS_8IteratorEJEEEvOT_DpOT0_EUlS6_E_EEvS8_>:
  40c49b:	55                   	push   %rbp
  40c49c:	48 89 e5             	mov    %rsp,%rbp
  40c49f:	48 89 7d f8          	mov    %rdi,-0x8(%rbp)
  40c4a3:	90                   	nop
  40c4a4:	5d                   	pop    %rbp
  40c4a5:	c3                   	retq   

000000000040c4a6 <_ZSt7forwardIRZN11arm_compute18IncrementIteratorsILm2EE6unrollIRNS0_8IteratorEJEEEvOT_DpOT0_EUlS5_E_ES7_RNSt16remove_referenceIS6_E4typeE>:
  40c4a6:	55                   	push   %rbp
  40c4a7:	48 89 e5             	mov    %rsp,%rbp
  40c4aa:	48 89 7d f8          	mov    %rdi,-0x8(%rbp)
  40c4ae:	48 8b 45 f8          	mov    -0x8(%rbp),%rax
  40c4b2:	5d                   	pop    %rbp
  40c4b3:	c3                   	retq   

000000000040c4b4 <_ZN11arm_compute7utility8for_eachIRZNS_18IncrementIteratorsILm2EE6unrollIRNS_8IteratorEJEEEvOT_DpOT0_EUlS6_E_S6_JEEEvS8_OT0_DpOT1_>:
  40c4b4:	55                   	push   %rbp
  40c4b5:	48 89 e5             	mov    %rsp,%rbp
  40c4b8:	48 83 ec 10          	sub    $0x10,%rsp
  40c4bc:	48 89 7d f8          	mov    %rdi,-0x8(%rbp)
  40c4c0:	48 89 75 f0          	mov    %rsi,-0x10(%rbp)
  40c4c4:	48 8b 45 f0          	mov    -0x10(%rbp),%rax
  40c4c8:	48 89 c7             	mov    %rax,%rdi
  40c4cb:	e8 f0 db ff ff       	callq  40a0c0 <_ZSt7forwardIRN11arm_compute8IteratorEEOT_RNSt16remove_referenceIS3_E4typeE>
  40c4d0:	48 89 c2             	mov    %rax,%rdx
  40c4d3:	48 8b 45 f8          	mov    -0x8(%rbp),%rax
  40c4d7:	48 89 d6             	mov    %rdx,%rsi
  40c4da:	48 89 c7             	mov    %rax,%rdi
  40c4dd:	e8 78 fd ff ff       	callq  40c25a <_ZZN11arm_compute18IncrementIteratorsILm2EE6unrollIRNS_8IteratorEJEEEvOT_DpOT0_ENKUlS4_E_clES4_>
  40c4e2:	48 8b 45 f8          	mov    -0x8(%rbp),%rax
  40c4e6:	48 89 c7             	mov    %rax,%rdi
  40c4e9:	e8 b8 ff ff ff       	callq  40c4a6 <_ZSt7forwardIRZN11arm_compute18IncrementIteratorsILm2EE6unrollIRNS0_8IteratorEJEEEvOT_DpOT0_EUlS5_E_ES7_RNSt16remove_referenceIS6_E4typeE>
  40c4ee:	48 89 c7             	mov    %rax,%rdi
  40c4f1:	e8 f7 01 00 00       	callq  40c6ed <_ZN11arm_compute7utility8for_eachIRZNS_18IncrementIteratorsILm2EE6unrollIRNS_8IteratorEJEEEvOT_DpOT0_EUlS6_E_EEvS8_>
  40c4f6:	90                   	nop
  40c4f7:	c9                   	leaveq 
  40c4f8:	c3                   	retq   
  40c4f9:	90                   	nop

000000000040c4fa <_ZZN11arm_compute18IncrementIteratorsILm1EE6unrollIRNS_8IteratorEJEEEvOT_DpOT0_ENKUlS4_E_clES4_>:
  40c4fa:	55                   	push   %rbp
  40c4fb:	48 89 e5             	mov    %rsp,%rbp
  40c4fe:	48 83 ec 10          	sub    $0x10,%rsp
  40c502:	48 89 7d f8          	mov    %rdi,-0x8(%rbp)
  40c506:	48 89 75 f0          	mov    %rsi,-0x10(%rbp)
  40c50a:	48 8b 45 f0          	mov    -0x10(%rbp),%rax
  40c50e:	be 01 00 00 00       	mov    $0x1,%esi
  40c513:	48 89 c7             	mov    %rax,%rdi
  40c516:	e8 b1 a9 ff ff       	callq  406ecc <_ZN11arm_compute8Iterator9incrementEm>
  40c51b:	90                   	nop
  40c51c:	c9                   	leaveq 
  40c51d:	c3                   	retq   

000000000040c51e <_ZZN11arm_compute18IncrementIteratorsILm1EE6unrollIRNS_8IteratorEJEEEvOT_DpOT0_ENUlS4_E_4_FUNES4_>:
  40c51e:	55                   	push   %rbp
  40c51f:	48 89 e5             	mov    %rsp,%rbp
  40c522:	48 83 ec 10          	sub    $0x10,%rsp
  40c526:	48 89 7d f8          	mov    %rdi,-0x8(%rbp)
  40c52a:	48 8b 45 f8          	mov    -0x8(%rbp),%rax
  40c52e:	48 89 c6             	mov    %rax,%rsi
  40c531:	bf 00 00 00 00       	mov    $0x0,%edi
  40c536:	e8 bf ff ff ff       	callq  40c4fa <_ZZN11arm_compute18IncrementIteratorsILm1EE6unrollIRNS_8IteratorEJEEEvOT_DpOT0_ENKUlS4_E_clES4_>
  40c53b:	c9                   	leaveq 
  40c53c:	c3                   	retq   

000000000040c53d <_ZN11arm_compute18IncrementIteratorsILm1EE6unrollIRNS_8IteratorEJEEEvOT_DpOT0_>:
  40c53d:	55                   	push   %rbp
  40c53e:	48 89 e5             	mov    %rsp,%rbp
  40c541:	48 83 ec 20          	sub    $0x20,%rsp
  40c545:	48 89 7d e8          	mov    %rdi,-0x18(%rbp)
  40c549:	64 48 8b 04 25 28 00 	mov    %fs:0x28,%rax
  40c550:	00 00 
  40c552:	48 89 45 f8          	mov    %rax,-0x8(%rbp)
  40c556:	31 c0                	xor    %eax,%eax
  40c558:	48 8b 45 e8          	mov    -0x18(%rbp),%rax
  40c55c:	48 89 c7             	mov    %rax,%rdi
  40c55f:	e8 5c db ff ff       	callq  40a0c0 <_ZSt7forwardIRN11arm_compute8IteratorEEOT_RNSt16remove_referenceIS3_E4typeE>
  40c564:	48 89 c2             	mov    %rax,%rdx
  40c567:	48 8d 45 f7          	lea    -0x9(%rbp),%rax
  40c56b:	48 89 d6             	mov    %rdx,%rsi
  40c56e:	48 89 c7             	mov    %rax,%rdi
  40c571:	e8 90 01 00 00       	callq  40c706 <_ZN11arm_compute7utility8for_eachIRZNS_18IncrementIteratorsILm1EE6unrollIRNS_8IteratorEJEEEvOT_DpOT0_EUlS6_E_S6_JEEEvS8_OT0_DpOT1_>
  40c576:	90                   	nop
  40c577:	48 8b 45 f8          	mov    -0x8(%rbp),%rax
  40c57b:	64 48 33 04 25 28 00 	xor    %fs:0x28,%rax
  40c582:	00 00 
  40c584:	74 05                	je     40c58b <_ZN11arm_compute18IncrementIteratorsILm1EE6unrollIRNS_8IteratorEJEEEvOT_DpOT0_+0x4e>
  40c586:	e8 a5 79 ff ff       	callq  403f30 <__stack_chk_fail@plt>
  40c58b:	c9                   	leaveq 
  40c58c:	c3                   	retq   

000000000040c58d <_ZN11arm_compute16ForEachDimensionILm1EE6unrollIRZN2CK5armcl23copy_raw_data_to_tensorIfEEvPNS_8CLTensorEPT_RKNS3_5ShapeEEUlRKNS_11CoordinatesEE_JRNS_8IteratorEEEEvRKNS_6WindowERSD_OS8_DpOT0_>:
  40c58d:	55                   	push   %rbp
  40c58e:	48 89 e5             	mov    %rsp,%rbp
  40c591:	48 83 ec 30          	sub    $0x30,%rsp
  40c595:	48 89 7d e8          	mov    %rdi,-0x18(%rbp)
  40c599:	48 89 75 e0          	mov    %rsi,-0x20(%rbp)
  40c59d:	48 89 55 d8          	mov    %rdx,-0x28(%rbp)
  40c5a1:	48 89 4d d0          	mov    %rcx,-0x30(%rbp)
  40c5a5:	48 8b 45 e8          	mov    -0x18(%rbp),%rax
  40c5a9:	be 00 00 00 00       	mov    $0x0,%esi
  40c5ae:	48 89 c7             	mov    %rax,%rdi
  40c5b1:	e8 06 a5 ff ff       	callq  406abc <_ZNK11arm_compute6WindowixEm>
  40c5b6:	48 89 45 f8          	mov    %rax,-0x8(%rbp)
  40c5ba:	48 8b 45 f8          	mov    -0x8(%rbp),%rax
  40c5be:	48 89 c7             	mov    %rax,%rdi
  40c5c1:	e8 52 a4 ff ff       	callq  406a18 <_ZNK11arm_compute6Window9Dimension5startEv>
  40c5c6:	89 45 f4             	mov    %eax,-0xc(%rbp)
  40c5c9:	48 8b 45 f8          	mov    -0x8(%rbp),%rax
  40c5cd:	48 89 c7             	mov    %rax,%rdi
  40c5d0:	e8 53 a4 ff ff       	callq  406a28 <_ZNK11arm_compute6Window9Dimension3endEv>
  40c5d5:	3b 45 f4             	cmp    -0xc(%rbp),%eax
  40c5d8:	0f 9f c0             	setg   %al
  40c5db:	84 c0                	test   %al,%al
  40c5dd:	74 49                	je     40c628 <_ZN11arm_compute16ForEachDimensionILm1EE6unrollIRZN2CK5armcl23copy_raw_data_to_tensorIfEEvPNS_8CLTensorEPT_RKNS3_5ShapeEEUlRKNS_11CoordinatesEE_JRNS_8IteratorEEEEvRKNS_6WindowERSD_OS8_DpOT0_+0x9b>
  40c5df:	48 8b 45 e0          	mov    -0x20(%rbp),%rax
  40c5e3:	8b 55 f4             	mov    -0xc(%rbp),%edx
  40c5e6:	be 00 00 00 00       	mov    $0x0,%esi
  40c5eb:	48 89 c7             	mov    %rax,%rdi
  40c5ee:	e8 9b c3 ff ff       	callq  40898e <_ZN11arm_compute10DimensionsIiE3setEmi>
  40c5f3:	48 8b 4d d0          	mov    -0x30(%rbp),%rcx
  40c5f7:	48 8b 55 d8          	mov    -0x28(%rbp),%rdx
  40c5fb:	48 8b 75 e0          	mov    -0x20(%rbp),%rsi
  40c5ff:	48 8b 45 e8          	mov    -0x18(%rbp),%rax
  40c603:	48 89 c7             	mov    %rax,%rdi
  40c606:	e8 d4 01 00 00       	callq  40c7df <_ZN11arm_compute16ForEachDimensionILm0EE6unrollIRZN2CK5armcl23copy_raw_data_to_tensorIfEEvPNS_8CLTensorEPT_RKNS3_5ShapeEEUlRKNS_11CoordinatesEE_JRNS_8IteratorEEEEvRKNS_6WindowERSD_OS8_DpOT0_>
  40c60b:	48 8b 45 f8          	mov    -0x8(%rbp),%rax
  40c60f:	48 89 c7             	mov    %rax,%rdi
  40c612:	e8 23 a4 ff ff       	callq  406a3a <_ZNK11arm_compute6Window9Dimension4stepEv>
  40c617:	01 45 f4             	add    %eax,-0xc(%rbp)
  40c61a:	48 8b 45 d0          	mov    -0x30(%rbp),%rax
  40c61e:	48 89 c7             	mov    %rax,%rdi
  40c621:	e8 69 01 00 00       	callq  40c78f <_ZN11arm_compute18IncrementIteratorsILm0EE6unrollIRNS_8IteratorEJEEEvOT_DpOT0_>
  40c626:	eb a1                	jmp    40c5c9 <_ZN11arm_compute16ForEachDimensionILm1EE6unrollIRZN2CK5armcl23copy_raw_data_to_tensorIfEEvPNS_8CLTensorEPT_RKNS3_5ShapeEEUlRKNS_11CoordinatesEE_JRNS_8IteratorEEEEvRKNS_6WindowERSD_OS8_DpOT0_+0x3c>
  40c628:	90                   	nop
  40c629:	c9                   	leaveq 
  40c62a:	c3                   	retq   

000000000040c62b <_ZN11arm_compute16ForEachDimensionILm1EE6unrollIRZN2CK5armcl25copy_raw_data_from_tensorIfEEvPNS_8CLTensorEPT_RKNS3_5ShapeEEUlRKNS_11CoordinatesEE_JRNS_8IteratorEEEEvRKNS_6WindowERSD_OS8_DpOT0_>:
  40c62b:	55                   	push   %rbp
  40c62c:	48 89 e5             	mov    %rsp,%rbp
  40c62f:	48 83 ec 30          	sub    $0x30,%rsp
  40c633:	48 89 7d e8          	mov    %rdi,-0x18(%rbp)
  40c637:	48 89 75 e0          	mov    %rsi,-0x20(%rbp)
  40c63b:	48 89 55 d8          	mov    %rdx,-0x28(%rbp)
  40c63f:	48 89 4d d0          	mov    %rcx,-0x30(%rbp)
  40c643:	48 8b 45 e8          	mov    -0x18(%rbp),%rax
  40c647:	be 00 00 00 00       	mov    $0x0,%esi
  40c64c:	48 89 c7             	mov    %rax,%rdi
  40c64f:	e8 68 a4 ff ff       	callq  406abc <_ZNK11arm_compute6WindowixEm>
  40c654:	48 89 45 f8          	mov    %rax,-0x8(%rbp)
  40c658:	48 8b 45 f8          	mov    -0x8(%rbp),%rax
  40c65c:	48 89 c7             	mov    %rax,%rdi
  40c65f:	e8 b4 a3 ff ff       	callq  406a18 <_ZNK11arm_compute6Window9Dimension5startEv>
  40c664:	89 45 f4             	mov    %eax,-0xc(%rbp)
  40c667:	48 8b 45 f8          	mov    -0x8(%rbp),%rax
  40c66b:	48 89 c7             	mov    %rax,%rdi
  40c66e:	e8 b5 a3 ff ff       	callq  406a28 <_ZNK11arm_compute6Window9Dimension3endEv>
  40c673:	3b 45 f4             	cmp    -0xc(%rbp),%eax
  40c676:	0f 9f c0             	setg   %al
  40c679:	84 c0                	test   %al,%al
  40c67b:	74 49                	je     40c6c6 <_ZN11arm_compute16ForEachDimensionILm1EE6unrollIRZN2CK5armcl25copy_raw_data_from_tensorIfEEvPNS_8CLTensorEPT_RKNS3_5ShapeEEUlRKNS_11CoordinatesEE_JRNS_8IteratorEEEEvRKNS_6WindowERSD_OS8_DpOT0_+0x9b>
  40c67d:	48 8b 45 e0          	mov    -0x20(%rbp),%rax
  40c681:	8b 55 f4             	mov    -0xc(%rbp),%edx
  40c684:	be 00 00 00 00       	mov    $0x0,%esi
  40c689:	48 89 c7             	mov    %rax,%rdi
  40c68c:	e8 fd c2 ff ff       	callq  40898e <_ZN11arm_compute10DimensionsIiE3setEmi>
  40c691:	48 8b 4d d0          	mov    -0x30(%rbp),%rcx
  40c695:	48 8b 55 d8          	mov    -0x28(%rbp),%rdx
  40c699:	48 8b 75 e0          	mov    -0x20(%rbp),%rsi
  40c69d:	48 8b 45 e8          	mov    -0x18(%rbp),%rax
  40c6a1:	48 89 c7             	mov    %rax,%rdi
  40c6a4:	e8 64 01 00 00       	callq  40c80d <_ZN11arm_compute16ForEachDimensionILm0EE6unrollIRZN2CK5armcl25copy_raw_data_from_tensorIfEEvPNS_8CLTensorEPT_RKNS3_5ShapeEEUlRKNS_11CoordinatesEE_JRNS_8IteratorEEEEvRKNS_6WindowERSD_OS8_DpOT0_>
  40c6a9:	48 8b 45 f8          	mov    -0x8(%rbp),%rax
  40c6ad:	48 89 c7             	mov    %rax,%rdi
  40c6b0:	e8 85 a3 ff ff       	callq  406a3a <_ZNK11arm_compute6Window9Dimension4stepEv>
  40c6b5:	01 45 f4             	add    %eax,-0xc(%rbp)
  40c6b8:	48 8b 45 d0          	mov    -0x30(%rbp),%rax
  40c6bc:	48 89 c7             	mov    %rax,%rdi
  40c6bf:	e8 cb 00 00 00       	callq  40c78f <_ZN11arm_compute18IncrementIteratorsILm0EE6unrollIRNS_8IteratorEJEEEvOT_DpOT0_>
  40c6c4:	eb a1                	jmp    40c667 <_ZN11arm_compute16ForEachDimensionILm1EE6unrollIRZN2CK5armcl25copy_raw_data_from_tensorIfEEvPNS_8CLTensorEPT_RKNS3_5ShapeEEUlRKNS_11CoordinatesEE_JRNS_8IteratorEEEEvRKNS_6WindowERSD_OS8_DpOT0_+0x3c>
  40c6c6:	90                   	nop
  40c6c7:	c9                   	leaveq 
  40c6c8:	c3                   	retq   
  40c6c9:	90                   	nop

000000000040c6ca <_ZNKSt13move_iteratorIPN2cl6DeviceEE4baseEv>:
  40c6ca:	55                   	push   %rbp
  40c6cb:	48 89 e5             	mov    %rsp,%rbp
  40c6ce:	48 89 7d f8          	mov    %rdi,-0x8(%rbp)
  40c6d2:	48 8b 45 f8          	mov    -0x8(%rbp),%rax
  40c6d6:	48 8b 00             	mov    (%rax),%rax
  40c6d9:	5d                   	pop    %rbp
  40c6da:	c3                   	retq   
  40c6db:	90                   	nop

000000000040c6dc <_ZNKSt13move_iteratorIPN2cl8PlatformEE4baseEv>:
  40c6dc:	55                   	push   %rbp
  40c6dd:	48 89 e5             	mov    %rsp,%rbp
  40c6e0:	48 89 7d f8          	mov    %rdi,-0x8(%rbp)
  40c6e4:	48 8b 45 f8          	mov    -0x8(%rbp),%rax
  40c6e8:	48 8b 00             	mov    (%rax),%rax
  40c6eb:	5d                   	pop    %rbp
  40c6ec:	c3                   	retq   

000000000040c6ed <_ZN11arm_compute7utility8for_eachIRZNS_18IncrementIteratorsILm2EE6unrollIRNS_8IteratorEJEEEvOT_DpOT0_EUlS6_E_EEvS8_>:
  40c6ed:	55                   	push   %rbp
  40c6ee:	48 89 e5             	mov    %rsp,%rbp
  40c6f1:	48 89 7d f8          	mov    %rdi,-0x8(%rbp)
  40c6f5:	90                   	nop
  40c6f6:	5d                   	pop    %rbp
  40c6f7:	c3                   	retq   

000000000040c6f8 <_ZSt7forwardIRZN11arm_compute18IncrementIteratorsILm1EE6unrollIRNS0_8IteratorEJEEEvOT_DpOT0_EUlS5_E_ES7_RNSt16remove_referenceIS6_E4typeE>:
  40c6f8:	55                   	push   %rbp
  40c6f9:	48 89 e5             	mov    %rsp,%rbp
  40c6fc:	48 89 7d f8          	mov    %rdi,-0x8(%rbp)
  40c700:	48 8b 45 f8          	mov    -0x8(%rbp),%rax
  40c704:	5d                   	pop    %rbp
  40c705:	c3                   	retq   

000000000040c706 <_ZN11arm_compute7utility8for_eachIRZNS_18IncrementIteratorsILm1EE6unrollIRNS_8IteratorEJEEEvOT_DpOT0_EUlS6_E_S6_JEEEvS8_OT0_DpOT1_>:
  40c706:	55                   	push   %rbp
  40c707:	48 89 e5             	mov    %rsp,%rbp
  40c70a:	48 83 ec 10          	sub    $0x10,%rsp
  40c70e:	48 89 7d f8          	mov    %rdi,-0x8(%rbp)
  40c712:	48 89 75 f0          	mov    %rsi,-0x10(%rbp)
  40c716:	48 8b 45 f0          	mov    -0x10(%rbp),%rax
  40c71a:	48 89 c7             	mov    %rax,%rdi
  40c71d:	e8 9e d9 ff ff       	callq  40a0c0 <_ZSt7forwardIRN11arm_compute8IteratorEEOT_RNSt16remove_referenceIS3_E4typeE>
  40c722:	48 89 c2             	mov    %rax,%rdx
  40c725:	48 8b 45 f8          	mov    -0x8(%rbp),%rax
  40c729:	48 89 d6             	mov    %rdx,%rsi
  40c72c:	48 89 c7             	mov    %rax,%rdi
  40c72f:	e8 c6 fd ff ff       	callq  40c4fa <_ZZN11arm_compute18IncrementIteratorsILm1EE6unrollIRNS_8IteratorEJEEEvOT_DpOT0_ENKUlS4_E_clES4_>
  40c734:	48 8b 45 f8          	mov    -0x8(%rbp),%rax
  40c738:	48 89 c7             	mov    %rax,%rdi
  40c73b:	e8 b8 ff ff ff       	callq  40c6f8 <_ZSt7forwardIRZN11arm_compute18IncrementIteratorsILm1EE6unrollIRNS0_8IteratorEJEEEvOT_DpOT0_EUlS5_E_ES7_RNSt16remove_referenceIS6_E4typeE>
  40c740:	48 89 c7             	mov    %rax,%rdi
  40c743:	e8 f3 00 00 00       	callq  40c83b <_ZN11arm_compute7utility8for_eachIRZNS_18IncrementIteratorsILm1EE6unrollIRNS_8IteratorEJEEEvOT_DpOT0_EUlS6_E_EEvS8_>
  40c748:	90                   	nop
  40c749:	c9                   	leaveq 
  40c74a:	c3                   	retq   
  40c74b:	90                   	nop

000000000040c74c <_ZZN11arm_compute18IncrementIteratorsILm0EE6unrollIRNS_8IteratorEJEEEvOT_DpOT0_ENKUlS4_E_clES4_>:
  40c74c:	55                   	push   %rbp
  40c74d:	48 89 e5             	mov    %rsp,%rbp
  40c750:	48 83 ec 10          	sub    $0x10,%rsp
  40c754:	48 89 7d f8          	mov    %rdi,-0x8(%rbp)
  40c758:	48 89 75 f0          	mov    %rsi,-0x10(%rbp)
  40c75c:	48 8b 45 f0          	mov    -0x10(%rbp),%rax
  40c760:	be 00 00 00 00       	mov    $0x0,%esi
  40c765:	48 89 c7             	mov    %rax,%rdi
  40c768:	e8 5f a7 ff ff       	callq  406ecc <_ZN11arm_compute8Iterator9incrementEm>
  40c76d:	90                   	nop
  40c76e:	c9                   	leaveq 
  40c76f:	c3                   	retq   

000000000040c770 <_ZZN11arm_compute18IncrementIteratorsILm0EE6unrollIRNS_8IteratorEJEEEvOT_DpOT0_ENUlS4_E_4_FUNES4_>:
  40c770:	55                   	push   %rbp
  40c771:	48 89 e5             	mov    %rsp,%rbp
  40c774:	48 83 ec 10          	sub    $0x10,%rsp
  40c778:	48 89 7d f8          	mov    %rdi,-0x8(%rbp)
  40c77c:	48 8b 45 f8          	mov    -0x8(%rbp),%rax
  40c780:	48 89 c6             	mov    %rax,%rsi
  40c783:	bf 00 00 00 00       	mov    $0x0,%edi
  40c788:	e8 bf ff ff ff       	callq  40c74c <_ZZN11arm_compute18IncrementIteratorsILm0EE6unrollIRNS_8IteratorEJEEEvOT_DpOT0_ENKUlS4_E_clES4_>
  40c78d:	c9                   	leaveq 
  40c78e:	c3                   	retq   

000000000040c78f <_ZN11arm_compute18IncrementIteratorsILm0EE6unrollIRNS_8IteratorEJEEEvOT_DpOT0_>:
  40c78f:	55                   	push   %rbp
  40c790:	48 89 e5             	mov    %rsp,%rbp
  40c793:	48 83 ec 20          	sub    $0x20,%rsp
  40c797:	48 89 7d e8          	mov    %rdi,-0x18(%rbp)
  40c79b:	64 48 8b 04 25 28 00 	mov    %fs:0x28,%rax
  40c7a2:	00 00 
  40c7a4:	48 89 45 f8          	mov    %rax,-0x8(%rbp)
  40c7a8:	31 c0                	xor    %eax,%eax
  40c7aa:	48 8b 45 e8          	mov    -0x18(%rbp),%rax
  40c7ae:	48 89 c7             	mov    %rax,%rdi
  40c7b1:	e8 0a d9 ff ff       	callq  40a0c0 <_ZSt7forwardIRN11arm_compute8IteratorEEOT_RNSt16remove_referenceIS3_E4typeE>
  40c7b6:	48 89 c2             	mov    %rax,%rdx
  40c7b9:	48 8d 45 f7          	lea    -0x9(%rbp),%rax
  40c7bd:	48 89 d6             	mov    %rdx,%rsi
  40c7c0:	48 89 c7             	mov    %rax,%rdi
  40c7c3:	e8 8c 00 00 00       	callq  40c854 <_ZN11arm_compute7utility8for_eachIRZNS_18IncrementIteratorsILm0EE6unrollIRNS_8IteratorEJEEEvOT_DpOT0_EUlS6_E_S6_JEEEvS8_OT0_DpOT1_>
  40c7c8:	90                   	nop
  40c7c9:	48 8b 45 f8          	mov    -0x8(%rbp),%rax
  40c7cd:	64 48 33 04 25 28 00 	xor    %fs:0x28,%rax
  40c7d4:	00 00 
  40c7d6:	74 05                	je     40c7dd <_ZN11arm_compute18IncrementIteratorsILm0EE6unrollIRNS_8IteratorEJEEEvOT_DpOT0_+0x4e>
  40c7d8:	e8 53 77 ff ff       	callq  403f30 <__stack_chk_fail@plt>
  40c7dd:	c9                   	leaveq 
  40c7de:	c3                   	retq   

000000000040c7df <_ZN11arm_compute16ForEachDimensionILm0EE6unrollIRZN2CK5armcl23copy_raw_data_to_tensorIfEEvPNS_8CLTensorEPT_RKNS3_5ShapeEEUlRKNS_11CoordinatesEE_JRNS_8IteratorEEEEvRKNS_6WindowERSD_OS8_DpOT0_>:
  40c7df:	55                   	push   %rbp
  40c7e0:	48 89 e5             	mov    %rsp,%rbp
  40c7e3:	48 83 ec 20          	sub    $0x20,%rsp
  40c7e7:	48 89 7d f8          	mov    %rdi,-0x8(%rbp)
  40c7eb:	48 89 75 f0          	mov    %rsi,-0x10(%rbp)
  40c7ef:	48 89 55 e8          	mov    %rdx,-0x18(%rbp)
  40c7f3:	48 89 4d e0          	mov    %rcx,-0x20(%rbp)
  40c7f7:	48 8b 55 f0          	mov    -0x10(%rbp),%rdx
  40c7fb:	48 8b 45 e8          	mov    -0x18(%rbp),%rax
  40c7ff:	48 89 d6             	mov    %rdx,%rsi
  40c802:	48 89 c7             	mov    %rax,%rdi
  40c805:	e8 90 c4 ff ff       	callq  408c9a <_ZZN2CK5armcl23copy_raw_data_to_tensorIfEEvPN11arm_compute8CLTensorEPT_RKNS_5ShapeEENKUlRKNS2_11CoordinatesEE_clESC_>
  40c80a:	90                   	nop
  40c80b:	c9                   	leaveq 
  40c80c:	c3                   	retq   

000000000040c80d <_ZN11arm_compute16ForEachDimensionILm0EE6unrollIRZN2CK5armcl25copy_raw_data_from_tensorIfEEvPNS_8CLTensorEPT_RKNS3_5ShapeEEUlRKNS_11CoordinatesEE_JRNS_8IteratorEEEEvRKNS_6WindowERSD_OS8_DpOT0_>:
  40c80d:	55                   	push   %rbp
  40c80e:	48 89 e5             	mov    %rsp,%rbp
  40c811:	48 83 ec 20          	sub    $0x20,%rsp
  40c815:	48 89 7d f8          	mov    %rdi,-0x8(%rbp)
  40c819:	48 89 75 f0          	mov    %rsi,-0x10(%rbp)
  40c81d:	48 89 55 e8          	mov    %rdx,-0x18(%rbp)
  40c821:	48 89 4d e0          	mov    %rcx,-0x20(%rbp)
  40c825:	48 8b 55 f0          	mov    -0x10(%rbp),%rdx
  40c829:	48 8b 45 e8          	mov    -0x18(%rbp),%rax
  40c82d:	48 89 d6             	mov    %rdx,%rsi
  40c830:	48 89 c7             	mov    %rax,%rdi
  40c833:	e8 5e c6 ff ff       	callq  408e96 <_ZZN2CK5armcl25copy_raw_data_from_tensorIfEEvPN11arm_compute8CLTensorEPT_RKNS_5ShapeEENKUlRKNS2_11CoordinatesEE_clESC_>
  40c838:	90                   	nop
  40c839:	c9                   	leaveq 
  40c83a:	c3                   	retq   

000000000040c83b <_ZN11arm_compute7utility8for_eachIRZNS_18IncrementIteratorsILm1EE6unrollIRNS_8IteratorEJEEEvOT_DpOT0_EUlS6_E_EEvS8_>:
  40c83b:	55                   	push   %rbp
  40c83c:	48 89 e5             	mov    %rsp,%rbp
  40c83f:	48 89 7d f8          	mov    %rdi,-0x8(%rbp)
  40c843:	90                   	nop
  40c844:	5d                   	pop    %rbp
  40c845:	c3                   	retq   

000000000040c846 <_ZSt7forwardIRZN11arm_compute18IncrementIteratorsILm0EE6unrollIRNS0_8IteratorEJEEEvOT_DpOT0_EUlS5_E_ES7_RNSt16remove_referenceIS6_E4typeE>:
  40c846:	55                   	push   %rbp
  40c847:	48 89 e5             	mov    %rsp,%rbp
  40c84a:	48 89 7d f8          	mov    %rdi,-0x8(%rbp)
  40c84e:	48 8b 45 f8          	mov    -0x8(%rbp),%rax
  40c852:	5d                   	pop    %rbp
  40c853:	c3                   	retq   

000000000040c854 <_ZN11arm_compute7utility8for_eachIRZNS_18IncrementIteratorsILm0EE6unrollIRNS_8IteratorEJEEEvOT_DpOT0_EUlS6_E_S6_JEEEvS8_OT0_DpOT1_>:
  40c854:	55                   	push   %rbp
  40c855:	48 89 e5             	mov    %rsp,%rbp
  40c858:	48 83 ec 10          	sub    $0x10,%rsp
  40c85c:	48 89 7d f8          	mov    %rdi,-0x8(%rbp)
  40c860:	48 89 75 f0          	mov    %rsi,-0x10(%rbp)
  40c864:	48 8b 45 f0          	mov    -0x10(%rbp),%rax
  40c868:	48 89 c7             	mov    %rax,%rdi
  40c86b:	e8 50 d8 ff ff       	callq  40a0c0 <_ZSt7forwardIRN11arm_compute8IteratorEEOT_RNSt16remove_referenceIS3_E4typeE>
  40c870:	48 89 c2             	mov    %rax,%rdx
  40c873:	48 8b 45 f8          	mov    -0x8(%rbp),%rax
  40c877:	48 89 d6             	mov    %rdx,%rsi
  40c87a:	48 89 c7             	mov    %rax,%rdi
  40c87d:	e8 ca fe ff ff       	callq  40c74c <_ZZN11arm_compute18IncrementIteratorsILm0EE6unrollIRNS_8IteratorEJEEEvOT_DpOT0_ENKUlS4_E_clES4_>
  40c882:	48 8b 45 f8          	mov    -0x8(%rbp),%rax
  40c886:	48 89 c7             	mov    %rax,%rdi
  40c889:	e8 b8 ff ff ff       	callq  40c846 <_ZSt7forwardIRZN11arm_compute18IncrementIteratorsILm0EE6unrollIRNS0_8IteratorEJEEEvOT_DpOT0_EUlS5_E_ES7_RNSt16remove_referenceIS6_E4typeE>
  40c88e:	48 89 c7             	mov    %rax,%rdi
  40c891:	e8 03 00 00 00       	callq  40c899 <_ZN11arm_compute7utility8for_eachIRZNS_18IncrementIteratorsILm0EE6unrollIRNS_8IteratorEJEEEvOT_DpOT0_EUlS6_E_EEvS8_>
  40c896:	90                   	nop
  40c897:	c9                   	leaveq 
  40c898:	c3                   	retq   

000000000040c899 <_ZN11arm_compute7utility8for_eachIRZNS_18IncrementIteratorsILm0EE6unrollIRNS_8IteratorEJEEEvOT_DpOT0_EUlS6_E_EEvS8_>:
  40c899:	55                   	push   %rbp
  40c89a:	48 89 e5             	mov    %rsp,%rbp
  40c89d:	48 89 7d f8          	mov    %rdi,-0x8(%rbp)
  40c8a1:	90                   	nop
  40c8a2:	5d                   	pop    %rbp
  40c8a3:	c3                   	retq   

000000000040c8a4 <_ZN11arm_compute14CLReshapeLayerD1Ev>:
  40c8a4:	55                   	push   %rbp
  40c8a5:	48 89 e5             	mov    %rsp,%rbp
  40c8a8:	48 83 ec 10          	sub    $0x10,%rsp
  40c8ac:	48 89 7d f8          	mov    %rdi,-0x8(%rbp)
  40c8b0:	ba 58 07 41 00       	mov    $0x410758,%edx
  40c8b5:	48 8b 45 f8          	mov    -0x8(%rbp),%rax
  40c8b9:	48 89 10             	mov    %rdx,(%rax)
  40c8bc:	48 8b 45 f8          	mov    -0x8(%rbp),%rax
  40c8c0:	48 89 c7             	mov    %rax,%rdi
  40c8c3:	e8 da b0 ff ff       	callq  4079a2 <_ZN11arm_compute17ICLSimpleFunctionD1Ev>
  40c8c8:	90                   	nop
  40c8c9:	c9                   	leaveq 
  40c8ca:	c3                   	retq   
  40c8cb:	90                   	nop

000000000040c8cc <_ZN11arm_compute14CLReshapeLayerD0Ev>:
  40c8cc:	55                   	push   %rbp
  40c8cd:	48 89 e5             	mov    %rsp,%rbp
  40c8d0:	48 83 ec 10          	sub    $0x10,%rsp
  40c8d4:	48 89 7d f8          	mov    %rdi,-0x8(%rbp)
  40c8d8:	48 8b 45 f8          	mov    -0x8(%rbp),%rax
  40c8dc:	48 89 c7             	mov    %rax,%rdi
  40c8df:	e8 c0 ff ff ff       	callq  40c8a4 <_ZN11arm_compute14CLReshapeLayerD1Ev>
  40c8e4:	48 8b 45 f8          	mov    -0x8(%rbp),%rax
  40c8e8:	48 89 c7             	mov    %rax,%rdi
  40c8eb:	e8 e0 75 ff ff       	callq  403ed0 <_ZdlPv@plt>
  40c8f0:	c9                   	leaveq 
  40c8f1:	c3                   	retq   

000000000040c8f2 <_ZN11arm_compute7ITensorD1Ev>:
  40c8f2:	55                   	push   %rbp
  40c8f3:	48 89 e5             	mov    %rsp,%rbp
  40c8f6:	48 89 7d f8          	mov    %rdi,-0x8(%rbp)
  40c8fa:	ba 20 07 41 00       	mov    $0x410720,%edx
  40c8ff:	48 8b 45 f8          	mov    -0x8(%rbp),%rax
  40c903:	48 89 10             	mov    %rdx,(%rax)
  40c906:	90                   	nop
  40c907:	5d                   	pop    %rbp
  40c908:	c3                   	retq   
  40c909:	90                   	nop

000000000040c90a <_ZN11arm_compute7ITensorD0Ev>:
  40c90a:	55                   	push   %rbp
  40c90b:	48 89 e5             	mov    %rsp,%rbp
  40c90e:	48 83 ec 10          	sub    $0x10,%rsp
  40c912:	48 89 7d f8          	mov    %rdi,-0x8(%rbp)
  40c916:	48 8b 45 f8          	mov    -0x8(%rbp),%rax
  40c91a:	48 89 c7             	mov    %rax,%rdi
  40c91d:	e8 d0 ff ff ff       	callq  40c8f2 <_ZN11arm_compute7ITensorD1Ev>
  40c922:	48 8b 45 f8          	mov    -0x8(%rbp),%rax
  40c926:	48 89 c7             	mov    %rax,%rdi
  40c929:	e8 a2 75 ff ff       	callq  403ed0 <_ZdlPv@plt>
  40c92e:	c9                   	leaveq 
  40c92f:	c3                   	retq   

000000000040c930 <_ZN11arm_compute9ICLTensorD1Ev>:
  40c930:	55                   	push   %rbp
  40c931:	48 89 e5             	mov    %rsp,%rbp
  40c934:	48 83 ec 10          	sub    $0x10,%rsp
  40c938:	48 89 7d f8          	mov    %rdi,-0x8(%rbp)
  40c93c:	ba 70 95 61 00       	mov    $0x619570,%edx
  40c941:	48 8b 45 f8          	mov    -0x8(%rbp),%rax
  40c945:	48 89 10             	mov    %rdx,(%rax)
  40c948:	48 8b 45 f8          	mov    -0x8(%rbp),%rax
  40c94c:	48 89 c7             	mov    %rax,%rdi
  40c94f:	e8 9e ff ff ff       	callq  40c8f2 <_ZN11arm_compute7ITensorD1Ev>
  40c954:	90                   	nop
  40c955:	c9                   	leaveq 
  40c956:	c3                   	retq   
  40c957:	90                   	nop

000000000040c958 <_ZN11arm_compute9ICLTensorD0Ev>:
  40c958:	55                   	push   %rbp
  40c959:	48 89 e5             	mov    %rsp,%rbp
  40c95c:	48 83 ec 10          	sub    $0x10,%rsp
  40c960:	48 89 7d f8          	mov    %rdi,-0x8(%rbp)
  40c964:	48 8b 45 f8          	mov    -0x8(%rbp),%rax
  40c968:	48 89 c7             	mov    %rax,%rdi
  40c96b:	e8 c0 ff ff ff       	callq  40c930 <_ZN11arm_compute9ICLTensorD1Ev>
  40c970:	48 8b 45 f8          	mov    -0x8(%rbp),%rax
  40c974:	48 89 c7             	mov    %rax,%rdi
  40c977:	e8 54 75 ff ff       	callq  403ed0 <_ZdlPv@plt>
  40c97c:	c9                   	leaveq 
  40c97d:	c3                   	retq   

000000000040c97e <_ZN11arm_compute8CLTensorD1Ev>:
  40c97e:	55                   	push   %rbp
  40c97f:	48 89 e5             	mov    %rsp,%rbp
  40c982:	48 83 ec 10          	sub    $0x10,%rsp
  40c986:	48 89 7d f8          	mov    %rdi,-0x8(%rbp)
  40c98a:	ba 08 94 61 00       	mov    $0x619408,%edx
  40c98f:	48 8b 45 f8          	mov    -0x8(%rbp),%rax
  40c993:	48 89 10             	mov    %rdx,(%rax)
  40c996:	48 8b 45 f8          	mov    -0x8(%rbp),%rax
  40c99a:	48 83 c0 10          	add    $0x10,%rax
  40c99e:	48 89 c7             	mov    %rax,%rdi
  40c9a1:	e8 3a 77 ff ff       	callq  4040e0 <_ZN11arm_compute17CLTensorAllocatorD1Ev@plt>
  40c9a6:	48 8b 45 f8          	mov    -0x8(%rbp),%rax
  40c9aa:	48 89 c7             	mov    %rax,%rdi
  40c9ad:	e8 7e ff ff ff       	callq  40c930 <_ZN11arm_compute9ICLTensorD1Ev>
  40c9b2:	90                   	nop
  40c9b3:	c9                   	leaveq 
  40c9b4:	c3                   	retq   
  40c9b5:	90                   	nop

000000000040c9b6 <_ZN11arm_compute8CLTensorD0Ev>:
  40c9b6:	55                   	push   %rbp
  40c9b7:	48 89 e5             	mov    %rsp,%rbp
  40c9ba:	48 83 ec 10          	sub    $0x10,%rsp
  40c9be:	48 89 7d f8          	mov    %rdi,-0x8(%rbp)
  40c9c2:	48 8b 45 f8          	mov    -0x8(%rbp),%rax
  40c9c6:	48 89 c7             	mov    %rax,%rdi
  40c9c9:	e8 b0 ff ff ff       	callq  40c97e <_ZN11arm_compute8CLTensorD1Ev>
  40c9ce:	48 8b 45 f8          	mov    -0x8(%rbp),%rax
  40c9d2:	48 89 c7             	mov    %rax,%rdi
  40c9d5:	e8 f6 74 ff ff       	callq  403ed0 <_ZdlPv@plt>
  40c9da:	c9                   	leaveq 
  40c9db:	c3                   	retq   

000000000040c9dc <_ZN11arm_compute18CLFillBorderKernelD1Ev>:
  40c9dc:	55                   	push   %rbp
  40c9dd:	48 89 e5             	mov    %rsp,%rbp
  40c9e0:	48 83 ec 10          	sub    $0x10,%rsp
  40c9e4:	48 89 7d f8          	mov    %rdi,-0x8(%rbp)
  40c9e8:	ba f0 95 61 00       	mov    $0x6195f0,%edx
  40c9ed:	48 8b 45 f8          	mov    -0x8(%rbp),%rax
  40c9f1:	48 89 10             	mov    %rdx,(%rax)
  40c9f4:	48 8b 45 f8          	mov    -0x8(%rbp),%rax
  40c9f8:	48 89 c7             	mov    %rax,%rdi
  40c9fb:	e8 32 d5 ff ff       	callq  409f32 <_ZN11arm_compute9ICLKernelD1Ev>
  40ca00:	90                   	nop
  40ca01:	c9                   	leaveq 
  40ca02:	c3                   	retq   
  40ca03:	90                   	nop

000000000040ca04 <_ZN11arm_compute18CLFillBorderKernelD0Ev>:
  40ca04:	55                   	push   %rbp
  40ca05:	48 89 e5             	mov    %rsp,%rbp
  40ca08:	48 83 ec 10          	sub    $0x10,%rsp
  40ca0c:	48 89 7d f8          	mov    %rdi,-0x8(%rbp)
  40ca10:	48 8b 45 f8          	mov    -0x8(%rbp),%rax
  40ca14:	48 89 c7             	mov    %rax,%rdi
  40ca17:	e8 c0 ff ff ff       	callq  40c9dc <_ZN11arm_compute18CLFillBorderKernelD1Ev>
  40ca1c:	48 8b 45 f8          	mov    -0x8(%rbp),%rax
  40ca20:	48 89 c7             	mov    %rax,%rdi
  40ca23:	e8 a8 74 ff ff       	callq  403ed0 <_ZdlPv@plt>
  40ca28:	c9                   	leaveq 
  40ca29:	c3                   	retq   

000000000040ca2a <_ZN11arm_compute4misc10ICloneableINS_11ITensorInfoEED1Ev>:
  40ca2a:	55                   	push   %rbp
  40ca2b:	48 89 e5             	mov    %rsp,%rbp
  40ca2e:	48 89 7d f8          	mov    %rdi,-0x8(%rbp)
  40ca32:	ba e8 08 41 00       	mov    $0x4108e8,%edx
  40ca37:	48 8b 45 f8          	mov    -0x8(%rbp),%rax
  40ca3b:	48 89 10             	mov    %rdx,(%rax)
  40ca3e:	90                   	nop
  40ca3f:	5d                   	pop    %rbp
  40ca40:	c3                   	retq   
  40ca41:	90                   	nop

000000000040ca42 <_ZN11arm_compute4misc10ICloneableINS_11ITensorInfoEED0Ev>:
  40ca42:	55                   	push   %rbp
  40ca43:	48 89 e5             	mov    %rsp,%rbp
  40ca46:	48 83 ec 10          	sub    $0x10,%rsp
  40ca4a:	48 89 7d f8          	mov    %rdi,-0x8(%rbp)
  40ca4e:	48 8b 45 f8          	mov    -0x8(%rbp),%rax
  40ca52:	48 89 c7             	mov    %rax,%rdi
  40ca55:	e8 d0 ff ff ff       	callq  40ca2a <_ZN11arm_compute4misc10ICloneableINS_11ITensorInfoEED1Ev>
  40ca5a:	48 8b 45 f8          	mov    -0x8(%rbp),%rax
  40ca5e:	48 89 c7             	mov    %rax,%rdi
  40ca61:	e8 6a 74 ff ff       	callq  403ed0 <_ZdlPv@plt>
  40ca66:	c9                   	leaveq 
  40ca67:	c3                   	retq   

000000000040ca68 <_ZN11arm_compute11ITensorInfoD1Ev>:
  40ca68:	55                   	push   %rbp
  40ca69:	48 89 e5             	mov    %rsp,%rbp
  40ca6c:	48 83 ec 10          	sub    $0x10,%rsp
  40ca70:	48 89 7d f8          	mov    %rdi,-0x8(%rbp)
  40ca74:	ba e0 07 41 00       	mov    $0x4107e0,%edx
  40ca79:	48 8b 45 f8          	mov    -0x8(%rbp),%rax
  40ca7d:	48 89 10             	mov    %rdx,(%rax)
  40ca80:	48 8b 45 f8          	mov    -0x8(%rbp),%rax
  40ca84:	48 89 c7             	mov    %rax,%rdi
  40ca87:	e8 9e ff ff ff       	callq  40ca2a <_ZN11arm_compute4misc10ICloneableINS_11ITensorInfoEED1Ev>
  40ca8c:	90                   	nop
  40ca8d:	c9                   	leaveq 
  40ca8e:	c3                   	retq   
  40ca8f:	90                   	nop

000000000040ca90 <_ZN11arm_compute11ITensorInfoD0Ev>:
  40ca90:	55                   	push   %rbp
  40ca91:	48 89 e5             	mov    %rsp,%rbp
  40ca94:	48 83 ec 10          	sub    $0x10,%rsp
  40ca98:	48 89 7d f8          	mov    %rdi,-0x8(%rbp)
  40ca9c:	48 8b 45 f8          	mov    -0x8(%rbp),%rax
  40caa0:	48 89 c7             	mov    %rax,%rdi
  40caa3:	e8 c0 ff ff ff       	callq  40ca68 <_ZN11arm_compute11ITensorInfoD1Ev>
  40caa8:	48 8b 45 f8          	mov    -0x8(%rbp),%rax
  40caac:	48 89 c7             	mov    %rax,%rdi
  40caaf:	e8 1c 74 ff ff       	callq  403ed0 <_ZdlPv@plt>
  40cab4:	c9                   	leaveq 
  40cab5:	c3                   	retq   

000000000040cab6 <_ZN11arm_compute10TensorInfoD1Ev>:
  40cab6:	55                   	push   %rbp
  40cab7:	48 89 e5             	mov    %rsp,%rbp
  40caba:	48 83 ec 10          	sub    $0x10,%rsp
  40cabe:	48 89 7d f8          	mov    %rdi,-0x8(%rbp)
  40cac2:	ba f0 92 61 00       	mov    $0x6192f0,%edx
  40cac7:	48 8b 45 f8          	mov    -0x8(%rbp),%rax
  40cacb:	48 89 10             	mov    %rdx,(%rax)
  40cace:	48 8b 45 f8          	mov    -0x8(%rbp),%rax
  40cad2:	48 89 c7             	mov    %rax,%rdi
  40cad5:	e8 8e ff ff ff       	callq  40ca68 <_ZN11arm_compute11ITensorInfoD1Ev>
  40cada:	90                   	nop
  40cadb:	c9                   	leaveq 
  40cadc:	c3                   	retq   
  40cadd:	90                   	nop

000000000040cade <_ZN11arm_compute10TensorInfoD0Ev>:
  40cade:	55                   	push   %rbp
  40cadf:	48 89 e5             	mov    %rsp,%rbp
  40cae2:	48 83 ec 10          	sub    $0x10,%rsp
  40cae6:	48 89 7d f8          	mov    %rdi,-0x8(%rbp)
  40caea:	48 8b 45 f8          	mov    -0x8(%rbp),%rax
  40caee:	48 89 c7             	mov    %rax,%rdi
  40caf1:	e8 c0 ff ff ff       	callq  40cab6 <_ZN11arm_compute10TensorInfoD1Ev>
  40caf6:	48 8b 45 f8          	mov    -0x8(%rbp),%rax
  40cafa:	48 89 c7             	mov    %rax,%rdi
  40cafd:	e8 ce 73 ff ff       	callq  403ed0 <_ZdlPv@plt>
  40cb02:	c9                   	leaveq 
  40cb03:	c3                   	retq   

000000000040cb04 <_ZN2cl6detailL10errHandlerEiPKc>:
  40cb04:	55                   	push   %rbp
  40cb05:	48 89 e5             	mov    %rsp,%rbp
  40cb08:	53                   	push   %rbx
  40cb09:	48 83 ec 18          	sub    $0x18,%rsp
  40cb0d:	89 7d ec             	mov    %edi,-0x14(%rbp)
  40cb10:	48 89 75 e0          	mov    %rsi,-0x20(%rbp)
  40cb14:	83 7d ec 00          	cmpl   $0x0,-0x14(%rbp)
  40cb18:	74 30                	je     40cb4a <_ZN2cl6detailL10errHandlerEiPKc+0x46>
  40cb1a:	bf 18 00 00 00       	mov    $0x18,%edi
  40cb1f:	e8 0c 73 ff ff       	callq  403e30 <__cxa_allocate_exception@plt>
  40cb24:	48 89 c3             	mov    %rax,%rbx
  40cb27:	48 8b 55 e0          	mov    -0x20(%rbp),%rdx
  40cb2b:	8b 45 ec             	mov    -0x14(%rbp),%eax
  40cb2e:	89 c6                	mov    %eax,%esi
  40cb30:	48 89 df             	mov    %rbx,%rdi
  40cb33:	e8 70 83 ff ff       	callq  404ea8 <_ZN2cl5ErrorC1EiPKc>
  40cb38:	ba ec 4e 40 00       	mov    $0x404eec,%edx
  40cb3d:	be 18 0a 41 00       	mov    $0x410a18,%esi
  40cb42:	48 89 df             	mov    %rbx,%rdi
  40cb45:	e8 36 76 ff ff       	callq  404180 <__cxa_throw@plt>
  40cb4a:	8b 45 ec             	mov    -0x14(%rbp),%eax
  40cb4d:	48 83 c4 18          	add    $0x18,%rsp
  40cb51:	5b                   	pop    %rbx
  40cb52:	5d                   	pop    %rbp
  40cb53:	c3                   	retq   

000000000040cb54 <_ZN2cl6detailL10getVersionERKSt6vectorIcSaIcEE>:
  40cb54:	55                   	push   %rbp
  40cb55:	48 89 e5             	mov    %rsp,%rbp
  40cb58:	48 83 ec 20          	sub    $0x20,%rsp
  40cb5c:	48 89 7d e8          	mov    %rdi,-0x18(%rbp)
  40cb60:	c7 45 f4 00 00 00 00 	movl   $0x0,-0xc(%rbp)
  40cb67:	c7 45 f8 00 00 00 00 	movl   $0x0,-0x8(%rbp)
  40cb6e:	c7 45 fc 07 00 00 00 	movl   $0x7,-0x4(%rbp)
  40cb75:	8b 45 fc             	mov    -0x4(%rbp),%eax
  40cb78:	48 63 d0             	movslq %eax,%rdx
  40cb7b:	48 8b 45 e8          	mov    -0x18(%rbp),%rax
  40cb7f:	48 89 d6             	mov    %rdx,%rsi
  40cb82:	48 89 c7             	mov    %rax,%rdi
  40cb85:	e8 fa ae ff ff       	callq  407a84 <_ZNKSt6vectorIcSaIcEEixEm>
  40cb8a:	0f b6 00             	movzbl (%rax),%eax
  40cb8d:	3c 2e                	cmp    $0x2e,%al
  40cb8f:	0f 95 c0             	setne  %al
  40cb92:	84 c0                	test   %al,%al
  40cb94:	74 36                	je     40cbcc <_ZN2cl6detailL10getVersionERKSt6vectorIcSaIcEE+0x78>
  40cb96:	8b 55 f4             	mov    -0xc(%rbp),%edx
  40cb99:	89 d0                	mov    %edx,%eax
  40cb9b:	c1 e0 02             	shl    $0x2,%eax
  40cb9e:	01 d0                	add    %edx,%eax
  40cba0:	01 c0                	add    %eax,%eax
  40cba2:	89 45 f4             	mov    %eax,-0xc(%rbp)
  40cba5:	8b 45 fc             	mov    -0x4(%rbp),%eax
  40cba8:	48 63 d0             	movslq %eax,%rdx
  40cbab:	48 8b 45 e8          	mov    -0x18(%rbp),%rax
  40cbaf:	48 89 d6             	mov    %rdx,%rsi
  40cbb2:	48 89 c7             	mov    %rax,%rdi
  40cbb5:	e8 ca ae ff ff       	callq  407a84 <_ZNKSt6vectorIcSaIcEEixEm>
  40cbba:	0f b6 00             	movzbl (%rax),%eax
  40cbbd:	0f be c0             	movsbl %al,%eax
  40cbc0:	83 e8 30             	sub    $0x30,%eax
  40cbc3:	01 45 f4             	add    %eax,-0xc(%rbp)
  40cbc6:	83 45 fc 01          	addl   $0x1,-0x4(%rbp)
  40cbca:	eb a9                	jmp    40cb75 <_ZN2cl6detailL10getVersionERKSt6vectorIcSaIcEE+0x21>
  40cbcc:	83 45 fc 01          	addl   $0x1,-0x4(%rbp)
  40cbd0:	8b 45 fc             	mov    -0x4(%rbp),%eax
  40cbd3:	48 63 d0             	movslq %eax,%rdx
  40cbd6:	48 8b 45 e8          	mov    -0x18(%rbp),%rax
  40cbda:	48 89 d6             	mov    %rdx,%rsi
  40cbdd:	48 89 c7             	mov    %rax,%rdi
  40cbe0:	e8 9f ae ff ff       	callq  407a84 <_ZNKSt6vectorIcSaIcEEixEm>
  40cbe5:	0f b6 00             	movzbl (%rax),%eax
  40cbe8:	3c 20                	cmp    $0x20,%al
  40cbea:	74 23                	je     40cc0f <_ZN2cl6detailL10getVersionERKSt6vectorIcSaIcEE+0xbb>
  40cbec:	8b 45 fc             	mov    -0x4(%rbp),%eax
  40cbef:	48 63 d0             	movslq %eax,%rdx
  40cbf2:	48 8b 45 e8          	mov    -0x18(%rbp),%rax
  40cbf6:	48 89 d6             	mov    %rdx,%rsi
  40cbf9:	48 89 c7             	mov    %rax,%rdi
  40cbfc:	e8 83 ae ff ff       	callq  407a84 <_ZNKSt6vectorIcSaIcEEixEm>
  40cc01:	0f b6 00             	movzbl (%rax),%eax
  40cc04:	84 c0                	test   %al,%al
  40cc06:	74 07                	je     40cc0f <_ZN2cl6detailL10getVersionERKSt6vectorIcSaIcEE+0xbb>
  40cc08:	b8 01 00 00 00       	mov    $0x1,%eax
  40cc0d:	eb 05                	jmp    40cc14 <_ZN2cl6detailL10getVersionERKSt6vectorIcSaIcEE+0xc0>
  40cc0f:	b8 00 00 00 00       	mov    $0x0,%eax
  40cc14:	84 c0                	test   %al,%al
  40cc16:	74 36                	je     40cc4e <_ZN2cl6detailL10getVersionERKSt6vectorIcSaIcEE+0xfa>
  40cc18:	8b 55 f8             	mov    -0x8(%rbp),%edx
  40cc1b:	89 d0                	mov    %edx,%eax
  40cc1d:	c1 e0 02             	shl    $0x2,%eax
  40cc20:	01 d0                	add    %edx,%eax
  40cc22:	01 c0                	add    %eax,%eax
  40cc24:	89 45 f8             	mov    %eax,-0x8(%rbp)
  40cc27:	8b 45 fc             	mov    -0x4(%rbp),%eax
  40cc2a:	48 63 d0             	movslq %eax,%rdx
  40cc2d:	48 8b 45 e8          	mov    -0x18(%rbp),%rax
  40cc31:	48 89 d6             	mov    %rdx,%rsi
  40cc34:	48 89 c7             	mov    %rax,%rdi
  40cc37:	e8 48 ae ff ff       	callq  407a84 <_ZNKSt6vectorIcSaIcEEixEm>
  40cc3c:	0f b6 00             	movzbl (%rax),%eax
  40cc3f:	0f be c0             	movsbl %al,%eax
  40cc42:	83 e8 30             	sub    $0x30,%eax
  40cc45:	01 45 f8             	add    %eax,-0x8(%rbp)
  40cc48:	83 45 fc 01          	addl   $0x1,-0x4(%rbp)
  40cc4c:	eb 82                	jmp    40cbd0 <_ZN2cl6detailL10getVersionERKSt6vectorIcSaIcEE+0x7c>
  40cc4e:	8b 45 f4             	mov    -0xc(%rbp),%eax
  40cc51:	c1 e0 10             	shl    $0x10,%eax
  40cc54:	0b 45 f8             	or     -0x8(%rbp),%eax
  40cc57:	c9                   	leaveq 
  40cc58:	c3                   	retq   
  40cc59:	90                   	nop

000000000040cc5a <_ZN11arm_compute15CLTuner_ReshapeC1Ev>:
  40cc5a:	55                   	push   %rbp
  40cc5b:	48 89 e5             	mov    %rsp,%rbp
  40cc5e:	48 83 ec 10          	sub    $0x10,%rsp
  40cc62:	48 89 7d f8          	mov    %rdi,-0x8(%rbp)
  40cc66:	48 8b 45 f8          	mov    -0x8(%rbp),%rax
  40cc6a:	48 89 c7             	mov    %rax,%rdi
  40cc6d:	e8 f6 07 00 00       	callq  40d468 <_ZN11arm_compute8ICLTunerC1Ev>
  40cc72:	ba 40 0b 41 00       	mov    $0x410b40,%edx
  40cc77:	48 8b 45 f8          	mov    -0x8(%rbp),%rax
  40cc7b:	48 89 10             	mov    %rdx,(%rax)
  40cc7e:	48 8b 45 f8          	mov    -0x8(%rbp),%rax
  40cc82:	48 8d 50 08          	lea    0x8(%rax),%rdx
  40cc86:	b8 00 00 00 00       	mov    $0x0,%eax
  40cc8b:	b9 07 00 00 00       	mov    $0x7,%ecx
  40cc90:	48 89 d7             	mov    %rdx,%rdi
  40cc93:	f3 48 ab             	rep stos %rax,%es:(%rdi)
  40cc96:	48 8b 45 f8          	mov    -0x8(%rbp),%rax
  40cc9a:	48 83 c0 08          	add    $0x8,%rax
  40cc9e:	48 89 c7             	mov    %rax,%rdi
  40cca1:	e8 ba 0a 00 00       	callq  40d760 <_ZNSt13unordered_mapINSt7__cxx1112basic_stringIcSt11char_traitsIcESaIcEEEN2cl7NDRangeESt4hashIS5_ESt8equal_toIS5_ESaISt4pairIKS5_S7_EEEC1Ev>
  40cca6:	90                   	nop
  40cca7:	c9                   	leaveq 
  40cca8:	c3                   	retq   
  40cca9:	90                   	nop

000000000040ccaa <_ZN11arm_compute15CLTuner_Reshape11tune_kernelERNS_9ICLKernelE>:
  40ccaa:	55                   	push   %rbp
  40ccab:	48 89 e5             	mov    %rsp,%rbp
  40ccae:	48 83 ec 60          	sub    $0x60,%rsp
  40ccb2:	48 89 7d a8          	mov    %rdi,-0x58(%rbp)
  40ccb6:	48 89 75 a0          	mov    %rsi,-0x60(%rbp)
  40ccba:	64 48 8b 04 25 28 00 	mov    %fs:0x28,%rax
  40ccc1:	00 00 
  40ccc3:	48 89 45 f8          	mov    %rax,-0x8(%rbp)
  40ccc7:	31 c0                	xor    %eax,%eax
  40ccc9:	48 8b 45 a0          	mov    -0x60(%rbp),%rax
  40cccd:	48 89 c7             	mov    %rax,%rdi
  40ccd0:	e8 6f 07 00 00       	callq  40d444 <_ZNK11arm_compute9ICLKernel9config_idB5cxx11Ev>
  40ccd5:	48 89 45 c8          	mov    %rax,-0x38(%rbp)
  40ccd9:	48 8b 45 c8          	mov    -0x38(%rbp),%rax
  40ccdd:	be 00 98 61 00       	mov    $0x619800,%esi
  40cce2:	48 89 c7             	mov    %rax,%rdi
  40cce5:	e8 ad 0e 00 00       	callq  40db97 <_ZStneIcSt11char_traitsIcESaIcEEbRKNSt7__cxx1112basic_stringIT_T0_T1_EESA_>
  40ccea:	84 c0                	test   %al,%al
  40ccec:	0f 84 ac 00 00 00    	je     40cd9e <_ZN11arm_compute15CLTuner_Reshape11tune_kernelERNS_9ICLKernelE+0xf4>
  40ccf2:	48 8b 45 a8          	mov    -0x58(%rbp),%rax
  40ccf6:	48 8d 50 08          	lea    0x8(%rax),%rdx
  40ccfa:	48 8b 45 c8          	mov    -0x38(%rbp),%rax
  40ccfe:	48 89 c6             	mov    %rax,%rsi
  40cd01:	48 89 d7             	mov    %rdx,%rdi
  40cd04:	e8 b7 0e 00 00       	callq  40dbc0 <_ZNSt13unordered_mapINSt7__cxx1112basic_stringIcSt11char_traitsIcESaIcEEEN2cl7NDRangeESt4hashIS5_ESt8equal_toIS5_ESaISt4pairIKS5_S7_EEE4findERSD_>
  40cd09:	48 89 45 b8          	mov    %rax,-0x48(%rbp)
  40cd0d:	48 8b 45 a8          	mov    -0x58(%rbp),%rax
  40cd11:	48 83 c0 08          	add    $0x8,%rax
  40cd15:	48 89 c7             	mov    %rax,%rdi
  40cd18:	e8 c9 0e 00 00       	callq  40dbe6 <_ZNSt13unordered_mapINSt7__cxx1112basic_stringIcSt11char_traitsIcESaIcEEEN2cl7NDRangeESt4hashIS5_ESt8equal_toIS5_ESaISt4pairIKS5_S7_EEE3endEv>
  40cd1d:	48 89 45 c0          	mov    %rax,-0x40(%rbp)
  40cd21:	48 8d 55 c0          	lea    -0x40(%rbp),%rdx
  40cd25:	48 8d 45 b8          	lea    -0x48(%rbp),%rax
  40cd29:	48 89 d6             	mov    %rdx,%rsi
  40cd2c:	48 89 c7             	mov    %rax,%rdi
  40cd2f:	e8 cc 0e 00 00       	callq  40dc00 <_ZNSt8__detaileqISt4pairIKNSt7__cxx1112basic_stringIcSt11char_traitsIcESaIcEEEN2cl7NDRangeEELb1EEEbRKNS_19_Node_iterator_baseIT_XT0_EEESG_>
  40cd34:	84 c0                	test   %al,%al
  40cd36:	74 47                	je     40cd7f <_ZN11arm_compute15CLTuner_Reshape11tune_kernelERNS_9ICLKernelE+0xd5>
  40cd38:	48 8d 45 d0          	lea    -0x30(%rbp),%rax
  40cd3c:	48 8b 55 a0          	mov    -0x60(%rbp),%rdx
  40cd40:	48 8b 4d a8          	mov    -0x58(%rbp),%rcx
  40cd44:	48 89 ce             	mov    %rcx,%rsi
  40cd47:	48 89 c7             	mov    %rax,%rdi
  40cd4a:	e8 67 00 00 00       	callq  40cdb6 <_ZN11arm_compute15CLTuner_Reshape16find_optimal_lwsERNS_9ICLKernelE>
  40cd4f:	48 8b 45 a8          	mov    -0x58(%rbp),%rax
  40cd53:	48 8d 48 08          	lea    0x8(%rax),%rcx
  40cd57:	48 8d 55 d0          	lea    -0x30(%rbp),%rdx
  40cd5b:	48 8b 45 c8          	mov    -0x38(%rbp),%rax
  40cd5f:	48 89 c6             	mov    %rax,%rsi
  40cd62:	48 89 cf             	mov    %rcx,%rdi
  40cd65:	e8 d4 0e 00 00       	callq  40dc3e <_ZNSt13unordered_mapINSt7__cxx1112basic_stringIcSt11char_traitsIcESaIcEEEN2cl7NDRangeESt4hashIS5_ESt8equal_toIS5_ESaISt4pairIKS5_S7_EEE7emplaceIJRSD_RS7_EEESC_INSt8__detail14_Node_iteratorISE_Lb0ELb1EEEbEDpOT_>
  40cd6a:	48 8d 55 d0          	lea    -0x30(%rbp),%rdx
  40cd6e:	48 8b 45 a0          	mov    -0x60(%rbp),%rax
  40cd72:	48 89 d6             	mov    %rdx,%rsi
  40cd75:	48 89 c7             	mov    %rax,%rdi
  40cd78:	e8 93 06 00 00       	callq  40d410 <_ZN11arm_compute9ICLKernel12set_lws_hintERN2cl7NDRangeE>
  40cd7d:	eb 1f                	jmp    40cd9e <_ZN11arm_compute15CLTuner_Reshape11tune_kernelERNS_9ICLKernelE+0xf4>
  40cd7f:	48 8d 45 b8          	lea    -0x48(%rbp),%rax
  40cd83:	48 89 c7             	mov    %rax,%rdi
  40cd86:	e8 ff 0e 00 00       	callq  40dc8a <_ZNKSt8__detail14_Node_iteratorISt4pairIKNSt7__cxx1112basic_stringIcSt11char_traitsIcESaIcEEEN2cl7NDRangeEELb0ELb1EEptEv>
  40cd8b:	48 8d 50 20          	lea    0x20(%rax),%rdx
  40cd8f:	48 8b 45 a0          	mov    -0x60(%rbp),%rax
  40cd93:	48 89 d6             	mov    %rdx,%rsi
  40cd96:	48 89 c7             	mov    %rax,%rdi
  40cd99:	e8 72 06 00 00       	callq  40d410 <_ZN11arm_compute9ICLKernel12set_lws_hintERN2cl7NDRangeE>
  40cd9e:	90                   	nop
  40cd9f:	48 8b 45 f8          	mov    -0x8(%rbp),%rax
  40cda3:	64 48 33 04 25 28 00 	xor    %fs:0x28,%rax
  40cdaa:	00 00 
  40cdac:	74 05                	je     40cdb3 <_ZN11arm_compute15CLTuner_Reshape11tune_kernelERNS_9ICLKernelE+0x109>
  40cdae:	e8 7d 71 ff ff       	callq  403f30 <__stack_chk_fail@plt>
  40cdb3:	c9                   	leaveq 
  40cdb4:	c3                   	retq   
  40cdb5:	90                   	nop

000000000040cdb6 <_ZN11arm_compute15CLTuner_Reshape16find_optimal_lwsERNS_9ICLKernelE>:
  40cdb6:	55                   	push   %rbp
  40cdb7:	48 89 e5             	mov    %rsp,%rbp
  40cdba:	53                   	push   %rbx
  40cdbb:	48 81 ec a8 00 00 00 	sub    $0xa8,%rsp
  40cdc2:	48 89 bd 68 ff ff ff 	mov    %rdi,-0x98(%rbp)
  40cdc9:	48 89 b5 60 ff ff ff 	mov    %rsi,-0xa0(%rbp)
  40cdd0:	48 89 95 58 ff ff ff 	mov    %rdx,-0xa8(%rbp)
  40cdd7:	64 48 8b 04 25 28 00 	mov    %fs:0x28,%rax
  40cdde:	00 00 
  40cde0:	48 89 45 e8          	mov    %rax,-0x18(%rbp)
  40cde4:	31 c0                	xor    %eax,%eax
  40cde6:	e8 25 6f ff ff       	callq  403d10 <_ZN11arm_compute11CLScheduler3getEv@plt>
  40cdeb:	48 89 c7             	mov    %rax,%rdi
  40cdee:	e8 63 06 00 00       	callq  40d456 <_ZN11arm_compute11CLScheduler5queueEv>
  40cdf3:	48 89 c2             	mov    %rax,%rdx
  40cdf6:	48 8d 45 88          	lea    -0x78(%rbp),%rax
  40cdfa:	48 89 d6             	mov    %rdx,%rsi
  40cdfd:	48 89 c7             	mov    %rax,%rdi
  40ce00:	e8 25 99 ff ff       	callq  40672a <_ZN2cl12CommandQueueC1ERKS0_>
  40ce05:	e8 b9 04 00 00       	callq  40d2c3 <_ZNSt14numeric_limitsIdE3maxEv>
  40ce0a:	66 48 0f 7e c0       	movq   %xmm0,%rax
  40ce0f:	48 89 45 90          	mov    %rax,-0x70(%rbp)
  40ce13:	bf ec 0a 41 00       	mov    $0x410aec,%edi
  40ce18:	e8 63 71 ff ff       	callq  403f80 <getenv@plt>
  40ce1d:	48 89 45 98          	mov    %rax,-0x68(%rbp)
  40ce21:	48 83 7d 98 00       	cmpq   $0x0,-0x68(%rbp)
  40ce26:	74 0e                	je     40ce36 <_ZN11arm_compute15CLTuner_Reshape16find_optimal_lwsERNS_9ICLKernelE+0x80>
  40ce28:	48 8b 45 98          	mov    -0x68(%rbp),%rax
  40ce2c:	48 89 c7             	mov    %rax,%rdi
  40ce2f:	e8 9c 72 ff ff       	callq  4040d0 <atoi@plt>
  40ce34:	eb 05                	jmp    40ce3b <_ZN11arm_compute15CLTuner_Reshape16find_optimal_lwsERNS_9ICLKernelE+0x85>
  40ce36:	b8 00 00 00 00       	mov    $0x0,%eax
  40ce3b:	89 45 80             	mov    %eax,-0x80(%rbp)
  40ce3e:	c7 45 84 80 01 00 00 	movl   $0x180,-0x7c(%rbp)
  40ce45:	48 8b 85 68 ff ff ff 	mov    -0x98(%rbp),%rax
  40ce4c:	b9 01 00 00 00       	mov    $0x1,%ecx
  40ce51:	ba 01 00 00 00       	mov    $0x1,%edx
  40ce56:	be 81 01 00 00       	mov    $0x181,%esi
  40ce5b:	48 89 c7             	mov    %rax,%rdi
  40ce5e:	e8 b1 04 00 00       	callq  40d314 <_ZN2cl7NDRangeC1Emmm>
  40ce63:	48 8d 7d a0          	lea    -0x60(%rbp),%rdi
  40ce67:	48 8d 4d 90          	lea    -0x70(%rbp),%rcx
  40ce6b:	48 8b 95 58 ff ff ff 	mov    -0xa8(%rbp),%rdx
  40ce72:	48 8d 75 88          	lea    -0x78(%rbp),%rsi
  40ce76:	48 8b 85 68 ff ff ff 	mov    -0x98(%rbp),%rax
  40ce7d:	ff 70 18             	pushq  0x18(%rax)
  40ce80:	ff 70 10             	pushq  0x10(%rax)
  40ce83:	ff 70 08             	pushq  0x8(%rax)
  40ce86:	ff 30                	pushq  (%rax)
  40ce88:	48 8b 85 68 ff ff ff 	mov    -0x98(%rbp),%rax
  40ce8f:	ff 70 18             	pushq  0x18(%rax)
  40ce92:	ff 70 10             	pushq  0x10(%rax)
  40ce95:	ff 70 08             	pushq  0x8(%rax)
  40ce98:	ff 30                	pushq  (%rax)
  40ce9a:	e8 16 0b 00 00       	callq  40d9b5 <_Z13benchmark_lwsRN2cl12CommandQueueERN11arm_compute9ICLKernelERdNS_7NDRangeES6_>
  40ce9f:	48 83 c4 40          	add    $0x40,%rsp
  40cea3:	48 8b 85 68 ff ff ff 	mov    -0x98(%rbp),%rax
  40ceaa:	48 8b 55 a0          	mov    -0x60(%rbp),%rdx
  40ceae:	48 89 10             	mov    %rdx,(%rax)
  40ceb1:	48 8b 55 a8          	mov    -0x58(%rbp),%rdx
  40ceb5:	48 89 50 08          	mov    %rdx,0x8(%rax)
  40ceb9:	48 8b 55 b0          	mov    -0x50(%rbp),%rdx
  40cebd:	48 89 50 10          	mov    %rdx,0x10(%rax)
  40cec1:	8b 55 b8             	mov    -0x48(%rbp),%edx
  40cec4:	89 50 18             	mov    %edx,0x18(%rax)
  40cec7:	c7 85 74 ff ff ff 01 	movl   $0x1,-0x8c(%rbp)
  40cece:	00 00 00 
  40ced1:	83 bd 74 ff ff ff 01 	cmpl   $0x1,-0x8c(%rbp)
  40ced8:	0f 8f da 00 00 00    	jg     40cfb8 <_ZN11arm_compute15CLTuner_Reshape16find_optimal_lwsERNS_9ICLKernelE+0x202>
  40cede:	c7 85 78 ff ff ff 01 	movl   $0x1,-0x88(%rbp)
  40cee5:	00 00 00 
  40cee8:	83 bd 78 ff ff ff 01 	cmpl   $0x1,-0x88(%rbp)
  40ceef:	0f 8f b7 00 00 00    	jg     40cfac <_ZN11arm_compute15CLTuner_Reshape16find_optimal_lwsERNS_9ICLKernelE+0x1f6>
  40cef5:	c7 85 7c ff ff ff 01 	movl   $0x1,-0x84(%rbp)
  40cefc:	00 00 00 
  40ceff:	81 bd 7c ff ff ff 80 	cmpl   $0x80,-0x84(%rbp)
  40cf06:	00 00 00 
  40cf09:	0f 8f 91 00 00 00    	jg     40cfa0 <_ZN11arm_compute15CLTuner_Reshape16find_optimal_lwsERNS_9ICLKernelE+0x1ea>
  40cf0f:	8b 85 7c ff ff ff    	mov    -0x84(%rbp),%eax
  40cf15:	48 63 c8             	movslq %eax,%rcx
  40cf18:	8b 85 78 ff ff ff    	mov    -0x88(%rbp),%eax
  40cf1e:	48 63 d0             	movslq %eax,%rdx
  40cf21:	8b 85 74 ff ff ff    	mov    -0x8c(%rbp),%eax
  40cf27:	48 63 f0             	movslq %eax,%rsi
  40cf2a:	48 8d 45 a0          	lea    -0x60(%rbp),%rax
  40cf2e:	48 89 c7             	mov    %rax,%rdi
  40cf31:	e8 de 03 00 00       	callq  40d314 <_ZN2cl7NDRangeC1Emmm>
  40cf36:	48 8d 7d c0          	lea    -0x40(%rbp),%rdi
  40cf3a:	48 8d 4d 90          	lea    -0x70(%rbp),%rcx
  40cf3e:	48 8b 95 58 ff ff ff 	mov    -0xa8(%rbp),%rdx
  40cf45:	48 8d 75 88          	lea    -0x78(%rbp),%rsi
  40cf49:	ff 75 b8             	pushq  -0x48(%rbp)
  40cf4c:	ff 75 b0             	pushq  -0x50(%rbp)
  40cf4f:	ff 75 a8             	pushq  -0x58(%rbp)
  40cf52:	ff 75 a0             	pushq  -0x60(%rbp)
  40cf55:	48 8b 85 68 ff ff ff 	mov    -0x98(%rbp),%rax
  40cf5c:	ff 70 18             	pushq  0x18(%rax)
  40cf5f:	ff 70 10             	pushq  0x10(%rax)
  40cf62:	ff 70 08             	pushq  0x8(%rax)
  40cf65:	ff 30                	pushq  (%rax)
  40cf67:	e8 49 0a 00 00       	callq  40d9b5 <_Z13benchmark_lwsRN2cl12CommandQueueERN11arm_compute9ICLKernelERdNS_7NDRangeES6_>
  40cf6c:	48 83 c4 40          	add    $0x40,%rsp
  40cf70:	48 8b 85 68 ff ff ff 	mov    -0x98(%rbp),%rax
  40cf77:	48 8b 55 c0          	mov    -0x40(%rbp),%rdx
  40cf7b:	48 89 10             	mov    %rdx,(%rax)
  40cf7e:	48 8b 55 c8          	mov    -0x38(%rbp),%rdx
  40cf82:	48 89 50 08          	mov    %rdx,0x8(%rax)
  40cf86:	48 8b 55 d0          	mov    -0x30(%rbp),%rdx
  40cf8a:	48 89 50 10          	mov    %rdx,0x10(%rax)
  40cf8e:	8b 55 d8             	mov    -0x28(%rbp),%edx
  40cf91:	89 50 18             	mov    %edx,0x18(%rax)
  40cf94:	83 85 7c ff ff ff 01 	addl   $0x1,-0x84(%rbp)
  40cf9b:	e9 5f ff ff ff       	jmpq   40ceff <_ZN11arm_compute15CLTuner_Reshape16find_optimal_lwsERNS_9ICLKernelE+0x149>
  40cfa0:	83 85 78 ff ff ff 01 	addl   $0x1,-0x88(%rbp)
  40cfa7:	e9 3c ff ff ff       	jmpq   40cee8 <_ZN11arm_compute15CLTuner_Reshape16find_optimal_lwsERNS_9ICLKernelE+0x132>
  40cfac:	83 85 74 ff ff ff 01 	addl   $0x1,-0x8c(%rbp)
  40cfb3:	e9 19 ff ff ff       	jmpq   40ced1 <_ZN11arm_compute15CLTuner_Reshape16find_optimal_lwsERNS_9ICLKernelE+0x11b>
  40cfb8:	90                   	nop
  40cfb9:	48 8d 45 88          	lea    -0x78(%rbp),%rax
  40cfbd:	48 89 c7             	mov    %rax,%rdi
  40cfc0:	e8 d1 94 ff ff       	callq  406496 <_ZN2cl12CommandQueueD1Ev>
  40cfc5:	90                   	nop
  40cfc6:	48 8b 85 68 ff ff ff 	mov    -0x98(%rbp),%rax
  40cfcd:	48 8b 5d e8          	mov    -0x18(%rbp),%rbx
  40cfd1:	64 48 33 1c 25 28 00 	xor    %fs:0x28,%rbx
  40cfd8:	00 00 
  40cfda:	74 21                	je     40cffd <_ZN11arm_compute15CLTuner_Reshape16find_optimal_lwsERNS_9ICLKernelE+0x247>
  40cfdc:	eb 1a                	jmp    40cff8 <_ZN11arm_compute15CLTuner_Reshape16find_optimal_lwsERNS_9ICLKernelE+0x242>
  40cfde:	48 89 c3             	mov    %rax,%rbx
  40cfe1:	48 8d 45 88          	lea    -0x78(%rbp),%rax
  40cfe5:	48 89 c7             	mov    %rax,%rdi
  40cfe8:	e8 a9 94 ff ff       	callq  406496 <_ZN2cl12CommandQueueD1Ev>
  40cfed:	48 89 d8             	mov    %rbx,%rax
  40cff0:	48 89 c7             	mov    %rax,%rdi
  40cff3:	e8 98 71 ff ff       	callq  404190 <_Unwind_Resume@plt>
  40cff8:	e8 33 6f ff ff       	callq  403f30 <__stack_chk_fail@plt>
  40cffd:	48 8b 5d f8          	mov    -0x8(%rbp),%rbx
  40d001:	c9                   	leaveq 
  40d002:	c3                   	retq   
  40d003:	90                   	nop

000000000040d004 <_ZN11arm_compute15CLTuner_Reshape16import_lws_tableERKSt13unordered_mapINSt7__cxx1112basic_stringIcSt11char_traitsIcESaIcEEEN2cl7NDRangeESt4hashIS7_ESt8equal_toIS7_ESaISt4pairIKS7_S9_EEE>:
  40d004:	55                   	push   %rbp
  40d005:	48 89 e5             	mov    %rsp,%rbp
  40d008:	48 83 ec 10          	sub    $0x10,%rsp
  40d00c:	48 89 7d f8          	mov    %rdi,-0x8(%rbp)
  40d010:	48 89 75 f0          	mov    %rsi,-0x10(%rbp)
  40d014:	48 8b 45 f8          	mov    -0x8(%rbp),%rax
  40d018:	48 83 c0 08          	add    $0x8,%rax
  40d01c:	48 89 c7             	mov    %rax,%rdi
  40d01f:	e8 84 0c 00 00       	callq  40dca8 <_ZNSt13unordered_mapINSt7__cxx1112basic_stringIcSt11char_traitsIcESaIcEEEN2cl7NDRangeESt4hashIS5_ESt8equal_toIS5_ESaISt4pairIKS5_S7_EEE5clearEv>
  40d024:	48 8b 45 f8          	mov    -0x8(%rbp),%rax
  40d028:	48 8d 50 08          	lea    0x8(%rax),%rdx
  40d02c:	48 8b 45 f0          	mov    -0x10(%rbp),%rax
  40d030:	48 89 c6             	mov    %rax,%rsi
  40d033:	48 89 d7             	mov    %rdx,%rdi
  40d036:	e8 c7 0a 00 00       	callq  40db02 <_ZNSt13unordered_mapINSt7__cxx1112basic_stringIcSt11char_traitsIcESaIcEEEN2cl7NDRangeESt4hashIS5_ESt8equal_toIS5_ESaISt4pairIKS5_S7_EEEaSERKSG_>
  40d03b:	90                   	nop
  40d03c:	c9                   	leaveq 
  40d03d:	c3                   	retq   

000000000040d03e <_ZN11arm_compute15CLTuner_Reshape16export_lws_tableB5cxx11Ev>:
  40d03e:	55                   	push   %rbp
  40d03f:	48 89 e5             	mov    %rsp,%rbp
  40d042:	48 89 7d f8          	mov    %rdi,-0x8(%rbp)
  40d046:	48 8b 45 f8          	mov    -0x8(%rbp),%rax
  40d04a:	48 83 c0 08          	add    $0x8,%rax
  40d04e:	5d                   	pop    %rbp
  40d04f:	c3                   	retq   

000000000040d050 <_Z41__static_initialization_and_destruction_0ii>:
  40d050:	55                   	push   %rbp
  40d051:	48 89 e5             	mov    %rsp,%rbp
  40d054:	53                   	push   %rbx
  40d055:	48 83 ec 28          	sub    $0x28,%rsp
  40d059:	89 7d dc             	mov    %edi,-0x24(%rbp)
  40d05c:	89 75 d8             	mov    %esi,-0x28(%rbp)
  40d05f:	64 48 8b 04 25 28 00 	mov    %fs:0x28,%rax
  40d066:	00 00 
  40d068:	48 89 45 e8          	mov    %rax,-0x18(%rbp)
  40d06c:	31 c0                	xor    %eax,%eax
  40d06e:	83 7d dc 01          	cmpl   $0x1,-0x24(%rbp)
  40d072:	0f 85 6f 01 00 00    	jne    40d1e7 <_Z41__static_initialization_and_destruction_0ii+0x197>
  40d078:	81 7d d8 ff ff 00 00 	cmpl   $0xffff,-0x28(%rbp)
  40d07f:	0f 85 62 01 00 00    	jne    40d1e7 <_Z41__static_initialization_and_destruction_0ii+0x197>
  40d085:	b8 98 96 61 00       	mov    $0x619698,%eax
  40d08a:	0f b6 00             	movzbl (%rax),%eax
  40d08d:	84 c0                	test   %al,%al
  40d08f:	75 26                	jne    40d0b7 <_Z41__static_initialization_and_destruction_0ii+0x67>
  40d091:	b8 98 96 61 00       	mov    $0x619698,%eax
  40d096:	c6 00 01             	movb   $0x1,(%rax)
  40d099:	bf 50 96 61 00       	mov    $0x619650,%edi
  40d09e:	e8 97 82 ff ff       	callq  40533a <_ZN2cl6DeviceC1Ev>
  40d0a3:	ba d8 92 61 00       	mov    $0x6192d8,%edx
  40d0a8:	be 50 96 61 00       	mov    $0x619650,%esi
  40d0ad:	bf 86 53 40 00       	mov    $0x405386,%edi
  40d0b2:	e8 09 6e ff ff       	callq  403ec0 <__cxa_atexit@plt>
  40d0b7:	b8 a0 96 61 00       	mov    $0x6196a0,%eax
  40d0bc:	0f b6 00             	movzbl (%rax),%eax
  40d0bf:	84 c0                	test   %al,%al
  40d0c1:	75 26                	jne    40d0e9 <_Z41__static_initialization_and_destruction_0ii+0x99>
  40d0c3:	b8 a0 96 61 00       	mov    $0x6196a0,%eax
  40d0c8:	c6 00 01             	movb   $0x1,(%rax)
  40d0cb:	bf 68 96 61 00       	mov    $0x619668,%edi
  40d0d0:	e8 ef 85 ff ff       	callq  4056c4 <_ZN2cl8PlatformC1Ev>
  40d0d5:	ba d8 92 61 00       	mov    $0x6192d8,%edx
  40d0da:	be 68 96 61 00       	mov    $0x619668,%esi
  40d0df:	bf c0 54 40 00       	mov    $0x4054c0,%edi
  40d0e4:	e8 d7 6d ff ff       	callq  403ec0 <__cxa_atexit@plt>
  40d0e9:	b8 a8 96 61 00       	mov    $0x6196a8,%eax
  40d0ee:	0f b6 00             	movzbl (%rax),%eax
  40d0f1:	84 c0                	test   %al,%al
  40d0f3:	75 26                	jne    40d11b <_Z41__static_initialization_and_destruction_0ii+0xcb>
  40d0f5:	b8 a8 96 61 00       	mov    $0x6196a8,%eax
  40d0fa:	c6 00 01             	movb   $0x1,(%rax)
  40d0fd:	bf 78 96 61 00       	mov    $0x619678,%edi
  40d102:	e8 af 91 ff ff       	callq  4062b6 <_ZN2cl7ContextC1Ev>
  40d107:	ba d8 92 61 00       	mov    $0x6192d8,%edx
  40d10c:	be 78 96 61 00       	mov    $0x619678,%esi
  40d111:	bf 3e 5c 40 00       	mov    $0x405c3e,%edi
  40d116:	e8 a5 6d ff ff       	callq  403ec0 <__cxa_atexit@plt>
  40d11b:	bf c0 97 61 00       	mov    $0x6197c0,%edi
  40d120:	e8 d9 92 ff ff       	callq  4063fe <_ZN2cl7NDRangeC1Ev>
  40d125:	b8 b0 96 61 00       	mov    $0x6196b0,%eax
  40d12a:	0f b6 00             	movzbl (%rax),%eax
  40d12d:	84 c0                	test   %al,%al
  40d12f:	75 26                	jne    40d157 <_Z41__static_initialization_and_destruction_0ii+0x107>
  40d131:	b8 b0 96 61 00       	mov    $0x6196b0,%eax
  40d136:	c6 00 01             	movb   $0x1,(%rax)
  40d139:	bf 88 96 61 00       	mov    $0x619688,%edi
  40d13e:	e8 cb 95 ff ff       	callq  40670e <_ZN2cl12CommandQueueC1Ev>
  40d143:	ba d8 92 61 00       	mov    $0x6192d8,%edx
  40d148:	be 88 96 61 00       	mov    $0x619688,%esi
  40d14d:	bf 96 64 40 00       	mov    $0x406496,%edi
  40d152:	e8 69 6d ff ff       	callq  403ec0 <__cxa_atexit@plt>
  40d157:	ba 01 00 00 00       	mov    $0x1,%edx
  40d15c:	be 80 00 00 00       	mov    $0x80,%esi
  40d161:	bf e0 97 61 00       	mov    $0x6197e0,%edi
  40d166:	e8 cd 92 ff ff       	callq  406438 <_ZN2cl7NDRangeC1Emm>
  40d16b:	48 8d 45 e7          	lea    -0x19(%rbp),%rax
  40d16f:	48 89 c7             	mov    %rax,%rdi
  40d172:	e8 29 70 ff ff       	callq  4041a0 <_ZNSaIcEC1Ev@plt>
  40d177:	48 8d 45 e7          	lea    -0x19(%rbp),%rax
  40d17b:	48 89 c2             	mov    %rax,%rdx
  40d17e:	be 0e 0b 41 00       	mov    $0x410b0e,%esi
  40d183:	bf 00 98 61 00       	mov    $0x619800,%edi
  40d188:	e8 b3 6e ff ff       	callq  404040 <_ZNSt7__cxx1112basic_stringIcSt11char_traitsIcESaIcEEC1EPKcRKS3_@plt>
  40d18d:	48 8d 45 e7          	lea    -0x19(%rbp),%rax
  40d191:	48 89 c7             	mov    %rax,%rdi
  40d194:	e8 77 6d ff ff       	callq  403f10 <_ZNSaIcED1Ev@plt>
  40d199:	ba d8 92 61 00       	mov    $0x6192d8,%edx
  40d19e:	be 00 98 61 00       	mov    $0x619800,%esi
  40d1a3:	bf 90 3e 40 00       	mov    $0x403e90,%edi
  40d1a8:	e8 13 6d ff ff       	callq  403ec0 <__cxa_atexit@plt>
  40d1ad:	bf 20 98 61 00       	mov    $0x619820,%edi
  40d1b2:	e8 f9 6e ff ff       	callq  4040b0 <_ZNSt8ios_base4InitC1Ev@plt>
  40d1b7:	ba d8 92 61 00       	mov    $0x6192d8,%edx
  40d1bc:	be 20 98 61 00       	mov    $0x619820,%esi
  40d1c1:	bf 30 42 40 00       	mov    $0x404230,%edi
  40d1c6:	e8 f5 6c ff ff       	callq  403ec0 <__cxa_atexit@plt>
  40d1cb:	eb 1a                	jmp    40d1e7 <_Z41__static_initialization_and_destruction_0ii+0x197>
  40d1cd:	48 89 c3             	mov    %rax,%rbx
  40d1d0:	48 8d 45 e7          	lea    -0x19(%rbp),%rax
  40d1d4:	48 89 c7             	mov    %rax,%rdi
  40d1d7:	e8 34 6d ff ff       	callq  403f10 <_ZNSaIcED1Ev@plt>
  40d1dc:	48 89 d8             	mov    %rbx,%rax
  40d1df:	48 89 c7             	mov    %rax,%rdi
  40d1e2:	e8 a9 6f ff ff       	callq  404190 <_Unwind_Resume@plt>
  40d1e7:	48 8b 45 e8          	mov    -0x18(%rbp),%rax
  40d1eb:	64 48 33 04 25 28 00 	xor    %fs:0x28,%rax
  40d1f2:	00 00 
  40d1f4:	74 05                	je     40d1fb <_Z41__static_initialization_and_destruction_0ii+0x1ab>
  40d1f6:	e8 35 6d ff ff       	callq  403f30 <__stack_chk_fail@plt>
  40d1fb:	48 83 c4 28          	add    $0x28,%rsp
  40d1ff:	5b                   	pop    %rbx
  40d200:	5d                   	pop    %rbp
  40d201:	c3                   	retq   

000000000040d202 <_GLOBAL__sub_I__ZN11arm_compute15CLTuner_ReshapeC2Ev>:
  40d202:	55                   	push   %rbp
  40d203:	48 89 e5             	mov    %rsp,%rbp
  40d206:	be ff ff 00 00       	mov    $0xffff,%esi
  40d20b:	bf 01 00 00 00       	mov    $0x1,%edi
  40d210:	e8 3b fe ff ff       	callq  40d050 <_Z41__static_initialization_and_destruction_0ii>
  40d215:	5d                   	pop    %rbp
  40d216:	c3                   	retq   

000000000040d217 <_ZNSt11char_traitsIcE7compareEPKcS2_m>:
  40d217:	55                   	push   %rbp
  40d218:	48 89 e5             	mov    %rsp,%rbp
  40d21b:	48 83 ec 20          	sub    $0x20,%rsp
  40d21f:	48 89 7d f8          	mov    %rdi,-0x8(%rbp)
  40d223:	48 89 75 f0          	mov    %rsi,-0x10(%rbp)
  40d227:	48 89 55 e8          	mov    %rdx,-0x18(%rbp)
  40d22b:	48 83 7d e8 00       	cmpq   $0x0,-0x18(%rbp)
  40d230:	75 07                	jne    40d239 <_ZNSt11char_traitsIcE7compareEPKcS2_m+0x22>
  40d232:	b8 00 00 00 00       	mov    $0x0,%eax
  40d237:	eb 17                	jmp    40d250 <_ZNSt11char_traitsIcE7compareEPKcS2_m+0x39>
  40d239:	48 8b 55 e8          	mov    -0x18(%rbp),%rdx
  40d23d:	48 8b 4d f0          	mov    -0x10(%rbp),%rcx
  40d241:	48 8b 45 f8          	mov    -0x8(%rbp),%rax
  40d245:	48 89 ce             	mov    %rcx,%rsi
  40d248:	48 89 c7             	mov    %rax,%rdi
  40d24b:	e8 b0 6b ff ff       	callq  403e00 <memcmp@plt>
  40d250:	c9                   	leaveq 
  40d251:	c3                   	retq   

000000000040d252 <_ZNSt10_Hash_impl4hashEPKvmm>:
  40d252:	55                   	push   %rbp
  40d253:	48 89 e5             	mov    %rsp,%rbp
  40d256:	48 83 ec 20          	sub    $0x20,%rsp
  40d25a:	48 89 7d f8          	mov    %rdi,-0x8(%rbp)
  40d25e:	48 89 75 f0          	mov    %rsi,-0x10(%rbp)
  40d262:	48 89 55 e8          	mov    %rdx,-0x18(%rbp)
  40d266:	48 8b 55 e8          	mov    -0x18(%rbp),%rdx
  40d26a:	48 8b 4d f0          	mov    -0x10(%rbp),%rcx
  40d26e:	48 8b 45 f8          	mov    -0x8(%rbp),%rax
  40d272:	48 89 ce             	mov    %rcx,%rsi
  40d275:	48 89 c7             	mov    %rax,%rdi
  40d278:	e8 b3 6a ff ff       	callq  403d30 <_ZSt11_Hash_bytesPKvmm@plt>
  40d27d:	c9                   	leaveq 
  40d27e:	c3                   	retq   
  40d27f:	90                   	nop

000000000040d280 <_ZNKSt4hashINSt7__cxx1112basic_stringIcSt11char_traitsIcESaIcEEEEclERKS5_>:
  40d280:	55                   	push   %rbp
  40d281:	48 89 e5             	mov    %rsp,%rbp
  40d284:	53                   	push   %rbx
  40d285:	48 83 ec 18          	sub    $0x18,%rsp
  40d289:	48 89 7d e8          	mov    %rdi,-0x18(%rbp)
  40d28d:	48 89 75 e0          	mov    %rsi,-0x20(%rbp)
  40d291:	48 8b 45 e0          	mov    -0x20(%rbp),%rax
  40d295:	48 89 c7             	mov    %rax,%rdi
  40d298:	e8 e3 6d ff ff       	callq  404080 <_ZNKSt7__cxx1112basic_stringIcSt11char_traitsIcESaIcEE6lengthEv@plt>
  40d29d:	48 89 c3             	mov    %rax,%rbx
  40d2a0:	48 8b 45 e0          	mov    -0x20(%rbp),%rax
  40d2a4:	48 89 c7             	mov    %rax,%rdi
  40d2a7:	e8 44 6d ff ff       	callq  403ff0 <_ZNKSt7__cxx1112basic_stringIcSt11char_traitsIcESaIcEE4dataEv@plt>
  40d2ac:	ba 07 69 0f c7       	mov    $0xc70f6907,%edx
  40d2b1:	48 89 de             	mov    %rbx,%rsi
  40d2b4:	48 89 c7             	mov    %rax,%rdi
  40d2b7:	e8 96 ff ff ff       	callq  40d252 <_ZNSt10_Hash_impl4hashEPKvmm>
  40d2bc:	48 83 c4 18          	add    $0x18,%rsp
  40d2c0:	5b                   	pop    %rbx
  40d2c1:	5d                   	pop    %rbp
  40d2c2:	c3                   	retq   

000000000040d2c3 <_ZNSt14numeric_limitsIdE3maxEv>:
  40d2c3:	55                   	push   %rbp
  40d2c4:	48 89 e5             	mov    %rsp,%rbp
  40d2c7:	f2 0f 10 05 51 38 00 	movsd  0x3851(%rip),%xmm0        # 410b20 <_ZN11arm_computeL19max_cl_vector_widthE+0x38>
  40d2ce:	00 
  40d2cf:	5d                   	pop    %rbp
  40d2d0:	c3                   	retq   
  40d2d1:	90                   	nop

000000000040d2d2 <_ZNSt6chrono8durationIlSt5ratioILl1ELl1000000000EEEC1IlvEERKT_>:
  40d2d2:	55                   	push   %rbp
  40d2d3:	48 89 e5             	mov    %rsp,%rbp
  40d2d6:	48 89 7d f8          	mov    %rdi,-0x8(%rbp)
  40d2da:	48 89 75 f0          	mov    %rsi,-0x10(%rbp)
  40d2de:	48 8b 45 f0          	mov    -0x10(%rbp),%rax
  40d2e2:	48 8b 10             	mov    (%rax),%rdx
  40d2e5:	48 8b 45 f8          	mov    -0x8(%rbp),%rax
  40d2e9:	48 89 10             	mov    %rdx,(%rax)
  40d2ec:	90                   	nop
  40d2ed:	5d                   	pop    %rbp
  40d2ee:	c3                   	retq   
  40d2ef:	90                   	nop

000000000040d2f0 <_ZNKSt6chrono8durationIlSt5ratioILl1ELl1000000000EEE5countEv>:
  40d2f0:	55                   	push   %rbp
  40d2f1:	48 89 e5             	mov    %rsp,%rbp
  40d2f4:	48 89 7d f8          	mov    %rdi,-0x8(%rbp)
  40d2f8:	48 8b 45 f8          	mov    -0x8(%rbp),%rax
  40d2fc:	48 8b 00             	mov    (%rax),%rax
  40d2ff:	5d                   	pop    %rbp
  40d300:	c3                   	retq   
  40d301:	90                   	nop

000000000040d302 <_ZNKSt6chrono10time_pointINS_3_V212system_clockENS_8durationIlSt5ratioILl1ELl1000000000EEEEE16time_since_epochEv>:
  40d302:	55                   	push   %rbp
  40d303:	48 89 e5             	mov    %rsp,%rbp
  40d306:	48 89 7d f8          	mov    %rdi,-0x8(%rbp)
  40d30a:	48 8b 45 f8          	mov    -0x8(%rbp),%rax
  40d30e:	48 8b 00             	mov    (%rax),%rax
  40d311:	5d                   	pop    %rbp
  40d312:	c3                   	retq   
  40d313:	90                   	nop

000000000040d314 <_ZN2cl7NDRangeC1Emmm>:
  40d314:	55                   	push   %rbp
  40d315:	48 89 e5             	mov    %rsp,%rbp
  40d318:	48 89 7d f8          	mov    %rdi,-0x8(%rbp)
  40d31c:	48 89 75 f0          	mov    %rsi,-0x10(%rbp)
  40d320:	48 89 55 e8          	mov    %rdx,-0x18(%rbp)
  40d324:	48 89 4d e0          	mov    %rcx,-0x20(%rbp)
  40d328:	48 8b 45 f8          	mov    -0x8(%rbp),%rax
  40d32c:	c7 40 18 03 00 00 00 	movl   $0x3,0x18(%rax)
  40d333:	48 8b 45 f8          	mov    -0x8(%rbp),%rax
  40d337:	48 8b 55 f0          	mov    -0x10(%rbp),%rdx
  40d33b:	48 89 10             	mov    %rdx,(%rax)
  40d33e:	48 8b 45 f8          	mov    -0x8(%rbp),%rax
  40d342:	48 8b 55 e8          	mov    -0x18(%rbp),%rdx
  40d346:	48 89 50 08          	mov    %rdx,0x8(%rax)
  40d34a:	48 8b 45 f8          	mov    -0x8(%rbp),%rax
  40d34e:	48 8b 55 e0          	mov    -0x20(%rbp),%rdx
  40d352:	48 89 50 10          	mov    %rdx,0x10(%rax)
  40d356:	90                   	nop
  40d357:	5d                   	pop    %rbp
  40d358:	c3                   	retq   

000000000040d359 <_ZSt7forwardIbEOT_RNSt16remove_referenceIS0_E4typeE>:
  40d359:	55                   	push   %rbp
  40d35a:	48 89 e5             	mov    %rsp,%rbp
  40d35d:	48 89 7d f8          	mov    %rdi,-0x8(%rbp)
  40d361:	48 8b 45 f8          	mov    -0x8(%rbp),%rax
  40d365:	5d                   	pop    %rbp
  40d366:	c3                   	retq   
  40d367:	90                   	nop

000000000040d368 <_ZNSt8__detail15_Hash_node_baseC1Ev>:
  40d368:	55                   	push   %rbp
  40d369:	48 89 e5             	mov    %rsp,%rbp
  40d36c:	48 89 7d f8          	mov    %rdi,-0x8(%rbp)
  40d370:	48 8b 45 f8          	mov    -0x8(%rbp),%rax
  40d374:	48 c7 00 00 00 00 00 	movq   $0x0,(%rax)
  40d37b:	90                   	nop
  40d37c:	5d                   	pop    %rbp
  40d37d:	c3                   	retq   

000000000040d37e <_ZNKSt8__detail18_Mod_range_hashingclEmm>:
  40d37e:	55                   	push   %rbp
  40d37f:	48 89 e5             	mov    %rsp,%rbp
  40d382:	48 89 7d f8          	mov    %rdi,-0x8(%rbp)
  40d386:	48 89 75 f0          	mov    %rsi,-0x10(%rbp)
  40d38a:	48 89 55 e8          	mov    %rdx,-0x18(%rbp)
  40d38e:	48 8b 45 f0          	mov    -0x10(%rbp),%rax
  40d392:	ba 00 00 00 00       	mov    $0x0,%edx
  40d397:	48 f7 75 e8          	divq   -0x18(%rbp)
  40d39b:	48 89 d0             	mov    %rdx,%rax
  40d39e:	5d                   	pop    %rbp
  40d39f:	c3                   	retq   

000000000040d3a0 <_ZNSt8__detail20_Prime_rehash_policyC1Ef>:
  40d3a0:	55                   	push   %rbp
  40d3a1:	48 89 e5             	mov    %rsp,%rbp
  40d3a4:	48 89 7d f8          	mov    %rdi,-0x8(%rbp)
  40d3a8:	f3 0f 11 45 f4       	movss  %xmm0,-0xc(%rbp)
  40d3ad:	48 8b 45 f8          	mov    -0x8(%rbp),%rax
  40d3b1:	f3 0f 10 45 f4       	movss  -0xc(%rbp),%xmm0
  40d3b6:	f3 0f 11 00          	movss  %xmm0,(%rax)
  40d3ba:	48 8b 45 f8          	mov    -0x8(%rbp),%rax
  40d3be:	48 c7 40 08 00 00 00 	movq   $0x0,0x8(%rax)
  40d3c5:	00 
  40d3c6:	90                   	nop
  40d3c7:	5d                   	pop    %rbp
  40d3c8:	c3                   	retq   
  40d3c9:	90                   	nop

000000000040d3ca <_ZNKSt8__detail20_Prime_rehash_policy8_M_stateEv>:
  40d3ca:	55                   	push   %rbp
  40d3cb:	48 89 e5             	mov    %rsp,%rbp
  40d3ce:	48 89 7d f8          	mov    %rdi,-0x8(%rbp)
  40d3d2:	48 8b 45 f8          	mov    -0x8(%rbp),%rax
  40d3d6:	48 8b 40 08          	mov    0x8(%rax),%rax
  40d3da:	5d                   	pop    %rbp
  40d3db:	c3                   	retq   

000000000040d3dc <_ZNSt8__detail20_Prime_rehash_policy8_M_resetEv>:
  40d3dc:	55                   	push   %rbp
  40d3dd:	48 89 e5             	mov    %rsp,%rbp
  40d3e0:	48 89 7d f8          	mov    %rdi,-0x8(%rbp)
  40d3e4:	48 8b 45 f8          	mov    -0x8(%rbp),%rax
  40d3e8:	48 c7 40 08 00 00 00 	movq   $0x0,0x8(%rax)
  40d3ef:	00 
  40d3f0:	90                   	nop
  40d3f1:	5d                   	pop    %rbp
  40d3f2:	c3                   	retq   
  40d3f3:	90                   	nop

000000000040d3f4 <_ZNSt8__detail20_Prime_rehash_policy8_M_resetEm>:
  40d3f4:	55                   	push   %rbp
  40d3f5:	48 89 e5             	mov    %rsp,%rbp
  40d3f8:	48 89 7d f8          	mov    %rdi,-0x8(%rbp)
  40d3fc:	48 89 75 f0          	mov    %rsi,-0x10(%rbp)
  40d400:	48 8b 45 f8          	mov    -0x8(%rbp),%rax
  40d404:	48 8b 55 f0          	mov    -0x10(%rbp),%rdx
  40d408:	48 89 50 08          	mov    %rdx,0x8(%rax)
  40d40c:	90                   	nop
  40d40d:	5d                   	pop    %rbp
  40d40e:	c3                   	retq   
  40d40f:	90                   	nop

000000000040d410 <_ZN11arm_compute9ICLKernel12set_lws_hintERN2cl7NDRangeE>:
  40d410:	55                   	push   %rbp
  40d411:	48 89 e5             	mov    %rsp,%rbp
  40d414:	48 89 7d f8          	mov    %rdi,-0x8(%rbp)
  40d418:	48 89 75 f0          	mov    %rsi,-0x10(%rbp)
  40d41c:	48 8b 45 f8          	mov    -0x8(%rbp),%rax
  40d420:	48 8b 55 f0          	mov    -0x10(%rbp),%rdx
  40d424:	48 8b 0a             	mov    (%rdx),%rcx
  40d427:	48 89 48 58          	mov    %rcx,0x58(%rax)
  40d42b:	48 8b 4a 08          	mov    0x8(%rdx),%rcx
  40d42f:	48 89 48 60          	mov    %rcx,0x60(%rax)
  40d433:	48 8b 4a 10          	mov    0x10(%rdx),%rcx
  40d437:	48 89 48 68          	mov    %rcx,0x68(%rax)
  40d43b:	8b 52 18             	mov    0x18(%rdx),%edx
  40d43e:	89 50 70             	mov    %edx,0x70(%rax)
  40d441:	90                   	nop
  40d442:	5d                   	pop    %rbp
  40d443:	c3                   	retq   

000000000040d444 <_ZNK11arm_compute9ICLKernel9config_idB5cxx11Ev>:
  40d444:	55                   	push   %rbp
  40d445:	48 89 e5             	mov    %rsp,%rbp
  40d448:	48 89 7d f8          	mov    %rdi,-0x8(%rbp)
  40d44c:	48 8b 45 f8          	mov    -0x8(%rbp),%rax
  40d450:	48 83 e8 80          	sub    $0xffffffffffffff80,%rax
  40d454:	5d                   	pop    %rbp
  40d455:	c3                   	retq   

000000000040d456 <_ZN11arm_compute11CLScheduler5queueEv>:
  40d456:	55                   	push   %rbp
  40d457:	48 89 e5             	mov    %rsp,%rbp
  40d45a:	48 89 7d f8          	mov    %rdi,-0x8(%rbp)
  40d45e:	48 8b 45 f8          	mov    -0x8(%rbp),%rax
  40d462:	48 83 c0 08          	add    $0x8,%rax
  40d466:	5d                   	pop    %rbp
  40d467:	c3                   	retq   

000000000040d468 <_ZN11arm_compute8ICLTunerC1Ev>:
  40d468:	55                   	push   %rbp
  40d469:	48 89 e5             	mov    %rsp,%rbp
  40d46c:	48 89 7d f8          	mov    %rdi,-0x8(%rbp)
  40d470:	ba 68 0b 41 00       	mov    $0x410b68,%edx
  40d475:	48 8b 45 f8          	mov    -0x8(%rbp),%rax
  40d479:	48 89 10             	mov    %rdx,(%rax)
  40d47c:	90                   	nop
  40d47d:	5d                   	pop    %rbp
  40d47e:	c3                   	retq   
  40d47f:	90                   	nop

000000000040d480 <_ZN11arm_compute8ICLTunerD1Ev>:
  40d480:	55                   	push   %rbp
  40d481:	48 89 e5             	mov    %rsp,%rbp
  40d484:	48 89 7d f8          	mov    %rdi,-0x8(%rbp)
  40d488:	ba 68 0b 41 00       	mov    $0x410b68,%edx
  40d48d:	48 8b 45 f8          	mov    -0x8(%rbp),%rax
  40d491:	48 89 10             	mov    %rdx,(%rax)
  40d494:	90                   	nop
  40d495:	5d                   	pop    %rbp
  40d496:	c3                   	retq   
  40d497:	90                   	nop

000000000040d498 <_ZN11arm_compute8ICLTunerD0Ev>:
  40d498:	55                   	push   %rbp
  40d499:	48 89 e5             	mov    %rsp,%rbp
  40d49c:	48 83 ec 10          	sub    $0x10,%rsp
  40d4a0:	48 89 7d f8          	mov    %rdi,-0x8(%rbp)
  40d4a4:	48 8b 45 f8          	mov    -0x8(%rbp),%rax
  40d4a8:	48 89 c7             	mov    %rax,%rdi
  40d4ab:	e8 d0 ff ff ff       	callq  40d480 <_ZN11arm_compute8ICLTunerD1Ev>
  40d4b0:	48 8b 45 f8          	mov    -0x8(%rbp),%rax
  40d4b4:	48 89 c7             	mov    %rax,%rdi
  40d4b7:	e8 14 6a ff ff       	callq  403ed0 <_ZdlPv@plt>
  40d4bc:	c9                   	leaveq 
  40d4bd:	c3                   	retq   

000000000040d4be <_ZNSt8__detail10_Select1stC1Ev>:
  40d4be:	55                   	push   %rbp
  40d4bf:	48 89 e5             	mov    %rsp,%rbp
  40d4c2:	48 89 7d f8          	mov    %rdi,-0x8(%rbp)
  40d4c6:	90                   	nop
  40d4c7:	5d                   	pop    %rbp
  40d4c8:	c3                   	retq   
  40d4c9:	90                   	nop

000000000040d4ca <_ZNSt8__detail21_Hashtable_ebo_helperILi0ENS_10_Select1stELb1EEC1Ev>:
  40d4ca:	55                   	push   %rbp
  40d4cb:	48 89 e5             	mov    %rsp,%rbp
  40d4ce:	48 83 ec 10          	sub    $0x10,%rsp
  40d4d2:	48 89 7d f8          	mov    %rdi,-0x8(%rbp)
  40d4d6:	48 8b 45 f8          	mov    -0x8(%rbp),%rax
  40d4da:	48 89 c7             	mov    %rax,%rdi
  40d4dd:	e8 dc ff ff ff       	callq  40d4be <_ZNSt8__detail10_Select1stC1Ev>
  40d4e2:	90                   	nop
  40d4e3:	c9                   	leaveq 
  40d4e4:	c3                   	retq   
  40d4e5:	90                   	nop

000000000040d4e6 <_ZNSt11__hash_baseImNSt7__cxx1112basic_stringIcSt11char_traitsIcESaIcEEEEC1Ev>:
  40d4e6:	55                   	push   %rbp
  40d4e7:	48 89 e5             	mov    %rsp,%rbp
  40d4ea:	48 89 7d f8          	mov    %rdi,-0x8(%rbp)
  40d4ee:	90                   	nop
  40d4ef:	5d                   	pop    %rbp
  40d4f0:	c3                   	retq   
  40d4f1:	90                   	nop

000000000040d4f2 <_ZNSt4hashINSt7__cxx1112basic_stringIcSt11char_traitsIcESaIcEEEEC1Ev>:
  40d4f2:	55                   	push   %rbp
  40d4f3:	48 89 e5             	mov    %rsp,%rbp
  40d4f6:	48 83 ec 10          	sub    $0x10,%rsp
  40d4fa:	48 89 7d f8          	mov    %rdi,-0x8(%rbp)
  40d4fe:	48 8b 45 f8          	mov    -0x8(%rbp),%rax
  40d502:	48 89 c7             	mov    %rax,%rdi
  40d505:	e8 dc ff ff ff       	callq  40d4e6 <_ZNSt11__hash_baseImNSt7__cxx1112basic_stringIcSt11char_traitsIcESaIcEEEEC1Ev>
  40d50a:	90                   	nop
  40d50b:	c9                   	leaveq 
  40d50c:	c3                   	retq   
  40d50d:	90                   	nop

000000000040d50e <_ZNSt8__detail21_Hashtable_ebo_helperILi1ESt4hashINSt7__cxx1112basic_stringIcSt11char_traitsIcESaIcEEEELb1EEC1Ev>:
  40d50e:	55                   	push   %rbp
  40d50f:	48 89 e5             	mov    %rsp,%rbp
  40d512:	48 83 ec 10          	sub    $0x10,%rsp
  40d516:	48 89 7d f8          	mov    %rdi,-0x8(%rbp)
  40d51a:	48 8b 45 f8          	mov    -0x8(%rbp),%rax
  40d51e:	48 89 c7             	mov    %rax,%rdi
  40d521:	e8 cc ff ff ff       	callq  40d4f2 <_ZNSt4hashINSt7__cxx1112basic_stringIcSt11char_traitsIcESaIcEEEEC1Ev>
  40d526:	90                   	nop
  40d527:	c9                   	leaveq 
  40d528:	c3                   	retq   
  40d529:	90                   	nop

000000000040d52a <_ZNSt8__detail18_Mod_range_hashingC1Ev>:
  40d52a:	55                   	push   %rbp
  40d52b:	48 89 e5             	mov    %rsp,%rbp
  40d52e:	48 89 7d f8          	mov    %rdi,-0x8(%rbp)
  40d532:	90                   	nop
  40d533:	5d                   	pop    %rbp
  40d534:	c3                   	retq   
  40d535:	90                   	nop

000000000040d536 <_ZNSt8__detail21_Hashtable_ebo_helperILi2ENS_18_Mod_range_hashingELb1EEC1Ev>:
  40d536:	55                   	push   %rbp
  40d537:	48 89 e5             	mov    %rsp,%rbp
  40d53a:	48 83 ec 10          	sub    $0x10,%rsp
  40d53e:	48 89 7d f8          	mov    %rdi,-0x8(%rbp)
  40d542:	48 8b 45 f8          	mov    -0x8(%rbp),%rax
  40d546:	48 89 c7             	mov    %rax,%rdi
  40d549:	e8 dc ff ff ff       	callq  40d52a <_ZNSt8__detail18_Mod_range_hashingC1Ev>
  40d54e:	90                   	nop
  40d54f:	c9                   	leaveq 
  40d550:	c3                   	retq   
  40d551:	90                   	nop

000000000040d552 <_ZNSt8__detail15_Hash_code_baseINSt7__cxx1112basic_stringIcSt11char_traitsIcESaIcEEESt4pairIKS6_N2cl7NDRangeEENS_10_Select1stESt4hashIS6_ENS_18_Mod_range_hashingENS_20_Default_ranged_hashELb1EEC1Ev>:
  40d552:	55                   	push   %rbp
  40d553:	48 89 e5             	mov    %rsp,%rbp
  40d556:	48 83 ec 10          	sub    $0x10,%rsp
  40d55a:	48 89 7d f8          	mov    %rdi,-0x8(%rbp)
  40d55e:	48 8b 45 f8          	mov    -0x8(%rbp),%rax
  40d562:	48 89 c7             	mov    %rax,%rdi
  40d565:	e8 60 ff ff ff       	callq  40d4ca <_ZNSt8__detail21_Hashtable_ebo_helperILi0ENS_10_Select1stELb1EEC1Ev>
  40d56a:	48 8b 45 f8          	mov    -0x8(%rbp),%rax
  40d56e:	48 89 c7             	mov    %rax,%rdi
  40d571:	e8 98 ff ff ff       	callq  40d50e <_ZNSt8__detail21_Hashtable_ebo_helperILi1ESt4hashINSt7__cxx1112basic_stringIcSt11char_traitsIcESaIcEEEELb1EEC1Ev>
  40d576:	48 8b 45 f8          	mov    -0x8(%rbp),%rax
  40d57a:	48 89 c7             	mov    %rax,%rdi
  40d57d:	e8 b4 ff ff ff       	callq  40d536 <_ZNSt8__detail21_Hashtable_ebo_helperILi2ENS_18_Mod_range_hashingELb1EEC1Ev>
  40d582:	90                   	nop
  40d583:	c9                   	leaveq 
  40d584:	c3                   	retq   
  40d585:	90                   	nop

000000000040d586 <_ZNSt15binary_functionINSt7__cxx1112basic_stringIcSt11char_traitsIcESaIcEEES5_bEC1Ev>:
  40d586:	55                   	push   %rbp
  40d587:	48 89 e5             	mov    %rsp,%rbp
  40d58a:	48 89 7d f8          	mov    %rdi,-0x8(%rbp)
  40d58e:	90                   	nop
  40d58f:	5d                   	pop    %rbp
  40d590:	c3                   	retq   
  40d591:	90                   	nop

000000000040d592 <_ZNSt8equal_toINSt7__cxx1112basic_stringIcSt11char_traitsIcESaIcEEEEC1Ev>:
  40d592:	55                   	push   %rbp
  40d593:	48 89 e5             	mov    %rsp,%rbp
  40d596:	48 83 ec 10          	sub    $0x10,%rsp
  40d59a:	48 89 7d f8          	mov    %rdi,-0x8(%rbp)
  40d59e:	48 8b 45 f8          	mov    -0x8(%rbp),%rax
  40d5a2:	48 89 c7             	mov    %rax,%rdi
  40d5a5:	e8 dc ff ff ff       	callq  40d586 <_ZNSt15binary_functionINSt7__cxx1112basic_stringIcSt11char_traitsIcESaIcEEES5_bEC1Ev>
  40d5aa:	90                   	nop
  40d5ab:	c9                   	leaveq 
  40d5ac:	c3                   	retq   
  40d5ad:	90                   	nop

000000000040d5ae <_ZNSt8__detail21_Hashtable_ebo_helperILi0ESt8equal_toINSt7__cxx1112basic_stringIcSt11char_traitsIcESaIcEEEELb1EEC1Ev>:
  40d5ae:	55                   	push   %rbp
  40d5af:	48 89 e5             	mov    %rsp,%rbp
  40d5b2:	48 83 ec 10          	sub    $0x10,%rsp
  40d5b6:	48 89 7d f8          	mov    %rdi,-0x8(%rbp)
  40d5ba:	48 8b 45 f8          	mov    -0x8(%rbp),%rax
  40d5be:	48 89 c7             	mov    %rax,%rdi
  40d5c1:	e8 cc ff ff ff       	callq  40d592 <_ZNSt8equal_toINSt7__cxx1112basic_stringIcSt11char_traitsIcESaIcEEEEC1Ev>
  40d5c6:	90                   	nop
  40d5c7:	c9                   	leaveq 
  40d5c8:	c3                   	retq   
  40d5c9:	90                   	nop

000000000040d5ca <_ZNSt8__detail15_Hashtable_baseINSt7__cxx1112basic_stringIcSt11char_traitsIcESaIcEEESt4pairIKS6_N2cl7NDRangeEENS_10_Select1stESt8equal_toIS6_ESt4hashIS6_ENS_18_Mod_range_hashingENS_20_Default_ranged_hashENS_17_Hashtable_traitsILb1ELb0ELb1EEEEC1Ev>:
  40d5ca:	55                   	push   %rbp
  40d5cb:	48 89 e5             	mov    %rsp,%rbp
  40d5ce:	48 83 ec 10          	sub    $0x10,%rsp
  40d5d2:	48 89 7d f8          	mov    %rdi,-0x8(%rbp)
  40d5d6:	48 8b 45 f8          	mov    -0x8(%rbp),%rax
  40d5da:	48 89 c7             	mov    %rax,%rdi
  40d5dd:	e8 70 ff ff ff       	callq  40d552 <_ZNSt8__detail15_Hash_code_baseINSt7__cxx1112basic_stringIcSt11char_traitsIcESaIcEEESt4pairIKS6_N2cl7NDRangeEENS_10_Select1stESt4hashIS6_ENS_18_Mod_range_hashingENS_20_Default_ranged_hashELb1EEC1Ev>
  40d5e2:	48 8b 45 f8          	mov    -0x8(%rbp),%rax
  40d5e6:	48 89 c7             	mov    %rax,%rdi
  40d5e9:	e8 c0 ff ff ff       	callq  40d5ae <_ZNSt8__detail21_Hashtable_ebo_helperILi0ESt8equal_toINSt7__cxx1112basic_stringIcSt11char_traitsIcESaIcEEEELb1EEC1Ev>
  40d5ee:	90                   	nop
  40d5ef:	c9                   	leaveq 
  40d5f0:	c3                   	retq   
  40d5f1:	90                   	nop

000000000040d5f2 <_ZNSt8__detail9_Map_baseINSt7__cxx1112basic_stringIcSt11char_traitsIcESaIcEEESt4pairIKS6_N2cl7NDRangeEESaISB_ENS_10_Select1stESt8equal_toIS6_ESt4hashIS6_ENS_18_Mod_range_hashingENS_20_Default_ranged_hashENS_20_Prime_rehash_policyENS_17_Hashtable_traitsILb1ELb0ELb1EEELb1EEC1Ev>:
  40d5f2:	55                   	push   %rbp
  40d5f3:	48 89 e5             	mov    %rsp,%rbp
  40d5f6:	48 89 7d f8          	mov    %rdi,-0x8(%rbp)
  40d5fa:	90                   	nop
  40d5fb:	5d                   	pop    %rbp
  40d5fc:	c3                   	retq   
  40d5fd:	90                   	nop

000000000040d5fe <_ZNSt8__detail12_Insert_baseINSt7__cxx1112basic_stringIcSt11char_traitsIcESaIcEEESt4pairIKS6_N2cl7NDRangeEESaISB_ENS_10_Select1stESt8equal_toIS6_ESt4hashIS6_ENS_18_Mod_range_hashingENS_20_Default_ranged_hashENS_20_Prime_rehash_policyENS_17_Hashtable_traitsILb1ELb0ELb1EEEEC1Ev>:
  40d5fe:	55                   	push   %rbp
  40d5ff:	48 89 e5             	mov    %rsp,%rbp
  40d602:	48 89 7d f8          	mov    %rdi,-0x8(%rbp)
  40d606:	90                   	nop
  40d607:	5d                   	pop    %rbp
  40d608:	c3                   	retq   
  40d609:	90                   	nop

000000000040d60a <_ZNSt8__detail7_InsertINSt7__cxx1112basic_stringIcSt11char_traitsIcESaIcEEESt4pairIKS6_N2cl7NDRangeEESaISB_ENS_10_Select1stESt8equal_toIS6_ESt4hashIS6_ENS_18_Mod_range_hashingENS_20_Default_ranged_hashENS_20_Prime_rehash_policyENS_17_Hashtable_traitsILb1ELb0ELb1EEELb0ELb1EEC1Ev>:
  40d60a:	55                   	push   %rbp
  40d60b:	48 89 e5             	mov    %rsp,%rbp
  40d60e:	48 83 ec 10          	sub    $0x10,%rsp
  40d612:	48 89 7d f8          	mov    %rdi,-0x8(%rbp)
  40d616:	48 8b 45 f8          	mov    -0x8(%rbp),%rax
  40d61a:	48 89 c7             	mov    %rax,%rdi
  40d61d:	e8 dc ff ff ff       	callq  40d5fe <_ZNSt8__detail12_Insert_baseINSt7__cxx1112basic_stringIcSt11char_traitsIcESaIcEEESt4pairIKS6_N2cl7NDRangeEESaISB_ENS_10_Select1stESt8equal_toIS6_ESt4hashIS6_ENS_18_Mod_range_hashingENS_20_Default_ranged_hashENS_20_Prime_rehash_policyENS_17_Hashtable_traitsILb1ELb0ELb1EEEEC1Ev>
  40d622:	90                   	nop
  40d623:	c9                   	leaveq 
  40d624:	c3                   	retq   
  40d625:	90                   	nop

000000000040d626 <_ZNSt8__detail12_Rehash_baseINSt7__cxx1112basic_stringIcSt11char_traitsIcESaIcEEESt4pairIKS6_N2cl7NDRangeEESaISB_ENS_10_Select1stESt8equal_toIS6_ESt4hashIS6_ENS_18_Mod_range_hashingENS_20_Default_ranged_hashENS_20_Prime_rehash_policyENS_17_Hashtable_traitsILb1ELb0ELb1EEEEC1Ev>:
  40d626:	55                   	push   %rbp
  40d627:	48 89 e5             	mov    %rsp,%rbp
  40d62a:	48 89 7d f8          	mov    %rdi,-0x8(%rbp)
  40d62e:	90                   	nop
  40d62f:	5d                   	pop    %rbp
  40d630:	c3                   	retq   
  40d631:	90                   	nop

000000000040d632 <_ZNSt8__detail9_EqualityINSt7__cxx1112basic_stringIcSt11char_traitsIcESaIcEEESt4pairIKS6_N2cl7NDRangeEESaISB_ENS_10_Select1stESt8equal_toIS6_ESt4hashIS6_ENS_18_Mod_range_hashingENS_20_Default_ranged_hashENS_20_Prime_rehash_policyENS_17_Hashtable_traitsILb1ELb0ELb1EEELb1EEC1Ev>:
  40d632:	55                   	push   %rbp
  40d633:	48 89 e5             	mov    %rsp,%rbp
  40d636:	48 89 7d f8          	mov    %rdi,-0x8(%rbp)
  40d63a:	90                   	nop
  40d63b:	5d                   	pop    %rbp
  40d63c:	c3                   	retq   
  40d63d:	90                   	nop

000000000040d63e <_ZNSt8__detail21_Hashtable_ebo_helperILi0ESaINS_10_Hash_nodeISt4pairIKNSt7__cxx1112basic_stringIcSt11char_traitsIcESaIcEEEN2cl7NDRangeEELb1EEEELb1EEC1Ev>:
  40d63e:	55                   	push   %rbp
  40d63f:	48 89 e5             	mov    %rsp,%rbp
  40d642:	48 83 ec 10          	sub    $0x10,%rsp
  40d646:	48 89 7d f8          	mov    %rdi,-0x8(%rbp)
  40d64a:	48 8b 45 f8          	mov    -0x8(%rbp),%rax
  40d64e:	48 89 c7             	mov    %rax,%rdi
  40d651:	e8 d6 04 00 00       	callq  40db2c <_ZNSaINSt8__detail10_Hash_nodeISt4pairIKNSt7__cxx1112basic_stringIcSt11char_traitsIcESaIcEEEN2cl7NDRangeEELb1EEEEC1Ev>
  40d656:	90                   	nop
  40d657:	c9                   	leaveq 
  40d658:	c3                   	retq   
  40d659:	90                   	nop

000000000040d65a <_ZNSt8__detail21_Hashtable_ebo_helperILi0ESaINS_10_Hash_nodeISt4pairIKNSt7__cxx1112basic_stringIcSt11char_traitsIcESaIcEEEN2cl7NDRangeEELb1EEEELb1EED1Ev>:
  40d65a:	55                   	push   %rbp
  40d65b:	48 89 e5             	mov    %rsp,%rbp
  40d65e:	48 83 ec 10          	sub    $0x10,%rsp
  40d662:	48 89 7d f8          	mov    %rdi,-0x8(%rbp)
  40d666:	48 8b 45 f8          	mov    -0x8(%rbp),%rax
  40d66a:	48 89 c7             	mov    %rax,%rdi
  40d66d:	e8 d6 04 00 00       	callq  40db48 <_ZNSaINSt8__detail10_Hash_nodeISt4pairIKNSt7__cxx1112basic_stringIcSt11char_traitsIcESaIcEEEN2cl7NDRangeEELb1EEEED1Ev>
  40d672:	90                   	nop
  40d673:	c9                   	leaveq 
  40d674:	c3                   	retq   
  40d675:	90                   	nop

000000000040d676 <_ZNSt8__detail16_Hashtable_allocISaINS_10_Hash_nodeISt4pairIKNSt7__cxx1112basic_stringIcSt11char_traitsIcESaIcEEEN2cl7NDRangeEELb1EEEEEC1Ev>:
  40d676:	55                   	push   %rbp
  40d677:	48 89 e5             	mov    %rsp,%rbp
  40d67a:	48 83 ec 10          	sub    $0x10,%rsp
  40d67e:	48 89 7d f8          	mov    %rdi,-0x8(%rbp)
  40d682:	48 8b 45 f8          	mov    -0x8(%rbp),%rax
  40d686:	48 89 c7             	mov    %rax,%rdi
  40d689:	e8 b0 ff ff ff       	callq  40d63e <_ZNSt8__detail21_Hashtable_ebo_helperILi0ESaINS_10_Hash_nodeISt4pairIKNSt7__cxx1112basic_stringIcSt11char_traitsIcESaIcEEEN2cl7NDRangeEELb1EEEELb1EEC1Ev>
  40d68e:	90                   	nop
  40d68f:	c9                   	leaveq 
  40d690:	c3                   	retq   
  40d691:	90                   	nop

000000000040d692 <_ZNSt8__detail16_Hashtable_allocISaINS_10_Hash_nodeISt4pairIKNSt7__cxx1112basic_stringIcSt11char_traitsIcESaIcEEEN2cl7NDRangeEELb1EEEEED1Ev>:
  40d692:	55                   	push   %rbp
  40d693:	48 89 e5             	mov    %rsp,%rbp
  40d696:	48 83 ec 10          	sub    $0x10,%rsp
  40d69a:	48 89 7d f8          	mov    %rdi,-0x8(%rbp)
  40d69e:	48 8b 45 f8          	mov    -0x8(%rbp),%rax
  40d6a2:	48 89 c7             	mov    %rax,%rdi
  40d6a5:	e8 b0 ff ff ff       	callq  40d65a <_ZNSt8__detail21_Hashtable_ebo_helperILi0ESaINS_10_Hash_nodeISt4pairIKNSt7__cxx1112basic_stringIcSt11char_traitsIcESaIcEEEN2cl7NDRangeEELb1EEEELb1EED1Ev>
  40d6aa:	90                   	nop
  40d6ab:	c9                   	leaveq 
  40d6ac:	c3                   	retq   
  40d6ad:	90                   	nop

000000000040d6ae <_ZNSt10_HashtableINSt7__cxx1112basic_stringIcSt11char_traitsIcESaIcEEESt4pairIKS5_N2cl7NDRangeEESaISA_ENSt8__detail10_Select1stESt8equal_toIS5_ESt4hashIS5_ENSC_18_Mod_range_hashingENSC_20_Default_ranged_hashENSC_20_Prime_rehash_policyENSC_17_Hashtable_traitsILb1ELb0ELb1EEEEC1Ev>:
  40d6ae:	55                   	push   %rbp
  40d6af:	48 89 e5             	mov    %rsp,%rbp
  40d6b2:	48 83 ec 10          	sub    $0x10,%rsp
  40d6b6:	48 89 7d f8          	mov    %rdi,-0x8(%rbp)
  40d6ba:	48 8b 45 f8          	mov    -0x8(%rbp),%rax
  40d6be:	48 89 c7             	mov    %rax,%rdi
  40d6c1:	e8 04 ff ff ff       	callq  40d5ca <_ZNSt8__detail15_Hashtable_baseINSt7__cxx1112basic_stringIcSt11char_traitsIcESaIcEEESt4pairIKS6_N2cl7NDRangeEENS_10_Select1stESt8equal_toIS6_ESt4hashIS6_ENS_18_Mod_range_hashingENS_20_Default_ranged_hashENS_17_Hashtable_traitsILb1ELb0ELb1EEEEC1Ev>
  40d6c6:	48 8b 45 f8          	mov    -0x8(%rbp),%rax
  40d6ca:	48 89 c7             	mov    %rax,%rdi
  40d6cd:	e8 20 ff ff ff       	callq  40d5f2 <_ZNSt8__detail9_Map_baseINSt7__cxx1112basic_stringIcSt11char_traitsIcESaIcEEESt4pairIKS6_N2cl7NDRangeEESaISB_ENS_10_Select1stESt8equal_toIS6_ESt4hashIS6_ENS_18_Mod_range_hashingENS_20_Default_ranged_hashENS_20_Prime_rehash_policyENS_17_Hashtable_traitsILb1ELb0ELb1EEELb1EEC1Ev>
  40d6d2:	48 8b 45 f8          	mov    -0x8(%rbp),%rax
  40d6d6:	48 89 c7             	mov    %rax,%rdi
  40d6d9:	e8 2c ff ff ff       	callq  40d60a <_ZNSt8__detail7_InsertINSt7__cxx1112basic_stringIcSt11char_traitsIcESaIcEEESt4pairIKS6_N2cl7NDRangeEESaISB_ENS_10_Select1stESt8equal_toIS6_ESt4hashIS6_ENS_18_Mod_range_hashingENS_20_Default_ranged_hashENS_20_Prime_rehash_policyENS_17_Hashtable_traitsILb1ELb0ELb1EEELb0ELb1EEC1Ev>
  40d6de:	48 8b 45 f8          	mov    -0x8(%rbp),%rax
  40d6e2:	48 89 c7             	mov    %rax,%rdi
  40d6e5:	e8 3c ff ff ff       	callq  40d626 <_ZNSt8__detail12_Rehash_baseINSt7__cxx1112basic_stringIcSt11char_traitsIcESaIcEEESt4pairIKS6_N2cl7NDRangeEESaISB_ENS_10_Select1stESt8equal_toIS6_ESt4hashIS6_ENS_18_Mod_range_hashingENS_20_Default_ranged_hashENS_20_Prime_rehash_policyENS_17_Hashtable_traitsILb1ELb0ELb1EEEEC1Ev>
  40d6ea:	48 8b 45 f8          	mov    -0x8(%rbp),%rax
  40d6ee:	48 89 c7             	mov    %rax,%rdi
  40d6f1:	e8 3c ff ff ff       	callq  40d632 <_ZNSt8__detail9_EqualityINSt7__cxx1112basic_stringIcSt11char_traitsIcESaIcEEESt4pairIKS6_N2cl7NDRangeEESaISB_ENS_10_Select1stESt8equal_toIS6_ESt4hashIS6_ENS_18_Mod_range_hashingENS_20_Default_ranged_hashENS_20_Prime_rehash_policyENS_17_Hashtable_traitsILb1ELb0ELb1EEELb1EEC1Ev>
  40d6f6:	48 8b 45 f8          	mov    -0x8(%rbp),%rax
  40d6fa:	48 89 c7             	mov    %rax,%rdi
  40d6fd:	e8 74 ff ff ff       	callq  40d676 <_ZNSt8__detail16_Hashtable_allocISaINS_10_Hash_nodeISt4pairIKNSt7__cxx1112basic_stringIcSt11char_traitsIcESaIcEEEN2cl7NDRangeEELb1EEEEEC1Ev>
  40d702:	48 8b 45 f8          	mov    -0x8(%rbp),%rax
  40d706:	48 8d 50 30          	lea    0x30(%rax),%rdx
  40d70a:	48 8b 45 f8          	mov    -0x8(%rbp),%rax
  40d70e:	48 89 10             	mov    %rdx,(%rax)
  40d711:	48 8b 45 f8          	mov    -0x8(%rbp),%rax
  40d715:	48 c7 40 08 01 00 00 	movq   $0x1,0x8(%rax)
  40d71c:	00 
  40d71d:	48 8b 45 f8          	mov    -0x8(%rbp),%rax
  40d721:	48 83 c0 10          	add    $0x10,%rax
  40d725:	48 89 c7             	mov    %rax,%rdi
  40d728:	e8 3b fc ff ff       	callq  40d368 <_ZNSt8__detail15_Hash_node_baseC1Ev>
  40d72d:	48 8b 45 f8          	mov    -0x8(%rbp),%rax
  40d731:	48 c7 40 18 00 00 00 	movq   $0x0,0x18(%rax)
  40d738:	00 
  40d739:	48 8b 45 f8          	mov    -0x8(%rbp),%rax
  40d73d:	48 83 c0 20          	add    $0x20,%rax
  40d741:	f3 0f 10 05 df 33 00 	movss  0x33df(%rip),%xmm0        # 410b28 <_ZN11arm_computeL19max_cl_vector_widthE+0x40>
  40d748:	00 
  40d749:	48 89 c7             	mov    %rax,%rdi
  40d74c:	e8 4f fc ff ff       	callq  40d3a0 <_ZNSt8__detail20_Prime_rehash_policyC1Ef>
  40d751:	48 8b 45 f8          	mov    -0x8(%rbp),%rax
  40d755:	48 c7 40 30 00 00 00 	movq   $0x0,0x30(%rax)
  40d75c:	00 
  40d75d:	90                   	nop
  40d75e:	c9                   	leaveq 
  40d75f:	c3                   	retq   

000000000040d760 <_ZNSt13unordered_mapINSt7__cxx1112basic_stringIcSt11char_traitsIcESaIcEEEN2cl7NDRangeESt4hashIS5_ESt8equal_toIS5_ESaISt4pairIKS5_S7_EEEC1Ev>:
  40d760:	55                   	push   %rbp
  40d761:	48 89 e5             	mov    %rsp,%rbp
  40d764:	48 83 ec 10          	sub    $0x10,%rsp
  40d768:	48 89 7d f8          	mov    %rdi,-0x8(%rbp)
  40d76c:	48 8b 45 f8          	mov    -0x8(%rbp),%rax
  40d770:	48 89 c7             	mov    %rax,%rdi
  40d773:	e8 36 ff ff ff       	callq  40d6ae <_ZNSt10_HashtableINSt7__cxx1112basic_stringIcSt11char_traitsIcESaIcEEESt4pairIKS5_N2cl7NDRangeEESaISA_ENSt8__detail10_Select1stESt8equal_toIS5_ESt4hashIS5_ENSC_18_Mod_range_hashingENSC_20_Default_ranged_hashENSC_20_Prime_rehash_policyENSC_17_Hashtable_traitsILb1ELb0ELb1EEEEC1Ev>
  40d778:	90                   	nop
  40d779:	c9                   	leaveq 
  40d77a:	c3                   	retq   
  40d77b:	90                   	nop

000000000040d77c <_ZNSt13unordered_mapINSt7__cxx1112basic_stringIcSt11char_traitsIcESaIcEEEN2cl7NDRangeESt4hashIS5_ESt8equal_toIS5_ESaISt4pairIKS5_S7_EEED1Ev>:
  40d77c:	55                   	push   %rbp
  40d77d:	48 89 e5             	mov    %rsp,%rbp
  40d780:	48 83 ec 10          	sub    $0x10,%rsp
  40d784:	48 89 7d f8          	mov    %rdi,-0x8(%rbp)
  40d788:	48 8b 45 f8          	mov    -0x8(%rbp),%rax
  40d78c:	48 89 c7             	mov    %rax,%rdi
  40d78f:	e8 d0 03 00 00       	callq  40db64 <_ZNSt10_HashtableINSt7__cxx1112basic_stringIcSt11char_traitsIcESaIcEEESt4pairIKS5_N2cl7NDRangeEESaISA_ENSt8__detail10_Select1stESt8equal_toIS5_ESt4hashIS5_ENSC_18_Mod_range_hashingENSC_20_Default_ranged_hashENSC_20_Prime_rehash_policyENSC_17_Hashtable_traitsILb1ELb0ELb1EEEED1Ev>
  40d794:	90                   	nop
  40d795:	c9                   	leaveq 
  40d796:	c3                   	retq   

000000000040d797 <_ZNSt6chronomiIlSt5ratioILl1ELl1000000000EElS2_EENSt11common_typeIJNS_8durationIT_T0_EENS4_IT1_T2_EEEE4typeERKS7_RKSA_>:
  40d797:	55                   	push   %rbp
  40d798:	48 89 e5             	mov    %rsp,%rbp
  40d79b:	53                   	push   %rbx
  40d79c:	48 83 ec 48          	sub    $0x48,%rsp
  40d7a0:	48 89 7d b8          	mov    %rdi,-0x48(%rbp)
  40d7a4:	48 89 75 b0          	mov    %rsi,-0x50(%rbp)
  40d7a8:	64 48 8b 04 25 28 00 	mov    %fs:0x28,%rax
  40d7af:	00 00 
  40d7b1:	48 89 45 e8          	mov    %rax,-0x18(%rbp)
  40d7b5:	31 c0                	xor    %eax,%eax
  40d7b7:	48 8b 45 b8          	mov    -0x48(%rbp),%rax
  40d7bb:	48 8b 00             	mov    (%rax),%rax
  40d7be:	48 89 45 c8          	mov    %rax,-0x38(%rbp)
  40d7c2:	48 8d 45 c8          	lea    -0x38(%rbp),%rax
  40d7c6:	48 89 c7             	mov    %rax,%rdi
  40d7c9:	e8 22 fb ff ff       	callq  40d2f0 <_ZNKSt6chrono8durationIlSt5ratioILl1ELl1000000000EEE5countEv>
  40d7ce:	48 89 c3             	mov    %rax,%rbx
  40d7d1:	48 8b 45 b0          	mov    -0x50(%rbp),%rax
  40d7d5:	48 8b 00             	mov    (%rax),%rax
  40d7d8:	48 89 45 d0          	mov    %rax,-0x30(%rbp)
  40d7dc:	48 8d 45 d0          	lea    -0x30(%rbp),%rax
  40d7e0:	48 89 c7             	mov    %rax,%rdi
  40d7e3:	e8 08 fb ff ff       	callq  40d2f0 <_ZNKSt6chrono8durationIlSt5ratioILl1ELl1000000000EEE5countEv>
  40d7e8:	48 29 c3             	sub    %rax,%rbx
  40d7eb:	48 89 d8             	mov    %rbx,%rax
  40d7ee:	48 89 45 d8          	mov    %rax,-0x28(%rbp)
  40d7f2:	48 8d 55 d8          	lea    -0x28(%rbp),%rdx
  40d7f6:	48 8d 45 e0          	lea    -0x20(%rbp),%rax
  40d7fa:	48 89 d6             	mov    %rdx,%rsi
  40d7fd:	48 89 c7             	mov    %rax,%rdi
  40d800:	e8 cd fa ff ff       	callq  40d2d2 <_ZNSt6chrono8durationIlSt5ratioILl1ELl1000000000EEEC1IlvEERKT_>
  40d805:	48 8b 45 e0          	mov    -0x20(%rbp),%rax
  40d809:	48 8b 4d e8          	mov    -0x18(%rbp),%rcx
  40d80d:	64 48 33 0c 25 28 00 	xor    %fs:0x28,%rcx
  40d814:	00 00 
  40d816:	74 05                	je     40d81d <_ZNSt6chronomiIlSt5ratioILl1ELl1000000000EElS2_EENSt11common_typeIJNS_8durationIT_T0_EENS4_IT1_T2_EEEE4typeERKS7_RKSA_+0x86>
  40d818:	e8 13 67 ff ff       	callq  403f30 <__stack_chk_fail@plt>
  40d81d:	48 83 c4 48          	add    $0x48,%rsp
  40d821:	5b                   	pop    %rbx
  40d822:	5d                   	pop    %rbp
  40d823:	c3                   	retq   

000000000040d824 <_ZNSt6chronomiINS_3_V212system_clockENS_8durationIlSt5ratioILl1ELl1000000000EEEES6_EENSt11common_typeIJT0_T1_EE4typeERKNS_10time_pointIT_S8_EERKNSC_ISD_S9_EE>:
  40d824:	55                   	push   %rbp
  40d825:	48 89 e5             	mov    %rsp,%rbp
  40d828:	48 83 ec 30          	sub    $0x30,%rsp
  40d82c:	48 89 7d d8          	mov    %rdi,-0x28(%rbp)
  40d830:	48 89 75 d0          	mov    %rsi,-0x30(%rbp)
  40d834:	64 48 8b 04 25 28 00 	mov    %fs:0x28,%rax
  40d83b:	00 00 
  40d83d:	48 89 45 f8          	mov    %rax,-0x8(%rbp)
  40d841:	31 c0                	xor    %eax,%eax
  40d843:	48 8b 45 d0          	mov    -0x30(%rbp),%rax
  40d847:	48 89 c7             	mov    %rax,%rdi
  40d84a:	e8 b3 fa ff ff       	callq  40d302 <_ZNKSt6chrono10time_pointINS_3_V212system_clockENS_8durationIlSt5ratioILl1ELl1000000000EEEEE16time_since_epochEv>
  40d84f:	48 89 45 f0          	mov    %rax,-0x10(%rbp)
  40d853:	48 8b 45 d8          	mov    -0x28(%rbp),%rax
  40d857:	48 89 c7             	mov    %rax,%rdi
  40d85a:	e8 a3 fa ff ff       	callq  40d302 <_ZNKSt6chrono10time_pointINS_3_V212system_clockENS_8durationIlSt5ratioILl1ELl1000000000EEEEE16time_since_epochEv>
  40d85f:	48 89 45 e8          	mov    %rax,-0x18(%rbp)
  40d863:	48 8d 55 f0          	lea    -0x10(%rbp),%rdx
  40d867:	48 8d 45 e8          	lea    -0x18(%rbp),%rax
  40d86b:	48 89 d6             	mov    %rdx,%rsi
  40d86e:	48 89 c7             	mov    %rax,%rdi
  40d871:	e8 21 ff ff ff       	callq  40d797 <_ZNSt6chronomiIlSt5ratioILl1ELl1000000000EElS2_EENSt11common_typeIJNS_8durationIT_T0_EENS4_IT1_T2_EEEE4typeERKS7_RKSA_>
  40d876:	48 8b 4d f8          	mov    -0x8(%rbp),%rcx
  40d87a:	64 48 33 0c 25 28 00 	xor    %fs:0x28,%rcx
  40d881:	00 00 
  40d883:	74 05                	je     40d88a <_ZNSt6chronomiINS_3_V212system_clockENS_8durationIlSt5ratioILl1ELl1000000000EEEES6_EENSt11common_typeIJT0_T1_EE4typeERKNS_10time_pointIT_S8_EERKNSC_ISD_S9_EE+0x66>
  40d885:	e8 a6 66 ff ff       	callq  403f30 <__stack_chk_fail@plt>
  40d88a:	c9                   	leaveq 
  40d88b:	c3                   	retq   

000000000040d88c <_ZNSt6chrono8durationIdSt5ratioILl1ELl1000000000EEEC1IdvEERKT_>:
  40d88c:	55                   	push   %rbp
  40d88d:	48 89 e5             	mov    %rsp,%rbp
  40d890:	48 89 7d f8          	mov    %rdi,-0x8(%rbp)
  40d894:	48 89 75 f0          	mov    %rsi,-0x10(%rbp)
  40d898:	48 8b 45 f0          	mov    -0x10(%rbp),%rax
  40d89c:	f2 0f 10 00          	movsd  (%rax),%xmm0
  40d8a0:	48 8b 45 f8          	mov    -0x8(%rbp),%rax
  40d8a4:	f2 0f 11 00          	movsd  %xmm0,(%rax)
  40d8a8:	90                   	nop
  40d8a9:	5d                   	pop    %rbp
  40d8aa:	c3                   	retq   

000000000040d8ab <_ZNSt6chrono20__duration_cast_implINS_8durationIdSt5ratioILl1ELl1000000000EEEES2_ILl1ELl1EEdLb1ELb1EE6__castIlS3_EES4_RKNS1_IT_T0_EE>:
  40d8ab:	55                   	push   %rbp
  40d8ac:	48 89 e5             	mov    %rsp,%rbp
  40d8af:	48 83 ec 30          	sub    $0x30,%rsp
  40d8b3:	48 89 7d d8          	mov    %rdi,-0x28(%rbp)
  40d8b7:	64 48 8b 04 25 28 00 	mov    %fs:0x28,%rax
  40d8be:	00 00 
  40d8c0:	48 89 45 f8          	mov    %rax,-0x8(%rbp)
  40d8c4:	31 c0                	xor    %eax,%eax
  40d8c6:	48 8b 45 d8          	mov    -0x28(%rbp),%rax
  40d8ca:	48 89 c7             	mov    %rax,%rdi
  40d8cd:	e8 1e fa ff ff       	callq  40d2f0 <_ZNKSt6chrono8durationIlSt5ratioILl1ELl1000000000EEE5countEv>
  40d8d2:	66 0f ef c0          	pxor   %xmm0,%xmm0
  40d8d6:	f2 48 0f 2a c0       	cvtsi2sd %rax,%xmm0
  40d8db:	f2 0f 11 45 e8       	movsd  %xmm0,-0x18(%rbp)
  40d8e0:	48 8d 55 e8          	lea    -0x18(%rbp),%rdx
  40d8e4:	48 8d 45 f0          	lea    -0x10(%rbp),%rax
  40d8e8:	48 89 d6             	mov    %rdx,%rsi
  40d8eb:	48 89 c7             	mov    %rax,%rdi
  40d8ee:	e8 99 ff ff ff       	callq  40d88c <_ZNSt6chrono8durationIdSt5ratioILl1ELl1000000000EEEC1IdvEERKT_>
  40d8f3:	f2 0f 10 45 f0       	movsd  -0x10(%rbp),%xmm0
  40d8f8:	48 8b 45 f8          	mov    -0x8(%rbp),%rax
  40d8fc:	64 48 33 04 25 28 00 	xor    %fs:0x28,%rax
  40d903:	00 00 
  40d905:	74 05                	je     40d90c <_ZNSt6chrono20__duration_cast_implINS_8durationIdSt5ratioILl1ELl1000000000EEEES2_ILl1ELl1EEdLb1ELb1EE6__castIlS3_EES4_RKNS1_IT_T0_EE+0x61>
  40d907:	e8 24 66 ff ff       	callq  403f30 <__stack_chk_fail@plt>
  40d90c:	c9                   	leaveq 
  40d90d:	c3                   	retq   

000000000040d90e <_ZNSt6chrono13duration_castINS_8durationIdSt5ratioILl1ELl1000000000EEEElS3_EENSt9enable_ifIXsrNS_13__is_durationIT_EE5valueES7_E4typeERKNS1_IT0_T1_EE>:
  40d90e:	55                   	push   %rbp
  40d90f:	48 89 e5             	mov    %rsp,%rbp
  40d912:	48 83 ec 10          	sub    $0x10,%rsp
  40d916:	48 89 7d f8          	mov    %rdi,-0x8(%rbp)
  40d91a:	48 8b 45 f8          	mov    -0x8(%rbp),%rax
  40d91e:	48 89 c7             	mov    %rax,%rdi
  40d921:	e8 85 ff ff ff       	callq  40d8ab <_ZNSt6chrono20__duration_cast_implINS_8durationIdSt5ratioILl1ELl1000000000EEEES2_ILl1ELl1EEdLb1ELb1EE6__castIlS3_EES4_RKNS1_IT_T0_EE>
  40d926:	66 48 0f 7e c0       	movq   %xmm0,%rax
  40d92b:	48 89 45 f0          	mov    %rax,-0x10(%rbp)
  40d92f:	f2 0f 10 45 f0       	movsd  -0x10(%rbp),%xmm0
  40d934:	c9                   	leaveq 
  40d935:	c3                   	retq   

000000000040d936 <_ZNKSt6chrono8durationIdSt5ratioILl1ELl1000000000EEE5countEv>:
  40d936:	55                   	push   %rbp
  40d937:	48 89 e5             	mov    %rsp,%rbp
  40d93a:	48 89 7d f8          	mov    %rdi,-0x8(%rbp)
  40d93e:	48 8b 45 f8          	mov    -0x8(%rbp),%rax
  40d942:	f2 0f 10 00          	movsd  (%rax),%xmm0
  40d946:	5d                   	pop    %rbp
  40d947:	c3                   	retq   

000000000040d948 <_ZNSt6chrono8durationIdSt5ratioILl1ELl1000000000EEEC1IlS2_vEERKNS0_IT_T0_EE>:
  40d948:	55                   	push   %rbp
  40d949:	48 89 e5             	mov    %rsp,%rbp
  40d94c:	48 83 ec 30          	sub    $0x30,%rsp
  40d950:	48 89 7d e8          	mov    %rdi,-0x18(%rbp)
  40d954:	48 89 75 e0          	mov    %rsi,-0x20(%rbp)
  40d958:	64 48 8b 04 25 28 00 	mov    %fs:0x28,%rax
  40d95f:	00 00 
  40d961:	48 89 45 f8          	mov    %rax,-0x8(%rbp)
  40d965:	31 c0                	xor    %eax,%eax
  40d967:	48 8b 45 e0          	mov    -0x20(%rbp),%rax
  40d96b:	48 89 c7             	mov    %rax,%rdi
  40d96e:	e8 9b ff ff ff       	callq  40d90e <_ZNSt6chrono13duration_castINS_8durationIdSt5ratioILl1ELl1000000000EEEElS3_EENSt9enable_ifIXsrNS_13__is_durationIT_EE5valueES7_E4typeERKNS1_IT0_T1_EE>
  40d973:	66 48 0f 7e c0       	movq   %xmm0,%rax
  40d978:	48 89 45 d8          	mov    %rax,-0x28(%rbp)
  40d97c:	f2 0f 10 45 d8       	movsd  -0x28(%rbp),%xmm0
  40d981:	f2 0f 11 45 f0       	movsd  %xmm0,-0x10(%rbp)
  40d986:	48 8d 45 f0          	lea    -0x10(%rbp),%rax
  40d98a:	48 89 c7             	mov    %rax,%rdi
  40d98d:	e8 a4 ff ff ff       	callq  40d936 <_ZNKSt6chrono8durationIdSt5ratioILl1ELl1000000000EEE5countEv>
  40d992:	66 48 0f 7e c2       	movq   %xmm0,%rdx
  40d997:	48 8b 45 e8          	mov    -0x18(%rbp),%rax
  40d99b:	48 89 10             	mov    %rdx,(%rax)
  40d99e:	90                   	nop
  40d99f:	48 8b 45 f8          	mov    -0x8(%rbp),%rax
  40d9a3:	64 48 33 04 25 28 00 	xor    %fs:0x28,%rax
  40d9aa:	00 00 
  40d9ac:	74 05                	je     40d9b3 <_ZNSt6chrono8durationIdSt5ratioILl1ELl1000000000EEEC1IlS2_vEERKNS0_IT_T0_EE+0x6b>
  40d9ae:	e8 7d 65 ff ff       	callq  403f30 <__stack_chk_fail@plt>
  40d9b3:	c9                   	leaveq 
  40d9b4:	c3                   	retq   

000000000040d9b5 <_Z13benchmark_lwsRN2cl12CommandQueueERN11arm_compute9ICLKernelERdNS_7NDRangeES6_>:
  40d9b5:	55                   	push   %rbp
  40d9b6:	48 89 e5             	mov    %rsp,%rbp
  40d9b9:	53                   	push   %rbx
  40d9ba:	48 83 ec 58          	sub    $0x58,%rsp
  40d9be:	48 89 7d b8          	mov    %rdi,-0x48(%rbp)
  40d9c2:	48 89 75 b0          	mov    %rsi,-0x50(%rbp)
  40d9c6:	48 89 55 a8          	mov    %rdx,-0x58(%rbp)
  40d9ca:	48 89 4d a0          	mov    %rcx,-0x60(%rbp)
  40d9ce:	64 48 8b 04 25 28 00 	mov    %fs:0x28,%rax
  40d9d5:	00 00 
  40d9d7:	48 89 45 e8          	mov    %rax,-0x18(%rbp)
  40d9db:	31 c0                	xor    %eax,%eax
  40d9dd:	48 8d 55 30          	lea    0x30(%rbp),%rdx
  40d9e1:	48 8b 45 a8          	mov    -0x58(%rbp),%rax
  40d9e5:	48 89 d6             	mov    %rdx,%rsi
  40d9e8:	48 89 c7             	mov    %rax,%rdi
  40d9eb:	e8 20 fa ff ff       	callq  40d410 <_ZN11arm_compute9ICLKernel12set_lws_hintERN2cl7NDRangeE>
  40d9f0:	e8 0b 63 ff ff       	callq  403d00 <_ZNSt6chrono3_V212system_clock3nowEv@plt>
  40d9f5:	48 89 45 c8          	mov    %rax,-0x38(%rbp)
  40d9f9:	48 8b 45 a8          	mov    -0x58(%rbp),%rax
  40d9fd:	48 8b 00             	mov    (%rax),%rax
  40da00:	48 83 c0 20          	add    $0x20,%rax
  40da04:	48 8b 18             	mov    (%rax),%rbx
  40da07:	48 8b 45 a8          	mov    -0x58(%rbp),%rax
  40da0b:	48 89 c7             	mov    %rax,%rdi
  40da0e:	e8 2d 65 ff ff       	callq  403f40 <_ZNK11arm_compute7IKernel6windowEv@plt>
  40da13:	48 89 c1             	mov    %rax,%rcx
  40da16:	48 8b 55 b0          	mov    -0x50(%rbp),%rdx
  40da1a:	48 8b 45 a8          	mov    -0x58(%rbp),%rax
  40da1e:	48 89 ce             	mov    %rcx,%rsi
  40da21:	48 89 c7             	mov    %rax,%rdi
  40da24:	ff d3                	callq  *%rbx
  40da26:	e8 e5 62 ff ff       	callq  403d10 <_ZN11arm_compute11CLScheduler3getEv@plt>
  40da2b:	48 89 c7             	mov    %rax,%rdi
  40da2e:	e8 2b 98 ff ff       	callq  40725e <_ZN11arm_compute11CLScheduler4syncEv>
  40da33:	e8 c8 62 ff ff       	callq  403d00 <_ZNSt6chrono3_V212system_clock3nowEv@plt>
  40da38:	48 89 45 d0          	mov    %rax,-0x30(%rbp)
  40da3c:	48 8d 55 c8          	lea    -0x38(%rbp),%rdx
  40da40:	48 8d 45 d0          	lea    -0x30(%rbp),%rax
  40da44:	48 89 d6             	mov    %rdx,%rsi
  40da47:	48 89 c7             	mov    %rax,%rdi
  40da4a:	e8 d5 fd ff ff       	callq  40d824 <_ZNSt6chronomiINS_3_V212system_clockENS_8durationIlSt5ratioILl1ELl1000000000EEEES6_EENSt11common_typeIJT0_T1_EE4typeERKNS_10time_pointIT_S8_EERKNSC_ISD_S9_EE>
  40da4f:	48 89 45 e0          	mov    %rax,-0x20(%rbp)
  40da53:	48 8d 55 e0          	lea    -0x20(%rbp),%rdx
  40da57:	48 8d 45 d8          	lea    -0x28(%rbp),%rax
  40da5b:	48 89 d6             	mov    %rdx,%rsi
  40da5e:	48 89 c7             	mov    %rax,%rdi
  40da61:	e8 e2 fe ff ff       	callq  40d948 <_ZNSt6chrono8durationIdSt5ratioILl1ELl1000000000EEEC1IlS2_vEERKNS0_IT_T0_EE>
  40da66:	48 8d 45 d8          	lea    -0x28(%rbp),%rax
  40da6a:	48 89 c7             	mov    %rax,%rdi
  40da6d:	e8 c4 fe ff ff       	callq  40d936 <_ZNKSt6chrono8durationIdSt5ratioILl1ELl1000000000EEE5countEv>
  40da72:	66 0f 28 c8          	movapd %xmm0,%xmm1
  40da76:	48 8b 45 a0          	mov    -0x60(%rbp),%rax
  40da7a:	f2 0f 10 00          	movsd  (%rax),%xmm0
  40da7e:	66 0f 2e c1          	ucomisd %xmm1,%xmm0
  40da82:	0f 97 c0             	seta   %al
  40da85:	84 c0                	test   %al,%al
  40da87:	74 36                	je     40dabf <_Z13benchmark_lwsRN2cl12CommandQueueERN11arm_compute9ICLKernelERdNS_7NDRangeES6_+0x10a>
  40da89:	48 8d 45 d8          	lea    -0x28(%rbp),%rax
  40da8d:	48 89 c7             	mov    %rax,%rdi
  40da90:	e8 a1 fe ff ff       	callq  40d936 <_ZNKSt6chrono8durationIdSt5ratioILl1ELl1000000000EEE5countEv>
  40da95:	66 48 0f 7e c2       	movq   %xmm0,%rdx
  40da9a:	48 8b 45 a0          	mov    -0x60(%rbp),%rax
  40da9e:	48 89 10             	mov    %rdx,(%rax)
  40daa1:	48 8b 45 30          	mov    0x30(%rbp),%rax
  40daa5:	48 89 45 10          	mov    %rax,0x10(%rbp)
  40daa9:	48 8b 45 38          	mov    0x38(%rbp),%rax
  40daad:	48 89 45 18          	mov    %rax,0x18(%rbp)
  40dab1:	48 8b 45 40          	mov    0x40(%rbp),%rax
  40dab5:	48 89 45 20          	mov    %rax,0x20(%rbp)
  40dab9:	8b 45 48             	mov    0x48(%rbp),%eax
  40dabc:	89 45 28             	mov    %eax,0x28(%rbp)
  40dabf:	48 8b 45 b8          	mov    -0x48(%rbp),%rax
  40dac3:	48 8b 55 10          	mov    0x10(%rbp),%rdx
  40dac7:	48 89 10             	mov    %rdx,(%rax)
  40daca:	48 8b 55 18          	mov    0x18(%rbp),%rdx
  40dace:	48 89 50 08          	mov    %rdx,0x8(%rax)
  40dad2:	48 8b 55 20          	mov    0x20(%rbp),%rdx
  40dad6:	48 89 50 10          	mov    %rdx,0x10(%rax)
  40dada:	48 8b 55 28          	mov    0x28(%rbp),%rdx
  40dade:	48 89 50 18          	mov    %rdx,0x18(%rax)
  40dae2:	48 8b 45 b8          	mov    -0x48(%rbp),%rax
  40dae6:	48 8b 5d e8          	mov    -0x18(%rbp),%rbx
  40daea:	64 48 33 1c 25 28 00 	xor    %fs:0x28,%rbx
  40daf1:	00 00 
  40daf3:	74 05                	je     40dafa <_Z13benchmark_lwsRN2cl12CommandQueueERN11arm_compute9ICLKernelERdNS_7NDRangeES6_+0x145>
  40daf5:	e8 36 64 ff ff       	callq  403f30 <__stack_chk_fail@plt>
  40dafa:	48 83 c4 58          	add    $0x58,%rsp
  40dafe:	5b                   	pop    %rbx
  40daff:	5d                   	pop    %rbp
  40db00:	c3                   	retq   
  40db01:	90                   	nop

000000000040db02 <_ZNSt13unordered_mapINSt7__cxx1112basic_stringIcSt11char_traitsIcESaIcEEEN2cl7NDRangeESt4hashIS5_ESt8equal_toIS5_ESaISt4pairIKS5_S7_EEEaSERKSG_>:
  40db02:	55                   	push   %rbp
  40db03:	48 89 e5             	mov    %rsp,%rbp
  40db06:	48 83 ec 10          	sub    $0x10,%rsp
  40db0a:	48 89 7d f8          	mov    %rdi,-0x8(%rbp)
  40db0e:	48 89 75 f0          	mov    %rsi,-0x10(%rbp)
  40db12:	48 8b 55 f0          	mov    -0x10(%rbp),%rdx
  40db16:	48 8b 45 f8          	mov    -0x8(%rbp),%rax
  40db1a:	48 89 d6             	mov    %rdx,%rsi
  40db1d:	48 89 c7             	mov    %rax,%rdi
  40db20:	e8 1d 02 00 00       	callq  40dd42 <_ZNSt10_HashtableINSt7__cxx1112basic_stringIcSt11char_traitsIcESaIcEEESt4pairIKS5_N2cl7NDRangeEESaISA_ENSt8__detail10_Select1stESt8equal_toIS5_ESt4hashIS5_ENSC_18_Mod_range_hashingENSC_20_Default_ranged_hashENSC_20_Prime_rehash_policyENSC_17_Hashtable_traitsILb1ELb0ELb1EEEEaSERKSN_>
  40db25:	48 8b 45 f8          	mov    -0x8(%rbp),%rax
  40db29:	c9                   	leaveq 
  40db2a:	c3                   	retq   
  40db2b:	90                   	nop

000000000040db2c <_ZNSaINSt8__detail10_Hash_nodeISt4pairIKNSt7__cxx1112basic_stringIcSt11char_traitsIcESaIcEEEN2cl7NDRangeEELb1EEEEC1Ev>:
  40db2c:	55                   	push   %rbp
  40db2d:	48 89 e5             	mov    %rsp,%rbp
  40db30:	48 83 ec 10          	sub    $0x10,%rsp
  40db34:	48 89 7d f8          	mov    %rdi,-0x8(%rbp)
  40db38:	48 8b 45 f8          	mov    -0x8(%rbp),%rax
  40db3c:	48 89 c7             	mov    %rax,%rdi
  40db3f:	e8 90 05 00 00       	callq  40e0d4 <_ZN9__gnu_cxx13new_allocatorINSt8__detail10_Hash_nodeISt4pairIKNSt7__cxx1112basic_stringIcSt11char_traitsIcESaIcEEEN2cl7NDRangeEELb1EEEEC1Ev>
  40db44:	90                   	nop
  40db45:	c9                   	leaveq 
  40db46:	c3                   	retq   
  40db47:	90                   	nop

000000000040db48 <_ZNSaINSt8__detail10_Hash_nodeISt4pairIKNSt7__cxx1112basic_stringIcSt11char_traitsIcESaIcEEEN2cl7NDRangeEELb1EEEED1Ev>:
  40db48:	55                   	push   %rbp
  40db49:	48 89 e5             	mov    %rsp,%rbp
  40db4c:	48 83 ec 10          	sub    $0x10,%rsp
  40db50:	48 89 7d f8          	mov    %rdi,-0x8(%rbp)
  40db54:	48 8b 45 f8          	mov    -0x8(%rbp),%rax
  40db58:	48 89 c7             	mov    %rax,%rdi
  40db5b:	e8 80 05 00 00       	callq  40e0e0 <_ZN9__gnu_cxx13new_allocatorINSt8__detail10_Hash_nodeISt4pairIKNSt7__cxx1112basic_stringIcSt11char_traitsIcESaIcEEEN2cl7NDRangeEELb1EEEED1Ev>
  40db60:	90                   	nop
  40db61:	c9                   	leaveq 
  40db62:	c3                   	retq   
  40db63:	90                   	nop

000000000040db64 <_ZNSt10_HashtableINSt7__cxx1112basic_stringIcSt11char_traitsIcESaIcEEESt4pairIKS5_N2cl7NDRangeEESaISA_ENSt8__detail10_Select1stESt8equal_toIS5_ESt4hashIS5_ENSC_18_Mod_range_hashingENSC_20_Default_ranged_hashENSC_20_Prime_rehash_policyENSC_17_Hashtable_traitsILb1ELb0ELb1EEEED1Ev>:
  40db64:	55                   	push   %rbp
  40db65:	48 89 e5             	mov    %rsp,%rbp
  40db68:	48 83 ec 10          	sub    $0x10,%rsp
  40db6c:	48 89 7d f8          	mov    %rdi,-0x8(%rbp)
  40db70:	48 8b 45 f8          	mov    -0x8(%rbp),%rax
  40db74:	48 89 c7             	mov    %rax,%rdi
  40db77:	e8 70 05 00 00       	callq  40e0ec <_ZNSt10_HashtableINSt7__cxx1112basic_stringIcSt11char_traitsIcESaIcEEESt4pairIKS5_N2cl7NDRangeEESaISA_ENSt8__detail10_Select1stESt8equal_toIS5_ESt4hashIS5_ENSC_18_Mod_range_hashingENSC_20_Default_ranged_hashENSC_20_Prime_rehash_policyENSC_17_Hashtable_traitsILb1ELb0ELb1EEEE5clearEv>
  40db7c:	48 8b 45 f8          	mov    -0x8(%rbp),%rax
  40db80:	48 89 c7             	mov    %rax,%rdi
  40db83:	e8 ce 05 00 00       	callq  40e156 <_ZNSt10_HashtableINSt7__cxx1112basic_stringIcSt11char_traitsIcESaIcEEESt4pairIKS5_N2cl7NDRangeEESaISA_ENSt8__detail10_Select1stESt8equal_toIS5_ESt4hashIS5_ENSC_18_Mod_range_hashingENSC_20_Default_ranged_hashENSC_20_Prime_rehash_policyENSC_17_Hashtable_traitsILb1ELb0ELb1EEEE21_M_deallocate_bucketsEv>
  40db88:	48 8b 45 f8          	mov    -0x8(%rbp),%rax
  40db8c:	48 89 c7             	mov    %rax,%rdi
  40db8f:	e8 fe fa ff ff       	callq  40d692 <_ZNSt8__detail16_Hashtable_allocISaINS_10_Hash_nodeISt4pairIKNSt7__cxx1112basic_stringIcSt11char_traitsIcESaIcEEEN2cl7NDRangeEELb1EEEEED1Ev>
  40db94:	90                   	nop
  40db95:	c9                   	leaveq 
  40db96:	c3                   	retq   

000000000040db97 <_ZStneIcSt11char_traitsIcESaIcEEbRKNSt7__cxx1112basic_stringIT_T0_T1_EESA_>:
  40db97:	55                   	push   %rbp
  40db98:	48 89 e5             	mov    %rsp,%rbp
  40db9b:	48 83 ec 10          	sub    $0x10,%rsp
  40db9f:	48 89 7d f8          	mov    %rdi,-0x8(%rbp)
  40dba3:	48 89 75 f0          	mov    %rsi,-0x10(%rbp)
  40dba7:	48 8b 55 f0          	mov    -0x10(%rbp),%rdx
  40dbab:	48 8b 45 f8          	mov    -0x8(%rbp),%rax
  40dbaf:	48 89 d6             	mov    %rdx,%rsi
  40dbb2:	48 89 c7             	mov    %rax,%rdi
  40dbb5:	e8 c9 05 00 00       	callq  40e183 <_ZSteqIcEN9__gnu_cxx11__enable_ifIXsrSt9__is_charIT_E7__valueEbE6__typeERKNSt7__cxx1112basic_stringIS3_St11char_traitsIS3_ESaIS3_EEESE_>
  40dbba:	83 f0 01             	xor    $0x1,%eax
  40dbbd:	c9                   	leaveq 
  40dbbe:	c3                   	retq   
  40dbbf:	90                   	nop

000000000040dbc0 <_ZNSt13unordered_mapINSt7__cxx1112basic_stringIcSt11char_traitsIcESaIcEEEN2cl7NDRangeESt4hashIS5_ESt8equal_toIS5_ESaISt4pairIKS5_S7_EEE4findERSD_>:
  40dbc0:	55                   	push   %rbp
  40dbc1:	48 89 e5             	mov    %rsp,%rbp
  40dbc4:	48 83 ec 10          	sub    $0x10,%rsp
  40dbc8:	48 89 7d f8          	mov    %rdi,-0x8(%rbp)
  40dbcc:	48 89 75 f0          	mov    %rsi,-0x10(%rbp)
  40dbd0:	48 8b 45 f8          	mov    -0x8(%rbp),%rax
  40dbd4:	48 8b 55 f0          	mov    -0x10(%rbp),%rdx
  40dbd8:	48 89 d6             	mov    %rdx,%rsi
  40dbdb:	48 89 c7             	mov    %rax,%rdi
  40dbde:	e8 25 06 00 00       	callq  40e208 <_ZNSt10_HashtableINSt7__cxx1112basic_stringIcSt11char_traitsIcESaIcEEESt4pairIKS5_N2cl7NDRangeEESaISA_ENSt8__detail10_Select1stESt8equal_toIS5_ESt4hashIS5_ENSC_18_Mod_range_hashingENSC_20_Default_ranged_hashENSC_20_Prime_rehash_policyENSC_17_Hashtable_traitsILb1ELb0ELb1EEEE4findERS7_>
  40dbe3:	c9                   	leaveq 
  40dbe4:	c3                   	retq   
  40dbe5:	90                   	nop

000000000040dbe6 <_ZNSt13unordered_mapINSt7__cxx1112basic_stringIcSt11char_traitsIcESaIcEEEN2cl7NDRangeESt4hashIS5_ESt8equal_toIS5_ESaISt4pairIKS5_S7_EEE3endEv>:
  40dbe6:	55                   	push   %rbp
  40dbe7:	48 89 e5             	mov    %rsp,%rbp
  40dbea:	48 83 ec 10          	sub    $0x10,%rsp
  40dbee:	48 89 7d f8          	mov    %rdi,-0x8(%rbp)
  40dbf2:	48 8b 45 f8          	mov    -0x8(%rbp),%rax
  40dbf6:	48 89 c7             	mov    %rax,%rdi
  40dbf9:	e8 be 06 00 00       	callq  40e2bc <_ZNSt10_HashtableINSt7__cxx1112basic_stringIcSt11char_traitsIcESaIcEEESt4pairIKS5_N2cl7NDRangeEESaISA_ENSt8__detail10_Select1stESt8equal_toIS5_ESt4hashIS5_ENSC_18_Mod_range_hashingENSC_20_Default_ranged_hashENSC_20_Prime_rehash_policyENSC_17_Hashtable_traitsILb1ELb0ELb1EEEE3endEv>
  40dbfe:	c9                   	leaveq 
  40dbff:	c3                   	retq   

000000000040dc00 <_ZNSt8__detaileqISt4pairIKNSt7__cxx1112basic_stringIcSt11char_traitsIcESaIcEEEN2cl7NDRangeEELb1EEEbRKNS_19_Node_iterator_baseIT_XT0_EEESG_>:
  40dc00:	55                   	push   %rbp
  40dc01:	48 89 e5             	mov    %rsp,%rbp
  40dc04:	48 89 7d f8          	mov    %rdi,-0x8(%rbp)
  40dc08:	48 89 75 f0          	mov    %rsi,-0x10(%rbp)
  40dc0c:	48 8b 45 f8          	mov    -0x8(%rbp),%rax
  40dc10:	48 8b 10             	mov    (%rax),%rdx
  40dc13:	48 8b 45 f0          	mov    -0x10(%rbp),%rax
  40dc17:	48 8b 00             	mov    (%rax),%rax
  40dc1a:	48 39 c2             	cmp    %rax,%rdx
  40dc1d:	0f 94 c0             	sete   %al
  40dc20:	5d                   	pop    %rbp
  40dc21:	c3                   	retq   

000000000040dc22 <_ZSt7forwardIRKNSt7__cxx1112basic_stringIcSt11char_traitsIcESaIcEEEEOT_RNSt16remove_referenceIS8_E4typeE>:
  40dc22:	55                   	push   %rbp
  40dc23:	48 89 e5             	mov    %rsp,%rbp
  40dc26:	48 89 7d f8          	mov    %rdi,-0x8(%rbp)
  40dc2a:	48 8b 45 f8          	mov    -0x8(%rbp),%rax
  40dc2e:	5d                   	pop    %rbp
  40dc2f:	c3                   	retq   

000000000040dc30 <_ZSt7forwardIRN2cl7NDRangeEEOT_RNSt16remove_referenceIS3_E4typeE>:
  40dc30:	55                   	push   %rbp
  40dc31:	48 89 e5             	mov    %rsp,%rbp
  40dc34:	48 89 7d f8          	mov    %rdi,-0x8(%rbp)
  40dc38:	48 8b 45 f8          	mov    -0x8(%rbp),%rax
  40dc3c:	5d                   	pop    %rbp
  40dc3d:	c3                   	retq   

000000000040dc3e <_ZNSt13unordered_mapINSt7__cxx1112basic_stringIcSt11char_traitsIcESaIcEEEN2cl7NDRangeESt4hashIS5_ESt8equal_toIS5_ESaISt4pairIKS5_S7_EEE7emplaceIJRSD_RS7_EEESC_INSt8__detail14_Node_iteratorISE_Lb0ELb1EEEbEDpOT_>:
  40dc3e:	55                   	push   %rbp
  40dc3f:	48 89 e5             	mov    %rsp,%rbp
  40dc42:	53                   	push   %rbx
  40dc43:	48 83 ec 28          	sub    $0x28,%rsp
  40dc47:	48 89 7d e8          	mov    %rdi,-0x18(%rbp)
  40dc4b:	48 89 75 e0          	mov    %rsi,-0x20(%rbp)
  40dc4f:	48 89 55 d8          	mov    %rdx,-0x28(%rbp)
  40dc53:	48 8b 45 d8          	mov    -0x28(%rbp),%rax
  40dc57:	48 89 c7             	mov    %rax,%rdi
  40dc5a:	e8 d1 ff ff ff       	callq  40dc30 <_ZSt7forwardIRN2cl7NDRangeEEOT_RNSt16remove_referenceIS3_E4typeE>
  40dc5f:	48 89 c3             	mov    %rax,%rbx
  40dc62:	48 8b 45 e0          	mov    -0x20(%rbp),%rax
  40dc66:	48 89 c7             	mov    %rax,%rdi
  40dc69:	e8 b4 ff ff ff       	callq  40dc22 <_ZSt7forwardIRKNSt7__cxx1112basic_stringIcSt11char_traitsIcESaIcEEEEOT_RNSt16remove_referenceIS8_E4typeE>
  40dc6e:	48 89 c1             	mov    %rax,%rcx
  40dc71:	48 8b 45 e8          	mov    -0x18(%rbp),%rax
  40dc75:	48 89 da             	mov    %rbx,%rdx
  40dc78:	48 89 ce             	mov    %rcx,%rsi
  40dc7b:	48 89 c7             	mov    %rax,%rdi
  40dc7e:	e8 7f 06 00 00       	callq  40e302 <_ZNSt10_HashtableINSt7__cxx1112basic_stringIcSt11char_traitsIcESaIcEEESt4pairIKS5_N2cl7NDRangeEESaISA_ENSt8__detail10_Select1stESt8equal_toIS5_ESt4hashIS5_ENSC_18_Mod_range_hashingENSC_20_Default_ranged_hashENSC_20_Prime_rehash_policyENSC_17_Hashtable_traitsILb1ELb0ELb1EEEE7emplaceIJRS7_RS9_EEES6_INSC_14_Node_iteratorISA_Lb0ELb1EEEbEDpOT_>
  40dc83:	48 83 c4 28          	add    $0x28,%rsp
  40dc87:	5b                   	pop    %rbx
  40dc88:	5d                   	pop    %rbp
  40dc89:	c3                   	retq   

000000000040dc8a <_ZNKSt8__detail14_Node_iteratorISt4pairIKNSt7__cxx1112basic_stringIcSt11char_traitsIcESaIcEEEN2cl7NDRangeEELb0ELb1EEptEv>:
  40dc8a:	55                   	push   %rbp
  40dc8b:	48 89 e5             	mov    %rsp,%rbp
  40dc8e:	48 83 ec 10          	sub    $0x10,%rsp
  40dc92:	48 89 7d f8          	mov    %rdi,-0x8(%rbp)
  40dc96:	48 8b 45 f8          	mov    -0x8(%rbp),%rax
  40dc9a:	48 8b 00             	mov    (%rax),%rax
  40dc9d:	48 89 c7             	mov    %rax,%rdi
  40dca0:	e8 db 06 00 00       	callq  40e380 <_ZNSt8__detail21_Hash_node_value_baseISt4pairIKNSt7__cxx1112basic_stringIcSt11char_traitsIcESaIcEEEN2cl7NDRangeEEE9_M_valptrEv>
  40dca5:	c9                   	leaveq 
  40dca6:	c3                   	retq   
  40dca7:	90                   	nop

000000000040dca8 <_ZNSt13unordered_mapINSt7__cxx1112basic_stringIcSt11char_traitsIcESaIcEEEN2cl7NDRangeESt4hashIS5_ESt8equal_toIS5_ESaISt4pairIKS5_S7_EEE5clearEv>:
  40dca8:	55                   	push   %rbp
  40dca9:	48 89 e5             	mov    %rsp,%rbp
  40dcac:	48 83 ec 10          	sub    $0x10,%rsp
  40dcb0:	48 89 7d f8          	mov    %rdi,-0x8(%rbp)
  40dcb4:	48 8b 45 f8          	mov    -0x8(%rbp),%rax
  40dcb8:	48 89 c7             	mov    %rax,%rdi
  40dcbb:	e8 2c 04 00 00       	callq  40e0ec <_ZNSt10_HashtableINSt7__cxx1112basic_stringIcSt11char_traitsIcESaIcEEESt4pairIKS5_N2cl7NDRangeEESaISA_ENSt8__detail10_Select1stESt8equal_toIS5_ESt4hashIS5_ENSC_18_Mod_range_hashingENSC_20_Default_ranged_hashENSC_20_Prime_rehash_policyENSC_17_Hashtable_traitsILb1ELb0ELb1EEEE5clearEv>
  40dcc0:	90                   	nop
  40dcc1:	c9                   	leaveq 
  40dcc2:	c3                   	retq   

000000000040dcc3 <_ZN9__gnu_cxx14__alloc_traitsISaINSt8__detail10_Hash_nodeISt4pairIKNSt7__cxx1112basic_stringIcSt11char_traitsIcESaIcEEEN2cl7NDRangeEELb1EEEEE27_S_propagate_on_copy_assignEv>:
  40dcc3:	55                   	push   %rbp
  40dcc4:	48 89 e5             	mov    %rsp,%rbp
  40dcc7:	b8 00 00 00 00       	mov    $0x0,%eax
  40dccc:	5d                   	pop    %rbp
  40dccd:	c3                   	retq   

000000000040dcce <_ZN9__gnu_cxx14__alloc_traitsISaINSt8__detail10_Hash_nodeISt4pairIKNSt7__cxx1112basic_stringIcSt11char_traitsIcESaIcEEEN2cl7NDRangeEELb1EEEEE15_S_always_equalEv>:
  40dcce:	55                   	push   %rbp
  40dccf:	48 89 e5             	mov    %rsp,%rbp
  40dcd2:	b8 01 00 00 00       	mov    $0x1,%eax
  40dcd7:	5d                   	pop    %rbp
  40dcd8:	c3                   	retq   
  40dcd9:	90                   	nop

000000000040dcda <_ZZNSt10_HashtableINSt7__cxx1112basic_stringIcSt11char_traitsIcESaIcEEESt4pairIKS5_N2cl7NDRangeEESaISA_ENSt8__detail10_Select1stESt8equal_toIS5_ESt4hashIS5_ENSC_18_Mod_range_hashingENSC_20_Default_ranged_hashENSC_20_Prime_rehash_policyENSC_17_Hashtable_traitsILb1ELb0ELb1EEEEaSERKSN_ENKUlPKNSC_10_Hash_nodeISA_Lb1EEEE_clEST_>:
  40dcda:	55                   	push   %rbp
  40dcdb:	48 89 e5             	mov    %rsp,%rbp
  40dcde:	48 83 ec 10          	sub    $0x10,%rsp
  40dce2:	48 89 7d f8          	mov    %rdi,-0x8(%rbp)
  40dce6:	48 89 75 f0          	mov    %rsi,-0x10(%rbp)
  40dcea:	48 8b 45 f0          	mov    -0x10(%rbp),%rax
  40dcee:	48 89 c7             	mov    %rax,%rdi
  40dcf1:	e8 9c 07 00 00       	callq  40e492 <_ZNKSt8__detail21_Hash_node_value_baseISt4pairIKNSt7__cxx1112basic_stringIcSt11char_traitsIcESaIcEEEN2cl7NDRangeEEE4_M_vEv>
  40dcf6:	48 89 c2             	mov    %rax,%rdx
  40dcf9:	48 8b 45 f8          	mov    -0x8(%rbp),%rax
  40dcfd:	48 8b 00             	mov    (%rax),%rax
  40dd00:	48 89 d6             	mov    %rdx,%rsi
  40dd03:	48 89 c7             	mov    %rax,%rdi
  40dd06:	e8 1f 08 00 00       	callq  40e52a <_ZNSt8__detail16_Hashtable_allocISaINS_10_Hash_nodeISt4pairIKNSt7__cxx1112basic_stringIcSt11char_traitsIcESaIcEEEN2cl7NDRangeEELb1EEEEE16_M_allocate_nodeIJRKSC_EEEPSD_DpOT_>
  40dd0b:	c9                   	leaveq 
  40dd0c:	c3                   	retq   
  40dd0d:	90                   	nop

000000000040dd0e <_ZZNSt10_HashtableINSt7__cxx1112basic_stringIcSt11char_traitsIcESaIcEEESt4pairIKS5_N2cl7NDRangeEESaISA_ENSt8__detail10_Select1stESt8equal_toIS5_ESt4hashIS5_ENSC_18_Mod_range_hashingENSC_20_Default_ranged_hashENSC_20_Prime_rehash_policyENSC_17_Hashtable_traitsILb1ELb0ELb1EEEEaSERKSN_ENKUlPKNSC_10_Hash_nodeISA_Lb1EEEE0_clEST_>:
  40dd0e:	55                   	push   %rbp
  40dd0f:	48 89 e5             	mov    %rsp,%rbp
  40dd12:	48 83 ec 10          	sub    $0x10,%rsp
  40dd16:	48 89 7d f8          	mov    %rdi,-0x8(%rbp)
  40dd1a:	48 89 75 f0          	mov    %rsi,-0x10(%rbp)
  40dd1e:	48 8b 45 f0          	mov    -0x10(%rbp),%rax
  40dd22:	48 89 c7             	mov    %rax,%rdi
  40dd25:	e8 68 07 00 00       	callq  40e492 <_ZNKSt8__detail21_Hash_node_value_baseISt4pairIKNSt7__cxx1112basic_stringIcSt11char_traitsIcESaIcEEEN2cl7NDRangeEEE4_M_vEv>
  40dd2a:	48 89 c2             	mov    %rax,%rdx
  40dd2d:	48 8b 45 f8          	mov    -0x8(%rbp),%rax
  40dd31:	48 8b 00             	mov    (%rax),%rax
  40dd34:	48 89 d6             	mov    %rdx,%rsi
  40dd37:	48 89 c7             	mov    %rax,%rdi
  40dd3a:	e8 07 0c 00 00       	callq  40e946 <_ZNKSt8__detail17_ReuseOrAllocNodeISaINS_10_Hash_nodeISt4pairIKNSt7__cxx1112basic_stringIcSt11char_traitsIcESaIcEEEN2cl7NDRangeEELb1EEEEEclIRKSC_EEPSD_OT_>
  40dd3f:	c9                   	leaveq 
  40dd40:	c3                   	retq   
  40dd41:	90                   	nop

000000000040dd42 <_ZNSt10_HashtableINSt7__cxx1112basic_stringIcSt11char_traitsIcESaIcEEESt4pairIKS5_N2cl7NDRangeEESaISA_ENSt8__detail10_Select1stESt8equal_toIS5_ESt4hashIS5_ENSC_18_Mod_range_hashingENSC_20_Default_ranged_hashENSC_20_Prime_rehash_policyENSC_17_Hashtable_traitsILb1ELb0ELb1EEEEaSERKSN_>:
  40dd42:	55                   	push   %rbp
  40dd43:	48 89 e5             	mov    %rsp,%rbp
  40dd46:	53                   	push   %rbx
  40dd47:	48 83 ec 78          	sub    $0x78,%rsp
  40dd4b:	48 89 7d 88          	mov    %rdi,-0x78(%rbp)
  40dd4f:	48 89 75 80          	mov    %rsi,-0x80(%rbp)
  40dd53:	64 48 8b 04 25 28 00 	mov    %fs:0x28,%rax
  40dd5a:	00 00 
  40dd5c:	48 89 45 e8          	mov    %rax,-0x18(%rbp)
  40dd60:	31 c0                	xor    %eax,%eax
  40dd62:	48 8b 45 80          	mov    -0x80(%rbp),%rax
  40dd66:	48 3b 45 88          	cmp    -0x78(%rbp),%rax
  40dd6a:	75 09                	jne    40dd75 <_ZNSt10_HashtableINSt7__cxx1112basic_stringIcSt11char_traitsIcESaIcEEESt4pairIKS5_N2cl7NDRangeEESaISA_ENSt8__detail10_Select1stESt8equal_toIS5_ESt4hashIS5_ENSC_18_Mod_range_hashingENSC_20_Default_ranged_hashENSC_20_Prime_rehash_policyENSC_17_Hashtable_traitsILb1ELb0ELb1EEEEaSERKSN_+0x33>
  40dd6c:	48 8b 45 88          	mov    -0x78(%rbp),%rax
  40dd70:	e9 75 02 00 00       	jmpq   40dfea <_ZNSt10_HashtableINSt7__cxx1112basic_stringIcSt11char_traitsIcESaIcEEESt4pairIKS5_N2cl7NDRangeEESaISA_ENSt8__detail10_Select1stESt8equal_toIS5_ESt4hashIS5_ENSC_18_Mod_range_hashingENSC_20_Default_ranged_hashENSC_20_Prime_rehash_policyENSC_17_Hashtable_traitsILb1ELb0ELb1EEEEaSERKSN_+0x2a8>
  40dd75:	e8 49 ff ff ff       	callq  40dcc3 <_ZN9__gnu_cxx14__alloc_traitsISaINSt8__detail10_Hash_nodeISt4pairIKNSt7__cxx1112basic_stringIcSt11char_traitsIcESaIcEEEN2cl7NDRangeEELb1EEEEE27_S_propagate_on_copy_assignEv>
  40dd7a:	84 c0                	test   %al,%al
  40dd7c:	0f 84 1e 01 00 00    	je     40dea0 <_ZNSt10_HashtableINSt7__cxx1112basic_stringIcSt11char_traitsIcESaIcEEESt4pairIKS5_N2cl7NDRangeEESaISA_ENSt8__detail10_Select1stESt8equal_toIS5_ESt4hashIS5_ENSC_18_Mod_range_hashingENSC_20_Default_ranged_hashENSC_20_Prime_rehash_policyENSC_17_Hashtable_traitsILb1ELb0ELb1EEEEaSERKSN_+0x15e>
  40dd82:	48 8b 45 88          	mov    -0x78(%rbp),%rax
  40dd86:	48 89 c7             	mov    %rax,%rdi
  40dd89:	e8 10 06 00 00       	callq  40e39e <_ZNSt8__detail16_Hashtable_allocISaINS_10_Hash_nodeISt4pairIKNSt7__cxx1112basic_stringIcSt11char_traitsIcESaIcEEEN2cl7NDRangeEELb1EEEEE17_M_node_allocatorEv>
  40dd8e:	48 89 45 b0          	mov    %rax,-0x50(%rbp)
  40dd92:	48 8b 45 80          	mov    -0x80(%rbp),%rax
  40dd96:	48 89 c7             	mov    %rax,%rdi
  40dd99:	e8 1a 06 00 00       	callq  40e3b8 <_ZNKSt8__detail16_Hashtable_allocISaINS_10_Hash_nodeISt4pairIKNSt7__cxx1112basic_stringIcSt11char_traitsIcESaIcEEEN2cl7NDRangeEELb1EEEEE17_M_node_allocatorEv>
  40dd9e:	48 89 45 b8          	mov    %rax,-0x48(%rbp)
  40dda2:	e8 27 ff ff ff       	callq  40dcce <_ZN9__gnu_cxx14__alloc_traitsISaINSt8__detail10_Hash_nodeISt4pairIKNSt7__cxx1112basic_stringIcSt11char_traitsIcESaIcEEEN2cl7NDRangeEELb1EEEEE15_S_always_equalEv>
  40dda7:	83 f0 01             	xor    $0x1,%eax
  40ddaa:	84 c0                	test   %al,%al
  40ddac:	74 1e                	je     40ddcc <_ZNSt10_HashtableINSt7__cxx1112basic_stringIcSt11char_traitsIcESaIcEEESt4pairIKS5_N2cl7NDRangeEESaISA_ENSt8__detail10_Select1stESt8equal_toIS5_ESt4hashIS5_ENSC_18_Mod_range_hashingENSC_20_Default_ranged_hashENSC_20_Prime_rehash_policyENSC_17_Hashtable_traitsILb1ELb0ELb1EEEEaSERKSN_+0x8a>
  40ddae:	48 8b 55 b8          	mov    -0x48(%rbp),%rdx
  40ddb2:	48 8b 45 b0          	mov    -0x50(%rbp),%rax
  40ddb6:	48 89 d6             	mov    %rdx,%rsi
  40ddb9:	48 89 c7             	mov    %rax,%rdi
  40ddbc:	e8 11 06 00 00       	callq  40e3d2 <_ZStneINSt8__detail10_Hash_nodeISt4pairIKNSt7__cxx1112basic_stringIcSt11char_traitsIcESaIcEEEN2cl7NDRangeEELb1EEEEbRKSaIT_ESH_>
  40ddc1:	84 c0                	test   %al,%al
  40ddc3:	74 07                	je     40ddcc <_ZNSt10_HashtableINSt7__cxx1112basic_stringIcSt11char_traitsIcESaIcEEESt4pairIKS5_N2cl7NDRangeEESaISA_ENSt8__detail10_Select1stESt8equal_toIS5_ESt4hashIS5_ENSC_18_Mod_range_hashingENSC_20_Default_ranged_hashENSC_20_Prime_rehash_policyENSC_17_Hashtable_traitsILb1ELb0ELb1EEEEaSERKSN_+0x8a>
  40ddc5:	b8 01 00 00 00       	mov    $0x1,%eax
  40ddca:	eb 05                	jmp    40ddd1 <_ZNSt10_HashtableINSt7__cxx1112basic_stringIcSt11char_traitsIcESaIcEEESt4pairIKS5_N2cl7NDRangeEESaISA_ENSt8__detail10_Select1stESt8equal_toIS5_ESt4hashIS5_ENSC_18_Mod_range_hashingENSC_20_Default_ranged_hashENSC_20_Prime_rehash_policyENSC_17_Hashtable_traitsILb1ELb0ELb1EEEEaSERKSN_+0x8f>
  40ddcc:	b8 00 00 00 00       	mov    $0x0,%eax
  40ddd1:	84 c0                	test   %al,%al
  40ddd3:	0f 84 b4 00 00 00    	je     40de8d <_ZNSt10_HashtableINSt7__cxx1112basic_stringIcSt11char_traitsIcESaIcEEESt4pairIKS5_N2cl7NDRangeEESaISA_ENSt8__detail10_Select1stESt8equal_toIS5_ESt4hashIS5_ENSC_18_Mod_range_hashingENSC_20_Default_ranged_hashENSC_20_Prime_rehash_policyENSC_17_Hashtable_traitsILb1ELb0ELb1EEEEaSERKSN_+0x14b>
  40ddd9:	48 8b 45 88          	mov    -0x78(%rbp),%rax
  40dddd:	48 89 c7             	mov    %rax,%rdi
  40dde0:	e8 01 06 00 00       	callq  40e3e6 <_ZNKSt10_HashtableINSt7__cxx1112basic_stringIcSt11char_traitsIcESaIcEEESt4pairIKS5_N2cl7NDRangeEESaISA_ENSt8__detail10_Select1stESt8equal_toIS5_ESt4hashIS5_ENSC_18_Mod_range_hashingENSC_20_Default_ranged_hashENSC_20_Prime_rehash_policyENSC_17_Hashtable_traitsILb1ELb0ELb1EEEE8_M_beginEv>
  40dde5:	48 89 c2             	mov    %rax,%rdx
  40dde8:	48 8b 45 88          	mov    -0x78(%rbp),%rax
  40ddec:	48 89 d6             	mov    %rdx,%rsi
  40ddef:	48 89 c7             	mov    %rax,%rdi
  40ddf2:	e8 01 06 00 00       	callq  40e3f8 <_ZNSt8__detail16_Hashtable_allocISaINS_10_Hash_nodeISt4pairIKNSt7__cxx1112basic_stringIcSt11char_traitsIcESaIcEEEN2cl7NDRangeEELb1EEEEE19_M_deallocate_nodesEPSD_>
  40ddf7:	48 8b 45 88          	mov    -0x78(%rbp),%rax
  40ddfb:	48 c7 40 10 00 00 00 	movq   $0x0,0x10(%rax)
  40de02:	00 
  40de03:	48 8b 45 88          	mov    -0x78(%rbp),%rax
  40de07:	48 89 c7             	mov    %rax,%rdi
  40de0a:	e8 47 03 00 00       	callq  40e156 <_ZNSt10_HashtableINSt7__cxx1112basic_stringIcSt11char_traitsIcESaIcEEESt4pairIKS5_N2cl7NDRangeEESaISA_ENSt8__detail10_Select1stESt8equal_toIS5_ESt4hashIS5_ENSC_18_Mod_range_hashingENSC_20_Default_ranged_hashENSC_20_Prime_rehash_policyENSC_17_Hashtable_traitsILb1ELb0ELb1EEEE21_M_deallocate_bucketsEv>
  40de0f:	48 8b 45 88          	mov    -0x78(%rbp),%rax
  40de13:	48 c7 00 00 00 00 00 	movq   $0x0,(%rax)
  40de1a:	48 8b 55 b8          	mov    -0x48(%rbp),%rdx
  40de1e:	48 8b 45 b0          	mov    -0x50(%rbp),%rax
  40de22:	48 89 d6             	mov    %rdx,%rsi
  40de25:	48 89 c7             	mov    %rax,%rdi
  40de28:	e8 12 06 00 00       	callq  40e43f <_ZSt15__alloc_on_copyISaINSt8__detail10_Hash_nodeISt4pairIKNSt7__cxx1112basic_stringIcSt11char_traitsIcESaIcEEEN2cl7NDRangeEELb1EEEEEvRT_RKSF_>
  40de2d:	48 8b 45 80          	mov    -0x80(%rbp),%rax
  40de31:	48 8b 50 08          	mov    0x8(%rax),%rdx
  40de35:	48 8b 45 88          	mov    -0x78(%rbp),%rax
  40de39:	48 89 50 08          	mov    %rdx,0x8(%rax)
  40de3d:	48 8b 45 80          	mov    -0x80(%rbp),%rax
  40de41:	48 8b 50 18          	mov    0x18(%rax),%rdx
  40de45:	48 8b 45 88          	mov    -0x78(%rbp),%rax
  40de49:	48 89 50 18          	mov    %rdx,0x18(%rax)
  40de4d:	48 8b 4d 88          	mov    -0x78(%rbp),%rcx
  40de51:	48 8b 45 80          	mov    -0x80(%rbp),%rax
  40de55:	48 8b 50 28          	mov    0x28(%rax),%rdx
  40de59:	48 8b 40 20          	mov    0x20(%rax),%rax
  40de5d:	48 89 41 20          	mov    %rax,0x20(%rcx)
  40de61:	48 89 51 28          	mov    %rdx,0x28(%rcx)
  40de65:	48 8b 45 88          	mov    -0x78(%rbp),%rax
  40de69:	48 89 45 d0          	mov    %rax,-0x30(%rbp)
  40de6d:	48 8d 55 d0          	lea    -0x30(%rbp),%rdx
  40de71:	48 8b 4d 80          	mov    -0x80(%rbp),%rcx
  40de75:	48 8b 45 88          	mov    -0x78(%rbp),%rax
  40de79:	48 89 ce             	mov    %rcx,%rsi
  40de7c:	48 89 c7             	mov    %rax,%rdi
  40de7f:	e8 e4 07 00 00       	callq  40e668 <_ZNSt10_HashtableINSt7__cxx1112basic_stringIcSt11char_traitsIcESaIcEEESt4pairIKS5_N2cl7NDRangeEESaISA_ENSt8__detail10_Select1stESt8equal_toIS5_ESt4hashIS5_ENSC_18_Mod_range_hashingENSC_20_Default_ranged_hashENSC_20_Prime_rehash_policyENSC_17_Hashtable_traitsILb1ELb0ELb1EEEE9_M_assignIZNSN_aSERKSN_EUlPKNSC_10_Hash_nodeISA_Lb1EEEE_EEvSQ_RKT_>
  40de84:	48 8b 45 88          	mov    -0x78(%rbp),%rax
  40de88:	e9 5d 01 00 00       	jmpq   40dfea <_ZNSt10_HashtableINSt7__cxx1112basic_stringIcSt11char_traitsIcESaIcEEESt4pairIKS5_N2cl7NDRangeEESaISA_ENSt8__detail10_Select1stESt8equal_toIS5_ESt4hashIS5_ENSC_18_Mod_range_hashingENSC_20_Default_ranged_hashENSC_20_Prime_rehash_policyENSC_17_Hashtable_traitsILb1ELb0ELb1EEEEaSERKSN_+0x2a8>
  40de8d:	48 8b 55 b8          	mov    -0x48(%rbp),%rdx
  40de91:	48 8b 45 b0          	mov    -0x50(%rbp),%rax
  40de95:	48 89 d6             	mov    %rdx,%rsi
  40de98:	48 89 c7             	mov    %rax,%rdi
  40de9b:	e8 9f 05 00 00       	callq  40e43f <_ZSt15__alloc_on_copyISaINSt8__detail10_Hash_nodeISt4pairIKNSt7__cxx1112basic_stringIcSt11char_traitsIcESaIcEEEN2cl7NDRangeEELb1EEEEEvRT_RKSF_>
  40dea0:	48 c7 45 a8 00 00 00 	movq   $0x0,-0x58(%rbp)
  40dea7:	00 
  40dea8:	48 8b 45 88          	mov    -0x78(%rbp),%rax
  40deac:	48 8b 40 08          	mov    0x8(%rax),%rax
  40deb0:	48 89 45 c0          	mov    %rax,-0x40(%rbp)
  40deb4:	48 8b 45 88          	mov    -0x78(%rbp),%rax
  40deb8:	48 83 c0 20          	add    $0x20,%rax
  40debc:	48 89 c7             	mov    %rax,%rdi
  40debf:	e8 06 f5 ff ff       	callq  40d3ca <_ZNKSt8__detail20_Prime_rehash_policy8_M_stateEv>
  40dec4:	48 89 45 a0          	mov    %rax,-0x60(%rbp)
  40dec8:	48 8d 45 a0          	lea    -0x60(%rbp),%rax
  40decc:	48 89 45 c8          	mov    %rax,-0x38(%rbp)
  40ded0:	48 8b 45 88          	mov    -0x78(%rbp),%rax
  40ded4:	48 8b 50 08          	mov    0x8(%rax),%rdx
  40ded8:	48 8b 45 80          	mov    -0x80(%rbp),%rax
  40dedc:	48 8b 40 08          	mov    0x8(%rax),%rax
  40dee0:	48 39 c2             	cmp    %rax,%rdx
  40dee3:	74 3e                	je     40df23 <_ZNSt10_HashtableINSt7__cxx1112basic_stringIcSt11char_traitsIcESaIcEEESt4pairIKS5_N2cl7NDRangeEESaISA_ENSt8__detail10_Select1stESt8equal_toIS5_ESt4hashIS5_ENSC_18_Mod_range_hashingENSC_20_Default_ranged_hashENSC_20_Prime_rehash_policyENSC_17_Hashtable_traitsILb1ELb0ELb1EEEEaSERKSN_+0x1e1>
  40dee5:	48 8b 45 88          	mov    -0x78(%rbp),%rax
  40dee9:	48 8b 00             	mov    (%rax),%rax
  40deec:	48 89 45 a8          	mov    %rax,-0x58(%rbp)
  40def0:	48 8b 45 80          	mov    -0x80(%rbp),%rax
  40def4:	48 8b 50 08          	mov    0x8(%rax),%rdx
  40def8:	48 8b 45 88          	mov    -0x78(%rbp),%rax
  40defc:	48 89 d6             	mov    %rdx,%rsi
  40deff:	48 89 c7             	mov    %rax,%rdi
  40df02:	e8 9f 09 00 00       	callq  40e8a6 <_ZNSt10_HashtableINSt7__cxx1112basic_stringIcSt11char_traitsIcESaIcEEESt4pairIKS5_N2cl7NDRangeEESaISA_ENSt8__detail10_Select1stESt8equal_toIS5_ESt4hashIS5_ENSC_18_Mod_range_hashingENSC_20_Default_ranged_hashENSC_20_Prime_rehash_policyENSC_17_Hashtable_traitsILb1ELb0ELb1EEEE19_M_allocate_bucketsEm>
  40df07:	48 89 c2             	mov    %rax,%rdx
  40df0a:	48 8b 45 88          	mov    -0x78(%rbp),%rax
  40df0e:	48 89 10             	mov    %rdx,(%rax)
  40df11:	48 8b 45 80          	mov    -0x80(%rbp),%rax
  40df15:	48 8b 50 08          	mov    0x8(%rax),%rdx
  40df19:	48 8b 45 88          	mov    -0x78(%rbp),%rax
  40df1d:	48 89 50 08          	mov    %rdx,0x8(%rax)
  40df21:	eb 24                	jmp    40df47 <_ZNSt10_HashtableINSt7__cxx1112basic_stringIcSt11char_traitsIcESaIcEEESt4pairIKS5_N2cl7NDRangeEESaISA_ENSt8__detail10_Select1stESt8equal_toIS5_ESt4hashIS5_ENSC_18_Mod_range_hashingENSC_20_Default_ranged_hashENSC_20_Prime_rehash_policyENSC_17_Hashtable_traitsILb1ELb0ELb1EEEEaSERKSN_+0x205>
  40df23:	48 8b 45 88          	mov    -0x78(%rbp),%rax
  40df27:	48 8b 40 08          	mov    0x8(%rax),%rax
  40df2b:	48 8d 14 c5 00 00 00 	lea    0x0(,%rax,8),%rdx
  40df32:	00 
  40df33:	48 8b 45 88          	mov    -0x78(%rbp),%rax
  40df37:	48 8b 00             	mov    (%rax),%rax
  40df3a:	be 00 00 00 00       	mov    $0x0,%esi
  40df3f:	48 89 c7             	mov    %rax,%rdi
  40df42:	e8 19 5f ff ff       	callq  403e60 <memset@plt>
  40df47:	48 8b 45 80          	mov    -0x80(%rbp),%rax
  40df4b:	48 8b 50 18          	mov    0x18(%rax),%rdx
  40df4f:	48 8b 45 88          	mov    -0x78(%rbp),%rax
  40df53:	48 89 50 18          	mov    %rdx,0x18(%rax)
  40df57:	48 8b 4d 88          	mov    -0x78(%rbp),%rcx
  40df5b:	48 8b 45 80          	mov    -0x80(%rbp),%rax
  40df5f:	48 8b 50 28          	mov    0x28(%rax),%rdx
  40df63:	48 8b 40 20          	mov    0x20(%rax),%rax
  40df67:	48 89 41 20          	mov    %rax,0x20(%rcx)
  40df6b:	48 89 51 28          	mov    %rdx,0x28(%rcx)
  40df6f:	48 8b 45 88          	mov    -0x78(%rbp),%rax
  40df73:	48 89 c7             	mov    %rax,%rdi
  40df76:	e8 6b 04 00 00       	callq  40e3e6 <_ZNKSt10_HashtableINSt7__cxx1112basic_stringIcSt11char_traitsIcESaIcEEESt4pairIKS5_N2cl7NDRangeEESaISA_ENSt8__detail10_Select1stESt8equal_toIS5_ESt4hashIS5_ENSC_18_Mod_range_hashingENSC_20_Default_ranged_hashENSC_20_Prime_rehash_policyENSC_17_Hashtable_traitsILb1ELb0ELb1EEEE8_M_beginEv>
  40df7b:	48 89 c1             	mov    %rax,%rcx
  40df7e:	48 8b 55 88          	mov    -0x78(%rbp),%rdx
  40df82:	48 8d 45 d0          	lea    -0x30(%rbp),%rax
  40df86:	48 89 ce             	mov    %rcx,%rsi
  40df89:	48 89 c7             	mov    %rax,%rdi
  40df8c:	e8 61 09 00 00       	callq  40e8f2 <_ZNSt8__detail17_ReuseOrAllocNodeISaINS_10_Hash_nodeISt4pairIKNSt7__cxx1112basic_stringIcSt11char_traitsIcESaIcEEEN2cl7NDRangeEELb1EEEEEC1EPSD_RNS_16_Hashtable_allocISE_EE>
  40df91:	48 8b 45 88          	mov    -0x78(%rbp),%rax
  40df95:	48 c7 40 10 00 00 00 	movq   $0x0,0x10(%rax)
  40df9c:	00 
  40df9d:	48 8d 45 d0          	lea    -0x30(%rbp),%rax
  40dfa1:	48 89 45 98          	mov    %rax,-0x68(%rbp)
  40dfa5:	48 8d 55 98          	lea    -0x68(%rbp),%rdx
  40dfa9:	48 8b 4d 80          	mov    -0x80(%rbp),%rcx
  40dfad:	48 8b 45 88          	mov    -0x78(%rbp),%rax
  40dfb1:	48 89 ce             	mov    %rcx,%rsi
  40dfb4:	48 89 c7             	mov    %rax,%rdi
  40dfb7:	e8 08 0b 00 00       	callq  40eac4 <_ZNSt10_HashtableINSt7__cxx1112basic_stringIcSt11char_traitsIcESaIcEEESt4pairIKS5_N2cl7NDRangeEESaISA_ENSt8__detail10_Select1stESt8equal_toIS5_ESt4hashIS5_ENSC_18_Mod_range_hashingENSC_20_Default_ranged_hashENSC_20_Prime_rehash_policyENSC_17_Hashtable_traitsILb1ELb0ELb1EEEE9_M_assignIZNSN_aSERKSN_EUlPKNSC_10_Hash_nodeISA_Lb1EEEE0_EEvSQ_RKT_>
  40dfbc:	48 83 7d a8 00       	cmpq   $0x0,-0x58(%rbp)
  40dfc1:	74 17                	je     40dfda <_ZNSt10_HashtableINSt7__cxx1112basic_stringIcSt11char_traitsIcESaIcEEESt4pairIKS5_N2cl7NDRangeEESaISA_ENSt8__detail10_Select1stESt8equal_toIS5_ESt4hashIS5_ENSC_18_Mod_range_hashingENSC_20_Default_ranged_hashENSC_20_Prime_rehash_policyENSC_17_Hashtable_traitsILb1ELb0ELb1EEEEaSERKSN_+0x298>
  40dfc3:	48 8b 55 c0          	mov    -0x40(%rbp),%rdx
  40dfc7:	48 8b 4d a8          	mov    -0x58(%rbp),%rcx
  40dfcb:	48 8b 45 88          	mov    -0x78(%rbp),%rax
  40dfcf:	48 89 ce             	mov    %rcx,%rsi
  40dfd2:	48 89 c7             	mov    %rax,%rdi
  40dfd5:	e8 ca 0c 00 00       	callq  40eca4 <_ZNSt10_HashtableINSt7__cxx1112basic_stringIcSt11char_traitsIcESaIcEEESt4pairIKS5_N2cl7NDRangeEESaISA_ENSt8__detail10_Select1stESt8equal_toIS5_ESt4hashIS5_ENSC_18_Mod_range_hashingENSC_20_Default_ranged_hashENSC_20_Prime_rehash_policyENSC_17_Hashtable_traitsILb1ELb0ELb1EEEE21_M_deallocate_bucketsEPPNSC_15_Hash_node_baseEm>
  40dfda:	48 8d 45 d0          	lea    -0x30(%rbp),%rax
  40dfde:	48 89 c7             	mov    %rax,%rdi
  40dfe1:	e8 36 09 00 00       	callq  40e91c <_ZNSt8__detail17_ReuseOrAllocNodeISaINS_10_Hash_nodeISt4pairIKNSt7__cxx1112basic_stringIcSt11char_traitsIcESaIcEEEN2cl7NDRangeEELb1EEEEED1Ev>
  40dfe6:	48 8b 45 88          	mov    -0x78(%rbp),%rax
  40dfea:	48 8b 5d e8          	mov    -0x18(%rbp),%rbx
  40dfee:	64 48 33 1c 25 28 00 	xor    %fs:0x28,%rbx
  40dff5:	00 00 
  40dff7:	0f 84 d0 00 00 00    	je     40e0cd <_ZNSt10_HashtableINSt7__cxx1112basic_stringIcSt11char_traitsIcESaIcEEESt4pairIKS5_N2cl7NDRangeEESaISA_ENSt8__detail10_Select1stESt8equal_toIS5_ESt4hashIS5_ENSC_18_Mod_range_hashingENSC_20_Default_ranged_hashENSC_20_Prime_rehash_policyENSC_17_Hashtable_traitsILb1ELb0ELb1EEEEaSERKSN_+0x38b>
  40dffd:	e9 c6 00 00 00       	jmpq   40e0c8 <_ZNSt10_HashtableINSt7__cxx1112basic_stringIcSt11char_traitsIcESaIcEEESt4pairIKS5_N2cl7NDRangeEESaISA_ENSt8__detail10_Select1stESt8equal_toIS5_ESt4hashIS5_ENSC_18_Mod_range_hashingENSC_20_Default_ranged_hashENSC_20_Prime_rehash_policyENSC_17_Hashtable_traitsILb1ELb0ELb1EEEEaSERKSN_+0x386>
  40e002:	48 89 c7             	mov    %rax,%rdi
  40e005:	e8 b6 5d ff ff       	callq  403dc0 <__cxa_begin_catch@plt>
  40e00a:	48 8b 45 88          	mov    -0x78(%rbp),%rax
  40e00e:	48 89 c7             	mov    %rax,%rdi
  40e011:	e8 32 08 00 00       	callq  40e848 <_ZNSt10_HashtableINSt7__cxx1112basic_stringIcSt11char_traitsIcESaIcEEESt4pairIKS5_N2cl7NDRangeEESaISA_ENSt8__detail10_Select1stESt8equal_toIS5_ESt4hashIS5_ENSC_18_Mod_range_hashingENSC_20_Default_ranged_hashENSC_20_Prime_rehash_policyENSC_17_Hashtable_traitsILb1ELb0ELb1EEEE8_M_resetEv>
  40e016:	e8 55 60 ff ff       	callq  404070 <__cxa_rethrow@plt>
  40e01b:	48 89 c3             	mov    %rax,%rbx
  40e01e:	e8 ed 60 ff ff       	callq  404110 <__cxa_end_catch@plt>
  40e023:	48 89 d8             	mov    %rbx,%rax
  40e026:	48 89 c7             	mov    %rax,%rdi
  40e029:	e8 62 61 ff ff       	callq  404190 <_Unwind_Resume@plt>
  40e02e:	48 89 c3             	mov    %rax,%rbx
  40e031:	48 8d 45 d0          	lea    -0x30(%rbp),%rax
  40e035:	48 89 c7             	mov    %rax,%rdi
  40e038:	e8 df 08 00 00       	callq  40e91c <_ZNSt8__detail17_ReuseOrAllocNodeISaINS_10_Hash_nodeISt4pairIKNSt7__cxx1112basic_stringIcSt11char_traitsIcESaIcEEEN2cl7NDRangeEELb1EEEEED1Ev>
  40e03d:	48 89 d8             	mov    %rbx,%rax
  40e040:	48 89 c7             	mov    %rax,%rdi
  40e043:	e8 78 5d ff ff       	callq  403dc0 <__cxa_begin_catch@plt>
  40e048:	48 83 7d a8 00       	cmpq   $0x0,-0x58(%rbp)
  40e04d:	74 3d                	je     40e08c <_ZNSt10_HashtableINSt7__cxx1112basic_stringIcSt11char_traitsIcESaIcEEESt4pairIKS5_N2cl7NDRangeEESaISA_ENSt8__detail10_Select1stESt8equal_toIS5_ESt4hashIS5_ENSC_18_Mod_range_hashingENSC_20_Default_ranged_hashENSC_20_Prime_rehash_policyENSC_17_Hashtable_traitsILb1ELb0ELb1EEEEaSERKSN_+0x34a>
  40e04f:	48 8b 45 88          	mov    -0x78(%rbp),%rax
  40e053:	48 89 c7             	mov    %rax,%rdi
  40e056:	e8 fb 00 00 00       	callq  40e156 <_ZNSt10_HashtableINSt7__cxx1112basic_stringIcSt11char_traitsIcESaIcEEESt4pairIKS5_N2cl7NDRangeEESaISA_ENSt8__detail10_Select1stESt8equal_toIS5_ESt4hashIS5_ENSC_18_Mod_range_hashingENSC_20_Default_ranged_hashENSC_20_Prime_rehash_policyENSC_17_Hashtable_traitsILb1ELb0ELb1EEEE21_M_deallocate_bucketsEv>
  40e05b:	48 8b 45 c8          	mov    -0x38(%rbp),%rax
  40e05f:	48 8b 00             	mov    (%rax),%rax
  40e062:	48 8b 55 88          	mov    -0x78(%rbp),%rdx
  40e066:	48 83 c2 20          	add    $0x20,%rdx
  40e06a:	48 89 c6             	mov    %rax,%rsi
  40e06d:	48 89 d7             	mov    %rdx,%rdi
  40e070:	e8 7f f3 ff ff       	callq  40d3f4 <_ZNSt8__detail20_Prime_rehash_policy8_M_resetEm>
  40e075:	48 8b 45 88          	mov    -0x78(%rbp),%rax
  40e079:	48 8b 55 a8          	mov    -0x58(%rbp),%rdx
  40e07d:	48 89 10             	mov    %rdx,(%rax)
  40e080:	48 8b 45 88          	mov    -0x78(%rbp),%rax
  40e084:	48 8b 55 c0          	mov    -0x40(%rbp),%rdx
  40e088:	48 89 50 08          	mov    %rdx,0x8(%rax)
  40e08c:	48 8b 45 88          	mov    -0x78(%rbp),%rax
  40e090:	48 8b 40 08          	mov    0x8(%rax),%rax
  40e094:	48 8d 14 c5 00 00 00 	lea    0x0(,%rax,8),%rdx
  40e09b:	00 
  40e09c:	48 8b 45 88          	mov    -0x78(%rbp),%rax
  40e0a0:	48 8b 00             	mov    (%rax),%rax
  40e0a3:	be 00 00 00 00       	mov    $0x0,%esi
  40e0a8:	48 89 c7             	mov    %rax,%rdi
  40e0ab:	e8 b0 5d ff ff       	callq  403e60 <memset@plt>
  40e0b0:	e8 bb 5f ff ff       	callq  404070 <__cxa_rethrow@plt>
  40e0b5:	48 89 c3             	mov    %rax,%rbx
  40e0b8:	e8 53 60 ff ff       	callq  404110 <__cxa_end_catch@plt>
  40e0bd:	48 89 d8             	mov    %rbx,%rax
  40e0c0:	48 89 c7             	mov    %rax,%rdi
  40e0c3:	e8 c8 60 ff ff       	callq  404190 <_Unwind_Resume@plt>
  40e0c8:	e8 63 5e ff ff       	callq  403f30 <__stack_chk_fail@plt>
  40e0cd:	48 83 c4 78          	add    $0x78,%rsp
  40e0d1:	5b                   	pop    %rbx
  40e0d2:	5d                   	pop    %rbp
  40e0d3:	c3                   	retq   

000000000040e0d4 <_ZN9__gnu_cxx13new_allocatorINSt8__detail10_Hash_nodeISt4pairIKNSt7__cxx1112basic_stringIcSt11char_traitsIcESaIcEEEN2cl7NDRangeEELb1EEEEC1Ev>:
  40e0d4:	55                   	push   %rbp
  40e0d5:	48 89 e5             	mov    %rsp,%rbp
  40e0d8:	48 89 7d f8          	mov    %rdi,-0x8(%rbp)
  40e0dc:	90                   	nop
  40e0dd:	5d                   	pop    %rbp
  40e0de:	c3                   	retq   
  40e0df:	90                   	nop

000000000040e0e0 <_ZN9__gnu_cxx13new_allocatorINSt8__detail10_Hash_nodeISt4pairIKNSt7__cxx1112basic_stringIcSt11char_traitsIcESaIcEEEN2cl7NDRangeEELb1EEEED1Ev>:
  40e0e0:	55                   	push   %rbp
  40e0e1:	48 89 e5             	mov    %rsp,%rbp
  40e0e4:	48 89 7d f8          	mov    %rdi,-0x8(%rbp)
  40e0e8:	90                   	nop
  40e0e9:	5d                   	pop    %rbp
  40e0ea:	c3                   	retq   
  40e0eb:	90                   	nop

000000000040e0ec <_ZNSt10_HashtableINSt7__cxx1112basic_stringIcSt11char_traitsIcESaIcEEESt4pairIKS5_N2cl7NDRangeEESaISA_ENSt8__detail10_Select1stESt8equal_toIS5_ESt4hashIS5_ENSC_18_Mod_range_hashingENSC_20_Default_ranged_hashENSC_20_Prime_rehash_policyENSC_17_Hashtable_traitsILb1ELb0ELb1EEEE5clearEv>:
  40e0ec:	55                   	push   %rbp
  40e0ed:	48 89 e5             	mov    %rsp,%rbp
  40e0f0:	48 83 ec 10          	sub    $0x10,%rsp
  40e0f4:	48 89 7d f8          	mov    %rdi,-0x8(%rbp)
  40e0f8:	48 8b 45 f8          	mov    -0x8(%rbp),%rax
  40e0fc:	48 89 c7             	mov    %rax,%rdi
  40e0ff:	e8 e2 02 00 00       	callq  40e3e6 <_ZNKSt10_HashtableINSt7__cxx1112basic_stringIcSt11char_traitsIcESaIcEEESt4pairIKS5_N2cl7NDRangeEESaISA_ENSt8__detail10_Select1stESt8equal_toIS5_ESt4hashIS5_ENSC_18_Mod_range_hashingENSC_20_Default_ranged_hashENSC_20_Prime_rehash_policyENSC_17_Hashtable_traitsILb1ELb0ELb1EEEE8_M_beginEv>
  40e104:	48 89 c2             	mov    %rax,%rdx
  40e107:	48 8b 45 f8          	mov    -0x8(%rbp),%rax
  40e10b:	48 89 d6             	mov    %rdx,%rsi
  40e10e:	48 89 c7             	mov    %rax,%rdi
  40e111:	e8 e2 02 00 00       	callq  40e3f8 <_ZNSt8__detail16_Hashtable_allocISaINS_10_Hash_nodeISt4pairIKNSt7__cxx1112basic_stringIcSt11char_traitsIcESaIcEEEN2cl7NDRangeEELb1EEEEE19_M_deallocate_nodesEPSD_>
  40e116:	48 8b 45 f8          	mov    -0x8(%rbp),%rax
  40e11a:	48 8b 40 08          	mov    0x8(%rax),%rax
  40e11e:	48 8d 14 c5 00 00 00 	lea    0x0(,%rax,8),%rdx
  40e125:	00 
  40e126:	48 8b 45 f8          	mov    -0x8(%rbp),%rax
  40e12a:	48 8b 00             	mov    (%rax),%rax
  40e12d:	be 00 00 00 00       	mov    $0x0,%esi
  40e132:	48 89 c7             	mov    %rax,%rdi
  40e135:	e8 26 5d ff ff       	callq  403e60 <memset@plt>
  40e13a:	48 8b 45 f8          	mov    -0x8(%rbp),%rax
  40e13e:	48 c7 40 18 00 00 00 	movq   $0x0,0x18(%rax)
  40e145:	00 
  40e146:	48 8b 45 f8          	mov    -0x8(%rbp),%rax
  40e14a:	48 c7 40 10 00 00 00 	movq   $0x0,0x10(%rax)
  40e151:	00 
  40e152:	90                   	nop
  40e153:	c9                   	leaveq 
  40e154:	c3                   	retq   
  40e155:	90                   	nop

000000000040e156 <_ZNSt10_HashtableINSt7__cxx1112basic_stringIcSt11char_traitsIcESaIcEEESt4pairIKS5_N2cl7NDRangeEESaISA_ENSt8__detail10_Select1stESt8equal_toIS5_ESt4hashIS5_ENSC_18_Mod_range_hashingENSC_20_Default_ranged_hashENSC_20_Prime_rehash_policyENSC_17_Hashtable_traitsILb1ELb0ELb1EEEE21_M_deallocate_bucketsEv>:
  40e156:	55                   	push   %rbp
  40e157:	48 89 e5             	mov    %rsp,%rbp
  40e15a:	48 83 ec 10          	sub    $0x10,%rsp
  40e15e:	48 89 7d f8          	mov    %rdi,-0x8(%rbp)
  40e162:	48 8b 45 f8          	mov    -0x8(%rbp),%rax
  40e166:	48 8b 50 08          	mov    0x8(%rax),%rdx
  40e16a:	48 8b 45 f8          	mov    -0x8(%rbp),%rax
  40e16e:	48 8b 08             	mov    (%rax),%rcx
  40e171:	48 8b 45 f8          	mov    -0x8(%rbp),%rax
  40e175:	48 89 ce             	mov    %rcx,%rsi
  40e178:	48 89 c7             	mov    %rax,%rdi
  40e17b:	e8 24 0b 00 00       	callq  40eca4 <_ZNSt10_HashtableINSt7__cxx1112basic_stringIcSt11char_traitsIcESaIcEEESt4pairIKS5_N2cl7NDRangeEESaISA_ENSt8__detail10_Select1stESt8equal_toIS5_ESt4hashIS5_ENSC_18_Mod_range_hashingENSC_20_Default_ranged_hashENSC_20_Prime_rehash_policyENSC_17_Hashtable_traitsILb1ELb0ELb1EEEE21_M_deallocate_bucketsEPPNSC_15_Hash_node_baseEm>
  40e180:	90                   	nop
  40e181:	c9                   	leaveq 
  40e182:	c3                   	retq   

000000000040e183 <_ZSteqIcEN9__gnu_cxx11__enable_ifIXsrSt9__is_charIT_E7__valueEbE6__typeERKNSt7__cxx1112basic_stringIS3_St11char_traitsIS3_ESaIS3_EEESE_>:
  40e183:	55                   	push   %rbp
  40e184:	48 89 e5             	mov    %rsp,%rbp
  40e187:	41 54                	push   %r12
  40e189:	53                   	push   %rbx
  40e18a:	48 83 ec 10          	sub    $0x10,%rsp
  40e18e:	48 89 7d e8          	mov    %rdi,-0x18(%rbp)
  40e192:	48 89 75 e0          	mov    %rsi,-0x20(%rbp)
  40e196:	48 8b 45 e8          	mov    -0x18(%rbp),%rax
  40e19a:	48 89 c7             	mov    %rax,%rdi
  40e19d:	e8 0e 5d ff ff       	callq  403eb0 <_ZNKSt7__cxx1112basic_stringIcSt11char_traitsIcESaIcEE4sizeEv@plt>
  40e1a2:	48 89 c3             	mov    %rax,%rbx
  40e1a5:	48 8b 45 e0          	mov    -0x20(%rbp),%rax
  40e1a9:	48 89 c7             	mov    %rax,%rdi
  40e1ac:	e8 ff 5c ff ff       	callq  403eb0 <_ZNKSt7__cxx1112basic_stringIcSt11char_traitsIcESaIcEE4sizeEv@plt>
  40e1b1:	48 39 c3             	cmp    %rax,%rbx
  40e1b4:	75 43                	jne    40e1f9 <_ZSteqIcEN9__gnu_cxx11__enable_ifIXsrSt9__is_charIT_E7__valueEbE6__typeERKNSt7__cxx1112basic_stringIS3_St11char_traitsIS3_ESaIS3_EEESE_+0x76>
  40e1b6:	48 8b 45 e8          	mov    -0x18(%rbp),%rax
  40e1ba:	48 89 c7             	mov    %rax,%rdi
  40e1bd:	e8 ee 5c ff ff       	callq  403eb0 <_ZNKSt7__cxx1112basic_stringIcSt11char_traitsIcESaIcEE4sizeEv@plt>
  40e1c2:	49 89 c4             	mov    %rax,%r12
  40e1c5:	48 8b 45 e0          	mov    -0x20(%rbp),%rax
  40e1c9:	48 89 c7             	mov    %rax,%rdi
  40e1cc:	e8 1f 5e ff ff       	callq  403ff0 <_ZNKSt7__cxx1112basic_stringIcSt11char_traitsIcESaIcEE4dataEv@plt>
  40e1d1:	48 89 c3             	mov    %rax,%rbx
  40e1d4:	48 8b 45 e8          	mov    -0x18(%rbp),%rax
  40e1d8:	48 89 c7             	mov    %rax,%rdi
  40e1db:	e8 10 5e ff ff       	callq  403ff0 <_ZNKSt7__cxx1112basic_stringIcSt11char_traitsIcESaIcEE4dataEv@plt>
  40e1e0:	4c 89 e2             	mov    %r12,%rdx
  40e1e3:	48 89 de             	mov    %rbx,%rsi
  40e1e6:	48 89 c7             	mov    %rax,%rdi
  40e1e9:	e8 29 f0 ff ff       	callq  40d217 <_ZNSt11char_traitsIcE7compareEPKcS2_m>
  40e1ee:	85 c0                	test   %eax,%eax
  40e1f0:	75 07                	jne    40e1f9 <_ZSteqIcEN9__gnu_cxx11__enable_ifIXsrSt9__is_charIT_E7__valueEbE6__typeERKNSt7__cxx1112basic_stringIS3_St11char_traitsIS3_ESaIS3_EEESE_+0x76>
  40e1f2:	b8 01 00 00 00       	mov    $0x1,%eax
  40e1f7:	eb 05                	jmp    40e1fe <_ZSteqIcEN9__gnu_cxx11__enable_ifIXsrSt9__is_charIT_E7__valueEbE6__typeERKNSt7__cxx1112basic_stringIS3_St11char_traitsIS3_ESaIS3_EEESE_+0x7b>
  40e1f9:	b8 00 00 00 00       	mov    $0x0,%eax
  40e1fe:	48 83 c4 10          	add    $0x10,%rsp
  40e202:	5b                   	pop    %rbx
  40e203:	41 5c                	pop    %r12
  40e205:	5d                   	pop    %rbp
  40e206:	c3                   	retq   
  40e207:	90                   	nop

000000000040e208 <_ZNSt10_HashtableINSt7__cxx1112basic_stringIcSt11char_traitsIcESaIcEEESt4pairIKS5_N2cl7NDRangeEESaISA_ENSt8__detail10_Select1stESt8equal_toIS5_ESt4hashIS5_ENSC_18_Mod_range_hashingENSC_20_Default_ranged_hashENSC_20_Prime_rehash_policyENSC_17_Hashtable_traitsILb1ELb0ELb1EEEE4findERS7_>:
  40e208:	55                   	push   %rbp
  40e209:	48 89 e5             	mov    %rsp,%rbp
  40e20c:	48 83 ec 40          	sub    $0x40,%rsp
  40e210:	48 89 7d c8          	mov    %rdi,-0x38(%rbp)
  40e214:	48 89 75 c0          	mov    %rsi,-0x40(%rbp)
  40e218:	64 48 8b 04 25 28 00 	mov    %fs:0x28,%rax
  40e21f:	00 00 
  40e221:	48 89 45 f8          	mov    %rax,-0x8(%rbp)
  40e225:	31 c0                	xor    %eax,%eax
  40e227:	48 8b 55 c0          	mov    -0x40(%rbp),%rdx
  40e22b:	48 8b 45 c8          	mov    -0x38(%rbp),%rax
  40e22f:	48 89 d6             	mov    %rdx,%rsi
  40e232:	48 89 c7             	mov    %rax,%rdi
  40e235:	e8 b2 0a 00 00       	callq  40ecec <_ZNKSt8__detail15_Hash_code_baseINSt7__cxx1112basic_stringIcSt11char_traitsIcESaIcEEESt4pairIKS6_N2cl7NDRangeEENS_10_Select1stESt4hashIS6_ENS_18_Mod_range_hashingENS_20_Default_ranged_hashELb1EE12_M_hash_codeERS8_>
  40e23a:	48 89 45 e0          	mov    %rax,-0x20(%rbp)
  40e23e:	48 8b 55 e0          	mov    -0x20(%rbp),%rdx
  40e242:	48 8b 4d c0          	mov    -0x40(%rbp),%rcx
  40e246:	48 8b 45 c8          	mov    -0x38(%rbp),%rax
  40e24a:	48 89 ce             	mov    %rcx,%rsi
  40e24d:	48 89 c7             	mov    %rax,%rdi
  40e250:	e8 c7 0a 00 00       	callq  40ed1c <_ZNKSt10_HashtableINSt7__cxx1112basic_stringIcSt11char_traitsIcESaIcEEESt4pairIKS5_N2cl7NDRangeEESaISA_ENSt8__detail10_Select1stESt8equal_toIS5_ESt4hashIS5_ENSC_18_Mod_range_hashingENSC_20_Default_ranged_hashENSC_20_Prime_rehash_policyENSC_17_Hashtable_traitsILb1ELb0ELb1EEEE15_M_bucket_indexERS7_m>
  40e255:	48 89 45 e8          	mov    %rax,-0x18(%rbp)
  40e259:	48 8b 4d e0          	mov    -0x20(%rbp),%rcx
  40e25d:	48 8b 55 c0          	mov    -0x40(%rbp),%rdx
  40e261:	48 8b 75 e8          	mov    -0x18(%rbp),%rsi
  40e265:	48 8b 45 c8          	mov    -0x38(%rbp),%rax
  40e269:	48 89 c7             	mov    %rax,%rdi
  40e26c:	e8 dd 0a 00 00       	callq  40ed4e <_ZNKSt10_HashtableINSt7__cxx1112basic_stringIcSt11char_traitsIcESaIcEEESt4pairIKS5_N2cl7NDRangeEESaISA_ENSt8__detail10_Select1stESt8equal_toIS5_ESt4hashIS5_ENSC_18_Mod_range_hashingENSC_20_Default_ranged_hashENSC_20_Prime_rehash_policyENSC_17_Hashtable_traitsILb1ELb0ELb1EEEE12_M_find_nodeEmRS7_m>
  40e271:	48 89 45 f0          	mov    %rax,-0x10(%rbp)
  40e275:	48 83 7d f0 00       	cmpq   $0x0,-0x10(%rbp)
  40e27a:	74 15                	je     40e291 <_ZNSt10_HashtableINSt7__cxx1112basic_stringIcSt11char_traitsIcESaIcEEESt4pairIKS5_N2cl7NDRangeEESaISA_ENSt8__detail10_Select1stESt8equal_toIS5_ESt4hashIS5_ENSC_18_Mod_range_hashingENSC_20_Default_ranged_hashENSC_20_Prime_rehash_policyENSC_17_Hashtable_traitsILb1ELb0ELb1EEEE4findERS7_+0x89>
  40e27c:	48 8b 55 f0          	mov    -0x10(%rbp),%rdx
  40e280:	48 8d 45 d8          	lea    -0x28(%rbp),%rax
  40e284:	48 89 d6             	mov    %rdx,%rsi
  40e287:	48 89 c7             	mov    %rax,%rdi
  40e28a:	e8 0b 0b 00 00       	callq  40ed9a <_ZNSt8__detail14_Node_iteratorISt4pairIKNSt7__cxx1112basic_stringIcSt11char_traitsIcESaIcEEEN2cl7NDRangeEELb0ELb1EEC1EPNS_10_Hash_nodeISB_Lb1EEE>
  40e28f:	eb 10                	jmp    40e2a1 <_ZNSt10_HashtableINSt7__cxx1112basic_stringIcSt11char_traitsIcESaIcEEESt4pairIKS5_N2cl7NDRangeEESaISA_ENSt8__detail10_Select1stESt8equal_toIS5_ESt4hashIS5_ENSC_18_Mod_range_hashingENSC_20_Default_ranged_hashENSC_20_Prime_rehash_policyENSC_17_Hashtable_traitsILb1ELb0ELb1EEEE4findERS7_+0x99>
  40e291:	48 8b 45 c8          	mov    -0x38(%rbp),%rax
  40e295:	48 89 c7             	mov    %rax,%rdi
  40e298:	e8 1f 00 00 00       	callq  40e2bc <_ZNSt10_HashtableINSt7__cxx1112basic_stringIcSt11char_traitsIcESaIcEEESt4pairIKS5_N2cl7NDRangeEESaISA_ENSt8__detail10_Select1stESt8equal_toIS5_ESt4hashIS5_ENSC_18_Mod_range_hashingENSC_20_Default_ranged_hashENSC_20_Prime_rehash_policyENSC_17_Hashtable_traitsILb1ELb0ELb1EEEE3endEv>
  40e29d:	48 89 45 d8          	mov    %rax,-0x28(%rbp)
  40e2a1:	48 8b 45 d8          	mov    -0x28(%rbp),%rax
  40e2a5:	48 8b 4d f8          	mov    -0x8(%rbp),%rcx
  40e2a9:	64 48 33 0c 25 28 00 	xor    %fs:0x28,%rcx
  40e2b0:	00 00 
  40e2b2:	74 05                	je     40e2b9 <_ZNSt10_HashtableINSt7__cxx1112basic_stringIcSt11char_traitsIcESaIcEEESt4pairIKS5_N2cl7NDRangeEESaISA_ENSt8__detail10_Select1stESt8equal_toIS5_ESt4hashIS5_ENSC_18_Mod_range_hashingENSC_20_Default_ranged_hashENSC_20_Prime_rehash_policyENSC_17_Hashtable_traitsILb1ELb0ELb1EEEE4findERS7_+0xb1>
  40e2b4:	e8 77 5c ff ff       	callq  403f30 <__stack_chk_fail@plt>
  40e2b9:	c9                   	leaveq 
  40e2ba:	c3                   	retq   
  40e2bb:	90                   	nop

000000000040e2bc <_ZNSt10_HashtableINSt7__cxx1112basic_stringIcSt11char_traitsIcESaIcEEESt4pairIKS5_N2cl7NDRangeEESaISA_ENSt8__detail10_Select1stESt8equal_toIS5_ESt4hashIS5_ENSC_18_Mod_range_hashingENSC_20_Default_ranged_hashENSC_20_Prime_rehash_policyENSC_17_Hashtable_traitsILb1ELb0ELb1EEEE3endEv>:
  40e2bc:	55                   	push   %rbp
  40e2bd:	48 89 e5             	mov    %rsp,%rbp
  40e2c0:	48 83 ec 20          	sub    $0x20,%rsp
  40e2c4:	48 89 7d e8          	mov    %rdi,-0x18(%rbp)
  40e2c8:	64 48 8b 04 25 28 00 	mov    %fs:0x28,%rax
  40e2cf:	00 00 
  40e2d1:	48 89 45 f8          	mov    %rax,-0x8(%rbp)
  40e2d5:	31 c0                	xor    %eax,%eax
  40e2d7:	48 8d 45 f0          	lea    -0x10(%rbp),%rax
  40e2db:	be 00 00 00 00       	mov    $0x0,%esi
  40e2e0:	48 89 c7             	mov    %rax,%rdi
  40e2e3:	e8 b2 0a 00 00       	callq  40ed9a <_ZNSt8__detail14_Node_iteratorISt4pairIKNSt7__cxx1112basic_stringIcSt11char_traitsIcESaIcEEEN2cl7NDRangeEELb0ELb1EEC1EPNS_10_Hash_nodeISB_Lb1EEE>
  40e2e8:	48 8b 45 f0          	mov    -0x10(%rbp),%rax
  40e2ec:	48 8b 55 f8          	mov    -0x8(%rbp),%rdx
  40e2f0:	64 48 33 14 25 28 00 	xor    %fs:0x28,%rdx
  40e2f7:	00 00 
  40e2f9:	74 05                	je     40e300 <_ZNSt10_HashtableINSt7__cxx1112basic_stringIcSt11char_traitsIcESaIcEEESt4pairIKS5_N2cl7NDRangeEESaISA_ENSt8__detail10_Select1stESt8equal_toIS5_ESt4hashIS5_ENSC_18_Mod_range_hashingENSC_20_Default_ranged_hashENSC_20_Prime_rehash_policyENSC_17_Hashtable_traitsILb1ELb0ELb1EEEE3endEv+0x44>
  40e2fb:	e8 30 5c ff ff       	callq  403f30 <__stack_chk_fail@plt>
  40e300:	c9                   	leaveq 
  40e301:	c3                   	retq   

000000000040e302 <_ZNSt10_HashtableINSt7__cxx1112basic_stringIcSt11char_traitsIcESaIcEEESt4pairIKS5_N2cl7NDRangeEESaISA_ENSt8__detail10_Select1stESt8equal_toIS5_ESt4hashIS5_ENSC_18_Mod_range_hashingENSC_20_Default_ranged_hashENSC_20_Prime_rehash_policyENSC_17_Hashtable_traitsILb1ELb0ELb1EEEE7emplaceIJRS7_RS9_EEES6_INSC_14_Node_iteratorISA_Lb0ELb1EEEbEDpOT_>:
  40e302:	55                   	push   %rbp
  40e303:	48 89 e5             	mov    %rsp,%rbp
  40e306:	41 54                	push   %r12
  40e308:	53                   	push   %rbx
  40e309:	48 83 ec 30          	sub    $0x30,%rsp
  40e30d:	48 89 7d d8          	mov    %rdi,-0x28(%rbp)
  40e311:	48 89 75 d0          	mov    %rsi,-0x30(%rbp)
  40e315:	48 89 55 c8          	mov    %rdx,-0x38(%rbp)
  40e319:	64 48 8b 04 25 28 00 	mov    %fs:0x28,%rax
  40e320:	00 00 
  40e322:	48 89 45 e8          	mov    %rax,-0x18(%rbp)
  40e326:	31 c0                	xor    %eax,%eax
  40e328:	48 8b 45 c8          	mov    -0x38(%rbp),%rax
  40e32c:	48 89 c7             	mov    %rax,%rdi
  40e32f:	e8 fc f8 ff ff       	callq  40dc30 <_ZSt7forwardIRN2cl7NDRangeEEOT_RNSt16remove_referenceIS3_E4typeE>
  40e334:	48 89 c3             	mov    %rax,%rbx
  40e337:	48 8b 45 d0          	mov    -0x30(%rbp),%rax
  40e33b:	48 89 c7             	mov    %rax,%rdi
  40e33e:	e8 df f8 ff ff       	callq  40dc22 <_ZSt7forwardIRKNSt7__cxx1112basic_stringIcSt11char_traitsIcESaIcEEEEOT_RNSt16remove_referenceIS8_E4typeE>
  40e343:	48 89 c1             	mov    %rax,%rcx
  40e346:	48 8b 45 d8          	mov    -0x28(%rbp),%rax
  40e34a:	48 83 ec 08          	sub    $0x8,%rsp
  40e34e:	41 54                	push   %r12
  40e350:	48 89 da             	mov    %rbx,%rdx
  40e353:	48 89 ce             	mov    %rcx,%rsi
  40e356:	48 89 c7             	mov    %rax,%rdi
  40e359:	e8 38 0b 00 00       	callq  40ee96 <_ZNSt10_HashtableINSt7__cxx1112basic_stringIcSt11char_traitsIcESaIcEEESt4pairIKS5_N2cl7NDRangeEESaISA_ENSt8__detail10_Select1stESt8equal_toIS5_ESt4hashIS5_ENSC_18_Mod_range_hashingENSC_20_Default_ranged_hashENSC_20_Prime_rehash_policyENSC_17_Hashtable_traitsILb1ELb0ELb1EEEE10_M_emplaceIJRS7_RS9_EEES6_INSC_14_Node_iteratorISA_Lb0ELb1EEEbESt17integral_constantIbLb1EEDpOT_>
  40e35e:	48 83 c4 10          	add    $0x10,%rsp
  40e362:	48 8b 4d e8          	mov    -0x18(%rbp),%rcx
  40e366:	64 48 33 0c 25 28 00 	xor    %fs:0x28,%rcx
  40e36d:	00 00 
  40e36f:	74 05                	je     40e376 <_ZNSt10_HashtableINSt7__cxx1112basic_stringIcSt11char_traitsIcESaIcEEESt4pairIKS5_N2cl7NDRangeEESaISA_ENSt8__detail10_Select1stESt8equal_toIS5_ESt4hashIS5_ENSC_18_Mod_range_hashingENSC_20_Default_ranged_hashENSC_20_Prime_rehash_policyENSC_17_Hashtable_traitsILb1ELb0ELb1EEEE7emplaceIJRS7_RS9_EEES6_INSC_14_Node_iteratorISA_Lb0ELb1EEEbEDpOT_+0x74>
  40e371:	e8 ba 5b ff ff       	callq  403f30 <__stack_chk_fail@plt>
  40e376:	48 8d 65 f0          	lea    -0x10(%rbp),%rsp
  40e37a:	5b                   	pop    %rbx
  40e37b:	41 5c                	pop    %r12
  40e37d:	5d                   	pop    %rbp
  40e37e:	c3                   	retq   
  40e37f:	90                   	nop

000000000040e380 <_ZNSt8__detail21_Hash_node_value_baseISt4pairIKNSt7__cxx1112basic_stringIcSt11char_traitsIcESaIcEEEN2cl7NDRangeEEE9_M_valptrEv>:
  40e380:	55                   	push   %rbp
  40e381:	48 89 e5             	mov    %rsp,%rbp
  40e384:	48 83 ec 10          	sub    $0x10,%rsp
  40e388:	48 89 7d f8          	mov    %rdi,-0x8(%rbp)
  40e38c:	48 8b 45 f8          	mov    -0x8(%rbp),%rax
  40e390:	48 83 c0 08          	add    $0x8,%rax
  40e394:	48 89 c7             	mov    %rax,%rdi
  40e397:	e8 94 0c 00 00       	callq  40f030 <_ZN9__gnu_cxx16__aligned_bufferISt4pairIKNSt7__cxx1112basic_stringIcSt11char_traitsIcESaIcEEEN2cl7NDRangeEEE6_M_ptrEv>
  40e39c:	c9                   	leaveq 
  40e39d:	c3                   	retq   

000000000040e39e <_ZNSt8__detail16_Hashtable_allocISaINS_10_Hash_nodeISt4pairIKNSt7__cxx1112basic_stringIcSt11char_traitsIcESaIcEEEN2cl7NDRangeEELb1EEEEE17_M_node_allocatorEv>:
  40e39e:	55                   	push   %rbp
  40e39f:	48 89 e5             	mov    %rsp,%rbp
  40e3a2:	48 83 ec 10          	sub    $0x10,%rsp
  40e3a6:	48 89 7d f8          	mov    %rdi,-0x8(%rbp)
  40e3aa:	48 8b 45 f8          	mov    -0x8(%rbp),%rax
  40e3ae:	48 89 c7             	mov    %rax,%rdi
  40e3b1:	e8 94 0c 00 00       	callq  40f04a <_ZNSt8__detail21_Hashtable_ebo_helperILi0ESaINS_10_Hash_nodeISt4pairIKNSt7__cxx1112basic_stringIcSt11char_traitsIcESaIcEEEN2cl7NDRangeEELb1EEEELb1EE6_S_getERSF_>
  40e3b6:	c9                   	leaveq 
  40e3b7:	c3                   	retq   

000000000040e3b8 <_ZNKSt8__detail16_Hashtable_allocISaINS_10_Hash_nodeISt4pairIKNSt7__cxx1112basic_stringIcSt11char_traitsIcESaIcEEEN2cl7NDRangeEELb1EEEEE17_M_node_allocatorEv>:
  40e3b8:	55                   	push   %rbp
  40e3b9:	48 89 e5             	mov    %rsp,%rbp
  40e3bc:	48 83 ec 10          	sub    $0x10,%rsp
  40e3c0:	48 89 7d f8          	mov    %rdi,-0x8(%rbp)
  40e3c4:	48 8b 45 f8          	mov    -0x8(%rbp),%rax
  40e3c8:	48 89 c7             	mov    %rax,%rdi
  40e3cb:	e8 88 0c 00 00       	callq  40f058 <_ZNSt8__detail21_Hashtable_ebo_helperILi0ESaINS_10_Hash_nodeISt4pairIKNSt7__cxx1112basic_stringIcSt11char_traitsIcESaIcEEEN2cl7NDRangeEELb1EEEELb1EE7_S_cgetERKSF_>
  40e3d0:	c9                   	leaveq 
  40e3d1:	c3                   	retq   

000000000040e3d2 <_ZStneINSt8__detail10_Hash_nodeISt4pairIKNSt7__cxx1112basic_stringIcSt11char_traitsIcESaIcEEEN2cl7NDRangeEELb1EEEEbRKSaIT_ESH_>:
  40e3d2:	55                   	push   %rbp
  40e3d3:	48 89 e5             	mov    %rsp,%rbp
  40e3d6:	48 89 7d f8          	mov    %rdi,-0x8(%rbp)
  40e3da:	48 89 75 f0          	mov    %rsi,-0x10(%rbp)
  40e3de:	b8 00 00 00 00       	mov    $0x0,%eax
  40e3e3:	5d                   	pop    %rbp
  40e3e4:	c3                   	retq   
  40e3e5:	90                   	nop

000000000040e3e6 <_ZNKSt10_HashtableINSt7__cxx1112basic_stringIcSt11char_traitsIcESaIcEEESt4pairIKS5_N2cl7NDRangeEESaISA_ENSt8__detail10_Select1stESt8equal_toIS5_ESt4hashIS5_ENSC_18_Mod_range_hashingENSC_20_Default_ranged_hashENSC_20_Prime_rehash_policyENSC_17_Hashtable_traitsILb1ELb0ELb1EEEE8_M_beginEv>:
  40e3e6:	55                   	push   %rbp
  40e3e7:	48 89 e5             	mov    %rsp,%rbp
  40e3ea:	48 89 7d f8          	mov    %rdi,-0x8(%rbp)
  40e3ee:	48 8b 45 f8          	mov    -0x8(%rbp),%rax
  40e3f2:	48 8b 40 10          	mov    0x10(%rax),%rax
  40e3f6:	5d                   	pop    %rbp
  40e3f7:	c3                   	retq   

000000000040e3f8 <_ZNSt8__detail16_Hashtable_allocISaINS_10_Hash_nodeISt4pairIKNSt7__cxx1112basic_stringIcSt11char_traitsIcESaIcEEEN2cl7NDRangeEELb1EEEEE19_M_deallocate_nodesEPSD_>:
  40e3f8:	55                   	push   %rbp
  40e3f9:	48 89 e5             	mov    %rsp,%rbp
  40e3fc:	48 83 ec 20          	sub    $0x20,%rsp
  40e400:	48 89 7d e8          	mov    %rdi,-0x18(%rbp)
  40e404:	48 89 75 e0          	mov    %rsi,-0x20(%rbp)
  40e408:	48 83 7d e0 00       	cmpq   $0x0,-0x20(%rbp)
  40e40d:	74 2d                	je     40e43c <_ZNSt8__detail16_Hashtable_allocISaINS_10_Hash_nodeISt4pairIKNSt7__cxx1112basic_stringIcSt11char_traitsIcESaIcEEEN2cl7NDRangeEELb1EEEEE19_M_deallocate_nodesEPSD_+0x44>
  40e40f:	48 8b 45 e0          	mov    -0x20(%rbp),%rax
  40e413:	48 89 45 f8          	mov    %rax,-0x8(%rbp)
  40e417:	48 8b 45 e0          	mov    -0x20(%rbp),%rax
  40e41b:	48 89 c7             	mov    %rax,%rdi
  40e41e:	e8 43 0c 00 00       	callq  40f066 <_ZNKSt8__detail10_Hash_nodeISt4pairIKNSt7__cxx1112basic_stringIcSt11char_traitsIcESaIcEEEN2cl7NDRangeEELb1EE7_M_nextEv>
  40e423:	48 89 45 e0          	mov    %rax,-0x20(%rbp)
  40e427:	48 8b 55 f8          	mov    -0x8(%rbp),%rdx
  40e42b:	48 8b 45 e8          	mov    -0x18(%rbp),%rax
  40e42f:	48 89 d6             	mov    %rdx,%rsi
  40e432:	48 89 c7             	mov    %rax,%rdi
  40e435:	e8 3e 0c 00 00       	callq  40f078 <_ZNSt8__detail16_Hashtable_allocISaINS_10_Hash_nodeISt4pairIKNSt7__cxx1112basic_stringIcSt11char_traitsIcESaIcEEEN2cl7NDRangeEELb1EEEEE18_M_deallocate_nodeEPSD_>
  40e43a:	eb cc                	jmp    40e408 <_ZNSt8__detail16_Hashtable_allocISaINS_10_Hash_nodeISt4pairIKNSt7__cxx1112basic_stringIcSt11char_traitsIcESaIcEEEN2cl7NDRangeEELb1EEEEE19_M_deallocate_nodesEPSD_+0x10>
  40e43c:	90                   	nop
  40e43d:	c9                   	leaveq 
  40e43e:	c3                   	retq   

000000000040e43f <_ZSt15__alloc_on_copyISaINSt8__detail10_Hash_nodeISt4pairIKNSt7__cxx1112basic_stringIcSt11char_traitsIcESaIcEEEN2cl7NDRangeEELb1EEEEEvRT_RKSF_>:
  40e43f:	55                   	push   %rbp
  40e440:	48 89 e5             	mov    %rsp,%rbp
  40e443:	48 83 ec 20          	sub    $0x20,%rsp
  40e447:	48 89 7d e8          	mov    %rdi,-0x18(%rbp)
  40e44b:	48 89 75 e0          	mov    %rsi,-0x20(%rbp)
  40e44f:	64 48 8b 04 25 28 00 	mov    %fs:0x28,%rax
  40e456:	00 00 
  40e458:	48 89 45 f8          	mov    %rax,-0x8(%rbp)
  40e45c:	31 c0                	xor    %eax,%eax
  40e45e:	48 8b 55 e0          	mov    -0x20(%rbp),%rdx
  40e462:	48 8b 45 e8          	mov    -0x18(%rbp),%rax
  40e466:	48 83 ec 08          	sub    $0x8,%rsp
  40e46a:	51                   	push   %rcx
  40e46b:	48 89 d6             	mov    %rdx,%rsi
  40e46e:	48 89 c7             	mov    %rax,%rdi
  40e471:	e8 d5 0c 00 00       	callq  40f14b <_ZSt18__do_alloc_on_copyISaINSt8__detail10_Hash_nodeISt4pairIKNSt7__cxx1112basic_stringIcSt11char_traitsIcESaIcEEEN2cl7NDRangeEELb1EEEEEvRT_RKSF_St17integral_constantIbLb0EE>
  40e476:	48 83 c4 10          	add    $0x10,%rsp
  40e47a:	90                   	nop
  40e47b:	48 8b 45 f8          	mov    -0x8(%rbp),%rax
  40e47f:	64 48 33 04 25 28 00 	xor    %fs:0x28,%rax
  40e486:	00 00 
  40e488:	74 05                	je     40e48f <_ZSt15__alloc_on_copyISaINSt8__detail10_Hash_nodeISt4pairIKNSt7__cxx1112basic_stringIcSt11char_traitsIcESaIcEEEN2cl7NDRangeEELb1EEEEEvRT_RKSF_+0x50>
  40e48a:	e8 a1 5a ff ff       	callq  403f30 <__stack_chk_fail@plt>
  40e48f:	c9                   	leaveq 
  40e490:	c3                   	retq   
  40e491:	90                   	nop

000000000040e492 <_ZNKSt8__detail21_Hash_node_value_baseISt4pairIKNSt7__cxx1112basic_stringIcSt11char_traitsIcESaIcEEEN2cl7NDRangeEEE4_M_vEv>:
  40e492:	55                   	push   %rbp
  40e493:	48 89 e5             	mov    %rsp,%rbp
  40e496:	48 83 ec 10          	sub    $0x10,%rsp
  40e49a:	48 89 7d f8          	mov    %rdi,-0x8(%rbp)
  40e49e:	48 8b 45 f8          	mov    -0x8(%rbp),%rax
  40e4a2:	48 89 c7             	mov    %rax,%rdi
  40e4a5:	e8 b0 0c 00 00       	callq  40f15a <_ZNKSt8__detail21_Hash_node_value_baseISt4pairIKNSt7__cxx1112basic_stringIcSt11char_traitsIcESaIcEEEN2cl7NDRangeEEE9_M_valptrEv>
  40e4aa:	c9                   	leaveq 
  40e4ab:	c3                   	retq   

000000000040e4ac <_ZNSt15aligned_storageILm64ELm8EEC1Ev>:
  40e4ac:	55                   	push   %rbp
  40e4ad:	48 89 e5             	mov    %rsp,%rbp
  40e4b0:	48 89 7d f8          	mov    %rdi,-0x8(%rbp)
  40e4b4:	90                   	nop
  40e4b5:	5d                   	pop    %rbp
  40e4b6:	c3                   	retq   
  40e4b7:	90                   	nop

000000000040e4b8 <_ZN9__gnu_cxx16__aligned_bufferISt4pairIKNSt7__cxx1112basic_stringIcSt11char_traitsIcESaIcEEEN2cl7NDRangeEEEC1Ev>:
  40e4b8:	55                   	push   %rbp
  40e4b9:	48 89 e5             	mov    %rsp,%rbp
  40e4bc:	48 83 ec 10          	sub    $0x10,%rsp
  40e4c0:	48 89 7d f8          	mov    %rdi,-0x8(%rbp)
  40e4c4:	48 8b 45 f8          	mov    -0x8(%rbp),%rax
  40e4c8:	48 89 c7             	mov    %rax,%rdi
  40e4cb:	e8 dc ff ff ff       	callq  40e4ac <_ZNSt15aligned_storageILm64ELm8EEC1Ev>
  40e4d0:	90                   	nop
  40e4d1:	c9                   	leaveq 
  40e4d2:	c3                   	retq   
  40e4d3:	90                   	nop

000000000040e4d4 <_ZNSt8__detail21_Hash_node_value_baseISt4pairIKNSt7__cxx1112basic_stringIcSt11char_traitsIcESaIcEEEN2cl7NDRangeEEEC1Ev>:
  40e4d4:	55                   	push   %rbp
  40e4d5:	48 89 e5             	mov    %rsp,%rbp
  40e4d8:	48 83 ec 10          	sub    $0x10,%rsp
  40e4dc:	48 89 7d f8          	mov    %rdi,-0x8(%rbp)
  40e4e0:	48 8b 45 f8          	mov    -0x8(%rbp),%rax
  40e4e4:	48 89 c7             	mov    %rax,%rdi
  40e4e7:	e8 7c ee ff ff       	callq  40d368 <_ZNSt8__detail15_Hash_node_baseC1Ev>
  40e4ec:	48 8b 45 f8          	mov    -0x8(%rbp),%rax
  40e4f0:	48 83 c0 08          	add    $0x8,%rax
  40e4f4:	48 89 c7             	mov    %rax,%rdi
  40e4f7:	e8 bc ff ff ff       	callq  40e4b8 <_ZN9__gnu_cxx16__aligned_bufferISt4pairIKNSt7__cxx1112basic_stringIcSt11char_traitsIcESaIcEEEN2cl7NDRangeEEEC1Ev>
  40e4fc:	90                   	nop
  40e4fd:	c9                   	leaveq 
  40e4fe:	c3                   	retq   
  40e4ff:	90                   	nop

000000000040e500 <_ZNSt8__detail10_Hash_nodeISt4pairIKNSt7__cxx1112basic_stringIcSt11char_traitsIcESaIcEEEN2cl7NDRangeEELb1EEC1Ev>:
  40e500:	55                   	push   %rbp
  40e501:	48 89 e5             	mov    %rsp,%rbp
  40e504:	48 83 ec 10          	sub    $0x10,%rsp
  40e508:	48 89 7d f8          	mov    %rdi,-0x8(%rbp)
  40e50c:	48 8b 45 f8          	mov    -0x8(%rbp),%rax
  40e510:	48 89 c7             	mov    %rax,%rdi
  40e513:	e8 bc ff ff ff       	callq  40e4d4 <_ZNSt8__detail21_Hash_node_value_baseISt4pairIKNSt7__cxx1112basic_stringIcSt11char_traitsIcESaIcEEEN2cl7NDRangeEEEC1Ev>
  40e518:	90                   	nop
  40e519:	c9                   	leaveq 
  40e51a:	c3                   	retq   

000000000040e51b <_ZSt7forwardIRKSt4pairIKNSt7__cxx1112basic_stringIcSt11char_traitsIcESaIcEEEN2cl7NDRangeEEEOT_RNSt16remove_referenceISD_E4typeE>:
  40e51b:	55                   	push   %rbp
  40e51c:	48 89 e5             	mov    %rsp,%rbp
  40e51f:	48 89 7d f8          	mov    %rdi,-0x8(%rbp)
  40e523:	48 8b 45 f8          	mov    -0x8(%rbp),%rax
  40e527:	5d                   	pop    %rbp
  40e528:	c3                   	retq   
  40e529:	90                   	nop

000000000040e52a <_ZNSt8__detail16_Hashtable_allocISaINS_10_Hash_nodeISt4pairIKNSt7__cxx1112basic_stringIcSt11char_traitsIcESaIcEEEN2cl7NDRangeEELb1EEEEE16_M_allocate_nodeIJRKSC_EEEPSD_DpOT_>:
  40e52a:	55                   	push   %rbp
  40e52b:	48 89 e5             	mov    %rsp,%rbp
  40e52e:	53                   	push   %rbx
  40e52f:	48 83 ec 38          	sub    $0x38,%rsp
  40e533:	48 89 7d c8          	mov    %rdi,-0x38(%rbp)
  40e537:	48 89 75 c0          	mov    %rsi,-0x40(%rbp)
  40e53b:	64 48 8b 04 25 28 00 	mov    %fs:0x28,%rax
  40e542:	00 00 
  40e544:	48 89 45 e8          	mov    %rax,-0x18(%rbp)
  40e548:	31 c0                	xor    %eax,%eax
  40e54a:	48 8b 45 c8          	mov    -0x38(%rbp),%rax
  40e54e:	48 89 c7             	mov    %rax,%rdi
  40e551:	e8 48 fe ff ff       	callq  40e39e <_ZNSt8__detail16_Hashtable_allocISaINS_10_Hash_nodeISt4pairIKNSt7__cxx1112basic_stringIcSt11char_traitsIcESaIcEEEN2cl7NDRangeEELb1EEEEE17_M_node_allocatorEv>
  40e556:	be 01 00 00 00       	mov    $0x1,%esi
  40e55b:	48 89 c7             	mov    %rax,%rdi
  40e55e:	e8 15 0c 00 00       	callq  40f178 <_ZNSt16allocator_traitsISaINSt8__detail10_Hash_nodeISt4pairIKNSt7__cxx1112basic_stringIcSt11char_traitsIcESaIcEEEN2cl7NDRangeEELb1EEEEE8allocateERSE_m>
  40e563:	48 89 45 d8          	mov    %rax,-0x28(%rbp)
  40e567:	48 8b 45 d8          	mov    -0x28(%rbp),%rax
  40e56b:	48 89 c7             	mov    %rax,%rdi
  40e56e:	e8 2f 0c 00 00       	callq  40f1a2 <_ZSt11__addressofINSt8__detail10_Hash_nodeISt4pairIKNSt7__cxx1112basic_stringIcSt11char_traitsIcESaIcEEEN2cl7NDRangeEELb1EEEEPT_RSE_>
  40e573:	48 89 45 e0          	mov    %rax,-0x20(%rbp)
  40e577:	48 8b 45 c8          	mov    -0x38(%rbp),%rax
  40e57b:	48 89 c7             	mov    %rax,%rdi
  40e57e:	e8 1b fe ff ff       	callq  40e39e <_ZNSt8__detail16_Hashtable_allocISaINS_10_Hash_nodeISt4pairIKNSt7__cxx1112basic_stringIcSt11char_traitsIcESaIcEEEN2cl7NDRangeEELb1EEEEE17_M_node_allocatorEv>
  40e583:	48 89 c2             	mov    %rax,%rdx
  40e586:	48 8d 45 d7          	lea    -0x29(%rbp),%rax
  40e58a:	48 89 d6             	mov    %rdx,%rsi
  40e58d:	48 89 c7             	mov    %rax,%rdi
  40e590:	e8 1b 0c 00 00       	callq  40f1b0 <_ZNSaISt4pairIKNSt7__cxx1112basic_stringIcSt11char_traitsIcESaIcEEEN2cl7NDRangeEEEC1INSt8__detail10_Hash_nodeIS9_Lb1EEEEERKSaIT_E>
  40e595:	48 8b 45 e0          	mov    -0x20(%rbp),%rax
  40e599:	48 89 c6             	mov    %rax,%rsi
  40e59c:	bf 50 00 00 00       	mov    $0x50,%edi
  40e5a1:	e8 e1 68 ff ff       	callq  404e87 <_ZnwmPv>
  40e5a6:	48 85 c0             	test   %rax,%rax
  40e5a9:	74 08                	je     40e5b3 <_ZNSt8__detail16_Hashtable_allocISaINS_10_Hash_nodeISt4pairIKNSt7__cxx1112basic_stringIcSt11char_traitsIcESaIcEEEN2cl7NDRangeEELb1EEEEE16_M_allocate_nodeIJRKSC_EEEPSD_DpOT_+0x89>
  40e5ab:	48 89 c7             	mov    %rax,%rdi
  40e5ae:	e8 4d ff ff ff       	callq  40e500 <_ZNSt8__detail10_Hash_nodeISt4pairIKNSt7__cxx1112basic_stringIcSt11char_traitsIcESaIcEEEN2cl7NDRangeEELb1EEC1Ev>
  40e5b3:	48 8b 45 c0          	mov    -0x40(%rbp),%rax
  40e5b7:	48 89 c7             	mov    %rax,%rdi
  40e5ba:	e8 5c ff ff ff       	callq  40e51b <_ZSt7forwardIRKSt4pairIKNSt7__cxx1112basic_stringIcSt11char_traitsIcESaIcEEEN2cl7NDRangeEEEOT_RNSt16remove_referenceISD_E4typeE>
  40e5bf:	48 89 c3             	mov    %rax,%rbx
  40e5c2:	48 8b 45 e0          	mov    -0x20(%rbp),%rax
  40e5c6:	48 89 c7             	mov    %rax,%rdi
  40e5c9:	e8 b2 fd ff ff       	callq  40e380 <_ZNSt8__detail21_Hash_node_value_baseISt4pairIKNSt7__cxx1112basic_stringIcSt11char_traitsIcESaIcEEEN2cl7NDRangeEEE9_M_valptrEv>
  40e5ce:	48 89 c1             	mov    %rax,%rcx
  40e5d1:	48 8d 45 d7          	lea    -0x29(%rbp),%rax
  40e5d5:	48 89 da             	mov    %rbx,%rdx
  40e5d8:	48 89 ce             	mov    %rcx,%rsi
  40e5db:	48 89 c7             	mov    %rax,%rdi
  40e5de:	e8 08 0c 00 00       	callq  40f1eb <_ZNSt16allocator_traitsISaISt4pairIKNSt7__cxx1112basic_stringIcSt11char_traitsIcESaIcEEEN2cl7NDRangeEEEE9constructISA_JRKSA_EEEvRSB_PT_DpOT0_>
  40e5e3:	48 8b 5d e0          	mov    -0x20(%rbp),%rbx
  40e5e7:	48 8d 45 d7          	lea    -0x29(%rbp),%rax
  40e5eb:	48 89 c7             	mov    %rax,%rdi
  40e5ee:	e8 dd 0b 00 00       	callq  40f1d0 <_ZNSaISt4pairIKNSt7__cxx1112basic_stringIcSt11char_traitsIcESaIcEEEN2cl7NDRangeEEED1Ev>
  40e5f3:	48 89 d8             	mov    %rbx,%rax
  40e5f6:	48 8b 55 e8          	mov    -0x18(%rbp),%rdx
  40e5fa:	64 48 33 14 25 28 00 	xor    %fs:0x28,%rdx
  40e601:	00 00 
  40e603:	74 5c                	je     40e661 <_ZNSt8__detail16_Hashtable_allocISaINS_10_Hash_nodeISt4pairIKNSt7__cxx1112basic_stringIcSt11char_traitsIcESaIcEEEN2cl7NDRangeEELb1EEEEE16_M_allocate_nodeIJRKSC_EEEPSD_DpOT_+0x137>
  40e605:	eb 55                	jmp    40e65c <_ZNSt8__detail16_Hashtable_allocISaINS_10_Hash_nodeISt4pairIKNSt7__cxx1112basic_stringIcSt11char_traitsIcESaIcEEEN2cl7NDRangeEELb1EEEEE16_M_allocate_nodeIJRKSC_EEEPSD_DpOT_+0x132>
  40e607:	48 89 c3             	mov    %rax,%rbx
  40e60a:	48 8d 45 d7          	lea    -0x29(%rbp),%rax
  40e60e:	48 89 c7             	mov    %rax,%rdi
  40e611:	e8 ba 0b 00 00       	callq  40f1d0 <_ZNSaISt4pairIKNSt7__cxx1112basic_stringIcSt11char_traitsIcESaIcEEEN2cl7NDRangeEEED1Ev>
  40e616:	48 89 d8             	mov    %rbx,%rax
  40e619:	48 89 c7             	mov    %rax,%rdi
  40e61c:	e8 9f 57 ff ff       	callq  403dc0 <__cxa_begin_catch@plt>
  40e621:	48 8b 45 c8          	mov    -0x38(%rbp),%rax
  40e625:	48 89 c7             	mov    %rax,%rdi
  40e628:	e8 71 fd ff ff       	callq  40e39e <_ZNSt8__detail16_Hashtable_allocISaINS_10_Hash_nodeISt4pairIKNSt7__cxx1112basic_stringIcSt11char_traitsIcESaIcEEEN2cl7NDRangeEELb1EEEEE17_M_node_allocatorEv>
  40e62d:	48 89 c1             	mov    %rax,%rcx
  40e630:	48 8b 45 d8          	mov    -0x28(%rbp),%rax
  40e634:	ba 01 00 00 00       	mov    $0x1,%edx
  40e639:	48 89 c6             	mov    %rax,%rsi
  40e63c:	48 89 cf             	mov    %rcx,%rdi
  40e63f:	e8 e0 0b 00 00       	callq  40f224 <_ZNSt16allocator_traitsISaINSt8__detail10_Hash_nodeISt4pairIKNSt7__cxx1112basic_stringIcSt11char_traitsIcESaIcEEEN2cl7NDRangeEELb1EEEEE10deallocateERSE_PSD_m>
  40e644:	e8 27 5a ff ff       	callq  404070 <__cxa_rethrow@plt>
  40e649:	48 89 c3             	mov    %rax,%rbx
  40e64c:	e8 bf 5a ff ff       	callq  404110 <__cxa_end_catch@plt>
  40e651:	48 89 d8             	mov    %rbx,%rax
  40e654:	48 89 c7             	mov    %rax,%rdi
  40e657:	e8 34 5b ff ff       	callq  404190 <_Unwind_Resume@plt>
  40e65c:	e8 cf 58 ff ff       	callq  403f30 <__stack_chk_fail@plt>
  40e661:	48 83 c4 38          	add    $0x38,%rsp
  40e665:	5b                   	pop    %rbx
  40e666:	5d                   	pop    %rbp
  40e667:	c3                   	retq   

000000000040e668 <_ZNSt10_HashtableINSt7__cxx1112basic_stringIcSt11char_traitsIcESaIcEEESt4pairIKS5_N2cl7NDRangeEESaISA_ENSt8__detail10_Select1stESt8equal_toIS5_ESt4hashIS5_ENSC_18_Mod_range_hashingENSC_20_Default_ranged_hashENSC_20_Prime_rehash_policyENSC_17_Hashtable_traitsILb1ELb0ELb1EEEE9_M_assignIZNSN_aSERKSN_EUlPKNSC_10_Hash_nodeISA_Lb1EEEE_EEvSQ_RKT_>:
  40e668:	55                   	push   %rbp
  40e669:	48 89 e5             	mov    %rsp,%rbp
  40e66c:	53                   	push   %rbx
  40e66d:	48 83 ec 58          	sub    $0x58,%rsp
  40e671:	48 89 7d b8          	mov    %rdi,-0x48(%rbp)
  40e675:	48 89 75 b0          	mov    %rsi,-0x50(%rbp)
  40e679:	48 89 55 a8          	mov    %rdx,-0x58(%rbp)
  40e67d:	48 c7 45 c8 00 00 00 	movq   $0x0,-0x38(%rbp)
  40e684:	00 
  40e685:	48 8b 45 b8          	mov    -0x48(%rbp),%rax
  40e689:	48 8b 00             	mov    (%rax),%rax
  40e68c:	48 85 c0             	test   %rax,%rax
  40e68f:	75 26                	jne    40e6b7 <_ZNSt10_HashtableINSt7__cxx1112basic_stringIcSt11char_traitsIcESaIcEEESt4pairIKS5_N2cl7NDRangeEESaISA_ENSt8__detail10_Select1stESt8equal_toIS5_ESt4hashIS5_ENSC_18_Mod_range_hashingENSC_20_Default_ranged_hashENSC_20_Prime_rehash_policyENSC_17_Hashtable_traitsILb1ELb0ELb1EEEE9_M_assignIZNSN_aSERKSN_EUlPKNSC_10_Hash_nodeISA_Lb1EEEE_EEvSQ_RKT_+0x4f>
  40e691:	48 8b 45 b8          	mov    -0x48(%rbp),%rax
  40e695:	48 8b 50 08          	mov    0x8(%rax),%rdx
  40e699:	48 8b 45 b8          	mov    -0x48(%rbp),%rax
  40e69d:	48 89 d6             	mov    %rdx,%rsi
  40e6a0:	48 89 c7             	mov    %rax,%rdi
  40e6a3:	e8 fe 01 00 00       	callq  40e8a6 <_ZNSt10_HashtableINSt7__cxx1112basic_stringIcSt11char_traitsIcESaIcEEESt4pairIKS5_N2cl7NDRangeEESaISA_ENSt8__detail10_Select1stESt8equal_toIS5_ESt4hashIS5_ENSC_18_Mod_range_hashingENSC_20_Default_ranged_hashENSC_20_Prime_rehash_policyENSC_17_Hashtable_traitsILb1ELb0ELb1EEEE19_M_allocate_bucketsEm>
  40e6a8:	48 89 45 c8          	mov    %rax,-0x38(%rbp)
  40e6ac:	48 8b 45 b8          	mov    -0x48(%rbp),%rax
  40e6b0:	48 8b 55 c8          	mov    -0x38(%rbp),%rdx
  40e6b4:	48 89 10             	mov    %rdx,(%rax)
  40e6b7:	48 8b 45 b0          	mov    -0x50(%rbp),%rax
  40e6bb:	48 8b 40 10          	mov    0x10(%rax),%rax
  40e6bf:	48 85 c0             	test   %rax,%rax
  40e6c2:	0f 84 78 01 00 00    	je     40e840 <_ZNSt10_HashtableINSt7__cxx1112basic_stringIcSt11char_traitsIcESaIcEEESt4pairIKS5_N2cl7NDRangeEESaISA_ENSt8__detail10_Select1stESt8equal_toIS5_ESt4hashIS5_ENSC_18_Mod_range_hashingENSC_20_Default_ranged_hashENSC_20_Prime_rehash_policyENSC_17_Hashtable_traitsILb1ELb0ELb1EEEE9_M_assignIZNSN_aSERKSN_EUlPKNSC_10_Hash_nodeISA_Lb1EEEE_EEvSQ_RKT_+0x1d8>
  40e6c8:	48 8b 45 b0          	mov    -0x50(%rbp),%rax
  40e6cc:	48 89 c7             	mov    %rax,%rdi
  40e6cf:	e8 12 fd ff ff       	callq  40e3e6 <_ZNKSt10_HashtableINSt7__cxx1112basic_stringIcSt11char_traitsIcESaIcEEESt4pairIKS5_N2cl7NDRangeEESaISA_ENSt8__detail10_Select1stESt8equal_toIS5_ESt4hashIS5_ENSC_18_Mod_range_hashingENSC_20_Default_ranged_hashENSC_20_Prime_rehash_policyENSC_17_Hashtable_traitsILb1ELb0ELb1EEEE8_M_beginEv>
  40e6d4:	48 89 45 d0          	mov    %rax,-0x30(%rbp)
  40e6d8:	48 8b 55 d0          	mov    -0x30(%rbp),%rdx
  40e6dc:	48 8b 45 a8          	mov    -0x58(%rbp),%rax
  40e6e0:	48 89 d6             	mov    %rdx,%rsi
  40e6e3:	48 89 c7             	mov    %rax,%rdi
  40e6e6:	e8 ef f5 ff ff       	callq  40dcda <_ZZNSt10_HashtableINSt7__cxx1112basic_stringIcSt11char_traitsIcESaIcEEESt4pairIKS5_N2cl7NDRangeEESaISA_ENSt8__detail10_Select1stESt8equal_toIS5_ESt4hashIS5_ENSC_18_Mod_range_hashingENSC_20_Default_ranged_hashENSC_20_Prime_rehash_policyENSC_17_Hashtable_traitsILb1ELb0ELb1EEEEaSERKSN_ENKUlPKNSC_10_Hash_nodeISA_Lb1EEEE_clEST_>
  40e6eb:	48 89 45 e0          	mov    %rax,-0x20(%rbp)
  40e6ef:	48 8b 55 d0          	mov    -0x30(%rbp),%rdx
  40e6f3:	48 8b 4d e0          	mov    -0x20(%rbp),%rcx
  40e6f7:	48 8b 45 b8          	mov    -0x48(%rbp),%rax
  40e6fb:	48 89 ce             	mov    %rcx,%rsi
  40e6fe:	48 89 c7             	mov    %rax,%rdi
  40e701:	e8 4c 0b 00 00       	callq  40f252 <_ZNKSt8__detail15_Hash_code_baseINSt7__cxx1112basic_stringIcSt11char_traitsIcESaIcEEESt4pairIKS6_N2cl7NDRangeEENS_10_Select1stESt4hashIS6_ENS_18_Mod_range_hashingENS_20_Default_ranged_hashELb1EE12_M_copy_codeEPNS_10_Hash_nodeISB_Lb1EEEPKSJ_>
  40e706:	48 8b 45 b8          	mov    -0x48(%rbp),%rax
  40e70a:	48 8b 55 e0          	mov    -0x20(%rbp),%rdx
  40e70e:	48 89 50 10          	mov    %rdx,0x10(%rax)
  40e712:	48 8b 45 b8          	mov    -0x48(%rbp),%rax
  40e716:	48 8b 18             	mov    (%rax),%rbx
  40e719:	48 8b 55 e0          	mov    -0x20(%rbp),%rdx
  40e71d:	48 8b 45 b8          	mov    -0x48(%rbp),%rax
  40e721:	48 89 d6             	mov    %rdx,%rsi
  40e724:	48 89 c7             	mov    %rax,%rdi
  40e727:	e8 4a 0b 00 00       	callq  40f276 <_ZNKSt10_HashtableINSt7__cxx1112basic_stringIcSt11char_traitsIcESaIcEEESt4pairIKS5_N2cl7NDRangeEESaISA_ENSt8__detail10_Select1stESt8equal_toIS5_ESt4hashIS5_ENSC_18_Mod_range_hashingENSC_20_Default_ranged_hashENSC_20_Prime_rehash_policyENSC_17_Hashtable_traitsILb1ELb0ELb1EEEE15_M_bucket_indexEPNSC_10_Hash_nodeISA_Lb1EEE>
  40e72c:	48 c1 e0 03          	shl    $0x3,%rax
  40e730:	48 01 d8             	add    %rbx,%rax
  40e733:	48 8b 55 b8          	mov    -0x48(%rbp),%rdx
  40e737:	48 83 c2 10          	add    $0x10,%rdx
  40e73b:	48 89 10             	mov    %rdx,(%rax)
  40e73e:	48 8b 45 e0          	mov    -0x20(%rbp),%rax
  40e742:	48 89 45 d8          	mov    %rax,-0x28(%rbp)
  40e746:	48 8b 45 d0          	mov    -0x30(%rbp),%rax
  40e74a:	48 89 c7             	mov    %rax,%rdi
  40e74d:	e8 14 09 00 00       	callq  40f066 <_ZNKSt8__detail10_Hash_nodeISt4pairIKNSt7__cxx1112basic_stringIcSt11char_traitsIcESaIcEEEN2cl7NDRangeEELb1EE7_M_nextEv>
  40e752:	48 89 45 d0          	mov    %rax,-0x30(%rbp)
  40e756:	48 83 7d d0 00       	cmpq   $0x0,-0x30(%rbp)
  40e75b:	0f 84 e0 00 00 00    	je     40e841 <_ZNSt10_HashtableINSt7__cxx1112basic_stringIcSt11char_traitsIcESaIcEEESt4pairIKS5_N2cl7NDRangeEESaISA_ENSt8__detail10_Select1stESt8equal_toIS5_ESt4hashIS5_ENSC_18_Mod_range_hashingENSC_20_Default_ranged_hashENSC_20_Prime_rehash_policyENSC_17_Hashtable_traitsILb1ELb0ELb1EEEE9_M_assignIZNSN_aSERKSN_EUlPKNSC_10_Hash_nodeISA_Lb1EEEE_EEvSQ_RKT_+0x1d9>
  40e761:	48 8b 55 d0          	mov    -0x30(%rbp),%rdx
  40e765:	48 8b 45 a8          	mov    -0x58(%rbp),%rax
  40e769:	48 89 d6             	mov    %rdx,%rsi
  40e76c:	48 89 c7             	mov    %rax,%rdi
  40e76f:	e8 66 f5 ff ff       	callq  40dcda <_ZZNSt10_HashtableINSt7__cxx1112basic_stringIcSt11char_traitsIcESaIcEEESt4pairIKS5_N2cl7NDRangeEESaISA_ENSt8__detail10_Select1stESt8equal_toIS5_ESt4hashIS5_ENSC_18_Mod_range_hashingENSC_20_Default_ranged_hashENSC_20_Prime_rehash_policyENSC_17_Hashtable_traitsILb1ELb0ELb1EEEEaSERKSN_ENKUlPKNSC_10_Hash_nodeISA_Lb1EEEE_clEST_>
  40e774:	48 89 45 e0          	mov    %rax,-0x20(%rbp)
  40e778:	48 8b 45 d8          	mov    -0x28(%rbp),%rax
  40e77c:	48 8b 55 e0          	mov    -0x20(%rbp),%rdx
  40e780:	48 89 10             	mov    %rdx,(%rax)
  40e783:	48 8b 55 d0          	mov    -0x30(%rbp),%rdx
  40e787:	48 8b 4d e0          	mov    -0x20(%rbp),%rcx
  40e78b:	48 8b 45 b8          	mov    -0x48(%rbp),%rax
  40e78f:	48 89 ce             	mov    %rcx,%rsi
  40e792:	48 89 c7             	mov    %rax,%rdi
  40e795:	e8 b8 0a 00 00       	callq  40f252 <_ZNKSt8__detail15_Hash_code_baseINSt7__cxx1112basic_stringIcSt11char_traitsIcESaIcEEESt4pairIKS6_N2cl7NDRangeEENS_10_Select1stESt4hashIS6_ENS_18_Mod_range_hashingENS_20_Default_ranged_hashELb1EE12_M_copy_codeEPNS_10_Hash_nodeISB_Lb1EEEPKSJ_>
  40e79a:	48 8b 55 e0          	mov    -0x20(%rbp),%rdx
  40e79e:	48 8b 45 b8          	mov    -0x48(%rbp),%rax
  40e7a2:	48 89 d6             	mov    %rdx,%rsi
  40e7a5:	48 89 c7             	mov    %rax,%rdi
  40e7a8:	e8 c9 0a 00 00       	callq  40f276 <_ZNKSt10_HashtableINSt7__cxx1112basic_stringIcSt11char_traitsIcESaIcEEESt4pairIKS5_N2cl7NDRangeEESaISA_ENSt8__detail10_Select1stESt8equal_toIS5_ESt4hashIS5_ENSC_18_Mod_range_hashingENSC_20_Default_ranged_hashENSC_20_Prime_rehash_policyENSC_17_Hashtable_traitsILb1ELb0ELb1EEEE15_M_bucket_indexEPNSC_10_Hash_nodeISA_Lb1EEE>
  40e7ad:	48 89 45 e8          	mov    %rax,-0x18(%rbp)
  40e7b1:	48 8b 45 b8          	mov    -0x48(%rbp),%rax
  40e7b5:	48 8b 00             	mov    (%rax),%rax
  40e7b8:	48 8b 55 e8          	mov    -0x18(%rbp),%rdx
  40e7bc:	48 c1 e2 03          	shl    $0x3,%rdx
  40e7c0:	48 01 d0             	add    %rdx,%rax
  40e7c3:	48 8b 00             	mov    (%rax),%rax
  40e7c6:	48 85 c0             	test   %rax,%rax
  40e7c9:	75 19                	jne    40e7e4 <_ZNSt10_HashtableINSt7__cxx1112basic_stringIcSt11char_traitsIcESaIcEEESt4pairIKS5_N2cl7NDRangeEESaISA_ENSt8__detail10_Select1stESt8equal_toIS5_ESt4hashIS5_ENSC_18_Mod_range_hashingENSC_20_Default_ranged_hashENSC_20_Prime_rehash_policyENSC_17_Hashtable_traitsILb1ELb0ELb1EEEE9_M_assignIZNSN_aSERKSN_EUlPKNSC_10_Hash_nodeISA_Lb1EEEE_EEvSQ_RKT_+0x17c>
  40e7cb:	48 8b 45 b8          	mov    -0x48(%rbp),%rax
  40e7cf:	48 8b 00             	mov    (%rax),%rax
  40e7d2:	48 8b 55 e8          	mov    -0x18(%rbp),%rdx
  40e7d6:	48 c1 e2 03          	shl    $0x3,%rdx
  40e7da:	48 01 c2             	add    %rax,%rdx
  40e7dd:	48 8b 45 d8          	mov    -0x28(%rbp),%rax
  40e7e1:	48 89 02             	mov    %rax,(%rdx)
  40e7e4:	48 8b 45 e0          	mov    -0x20(%rbp),%rax
  40e7e8:	48 89 45 d8          	mov    %rax,-0x28(%rbp)
  40e7ec:	48 8b 45 d0          	mov    -0x30(%rbp),%rax
  40e7f0:	48 89 c7             	mov    %rax,%rdi
  40e7f3:	e8 6e 08 00 00       	callq  40f066 <_ZNKSt8__detail10_Hash_nodeISt4pairIKNSt7__cxx1112basic_stringIcSt11char_traitsIcESaIcEEEN2cl7NDRangeEELb1EE7_M_nextEv>
  40e7f8:	48 89 45 d0          	mov    %rax,-0x30(%rbp)
  40e7fc:	e9 55 ff ff ff       	jmpq   40e756 <_ZNSt10_HashtableINSt7__cxx1112basic_stringIcSt11char_traitsIcESaIcEEESt4pairIKS5_N2cl7NDRangeEESaISA_ENSt8__detail10_Select1stESt8equal_toIS5_ESt4hashIS5_ENSC_18_Mod_range_hashingENSC_20_Default_ranged_hashENSC_20_Prime_rehash_policyENSC_17_Hashtable_traitsILb1ELb0ELb1EEEE9_M_assignIZNSN_aSERKSN_EUlPKNSC_10_Hash_nodeISA_Lb1EEEE_EEvSQ_RKT_+0xee>
  40e801:	48 89 c7             	mov    %rax,%rdi
  40e804:	e8 b7 55 ff ff       	callq  403dc0 <__cxa_begin_catch@plt>
  40e809:	48 8b 45 b8          	mov    -0x48(%rbp),%rax
  40e80d:	48 89 c7             	mov    %rax,%rdi
  40e810:	e8 d7 f8 ff ff       	callq  40e0ec <_ZNSt10_HashtableINSt7__cxx1112basic_stringIcSt11char_traitsIcESaIcEEESt4pairIKS5_N2cl7NDRangeEESaISA_ENSt8__detail10_Select1stESt8equal_toIS5_ESt4hashIS5_ENSC_18_Mod_range_hashingENSC_20_Default_ranged_hashENSC_20_Prime_rehash_policyENSC_17_Hashtable_traitsILb1ELb0ELb1EEEE5clearEv>
  40e815:	48 83 7d c8 00       	cmpq   $0x0,-0x38(%rbp)
  40e81a:	74 0c                	je     40e828 <_ZNSt10_HashtableINSt7__cxx1112basic_stringIcSt11char_traitsIcESaIcEEESt4pairIKS5_N2cl7NDRangeEESaISA_ENSt8__detail10_Select1stESt8equal_toIS5_ESt4hashIS5_ENSC_18_Mod_range_hashingENSC_20_Default_ranged_hashENSC_20_Prime_rehash_policyENSC_17_Hashtable_traitsILb1ELb0ELb1EEEE9_M_assignIZNSN_aSERKSN_EUlPKNSC_10_Hash_nodeISA_Lb1EEEE_EEvSQ_RKT_+0x1c0>
  40e81c:	48 8b 45 b8          	mov    -0x48(%rbp),%rax
  40e820:	48 89 c7             	mov    %rax,%rdi
  40e823:	e8 2e f9 ff ff       	callq  40e156 <_ZNSt10_HashtableINSt7__cxx1112basic_stringIcSt11char_traitsIcESaIcEEESt4pairIKS5_N2cl7NDRangeEESaISA_ENSt8__detail10_Select1stESt8equal_toIS5_ESt4hashIS5_ENSC_18_Mod_range_hashingENSC_20_Default_ranged_hashENSC_20_Prime_rehash_policyENSC_17_Hashtable_traitsILb1ELb0ELb1EEEE21_M_deallocate_bucketsEv>
  40e828:	e8 43 58 ff ff       	callq  404070 <__cxa_rethrow@plt>
  40e82d:	48 89 c3             	mov    %rax,%rbx
  40e830:	e8 db 58 ff ff       	callq  404110 <__cxa_end_catch@plt>
  40e835:	48 89 d8             	mov    %rbx,%rax
  40e838:	48 89 c7             	mov    %rax,%rdi
  40e83b:	e8 50 59 ff ff       	callq  404190 <_Unwind_Resume@plt>
  40e840:	90                   	nop
  40e841:	48 83 c4 58          	add    $0x58,%rsp
  40e845:	5b                   	pop    %rbx
  40e846:	5d                   	pop    %rbp
  40e847:	c3                   	retq   

000000000040e848 <_ZNSt10_HashtableINSt7__cxx1112basic_stringIcSt11char_traitsIcESaIcEEESt4pairIKS5_N2cl7NDRangeEESaISA_ENSt8__detail10_Select1stESt8equal_toIS5_ESt4hashIS5_ENSC_18_Mod_range_hashingENSC_20_Default_ranged_hashENSC_20_Prime_rehash_policyENSC_17_Hashtable_traitsILb1ELb0ELb1EEEE8_M_resetEv>:
  40e848:	55                   	push   %rbp
  40e849:	48 89 e5             	mov    %rsp,%rbp
  40e84c:	48 83 ec 10          	sub    $0x10,%rsp
  40e850:	48 89 7d f8          	mov    %rdi,-0x8(%rbp)
  40e854:	48 8b 45 f8          	mov    -0x8(%rbp),%rax
  40e858:	48 83 c0 20          	add    $0x20,%rax
  40e85c:	48 89 c7             	mov    %rax,%rdi
  40e85f:	e8 78 eb ff ff       	callq  40d3dc <_ZNSt8__detail20_Prime_rehash_policy8_M_resetEv>
  40e864:	48 8b 45 f8          	mov    -0x8(%rbp),%rax
  40e868:	48 c7 40 08 01 00 00 	movq   $0x1,0x8(%rax)
  40e86f:	00 
  40e870:	48 8b 45 f8          	mov    -0x8(%rbp),%rax
  40e874:	48 c7 40 30 00 00 00 	movq   $0x0,0x30(%rax)
  40e87b:	00 
  40e87c:	48 8b 45 f8          	mov    -0x8(%rbp),%rax
  40e880:	48 8d 50 30          	lea    0x30(%rax),%rdx
  40e884:	48 8b 45 f8          	mov    -0x8(%rbp),%rax
  40e888:	48 89 10             	mov    %rdx,(%rax)
  40e88b:	48 8b 45 f8          	mov    -0x8(%rbp),%rax
  40e88f:	48 c7 40 10 00 00 00 	movq   $0x0,0x10(%rax)
  40e896:	00 
  40e897:	48 8b 45 f8          	mov    -0x8(%rbp),%rax
  40e89b:	48 c7 40 18 00 00 00 	movq   $0x0,0x18(%rax)
  40e8a2:	00 
  40e8a3:	90                   	nop
  40e8a4:	c9                   	leaveq 
  40e8a5:	c3                   	retq   

000000000040e8a6 <_ZNSt10_HashtableINSt7__cxx1112basic_stringIcSt11char_traitsIcESaIcEEESt4pairIKS5_N2cl7NDRangeEESaISA_ENSt8__detail10_Select1stESt8equal_toIS5_ESt4hashIS5_ENSC_18_Mod_range_hashingENSC_20_Default_ranged_hashENSC_20_Prime_rehash_policyENSC_17_Hashtable_traitsILb1ELb0ELb1EEEE19_M_allocate_bucketsEm>:
  40e8a6:	55                   	push   %rbp
  40e8a7:	48 89 e5             	mov    %rsp,%rbp
  40e8aa:	48 83 ec 10          	sub    $0x10,%rsp
  40e8ae:	48 89 7d f8          	mov    %rdi,-0x8(%rbp)
  40e8b2:	48 89 75 f0          	mov    %rsi,-0x10(%rbp)
  40e8b6:	48 83 7d f0 01       	cmpq   $0x1,-0x10(%rbp)
  40e8bb:	0f 94 c0             	sete   %al
  40e8be:	0f b6 c0             	movzbl %al,%eax
  40e8c1:	48 85 c0             	test   %rax,%rax
  40e8c4:	74 16                	je     40e8dc <_ZNSt10_HashtableINSt7__cxx1112basic_stringIcSt11char_traitsIcESaIcEEESt4pairIKS5_N2cl7NDRangeEESaISA_ENSt8__detail10_Select1stESt8equal_toIS5_ESt4hashIS5_ENSC_18_Mod_range_hashingENSC_20_Default_ranged_hashENSC_20_Prime_rehash_policyENSC_17_Hashtable_traitsILb1ELb0ELb1EEEE19_M_allocate_bucketsEm+0x36>
  40e8c6:	48 8b 45 f8          	mov    -0x8(%rbp),%rax
  40e8ca:	48 c7 40 30 00 00 00 	movq   $0x0,0x30(%rax)
  40e8d1:	00 
  40e8d2:	48 8b 45 f8          	mov    -0x8(%rbp),%rax
  40e8d6:	48 83 c0 30          	add    $0x30,%rax
  40e8da:	eb 13                	jmp    40e8ef <_ZNSt10_HashtableINSt7__cxx1112basic_stringIcSt11char_traitsIcESaIcEEESt4pairIKS5_N2cl7NDRangeEESaISA_ENSt8__detail10_Select1stESt8equal_toIS5_ESt4hashIS5_ENSC_18_Mod_range_hashingENSC_20_Default_ranged_hashENSC_20_Prime_rehash_policyENSC_17_Hashtable_traitsILb1ELb0ELb1EEEE19_M_allocate_bucketsEm+0x49>
  40e8dc:	48 8b 55 f0          	mov    -0x10(%rbp),%rdx
  40e8e0:	48 8b 45 f8          	mov    -0x8(%rbp),%rax
  40e8e4:	48 89 d6             	mov    %rdx,%rsi
  40e8e7:	48 89 c7             	mov    %rax,%rdi
  40e8ea:	e8 b5 09 00 00       	callq  40f2a4 <_ZNSt8__detail16_Hashtable_allocISaINS_10_Hash_nodeISt4pairIKNSt7__cxx1112basic_stringIcSt11char_traitsIcESaIcEEEN2cl7NDRangeEELb1EEEEE19_M_allocate_bucketsEm>
  40e8ef:	c9                   	leaveq 
  40e8f0:	c3                   	retq   
  40e8f1:	90                   	nop

000000000040e8f2 <_ZNSt8__detail17_ReuseOrAllocNodeISaINS_10_Hash_nodeISt4pairIKNSt7__cxx1112basic_stringIcSt11char_traitsIcESaIcEEEN2cl7NDRangeEELb1EEEEEC1EPSD_RNS_16_Hashtable_allocISE_EE>:
  40e8f2:	55                   	push   %rbp
  40e8f3:	48 89 e5             	mov    %rsp,%rbp
  40e8f6:	48 89 7d f8          	mov    %rdi,-0x8(%rbp)
  40e8fa:	48 89 75 f0          	mov    %rsi,-0x10(%rbp)
  40e8fe:	48 89 55 e8          	mov    %rdx,-0x18(%rbp)
  40e902:	48 8b 45 f8          	mov    -0x8(%rbp),%rax
  40e906:	48 8b 55 f0          	mov    -0x10(%rbp),%rdx
  40e90a:	48 89 10             	mov    %rdx,(%rax)
  40e90d:	48 8b 45 f8          	mov    -0x8(%rbp),%rax
  40e911:	48 8b 55 e8          	mov    -0x18(%rbp),%rdx
  40e915:	48 89 50 08          	mov    %rdx,0x8(%rax)
  40e919:	90                   	nop
  40e91a:	5d                   	pop    %rbp
  40e91b:	c3                   	retq   

000000000040e91c <_ZNSt8__detail17_ReuseOrAllocNodeISaINS_10_Hash_nodeISt4pairIKNSt7__cxx1112basic_stringIcSt11char_traitsIcESaIcEEEN2cl7NDRangeEELb1EEEEED1Ev>:
  40e91c:	55                   	push   %rbp
  40e91d:	48 89 e5             	mov    %rsp,%rbp
  40e920:	48 83 ec 10          	sub    $0x10,%rsp
  40e924:	48 89 7d f8          	mov    %rdi,-0x8(%rbp)
  40e928:	48 8b 45 f8          	mov    -0x8(%rbp),%rax
  40e92c:	48 8b 10             	mov    (%rax),%rdx
  40e92f:	48 8b 45 f8          	mov    -0x8(%rbp),%rax
  40e933:	48 8b 40 08          	mov    0x8(%rax),%rax
  40e937:	48 89 d6             	mov    %rdx,%rsi
  40e93a:	48 89 c7             	mov    %rax,%rdi
  40e93d:	e8 b6 fa ff ff       	callq  40e3f8 <_ZNSt8__detail16_Hashtable_allocISaINS_10_Hash_nodeISt4pairIKNSt7__cxx1112basic_stringIcSt11char_traitsIcESaIcEEEN2cl7NDRangeEELb1EEEEE19_M_deallocate_nodesEPSD_>
  40e942:	90                   	nop
  40e943:	c9                   	leaveq 
  40e944:	c3                   	retq   
  40e945:	90                   	nop

000000000040e946 <_ZNKSt8__detail17_ReuseOrAllocNodeISaINS_10_Hash_nodeISt4pairIKNSt7__cxx1112basic_stringIcSt11char_traitsIcESaIcEEEN2cl7NDRangeEELb1EEEEEclIRKSC_EEPSD_OT_>:
  40e946:	55                   	push   %rbp
  40e947:	48 89 e5             	mov    %rsp,%rbp
  40e94a:	53                   	push   %rbx
  40e94b:	48 83 ec 38          	sub    $0x38,%rsp
  40e94f:	48 89 7d c8          	mov    %rdi,-0x38(%rbp)
  40e953:	48 89 75 c0          	mov    %rsi,-0x40(%rbp)
  40e957:	64 48 8b 04 25 28 00 	mov    %fs:0x28,%rax
  40e95e:	00 00 
  40e960:	48 89 45 e8          	mov    %rax,-0x18(%rbp)
  40e964:	31 c0                	xor    %eax,%eax
  40e966:	48 8b 45 c8          	mov    -0x38(%rbp),%rax
  40e96a:	48 8b 00             	mov    (%rax),%rax
  40e96d:	48 85 c0             	test   %rax,%rax
  40e970:	0f 84 b1 00 00 00    	je     40ea27 <_ZNKSt8__detail17_ReuseOrAllocNodeISaINS_10_Hash_nodeISt4pairIKNSt7__cxx1112basic_stringIcSt11char_traitsIcESaIcEEEN2cl7NDRangeEELb1EEEEEclIRKSC_EEPSD_OT_+0xe1>
  40e976:	48 8b 45 c8          	mov    -0x38(%rbp),%rax
  40e97a:	48 8b 00             	mov    (%rax),%rax
  40e97d:	48 89 45 e0          	mov    %rax,-0x20(%rbp)
  40e981:	48 8b 45 c8          	mov    -0x38(%rbp),%rax
  40e985:	48 8b 00             	mov    (%rax),%rax
  40e988:	48 89 c7             	mov    %rax,%rdi
  40e98b:	e8 d6 06 00 00       	callq  40f066 <_ZNKSt8__detail10_Hash_nodeISt4pairIKNSt7__cxx1112basic_stringIcSt11char_traitsIcESaIcEEEN2cl7NDRangeEELb1EE7_M_nextEv>
  40e990:	48 89 c2             	mov    %rax,%rdx
  40e993:	48 8b 45 c8          	mov    -0x38(%rbp),%rax
  40e997:	48 89 10             	mov    %rdx,(%rax)
  40e99a:	48 8b 45 e0          	mov    -0x20(%rbp),%rax
  40e99e:	48 c7 00 00 00 00 00 	movq   $0x0,(%rax)
  40e9a5:	48 8b 45 c8          	mov    -0x38(%rbp),%rax
  40e9a9:	48 8b 40 08          	mov    0x8(%rax),%rax
  40e9ad:	48 89 c7             	mov    %rax,%rdi
  40e9b0:	e8 e9 f9 ff ff       	callq  40e39e <_ZNSt8__detail16_Hashtable_allocISaINS_10_Hash_nodeISt4pairIKNSt7__cxx1112basic_stringIcSt11char_traitsIcESaIcEEEN2cl7NDRangeEELb1EEEEE17_M_node_allocatorEv>
  40e9b5:	48 89 c2             	mov    %rax,%rdx
  40e9b8:	48 8d 45 df          	lea    -0x21(%rbp),%rax
  40e9bc:	48 89 d6             	mov    %rdx,%rsi
  40e9bf:	48 89 c7             	mov    %rax,%rdi
  40e9c2:	e8 e9 07 00 00       	callq  40f1b0 <_ZNSaISt4pairIKNSt7__cxx1112basic_stringIcSt11char_traitsIcESaIcEEEN2cl7NDRangeEEEC1INSt8__detail10_Hash_nodeIS9_Lb1EEEEERKSaIT_E>
  40e9c7:	48 8b 45 e0          	mov    -0x20(%rbp),%rax
  40e9cb:	48 89 c7             	mov    %rax,%rdi
  40e9ce:	e8 ad f9 ff ff       	callq  40e380 <_ZNSt8__detail21_Hash_node_value_baseISt4pairIKNSt7__cxx1112basic_stringIcSt11char_traitsIcESaIcEEEN2cl7NDRangeEEE9_M_valptrEv>
  40e9d3:	48 89 c2             	mov    %rax,%rdx
  40e9d6:	48 8d 45 df          	lea    -0x21(%rbp),%rax
  40e9da:	48 89 d6             	mov    %rdx,%rsi
  40e9dd:	48 89 c7             	mov    %rax,%rdi
  40e9e0:	e8 8b 09 00 00       	callq  40f370 <_ZNSt16allocator_traitsISaISt4pairIKNSt7__cxx1112basic_stringIcSt11char_traitsIcESaIcEEEN2cl7NDRangeEEEE7destroyISA_EEvRSB_PT_>
  40e9e5:	48 8b 45 c0          	mov    -0x40(%rbp),%rax
  40e9e9:	48 89 c7             	mov    %rax,%rdi
  40e9ec:	e8 2a fb ff ff       	callq  40e51b <_ZSt7forwardIRKSt4pairIKNSt7__cxx1112basic_stringIcSt11char_traitsIcESaIcEEEN2cl7NDRangeEEEOT_RNSt16remove_referenceISD_E4typeE>
  40e9f1:	48 89 c3             	mov    %rax,%rbx
  40e9f4:	48 8b 45 e0          	mov    -0x20(%rbp),%rax
  40e9f8:	48 89 c7             	mov    %rax,%rdi
  40e9fb:	e8 80 f9 ff ff       	callq  40e380 <_ZNSt8__detail21_Hash_node_value_baseISt4pairIKNSt7__cxx1112basic_stringIcSt11char_traitsIcESaIcEEEN2cl7NDRangeEEE9_M_valptrEv>
  40ea00:	48 89 c1             	mov    %rax,%rcx
  40ea03:	48 8d 45 df          	lea    -0x21(%rbp),%rax
  40ea07:	48 89 da             	mov    %rbx,%rdx
  40ea0a:	48 89 ce             	mov    %rcx,%rsi
  40ea0d:	48 89 c7             	mov    %rax,%rdi
  40ea10:	e8 d6 07 00 00       	callq  40f1eb <_ZNSt16allocator_traitsISaISt4pairIKNSt7__cxx1112basic_stringIcSt11char_traitsIcESaIcEEEN2cl7NDRangeEEEE9constructISA_JRKSA_EEEvRSB_PT_DpOT0_>
  40ea15:	48 8b 5d e0          	mov    -0x20(%rbp),%rbx
  40ea19:	48 8d 45 df          	lea    -0x21(%rbp),%rax
  40ea1d:	48 89 c7             	mov    %rax,%rdi
  40ea20:	e8 ab 07 00 00       	callq  40f1d0 <_ZNSaISt4pairIKNSt7__cxx1112basic_stringIcSt11char_traitsIcESaIcEEEN2cl7NDRangeEEED1Ev>
  40ea25:	eb 25                	jmp    40ea4c <_ZNKSt8__detail17_ReuseOrAllocNodeISaINS_10_Hash_nodeISt4pairIKNSt7__cxx1112basic_stringIcSt11char_traitsIcESaIcEEEN2cl7NDRangeEELb1EEEEEclIRKSC_EEPSD_OT_+0x106>
  40ea27:	48 8b 45 c0          	mov    -0x40(%rbp),%rax
  40ea2b:	48 89 c7             	mov    %rax,%rdi
  40ea2e:	e8 e8 fa ff ff       	callq  40e51b <_ZSt7forwardIRKSt4pairIKNSt7__cxx1112basic_stringIcSt11char_traitsIcESaIcEEEN2cl7NDRangeEEEOT_RNSt16remove_referenceISD_E4typeE>
  40ea33:	48 89 c2             	mov    %rax,%rdx
  40ea36:	48 8b 45 c8          	mov    -0x38(%rbp),%rax
  40ea3a:	48 8b 40 08          	mov    0x8(%rax),%rax
  40ea3e:	48 89 d6             	mov    %rdx,%rsi
  40ea41:	48 89 c7             	mov    %rax,%rdi
  40ea44:	e8 e1 fa ff ff       	callq  40e52a <_ZNSt8__detail16_Hashtable_allocISaINS_10_Hash_nodeISt4pairIKNSt7__cxx1112basic_stringIcSt11char_traitsIcESaIcEEEN2cl7NDRangeEELb1EEEEE16_M_allocate_nodeIJRKSC_EEEPSD_DpOT_>
  40ea49:	48 89 c3             	mov    %rax,%rbx
  40ea4c:	48 89 d8             	mov    %rbx,%rax
  40ea4f:	48 8b 4d e8          	mov    -0x18(%rbp),%rcx
  40ea53:	64 48 33 0c 25 28 00 	xor    %fs:0x28,%rcx
  40ea5a:	00 00 
  40ea5c:	74 5f                	je     40eabd <_ZNKSt8__detail17_ReuseOrAllocNodeISaINS_10_Hash_nodeISt4pairIKNSt7__cxx1112basic_stringIcSt11char_traitsIcESaIcEEEN2cl7NDRangeEELb1EEEEEclIRKSC_EEPSD_OT_+0x177>
  40ea5e:	eb 58                	jmp    40eab8 <_ZNKSt8__detail17_ReuseOrAllocNodeISaINS_10_Hash_nodeISt4pairIKNSt7__cxx1112basic_stringIcSt11char_traitsIcESaIcEEEN2cl7NDRangeEELb1EEEEEclIRKSC_EEPSD_OT_+0x172>
  40ea60:	48 89 c7             	mov    %rax,%rdi
  40ea63:	e8 58 53 ff ff       	callq  403dc0 <__cxa_begin_catch@plt>
  40ea68:	48 8b 45 c8          	mov    -0x38(%rbp),%rax
  40ea6c:	48 8b 40 08          	mov    0x8(%rax),%rax
  40ea70:	48 89 c7             	mov    %rax,%rdi
  40ea73:	e8 26 f9 ff ff       	callq  40e39e <_ZNSt8__detail16_Hashtable_allocISaINS_10_Hash_nodeISt4pairIKNSt7__cxx1112basic_stringIcSt11char_traitsIcESaIcEEEN2cl7NDRangeEELb1EEEEE17_M_node_allocatorEv>
  40ea78:	48 89 c1             	mov    %rax,%rcx
  40ea7b:	48 8b 45 e0          	mov    -0x20(%rbp),%rax
  40ea7f:	ba 01 00 00 00       	mov    $0x1,%edx
  40ea84:	48 89 c6             	mov    %rax,%rsi
  40ea87:	48 89 cf             	mov    %rcx,%rdi
  40ea8a:	e8 95 07 00 00       	callq  40f224 <_ZNSt16allocator_traitsISaINSt8__detail10_Hash_nodeISt4pairIKNSt7__cxx1112basic_stringIcSt11char_traitsIcESaIcEEEN2cl7NDRangeEELb1EEEEE10deallocateERSE_PSD_m>
  40ea8f:	e8 dc 55 ff ff       	callq  404070 <__cxa_rethrow@plt>
  40ea94:	48 89 c3             	mov    %rax,%rbx
  40ea97:	e8 74 56 ff ff       	callq  404110 <__cxa_end_catch@plt>
  40ea9c:	eb 03                	jmp    40eaa1 <_ZNKSt8__detail17_ReuseOrAllocNodeISaINS_10_Hash_nodeISt4pairIKNSt7__cxx1112basic_stringIcSt11char_traitsIcESaIcEEEN2cl7NDRangeEELb1EEEEEclIRKSC_EEPSD_OT_+0x15b>
  40ea9e:	48 89 c3             	mov    %rax,%rbx
  40eaa1:	48 8d 45 df          	lea    -0x21(%rbp),%rax
  40eaa5:	48 89 c7             	mov    %rax,%rdi
  40eaa8:	e8 23 07 00 00       	callq  40f1d0 <_ZNSaISt4pairIKNSt7__cxx1112basic_stringIcSt11char_traitsIcESaIcEEEN2cl7NDRangeEEED1Ev>
  40eaad:	48 89 d8             	mov    %rbx,%rax
  40eab0:	48 89 c7             	mov    %rax,%rdi
  40eab3:	e8 d8 56 ff ff       	callq  404190 <_Unwind_Resume@plt>
  40eab8:	e8 73 54 ff ff       	callq  403f30 <__stack_chk_fail@plt>
  40eabd:	48 83 c4 38          	add    $0x38,%rsp
  40eac1:	5b                   	pop    %rbx
  40eac2:	5d                   	pop    %rbp
  40eac3:	c3                   	retq   

000000000040eac4 <_ZNSt10_HashtableINSt7__cxx1112basic_stringIcSt11char_traitsIcESaIcEEESt4pairIKS5_N2cl7NDRangeEESaISA_ENSt8__detail10_Select1stESt8equal_toIS5_ESt4hashIS5_ENSC_18_Mod_range_hashingENSC_20_Default_ranged_hashENSC_20_Prime_rehash_policyENSC_17_Hashtable_traitsILb1ELb0ELb1EEEE9_M_assignIZNSN_aSERKSN_EUlPKNSC_10_Hash_nodeISA_Lb1EEEE0_EEvSQ_RKT_>:
  40eac4:	55                   	push   %rbp
  40eac5:	48 89 e5             	mov    %rsp,%rbp
  40eac8:	53                   	push   %rbx
  40eac9:	48 83 ec 58          	sub    $0x58,%rsp
  40eacd:	48 89 7d b8          	mov    %rdi,-0x48(%rbp)
  40ead1:	48 89 75 b0          	mov    %rsi,-0x50(%rbp)
  40ead5:	48 89 55 a8          	mov    %rdx,-0x58(%rbp)
  40ead9:	48 c7 45 c8 00 00 00 	movq   $0x0,-0x38(%rbp)
  40eae0:	00 
  40eae1:	48 8b 45 b8          	mov    -0x48(%rbp),%rax
  40eae5:	48 8b 00             	mov    (%rax),%rax
  40eae8:	48 85 c0             	test   %rax,%rax
  40eaeb:	75 26                	jne    40eb13 <_ZNSt10_HashtableINSt7__cxx1112basic_stringIcSt11char_traitsIcESaIcEEESt4pairIKS5_N2cl7NDRangeEESaISA_ENSt8__detail10_Select1stESt8equal_toIS5_ESt4hashIS5_ENSC_18_Mod_range_hashingENSC_20_Default_ranged_hashENSC_20_Prime_rehash_policyENSC_17_Hashtable_traitsILb1ELb0ELb1EEEE9_M_assignIZNSN_aSERKSN_EUlPKNSC_10_Hash_nodeISA_Lb1EEEE0_EEvSQ_RKT_+0x4f>
  40eaed:	48 8b 45 b8          	mov    -0x48(%rbp),%rax
  40eaf1:	48 8b 50 08          	mov    0x8(%rax),%rdx
  40eaf5:	48 8b 45 b8          	mov    -0x48(%rbp),%rax
  40eaf9:	48 89 d6             	mov    %rdx,%rsi
  40eafc:	48 89 c7             	mov    %rax,%rdi
  40eaff:	e8 a2 fd ff ff       	callq  40e8a6 <_ZNSt10_HashtableINSt7__cxx1112basic_stringIcSt11char_traitsIcESaIcEEESt4pairIKS5_N2cl7NDRangeEESaISA_ENSt8__detail10_Select1stESt8equal_toIS5_ESt4hashIS5_ENSC_18_Mod_range_hashingENSC_20_Default_ranged_hashENSC_20_Prime_rehash_policyENSC_17_Hashtable_traitsILb1ELb0ELb1EEEE19_M_allocate_bucketsEm>
  40eb04:	48 89 45 c8          	mov    %rax,-0x38(%rbp)
  40eb08:	48 8b 45 b8          	mov    -0x48(%rbp),%rax
  40eb0c:	48 8b 55 c8          	mov    -0x38(%rbp),%rdx
  40eb10:	48 89 10             	mov    %rdx,(%rax)
  40eb13:	48 8b 45 b0          	mov    -0x50(%rbp),%rax
  40eb17:	48 8b 40 10          	mov    0x10(%rax),%rax
  40eb1b:	48 85 c0             	test   %rax,%rax
  40eb1e:	0f 84 78 01 00 00    	je     40ec9c <_ZNSt10_HashtableINSt7__cxx1112basic_stringIcSt11char_traitsIcESaIcEEESt4pairIKS5_N2cl7NDRangeEESaISA_ENSt8__detail10_Select1stESt8equal_toIS5_ESt4hashIS5_ENSC_18_Mod_range_hashingENSC_20_Default_ranged_hashENSC_20_Prime_rehash_policyENSC_17_Hashtable_traitsILb1ELb0ELb1EEEE9_M_assignIZNSN_aSERKSN_EUlPKNSC_10_Hash_nodeISA_Lb1EEEE0_EEvSQ_RKT_+0x1d8>
  40eb24:	48 8b 45 b0          	mov    -0x50(%rbp),%rax
  40eb28:	48 89 c7             	mov    %rax,%rdi
  40eb2b:	e8 b6 f8 ff ff       	callq  40e3e6 <_ZNKSt10_HashtableINSt7__cxx1112basic_stringIcSt11char_traitsIcESaIcEEESt4pairIKS5_N2cl7NDRangeEESaISA_ENSt8__detail10_Select1stESt8equal_toIS5_ESt4hashIS5_ENSC_18_Mod_range_hashingENSC_20_Default_ranged_hashENSC_20_Prime_rehash_policyENSC_17_Hashtable_traitsILb1ELb0ELb1EEEE8_M_beginEv>
  40eb30:	48 89 45 d0          	mov    %rax,-0x30(%rbp)
  40eb34:	48 8b 55 d0          	mov    -0x30(%rbp),%rdx
  40eb38:	48 8b 45 a8          	mov    -0x58(%rbp),%rax
  40eb3c:	48 89 d6             	mov    %rdx,%rsi
  40eb3f:	48 89 c7             	mov    %rax,%rdi
  40eb42:	e8 c7 f1 ff ff       	callq  40dd0e <_ZZNSt10_HashtableINSt7__cxx1112basic_stringIcSt11char_traitsIcESaIcEEESt4pairIKS5_N2cl7NDRangeEESaISA_ENSt8__detail10_Select1stESt8equal_toIS5_ESt4hashIS5_ENSC_18_Mod_range_hashingENSC_20_Default_ranged_hashENSC_20_Prime_rehash_policyENSC_17_Hashtable_traitsILb1ELb0ELb1EEEEaSERKSN_ENKUlPKNSC_10_Hash_nodeISA_Lb1EEEE0_clEST_>
  40eb47:	48 89 45 e0          	mov    %rax,-0x20(%rbp)
  40eb4b:	48 8b 55 d0          	mov    -0x30(%rbp),%rdx
  40eb4f:	48 8b 4d e0          	mov    -0x20(%rbp),%rcx
  40eb53:	48 8b 45 b8          	mov    -0x48(%rbp),%rax
  40eb57:	48 89 ce             	mov    %rcx,%rsi
  40eb5a:	48 89 c7             	mov    %rax,%rdi
  40eb5d:	e8 f0 06 00 00       	callq  40f252 <_ZNKSt8__detail15_Hash_code_baseINSt7__cxx1112basic_stringIcSt11char_traitsIcESaIcEEESt4pairIKS6_N2cl7NDRangeEENS_10_Select1stESt4hashIS6_ENS_18_Mod_range_hashingENS_20_Default_ranged_hashELb1EE12_M_copy_codeEPNS_10_Hash_nodeISB_Lb1EEEPKSJ_>
  40eb62:	48 8b 45 b8          	mov    -0x48(%rbp),%rax
  40eb66:	48 8b 55 e0          	mov    -0x20(%rbp),%rdx
  40eb6a:	48 89 50 10          	mov    %rdx,0x10(%rax)
  40eb6e:	48 8b 45 b8          	mov    -0x48(%rbp),%rax
  40eb72:	48 8b 18             	mov    (%rax),%rbx
  40eb75:	48 8b 55 e0          	mov    -0x20(%rbp),%rdx
  40eb79:	48 8b 45 b8          	mov    -0x48(%rbp),%rax
  40eb7d:	48 89 d6             	mov    %rdx,%rsi
  40eb80:	48 89 c7             	mov    %rax,%rdi
  40eb83:	e8 ee 06 00 00       	callq  40f276 <_ZNKSt10_HashtableINSt7__cxx1112basic_stringIcSt11char_traitsIcESaIcEEESt4pairIKS5_N2cl7NDRangeEESaISA_ENSt8__detail10_Select1stESt8equal_toIS5_ESt4hashIS5_ENSC_18_Mod_range_hashingENSC_20_Default_ranged_hashENSC_20_Prime_rehash_policyENSC_17_Hashtable_traitsILb1ELb0ELb1EEEE15_M_bucket_indexEPNSC_10_Hash_nodeISA_Lb1EEE>
  40eb88:	48 c1 e0 03          	shl    $0x3,%rax
  40eb8c:	48 01 d8             	add    %rbx,%rax
  40eb8f:	48 8b 55 b8          	mov    -0x48(%rbp),%rdx
  40eb93:	48 83 c2 10          	add    $0x10,%rdx
  40eb97:	48 89 10             	mov    %rdx,(%rax)
  40eb9a:	48 8b 45 e0          	mov    -0x20(%rbp),%rax
  40eb9e:	48 89 45 d8          	mov    %rax,-0x28(%rbp)
  40eba2:	48 8b 45 d0          	mov    -0x30(%rbp),%rax
  40eba6:	48 89 c7             	mov    %rax,%rdi
  40eba9:	e8 b8 04 00 00       	callq  40f066 <_ZNKSt8__detail10_Hash_nodeISt4pairIKNSt7__cxx1112basic_stringIcSt11char_traitsIcESaIcEEEN2cl7NDRangeEELb1EE7_M_nextEv>
  40ebae:	48 89 45 d0          	mov    %rax,-0x30(%rbp)
  40ebb2:	48 83 7d d0 00       	cmpq   $0x0,-0x30(%rbp)
  40ebb7:	0f 84 e0 00 00 00    	je     40ec9d <_ZNSt10_HashtableINSt7__cxx1112basic_stringIcSt11char_traitsIcESaIcEEESt4pairIKS5_N2cl7NDRangeEESaISA_ENSt8__detail10_Select1stESt8equal_toIS5_ESt4hashIS5_ENSC_18_Mod_range_hashingENSC_20_Default_ranged_hashENSC_20_Prime_rehash_policyENSC_17_Hashtable_traitsILb1ELb0ELb1EEEE9_M_assignIZNSN_aSERKSN_EUlPKNSC_10_Hash_nodeISA_Lb1EEEE0_EEvSQ_RKT_+0x1d9>
  40ebbd:	48 8b 55 d0          	mov    -0x30(%rbp),%rdx
  40ebc1:	48 8b 45 a8          	mov    -0x58(%rbp),%rax
  40ebc5:	48 89 d6             	mov    %rdx,%rsi
  40ebc8:	48 89 c7             	mov    %rax,%rdi
  40ebcb:	e8 3e f1 ff ff       	callq  40dd0e <_ZZNSt10_HashtableINSt7__cxx1112basic_stringIcSt11char_traitsIcESaIcEEESt4pairIKS5_N2cl7NDRangeEESaISA_ENSt8__detail10_Select1stESt8equal_toIS5_ESt4hashIS5_ENSC_18_Mod_range_hashingENSC_20_Default_ranged_hashENSC_20_Prime_rehash_policyENSC_17_Hashtable_traitsILb1ELb0ELb1EEEEaSERKSN_ENKUlPKNSC_10_Hash_nodeISA_Lb1EEEE0_clEST_>
  40ebd0:	48 89 45 e0          	mov    %rax,-0x20(%rbp)
  40ebd4:	48 8b 45 d8          	mov    -0x28(%rbp),%rax
  40ebd8:	48 8b 55 e0          	mov    -0x20(%rbp),%rdx
  40ebdc:	48 89 10             	mov    %rdx,(%rax)
  40ebdf:	48 8b 55 d0          	mov    -0x30(%rbp),%rdx
  40ebe3:	48 8b 4d e0          	mov    -0x20(%rbp),%rcx
  40ebe7:	48 8b 45 b8          	mov    -0x48(%rbp),%rax
  40ebeb:	48 89 ce             	mov    %rcx,%rsi
  40ebee:	48 89 c7             	mov    %rax,%rdi
  40ebf1:	e8 5c 06 00 00       	callq  40f252 <_ZNKSt8__detail15_Hash_code_baseINSt7__cxx1112basic_stringIcSt11char_traitsIcESaIcEEESt4pairIKS6_N2cl7NDRangeEENS_10_Select1stESt4hashIS6_ENS_18_Mod_range_hashingENS_20_Default_ranged_hashELb1EE12_M_copy_codeEPNS_10_Hash_nodeISB_Lb1EEEPKSJ_>
  40ebf6:	48 8b 55 e0          	mov    -0x20(%rbp),%rdx
  40ebfa:	48 8b 45 b8          	mov    -0x48(%rbp),%rax
  40ebfe:	48 89 d6             	mov    %rdx,%rsi
  40ec01:	48 89 c7             	mov    %rax,%rdi
  40ec04:	e8 6d 06 00 00       	callq  40f276 <_ZNKSt10_HashtableINSt7__cxx1112basic_stringIcSt11char_traitsIcESaIcEEESt4pairIKS5_N2cl7NDRangeEESaISA_ENSt8__detail10_Select1stESt8equal_toIS5_ESt4hashIS5_ENSC_18_Mod_range_hashingENSC_20_Default_ranged_hashENSC_20_Prime_rehash_policyENSC_17_Hashtable_traitsILb1ELb0ELb1EEEE15_M_bucket_indexEPNSC_10_Hash_nodeISA_Lb1EEE>
  40ec09:	48 89 45 e8          	mov    %rax,-0x18(%rbp)
  40ec0d:	48 8b 45 b8          	mov    -0x48(%rbp),%rax
  40ec11:	48 8b 00             	mov    (%rax),%rax
  40ec14:	48 8b 55 e8          	mov    -0x18(%rbp),%rdx
  40ec18:	48 c1 e2 03          	shl    $0x3,%rdx
  40ec1c:	48 01 d0             	add    %rdx,%rax
  40ec1f:	48 8b 00             	mov    (%rax),%rax
  40ec22:	48 85 c0             	test   %rax,%rax
  40ec25:	75 19                	jne    40ec40 <_ZNSt10_HashtableINSt7__cxx1112basic_stringIcSt11char_traitsIcESaIcEEESt4pairIKS5_N2cl7NDRangeEESaISA_ENSt8__detail10_Select1stESt8equal_toIS5_ESt4hashIS5_ENSC_18_Mod_range_hashingENSC_20_Default_ranged_hashENSC_20_Prime_rehash_policyENSC_17_Hashtable_traitsILb1ELb0ELb1EEEE9_M_assignIZNSN_aSERKSN_EUlPKNSC_10_Hash_nodeISA_Lb1EEEE0_EEvSQ_RKT_+0x17c>
  40ec27:	48 8b 45 b8          	mov    -0x48(%rbp),%rax
  40ec2b:	48 8b 00             	mov    (%rax),%rax
  40ec2e:	48 8b 55 e8          	mov    -0x18(%rbp),%rdx
  40ec32:	48 c1 e2 03          	shl    $0x3,%rdx
  40ec36:	48 01 c2             	add    %rax,%rdx
  40ec39:	48 8b 45 d8          	mov    -0x28(%rbp),%rax
  40ec3d:	48 89 02             	mov    %rax,(%rdx)
  40ec40:	48 8b 45 e0          	mov    -0x20(%rbp),%rax
  40ec44:	48 89 45 d8          	mov    %rax,-0x28(%rbp)
  40ec48:	48 8b 45 d0          	mov    -0x30(%rbp),%rax
  40ec4c:	48 89 c7             	mov    %rax,%rdi
  40ec4f:	e8 12 04 00 00       	callq  40f066 <_ZNKSt8__detail10_Hash_nodeISt4pairIKNSt7__cxx1112basic_stringIcSt11char_traitsIcESaIcEEEN2cl7NDRangeEELb1EE7_M_nextEv>
  40ec54:	48 89 45 d0          	mov    %rax,-0x30(%rbp)
  40ec58:	e9 55 ff ff ff       	jmpq   40ebb2 <_ZNSt10_HashtableINSt7__cxx1112basic_stringIcSt11char_traitsIcESaIcEEESt4pairIKS5_N2cl7NDRangeEESaISA_ENSt8__detail10_Select1stESt8equal_toIS5_ESt4hashIS5_ENSC_18_Mod_range_hashingENSC_20_Default_ranged_hashENSC_20_Prime_rehash_policyENSC_17_Hashtable_traitsILb1ELb0ELb1EEEE9_M_assignIZNSN_aSERKSN_EUlPKNSC_10_Hash_nodeISA_Lb1EEEE0_EEvSQ_RKT_+0xee>
  40ec5d:	48 89 c7             	mov    %rax,%rdi
  40ec60:	e8 5b 51 ff ff       	callq  403dc0 <__cxa_begin_catch@plt>
  40ec65:	48 8b 45 b8          	mov    -0x48(%rbp),%rax
  40ec69:	48 89 c7             	mov    %rax,%rdi
  40ec6c:	e8 7b f4 ff ff       	callq  40e0ec <_ZNSt10_HashtableINSt7__cxx1112basic_stringIcSt11char_traitsIcESaIcEEESt4pairIKS5_N2cl7NDRangeEESaISA_ENSt8__detail10_Select1stESt8equal_toIS5_ESt4hashIS5_ENSC_18_Mod_range_hashingENSC_20_Default_ranged_hashENSC_20_Prime_rehash_policyENSC_17_Hashtable_traitsILb1ELb0ELb1EEEE5clearEv>
  40ec71:	48 83 7d c8 00       	cmpq   $0x0,-0x38(%rbp)
  40ec76:	74 0c                	je     40ec84 <_ZNSt10_HashtableINSt7__cxx1112basic_stringIcSt11char_traitsIcESaIcEEESt4pairIKS5_N2cl7NDRangeEESaISA_ENSt8__detail10_Select1stESt8equal_toIS5_ESt4hashIS5_ENSC_18_Mod_range_hashingENSC_20_Default_ranged_hashENSC_20_Prime_rehash_policyENSC_17_Hashtable_traitsILb1ELb0ELb1EEEE9_M_assignIZNSN_aSERKSN_EUlPKNSC_10_Hash_nodeISA_Lb1EEEE0_EEvSQ_RKT_+0x1c0>
  40ec78:	48 8b 45 b8          	mov    -0x48(%rbp),%rax
  40ec7c:	48 89 c7             	mov    %rax,%rdi
  40ec7f:	e8 d2 f4 ff ff       	callq  40e156 <_ZNSt10_HashtableINSt7__cxx1112basic_stringIcSt11char_traitsIcESaIcEEESt4pairIKS5_N2cl7NDRangeEESaISA_ENSt8__detail10_Select1stESt8equal_toIS5_ESt4hashIS5_ENSC_18_Mod_range_hashingENSC_20_Default_ranged_hashENSC_20_Prime_rehash_policyENSC_17_Hashtable_traitsILb1ELb0ELb1EEEE21_M_deallocate_bucketsEv>
  40ec84:	e8 e7 53 ff ff       	callq  404070 <__cxa_rethrow@plt>
  40ec89:	48 89 c3             	mov    %rax,%rbx
  40ec8c:	e8 7f 54 ff ff       	callq  404110 <__cxa_end_catch@plt>
  40ec91:	48 89 d8             	mov    %rbx,%rax
  40ec94:	48 89 c7             	mov    %rax,%rdi
  40ec97:	e8 f4 54 ff ff       	callq  404190 <_Unwind_Resume@plt>
  40ec9c:	90                   	nop
  40ec9d:	48 83 c4 58          	add    $0x58,%rsp
  40eca1:	5b                   	pop    %rbx
  40eca2:	5d                   	pop    %rbp
  40eca3:	c3                   	retq   

000000000040eca4 <_ZNSt10_HashtableINSt7__cxx1112basic_stringIcSt11char_traitsIcESaIcEEESt4pairIKS5_N2cl7NDRangeEESaISA_ENSt8__detail10_Select1stESt8equal_toIS5_ESt4hashIS5_ENSC_18_Mod_range_hashingENSC_20_Default_ranged_hashENSC_20_Prime_rehash_policyENSC_17_Hashtable_traitsILb1ELb0ELb1EEEE21_M_deallocate_bucketsEPPNSC_15_Hash_node_baseEm>:
  40eca4:	55                   	push   %rbp
  40eca5:	48 89 e5             	mov    %rsp,%rbp
  40eca8:	48 83 ec 20          	sub    $0x20,%rsp
  40ecac:	48 89 7d f8          	mov    %rdi,-0x8(%rbp)
  40ecb0:	48 89 75 f0          	mov    %rsi,-0x10(%rbp)
  40ecb4:	48 89 55 e8          	mov    %rdx,-0x18(%rbp)
  40ecb8:	48 8b 55 f0          	mov    -0x10(%rbp),%rdx
  40ecbc:	48 8b 45 f8          	mov    -0x8(%rbp),%rax
  40ecc0:	48 89 d6             	mov    %rdx,%rsi
  40ecc3:	48 89 c7             	mov    %rax,%rdi
  40ecc6:	e8 cb 06 00 00       	callq  40f396 <_ZNKSt10_HashtableINSt7__cxx1112basic_stringIcSt11char_traitsIcESaIcEEESt4pairIKS5_N2cl7NDRangeEESaISA_ENSt8__detail10_Select1stESt8equal_toIS5_ESt4hashIS5_ENSC_18_Mod_range_hashingENSC_20_Default_ranged_hashENSC_20_Prime_rehash_policyENSC_17_Hashtable_traitsILb1ELb0ELb1EEEE21_M_uses_single_bucketEPPNSC_15_Hash_node_baseE>
  40eccb:	84 c0                	test   %al,%al
  40eccd:	75 19                	jne    40ece8 <_ZNSt10_HashtableINSt7__cxx1112basic_stringIcSt11char_traitsIcESaIcEEESt4pairIKS5_N2cl7NDRangeEESaISA_ENSt8__detail10_Select1stESt8equal_toIS5_ESt4hashIS5_ENSC_18_Mod_range_hashingENSC_20_Default_ranged_hashENSC_20_Prime_rehash_policyENSC_17_Hashtable_traitsILb1ELb0ELb1EEEE21_M_deallocate_bucketsEPPNSC_15_Hash_node_baseEm+0x44>
  40eccf:	48 8b 55 e8          	mov    -0x18(%rbp),%rdx
  40ecd3:	48 8b 4d f0          	mov    -0x10(%rbp),%rcx
  40ecd7:	48 8b 45 f8          	mov    -0x8(%rbp),%rax
  40ecdb:	48 89 ce             	mov    %rcx,%rsi
  40ecde:	48 89 c7             	mov    %rax,%rdi
  40ece1:	e8 d6 06 00 00       	callq  40f3bc <_ZNSt8__detail16_Hashtable_allocISaINS_10_Hash_nodeISt4pairIKNSt7__cxx1112basic_stringIcSt11char_traitsIcESaIcEEEN2cl7NDRangeEELb1EEEEE21_M_deallocate_bucketsEPPNS_15_Hash_node_baseEm>
  40ece6:	eb 01                	jmp    40ece9 <_ZNSt10_HashtableINSt7__cxx1112basic_stringIcSt11char_traitsIcESaIcEEESt4pairIKS5_N2cl7NDRangeEESaISA_ENSt8__detail10_Select1stESt8equal_toIS5_ESt4hashIS5_ENSC_18_Mod_range_hashingENSC_20_Default_ranged_hashENSC_20_Prime_rehash_policyENSC_17_Hashtable_traitsILb1ELb0ELb1EEEE21_M_deallocate_bucketsEPPNSC_15_Hash_node_baseEm+0x45>
  40ece8:	90                   	nop
  40ece9:	c9                   	leaveq 
  40ecea:	c3                   	retq   
  40eceb:	90                   	nop

000000000040ecec <_ZNKSt8__detail15_Hash_code_baseINSt7__cxx1112basic_stringIcSt11char_traitsIcESaIcEEESt4pairIKS6_N2cl7NDRangeEENS_10_Select1stESt4hashIS6_ENS_18_Mod_range_hashingENS_20_Default_ranged_hashELb1EE12_M_hash_codeERS8_>:
  40ecec:	55                   	push   %rbp
  40eced:	48 89 e5             	mov    %rsp,%rbp
  40ecf0:	48 83 ec 10          	sub    $0x10,%rsp
  40ecf4:	48 89 7d f8          	mov    %rdi,-0x8(%rbp)
  40ecf8:	48 89 75 f0          	mov    %rsi,-0x10(%rbp)
  40ecfc:	48 8b 45 f8          	mov    -0x8(%rbp),%rax
  40ed00:	48 89 c7             	mov    %rax,%rdi
  40ed03:	e8 62 07 00 00       	callq  40f46a <_ZNKSt8__detail15_Hash_code_baseINSt7__cxx1112basic_stringIcSt11char_traitsIcESaIcEEESt4pairIKS6_N2cl7NDRangeEENS_10_Select1stESt4hashIS6_ENS_18_Mod_range_hashingENS_20_Default_ranged_hashELb1EE5_M_h1Ev>
  40ed08:	48 89 c2             	mov    %rax,%rdx
  40ed0b:	48 8b 45 f0          	mov    -0x10(%rbp),%rax
  40ed0f:	48 89 c6             	mov    %rax,%rsi
  40ed12:	48 89 d7             	mov    %rdx,%rdi
  40ed15:	e8 66 e5 ff ff       	callq  40d280 <_ZNKSt4hashINSt7__cxx1112basic_stringIcSt11char_traitsIcESaIcEEEEclERKS5_>
  40ed1a:	c9                   	leaveq 
  40ed1b:	c3                   	retq   

000000000040ed1c <_ZNKSt10_HashtableINSt7__cxx1112basic_stringIcSt11char_traitsIcESaIcEEESt4pairIKS5_N2cl7NDRangeEESaISA_ENSt8__detail10_Select1stESt8equal_toIS5_ESt4hashIS5_ENSC_18_Mod_range_hashingENSC_20_Default_ranged_hashENSC_20_Prime_rehash_policyENSC_17_Hashtable_traitsILb1ELb0ELb1EEEE15_M_bucket_indexERS7_m>:
  40ed1c:	55                   	push   %rbp
  40ed1d:	48 89 e5             	mov    %rsp,%rbp
  40ed20:	48 83 ec 20          	sub    $0x20,%rsp
  40ed24:	48 89 7d f8          	mov    %rdi,-0x8(%rbp)
  40ed28:	48 89 75 f0          	mov    %rsi,-0x10(%rbp)
  40ed2c:	48 89 55 e8          	mov    %rdx,-0x18(%rbp)
  40ed30:	48 8b 45 f8          	mov    -0x8(%rbp),%rax
  40ed34:	48 8b 48 08          	mov    0x8(%rax),%rcx
  40ed38:	48 8b 55 e8          	mov    -0x18(%rbp),%rdx
  40ed3c:	48 8b 75 f0          	mov    -0x10(%rbp),%rsi
  40ed40:	48 8b 45 f8          	mov    -0x8(%rbp),%rax
  40ed44:	48 89 c7             	mov    %rax,%rdi
  40ed47:	e8 38 07 00 00       	callq  40f484 <_ZNKSt8__detail15_Hash_code_baseINSt7__cxx1112basic_stringIcSt11char_traitsIcESaIcEEESt4pairIKS6_N2cl7NDRangeEENS_10_Select1stESt4hashIS6_ENS_18_Mod_range_hashingENS_20_Default_ranged_hashELb1EE15_M_bucket_indexERS8_mm>
  40ed4c:	c9                   	leaveq 
  40ed4d:	c3                   	retq   

000000000040ed4e <_ZNKSt10_HashtableINSt7__cxx1112basic_stringIcSt11char_traitsIcESaIcEEESt4pairIKS5_N2cl7NDRangeEESaISA_ENSt8__detail10_Select1stESt8equal_toIS5_ESt4hashIS5_ENSC_18_Mod_range_hashingENSC_20_Default_ranged_hashENSC_20_Prime_rehash_policyENSC_17_Hashtable_traitsILb1ELb0ELb1EEEE12_M_find_nodeEmRS7_m>:
  40ed4e:	55                   	push   %rbp
  40ed4f:	48 89 e5             	mov    %rsp,%rbp
  40ed52:	48 83 ec 30          	sub    $0x30,%rsp
  40ed56:	48 89 7d e8          	mov    %rdi,-0x18(%rbp)
  40ed5a:	48 89 75 e0          	mov    %rsi,-0x20(%rbp)
  40ed5e:	48 89 55 d8          	mov    %rdx,-0x28(%rbp)
  40ed62:	48 89 4d d0          	mov    %rcx,-0x30(%rbp)
  40ed66:	48 8b 4d d0          	mov    -0x30(%rbp),%rcx
  40ed6a:	48 8b 55 d8          	mov    -0x28(%rbp),%rdx
  40ed6e:	48 8b 75 e0          	mov    -0x20(%rbp),%rsi
  40ed72:	48 8b 45 e8          	mov    -0x18(%rbp),%rax
  40ed76:	48 89 c7             	mov    %rax,%rdi
  40ed79:	e8 42 07 00 00       	callq  40f4c0 <_ZNKSt10_HashtableINSt7__cxx1112basic_stringIcSt11char_traitsIcESaIcEEESt4pairIKS5_N2cl7NDRangeEESaISA_ENSt8__detail10_Select1stESt8equal_toIS5_ESt4hashIS5_ENSC_18_Mod_range_hashingENSC_20_Default_ranged_hashENSC_20_Prime_rehash_policyENSC_17_Hashtable_traitsILb1ELb0ELb1EEEE19_M_find_before_nodeEmRS7_m>
  40ed7e:	48 89 45 f8          	mov    %rax,-0x8(%rbp)
  40ed82:	48 83 7d f8 00       	cmpq   $0x0,-0x8(%rbp)
  40ed87:	74 09                	je     40ed92 <_ZNKSt10_HashtableINSt7__cxx1112basic_stringIcSt11char_traitsIcESaIcEEESt4pairIKS5_N2cl7NDRangeEESaISA_ENSt8__detail10_Select1stESt8equal_toIS5_ESt4hashIS5_ENSC_18_Mod_range_hashingENSC_20_Default_ranged_hashENSC_20_Prime_rehash_policyENSC_17_Hashtable_traitsILb1ELb0ELb1EEEE12_M_find_nodeEmRS7_m+0x44>
  40ed89:	48 8b 45 f8          	mov    -0x8(%rbp),%rax
  40ed8d:	48 8b 00             	mov    (%rax),%rax
  40ed90:	eb 05                	jmp    40ed97 <_ZNKSt10_HashtableINSt7__cxx1112basic_stringIcSt11char_traitsIcESaIcEEESt4pairIKS5_N2cl7NDRangeEESaISA_ENSt8__detail10_Select1stESt8equal_toIS5_ESt4hashIS5_ENSC_18_Mod_range_hashingENSC_20_Default_ranged_hashENSC_20_Prime_rehash_policyENSC_17_Hashtable_traitsILb1ELb0ELb1EEEE12_M_find_nodeEmRS7_m+0x49>
  40ed92:	b8 00 00 00 00       	mov    $0x0,%eax
  40ed97:	c9                   	leaveq 
  40ed98:	c3                   	retq   
  40ed99:	90                   	nop

000000000040ed9a <_ZNSt8__detail14_Node_iteratorISt4pairIKNSt7__cxx1112basic_stringIcSt11char_traitsIcESaIcEEEN2cl7NDRangeEELb0ELb1EEC1EPNS_10_Hash_nodeISB_Lb1EEE>:
  40ed9a:	55                   	push   %rbp
  40ed9b:	48 89 e5             	mov    %rsp,%rbp
  40ed9e:	48 83 ec 10          	sub    $0x10,%rsp
  40eda2:	48 89 7d f8          	mov    %rdi,-0x8(%rbp)
  40eda6:	48 89 75 f0          	mov    %rsi,-0x10(%rbp)
  40edaa:	48 8b 45 f8          	mov    -0x8(%rbp),%rax
  40edae:	48 8b 55 f0          	mov    -0x10(%rbp),%rdx
  40edb2:	48 89 d6             	mov    %rdx,%rsi
  40edb5:	48 89 c7             	mov    %rax,%rdi
  40edb8:	e8 d5 07 00 00       	callq  40f592 <_ZNSt8__detail19_Node_iterator_baseISt4pairIKNSt7__cxx1112basic_stringIcSt11char_traitsIcESaIcEEEN2cl7NDRangeEELb1EEC1EPNS_10_Hash_nodeISB_Lb1EEE>
  40edbd:	90                   	nop
  40edbe:	c9                   	leaveq 
  40edbf:	c3                   	retq   

000000000040edc0 <_ZSt7forwardIRSt4pairIKNSt7__cxx1112basic_stringIcSt11char_traitsIcESaIcEEEN2cl7NDRangeEEEOT_RNSt16remove_referenceISC_E4typeE>:
  40edc0:	55                   	push   %rbp
  40edc1:	48 89 e5             	mov    %rsp,%rbp
  40edc4:	48 89 7d f8          	mov    %rdi,-0x8(%rbp)
  40edc8:	48 8b 45 f8          	mov    -0x8(%rbp),%rax
  40edcc:	5d                   	pop    %rbp
  40edcd:	c3                   	retq   

000000000040edce <_ZSt7forwardINSt8__detail14_Node_iteratorISt4pairIKNSt7__cxx1112basic_stringIcSt11char_traitsIcESaIcEEEN2cl7NDRangeEELb0ELb1EEEEOT_RNSt16remove_referenceISE_E4typeE>:
  40edce:	55                   	push   %rbp
  40edcf:	48 89 e5             	mov    %rsp,%rbp
  40edd2:	48 89 7d f8          	mov    %rdi,-0x8(%rbp)
  40edd6:	48 8b 45 f8          	mov    -0x8(%rbp),%rax
  40edda:	5d                   	pop    %rbp
  40eddb:	c3                   	retq   

000000000040eddc <_ZNSt4pairINSt8__detail14_Node_iteratorIS_IKNSt7__cxx1112basic_stringIcSt11char_traitsIcESaIcEEEN2cl7NDRangeEELb0ELb1EEEbEC1ISC_bLb1EEEOT_OT0_>:
  40eddc:	55                   	push   %rbp
  40eddd:	48 89 e5             	mov    %rsp,%rbp
  40ede0:	48 83 ec 20          	sub    $0x20,%rsp
  40ede4:	48 89 7d f8          	mov    %rdi,-0x8(%rbp)
  40ede8:	48 89 75 f0          	mov    %rsi,-0x10(%rbp)
  40edec:	48 89 55 e8          	mov    %rdx,-0x18(%rbp)
  40edf0:	48 8b 45 f0          	mov    -0x10(%rbp),%rax
  40edf4:	48 89 c7             	mov    %rax,%rdi
  40edf7:	e8 d2 ff ff ff       	callq  40edce <_ZSt7forwardINSt8__detail14_Node_iteratorISt4pairIKNSt7__cxx1112basic_stringIcSt11char_traitsIcESaIcEEEN2cl7NDRangeEELb0ELb1EEEEOT_RNSt16remove_referenceISE_E4typeE>
  40edfc:	48 89 c2             	mov    %rax,%rdx
  40edff:	48 8b 45 f8          	mov    -0x8(%rbp),%rax
  40ee03:	48 8b 12             	mov    (%rdx),%rdx
  40ee06:	48 89 10             	mov    %rdx,(%rax)
  40ee09:	48 8b 45 e8          	mov    -0x18(%rbp),%rax
  40ee0d:	48 89 c7             	mov    %rax,%rdi
  40ee10:	e8 44 e5 ff ff       	callq  40d359 <_ZSt7forwardIbEOT_RNSt16remove_referenceIS0_E4typeE>
  40ee15:	0f b6 10             	movzbl (%rax),%edx
  40ee18:	48 8b 45 f8          	mov    -0x8(%rbp),%rax
  40ee1c:	88 50 08             	mov    %dl,0x8(%rax)
  40ee1f:	90                   	nop
  40ee20:	c9                   	leaveq 
  40ee21:	c3                   	retq   

000000000040ee22 <_ZSt9make_pairINSt8__detail14_Node_iteratorISt4pairIKNSt7__cxx1112basic_stringIcSt11char_traitsIcESaIcEEEN2cl7NDRangeEELb0ELb1EEEbES2_INSt17__decay_and_stripIT_E6__typeENSE_IT0_E6__typeEEOSF_OSI_>:
  40ee22:	55                   	push   %rbp
  40ee23:	48 89 e5             	mov    %rsp,%rbp
  40ee26:	53                   	push   %rbx
  40ee27:	48 83 ec 38          	sub    $0x38,%rsp
  40ee2b:	48 89 7d c8          	mov    %rdi,-0x38(%rbp)
  40ee2f:	48 89 75 c0          	mov    %rsi,-0x40(%rbp)
  40ee33:	64 48 8b 04 25 28 00 	mov    %fs:0x28,%rax
  40ee3a:	00 00 
  40ee3c:	48 89 45 e8          	mov    %rax,-0x18(%rbp)
  40ee40:	31 c0                	xor    %eax,%eax
  40ee42:	48 8b 45 c0          	mov    -0x40(%rbp),%rax
  40ee46:	48 89 c7             	mov    %rax,%rdi
  40ee49:	e8 0b e5 ff ff       	callq  40d359 <_ZSt7forwardIbEOT_RNSt16remove_referenceIS0_E4typeE>
  40ee4e:	48 89 c3             	mov    %rax,%rbx
  40ee51:	48 8b 45 c8          	mov    -0x38(%rbp),%rax
  40ee55:	48 89 c7             	mov    %rax,%rdi
  40ee58:	e8 71 ff ff ff       	callq  40edce <_ZSt7forwardINSt8__detail14_Node_iteratorISt4pairIKNSt7__cxx1112basic_stringIcSt11char_traitsIcESaIcEEEN2cl7NDRangeEELb0ELb1EEEEOT_RNSt16remove_referenceISE_E4typeE>
  40ee5d:	48 89 c1             	mov    %rax,%rcx
  40ee60:	48 8d 45 d0          	lea    -0x30(%rbp),%rax
  40ee64:	48 89 da             	mov    %rbx,%rdx
  40ee67:	48 89 ce             	mov    %rcx,%rsi
  40ee6a:	48 89 c7             	mov    %rax,%rdi
  40ee6d:	e8 6a ff ff ff       	callq  40eddc <_ZNSt4pairINSt8__detail14_Node_iteratorIS_IKNSt7__cxx1112basic_stringIcSt11char_traitsIcESaIcEEEN2cl7NDRangeEELb0ELb1EEEbEC1ISC_bLb1EEEOT_OT0_>
  40ee72:	48 8b 45 d0          	mov    -0x30(%rbp),%rax
  40ee76:	48 8b 55 d8          	mov    -0x28(%rbp),%rdx
  40ee7a:	48 8b 4d e8          	mov    -0x18(%rbp),%rcx
  40ee7e:	64 48 33 0c 25 28 00 	xor    %fs:0x28,%rcx
  40ee85:	00 00 
  40ee87:	74 05                	je     40ee8e <_ZSt9make_pairINSt8__detail14_Node_iteratorISt4pairIKNSt7__cxx1112basic_stringIcSt11char_traitsIcESaIcEEEN2cl7NDRangeEELb0ELb1EEEbES2_INSt17__decay_and_stripIT_E6__typeENSE_IT0_E6__typeEEOSF_OSI_+0x6c>
  40ee89:	e8 a2 50 ff ff       	callq  403f30 <__stack_chk_fail@plt>
  40ee8e:	48 83 c4 38          	add    $0x38,%rsp
  40ee92:	5b                   	pop    %rbx
  40ee93:	5d                   	pop    %rbp
  40ee94:	c3                   	retq   
  40ee95:	90                   	nop

000000000040ee96 <_ZNSt10_HashtableINSt7__cxx1112basic_stringIcSt11char_traitsIcESaIcEEESt4pairIKS5_N2cl7NDRangeEESaISA_ENSt8__detail10_Select1stESt8equal_toIS5_ESt4hashIS5_ENSC_18_Mod_range_hashingENSC_20_Default_ranged_hashENSC_20_Prime_rehash_policyENSC_17_Hashtable_traitsILb1ELb0ELb1EEEE10_M_emplaceIJRS7_RS9_EEES6_INSC_14_Node_iteratorISA_Lb0ELb1EEEbESt17integral_constantIbLb1EEDpOT_>:
  40ee96:	55                   	push   %rbp
  40ee97:	48 89 e5             	mov    %rsp,%rbp
  40ee9a:	53                   	push   %rbx
  40ee9b:	48 83 ec 68          	sub    $0x68,%rsp
  40ee9f:	48 89 7d a8          	mov    %rdi,-0x58(%rbp)
  40eea3:	48 89 75 a0          	mov    %rsi,-0x60(%rbp)
  40eea7:	48 89 55 98          	mov    %rdx,-0x68(%rbp)
  40eeab:	64 48 8b 04 25 28 00 	mov    %fs:0x28,%rax
  40eeb2:	00 00 
  40eeb4:	48 89 45 e8          	mov    %rax,-0x18(%rbp)
  40eeb8:	31 c0                	xor    %eax,%eax
  40eeba:	48 8b 45 98          	mov    -0x68(%rbp),%rax
  40eebe:	48 89 c7             	mov    %rax,%rdi
  40eec1:	e8 6a ed ff ff       	callq  40dc30 <_ZSt7forwardIRN2cl7NDRangeEEOT_RNSt16remove_referenceIS3_E4typeE>
  40eec6:	48 89 c3             	mov    %rax,%rbx
  40eec9:	48 8b 45 a0          	mov    -0x60(%rbp),%rax
  40eecd:	48 89 c7             	mov    %rax,%rdi
  40eed0:	e8 4d ed ff ff       	callq  40dc22 <_ZSt7forwardIRKNSt7__cxx1112basic_stringIcSt11char_traitsIcESaIcEEEEOT_RNSt16remove_referenceIS8_E4typeE>
  40eed5:	48 89 c1             	mov    %rax,%rcx
  40eed8:	48 8b 45 a8          	mov    -0x58(%rbp),%rax
  40eedc:	48 89 da             	mov    %rbx,%rdx
  40eedf:	48 89 ce             	mov    %rcx,%rsi
  40eee2:	48 89 c7             	mov    %rax,%rdi
  40eee5:	e8 c2 06 00 00       	callq  40f5ac <_ZNSt8__detail16_Hashtable_allocISaINS_10_Hash_nodeISt4pairIKNSt7__cxx1112basic_stringIcSt11char_traitsIcESaIcEEEN2cl7NDRangeEELb1EEEEE16_M_allocate_nodeIJRS9_RSB_EEEPSD_DpOT_>
  40eeea:	48 89 45 c0          	mov    %rax,-0x40(%rbp)
  40eeee:	48 8b 45 c0          	mov    -0x40(%rbp),%rax
  40eef2:	48 89 c7             	mov    %rax,%rdi
  40eef5:	e8 22 08 00 00       	callq  40f71c <_ZNSt8__detail21_Hash_node_value_baseISt4pairIKNSt7__cxx1112basic_stringIcSt11char_traitsIcESaIcEEEN2cl7NDRangeEEE4_M_vEv>
  40eefa:	48 89 c3             	mov    %rax,%rbx
  40eefd:	48 8b 45 a8          	mov    -0x58(%rbp),%rax
  40ef01:	48 89 c7             	mov    %rax,%rdi
  40ef04:	e8 f9 07 00 00       	callq  40f702 <_ZNSt8__detail15_Hash_code_baseINSt7__cxx1112basic_stringIcSt11char_traitsIcESaIcEEESt4pairIKS6_N2cl7NDRangeEENS_10_Select1stESt4hashIS6_ENS_18_Mod_range_hashingENS_20_Default_ranged_hashELb1EE10_M_extractEv>
  40ef09:	48 89 de             	mov    %rbx,%rsi
  40ef0c:	48 89 c7             	mov    %rax,%rdi
  40ef0f:	e8 4a 08 00 00       	callq  40f75e <_ZNKSt8__detail10_Select1stclIRSt4pairIKNSt7__cxx1112basic_stringIcSt11char_traitsIcESaIcEEEN2cl7NDRangeEEEEDTcl3getILi0EEcl7forwardIT_Efp_EEEOSE_>
  40ef14:	48 89 45 c8          	mov    %rax,-0x38(%rbp)
  40ef18:	48 8b 55 c8          	mov    -0x38(%rbp),%rdx
  40ef1c:	48 8b 45 a8          	mov    -0x58(%rbp),%rax
  40ef20:	48 89 d6             	mov    %rdx,%rsi
  40ef23:	48 89 c7             	mov    %rax,%rdi
  40ef26:	e8 c1 fd ff ff       	callq  40ecec <_ZNKSt8__detail15_Hash_code_baseINSt7__cxx1112basic_stringIcSt11char_traitsIcESaIcEEESt4pairIKS6_N2cl7NDRangeEENS_10_Select1stESt4hashIS6_ENS_18_Mod_range_hashingENS_20_Default_ranged_hashELb1EE12_M_hash_codeERS8_>
  40ef2b:	48 89 45 d0          	mov    %rax,-0x30(%rbp)
  40ef2f:	48 8b 55 d0          	mov    -0x30(%rbp),%rdx
  40ef33:	48 8b 4d c8          	mov    -0x38(%rbp),%rcx
  40ef37:	48 8b 45 a8          	mov    -0x58(%rbp),%rax
  40ef3b:	48 89 ce             	mov    %rcx,%rsi
  40ef3e:	48 89 c7             	mov    %rax,%rdi
  40ef41:	e8 d6 fd ff ff       	callq  40ed1c <_ZNKSt10_HashtableINSt7__cxx1112basic_stringIcSt11char_traitsIcESaIcEEESt4pairIKS5_N2cl7NDRangeEESaISA_ENSt8__detail10_Select1stESt8equal_toIS5_ESt4hashIS5_ENSC_18_Mod_range_hashingENSC_20_Default_ranged_hashENSC_20_Prime_rehash_policyENSC_17_Hashtable_traitsILb1ELb0ELb1EEEE15_M_bucket_indexERS7_m>
  40ef46:	48 89 45 d8          	mov    %rax,-0x28(%rbp)
  40ef4a:	48 8b 4d d0          	mov    -0x30(%rbp),%rcx
  40ef4e:	48 8b 55 c8          	mov    -0x38(%rbp),%rdx
  40ef52:	48 8b 75 d8          	mov    -0x28(%rbp),%rsi
  40ef56:	48 8b 45 a8          	mov    -0x58(%rbp),%rax
  40ef5a:	48 89 c7             	mov    %rax,%rdi
  40ef5d:	e8 ec fd ff ff       	callq  40ed4e <_ZNKSt10_HashtableINSt7__cxx1112basic_stringIcSt11char_traitsIcESaIcEEESt4pairIKS5_N2cl7NDRangeEESaISA_ENSt8__detail10_Select1stESt8equal_toIS5_ESt4hashIS5_ENSC_18_Mod_range_hashingENSC_20_Default_ranged_hashENSC_20_Prime_rehash_policyENSC_17_Hashtable_traitsILb1ELb0ELb1EEEE12_M_find_nodeEmRS7_m>
  40ef62:	48 89 45 e0          	mov    %rax,-0x20(%rbp)
  40ef66:	48 83 7d e0 00       	cmpq   $0x0,-0x20(%rbp)
  40ef6b:	74 3f                	je     40efac <_ZNSt10_HashtableINSt7__cxx1112basic_stringIcSt11char_traitsIcESaIcEEESt4pairIKS5_N2cl7NDRangeEESaISA_ENSt8__detail10_Select1stESt8equal_toIS5_ESt4hashIS5_ENSC_18_Mod_range_hashingENSC_20_Default_ranged_hashENSC_20_Prime_rehash_policyENSC_17_Hashtable_traitsILb1ELb0ELb1EEEE10_M_emplaceIJRS7_RS9_EEES6_INSC_14_Node_iteratorISA_Lb0ELb1EEEbESt17integral_constantIbLb1EEDpOT_+0x116>
  40ef6d:	48 8b 55 c0          	mov    -0x40(%rbp),%rdx
  40ef71:	48 8b 45 a8          	mov    -0x58(%rbp),%rax
  40ef75:	48 89 d6             	mov    %rdx,%rsi
  40ef78:	48 89 c7             	mov    %rax,%rdi
  40ef7b:	e8 f8 00 00 00       	callq  40f078 <_ZNSt8__detail16_Hashtable_allocISaINS_10_Hash_nodeISt4pairIKNSt7__cxx1112basic_stringIcSt11char_traitsIcESaIcEEEN2cl7NDRangeEELb1EEEEE18_M_deallocate_nodeEPSD_>
  40ef80:	c6 45 b7 00          	movb   $0x0,-0x49(%rbp)
  40ef84:	48 8b 55 e0          	mov    -0x20(%rbp),%rdx
  40ef88:	48 8d 45 b8          	lea    -0x48(%rbp),%rax
  40ef8c:	48 89 d6             	mov    %rdx,%rsi
  40ef8f:	48 89 c7             	mov    %rax,%rdi
  40ef92:	e8 03 fe ff ff       	callq  40ed9a <_ZNSt8__detail14_Node_iteratorISt4pairIKNSt7__cxx1112basic_stringIcSt11char_traitsIcESaIcEEEN2cl7NDRangeEELb0ELb1EEC1EPNS_10_Hash_nodeISB_Lb1EEE>
  40ef97:	48 8d 55 b7          	lea    -0x49(%rbp),%rdx
  40ef9b:	48 8d 45 b8          	lea    -0x48(%rbp),%rax
  40ef9f:	48 89 d6             	mov    %rdx,%rsi
  40efa2:	48 89 c7             	mov    %rax,%rdi
  40efa5:	e8 78 fe ff ff       	callq  40ee22 <_ZSt9make_pairINSt8__detail14_Node_iteratorISt4pairIKNSt7__cxx1112basic_stringIcSt11char_traitsIcESaIcEEEN2cl7NDRangeEELb0ELb1EEEbES2_INSt17__decay_and_stripIT_E6__typeENSE_IT0_E6__typeEEOSF_OSI_>
  40efaa:	eb 33                	jmp    40efdf <_ZNSt10_HashtableINSt7__cxx1112basic_stringIcSt11char_traitsIcESaIcEEESt4pairIKS5_N2cl7NDRangeEESaISA_ENSt8__detail10_Select1stESt8equal_toIS5_ESt4hashIS5_ENSC_18_Mod_range_hashingENSC_20_Default_ranged_hashENSC_20_Prime_rehash_policyENSC_17_Hashtable_traitsILb1ELb0ELb1EEEE10_M_emplaceIJRS7_RS9_EEES6_INSC_14_Node_iteratorISA_Lb0ELb1EEEbESt17integral_constantIbLb1EEDpOT_+0x149>
  40efac:	c6 45 b7 01          	movb   $0x1,-0x49(%rbp)
  40efb0:	48 8b 4d c0          	mov    -0x40(%rbp),%rcx
  40efb4:	48 8b 55 d0          	mov    -0x30(%rbp),%rdx
  40efb8:	48 8b 75 d8          	mov    -0x28(%rbp),%rsi
  40efbc:	48 8b 45 a8          	mov    -0x58(%rbp),%rax
  40efc0:	48 89 c7             	mov    %rax,%rdi
  40efc3:	e8 bc 07 00 00       	callq  40f784 <_ZNSt10_HashtableINSt7__cxx1112basic_stringIcSt11char_traitsIcESaIcEEESt4pairIKS5_N2cl7NDRangeEESaISA_ENSt8__detail10_Select1stESt8equal_toIS5_ESt4hashIS5_ENSC_18_Mod_range_hashingENSC_20_Default_ranged_hashENSC_20_Prime_rehash_policyENSC_17_Hashtable_traitsILb1ELb0ELb1EEEE21_M_insert_unique_nodeEmmPNSC_10_Hash_nodeISA_Lb1EEE>
  40efc8:	48 89 45 b8          	mov    %rax,-0x48(%rbp)
  40efcc:	48 8d 55 b7          	lea    -0x49(%rbp),%rdx
  40efd0:	48 8d 45 b8          	lea    -0x48(%rbp),%rax
  40efd4:	48 89 d6             	mov    %rdx,%rsi
  40efd7:	48 89 c7             	mov    %rax,%rdi
  40efda:	e8 43 fe ff ff       	callq  40ee22 <_ZSt9make_pairINSt8__detail14_Node_iteratorISt4pairIKNSt7__cxx1112basic_stringIcSt11char_traitsIcESaIcEEEN2cl7NDRangeEELb0ELb1EEEbES2_INSt17__decay_and_stripIT_E6__typeENSE_IT0_E6__typeEEOSF_OSI_>
  40efdf:	48 8b 5d e8          	mov    -0x18(%rbp),%rbx
  40efe3:	64 48 33 1c 25 28 00 	xor    %fs:0x28,%rbx
  40efea:	00 00 
  40efec:	74 3a                	je     40f028 <_ZNSt10_HashtableINSt7__cxx1112basic_stringIcSt11char_traitsIcESaIcEEESt4pairIKS5_N2cl7NDRangeEESaISA_ENSt8__detail10_Select1stESt8equal_toIS5_ESt4hashIS5_ENSC_18_Mod_range_hashingENSC_20_Default_ranged_hashENSC_20_Prime_rehash_policyENSC_17_Hashtable_traitsILb1ELb0ELb1EEEE10_M_emplaceIJRS7_RS9_EEES6_INSC_14_Node_iteratorISA_Lb0ELb1EEEbESt17integral_constantIbLb1EEDpOT_+0x192>
  40efee:	eb 33                	jmp    40f023 <_ZNSt10_HashtableINSt7__cxx1112basic_stringIcSt11char_traitsIcESaIcEEESt4pairIKS5_N2cl7NDRangeEESaISA_ENSt8__detail10_Select1stESt8equal_toIS5_ESt4hashIS5_ENSC_18_Mod_range_hashingENSC_20_Default_ranged_hashENSC_20_Prime_rehash_policyENSC_17_Hashtable_traitsILb1ELb0ELb1EEEE10_M_emplaceIJRS7_RS9_EEES6_INSC_14_Node_iteratorISA_Lb0ELb1EEEbESt17integral_constantIbLb1EEDpOT_+0x18d>
  40eff0:	48 89 c7             	mov    %rax,%rdi
  40eff3:	e8 c8 4d ff ff       	callq  403dc0 <__cxa_begin_catch@plt>
  40eff8:	48 8b 55 c0          	mov    -0x40(%rbp),%rdx
  40effc:	48 8b 45 a8          	mov    -0x58(%rbp),%rax
  40f000:	48 89 d6             	mov    %rdx,%rsi
  40f003:	48 89 c7             	mov    %rax,%rdi
  40f006:	e8 6d 00 00 00       	callq  40f078 <_ZNSt8__detail16_Hashtable_allocISaINS_10_Hash_nodeISt4pairIKNSt7__cxx1112basic_stringIcSt11char_traitsIcESaIcEEEN2cl7NDRangeEELb1EEEEE18_M_deallocate_nodeEPSD_>
  40f00b:	e8 60 50 ff ff       	callq  404070 <__cxa_rethrow@plt>
  40f010:	48 89 c3             	mov    %rax,%rbx
  40f013:	e8 f8 50 ff ff       	callq  404110 <__cxa_end_catch@plt>
  40f018:	48 89 d8             	mov    %rbx,%rax
  40f01b:	48 89 c7             	mov    %rax,%rdi
  40f01e:	e8 6d 51 ff ff       	callq  404190 <_Unwind_Resume@plt>
  40f023:	e8 08 4f ff ff       	callq  403f30 <__stack_chk_fail@plt>
  40f028:	48 83 c4 68          	add    $0x68,%rsp
  40f02c:	5b                   	pop    %rbx
  40f02d:	5d                   	pop    %rbp
  40f02e:	c3                   	retq   
  40f02f:	90                   	nop

000000000040f030 <_ZN9__gnu_cxx16__aligned_bufferISt4pairIKNSt7__cxx1112basic_stringIcSt11char_traitsIcESaIcEEEN2cl7NDRangeEEE6_M_ptrEv>:
  40f030:	55                   	push   %rbp
  40f031:	48 89 e5             	mov    %rsp,%rbp
  40f034:	48 83 ec 10          	sub    $0x10,%rsp
  40f038:	48 89 7d f8          	mov    %rdi,-0x8(%rbp)
  40f03c:	48 8b 45 f8          	mov    -0x8(%rbp),%rax
  40f040:	48 89 c7             	mov    %rax,%rdi
  40f043:	e8 ba 08 00 00       	callq  40f902 <_ZN9__gnu_cxx16__aligned_bufferISt4pairIKNSt7__cxx1112basic_stringIcSt11char_traitsIcESaIcEEEN2cl7NDRangeEEE7_M_addrEv>
  40f048:	c9                   	leaveq 
  40f049:	c3                   	retq   

000000000040f04a <_ZNSt8__detail21_Hashtable_ebo_helperILi0ESaINS_10_Hash_nodeISt4pairIKNSt7__cxx1112basic_stringIcSt11char_traitsIcESaIcEEEN2cl7NDRangeEELb1EEEELb1EE6_S_getERSF_>:
  40f04a:	55                   	push   %rbp
  40f04b:	48 89 e5             	mov    %rsp,%rbp
  40f04e:	48 89 7d f8          	mov    %rdi,-0x8(%rbp)
  40f052:	48 8b 45 f8          	mov    -0x8(%rbp),%rax
  40f056:	5d                   	pop    %rbp
  40f057:	c3                   	retq   

000000000040f058 <_ZNSt8__detail21_Hashtable_ebo_helperILi0ESaINS_10_Hash_nodeISt4pairIKNSt7__cxx1112basic_stringIcSt11char_traitsIcESaIcEEEN2cl7NDRangeEELb1EEEELb1EE7_S_cgetERKSF_>:
  40f058:	55                   	push   %rbp
  40f059:	48 89 e5             	mov    %rsp,%rbp
  40f05c:	48 89 7d f8          	mov    %rdi,-0x8(%rbp)
  40f060:	48 8b 45 f8          	mov    -0x8(%rbp),%rax
  40f064:	5d                   	pop    %rbp
  40f065:	c3                   	retq   

000000000040f066 <_ZNKSt8__detail10_Hash_nodeISt4pairIKNSt7__cxx1112basic_stringIcSt11char_traitsIcESaIcEEEN2cl7NDRangeEELb1EE7_M_nextEv>:
  40f066:	55                   	push   %rbp
  40f067:	48 89 e5             	mov    %rsp,%rbp
  40f06a:	48 89 7d f8          	mov    %rdi,-0x8(%rbp)
  40f06e:	48 8b 45 f8          	mov    -0x8(%rbp),%rax
  40f072:	48 8b 00             	mov    (%rax),%rax
  40f075:	5d                   	pop    %rbp
  40f076:	c3                   	retq   
  40f077:	90                   	nop

000000000040f078 <_ZNSt8__detail16_Hashtable_allocISaINS_10_Hash_nodeISt4pairIKNSt7__cxx1112basic_stringIcSt11char_traitsIcESaIcEEEN2cl7NDRangeEELb1EEEEE18_M_deallocate_nodeEPSD_>:
  40f078:	55                   	push   %rbp
  40f079:	48 89 e5             	mov    %rsp,%rbp
  40f07c:	53                   	push   %rbx
  40f07d:	48 83 ec 38          	sub    $0x38,%rsp
  40f081:	48 89 7d c8          	mov    %rdi,-0x38(%rbp)
  40f085:	48 89 75 c0          	mov    %rsi,-0x40(%rbp)
  40f089:	64 48 8b 04 25 28 00 	mov    %fs:0x28,%rax
  40f090:	00 00 
  40f092:	48 89 45 e8          	mov    %rax,-0x18(%rbp)
  40f096:	31 c0                	xor    %eax,%eax
  40f098:	48 8b 45 c0          	mov    -0x40(%rbp),%rax
  40f09c:	48 89 c7             	mov    %rax,%rdi
  40f09f:	e8 6c 08 00 00       	callq  40f910 <_ZNSt14pointer_traitsIPNSt8__detail10_Hash_nodeISt4pairIKNSt7__cxx1112basic_stringIcSt11char_traitsIcESaIcEEEN2cl7NDRangeEELb1EEEE10pointer_toERSD_>
  40f0a4:	48 89 45 e0          	mov    %rax,-0x20(%rbp)
  40f0a8:	48 8b 45 c8          	mov    -0x38(%rbp),%rax
  40f0ac:	48 89 c7             	mov    %rax,%rdi
  40f0af:	e8 ea f2 ff ff       	callq  40e39e <_ZNSt8__detail16_Hashtable_allocISaINS_10_Hash_nodeISt4pairIKNSt7__cxx1112basic_stringIcSt11char_traitsIcESaIcEEEN2cl7NDRangeEELb1EEEEE17_M_node_allocatorEv>
  40f0b4:	48 89 c2             	mov    %rax,%rdx
  40f0b7:	48 8d 45 df          	lea    -0x21(%rbp),%rax
  40f0bb:	48 89 d6             	mov    %rdx,%rsi
  40f0be:	48 89 c7             	mov    %rax,%rdi
  40f0c1:	e8 ea 00 00 00       	callq  40f1b0 <_ZNSaISt4pairIKNSt7__cxx1112basic_stringIcSt11char_traitsIcESaIcEEEN2cl7NDRangeEEEC1INSt8__detail10_Hash_nodeIS9_Lb1EEEEERKSaIT_E>
  40f0c6:	48 8b 45 c0          	mov    -0x40(%rbp),%rax
  40f0ca:	48 89 c7             	mov    %rax,%rdi
  40f0cd:	e8 ae f2 ff ff       	callq  40e380 <_ZNSt8__detail21_Hash_node_value_baseISt4pairIKNSt7__cxx1112basic_stringIcSt11char_traitsIcESaIcEEEN2cl7NDRangeEEE9_M_valptrEv>
  40f0d2:	48 89 c2             	mov    %rax,%rdx
  40f0d5:	48 8d 45 df          	lea    -0x21(%rbp),%rax
  40f0d9:	48 89 d6             	mov    %rdx,%rsi
  40f0dc:	48 89 c7             	mov    %rax,%rdi
  40f0df:	e8 8c 02 00 00       	callq  40f370 <_ZNSt16allocator_traitsISaISt4pairIKNSt7__cxx1112basic_stringIcSt11char_traitsIcESaIcEEEN2cl7NDRangeEEEE7destroyISA_EEvRSB_PT_>
  40f0e4:	48 8b 45 c8          	mov    -0x38(%rbp),%rax
  40f0e8:	48 89 c7             	mov    %rax,%rdi
  40f0eb:	e8 ae f2 ff ff       	callq  40e39e <_ZNSt8__detail16_Hashtable_allocISaINS_10_Hash_nodeISt4pairIKNSt7__cxx1112basic_stringIcSt11char_traitsIcESaIcEEEN2cl7NDRangeEELb1EEEEE17_M_node_allocatorEv>
  40f0f0:	48 89 c1             	mov    %rax,%rcx
  40f0f3:	48 8b 45 e0          	mov    -0x20(%rbp),%rax
  40f0f7:	ba 01 00 00 00       	mov    $0x1,%edx
  40f0fc:	48 89 c6             	mov    %rax,%rsi
  40f0ff:	48 89 cf             	mov    %rcx,%rdi
  40f102:	e8 1d 01 00 00       	callq  40f224 <_ZNSt16allocator_traitsISaINSt8__detail10_Hash_nodeISt4pairIKNSt7__cxx1112basic_stringIcSt11char_traitsIcESaIcEEEN2cl7NDRangeEELb1EEEEE10deallocateERSE_PSD_m>
  40f107:	48 8d 45 df          	lea    -0x21(%rbp),%rax
  40f10b:	48 89 c7             	mov    %rax,%rdi
  40f10e:	e8 bd 00 00 00       	callq  40f1d0 <_ZNSaISt4pairIKNSt7__cxx1112basic_stringIcSt11char_traitsIcESaIcEEEN2cl7NDRangeEEED1Ev>
  40f113:	90                   	nop
  40f114:	48 8b 45 e8          	mov    -0x18(%rbp),%rax
  40f118:	64 48 33 04 25 28 00 	xor    %fs:0x28,%rax
  40f11f:	00 00 
  40f121:	74 21                	je     40f144 <_ZNSt8__detail16_Hashtable_allocISaINS_10_Hash_nodeISt4pairIKNSt7__cxx1112basic_stringIcSt11char_traitsIcESaIcEEEN2cl7NDRangeEELb1EEEEE18_M_deallocate_nodeEPSD_+0xcc>
  40f123:	eb 1a                	jmp    40f13f <_ZNSt8__detail16_Hashtable_allocISaINS_10_Hash_nodeISt4pairIKNSt7__cxx1112basic_stringIcSt11char_traitsIcESaIcEEEN2cl7NDRangeEELb1EEEEE18_M_deallocate_nodeEPSD_+0xc7>
  40f125:	48 89 c3             	mov    %rax,%rbx
  40f128:	48 8d 45 df          	lea    -0x21(%rbp),%rax
  40f12c:	48 89 c7             	mov    %rax,%rdi
  40f12f:	e8 9c 00 00 00       	callq  40f1d0 <_ZNSaISt4pairIKNSt7__cxx1112basic_stringIcSt11char_traitsIcESaIcEEEN2cl7NDRangeEEED1Ev>
  40f134:	48 89 d8             	mov    %rbx,%rax
  40f137:	48 89 c7             	mov    %rax,%rdi
  40f13a:	e8 51 50 ff ff       	callq  404190 <_Unwind_Resume@plt>
  40f13f:	e8 ec 4d ff ff       	callq  403f30 <__stack_chk_fail@plt>
  40f144:	48 83 c4 38          	add    $0x38,%rsp
  40f148:	5b                   	pop    %rbx
  40f149:	5d                   	pop    %rbp
  40f14a:	c3                   	retq   

000000000040f14b <_ZSt18__do_alloc_on_copyISaINSt8__detail10_Hash_nodeISt4pairIKNSt7__cxx1112basic_stringIcSt11char_traitsIcESaIcEEEN2cl7NDRangeEELb1EEEEEvRT_RKSF_St17integral_constantIbLb0EE>:
  40f14b:	55                   	push   %rbp
  40f14c:	48 89 e5             	mov    %rsp,%rbp
  40f14f:	48 89 7d f8          	mov    %rdi,-0x8(%rbp)
  40f153:	48 89 75 f0          	mov    %rsi,-0x10(%rbp)
  40f157:	90                   	nop
  40f158:	5d                   	pop    %rbp
  40f159:	c3                   	retq   

000000000040f15a <_ZNKSt8__detail21_Hash_node_value_baseISt4pairIKNSt7__cxx1112basic_stringIcSt11char_traitsIcESaIcEEEN2cl7NDRangeEEE9_M_valptrEv>:
  40f15a:	55                   	push   %rbp
  40f15b:	48 89 e5             	mov    %rsp,%rbp
  40f15e:	48 83 ec 10          	sub    $0x10,%rsp
  40f162:	48 89 7d f8          	mov    %rdi,-0x8(%rbp)
  40f166:	48 8b 45 f8          	mov    -0x8(%rbp),%rax
  40f16a:	48 83 c0 08          	add    $0x8,%rax
  40f16e:	48 89 c7             	mov    %rax,%rdi
  40f171:	e8 b4 07 00 00       	callq  40f92a <_ZNK9__gnu_cxx16__aligned_bufferISt4pairIKNSt7__cxx1112basic_stringIcSt11char_traitsIcESaIcEEEN2cl7NDRangeEEE6_M_ptrEv>
  40f176:	c9                   	leaveq 
  40f177:	c3                   	retq   

000000000040f178 <_ZNSt16allocator_traitsISaINSt8__detail10_Hash_nodeISt4pairIKNSt7__cxx1112basic_stringIcSt11char_traitsIcESaIcEEEN2cl7NDRangeEELb1EEEEE8allocateERSE_m>:
  40f178:	55                   	push   %rbp
  40f179:	48 89 e5             	mov    %rsp,%rbp
  40f17c:	48 83 ec 10          	sub    $0x10,%rsp
  40f180:	48 89 7d f8          	mov    %rdi,-0x8(%rbp)
  40f184:	48 89 75 f0          	mov    %rsi,-0x10(%rbp)
  40f188:	48 8b 4d f0          	mov    -0x10(%rbp),%rcx
  40f18c:	48 8b 45 f8          	mov    -0x8(%rbp),%rax
  40f190:	ba 00 00 00 00       	mov    $0x0,%edx
  40f195:	48 89 ce             	mov    %rcx,%rsi
  40f198:	48 89 c7             	mov    %rax,%rdi
  40f19b:	e8 a4 07 00 00       	callq  40f944 <_ZN9__gnu_cxx13new_allocatorINSt8__detail10_Hash_nodeISt4pairIKNSt7__cxx1112basic_stringIcSt11char_traitsIcESaIcEEEN2cl7NDRangeEELb1EEEE8allocateEmPKv>
  40f1a0:	c9                   	leaveq 
  40f1a1:	c3                   	retq   

000000000040f1a2 <_ZSt11__addressofINSt8__detail10_Hash_nodeISt4pairIKNSt7__cxx1112basic_stringIcSt11char_traitsIcESaIcEEEN2cl7NDRangeEELb1EEEEPT_RSE_>:
  40f1a2:	55                   	push   %rbp
  40f1a3:	48 89 e5             	mov    %rsp,%rbp
  40f1a6:	48 89 7d f8          	mov    %rdi,-0x8(%rbp)
  40f1aa:	48 8b 45 f8          	mov    -0x8(%rbp),%rax
  40f1ae:	5d                   	pop    %rbp
  40f1af:	c3                   	retq   

000000000040f1b0 <_ZNSaISt4pairIKNSt7__cxx1112basic_stringIcSt11char_traitsIcESaIcEEEN2cl7NDRangeEEEC1INSt8__detail10_Hash_nodeIS9_Lb1EEEEERKSaIT_E>:
  40f1b0:	55                   	push   %rbp
  40f1b1:	48 89 e5             	mov    %rsp,%rbp
  40f1b4:	48 83 ec 10          	sub    $0x10,%rsp
  40f1b8:	48 89 7d f8          	mov    %rdi,-0x8(%rbp)
  40f1bc:	48 89 75 f0          	mov    %rsi,-0x10(%rbp)
  40f1c0:	48 8b 45 f8          	mov    -0x8(%rbp),%rax
  40f1c4:	48 89 c7             	mov    %rax,%rdi
  40f1c7:	e8 c4 07 00 00       	callq  40f990 <_ZN9__gnu_cxx13new_allocatorISt4pairIKNSt7__cxx1112basic_stringIcSt11char_traitsIcESaIcEEEN2cl7NDRangeEEEC1Ev>
  40f1cc:	90                   	nop
  40f1cd:	c9                   	leaveq 
  40f1ce:	c3                   	retq   
  40f1cf:	90                   	nop

000000000040f1d0 <_ZNSaISt4pairIKNSt7__cxx1112basic_stringIcSt11char_traitsIcESaIcEEEN2cl7NDRangeEEED1Ev>:
  40f1d0:	55                   	push   %rbp
  40f1d1:	48 89 e5             	mov    %rsp,%rbp
  40f1d4:	48 83 ec 10          	sub    $0x10,%rsp
  40f1d8:	48 89 7d f8          	mov    %rdi,-0x8(%rbp)
  40f1dc:	48 8b 45 f8          	mov    -0x8(%rbp),%rax
  40f1e0:	48 89 c7             	mov    %rax,%rdi
  40f1e3:	e8 b4 07 00 00       	callq  40f99c <_ZN9__gnu_cxx13new_allocatorISt4pairIKNSt7__cxx1112basic_stringIcSt11char_traitsIcESaIcEEEN2cl7NDRangeEEED1Ev>
  40f1e8:	90                   	nop
  40f1e9:	c9                   	leaveq 
  40f1ea:	c3                   	retq   

000000000040f1eb <_ZNSt16allocator_traitsISaISt4pairIKNSt7__cxx1112basic_stringIcSt11char_traitsIcESaIcEEEN2cl7NDRangeEEEE9constructISA_JRKSA_EEEvRSB_PT_DpOT0_>:
  40f1eb:	55                   	push   %rbp
  40f1ec:	48 89 e5             	mov    %rsp,%rbp
  40f1ef:	48 83 ec 20          	sub    $0x20,%rsp
  40f1f3:	48 89 7d f8          	mov    %rdi,-0x8(%rbp)
  40f1f7:	48 89 75 f0          	mov    %rsi,-0x10(%rbp)
  40f1fb:	48 89 55 e8          	mov    %rdx,-0x18(%rbp)
  40f1ff:	48 8b 45 e8          	mov    -0x18(%rbp),%rax
  40f203:	48 89 c7             	mov    %rax,%rdi
  40f206:	e8 10 f3 ff ff       	callq  40e51b <_ZSt7forwardIRKSt4pairIKNSt7__cxx1112basic_stringIcSt11char_traitsIcESaIcEEEN2cl7NDRangeEEEOT_RNSt16remove_referenceISD_E4typeE>
  40f20b:	48 89 c2             	mov    %rax,%rdx
  40f20e:	48 8b 4d f0          	mov    -0x10(%rbp),%rcx
  40f212:	48 8b 45 f8          	mov    -0x8(%rbp),%rax
  40f216:	48 89 ce             	mov    %rcx,%rsi
  40f219:	48 89 c7             	mov    %rax,%rdi
  40f21c:	e8 d5 07 00 00       	callq  40f9f6 <_ZN9__gnu_cxx13new_allocatorISt4pairIKNSt7__cxx1112basic_stringIcSt11char_traitsIcESaIcEEEN2cl7NDRangeEEE9constructISB_JRKSB_EEEvPT_DpOT0_>
  40f221:	90                   	nop
  40f222:	c9                   	leaveq 
  40f223:	c3                   	retq   

000000000040f224 <_ZNSt16allocator_traitsISaINSt8__detail10_Hash_nodeISt4pairIKNSt7__cxx1112basic_stringIcSt11char_traitsIcESaIcEEEN2cl7NDRangeEELb1EEEEE10deallocateERSE_PSD_m>:
  40f224:	55                   	push   %rbp
  40f225:	48 89 e5             	mov    %rsp,%rbp
  40f228:	48 83 ec 20          	sub    $0x20,%rsp
  40f22c:	48 89 7d f8          	mov    %rdi,-0x8(%rbp)
  40f230:	48 89 75 f0          	mov    %rsi,-0x10(%rbp)
  40f234:	48 89 55 e8          	mov    %rdx,-0x18(%rbp)
  40f238:	48 8b 55 e8          	mov    -0x18(%rbp),%rdx
  40f23c:	48 8b 4d f0          	mov    -0x10(%rbp),%rcx
  40f240:	48 8b 45 f8          	mov    -0x8(%rbp),%rax
  40f244:	48 89 ce             	mov    %rcx,%rsi
  40f247:	48 89 c7             	mov    %rax,%rdi
  40f24a:	e8 1b 08 00 00       	callq  40fa6a <_ZN9__gnu_cxx13new_allocatorINSt8__detail10_Hash_nodeISt4pairIKNSt7__cxx1112basic_stringIcSt11char_traitsIcESaIcEEEN2cl7NDRangeEELb1EEEE10deallocateEPSE_m>
  40f24f:	90                   	nop
  40f250:	c9                   	leaveq 
  40f251:	c3                   	retq   

000000000040f252 <_ZNKSt8__detail15_Hash_code_baseINSt7__cxx1112basic_stringIcSt11char_traitsIcESaIcEEESt4pairIKS6_N2cl7NDRangeEENS_10_Select1stESt4hashIS6_ENS_18_Mod_range_hashingENS_20_Default_ranged_hashELb1EE12_M_copy_codeEPNS_10_Hash_nodeISB_Lb1EEEPKSJ_>:
  40f252:	55                   	push   %rbp
  40f253:	48 89 e5             	mov    %rsp,%rbp
  40f256:	48 89 7d f8          	mov    %rdi,-0x8(%rbp)
  40f25a:	48 89 75 f0          	mov    %rsi,-0x10(%rbp)
  40f25e:	48 89 55 e8          	mov    %rdx,-0x18(%rbp)
  40f262:	48 8b 45 e8          	mov    -0x18(%rbp),%rax
  40f266:	48 8b 50 48          	mov    0x48(%rax),%rdx
  40f26a:	48 8b 45 f0          	mov    -0x10(%rbp),%rax
  40f26e:	48 89 50 48          	mov    %rdx,0x48(%rax)
  40f272:	90                   	nop
  40f273:	5d                   	pop    %rbp
  40f274:	c3                   	retq   
  40f275:	90                   	nop

000000000040f276 <_ZNKSt10_HashtableINSt7__cxx1112basic_stringIcSt11char_traitsIcESaIcEEESt4pairIKS5_N2cl7NDRangeEESaISA_ENSt8__detail10_Select1stESt8equal_toIS5_ESt4hashIS5_ENSC_18_Mod_range_hashingENSC_20_Default_ranged_hashENSC_20_Prime_rehash_policyENSC_17_Hashtable_traitsILb1ELb0ELb1EEEE15_M_bucket_indexEPNSC_10_Hash_nodeISA_Lb1EEE>:
  40f276:	55                   	push   %rbp
  40f277:	48 89 e5             	mov    %rsp,%rbp
  40f27a:	48 83 ec 10          	sub    $0x10,%rsp
  40f27e:	48 89 7d f8          	mov    %rdi,-0x8(%rbp)
  40f282:	48 89 75 f0          	mov    %rsi,-0x10(%rbp)
  40f286:	48 8b 45 f8          	mov    -0x8(%rbp),%rax
  40f28a:	48 8b 50 08          	mov    0x8(%rax),%rdx
  40f28e:	48 8b 4d f0          	mov    -0x10(%rbp),%rcx
  40f292:	48 8b 45 f8          	mov    -0x8(%rbp),%rax
  40f296:	48 89 ce             	mov    %rcx,%rsi
  40f299:	48 89 c7             	mov    %rax,%rdi
  40f29c:	e8 ed 07 00 00       	callq  40fa8e <_ZNKSt8__detail15_Hash_code_baseINSt7__cxx1112basic_stringIcSt11char_traitsIcESaIcEEESt4pairIKS6_N2cl7NDRangeEENS_10_Select1stESt4hashIS6_ENS_18_Mod_range_hashingENS_20_Default_ranged_hashELb1EE15_M_bucket_indexEPKNS_10_Hash_nodeISB_Lb1EEEm>
  40f2a1:	c9                   	leaveq 
  40f2a2:	c3                   	retq   
  40f2a3:	90                   	nop

000000000040f2a4 <_ZNSt8__detail16_Hashtable_allocISaINS_10_Hash_nodeISt4pairIKNSt7__cxx1112basic_stringIcSt11char_traitsIcESaIcEEEN2cl7NDRangeEELb1EEEEE19_M_allocate_bucketsEm>:
  40f2a4:	55                   	push   %rbp
  40f2a5:	48 89 e5             	mov    %rsp,%rbp
  40f2a8:	53                   	push   %rbx
  40f2a9:	48 83 ec 38          	sub    $0x38,%rsp
  40f2ad:	48 89 7d c8          	mov    %rdi,-0x38(%rbp)
  40f2b1:	48 89 75 c0          	mov    %rsi,-0x40(%rbp)
  40f2b5:	64 48 8b 04 25 28 00 	mov    %fs:0x28,%rax
  40f2bc:	00 00 
  40f2be:	48 89 45 e8          	mov    %rax,-0x18(%rbp)
  40f2c2:	31 c0                	xor    %eax,%eax
  40f2c4:	48 8b 45 c8          	mov    -0x38(%rbp),%rax
  40f2c8:	48 89 c7             	mov    %rax,%rdi
  40f2cb:	e8 ce f0 ff ff       	callq  40e39e <_ZNSt8__detail16_Hashtable_allocISaINS_10_Hash_nodeISt4pairIKNSt7__cxx1112basic_stringIcSt11char_traitsIcESaIcEEEN2cl7NDRangeEELb1EEEEE17_M_node_allocatorEv>
  40f2d0:	48 89 c2             	mov    %rax,%rdx
  40f2d3:	48 8d 45 d7          	lea    -0x29(%rbp),%rax
  40f2d7:	48 89 d6             	mov    %rdx,%rsi
  40f2da:	48 89 c7             	mov    %rax,%rdi
  40f2dd:	e8 f2 07 00 00       	callq  40fad4 <_ZNSaIPNSt8__detail15_Hash_node_baseEEC1INS_10_Hash_nodeISt4pairIKNSt7__cxx1112basic_stringIcSt11char_traitsIcESaIcEEEN2cl7NDRangeEELb1EEEEERKSaIT_E>
  40f2e2:	48 8b 55 c0          	mov    -0x40(%rbp),%rdx
  40f2e6:	48 8d 45 d7          	lea    -0x29(%rbp),%rax
  40f2ea:	48 89 d6             	mov    %rdx,%rsi
  40f2ed:	48 89 c7             	mov    %rax,%rdi
  40f2f0:	e8 1a 08 00 00       	callq  40fb0f <_ZNSt16allocator_traitsISaIPNSt8__detail15_Hash_node_baseEEE8allocateERS3_m>
  40f2f5:	48 89 45 d8          	mov    %rax,-0x28(%rbp)
  40f2f9:	48 8b 45 d8          	mov    -0x28(%rbp),%rax
  40f2fd:	48 89 c7             	mov    %rax,%rdi
  40f300:	e8 34 08 00 00       	callq  40fb39 <_ZSt11__addressofIPNSt8__detail15_Hash_node_baseEEPT_RS3_>
  40f305:	48 89 45 e0          	mov    %rax,-0x20(%rbp)
  40f309:	48 8b 45 c0          	mov    -0x40(%rbp),%rax
  40f30d:	48 8d 14 c5 00 00 00 	lea    0x0(,%rax,8),%rdx
  40f314:	00 
  40f315:	48 8b 45 e0          	mov    -0x20(%rbp),%rax
  40f319:	be 00 00 00 00       	mov    $0x0,%esi
  40f31e:	48 89 c7             	mov    %rax,%rdi
  40f321:	e8 3a 4b ff ff       	callq  403e60 <memset@plt>
  40f326:	48 8b 5d e0          	mov    -0x20(%rbp),%rbx
  40f32a:	48 8d 45 d7          	lea    -0x29(%rbp),%rax
  40f32e:	48 89 c7             	mov    %rax,%rdi
  40f331:	e8 be 07 00 00       	callq  40faf4 <_ZNSaIPNSt8__detail15_Hash_node_baseEED1Ev>
  40f336:	48 89 d8             	mov    %rbx,%rax
  40f339:	48 8b 4d e8          	mov    -0x18(%rbp),%rcx
  40f33d:	64 48 33 0c 25 28 00 	xor    %fs:0x28,%rcx
  40f344:	00 00 
  40f346:	74 21                	je     40f369 <_ZNSt8__detail16_Hashtable_allocISaINS_10_Hash_nodeISt4pairIKNSt7__cxx1112basic_stringIcSt11char_traitsIcESaIcEEEN2cl7NDRangeEELb1EEEEE19_M_allocate_bucketsEm+0xc5>
  40f348:	eb 1a                	jmp    40f364 <_ZNSt8__detail16_Hashtable_allocISaINS_10_Hash_nodeISt4pairIKNSt7__cxx1112basic_stringIcSt11char_traitsIcESaIcEEEN2cl7NDRangeEELb1EEEEE19_M_allocate_bucketsEm+0xc0>
  40f34a:	48 89 c3             	mov    %rax,%rbx
  40f34d:	48 8d 45 d7          	lea    -0x29(%rbp),%rax
  40f351:	48 89 c7             	mov    %rax,%rdi
  40f354:	e8 9b 07 00 00       	callq  40faf4 <_ZNSaIPNSt8__detail15_Hash_node_baseEED1Ev>
  40f359:	48 89 d8             	mov    %rbx,%rax
  40f35c:	48 89 c7             	mov    %rax,%rdi
  40f35f:	e8 2c 4e ff ff       	callq  404190 <_Unwind_Resume@plt>
  40f364:	e8 c7 4b ff ff       	callq  403f30 <__stack_chk_fail@plt>
  40f369:	48 83 c4 38          	add    $0x38,%rsp
  40f36d:	5b                   	pop    %rbx
  40f36e:	5d                   	pop    %rbp
  40f36f:	c3                   	retq   

000000000040f370 <_ZNSt16allocator_traitsISaISt4pairIKNSt7__cxx1112basic_stringIcSt11char_traitsIcESaIcEEEN2cl7NDRangeEEEE7destroyISA_EEvRSB_PT_>:
  40f370:	55                   	push   %rbp
  40f371:	48 89 e5             	mov    %rsp,%rbp
  40f374:	48 83 ec 10          	sub    $0x10,%rsp
  40f378:	48 89 7d f8          	mov    %rdi,-0x8(%rbp)
  40f37c:	48 89 75 f0          	mov    %rsi,-0x10(%rbp)
  40f380:	48 8b 55 f0          	mov    -0x10(%rbp),%rdx
  40f384:	48 8b 45 f8          	mov    -0x8(%rbp),%rax
  40f388:	48 89 d6             	mov    %rdx,%rsi
  40f38b:	48 89 c7             	mov    %rax,%rdi
  40f38e:	e8 d1 07 00 00       	callq  40fb64 <_ZN9__gnu_cxx13new_allocatorISt4pairIKNSt7__cxx1112basic_stringIcSt11char_traitsIcESaIcEEEN2cl7NDRangeEEE7destroyISB_EEvPT_>
  40f393:	90                   	nop
  40f394:	c9                   	leaveq 
  40f395:	c3                   	retq   

000000000040f396 <_ZNKSt10_HashtableINSt7__cxx1112basic_stringIcSt11char_traitsIcESaIcEEESt4pairIKS5_N2cl7NDRangeEESaISA_ENSt8__detail10_Select1stESt8equal_toIS5_ESt4hashIS5_ENSC_18_Mod_range_hashingENSC_20_Default_ranged_hashENSC_20_Prime_rehash_policyENSC_17_Hashtable_traitsILb1ELb0ELb1EEEE21_M_uses_single_bucketEPPNSC_15_Hash_node_baseE>:
  40f396:	55                   	push   %rbp
  40f397:	48 89 e5             	mov    %rsp,%rbp
  40f39a:	48 89 7d f8          	mov    %rdi,-0x8(%rbp)
  40f39e:	48 89 75 f0          	mov    %rsi,-0x10(%rbp)
  40f3a2:	48 8b 45 f8          	mov    -0x8(%rbp),%rax
  40f3a6:	48 83 c0 30          	add    $0x30,%rax
  40f3aa:	48 3b 45 f0          	cmp    -0x10(%rbp),%rax
  40f3ae:	0f 94 c0             	sete   %al
  40f3b1:	0f b6 c0             	movzbl %al,%eax
  40f3b4:	48 85 c0             	test   %rax,%rax
  40f3b7:	0f 95 c0             	setne  %al
  40f3ba:	5d                   	pop    %rbp
  40f3bb:	c3                   	retq   

000000000040f3bc <_ZNSt8__detail16_Hashtable_allocISaINS_10_Hash_nodeISt4pairIKNSt7__cxx1112basic_stringIcSt11char_traitsIcESaIcEEEN2cl7NDRangeEELb1EEEEE21_M_deallocate_bucketsEPPNS_15_Hash_node_baseEm>:
  40f3bc:	55                   	push   %rbp
  40f3bd:	48 89 e5             	mov    %rsp,%rbp
  40f3c0:	53                   	push   %rbx
  40f3c1:	48 83 ec 48          	sub    $0x48,%rsp
  40f3c5:	48 89 7d c8          	mov    %rdi,-0x38(%rbp)
  40f3c9:	48 89 75 c0          	mov    %rsi,-0x40(%rbp)
  40f3cd:	48 89 55 b8          	mov    %rdx,-0x48(%rbp)
  40f3d1:	64 48 8b 04 25 28 00 	mov    %fs:0x28,%rax
  40f3d8:	00 00 
  40f3da:	48 89 45 e8          	mov    %rax,-0x18(%rbp)
  40f3de:	31 c0                	xor    %eax,%eax
  40f3e0:	48 8b 45 c0          	mov    -0x40(%rbp),%rax
  40f3e4:	48 89 c7             	mov    %rax,%rdi
  40f3e7:	e8 97 07 00 00       	callq  40fb83 <_ZNSt14pointer_traitsIPPNSt8__detail15_Hash_node_baseEE10pointer_toERS2_>
  40f3ec:	48 89 45 e0          	mov    %rax,-0x20(%rbp)
  40f3f0:	48 8b 45 c8          	mov    -0x38(%rbp),%rax
  40f3f4:	48 89 c7             	mov    %rax,%rdi
  40f3f7:	e8 a2 ef ff ff       	callq  40e39e <_ZNSt8__detail16_Hashtable_allocISaINS_10_Hash_nodeISt4pairIKNSt7__cxx1112basic_stringIcSt11char_traitsIcESaIcEEEN2cl7NDRangeEELb1EEEEE17_M_node_allocatorEv>
  40f3fc:	48 89 c2             	mov    %rax,%rdx
  40f3ff:	48 8d 45 df          	lea    -0x21(%rbp),%rax
  40f403:	48 89 d6             	mov    %rdx,%rsi
  40f406:	48 89 c7             	mov    %rax,%rdi
  40f409:	e8 c6 06 00 00       	callq  40fad4 <_ZNSaIPNSt8__detail15_Hash_node_baseEEC1INS_10_Hash_nodeISt4pairIKNSt7__cxx1112basic_stringIcSt11char_traitsIcESaIcEEEN2cl7NDRangeEELb1EEEEERKSaIT_E>
  40f40e:	48 8b 55 b8          	mov    -0x48(%rbp),%rdx
  40f412:	48 8b 4d e0          	mov    -0x20(%rbp),%rcx
  40f416:	48 8d 45 df          	lea    -0x21(%rbp),%rax
  40f41a:	48 89 ce             	mov    %rcx,%rsi
  40f41d:	48 89 c7             	mov    %rax,%rdi
  40f420:	e8 78 07 00 00       	callq  40fb9d <_ZNSt16allocator_traitsISaIPNSt8__detail15_Hash_node_baseEEE10deallocateERS3_PS2_m>
  40f425:	48 8d 45 df          	lea    -0x21(%rbp),%rax
  40f429:	48 89 c7             	mov    %rax,%rdi
  40f42c:	e8 c3 06 00 00       	callq  40faf4 <_ZNSaIPNSt8__detail15_Hash_node_baseEED1Ev>
  40f431:	90                   	nop
  40f432:	48 8b 45 e8          	mov    -0x18(%rbp),%rax
  40f436:	64 48 33 04 25 28 00 	xor    %fs:0x28,%rax
  40f43d:	00 00 
  40f43f:	74 21                	je     40f462 <_ZNSt8__detail16_Hashtable_allocISaINS_10_Hash_nodeISt4pairIKNSt7__cxx1112basic_stringIcSt11char_traitsIcESaIcEEEN2cl7NDRangeEELb1EEEEE21_M_deallocate_bucketsEPPNS_15_Hash_node_baseEm+0xa6>
  40f441:	eb 1a                	jmp    40f45d <_ZNSt8__detail16_Hashtable_allocISaINS_10_Hash_nodeISt4pairIKNSt7__cxx1112basic_stringIcSt11char_traitsIcESaIcEEEN2cl7NDRangeEELb1EEEEE21_M_deallocate_bucketsEPPNS_15_Hash_node_baseEm+0xa1>
  40f443:	48 89 c3             	mov    %rax,%rbx
  40f446:	48 8d 45 df          	lea    -0x21(%rbp),%rax
  40f44a:	48 89 c7             	mov    %rax,%rdi
  40f44d:	e8 a2 06 00 00       	callq  40faf4 <_ZNSaIPNSt8__detail15_Hash_node_baseEED1Ev>
  40f452:	48 89 d8             	mov    %rbx,%rax
  40f455:	48 89 c7             	mov    %rax,%rdi
  40f458:	e8 33 4d ff ff       	callq  404190 <_Unwind_Resume@plt>
  40f45d:	e8 ce 4a ff ff       	callq  403f30 <__stack_chk_fail@plt>
  40f462:	48 83 c4 48          	add    $0x48,%rsp
  40f466:	5b                   	pop    %rbx
  40f467:	5d                   	pop    %rbp
  40f468:	c3                   	retq   
  40f469:	90                   	nop

000000000040f46a <_ZNKSt8__detail15_Hash_code_baseINSt7__cxx1112basic_stringIcSt11char_traitsIcESaIcEEESt4pairIKS6_N2cl7NDRangeEENS_10_Select1stESt4hashIS6_ENS_18_Mod_range_hashingENS_20_Default_ranged_hashELb1EE5_M_h1Ev>:
  40f46a:	55                   	push   %rbp
  40f46b:	48 89 e5             	mov    %rsp,%rbp
  40f46e:	48 83 ec 10          	sub    $0x10,%rsp
  40f472:	48 89 7d f8          	mov    %rdi,-0x8(%rbp)
  40f476:	48 8b 45 f8          	mov    -0x8(%rbp),%rax
  40f47a:	48 89 c7             	mov    %rax,%rdi
  40f47d:	e8 49 07 00 00       	callq  40fbcb <_ZNSt8__detail21_Hashtable_ebo_helperILi1ESt4hashINSt7__cxx1112basic_stringIcSt11char_traitsIcESaIcEEEELb1EE7_S_cgetERKS9_>
  40f482:	c9                   	leaveq 
  40f483:	c3                   	retq   

000000000040f484 <_ZNKSt8__detail15_Hash_code_baseINSt7__cxx1112basic_stringIcSt11char_traitsIcESaIcEEESt4pairIKS6_N2cl7NDRangeEENS_10_Select1stESt4hashIS6_ENS_18_Mod_range_hashingENS_20_Default_ranged_hashELb1EE15_M_bucket_indexERS8_mm>:
  40f484:	55                   	push   %rbp
  40f485:	48 89 e5             	mov    %rsp,%rbp
  40f488:	48 83 ec 20          	sub    $0x20,%rsp
  40f48c:	48 89 7d f8          	mov    %rdi,-0x8(%rbp)
  40f490:	48 89 75 f0          	mov    %rsi,-0x10(%rbp)
  40f494:	48 89 55 e8          	mov    %rdx,-0x18(%rbp)
  40f498:	48 89 4d e0          	mov    %rcx,-0x20(%rbp)
  40f49c:	48 8b 45 f8          	mov    -0x8(%rbp),%rax
  40f4a0:	48 89 c7             	mov    %rax,%rdi
  40f4a3:	e8 32 07 00 00       	callq  40fbda <_ZNKSt8__detail15_Hash_code_baseINSt7__cxx1112basic_stringIcSt11char_traitsIcESaIcEEESt4pairIKS6_N2cl7NDRangeEENS_10_Select1stESt4hashIS6_ENS_18_Mod_range_hashingENS_20_Default_ranged_hashELb1EE5_M_h2Ev>
  40f4a8:	48 89 c1             	mov    %rax,%rcx
  40f4ab:	48 8b 55 e0          	mov    -0x20(%rbp),%rdx
  40f4af:	48 8b 45 e8          	mov    -0x18(%rbp),%rax
  40f4b3:	48 89 c6             	mov    %rax,%rsi
  40f4b6:	48 89 cf             	mov    %rcx,%rdi
  40f4b9:	e8 c0 de ff ff       	callq  40d37e <_ZNKSt8__detail18_Mod_range_hashingclEmm>
  40f4be:	c9                   	leaveq 
  40f4bf:	c3                   	retq   

000000000040f4c0 <_ZNKSt10_HashtableINSt7__cxx1112basic_stringIcSt11char_traitsIcESaIcEEESt4pairIKS5_N2cl7NDRangeEESaISA_ENSt8__detail10_Select1stESt8equal_toIS5_ESt4hashIS5_ENSC_18_Mod_range_hashingENSC_20_Default_ranged_hashENSC_20_Prime_rehash_policyENSC_17_Hashtable_traitsILb1ELb0ELb1EEEE19_M_find_before_nodeEmRS7_m>:
  40f4c0:	55                   	push   %rbp
  40f4c1:	48 89 e5             	mov    %rsp,%rbp
  40f4c4:	48 83 ec 30          	sub    $0x30,%rsp
  40f4c8:	48 89 7d e8          	mov    %rdi,-0x18(%rbp)
  40f4cc:	48 89 75 e0          	mov    %rsi,-0x20(%rbp)
  40f4d0:	48 89 55 d8          	mov    %rdx,-0x28(%rbp)
  40f4d4:	48 89 4d d0          	mov    %rcx,-0x30(%rbp)
  40f4d8:	48 8b 45 e8          	mov    -0x18(%rbp),%rax
  40f4dc:	48 8b 00             	mov    (%rax),%rax
  40f4df:	48 8b 55 e0          	mov    -0x20(%rbp),%rdx
  40f4e3:	48 c1 e2 03          	shl    $0x3,%rdx
  40f4e7:	48 01 d0             	add    %rdx,%rax
  40f4ea:	48 8b 00             	mov    (%rax),%rax
  40f4ed:	48 89 45 f0          	mov    %rax,-0x10(%rbp)
  40f4f1:	48 83 7d f0 00       	cmpq   $0x0,-0x10(%rbp)
  40f4f6:	75 0a                	jne    40f502 <_ZNKSt10_HashtableINSt7__cxx1112basic_stringIcSt11char_traitsIcESaIcEEESt4pairIKS5_N2cl7NDRangeEESaISA_ENSt8__detail10_Select1stESt8equal_toIS5_ESt4hashIS5_ENSC_18_Mod_range_hashingENSC_20_Default_ranged_hashENSC_20_Prime_rehash_policyENSC_17_Hashtable_traitsILb1ELb0ELb1EEEE19_M_find_before_nodeEmRS7_m+0x42>
  40f4f8:	b8 00 00 00 00       	mov    $0x0,%eax
  40f4fd:	e9 8d 00 00 00       	jmpq   40f58f <_ZNKSt10_HashtableINSt7__cxx1112basic_stringIcSt11char_traitsIcESaIcEEESt4pairIKS5_N2cl7NDRangeEESaISA_ENSt8__detail10_Select1stESt8equal_toIS5_ESt4hashIS5_ENSC_18_Mod_range_hashingENSC_20_Default_ranged_hashENSC_20_Prime_rehash_policyENSC_17_Hashtable_traitsILb1ELb0ELb1EEEE19_M_find_before_nodeEmRS7_m+0xcf>
  40f502:	48 8b 45 f0          	mov    -0x10(%rbp),%rax
  40f506:	48 8b 00             	mov    (%rax),%rax
  40f509:	48 89 45 f8          	mov    %rax,-0x8(%rbp)
  40f50d:	48 8b 4d f8          	mov    -0x8(%rbp),%rcx
  40f511:	48 8b 55 d0          	mov    -0x30(%rbp),%rdx
  40f515:	48 8b 75 d8          	mov    -0x28(%rbp),%rsi
  40f519:	48 8b 45 e8          	mov    -0x18(%rbp),%rax
  40f51d:	48 89 c7             	mov    %rax,%rdi
  40f520:	e8 cf 06 00 00       	callq  40fbf4 <_ZNKSt8__detail15_Hashtable_baseINSt7__cxx1112basic_stringIcSt11char_traitsIcESaIcEEESt4pairIKS6_N2cl7NDRangeEENS_10_Select1stESt8equal_toIS6_ESt4hashIS6_ENS_18_Mod_range_hashingENS_20_Default_ranged_hashENS_17_Hashtable_traitsILb1ELb0ELb1EEEE9_M_equalsERS8_mPNS_10_Hash_nodeISB_Lb1EEE>
  40f525:	84 c0                	test   %al,%al
  40f527:	74 06                	je     40f52f <_ZNKSt10_HashtableINSt7__cxx1112basic_stringIcSt11char_traitsIcESaIcEEESt4pairIKS5_N2cl7NDRangeEESaISA_ENSt8__detail10_Select1stESt8equal_toIS5_ESt4hashIS5_ENSC_18_Mod_range_hashingENSC_20_Default_ranged_hashENSC_20_Prime_rehash_policyENSC_17_Hashtable_traitsILb1ELb0ELb1EEEE19_M_find_before_nodeEmRS7_m+0x6f>
  40f529:	48 8b 45 f0          	mov    -0x10(%rbp),%rax
  40f52d:	eb 60                	jmp    40f58f <_ZNKSt10_HashtableINSt7__cxx1112basic_stringIcSt11char_traitsIcESaIcEEESt4pairIKS5_N2cl7NDRangeEESaISA_ENSt8__detail10_Select1stESt8equal_toIS5_ESt4hashIS5_ENSC_18_Mod_range_hashingENSC_20_Default_ranged_hashENSC_20_Prime_rehash_policyENSC_17_Hashtable_traitsILb1ELb0ELb1EEEE19_M_find_before_nodeEmRS7_m+0xcf>
  40f52f:	48 8b 45 f8          	mov    -0x8(%rbp),%rax
  40f533:	48 8b 00             	mov    (%rax),%rax
  40f536:	48 85 c0             	test   %rax,%rax
  40f539:	74 24                	je     40f55f <_ZNKSt10_HashtableINSt7__cxx1112basic_stringIcSt11char_traitsIcESaIcEEESt4pairIKS5_N2cl7NDRangeEESaISA_ENSt8__detail10_Select1stESt8equal_toIS5_ESt4hashIS5_ENSC_18_Mod_range_hashingENSC_20_Default_ranged_hashENSC_20_Prime_rehash_policyENSC_17_Hashtable_traitsILb1ELb0ELb1EEEE19_M_find_before_nodeEmRS7_m+0x9f>
  40f53b:	48 8b 45 f8          	mov    -0x8(%rbp),%rax
  40f53f:	48 89 c7             	mov    %rax,%rdi
  40f542:	e8 1f fb ff ff       	callq  40f066 <_ZNKSt8__detail10_Hash_nodeISt4pairIKNSt7__cxx1112basic_stringIcSt11char_traitsIcESaIcEEEN2cl7NDRangeEELb1EE7_M_nextEv>
  40f547:	48 89 c2             	mov    %rax,%rdx
  40f54a:	48 8b 45 e8          	mov    -0x18(%rbp),%rax
  40f54e:	48 89 d6             	mov    %rdx,%rsi
  40f551:	48 89 c7             	mov    %rax,%rdi
  40f554:	e8 1d fd ff ff       	callq  40f276 <_ZNKSt10_HashtableINSt7__cxx1112basic_stringIcSt11char_traitsIcESaIcEEESt4pairIKS5_N2cl7NDRangeEESaISA_ENSt8__detail10_Select1stESt8equal_toIS5_ESt4hashIS5_ENSC_18_Mod_range_hashingENSC_20_Default_ranged_hashENSC_20_Prime_rehash_policyENSC_17_Hashtable_traitsILb1ELb0ELb1EEEE15_M_bucket_indexEPNSC_10_Hash_nodeISA_Lb1EEE>
  40f559:	48 3b 45 e0          	cmp    -0x20(%rbp),%rax
  40f55d:	74 07                	je     40f566 <_ZNKSt10_HashtableINSt7__cxx1112basic_stringIcSt11char_traitsIcESaIcEEESt4pairIKS5_N2cl7NDRangeEESaISA_ENSt8__detail10_Select1stESt8equal_toIS5_ESt4hashIS5_ENSC_18_Mod_range_hashingENSC_20_Default_ranged_hashENSC_20_Prime_rehash_policyENSC_17_Hashtable_traitsILb1ELb0ELb1EEEE19_M_find_before_nodeEmRS7_m+0xa6>
  40f55f:	b8 01 00 00 00       	mov    $0x1,%eax
  40f564:	eb 05                	jmp    40f56b <_ZNKSt10_HashtableINSt7__cxx1112basic_stringIcSt11char_traitsIcESaIcEEESt4pairIKS5_N2cl7NDRangeEESaISA_ENSt8__detail10_Select1stESt8equal_toIS5_ESt4hashIS5_ENSC_18_Mod_range_hashingENSC_20_Default_ranged_hashENSC_20_Prime_rehash_policyENSC_17_Hashtable_traitsILb1ELb0ELb1EEEE19_M_find_before_nodeEmRS7_m+0xab>
  40f566:	b8 00 00 00 00       	mov    $0x0,%eax
  40f56b:	84 c0                	test   %al,%al
  40f56d:	75 1a                	jne    40f589 <_ZNKSt10_HashtableINSt7__cxx1112basic_stringIcSt11char_traitsIcESaIcEEESt4pairIKS5_N2cl7NDRangeEESaISA_ENSt8__detail10_Select1stESt8equal_toIS5_ESt4hashIS5_ENSC_18_Mod_range_hashingENSC_20_Default_ranged_hashENSC_20_Prime_rehash_policyENSC_17_Hashtable_traitsILb1ELb0ELb1EEEE19_M_find_before_nodeEmRS7_m+0xc9>
  40f56f:	48 8b 45 f8          	mov    -0x8(%rbp),%rax
  40f573:	48 89 45 f0          	mov    %rax,-0x10(%rbp)
  40f577:	48 8b 45 f8          	mov    -0x8(%rbp),%rax
  40f57b:	48 89 c7             	mov    %rax,%rdi
  40f57e:	e8 e3 fa ff ff       	callq  40f066 <_ZNKSt8__detail10_Hash_nodeISt4pairIKNSt7__cxx1112basic_stringIcSt11char_traitsIcESaIcEEEN2cl7NDRangeEELb1EE7_M_nextEv>
  40f583:	48 89 45 f8          	mov    %rax,-0x8(%rbp)
  40f587:	eb 84                	jmp    40f50d <_ZNKSt10_HashtableINSt7__cxx1112basic_stringIcSt11char_traitsIcESaIcEEESt4pairIKS5_N2cl7NDRangeEESaISA_ENSt8__detail10_Select1stESt8equal_toIS5_ESt4hashIS5_ENSC_18_Mod_range_hashingENSC_20_Default_ranged_hashENSC_20_Prime_rehash_policyENSC_17_Hashtable_traitsILb1ELb0ELb1EEEE19_M_find_before_nodeEmRS7_m+0x4d>
  40f589:	90                   	nop
  40f58a:	b8 00 00 00 00       	mov    $0x0,%eax
  40f58f:	c9                   	leaveq 
  40f590:	c3                   	retq   
  40f591:	90                   	nop

000000000040f592 <_ZNSt8__detail19_Node_iterator_baseISt4pairIKNSt7__cxx1112basic_stringIcSt11char_traitsIcESaIcEEEN2cl7NDRangeEELb1EEC1EPNS_10_Hash_nodeISB_Lb1EEE>:
  40f592:	55                   	push   %rbp
  40f593:	48 89 e5             	mov    %rsp,%rbp
  40f596:	48 89 7d f8          	mov    %rdi,-0x8(%rbp)
  40f59a:	48 89 75 f0          	mov    %rsi,-0x10(%rbp)
  40f59e:	48 8b 45 f8          	mov    -0x8(%rbp),%rax
  40f5a2:	48 8b 55 f0          	mov    -0x10(%rbp),%rdx
  40f5a6:	48 89 10             	mov    %rdx,(%rax)
  40f5a9:	90                   	nop
  40f5aa:	5d                   	pop    %rbp
  40f5ab:	c3                   	retq   

000000000040f5ac <_ZNSt8__detail16_Hashtable_allocISaINS_10_Hash_nodeISt4pairIKNSt7__cxx1112basic_stringIcSt11char_traitsIcESaIcEEEN2cl7NDRangeEELb1EEEEE16_M_allocate_nodeIJRS9_RSB_EEEPSD_DpOT_>:
  40f5ac:	55                   	push   %rbp
  40f5ad:	48 89 e5             	mov    %rsp,%rbp
  40f5b0:	41 54                	push   %r12
  40f5b2:	53                   	push   %rbx
  40f5b3:	48 83 ec 40          	sub    $0x40,%rsp
  40f5b7:	48 89 7d c8          	mov    %rdi,-0x38(%rbp)
  40f5bb:	48 89 75 c0          	mov    %rsi,-0x40(%rbp)
  40f5bf:	48 89 55 b8          	mov    %rdx,-0x48(%rbp)
  40f5c3:	64 48 8b 04 25 28 00 	mov    %fs:0x28,%rax
  40f5ca:	00 00 
  40f5cc:	48 89 45 e8          	mov    %rax,-0x18(%rbp)
  40f5d0:	31 c0                	xor    %eax,%eax
  40f5d2:	48 8b 45 c8          	mov    -0x38(%rbp),%rax
  40f5d6:	48 89 c7             	mov    %rax,%rdi
  40f5d9:	e8 c0 ed ff ff       	callq  40e39e <_ZNSt8__detail16_Hashtable_allocISaINS_10_Hash_nodeISt4pairIKNSt7__cxx1112basic_stringIcSt11char_traitsIcESaIcEEEN2cl7NDRangeEELb1EEEEE17_M_node_allocatorEv>
  40f5de:	be 01 00 00 00       	mov    $0x1,%esi
  40f5e3:	48 89 c7             	mov    %rax,%rdi
  40f5e6:	e8 8d fb ff ff       	callq  40f178 <_ZNSt16allocator_traitsISaINSt8__detail10_Hash_nodeISt4pairIKNSt7__cxx1112basic_stringIcSt11char_traitsIcESaIcEEEN2cl7NDRangeEELb1EEEEE8allocateERSE_m>
  40f5eb:	48 89 45 d8          	mov    %rax,-0x28(%rbp)
  40f5ef:	48 8b 45 d8          	mov    -0x28(%rbp),%rax
  40f5f3:	48 89 c7             	mov    %rax,%rdi
  40f5f6:	e8 a7 fb ff ff       	callq  40f1a2 <_ZSt11__addressofINSt8__detail10_Hash_nodeISt4pairIKNSt7__cxx1112basic_stringIcSt11char_traitsIcESaIcEEEN2cl7NDRangeEELb1EEEEPT_RSE_>
  40f5fb:	48 89 45 e0          	mov    %rax,-0x20(%rbp)
  40f5ff:	48 8b 45 c8          	mov    -0x38(%rbp),%rax
  40f603:	48 89 c7             	mov    %rax,%rdi
  40f606:	e8 93 ed ff ff       	callq  40e39e <_ZNSt8__detail16_Hashtable_allocISaINS_10_Hash_nodeISt4pairIKNSt7__cxx1112basic_stringIcSt11char_traitsIcESaIcEEEN2cl7NDRangeEELb1EEEEE17_M_node_allocatorEv>
  40f60b:	48 89 c2             	mov    %rax,%rdx
  40f60e:	48 8d 45 d7          	lea    -0x29(%rbp),%rax
  40f612:	48 89 d6             	mov    %rdx,%rsi
  40f615:	48 89 c7             	mov    %rax,%rdi
  40f618:	e8 93 fb ff ff       	callq  40f1b0 <_ZNSaISt4pairIKNSt7__cxx1112basic_stringIcSt11char_traitsIcESaIcEEEN2cl7NDRangeEEEC1INSt8__detail10_Hash_nodeIS9_Lb1EEEEERKSaIT_E>
  40f61d:	48 8b 45 e0          	mov    -0x20(%rbp),%rax
  40f621:	48 89 c6             	mov    %rax,%rsi
  40f624:	bf 50 00 00 00       	mov    $0x50,%edi
  40f629:	e8 59 58 ff ff       	callq  404e87 <_ZnwmPv>
  40f62e:	48 85 c0             	test   %rax,%rax
  40f631:	74 08                	je     40f63b <_ZNSt8__detail16_Hashtable_allocISaINS_10_Hash_nodeISt4pairIKNSt7__cxx1112basic_stringIcSt11char_traitsIcESaIcEEEN2cl7NDRangeEELb1EEEEE16_M_allocate_nodeIJRS9_RSB_EEEPSD_DpOT_+0x8f>
  40f633:	48 89 c7             	mov    %rax,%rdi
  40f636:	e8 c5 ee ff ff       	callq  40e500 <_ZNSt8__detail10_Hash_nodeISt4pairIKNSt7__cxx1112basic_stringIcSt11char_traitsIcESaIcEEEN2cl7NDRangeEELb1EEC1Ev>
  40f63b:	48 8b 45 b8          	mov    -0x48(%rbp),%rax
  40f63f:	48 89 c7             	mov    %rax,%rdi
  40f642:	e8 e9 e5 ff ff       	callq  40dc30 <_ZSt7forwardIRN2cl7NDRangeEEOT_RNSt16remove_referenceIS3_E4typeE>
  40f647:	49 89 c4             	mov    %rax,%r12
  40f64a:	48 8b 45 c0          	mov    -0x40(%rbp),%rax
  40f64e:	48 89 c7             	mov    %rax,%rdi
  40f651:	e8 cc e5 ff ff       	callq  40dc22 <_ZSt7forwardIRKNSt7__cxx1112basic_stringIcSt11char_traitsIcESaIcEEEEOT_RNSt16remove_referenceIS8_E4typeE>
  40f656:	48 89 c3             	mov    %rax,%rbx
  40f659:	48 8b 45 e0          	mov    -0x20(%rbp),%rax
  40f65d:	48 89 c7             	mov    %rax,%rdi
  40f660:	e8 1b ed ff ff       	callq  40e380 <_ZNSt8__detail21_Hash_node_value_baseISt4pairIKNSt7__cxx1112basic_stringIcSt11char_traitsIcESaIcEEEN2cl7NDRangeEEE9_M_valptrEv>
  40f665:	48 89 c6             	mov    %rax,%rsi
  40f668:	48 8d 45 d7          	lea    -0x29(%rbp),%rax
  40f66c:	4c 89 e1             	mov    %r12,%rcx
  40f66f:	48 89 da             	mov    %rbx,%rdx
  40f672:	48 89 c7             	mov    %rax,%rdi
  40f675:	e8 d5 05 00 00       	callq  40fc4f <_ZNSt16allocator_traitsISaISt4pairIKNSt7__cxx1112basic_stringIcSt11char_traitsIcESaIcEEEN2cl7NDRangeEEEE9constructISA_JRS7_RS9_EEEvRSB_PT_DpOT0_>
  40f67a:	48 8b 5d e0          	mov    -0x20(%rbp),%rbx
  40f67e:	48 8d 45 d7          	lea    -0x29(%rbp),%rax
  40f682:	48 89 c7             	mov    %rax,%rdi
  40f685:	e8 46 fb ff ff       	callq  40f1d0 <_ZNSaISt4pairIKNSt7__cxx1112basic_stringIcSt11char_traitsIcESaIcEEEN2cl7NDRangeEEED1Ev>
  40f68a:	48 89 d8             	mov    %rbx,%rax
  40f68d:	48 8b 4d e8          	mov    -0x18(%rbp),%rcx
  40f691:	64 48 33 0c 25 28 00 	xor    %fs:0x28,%rcx
  40f698:	00 00 
  40f69a:	74 5c                	je     40f6f8 <_ZNSt8__detail16_Hashtable_allocISaINS_10_Hash_nodeISt4pairIKNSt7__cxx1112basic_stringIcSt11char_traitsIcESaIcEEEN2cl7NDRangeEELb1EEEEE16_M_allocate_nodeIJRS9_RSB_EEEPSD_DpOT_+0x14c>
  40f69c:	eb 55                	jmp    40f6f3 <_ZNSt8__detail16_Hashtable_allocISaINS_10_Hash_nodeISt4pairIKNSt7__cxx1112basic_stringIcSt11char_traitsIcESaIcEEEN2cl7NDRangeEELb1EEEEE16_M_allocate_nodeIJRS9_RSB_EEEPSD_DpOT_+0x147>
  40f69e:	48 89 c3             	mov    %rax,%rbx
  40f6a1:	48 8d 45 d7          	lea    -0x29(%rbp),%rax
  40f6a5:	48 89 c7             	mov    %rax,%rdi
  40f6a8:	e8 23 fb ff ff       	callq  40f1d0 <_ZNSaISt4pairIKNSt7__cxx1112basic_stringIcSt11char_traitsIcESaIcEEEN2cl7NDRangeEEED1Ev>
  40f6ad:	48 89 d8             	mov    %rbx,%rax
  40f6b0:	48 89 c7             	mov    %rax,%rdi
  40f6b3:	e8 08 47 ff ff       	callq  403dc0 <__cxa_begin_catch@plt>
  40f6b8:	48 8b 45 c8          	mov    -0x38(%rbp),%rax
  40f6bc:	48 89 c7             	mov    %rax,%rdi
  40f6bf:	e8 da ec ff ff       	callq  40e39e <_ZNSt8__detail16_Hashtable_allocISaINS_10_Hash_nodeISt4pairIKNSt7__cxx1112basic_stringIcSt11char_traitsIcESaIcEEEN2cl7NDRangeEELb1EEEEE17_M_node_allocatorEv>
  40f6c4:	48 89 c1             	mov    %rax,%rcx
  40f6c7:	48 8b 45 d8          	mov    -0x28(%rbp),%rax
  40f6cb:	ba 01 00 00 00       	mov    $0x1,%edx
  40f6d0:	48 89 c6             	mov    %rax,%rsi
  40f6d3:	48 89 cf             	mov    %rcx,%rdi
  40f6d6:	e8 49 fb ff ff       	callq  40f224 <_ZNSt16allocator_traitsISaINSt8__detail10_Hash_nodeISt4pairIKNSt7__cxx1112basic_stringIcSt11char_traitsIcESaIcEEEN2cl7NDRangeEELb1EEEEE10deallocateERSE_PSD_m>
  40f6db:	e8 90 49 ff ff       	callq  404070 <__cxa_rethrow@plt>
  40f6e0:	48 89 c3             	mov    %rax,%rbx
  40f6e3:	e8 28 4a ff ff       	callq  404110 <__cxa_end_catch@plt>
  40f6e8:	48 89 d8             	mov    %rbx,%rax
  40f6eb:	48 89 c7             	mov    %rax,%rdi
  40f6ee:	e8 9d 4a ff ff       	callq  404190 <_Unwind_Resume@plt>
  40f6f3:	e8 38 48 ff ff       	callq  403f30 <__stack_chk_fail@plt>
  40f6f8:	48 83 c4 40          	add    $0x40,%rsp
  40f6fc:	5b                   	pop    %rbx
  40f6fd:	41 5c                	pop    %r12
  40f6ff:	5d                   	pop    %rbp
  40f700:	c3                   	retq   
  40f701:	90                   	nop

000000000040f702 <_ZNSt8__detail15_Hash_code_baseINSt7__cxx1112basic_stringIcSt11char_traitsIcESaIcEEESt4pairIKS6_N2cl7NDRangeEENS_10_Select1stESt4hashIS6_ENS_18_Mod_range_hashingENS_20_Default_ranged_hashELb1EE10_M_extractEv>:
  40f702:	55                   	push   %rbp
  40f703:	48 89 e5             	mov    %rsp,%rbp
  40f706:	48 83 ec 10          	sub    $0x10,%rsp
  40f70a:	48 89 7d f8          	mov    %rdi,-0x8(%rbp)
  40f70e:	48 8b 45 f8          	mov    -0x8(%rbp),%rax
  40f712:	48 89 c7             	mov    %rax,%rdi
  40f715:	e8 87 05 00 00       	callq  40fca1 <_ZNSt8__detail21_Hashtable_ebo_helperILi0ENS_10_Select1stELb1EE6_S_getERS2_>
  40f71a:	c9                   	leaveq 
  40f71b:	c3                   	retq   

000000000040f71c <_ZNSt8__detail21_Hash_node_value_baseISt4pairIKNSt7__cxx1112basic_stringIcSt11char_traitsIcESaIcEEEN2cl7NDRangeEEE4_M_vEv>:
  40f71c:	55                   	push   %rbp
  40f71d:	48 89 e5             	mov    %rsp,%rbp
  40f720:	48 83 ec 10          	sub    $0x10,%rsp
  40f724:	48 89 7d f8          	mov    %rdi,-0x8(%rbp)
  40f728:	48 8b 45 f8          	mov    -0x8(%rbp),%rax
  40f72c:	48 89 c7             	mov    %rax,%rdi
  40f72f:	e8 4c ec ff ff       	callq  40e380 <_ZNSt8__detail21_Hash_node_value_baseISt4pairIKNSt7__cxx1112basic_stringIcSt11char_traitsIcESaIcEEEN2cl7NDRangeEEE9_M_valptrEv>
  40f734:	c9                   	leaveq 
  40f735:	c3                   	retq   

000000000040f736 <_ZNSt10__pair_getILm0EE5__getIKNSt7__cxx1112basic_stringIcSt11char_traitsIcESaIcEEEN2cl7NDRangeEEERT_RSt4pairISB_T0_E>:
  40f736:	55                   	push   %rbp
  40f737:	48 89 e5             	mov    %rsp,%rbp
  40f73a:	48 89 7d f8          	mov    %rdi,-0x8(%rbp)
  40f73e:	48 8b 45 f8          	mov    -0x8(%rbp),%rax
  40f742:	5d                   	pop    %rbp
  40f743:	c3                   	retq   

000000000040f744 <_ZSt3getILm0EKNSt7__cxx1112basic_stringIcSt11char_traitsIcESaIcEEEN2cl7NDRangeEERNSt13tuple_elementIXT_ESt4pairIT0_T1_EE4typeERSD_>:
  40f744:	55                   	push   %rbp
  40f745:	48 89 e5             	mov    %rsp,%rbp
  40f748:	48 83 ec 10          	sub    $0x10,%rsp
  40f74c:	48 89 7d f8          	mov    %rdi,-0x8(%rbp)
  40f750:	48 8b 45 f8          	mov    -0x8(%rbp),%rax
  40f754:	48 89 c7             	mov    %rax,%rdi
  40f757:	e8 da ff ff ff       	callq  40f736 <_ZNSt10__pair_getILm0EE5__getIKNSt7__cxx1112basic_stringIcSt11char_traitsIcESaIcEEEN2cl7NDRangeEEERT_RSt4pairISB_T0_E>
  40f75c:	c9                   	leaveq 
  40f75d:	c3                   	retq   

000000000040f75e <_ZNKSt8__detail10_Select1stclIRSt4pairIKNSt7__cxx1112basic_stringIcSt11char_traitsIcESaIcEEEN2cl7NDRangeEEEEDTcl3getILi0EEcl7forwardIT_Efp_EEEOSE_>:
  40f75e:	55                   	push   %rbp
  40f75f:	48 89 e5             	mov    %rsp,%rbp
  40f762:	48 83 ec 10          	sub    $0x10,%rsp
  40f766:	48 89 7d f8          	mov    %rdi,-0x8(%rbp)
  40f76a:	48 89 75 f0          	mov    %rsi,-0x10(%rbp)
  40f76e:	48 8b 45 f0          	mov    -0x10(%rbp),%rax
  40f772:	48 89 c7             	mov    %rax,%rdi
  40f775:	e8 46 f6 ff ff       	callq  40edc0 <_ZSt7forwardIRSt4pairIKNSt7__cxx1112basic_stringIcSt11char_traitsIcESaIcEEEN2cl7NDRangeEEEOT_RNSt16remove_referenceISC_E4typeE>
  40f77a:	48 89 c7             	mov    %rax,%rdi
  40f77d:	e8 c2 ff ff ff       	callq  40f744 <_ZSt3getILm0EKNSt7__cxx1112basic_stringIcSt11char_traitsIcESaIcEEEN2cl7NDRangeEERNSt13tuple_elementIXT_ESt4pairIT0_T1_EE4typeERSD_>
  40f782:	c9                   	leaveq 
  40f783:	c3                   	retq   

000000000040f784 <_ZNSt10_HashtableINSt7__cxx1112basic_stringIcSt11char_traitsIcESaIcEEESt4pairIKS5_N2cl7NDRangeEESaISA_ENSt8__detail10_Select1stESt8equal_toIS5_ESt4hashIS5_ENSC_18_Mod_range_hashingENSC_20_Default_ranged_hashENSC_20_Prime_rehash_policyENSC_17_Hashtable_traitsILb1ELb0ELb1EEEE21_M_insert_unique_nodeEmmPNSC_10_Hash_nodeISA_Lb1EEE>:
  40f784:	55                   	push   %rbp
  40f785:	48 89 e5             	mov    %rsp,%rbp
  40f788:	53                   	push   %rbx
  40f789:	48 83 ec 68          	sub    $0x68,%rsp
  40f78d:	48 89 7d a8          	mov    %rdi,-0x58(%rbp)
  40f791:	48 89 75 a0          	mov    %rsi,-0x60(%rbp)
  40f795:	48 89 55 98          	mov    %rdx,-0x68(%rbp)
  40f799:	48 89 4d 90          	mov    %rcx,-0x70(%rbp)
  40f79d:	64 48 8b 04 25 28 00 	mov    %fs:0x28,%rax
  40f7a4:	00 00 
  40f7a6:	48 89 45 e8          	mov    %rax,-0x18(%rbp)
  40f7aa:	31 c0                	xor    %eax,%eax
  40f7ac:	48 8b 45 a8          	mov    -0x58(%rbp),%rax
  40f7b0:	48 83 c0 20          	add    $0x20,%rax
  40f7b4:	48 89 c7             	mov    %rax,%rdi
  40f7b7:	e8 0e dc ff ff       	callq  40d3ca <_ZNKSt8__detail20_Prime_rehash_policy8_M_stateEv>
  40f7bc:	48 89 45 c0          	mov    %rax,-0x40(%rbp)
  40f7c0:	48 8d 45 c0          	lea    -0x40(%rbp),%rax
  40f7c4:	48 89 45 c8          	mov    %rax,-0x38(%rbp)
  40f7c8:	48 8b 45 a8          	mov    -0x58(%rbp),%rax
  40f7cc:	48 8b 50 18          	mov    0x18(%rax),%rdx
  40f7d0:	48 8b 45 a8          	mov    -0x58(%rbp),%rax
  40f7d4:	48 8b 40 08          	mov    0x8(%rax),%rax
  40f7d8:	48 8b 4d a8          	mov    -0x58(%rbp),%rcx
  40f7dc:	48 8d 79 20          	lea    0x20(%rcx),%rdi
  40f7e0:	b9 01 00 00 00       	mov    $0x1,%ecx
  40f7e5:	48 89 c6             	mov    %rax,%rsi
  40f7e8:	e8 33 48 ff ff       	callq  404020 <_ZNKSt8__detail20_Prime_rehash_policy14_M_need_rehashEmmm@plt>
  40f7ed:	89 c1                	mov    %eax,%ecx
  40f7ef:	48 89 d0             	mov    %rdx,%rax
  40f7f2:	89 4d d0             	mov    %ecx,-0x30(%rbp)
  40f7f5:	48 89 45 d8          	mov    %rax,-0x28(%rbp)
  40f7f9:	0f b6 45 d0          	movzbl -0x30(%rbp),%eax
  40f7fd:	84 c0                	test   %al,%al
  40f7ff:	74 57                	je     40f858 <_ZNSt10_HashtableINSt7__cxx1112basic_stringIcSt11char_traitsIcESaIcEEESt4pairIKS5_N2cl7NDRangeEESaISA_ENSt8__detail10_Select1stESt8equal_toIS5_ESt4hashIS5_ENSC_18_Mod_range_hashingENSC_20_Default_ranged_hashENSC_20_Prime_rehash_policyENSC_17_Hashtable_traitsILb1ELb0ELb1EEEE21_M_insert_unique_nodeEmmPNSC_10_Hash_nodeISA_Lb1EEE+0xd4>
  40f801:	48 8b 4d d8          	mov    -0x28(%rbp),%rcx
  40f805:	48 8b 55 c8          	mov    -0x38(%rbp),%rdx
  40f809:	48 8b 45 a8          	mov    -0x58(%rbp),%rax
  40f80d:	48 89 ce             	mov    %rcx,%rsi
  40f810:	48 89 c7             	mov    %rax,%rdi
  40f813:	e8 98 04 00 00       	callq  40fcb0 <_ZNSt10_HashtableINSt7__cxx1112basic_stringIcSt11char_traitsIcESaIcEEESt4pairIKS5_N2cl7NDRangeEESaISA_ENSt8__detail10_Select1stESt8equal_toIS5_ESt4hashIS5_ENSC_18_Mod_range_hashingENSC_20_Default_ranged_hashENSC_20_Prime_rehash_policyENSC_17_Hashtable_traitsILb1ELb0ELb1EEEE9_M_rehashEmRKm>
  40f818:	48 8b 45 90          	mov    -0x70(%rbp),%rax
  40f81c:	48 89 c7             	mov    %rax,%rdi
  40f81f:	e8 f8 fe ff ff       	callq  40f71c <_ZNSt8__detail21_Hash_node_value_baseISt4pairIKNSt7__cxx1112basic_stringIcSt11char_traitsIcESaIcEEEN2cl7NDRangeEEE4_M_vEv>
  40f824:	48 89 c3             	mov    %rax,%rbx
  40f827:	48 8b 45 a8          	mov    -0x58(%rbp),%rax
  40f82b:	48 89 c7             	mov    %rax,%rdi
  40f82e:	e8 cf fe ff ff       	callq  40f702 <_ZNSt8__detail15_Hash_code_baseINSt7__cxx1112basic_stringIcSt11char_traitsIcESaIcEEESt4pairIKS6_N2cl7NDRangeEENS_10_Select1stESt4hashIS6_ENS_18_Mod_range_hashingENS_20_Default_ranged_hashELb1EE10_M_extractEv>
  40f833:	48 89 de             	mov    %rbx,%rsi
  40f836:	48 89 c7             	mov    %rax,%rdi
  40f839:	e8 20 ff ff ff       	callq  40f75e <_ZNKSt8__detail10_Select1stclIRSt4pairIKNSt7__cxx1112basic_stringIcSt11char_traitsIcESaIcEEEN2cl7NDRangeEEEEDTcl3getILi0EEcl7forwardIT_Efp_EEEOSE_>
  40f83e:	48 89 c1             	mov    %rax,%rcx
  40f841:	48 8b 55 98          	mov    -0x68(%rbp),%rdx
  40f845:	48 8b 45 a8          	mov    -0x58(%rbp),%rax
  40f849:	48 89 ce             	mov    %rcx,%rsi
  40f84c:	48 89 c7             	mov    %rax,%rdi
  40f84f:	e8 c8 f4 ff ff       	callq  40ed1c <_ZNKSt10_HashtableINSt7__cxx1112basic_stringIcSt11char_traitsIcESaIcEEESt4pairIKS5_N2cl7NDRangeEESaISA_ENSt8__detail10_Select1stESt8equal_toIS5_ESt4hashIS5_ENSC_18_Mod_range_hashingENSC_20_Default_ranged_hashENSC_20_Prime_rehash_policyENSC_17_Hashtable_traitsILb1ELb0ELb1EEEE15_M_bucket_indexERS7_m>
  40f854:	48 89 45 a0          	mov    %rax,-0x60(%rbp)
  40f858:	48 8b 55 98          	mov    -0x68(%rbp),%rdx
  40f85c:	48 8b 4d 90          	mov    -0x70(%rbp),%rcx
  40f860:	48 8b 45 a8          	mov    -0x58(%rbp),%rax
  40f864:	48 89 ce             	mov    %rcx,%rsi
  40f867:	48 89 c7             	mov    %rax,%rdi
  40f86a:	e8 d9 04 00 00       	callq  40fd48 <_ZNKSt8__detail15_Hash_code_baseINSt7__cxx1112basic_stringIcSt11char_traitsIcESaIcEEESt4pairIKS6_N2cl7NDRangeEENS_10_Select1stESt4hashIS6_ENS_18_Mod_range_hashingENS_20_Default_ranged_hashELb1EE13_M_store_codeEPNS_10_Hash_nodeISB_Lb1EEEm>
  40f86f:	48 8b 55 90          	mov    -0x70(%rbp),%rdx
  40f873:	48 8b 4d a0          	mov    -0x60(%rbp),%rcx
  40f877:	48 8b 45 a8          	mov    -0x58(%rbp),%rax
  40f87b:	48 89 ce             	mov    %rcx,%rsi
  40f87e:	48 89 c7             	mov    %rax,%rdi
  40f881:	e8 e2 04 00 00       	callq  40fd68 <_ZNSt10_HashtableINSt7__cxx1112basic_stringIcSt11char_traitsIcESaIcEEESt4pairIKS5_N2cl7NDRangeEESaISA_ENSt8__detail10_Select1stESt8equal_toIS5_ESt4hashIS5_ENSC_18_Mod_range_hashingENSC_20_Default_ranged_hashENSC_20_Prime_rehash_policyENSC_17_Hashtable_traitsILb1ELb0ELb1EEEE22_M_insert_bucket_beginEmPNSC_10_Hash_nodeISA_Lb1EEE>
  40f886:	48 8b 45 a8          	mov    -0x58(%rbp),%rax
  40f88a:	48 8b 40 18          	mov    0x18(%rax),%rax
  40f88e:	48 8d 50 01          	lea    0x1(%rax),%rdx
  40f892:	48 8b 45 a8          	mov    -0x58(%rbp),%rax
  40f896:	48 89 50 18          	mov    %rdx,0x18(%rax)
  40f89a:	48 8b 55 90          	mov    -0x70(%rbp),%rdx
  40f89e:	48 8d 45 b8          	lea    -0x48(%rbp),%rax
  40f8a2:	48 89 d6             	mov    %rdx,%rsi
  40f8a5:	48 89 c7             	mov    %rax,%rdi
  40f8a8:	e8 ed f4 ff ff       	callq  40ed9a <_ZNSt8__detail14_Node_iteratorISt4pairIKNSt7__cxx1112basic_stringIcSt11char_traitsIcESaIcEEEN2cl7NDRangeEELb0ELb1EEC1EPNS_10_Hash_nodeISB_Lb1EEE>
  40f8ad:	48 8b 45 b8          	mov    -0x48(%rbp),%rax
  40f8b1:	48 8b 5d e8          	mov    -0x18(%rbp),%rbx
  40f8b5:	64 48 33 1c 25 28 00 	xor    %fs:0x28,%rbx
  40f8bc:	00 00 
  40f8be:	74 3a                	je     40f8fa <_ZNSt10_HashtableINSt7__cxx1112basic_stringIcSt11char_traitsIcESaIcEEESt4pairIKS5_N2cl7NDRangeEESaISA_ENSt8__detail10_Select1stESt8equal_toIS5_ESt4hashIS5_ENSC_18_Mod_range_hashingENSC_20_Default_ranged_hashENSC_20_Prime_rehash_policyENSC_17_Hashtable_traitsILb1ELb0ELb1EEEE21_M_insert_unique_nodeEmmPNSC_10_Hash_nodeISA_Lb1EEE+0x176>
  40f8c0:	eb 33                	jmp    40f8f5 <_ZNSt10_HashtableINSt7__cxx1112basic_stringIcSt11char_traitsIcESaIcEEESt4pairIKS5_N2cl7NDRangeEESaISA_ENSt8__detail10_Select1stESt8equal_toIS5_ESt4hashIS5_ENSC_18_Mod_range_hashingENSC_20_Default_ranged_hashENSC_20_Prime_rehash_policyENSC_17_Hashtable_traitsILb1ELb0ELb1EEEE21_M_insert_unique_nodeEmmPNSC_10_Hash_nodeISA_Lb1EEE+0x171>
  40f8c2:	48 89 c7             	mov    %rax,%rdi
  40f8c5:	e8 f6 44 ff ff       	callq  403dc0 <__cxa_begin_catch@plt>
  40f8ca:	48 8b 55 90          	mov    -0x70(%rbp),%rdx
  40f8ce:	48 8b 45 a8          	mov    -0x58(%rbp),%rax
  40f8d2:	48 89 d6             	mov    %rdx,%rsi
  40f8d5:	48 89 c7             	mov    %rax,%rdi
  40f8d8:	e8 9b f7 ff ff       	callq  40f078 <_ZNSt8__detail16_Hashtable_allocISaINS_10_Hash_nodeISt4pairIKNSt7__cxx1112basic_stringIcSt11char_traitsIcESaIcEEEN2cl7NDRangeEELb1EEEEE18_M_deallocate_nodeEPSD_>
  40f8dd:	e8 8e 47 ff ff       	callq  404070 <__cxa_rethrow@plt>
  40f8e2:	48 89 c3             	mov    %rax,%rbx
  40f8e5:	e8 26 48 ff ff       	callq  404110 <__cxa_end_catch@plt>
  40f8ea:	48 89 d8             	mov    %rbx,%rax
  40f8ed:	48 89 c7             	mov    %rax,%rdi
  40f8f0:	e8 9b 48 ff ff       	callq  404190 <_Unwind_Resume@plt>
  40f8f5:	e8 36 46 ff ff       	callq  403f30 <__stack_chk_fail@plt>
  40f8fa:	48 83 c4 68          	add    $0x68,%rsp
  40f8fe:	5b                   	pop    %rbx
  40f8ff:	5d                   	pop    %rbp
  40f900:	c3                   	retq   
  40f901:	90                   	nop

000000000040f902 <_ZN9__gnu_cxx16__aligned_bufferISt4pairIKNSt7__cxx1112basic_stringIcSt11char_traitsIcESaIcEEEN2cl7NDRangeEEE7_M_addrEv>:
  40f902:	55                   	push   %rbp
  40f903:	48 89 e5             	mov    %rsp,%rbp
  40f906:	48 89 7d f8          	mov    %rdi,-0x8(%rbp)
  40f90a:	48 8b 45 f8          	mov    -0x8(%rbp),%rax
  40f90e:	5d                   	pop    %rbp
  40f90f:	c3                   	retq   

000000000040f910 <_ZNSt14pointer_traitsIPNSt8__detail10_Hash_nodeISt4pairIKNSt7__cxx1112basic_stringIcSt11char_traitsIcESaIcEEEN2cl7NDRangeEELb1EEEE10pointer_toERSD_>:
  40f910:	55                   	push   %rbp
  40f911:	48 89 e5             	mov    %rsp,%rbp
  40f914:	48 83 ec 10          	sub    $0x10,%rsp
  40f918:	48 89 7d f8          	mov    %rdi,-0x8(%rbp)
  40f91c:	48 8b 45 f8          	mov    -0x8(%rbp),%rax
  40f920:	48 89 c7             	mov    %rax,%rdi
  40f923:	e8 2c 05 00 00       	callq  40fe54 <_ZSt9addressofINSt8__detail10_Hash_nodeISt4pairIKNSt7__cxx1112basic_stringIcSt11char_traitsIcESaIcEEEN2cl7NDRangeEELb1EEEEPT_RSE_>
  40f928:	c9                   	leaveq 
  40f929:	c3                   	retq   

000000000040f92a <_ZNK9__gnu_cxx16__aligned_bufferISt4pairIKNSt7__cxx1112basic_stringIcSt11char_traitsIcESaIcEEEN2cl7NDRangeEEE6_M_ptrEv>:
  40f92a:	55                   	push   %rbp
  40f92b:	48 89 e5             	mov    %rsp,%rbp
  40f92e:	48 83 ec 10          	sub    $0x10,%rsp
  40f932:	48 89 7d f8          	mov    %rdi,-0x8(%rbp)
  40f936:	48 8b 45 f8          	mov    -0x8(%rbp),%rax
  40f93a:	48 89 c7             	mov    %rax,%rdi
  40f93d:	e8 2c 05 00 00       	callq  40fe6e <_ZNK9__gnu_cxx16__aligned_bufferISt4pairIKNSt7__cxx1112basic_stringIcSt11char_traitsIcESaIcEEEN2cl7NDRangeEEE7_M_addrEv>
  40f942:	c9                   	leaveq 
  40f943:	c3                   	retq   

000000000040f944 <_ZN9__gnu_cxx13new_allocatorINSt8__detail10_Hash_nodeISt4pairIKNSt7__cxx1112basic_stringIcSt11char_traitsIcESaIcEEEN2cl7NDRangeEELb1EEEE8allocateEmPKv>:
  40f944:	55                   	push   %rbp
  40f945:	48 89 e5             	mov    %rsp,%rbp
  40f948:	48 83 ec 20          	sub    $0x20,%rsp
  40f94c:	48 89 7d f8          	mov    %rdi,-0x8(%rbp)
  40f950:	48 89 75 f0          	mov    %rsi,-0x10(%rbp)
  40f954:	48 89 55 e8          	mov    %rdx,-0x18(%rbp)
  40f958:	48 8b 45 f8          	mov    -0x8(%rbp),%rax
  40f95c:	48 89 c7             	mov    %rax,%rdi
  40f95f:	e8 18 05 00 00       	callq  40fe7c <_ZNK9__gnu_cxx13new_allocatorINSt8__detail10_Hash_nodeISt4pairIKNSt7__cxx1112basic_stringIcSt11char_traitsIcESaIcEEEN2cl7NDRangeEELb1EEEE8max_sizeEv>
  40f964:	48 3b 45 f0          	cmp    -0x10(%rbp),%rax
  40f968:	0f 92 c0             	setb   %al
  40f96b:	84 c0                	test   %al,%al
  40f96d:	74 05                	je     40f974 <_ZN9__gnu_cxx13new_allocatorINSt8__detail10_Hash_nodeISt4pairIKNSt7__cxx1112basic_stringIcSt11char_traitsIcESaIcEEEN2cl7NDRangeEELb1EEEE8allocateEmPKv+0x30>
  40f96f:	e8 2c 44 ff ff       	callq  403da0 <_ZSt17__throw_bad_allocv@plt>
  40f974:	48 8b 55 f0          	mov    -0x10(%rbp),%rdx
  40f978:	48 89 d0             	mov    %rdx,%rax
  40f97b:	48 c1 e0 02          	shl    $0x2,%rax
  40f97f:	48 01 d0             	add    %rdx,%rax
  40f982:	48 c1 e0 04          	shl    $0x4,%rax
  40f986:	48 89 c7             	mov    %rax,%rdi
  40f989:	e8 62 45 ff ff       	callq  403ef0 <_Znwm@plt>
  40f98e:	c9                   	leaveq 
  40f98f:	c3                   	retq   

000000000040f990 <_ZN9__gnu_cxx13new_allocatorISt4pairIKNSt7__cxx1112basic_stringIcSt11char_traitsIcESaIcEEEN2cl7NDRangeEEEC1Ev>:
  40f990:	55                   	push   %rbp
  40f991:	48 89 e5             	mov    %rsp,%rbp
  40f994:	48 89 7d f8          	mov    %rdi,-0x8(%rbp)
  40f998:	90                   	nop
  40f999:	5d                   	pop    %rbp
  40f99a:	c3                   	retq   
  40f99b:	90                   	nop

000000000040f99c <_ZN9__gnu_cxx13new_allocatorISt4pairIKNSt7__cxx1112basic_stringIcSt11char_traitsIcESaIcEEEN2cl7NDRangeEEED1Ev>:
  40f99c:	55                   	push   %rbp
  40f99d:	48 89 e5             	mov    %rsp,%rbp
  40f9a0:	48 89 7d f8          	mov    %rdi,-0x8(%rbp)
  40f9a4:	90                   	nop
  40f9a5:	5d                   	pop    %rbp
  40f9a6:	c3                   	retq   
  40f9a7:	90                   	nop

000000000040f9a8 <_ZNSt4pairIKNSt7__cxx1112basic_stringIcSt11char_traitsIcESaIcEEEN2cl7NDRangeEEC1ERKS9_>:
  40f9a8:	55                   	push   %rbp
  40f9a9:	48 89 e5             	mov    %rsp,%rbp
  40f9ac:	48 83 ec 10          	sub    $0x10,%rsp
  40f9b0:	48 89 7d f8          	mov    %rdi,-0x8(%rbp)
  40f9b4:	48 89 75 f0          	mov    %rsi,-0x10(%rbp)
  40f9b8:	48 8b 55 f0          	mov    -0x10(%rbp),%rdx
  40f9bc:	48 8b 45 f8          	mov    -0x8(%rbp),%rax
  40f9c0:	48 89 d6             	mov    %rdx,%rsi
  40f9c3:	48 89 c7             	mov    %rax,%rdi
  40f9c6:	e8 05 44 ff ff       	callq  403dd0 <_ZNSt7__cxx1112basic_stringIcSt11char_traitsIcESaIcEEC1ERKS4_@plt>
  40f9cb:	48 8b 45 f8          	mov    -0x8(%rbp),%rax
  40f9cf:	48 8b 55 f0          	mov    -0x10(%rbp),%rdx
  40f9d3:	48 8b 4a 20          	mov    0x20(%rdx),%rcx
  40f9d7:	48 89 48 20          	mov    %rcx,0x20(%rax)
  40f9db:	48 8b 4a 28          	mov    0x28(%rdx),%rcx
  40f9df:	48 89 48 28          	mov    %rcx,0x28(%rax)
  40f9e3:	48 8b 4a 30          	mov    0x30(%rdx),%rcx
  40f9e7:	48 89 48 30          	mov    %rcx,0x30(%rax)
  40f9eb:	48 8b 52 38          	mov    0x38(%rdx),%rdx
  40f9ef:	48 89 50 38          	mov    %rdx,0x38(%rax)
  40f9f3:	90                   	nop
  40f9f4:	c9                   	leaveq 
  40f9f5:	c3                   	retq   

000000000040f9f6 <_ZN9__gnu_cxx13new_allocatorISt4pairIKNSt7__cxx1112basic_stringIcSt11char_traitsIcESaIcEEEN2cl7NDRangeEEE9constructISB_JRKSB_EEEvPT_DpOT0_>:
  40f9f6:	55                   	push   %rbp
  40f9f7:	48 89 e5             	mov    %rsp,%rbp
  40f9fa:	41 55                	push   %r13
  40f9fc:	41 54                	push   %r12
  40f9fe:	53                   	push   %rbx
  40f9ff:	48 83 ec 28          	sub    $0x28,%rsp
  40fa03:	48 89 7d d8          	mov    %rdi,-0x28(%rbp)
  40fa07:	48 89 75 d0          	mov    %rsi,-0x30(%rbp)
  40fa0b:	48 89 55 c8          	mov    %rdx,-0x38(%rbp)
  40fa0f:	48 8b 45 c8          	mov    -0x38(%rbp),%rax
  40fa13:	48 89 c7             	mov    %rax,%rdi
  40fa16:	e8 00 eb ff ff       	callq  40e51b <_ZSt7forwardIRKSt4pairIKNSt7__cxx1112basic_stringIcSt11char_traitsIcESaIcEEEN2cl7NDRangeEEEOT_RNSt16remove_referenceISD_E4typeE>
  40fa1b:	49 89 c5             	mov    %rax,%r13
  40fa1e:	4c 8b 65 d0          	mov    -0x30(%rbp),%r12
  40fa22:	4c 89 e6             	mov    %r12,%rsi
  40fa25:	bf 40 00 00 00       	mov    $0x40,%edi
  40fa2a:	e8 58 54 ff ff       	callq  404e87 <_ZnwmPv>
  40fa2f:	48 89 c3             	mov    %rax,%rbx
  40fa32:	48 85 db             	test   %rbx,%rbx
  40fa35:	74 26                	je     40fa5d <_ZN9__gnu_cxx13new_allocatorISt4pairIKNSt7__cxx1112basic_stringIcSt11char_traitsIcESaIcEEEN2cl7NDRangeEEE9constructISB_JRKSB_EEEvPT_DpOT0_+0x67>
  40fa37:	4c 89 ee             	mov    %r13,%rsi
  40fa3a:	48 89 df             	mov    %rbx,%rdi
  40fa3d:	e8 66 ff ff ff       	callq  40f9a8 <_ZNSt4pairIKNSt7__cxx1112basic_stringIcSt11char_traitsIcESaIcEEEN2cl7NDRangeEEC1ERKS9_>
  40fa42:	eb 19                	jmp    40fa5d <_ZN9__gnu_cxx13new_allocatorISt4pairIKNSt7__cxx1112basic_stringIcSt11char_traitsIcESaIcEEEN2cl7NDRangeEEE9constructISB_JRKSB_EEEvPT_DpOT0_+0x67>
  40fa44:	49 89 c5             	mov    %rax,%r13
  40fa47:	4c 89 e6             	mov    %r12,%rsi
  40fa4a:	48 89 df             	mov    %rbx,%rdi
  40fa4d:	e8 47 54 ff ff       	callq  404e99 <_ZdlPvS_>
  40fa52:	4c 89 e8             	mov    %r13,%rax
  40fa55:	48 89 c7             	mov    %rax,%rdi
  40fa58:	e8 33 47 ff ff       	callq  404190 <_Unwind_Resume@plt>
  40fa5d:	90                   	nop
  40fa5e:	48 83 c4 28          	add    $0x28,%rsp
  40fa62:	5b                   	pop    %rbx
  40fa63:	41 5c                	pop    %r12
  40fa65:	41 5d                	pop    %r13
  40fa67:	5d                   	pop    %rbp
  40fa68:	c3                   	retq   
  40fa69:	90                   	nop

000000000040fa6a <_ZN9__gnu_cxx13new_allocatorINSt8__detail10_Hash_nodeISt4pairIKNSt7__cxx1112basic_stringIcSt11char_traitsIcESaIcEEEN2cl7NDRangeEELb1EEEE10deallocateEPSE_m>:
  40fa6a:	55                   	push   %rbp
  40fa6b:	48 89 e5             	mov    %rsp,%rbp
  40fa6e:	48 83 ec 20          	sub    $0x20,%rsp
  40fa72:	48 89 7d f8          	mov    %rdi,-0x8(%rbp)
  40fa76:	48 89 75 f0          	mov    %rsi,-0x10(%rbp)
  40fa7a:	48 89 55 e8          	mov    %rdx,-0x18(%rbp)
  40fa7e:	48 8b 45 f0          	mov    -0x10(%rbp),%rax
  40fa82:	48 89 c7             	mov    %rax,%rdi
  40fa85:	e8 46 44 ff ff       	callq  403ed0 <_ZdlPv@plt>
  40fa8a:	90                   	nop
  40fa8b:	c9                   	leaveq 
  40fa8c:	c3                   	retq   
  40fa8d:	90                   	nop

000000000040fa8e <_ZNKSt8__detail15_Hash_code_baseINSt7__cxx1112basic_stringIcSt11char_traitsIcESaIcEEESt4pairIKS6_N2cl7NDRangeEENS_10_Select1stESt4hashIS6_ENS_18_Mod_range_hashingENS_20_Default_ranged_hashELb1EE15_M_bucket_indexEPKNS_10_Hash_nodeISB_Lb1EEEm>:
  40fa8e:	55                   	push   %rbp
  40fa8f:	48 89 e5             	mov    %rsp,%rbp
  40fa92:	53                   	push   %rbx
  40fa93:	48 83 ec 28          	sub    $0x28,%rsp
  40fa97:	48 89 7d e8          	mov    %rdi,-0x18(%rbp)
  40fa9b:	48 89 75 e0          	mov    %rsi,-0x20(%rbp)
  40fa9f:	48 89 55 d8          	mov    %rdx,-0x28(%rbp)
  40faa3:	48 8b 45 e0          	mov    -0x20(%rbp),%rax
  40faa7:	48 8b 58 48          	mov    0x48(%rax),%rbx
  40faab:	48 8b 45 e8          	mov    -0x18(%rbp),%rax
  40faaf:	48 89 c7             	mov    %rax,%rdi
  40fab2:	e8 23 01 00 00       	callq  40fbda <_ZNKSt8__detail15_Hash_code_baseINSt7__cxx1112basic_stringIcSt11char_traitsIcESaIcEEESt4pairIKS6_N2cl7NDRangeEENS_10_Select1stESt4hashIS6_ENS_18_Mod_range_hashingENS_20_Default_ranged_hashELb1EE5_M_h2Ev>
  40fab7:	48 89 c1             	mov    %rax,%rcx
  40faba:	48 8b 45 d8          	mov    -0x28(%rbp),%rax
  40fabe:	48 89 c2             	mov    %rax,%rdx
  40fac1:	48 89 de             	mov    %rbx,%rsi
  40fac4:	48 89 cf             	mov    %rcx,%rdi
  40fac7:	e8 b2 d8 ff ff       	callq  40d37e <_ZNKSt8__detail18_Mod_range_hashingclEmm>
  40facc:	48 83 c4 28          	add    $0x28,%rsp
  40fad0:	5b                   	pop    %rbx
  40fad1:	5d                   	pop    %rbp
  40fad2:	c3                   	retq   
  40fad3:	90                   	nop

000000000040fad4 <_ZNSaIPNSt8__detail15_Hash_node_baseEEC1INS_10_Hash_nodeISt4pairIKNSt7__cxx1112basic_stringIcSt11char_traitsIcESaIcEEEN2cl7NDRangeEELb1EEEEERKSaIT_E>:
  40fad4:	55                   	push   %rbp
  40fad5:	48 89 e5             	mov    %rsp,%rbp
  40fad8:	48 83 ec 10          	sub    $0x10,%rsp
  40fadc:	48 89 7d f8          	mov    %rdi,-0x8(%rbp)
  40fae0:	48 89 75 f0          	mov    %rsi,-0x10(%rbp)
  40fae4:	48 8b 45 f8          	mov    -0x8(%rbp),%rax
  40fae8:	48 89 c7             	mov    %rax,%rdi
  40faeb:	e8 a0 03 00 00       	callq  40fe90 <_ZN9__gnu_cxx13new_allocatorIPNSt8__detail15_Hash_node_baseEEC1Ev>
  40faf0:	90                   	nop
  40faf1:	c9                   	leaveq 
  40faf2:	c3                   	retq   
  40faf3:	90                   	nop

000000000040faf4 <_ZNSaIPNSt8__detail15_Hash_node_baseEED1Ev>:
  40faf4:	55                   	push   %rbp
  40faf5:	48 89 e5             	mov    %rsp,%rbp
  40faf8:	48 83 ec 10          	sub    $0x10,%rsp
  40fafc:	48 89 7d f8          	mov    %rdi,-0x8(%rbp)
  40fb00:	48 8b 45 f8          	mov    -0x8(%rbp),%rax
  40fb04:	48 89 c7             	mov    %rax,%rdi
  40fb07:	e8 90 03 00 00       	callq  40fe9c <_ZN9__gnu_cxx13new_allocatorIPNSt8__detail15_Hash_node_baseEED1Ev>
  40fb0c:	90                   	nop
  40fb0d:	c9                   	leaveq 
  40fb0e:	c3                   	retq   

000000000040fb0f <_ZNSt16allocator_traitsISaIPNSt8__detail15_Hash_node_baseEEE8allocateERS3_m>:
  40fb0f:	55                   	push   %rbp
  40fb10:	48 89 e5             	mov    %rsp,%rbp
  40fb13:	48 83 ec 10          	sub    $0x10,%rsp
  40fb17:	48 89 7d f8          	mov    %rdi,-0x8(%rbp)
  40fb1b:	48 89 75 f0          	mov    %rsi,-0x10(%rbp)
  40fb1f:	48 8b 4d f0          	mov    -0x10(%rbp),%rcx
  40fb23:	48 8b 45 f8          	mov    -0x8(%rbp),%rax
  40fb27:	ba 00 00 00 00       	mov    $0x0,%edx
  40fb2c:	48 89 ce             	mov    %rcx,%rsi
  40fb2f:	48 89 c7             	mov    %rax,%rdi
  40fb32:	e8 71 03 00 00       	callq  40fea8 <_ZN9__gnu_cxx13new_allocatorIPNSt8__detail15_Hash_node_baseEE8allocateEmPKv>
  40fb37:	c9                   	leaveq 
  40fb38:	c3                   	retq   

000000000040fb39 <_ZSt11__addressofIPNSt8__detail15_Hash_node_baseEEPT_RS3_>:
  40fb39:	55                   	push   %rbp
  40fb3a:	48 89 e5             	mov    %rsp,%rbp
  40fb3d:	48 89 7d f8          	mov    %rdi,-0x8(%rbp)
  40fb41:	48 8b 45 f8          	mov    -0x8(%rbp),%rax
  40fb45:	5d                   	pop    %rbp
  40fb46:	c3                   	retq   
  40fb47:	90                   	nop

000000000040fb48 <_ZNSt4pairIKNSt7__cxx1112basic_stringIcSt11char_traitsIcESaIcEEEN2cl7NDRangeEED1Ev>:
  40fb48:	55                   	push   %rbp
  40fb49:	48 89 e5             	mov    %rsp,%rbp
  40fb4c:	48 83 ec 10          	sub    $0x10,%rsp
  40fb50:	48 89 7d f8          	mov    %rdi,-0x8(%rbp)
  40fb54:	48 8b 45 f8          	mov    -0x8(%rbp),%rax
  40fb58:	48 89 c7             	mov    %rax,%rdi
  40fb5b:	e8 30 43 ff ff       	callq  403e90 <_ZNSt7__cxx1112basic_stringIcSt11char_traitsIcESaIcEED1Ev@plt>
  40fb60:	90                   	nop
  40fb61:	c9                   	leaveq 
  40fb62:	c3                   	retq   
  40fb63:	90                   	nop

000000000040fb64 <_ZN9__gnu_cxx13new_allocatorISt4pairIKNSt7__cxx1112basic_stringIcSt11char_traitsIcESaIcEEEN2cl7NDRangeEEE7destroyISB_EEvPT_>:
  40fb64:	55                   	push   %rbp
  40fb65:	48 89 e5             	mov    %rsp,%rbp
  40fb68:	48 83 ec 10          	sub    $0x10,%rsp
  40fb6c:	48 89 7d f8          	mov    %rdi,-0x8(%rbp)
  40fb70:	48 89 75 f0          	mov    %rsi,-0x10(%rbp)
  40fb74:	48 8b 45 f0          	mov    -0x10(%rbp),%rax
  40fb78:	48 89 c7             	mov    %rax,%rdi
  40fb7b:	e8 c8 ff ff ff       	callq  40fb48 <_ZNSt4pairIKNSt7__cxx1112basic_stringIcSt11char_traitsIcESaIcEEEN2cl7NDRangeEED1Ev>
  40fb80:	90                   	nop
  40fb81:	c9                   	leaveq 
  40fb82:	c3                   	retq   

000000000040fb83 <_ZNSt14pointer_traitsIPPNSt8__detail15_Hash_node_baseEE10pointer_toERS2_>:
  40fb83:	55                   	push   %rbp
  40fb84:	48 89 e5             	mov    %rsp,%rbp
  40fb87:	48 83 ec 10          	sub    $0x10,%rsp
  40fb8b:	48 89 7d f8          	mov    %rdi,-0x8(%rbp)
  40fb8f:	48 8b 45 f8          	mov    -0x8(%rbp),%rax
  40fb93:	48 89 c7             	mov    %rax,%rdi
  40fb96:	e8 4f 03 00 00       	callq  40feea <_ZSt9addressofIPNSt8__detail15_Hash_node_baseEEPT_RS3_>
  40fb9b:	c9                   	leaveq 
  40fb9c:	c3                   	retq   

000000000040fb9d <_ZNSt16allocator_traitsISaIPNSt8__detail15_Hash_node_baseEEE10deallocateERS3_PS2_m>:
  40fb9d:	55                   	push   %rbp
  40fb9e:	48 89 e5             	mov    %rsp,%rbp
  40fba1:	48 83 ec 20          	sub    $0x20,%rsp
  40fba5:	48 89 7d f8          	mov    %rdi,-0x8(%rbp)
  40fba9:	48 89 75 f0          	mov    %rsi,-0x10(%rbp)
  40fbad:	48 89 55 e8          	mov    %rdx,-0x18(%rbp)
  40fbb1:	48 8b 55 e8          	mov    -0x18(%rbp),%rdx
  40fbb5:	48 8b 4d f0          	mov    -0x10(%rbp),%rcx
  40fbb9:	48 8b 45 f8          	mov    -0x8(%rbp),%rax
  40fbbd:	48 89 ce             	mov    %rcx,%rsi
  40fbc0:	48 89 c7             	mov    %rax,%rdi
  40fbc3:	e8 3c 03 00 00       	callq  40ff04 <_ZN9__gnu_cxx13new_allocatorIPNSt8__detail15_Hash_node_baseEE10deallocateEPS3_m>
  40fbc8:	90                   	nop
  40fbc9:	c9                   	leaveq 
  40fbca:	c3                   	retq   

000000000040fbcb <_ZNSt8__detail21_Hashtable_ebo_helperILi1ESt4hashINSt7__cxx1112basic_stringIcSt11char_traitsIcESaIcEEEELb1EE7_S_cgetERKS9_>:
  40fbcb:	55                   	push   %rbp
  40fbcc:	48 89 e5             	mov    %rsp,%rbp
  40fbcf:	48 89 7d f8          	mov    %rdi,-0x8(%rbp)
  40fbd3:	48 8b 45 f8          	mov    -0x8(%rbp),%rax
  40fbd7:	5d                   	pop    %rbp
  40fbd8:	c3                   	retq   
  40fbd9:	90                   	nop

000000000040fbda <_ZNKSt8__detail15_Hash_code_baseINSt7__cxx1112basic_stringIcSt11char_traitsIcESaIcEEESt4pairIKS6_N2cl7NDRangeEENS_10_Select1stESt4hashIS6_ENS_18_Mod_range_hashingENS_20_Default_ranged_hashELb1EE5_M_h2Ev>:
  40fbda:	55                   	push   %rbp
  40fbdb:	48 89 e5             	mov    %rsp,%rbp
  40fbde:	48 83 ec 10          	sub    $0x10,%rsp
  40fbe2:	48 89 7d f8          	mov    %rdi,-0x8(%rbp)
  40fbe6:	48 8b 45 f8          	mov    -0x8(%rbp),%rax
  40fbea:	48 89 c7             	mov    %rax,%rdi
  40fbed:	e8 35 03 00 00       	callq  40ff27 <_ZNSt8__detail21_Hashtable_ebo_helperILi2ENS_18_Mod_range_hashingELb1EE7_S_cgetERKS2_>
  40fbf2:	c9                   	leaveq 
  40fbf3:	c3                   	retq   

000000000040fbf4 <_ZNKSt8__detail15_Hashtable_baseINSt7__cxx1112basic_stringIcSt11char_traitsIcESaIcEEESt4pairIKS6_N2cl7NDRangeEENS_10_Select1stESt8equal_toIS6_ESt4hashIS6_ENS_18_Mod_range_hashingENS_20_Default_ranged_hashENS_17_Hashtable_traitsILb1ELb0ELb1EEEE9_M_equalsERS8_mPNS_10_Hash_nodeISB_Lb1EEE>:
  40fbf4:	55                   	push   %rbp
  40fbf5:	48 89 e5             	mov    %rsp,%rbp
  40fbf8:	53                   	push   %rbx
  40fbf9:	48 83 ec 28          	sub    $0x28,%rsp
  40fbfd:	48 89 7d e8          	mov    %rdi,-0x18(%rbp)
  40fc01:	48 89 75 e0          	mov    %rsi,-0x20(%rbp)
  40fc05:	48 89 55 d8          	mov    %rdx,-0x28(%rbp)
  40fc09:	48 89 4d d0          	mov    %rcx,-0x30(%rbp)
  40fc0d:	48 8b 45 e8          	mov    -0x18(%rbp),%rax
  40fc11:	48 89 c7             	mov    %rax,%rdi
  40fc14:	e8 a7 03 00 00       	callq  40ffc0 <_ZNKSt8__detail15_Hash_code_baseINSt7__cxx1112basic_stringIcSt11char_traitsIcESaIcEEESt4pairIKS6_N2cl7NDRangeEENS_10_Select1stESt4hashIS6_ENS_18_Mod_range_hashingENS_20_Default_ranged_hashELb1EE10_M_extractEv>
  40fc19:	48 89 c3             	mov    %rax,%rbx
  40fc1c:	48 8b 45 e8          	mov    -0x18(%rbp),%rax
  40fc20:	48 89 c7             	mov    %rax,%rdi
  40fc23:	e8 7e 03 00 00       	callq  40ffa6 <_ZNKSt8__detail15_Hashtable_baseINSt7__cxx1112basic_stringIcSt11char_traitsIcESaIcEEESt4pairIKS6_N2cl7NDRangeEENS_10_Select1stESt8equal_toIS6_ESt4hashIS6_ENS_18_Mod_range_hashingENS_20_Default_ranged_hashENS_17_Hashtable_traitsILb1ELb0ELb1EEEE5_M_eqEv>
  40fc28:	48 89 c7             	mov    %rax,%rdi
  40fc2b:	48 8b 4d d0          	mov    -0x30(%rbp),%rcx
  40fc2f:	48 8b 55 d8          	mov    -0x28(%rbp),%rdx
  40fc33:	48 8b 45 e0          	mov    -0x20(%rbp),%rax
  40fc37:	49 89 c8             	mov    %rcx,%r8
  40fc3a:	48 89 d1             	mov    %rdx,%rcx
  40fc3d:	48 89 c2             	mov    %rax,%rdx
  40fc40:	48 89 de             	mov    %rbx,%rsi
  40fc43:	e8 ed 02 00 00       	callq  40ff35 <_ZNSt8__detail13_Equal_helperINSt7__cxx1112basic_stringIcSt11char_traitsIcESaIcEEESt4pairIKS6_N2cl7NDRangeEENS_10_Select1stESt8equal_toIS6_EmLb1EE9_S_equalsERKSE_RKSC_RS8_mPNS_10_Hash_nodeISB_Lb1EEE>
  40fc48:	48 83 c4 28          	add    $0x28,%rsp
  40fc4c:	5b                   	pop    %rbx
  40fc4d:	5d                   	pop    %rbp
  40fc4e:	c3                   	retq   

000000000040fc4f <_ZNSt16allocator_traitsISaISt4pairIKNSt7__cxx1112basic_stringIcSt11char_traitsIcESaIcEEEN2cl7NDRangeEEEE9constructISA_JRS7_RS9_EEEvRSB_PT_DpOT0_>:
  40fc4f:	55                   	push   %rbp
  40fc50:	48 89 e5             	mov    %rsp,%rbp
  40fc53:	53                   	push   %rbx
  40fc54:	48 83 ec 28          	sub    $0x28,%rsp
  40fc58:	48 89 7d e8          	mov    %rdi,-0x18(%rbp)
  40fc5c:	48 89 75 e0          	mov    %rsi,-0x20(%rbp)
  40fc60:	48 89 55 d8          	mov    %rdx,-0x28(%rbp)
  40fc64:	48 89 4d d0          	mov    %rcx,-0x30(%rbp)
  40fc68:	48 8b 45 d0          	mov    -0x30(%rbp),%rax
  40fc6c:	48 89 c7             	mov    %rax,%rdi
  40fc6f:	e8 bc df ff ff       	callq  40dc30 <_ZSt7forwardIRN2cl7NDRangeEEOT_RNSt16remove_referenceIS3_E4typeE>
  40fc74:	48 89 c3             	mov    %rax,%rbx
  40fc77:	48 8b 45 d8          	mov    -0x28(%rbp),%rax
  40fc7b:	48 89 c7             	mov    %rax,%rdi
  40fc7e:	e8 9f df ff ff       	callq  40dc22 <_ZSt7forwardIRKNSt7__cxx1112basic_stringIcSt11char_traitsIcESaIcEEEEOT_RNSt16remove_referenceIS8_E4typeE>
  40fc83:	48 89 c2             	mov    %rax,%rdx
  40fc86:	48 8b 75 e0          	mov    -0x20(%rbp),%rsi
  40fc8a:	48 8b 45 e8          	mov    -0x18(%rbp),%rax
  40fc8e:	48 89 d9             	mov    %rbx,%rcx
  40fc91:	48 89 c7             	mov    %rax,%rdi
  40fc94:	e8 9d 03 00 00       	callq  410036 <_ZN9__gnu_cxx13new_allocatorISt4pairIKNSt7__cxx1112basic_stringIcSt11char_traitsIcESaIcEEEN2cl7NDRangeEEE9constructISB_JRS8_RSA_EEEvPT_DpOT0_>
  40fc99:	90                   	nop
  40fc9a:	48 83 c4 28          	add    $0x28,%rsp
  40fc9e:	5b                   	pop    %rbx
  40fc9f:	5d                   	pop    %rbp
  40fca0:	c3                   	retq   

000000000040fca1 <_ZNSt8__detail21_Hashtable_ebo_helperILi0ENS_10_Select1stELb1EE6_S_getERS2_>:
  40fca1:	55                   	push   %rbp
  40fca2:	48 89 e5             	mov    %rsp,%rbp
  40fca5:	48 89 7d f8          	mov    %rdi,-0x8(%rbp)
  40fca9:	48 8b 45 f8          	mov    -0x8(%rbp),%rax
  40fcad:	5d                   	pop    %rbp
  40fcae:	c3                   	retq   
  40fcaf:	90                   	nop

000000000040fcb0 <_ZNSt10_HashtableINSt7__cxx1112basic_stringIcSt11char_traitsIcESaIcEEESt4pairIKS5_N2cl7NDRangeEESaISA_ENSt8__detail10_Select1stESt8equal_toIS5_ESt4hashIS5_ENSC_18_Mod_range_hashingENSC_20_Default_ranged_hashENSC_20_Prime_rehash_policyENSC_17_Hashtable_traitsILb1ELb0ELb1EEEE9_M_rehashEmRKm>:
  40fcb0:	55                   	push   %rbp
  40fcb1:	48 89 e5             	mov    %rsp,%rbp
  40fcb4:	53                   	push   %rbx
  40fcb5:	48 83 ec 38          	sub    $0x38,%rsp
  40fcb9:	48 89 7d d8          	mov    %rdi,-0x28(%rbp)
  40fcbd:	48 89 75 d0          	mov    %rsi,-0x30(%rbp)
  40fcc1:	48 89 55 c8          	mov    %rdx,-0x38(%rbp)
  40fcc5:	64 48 8b 04 25 28 00 	mov    %fs:0x28,%rax
  40fccc:	00 00 
  40fcce:	48 89 45 e8          	mov    %rax,-0x18(%rbp)
  40fcd2:	31 c0                	xor    %eax,%eax
  40fcd4:	48 8b 55 d0          	mov    -0x30(%rbp),%rdx
  40fcd8:	48 8b 45 d8          	mov    -0x28(%rbp),%rax
  40fcdc:	48 83 ec 08          	sub    $0x8,%rsp
  40fce0:	51                   	push   %rcx
  40fce1:	48 89 d6             	mov    %rdx,%rsi
  40fce4:	48 89 c7             	mov    %rax,%rdi
  40fce7:	e8 d8 03 00 00       	callq  4100c4 <_ZNSt10_HashtableINSt7__cxx1112basic_stringIcSt11char_traitsIcESaIcEEESt4pairIKS5_N2cl7NDRangeEESaISA_ENSt8__detail10_Select1stESt8equal_toIS5_ESt4hashIS5_ENSC_18_Mod_range_hashingENSC_20_Default_ranged_hashENSC_20_Prime_rehash_policyENSC_17_Hashtable_traitsILb1ELb0ELb1EEEE13_M_rehash_auxEmSt17integral_constantIbLb1EE>
  40fcec:	48 83 c4 10          	add    $0x10,%rsp
  40fcf0:	90                   	nop
  40fcf1:	48 8b 45 e8          	mov    -0x18(%rbp),%rax
  40fcf5:	64 48 33 04 25 28 00 	xor    %fs:0x28,%rax
  40fcfc:	00 00 
  40fcfe:	74 41                	je     40fd41 <_ZNSt10_HashtableINSt7__cxx1112basic_stringIcSt11char_traitsIcESaIcEEESt4pairIKS5_N2cl7NDRangeEESaISA_ENSt8__detail10_Select1stESt8equal_toIS5_ESt4hashIS5_ENSC_18_Mod_range_hashingENSC_20_Default_ranged_hashENSC_20_Prime_rehash_policyENSC_17_Hashtable_traitsILb1ELb0ELb1EEEE9_M_rehashEmRKm+0x91>
  40fd00:	eb 3a                	jmp    40fd3c <_ZNSt10_HashtableINSt7__cxx1112basic_stringIcSt11char_traitsIcESaIcEEESt4pairIKS5_N2cl7NDRangeEESaISA_ENSt8__detail10_Select1stESt8equal_toIS5_ESt4hashIS5_ENSC_18_Mod_range_hashingENSC_20_Default_ranged_hashENSC_20_Prime_rehash_policyENSC_17_Hashtable_traitsILb1ELb0ELb1EEEE9_M_rehashEmRKm+0x8c>
  40fd02:	48 89 c7             	mov    %rax,%rdi
  40fd05:	e8 b6 40 ff ff       	callq  403dc0 <__cxa_begin_catch@plt>
  40fd0a:	48 8b 45 c8          	mov    -0x38(%rbp),%rax
  40fd0e:	48 8b 00             	mov    (%rax),%rax
  40fd11:	48 8b 55 d8          	mov    -0x28(%rbp),%rdx
  40fd15:	48 83 c2 20          	add    $0x20,%rdx
  40fd19:	48 89 c6             	mov    %rax,%rsi
  40fd1c:	48 89 d7             	mov    %rdx,%rdi
  40fd1f:	e8 d0 d6 ff ff       	callq  40d3f4 <_ZNSt8__detail20_Prime_rehash_policy8_M_resetEm>
  40fd24:	e8 47 43 ff ff       	callq  404070 <__cxa_rethrow@plt>
  40fd29:	48 89 c3             	mov    %rax,%rbx
  40fd2c:	e8 df 43 ff ff       	callq  404110 <__cxa_end_catch@plt>
  40fd31:	48 89 d8             	mov    %rbx,%rax
  40fd34:	48 89 c7             	mov    %rax,%rdi
  40fd37:	e8 54 44 ff ff       	callq  404190 <_Unwind_Resume@plt>
  40fd3c:	e8 ef 41 ff ff       	callq  403f30 <__stack_chk_fail@plt>
  40fd41:	48 8b 5d f8          	mov    -0x8(%rbp),%rbx
  40fd45:	c9                   	leaveq 
  40fd46:	c3                   	retq   
  40fd47:	90                   	nop

000000000040fd48 <_ZNKSt8__detail15_Hash_code_baseINSt7__cxx1112basic_stringIcSt11char_traitsIcESaIcEEESt4pairIKS6_N2cl7NDRangeEENS_10_Select1stESt4hashIS6_ENS_18_Mod_range_hashingENS_20_Default_ranged_hashELb1EE13_M_store_codeEPNS_10_Hash_nodeISB_Lb1EEEm>:
  40fd48:	55                   	push   %rbp
  40fd49:	48 89 e5             	mov    %rsp,%rbp
  40fd4c:	48 89 7d f8          	mov    %rdi,-0x8(%rbp)
  40fd50:	48 89 75 f0          	mov    %rsi,-0x10(%rbp)
  40fd54:	48 89 55 e8          	mov    %rdx,-0x18(%rbp)
  40fd58:	48 8b 45 f0          	mov    -0x10(%rbp),%rax
  40fd5c:	48 8b 55 e8          	mov    -0x18(%rbp),%rdx
  40fd60:	48 89 50 48          	mov    %rdx,0x48(%rax)
  40fd64:	90                   	nop
  40fd65:	5d                   	pop    %rbp
  40fd66:	c3                   	retq   
  40fd67:	90                   	nop

000000000040fd68 <_ZNSt10_HashtableINSt7__cxx1112basic_stringIcSt11char_traitsIcESaIcEEESt4pairIKS5_N2cl7NDRangeEESaISA_ENSt8__detail10_Select1stESt8equal_toIS5_ESt4hashIS5_ENSC_18_Mod_range_hashingENSC_20_Default_ranged_hashENSC_20_Prime_rehash_policyENSC_17_Hashtable_traitsILb1ELb0ELb1EEEE22_M_insert_bucket_beginEmPNSC_10_Hash_nodeISA_Lb1EEE>:
  40fd68:	55                   	push   %rbp
  40fd69:	48 89 e5             	mov    %rsp,%rbp
  40fd6c:	53                   	push   %rbx
  40fd6d:	48 83 ec 28          	sub    $0x28,%rsp
  40fd71:	48 89 7d e8          	mov    %rdi,-0x18(%rbp)
  40fd75:	48 89 75 e0          	mov    %rsi,-0x20(%rbp)
  40fd79:	48 89 55 d8          	mov    %rdx,-0x28(%rbp)
  40fd7d:	48 8b 45 e8          	mov    -0x18(%rbp),%rax
  40fd81:	48 8b 00             	mov    (%rax),%rax
  40fd84:	48 8b 55 e0          	mov    -0x20(%rbp),%rdx
  40fd88:	48 c1 e2 03          	shl    $0x3,%rdx
  40fd8c:	48 01 d0             	add    %rdx,%rax
  40fd8f:	48 8b 00             	mov    (%rax),%rax
  40fd92:	48 85 c0             	test   %rax,%rax
  40fd95:	74 3d                	je     40fdd4 <_ZNSt10_HashtableINSt7__cxx1112basic_stringIcSt11char_traitsIcESaIcEEESt4pairIKS5_N2cl7NDRangeEESaISA_ENSt8__detail10_Select1stESt8equal_toIS5_ESt4hashIS5_ENSC_18_Mod_range_hashingENSC_20_Default_ranged_hashENSC_20_Prime_rehash_policyENSC_17_Hashtable_traitsILb1ELb0ELb1EEEE22_M_insert_bucket_beginEmPNSC_10_Hash_nodeISA_Lb1EEE+0x6c>
  40fd97:	48 8b 45 e8          	mov    -0x18(%rbp),%rax
  40fd9b:	48 8b 00             	mov    (%rax),%rax
  40fd9e:	48 8b 55 e0          	mov    -0x20(%rbp),%rdx
  40fda2:	48 c1 e2 03          	shl    $0x3,%rdx
  40fda6:	48 01 d0             	add    %rdx,%rax
  40fda9:	48 8b 00             	mov    (%rax),%rax
  40fdac:	48 8b 10             	mov    (%rax),%rdx
  40fdaf:	48 8b 45 d8          	mov    -0x28(%rbp),%rax
  40fdb3:	48 89 10             	mov    %rdx,(%rax)
  40fdb6:	48 8b 45 e8          	mov    -0x18(%rbp),%rax
  40fdba:	48 8b 00             	mov    (%rax),%rax
  40fdbd:	48 8b 55 e0          	mov    -0x20(%rbp),%rdx
  40fdc1:	48 c1 e2 03          	shl    $0x3,%rdx
  40fdc5:	48 01 d0             	add    %rdx,%rax
  40fdc8:	48 8b 00             	mov    (%rax),%rax
  40fdcb:	48 8b 55 d8          	mov    -0x28(%rbp),%rdx
  40fdcf:	48 89 10             	mov    %rdx,(%rax)
  40fdd2:	eb 78                	jmp    40fe4c <_ZNSt10_HashtableINSt7__cxx1112basic_stringIcSt11char_traitsIcESaIcEEESt4pairIKS5_N2cl7NDRangeEESaISA_ENSt8__detail10_Select1stESt8equal_toIS5_ESt4hashIS5_ENSC_18_Mod_range_hashingENSC_20_Default_ranged_hashENSC_20_Prime_rehash_policyENSC_17_Hashtable_traitsILb1ELb0ELb1EEEE22_M_insert_bucket_beginEmPNSC_10_Hash_nodeISA_Lb1EEE+0xe4>
  40fdd4:	48 8b 45 e8          	mov    -0x18(%rbp),%rax
  40fdd8:	48 8b 50 10          	mov    0x10(%rax),%rdx
  40fddc:	48 8b 45 d8          	mov    -0x28(%rbp),%rax
  40fde0:	48 89 10             	mov    %rdx,(%rax)
  40fde3:	48 8b 45 e8          	mov    -0x18(%rbp),%rax
  40fde7:	48 8b 55 d8          	mov    -0x28(%rbp),%rdx
  40fdeb:	48 89 50 10          	mov    %rdx,0x10(%rax)
  40fdef:	48 8b 45 d8          	mov    -0x28(%rbp),%rax
  40fdf3:	48 8b 00             	mov    (%rax),%rax
  40fdf6:	48 85 c0             	test   %rax,%rax
  40fdf9:	74 34                	je     40fe2f <_ZNSt10_HashtableINSt7__cxx1112basic_stringIcSt11char_traitsIcESaIcEEESt4pairIKS5_N2cl7NDRangeEESaISA_ENSt8__detail10_Select1stESt8equal_toIS5_ESt4hashIS5_ENSC_18_Mod_range_hashingENSC_20_Default_ranged_hashENSC_20_Prime_rehash_policyENSC_17_Hashtable_traitsILb1ELb0ELb1EEEE22_M_insert_bucket_beginEmPNSC_10_Hash_nodeISA_Lb1EEE+0xc7>
  40fdfb:	48 8b 45 e8          	mov    -0x18(%rbp),%rax
  40fdff:	48 8b 18             	mov    (%rax),%rbx
  40fe02:	48 8b 45 d8          	mov    -0x28(%rbp),%rax
  40fe06:	48 89 c7             	mov    %rax,%rdi
  40fe09:	e8 58 f2 ff ff       	callq  40f066 <_ZNKSt8__detail10_Hash_nodeISt4pairIKNSt7__cxx1112basic_stringIcSt11char_traitsIcESaIcEEEN2cl7NDRangeEELb1EE7_M_nextEv>
  40fe0e:	48 89 c2             	mov    %rax,%rdx
  40fe11:	48 8b 45 e8          	mov    -0x18(%rbp),%rax
  40fe15:	48 89 d6             	mov    %rdx,%rsi
  40fe18:	48 89 c7             	mov    %rax,%rdi
  40fe1b:	e8 56 f4 ff ff       	callq  40f276 <_ZNKSt10_HashtableINSt7__cxx1112basic_stringIcSt11char_traitsIcESaIcEEESt4pairIKS5_N2cl7NDRangeEESaISA_ENSt8__detail10_Select1stESt8equal_toIS5_ESt4hashIS5_ENSC_18_Mod_range_hashingENSC_20_Default_ranged_hashENSC_20_Prime_rehash_policyENSC_17_Hashtable_traitsILb1ELb0ELb1EEEE15_M_bucket_indexEPNSC_10_Hash_nodeISA_Lb1EEE>
  40fe20:	48 c1 e0 03          	shl    $0x3,%rax
  40fe24:	48 8d 14 03          	lea    (%rbx,%rax,1),%rdx
  40fe28:	48 8b 45 d8          	mov    -0x28(%rbp),%rax
  40fe2c:	48 89 02             	mov    %rax,(%rdx)
  40fe2f:	48 8b 45 e8          	mov    -0x18(%rbp),%rax
  40fe33:	48 8b 00             	mov    (%rax),%rax
  40fe36:	48 8b 55 e0          	mov    -0x20(%rbp),%rdx
  40fe3a:	48 c1 e2 03          	shl    $0x3,%rdx
  40fe3e:	48 01 d0             	add    %rdx,%rax
  40fe41:	48 8b 55 e8          	mov    -0x18(%rbp),%rdx
  40fe45:	48 83 c2 10          	add    $0x10,%rdx
  40fe49:	48 89 10             	mov    %rdx,(%rax)
  40fe4c:	90                   	nop
  40fe4d:	48 83 c4 28          	add    $0x28,%rsp
  40fe51:	5b                   	pop    %rbx
  40fe52:	5d                   	pop    %rbp
  40fe53:	c3                   	retq   

000000000040fe54 <_ZSt9addressofINSt8__detail10_Hash_nodeISt4pairIKNSt7__cxx1112basic_stringIcSt11char_traitsIcESaIcEEEN2cl7NDRangeEELb1EEEEPT_RSE_>:
  40fe54:	55                   	push   %rbp
  40fe55:	48 89 e5             	mov    %rsp,%rbp
  40fe58:	48 83 ec 10          	sub    $0x10,%rsp
  40fe5c:	48 89 7d f8          	mov    %rdi,-0x8(%rbp)
  40fe60:	48 8b 45 f8          	mov    -0x8(%rbp),%rax
  40fe64:	48 89 c7             	mov    %rax,%rdi
  40fe67:	e8 36 f3 ff ff       	callq  40f1a2 <_ZSt11__addressofINSt8__detail10_Hash_nodeISt4pairIKNSt7__cxx1112basic_stringIcSt11char_traitsIcESaIcEEEN2cl7NDRangeEELb1EEEEPT_RSE_>
  40fe6c:	c9                   	leaveq 
  40fe6d:	c3                   	retq   

000000000040fe6e <_ZNK9__gnu_cxx16__aligned_bufferISt4pairIKNSt7__cxx1112basic_stringIcSt11char_traitsIcESaIcEEEN2cl7NDRangeEEE7_M_addrEv>:
  40fe6e:	55                   	push   %rbp
  40fe6f:	48 89 e5             	mov    %rsp,%rbp
  40fe72:	48 89 7d f8          	mov    %rdi,-0x8(%rbp)
  40fe76:	48 8b 45 f8          	mov    -0x8(%rbp),%rax
  40fe7a:	5d                   	pop    %rbp
  40fe7b:	c3                   	retq   

000000000040fe7c <_ZNK9__gnu_cxx13new_allocatorINSt8__detail10_Hash_nodeISt4pairIKNSt7__cxx1112basic_stringIcSt11char_traitsIcESaIcEEEN2cl7NDRangeEELb1EEEE8max_sizeEv>:
  40fe7c:	55                   	push   %rbp
  40fe7d:	48 89 e5             	mov    %rsp,%rbp
  40fe80:	48 89 7d f8          	mov    %rdi,-0x8(%rbp)
  40fe84:	48 b8 33 33 33 33 33 	movabs $0x333333333333333,%rax
  40fe8b:	33 33 03 
  40fe8e:	5d                   	pop    %rbp
  40fe8f:	c3                   	retq   

000000000040fe90 <_ZN9__gnu_cxx13new_allocatorIPNSt8__detail15_Hash_node_baseEEC1Ev>:
  40fe90:	55                   	push   %rbp
  40fe91:	48 89 e5             	mov    %rsp,%rbp
  40fe94:	48 89 7d f8          	mov    %rdi,-0x8(%rbp)
  40fe98:	90                   	nop
  40fe99:	5d                   	pop    %rbp
  40fe9a:	c3                   	retq   
  40fe9b:	90                   	nop

000000000040fe9c <_ZN9__gnu_cxx13new_allocatorIPNSt8__detail15_Hash_node_baseEED1Ev>:
  40fe9c:	55                   	push   %rbp
  40fe9d:	48 89 e5             	mov    %rsp,%rbp
  40fea0:	48 89 7d f8          	mov    %rdi,-0x8(%rbp)
  40fea4:	90                   	nop
  40fea5:	5d                   	pop    %rbp
  40fea6:	c3                   	retq   
  40fea7:	90                   	nop

000000000040fea8 <_ZN9__gnu_cxx13new_allocatorIPNSt8__detail15_Hash_node_baseEE8allocateEmPKv>:
  40fea8:	55                   	push   %rbp
  40fea9:	48 89 e5             	mov    %rsp,%rbp
  40feac:	48 83 ec 20          	sub    $0x20,%rsp
  40feb0:	48 89 7d f8          	mov    %rdi,-0x8(%rbp)
  40feb4:	48 89 75 f0          	mov    %rsi,-0x10(%rbp)
  40feb8:	48 89 55 e8          	mov    %rdx,-0x18(%rbp)
  40febc:	48 8b 45 f8          	mov    -0x8(%rbp),%rax
  40fec0:	48 89 c7             	mov    %rax,%rdi
  40fec3:	e8 72 03 00 00       	callq  41023a <_ZNK9__gnu_cxx13new_allocatorIPNSt8__detail15_Hash_node_baseEE8max_sizeEv>
  40fec8:	48 3b 45 f0          	cmp    -0x10(%rbp),%rax
  40fecc:	0f 92 c0             	setb   %al
  40fecf:	84 c0                	test   %al,%al
  40fed1:	74 05                	je     40fed8 <_ZN9__gnu_cxx13new_allocatorIPNSt8__detail15_Hash_node_baseEE8allocateEmPKv+0x30>
  40fed3:	e8 c8 3e ff ff       	callq  403da0 <_ZSt17__throw_bad_allocv@plt>
  40fed8:	48 8b 45 f0          	mov    -0x10(%rbp),%rax
  40fedc:	48 c1 e0 03          	shl    $0x3,%rax
  40fee0:	48 89 c7             	mov    %rax,%rdi
  40fee3:	e8 08 40 ff ff       	callq  403ef0 <_Znwm@plt>
  40fee8:	c9                   	leaveq 
  40fee9:	c3                   	retq   

000000000040feea <_ZSt9addressofIPNSt8__detail15_Hash_node_baseEEPT_RS3_>:
  40feea:	55                   	push   %rbp
  40feeb:	48 89 e5             	mov    %rsp,%rbp
  40feee:	48 83 ec 10          	sub    $0x10,%rsp
  40fef2:	48 89 7d f8          	mov    %rdi,-0x8(%rbp)
  40fef6:	48 8b 45 f8          	mov    -0x8(%rbp),%rax
  40fefa:	48 89 c7             	mov    %rax,%rdi
  40fefd:	e8 37 fc ff ff       	callq  40fb39 <_ZSt11__addressofIPNSt8__detail15_Hash_node_baseEEPT_RS3_>
  40ff02:	c9                   	leaveq 
  40ff03:	c3                   	retq   

000000000040ff04 <_ZN9__gnu_cxx13new_allocatorIPNSt8__detail15_Hash_node_baseEE10deallocateEPS3_m>:
  40ff04:	55                   	push   %rbp
  40ff05:	48 89 e5             	mov    %rsp,%rbp
  40ff08:	48 83 ec 20          	sub    $0x20,%rsp
  40ff0c:	48 89 7d f8          	mov    %rdi,-0x8(%rbp)
  40ff10:	48 89 75 f0          	mov    %rsi,-0x10(%rbp)
  40ff14:	48 89 55 e8          	mov    %rdx,-0x18(%rbp)
  40ff18:	48 8b 45 f0          	mov    -0x10(%rbp),%rax
  40ff1c:	48 89 c7             	mov    %rax,%rdi
  40ff1f:	e8 ac 3f ff ff       	callq  403ed0 <_ZdlPv@plt>
  40ff24:	90                   	nop
  40ff25:	c9                   	leaveq 
  40ff26:	c3                   	retq   

000000000040ff27 <_ZNSt8__detail21_Hashtable_ebo_helperILi2ENS_18_Mod_range_hashingELb1EE7_S_cgetERKS2_>:
  40ff27:	55                   	push   %rbp
  40ff28:	48 89 e5             	mov    %rsp,%rbp
  40ff2b:	48 89 7d f8          	mov    %rdi,-0x8(%rbp)
  40ff2f:	48 8b 45 f8          	mov    -0x8(%rbp),%rax
  40ff33:	5d                   	pop    %rbp
  40ff34:	c3                   	retq   

000000000040ff35 <_ZNSt8__detail13_Equal_helperINSt7__cxx1112basic_stringIcSt11char_traitsIcESaIcEEESt4pairIKS6_N2cl7NDRangeEENS_10_Select1stESt8equal_toIS6_EmLb1EE9_S_equalsERKSE_RKSC_RS8_mPNS_10_Hash_nodeISB_Lb1EEE>:
  40ff35:	55                   	push   %rbp
  40ff36:	48 89 e5             	mov    %rsp,%rbp
  40ff39:	48 83 ec 30          	sub    $0x30,%rsp
  40ff3d:	48 89 7d f8          	mov    %rdi,-0x8(%rbp)
  40ff41:	48 89 75 f0          	mov    %rsi,-0x10(%rbp)
  40ff45:	48 89 55 e8          	mov    %rdx,-0x18(%rbp)
  40ff49:	48 89 4d e0          	mov    %rcx,-0x20(%rbp)
  40ff4d:	4c 89 45 d8          	mov    %r8,-0x28(%rbp)
  40ff51:	48 8b 45 d8          	mov    -0x28(%rbp),%rax
  40ff55:	48 8b 40 48          	mov    0x48(%rax),%rax
  40ff59:	48 3b 45 e0          	cmp    -0x20(%rbp),%rax
  40ff5d:	75 3f                	jne    40ff9e <_ZNSt8__detail13_Equal_helperINSt7__cxx1112basic_stringIcSt11char_traitsIcESaIcEEESt4pairIKS6_N2cl7NDRangeEENS_10_Select1stESt8equal_toIS6_EmLb1EE9_S_equalsERKSE_RKSC_RS8_mPNS_10_Hash_nodeISB_Lb1EEE+0x69>
  40ff5f:	48 8b 45 d8          	mov    -0x28(%rbp),%rax
  40ff63:	48 89 c7             	mov    %rax,%rdi
  40ff66:	e8 b1 f7 ff ff       	callq  40f71c <_ZNSt8__detail21_Hash_node_value_baseISt4pairIKNSt7__cxx1112basic_stringIcSt11char_traitsIcESaIcEEEN2cl7NDRangeEEE4_M_vEv>
  40ff6b:	48 89 c2             	mov    %rax,%rdx
  40ff6e:	48 8b 45 f0          	mov    -0x10(%rbp),%rax
  40ff72:	48 89 d6             	mov    %rdx,%rsi
  40ff75:	48 89 c7             	mov    %rax,%rdi
  40ff78:	e8 e1 f7 ff ff       	callq  40f75e <_ZNKSt8__detail10_Select1stclIRSt4pairIKNSt7__cxx1112basic_stringIcSt11char_traitsIcESaIcEEEN2cl7NDRangeEEEEDTcl3getILi0EEcl7forwardIT_Efp_EEEOSE_>
  40ff7d:	48 89 c2             	mov    %rax,%rdx
  40ff80:	48 8b 4d e8          	mov    -0x18(%rbp),%rcx
  40ff84:	48 8b 45 f8          	mov    -0x8(%rbp),%rax
  40ff88:	48 89 ce             	mov    %rcx,%rsi
  40ff8b:	48 89 c7             	mov    %rax,%rdi
  40ff8e:	e8 bb 02 00 00       	callq  41024e <_ZNKSt8equal_toINSt7__cxx1112basic_stringIcSt11char_traitsIcESaIcEEEEclERKS5_S8_>
  40ff93:	84 c0                	test   %al,%al
  40ff95:	74 07                	je     40ff9e <_ZNSt8__detail13_Equal_helperINSt7__cxx1112basic_stringIcSt11char_traitsIcESaIcEEESt4pairIKS6_N2cl7NDRangeEENS_10_Select1stESt8equal_toIS6_EmLb1EE9_S_equalsERKSE_RKSC_RS8_mPNS_10_Hash_nodeISB_Lb1EEE+0x69>
  40ff97:	b8 01 00 00 00       	mov    $0x1,%eax
  40ff9c:	eb 05                	jmp    40ffa3 <_ZNSt8__detail13_Equal_helperINSt7__cxx1112basic_stringIcSt11char_traitsIcESaIcEEESt4pairIKS6_N2cl7NDRangeEENS_10_Select1stESt8equal_toIS6_EmLb1EE9_S_equalsERKSE_RKSC_RS8_mPNS_10_Hash_nodeISB_Lb1EEE+0x6e>
  40ff9e:	b8 00 00 00 00       	mov    $0x0,%eax
  40ffa3:	c9                   	leaveq 
  40ffa4:	c3                   	retq   
  40ffa5:	90                   	nop

000000000040ffa6 <_ZNKSt8__detail15_Hashtable_baseINSt7__cxx1112basic_stringIcSt11char_traitsIcESaIcEEESt4pairIKS6_N2cl7NDRangeEENS_10_Select1stESt8equal_toIS6_ESt4hashIS6_ENS_18_Mod_range_hashingENS_20_Default_ranged_hashENS_17_Hashtable_traitsILb1ELb0ELb1EEEE5_M_eqEv>:
  40ffa6:	55                   	push   %rbp
  40ffa7:	48 89 e5             	mov    %rsp,%rbp
  40ffaa:	48 83 ec 10          	sub    $0x10,%rsp
  40ffae:	48 89 7d f8          	mov    %rdi,-0x8(%rbp)
  40ffb2:	48 8b 45 f8          	mov    -0x8(%rbp),%rax
  40ffb6:	48 89 c7             	mov    %rax,%rdi
  40ffb9:	e8 b9 02 00 00       	callq  410277 <_ZNSt8__detail21_Hashtable_ebo_helperILi0ESt8equal_toINSt7__cxx1112basic_stringIcSt11char_traitsIcESaIcEEEELb1EE7_S_cgetERKS9_>
  40ffbe:	c9                   	leaveq 
  40ffbf:	c3                   	retq   

000000000040ffc0 <_ZNKSt8__detail15_Hash_code_baseINSt7__cxx1112basic_stringIcSt11char_traitsIcESaIcEEESt4pairIKS6_N2cl7NDRangeEENS_10_Select1stESt4hashIS6_ENS_18_Mod_range_hashingENS_20_Default_ranged_hashELb1EE10_M_extractEv>:
  40ffc0:	55                   	push   %rbp
  40ffc1:	48 89 e5             	mov    %rsp,%rbp
  40ffc4:	48 83 ec 10          	sub    $0x10,%rsp
  40ffc8:	48 89 7d f8          	mov    %rdi,-0x8(%rbp)
  40ffcc:	48 8b 45 f8          	mov    -0x8(%rbp),%rax
  40ffd0:	48 89 c7             	mov    %rax,%rdi
  40ffd3:	e8 ad 02 00 00       	callq  410285 <_ZNSt8__detail21_Hashtable_ebo_helperILi0ENS_10_Select1stELb1EE7_S_cgetERKS2_>
  40ffd8:	c9                   	leaveq 
  40ffd9:	c3                   	retq   

000000000040ffda <_ZNSt4pairIKNSt7__cxx1112basic_stringIcSt11char_traitsIcESaIcEEEN2cl7NDRangeEEC1IRS8_Lb1EEERS6_OT_>:
  40ffda:	55                   	push   %rbp
  40ffdb:	48 89 e5             	mov    %rsp,%rbp
  40ffde:	48 83 ec 20          	sub    $0x20,%rsp
  40ffe2:	48 89 7d f8          	mov    %rdi,-0x8(%rbp)
  40ffe6:	48 89 75 f0          	mov    %rsi,-0x10(%rbp)
  40ffea:	48 89 55 e8          	mov    %rdx,-0x18(%rbp)
  40ffee:	48 8b 45 f8          	mov    -0x8(%rbp),%rax
  40fff2:	48 8b 55 f0          	mov    -0x10(%rbp),%rdx
  40fff6:	48 89 d6             	mov    %rdx,%rsi
  40fff9:	48 89 c7             	mov    %rax,%rdi
  40fffc:	e8 cf 3d ff ff       	callq  403dd0 <_ZNSt7__cxx1112basic_stringIcSt11char_traitsIcESaIcEEC1ERKS4_@plt>
  410001:	48 8b 45 e8          	mov    -0x18(%rbp),%rax
  410005:	48 89 c7             	mov    %rax,%rdi
  410008:	e8 23 dc ff ff       	callq  40dc30 <_ZSt7forwardIRN2cl7NDRangeEEOT_RNSt16remove_referenceIS3_E4typeE>
  41000d:	48 89 c2             	mov    %rax,%rdx
  410010:	48 8b 45 f8          	mov    -0x8(%rbp),%rax
  410014:	48 8b 0a             	mov    (%rdx),%rcx
  410017:	48 89 48 20          	mov    %rcx,0x20(%rax)
  41001b:	48 8b 4a 08          	mov    0x8(%rdx),%rcx
  41001f:	48 89 48 28          	mov    %rcx,0x28(%rax)
  410023:	48 8b 4a 10          	mov    0x10(%rdx),%rcx
  410027:	48 89 48 30          	mov    %rcx,0x30(%rax)
  41002b:	48 8b 52 18          	mov    0x18(%rdx),%rdx
  41002f:	48 89 50 38          	mov    %rdx,0x38(%rax)
  410033:	90                   	nop
  410034:	c9                   	leaveq 
  410035:	c3                   	retq   

0000000000410036 <_ZN9__gnu_cxx13new_allocatorISt4pairIKNSt7__cxx1112basic_stringIcSt11char_traitsIcESaIcEEEN2cl7NDRangeEEE9constructISB_JRS8_RSA_EEEvPT_DpOT0_>:
  410036:	55                   	push   %rbp
  410037:	48 89 e5             	mov    %rsp,%rbp
  41003a:	41 56                	push   %r14
  41003c:	41 55                	push   %r13
  41003e:	41 54                	push   %r12
  410040:	53                   	push   %rbx
  410041:	48 83 ec 20          	sub    $0x20,%rsp
  410045:	48 89 7d d8          	mov    %rdi,-0x28(%rbp)
  410049:	48 89 75 d0          	mov    %rsi,-0x30(%rbp)
  41004d:	48 89 55 c8          	mov    %rdx,-0x38(%rbp)
  410051:	48 89 4d c0          	mov    %rcx,-0x40(%rbp)
  410055:	48 8b 45 c8          	mov    -0x38(%rbp),%rax
  410059:	48 89 c7             	mov    %rax,%rdi
  41005c:	e8 c1 db ff ff       	callq  40dc22 <_ZSt7forwardIRKNSt7__cxx1112basic_stringIcSt11char_traitsIcESaIcEEEEOT_RNSt16remove_referenceIS8_E4typeE>
  410061:	49 89 c5             	mov    %rax,%r13
  410064:	48 8b 45 c0          	mov    -0x40(%rbp),%rax
  410068:	48 89 c7             	mov    %rax,%rdi
  41006b:	e8 c0 db ff ff       	callq  40dc30 <_ZSt7forwardIRN2cl7NDRangeEEOT_RNSt16remove_referenceIS3_E4typeE>
  410070:	49 89 c6             	mov    %rax,%r14
  410073:	4c 8b 65 d0          	mov    -0x30(%rbp),%r12
  410077:	4c 89 e6             	mov    %r12,%rsi
  41007a:	bf 40 00 00 00       	mov    $0x40,%edi
  41007f:	e8 03 4e ff ff       	callq  404e87 <_ZnwmPv>
  410084:	48 89 c3             	mov    %rax,%rbx
  410087:	48 85 db             	test   %rbx,%rbx
  41008a:	74 29                	je     4100b5 <_ZN9__gnu_cxx13new_allocatorISt4pairIKNSt7__cxx1112basic_stringIcSt11char_traitsIcESaIcEEEN2cl7NDRangeEEE9constructISB_JRS8_RSA_EEEvPT_DpOT0_+0x7f>
  41008c:	4c 89 f2             	mov    %r14,%rdx
  41008f:	4c 89 ee             	mov    %r13,%rsi
  410092:	48 89 df             	mov    %rbx,%rdi
  410095:	e8 40 ff ff ff       	callq  40ffda <_ZNSt4pairIKNSt7__cxx1112basic_stringIcSt11char_traitsIcESaIcEEEN2cl7NDRangeEEC1IRS8_Lb1EEERS6_OT_>
  41009a:	eb 19                	jmp    4100b5 <_ZN9__gnu_cxx13new_allocatorISt4pairIKNSt7__cxx1112basic_stringIcSt11char_traitsIcESaIcEEEN2cl7NDRangeEEE9constructISB_JRS8_RSA_EEEvPT_DpOT0_+0x7f>
  41009c:	49 89 c5             	mov    %rax,%r13
  41009f:	4c 89 e6             	mov    %r12,%rsi
  4100a2:	48 89 df             	mov    %rbx,%rdi
  4100a5:	e8 ef 4d ff ff       	callq  404e99 <_ZdlPvS_>
  4100aa:	4c 89 e8             	mov    %r13,%rax
  4100ad:	48 89 c7             	mov    %rax,%rdi
  4100b0:	e8 db 40 ff ff       	callq  404190 <_Unwind_Resume@plt>
  4100b5:	90                   	nop
  4100b6:	48 83 c4 20          	add    $0x20,%rsp
  4100ba:	5b                   	pop    %rbx
  4100bb:	41 5c                	pop    %r12
  4100bd:	41 5d                	pop    %r13
  4100bf:	41 5e                	pop    %r14
  4100c1:	5d                   	pop    %rbp
  4100c2:	c3                   	retq   
  4100c3:	90                   	nop

00000000004100c4 <_ZNSt10_HashtableINSt7__cxx1112basic_stringIcSt11char_traitsIcESaIcEEESt4pairIKS5_N2cl7NDRangeEESaISA_ENSt8__detail10_Select1stESt8equal_toIS5_ESt4hashIS5_ENSC_18_Mod_range_hashingENSC_20_Default_ranged_hashENSC_20_Prime_rehash_policyENSC_17_Hashtable_traitsILb1ELb0ELb1EEEE13_M_rehash_auxEmSt17integral_constantIbLb1EE>:
  4100c4:	55                   	push   %rbp
  4100c5:	48 89 e5             	mov    %rsp,%rbp
  4100c8:	48 83 ec 40          	sub    $0x40,%rsp
  4100cc:	48 89 7d c8          	mov    %rdi,-0x38(%rbp)
  4100d0:	48 89 75 c0          	mov    %rsi,-0x40(%rbp)
  4100d4:	48 8b 55 c0          	mov    -0x40(%rbp),%rdx
  4100d8:	48 8b 45 c8          	mov    -0x38(%rbp),%rax
  4100dc:	48 89 d6             	mov    %rdx,%rsi
  4100df:	48 89 c7             	mov    %rax,%rdi
  4100e2:	e8 bf e7 ff ff       	callq  40e8a6 <_ZNSt10_HashtableINSt7__cxx1112basic_stringIcSt11char_traitsIcESaIcEEESt4pairIKS5_N2cl7NDRangeEESaISA_ENSt8__detail10_Select1stESt8equal_toIS5_ESt4hashIS5_ENSC_18_Mod_range_hashingENSC_20_Default_ranged_hashENSC_20_Prime_rehash_policyENSC_17_Hashtable_traitsILb1ELb0ELb1EEEE19_M_allocate_bucketsEm>
  4100e7:	48 89 45 e8          	mov    %rax,-0x18(%rbp)
  4100eb:	48 8b 45 c8          	mov    -0x38(%rbp),%rax
  4100ef:	48 89 c7             	mov    %rax,%rdi
  4100f2:	e8 ef e2 ff ff       	callq  40e3e6 <_ZNKSt10_HashtableINSt7__cxx1112basic_stringIcSt11char_traitsIcESaIcEEESt4pairIKS5_N2cl7NDRangeEESaISA_ENSt8__detail10_Select1stESt8equal_toIS5_ESt4hashIS5_ENSC_18_Mod_range_hashingENSC_20_Default_ranged_hashENSC_20_Prime_rehash_policyENSC_17_Hashtable_traitsILb1ELb0ELb1EEEE8_M_beginEv>
  4100f7:	48 89 45 d8          	mov    %rax,-0x28(%rbp)
  4100fb:	48 8b 45 c8          	mov    -0x38(%rbp),%rax
  4100ff:	48 c7 40 10 00 00 00 	movq   $0x0,0x10(%rax)
  410106:	00 
  410107:	48 c7 45 e0 00 00 00 	movq   $0x0,-0x20(%rbp)
  41010e:	00 
  41010f:	48 83 7d d8 00       	cmpq   $0x0,-0x28(%rbp)
  410114:	0f 84 f9 00 00 00    	je     410213 <_ZNSt10_HashtableINSt7__cxx1112basic_stringIcSt11char_traitsIcESaIcEEESt4pairIKS5_N2cl7NDRangeEESaISA_ENSt8__detail10_Select1stESt8equal_toIS5_ESt4hashIS5_ENSC_18_Mod_range_hashingENSC_20_Default_ranged_hashENSC_20_Prime_rehash_policyENSC_17_Hashtable_traitsILb1ELb0ELb1EEEE13_M_rehash_auxEmSt17integral_constantIbLb1EE+0x14f>
  41011a:	48 8b 45 d8          	mov    -0x28(%rbp),%rax
  41011e:	48 89 c7             	mov    %rax,%rdi
  410121:	e8 40 ef ff ff       	callq  40f066 <_ZNKSt8__detail10_Hash_nodeISt4pairIKNSt7__cxx1112basic_stringIcSt11char_traitsIcESaIcEEEN2cl7NDRangeEELb1EE7_M_nextEv>
  410126:	48 89 45 f0          	mov    %rax,-0x10(%rbp)
  41012a:	48 8b 55 c0          	mov    -0x40(%rbp),%rdx
  41012e:	48 8b 4d d8          	mov    -0x28(%rbp),%rcx
  410132:	48 8b 45 c8          	mov    -0x38(%rbp),%rax
  410136:	48 89 ce             	mov    %rcx,%rsi
  410139:	48 89 c7             	mov    %rax,%rdi
  41013c:	e8 4d f9 ff ff       	callq  40fa8e <_ZNKSt8__detail15_Hash_code_baseINSt7__cxx1112basic_stringIcSt11char_traitsIcESaIcEEESt4pairIKS6_N2cl7NDRangeEENS_10_Select1stESt4hashIS6_ENS_18_Mod_range_hashingENS_20_Default_ranged_hashELb1EE15_M_bucket_indexEPKNS_10_Hash_nodeISB_Lb1EEEm>
  410141:	48 89 45 f8          	mov    %rax,-0x8(%rbp)
  410145:	48 8b 45 f8          	mov    -0x8(%rbp),%rax
  410149:	48 8d 14 c5 00 00 00 	lea    0x0(,%rax,8),%rdx
  410150:	00 
  410151:	48 8b 45 e8          	mov    -0x18(%rbp),%rax
  410155:	48 01 d0             	add    %rdx,%rax
  410158:	48 8b 00             	mov    (%rax),%rax
  41015b:	48 85 c0             	test   %rax,%rax
  41015e:	75 69                	jne    4101c9 <_ZNSt10_HashtableINSt7__cxx1112basic_stringIcSt11char_traitsIcESaIcEEESt4pairIKS5_N2cl7NDRangeEESaISA_ENSt8__detail10_Select1stESt8equal_toIS5_ESt4hashIS5_ENSC_18_Mod_range_hashingENSC_20_Default_ranged_hashENSC_20_Prime_rehash_policyENSC_17_Hashtable_traitsILb1ELb0ELb1EEEE13_M_rehash_auxEmSt17integral_constantIbLb1EE+0x105>
  410160:	48 8b 45 c8          	mov    -0x38(%rbp),%rax
  410164:	48 8b 50 10          	mov    0x10(%rax),%rdx
  410168:	48 8b 45 d8          	mov    -0x28(%rbp),%rax
  41016c:	48 89 10             	mov    %rdx,(%rax)
  41016f:	48 8b 45 c8          	mov    -0x38(%rbp),%rax
  410173:	48 8b 55 d8          	mov    -0x28(%rbp),%rdx
  410177:	48 89 50 10          	mov    %rdx,0x10(%rax)
  41017b:	48 8b 45 f8          	mov    -0x8(%rbp),%rax
  41017f:	48 8d 14 c5 00 00 00 	lea    0x0(,%rax,8),%rdx
  410186:	00 
  410187:	48 8b 45 e8          	mov    -0x18(%rbp),%rax
  41018b:	48 01 d0             	add    %rdx,%rax
  41018e:	48 8b 55 c8          	mov    -0x38(%rbp),%rdx
  410192:	48 83 c2 10          	add    $0x10,%rdx
  410196:	48 89 10             	mov    %rdx,(%rax)
  410199:	48 8b 45 d8          	mov    -0x28(%rbp),%rax
  41019d:	48 8b 00             	mov    (%rax),%rax
  4101a0:	48 85 c0             	test   %rax,%rax
  4101a3:	74 1a                	je     4101bf <_ZNSt10_HashtableINSt7__cxx1112basic_stringIcSt11char_traitsIcESaIcEEESt4pairIKS5_N2cl7NDRangeEESaISA_ENSt8__detail10_Select1stESt8equal_toIS5_ESt4hashIS5_ENSC_18_Mod_range_hashingENSC_20_Default_ranged_hashENSC_20_Prime_rehash_policyENSC_17_Hashtable_traitsILb1ELb0ELb1EEEE13_M_rehash_auxEmSt17integral_constantIbLb1EE+0xfb>
  4101a5:	48 8b 45 e0          	mov    -0x20(%rbp),%rax
  4101a9:	48 8d 14 c5 00 00 00 	lea    0x0(,%rax,8),%rdx
  4101b0:	00 
  4101b1:	48 8b 45 e8          	mov    -0x18(%rbp),%rax
  4101b5:	48 01 c2             	add    %rax,%rdx
  4101b8:	48 8b 45 d8          	mov    -0x28(%rbp),%rax
  4101bc:	48 89 02             	mov    %rax,(%rdx)
  4101bf:	48 8b 45 f8          	mov    -0x8(%rbp),%rax
  4101c3:	48 89 45 e0          	mov    %rax,-0x20(%rbp)
  4101c7:	eb 3d                	jmp    410206 <_ZNSt10_HashtableINSt7__cxx1112basic_stringIcSt11char_traitsIcESaIcEEESt4pairIKS5_N2cl7NDRangeEESaISA_ENSt8__detail10_Select1stESt8equal_toIS5_ESt4hashIS5_ENSC_18_Mod_range_hashingENSC_20_Default_ranged_hashENSC_20_Prime_rehash_policyENSC_17_Hashtable_traitsILb1ELb0ELb1EEEE13_M_rehash_auxEmSt17integral_constantIbLb1EE+0x142>
  4101c9:	48 8b 45 f8          	mov    -0x8(%rbp),%rax
  4101cd:	48 8d 14 c5 00 00 00 	lea    0x0(,%rax,8),%rdx
  4101d4:	00 
  4101d5:	48 8b 45 e8          	mov    -0x18(%rbp),%rax
  4101d9:	48 01 d0             	add    %rdx,%rax
  4101dc:	48 8b 00             	mov    (%rax),%rax
  4101df:	48 8b 10             	mov    (%rax),%rdx
  4101e2:	48 8b 45 d8          	mov    -0x28(%rbp),%rax
  4101e6:	48 89 10             	mov    %rdx,(%rax)
  4101e9:	48 8b 45 f8          	mov    -0x8(%rbp),%rax
  4101ed:	48 8d 14 c5 00 00 00 	lea    0x0(,%rax,8),%rdx
  4101f4:	00 
  4101f5:	48 8b 45 e8          	mov    -0x18(%rbp),%rax
  4101f9:	48 01 d0             	add    %rdx,%rax
  4101fc:	48 8b 00             	mov    (%rax),%rax
  4101ff:	48 8b 55 d8          	mov    -0x28(%rbp),%rdx
  410203:	48 89 10             	mov    %rdx,(%rax)
  410206:	48 8b 45 f0          	mov    -0x10(%rbp),%rax
  41020a:	48 89 45 d8          	mov    %rax,-0x28(%rbp)
  41020e:	e9 fc fe ff ff       	jmpq   41010f <_ZNSt10_HashtableINSt7__cxx1112basic_stringIcSt11char_traitsIcESaIcEEESt4pairIKS5_N2cl7NDRangeEESaISA_ENSt8__detail10_Select1stESt8equal_toIS5_ESt4hashIS5_ENSC_18_Mod_range_hashingENSC_20_Default_ranged_hashENSC_20_Prime_rehash_policyENSC_17_Hashtable_traitsILb1ELb0ELb1EEEE13_M_rehash_auxEmSt17integral_constantIbLb1EE+0x4b>
  410213:	48 8b 45 c8          	mov    -0x38(%rbp),%rax
  410217:	48 89 c7             	mov    %rax,%rdi
  41021a:	e8 37 df ff ff       	callq  40e156 <_ZNSt10_HashtableINSt7__cxx1112basic_stringIcSt11char_traitsIcESaIcEEESt4pairIKS5_N2cl7NDRangeEESaISA_ENSt8__detail10_Select1stESt8equal_toIS5_ESt4hashIS5_ENSC_18_Mod_range_hashingENSC_20_Default_ranged_hashENSC_20_Prime_rehash_policyENSC_17_Hashtable_traitsILb1ELb0ELb1EEEE21_M_deallocate_bucketsEv>
  41021f:	48 8b 45 c8          	mov    -0x38(%rbp),%rax
  410223:	48 8b 55 c0          	mov    -0x40(%rbp),%rdx
  410227:	48 89 50 08          	mov    %rdx,0x8(%rax)
  41022b:	48 8b 45 c8          	mov    -0x38(%rbp),%rax
  41022f:	48 8b 55 e8          	mov    -0x18(%rbp),%rdx
  410233:	48 89 10             	mov    %rdx,(%rax)
  410236:	90                   	nop
  410237:	c9                   	leaveq 
  410238:	c3                   	retq   
  410239:	90                   	nop

000000000041023a <_ZNK9__gnu_cxx13new_allocatorIPNSt8__detail15_Hash_node_baseEE8max_sizeEv>:
  41023a:	55                   	push   %rbp
  41023b:	48 89 e5             	mov    %rsp,%rbp
  41023e:	48 89 7d f8          	mov    %rdi,-0x8(%rbp)
  410242:	48 b8 ff ff ff ff ff 	movabs $0x1fffffffffffffff,%rax
  410249:	ff ff 1f 
  41024c:	5d                   	pop    %rbp
  41024d:	c3                   	retq   

000000000041024e <_ZNKSt8equal_toINSt7__cxx1112basic_stringIcSt11char_traitsIcESaIcEEEEclERKS5_S8_>:
  41024e:	55                   	push   %rbp
  41024f:	48 89 e5             	mov    %rsp,%rbp
  410252:	48 83 ec 20          	sub    $0x20,%rsp
  410256:	48 89 7d f8          	mov    %rdi,-0x8(%rbp)
  41025a:	48 89 75 f0          	mov    %rsi,-0x10(%rbp)
  41025e:	48 89 55 e8          	mov    %rdx,-0x18(%rbp)
  410262:	48 8b 55 e8          	mov    -0x18(%rbp),%rdx
  410266:	48 8b 45 f0          	mov    -0x10(%rbp),%rax
  41026a:	48 89 d6             	mov    %rdx,%rsi
  41026d:	48 89 c7             	mov    %rax,%rdi
  410270:	e8 0e df ff ff       	callq  40e183 <_ZSteqIcEN9__gnu_cxx11__enable_ifIXsrSt9__is_charIT_E7__valueEbE6__typeERKNSt7__cxx1112basic_stringIS3_St11char_traitsIS3_ESaIS3_EEESE_>
  410275:	c9                   	leaveq 
  410276:	c3                   	retq   

0000000000410277 <_ZNSt8__detail21_Hashtable_ebo_helperILi0ESt8equal_toINSt7__cxx1112basic_stringIcSt11char_traitsIcESaIcEEEELb1EE7_S_cgetERKS9_>:
  410277:	55                   	push   %rbp
  410278:	48 89 e5             	mov    %rsp,%rbp
  41027b:	48 89 7d f8          	mov    %rdi,-0x8(%rbp)
  41027f:	48 8b 45 f8          	mov    -0x8(%rbp),%rax
  410283:	5d                   	pop    %rbp
  410284:	c3                   	retq   

0000000000410285 <_ZNSt8__detail21_Hashtable_ebo_helperILi0ENS_10_Select1stELb1EE7_S_cgetERKS2_>:
  410285:	55                   	push   %rbp
  410286:	48 89 e5             	mov    %rsp,%rbp
  410289:	48 89 7d f8          	mov    %rdi,-0x8(%rbp)
  41028d:	48 8b 45 f8          	mov    -0x8(%rbp),%rax
  410291:	5d                   	pop    %rbp
  410292:	c3                   	retq   
  410293:	90                   	nop

0000000000410294 <_ZN11arm_compute15CLTuner_ReshapeD1Ev>:
  410294:	55                   	push   %rbp
  410295:	48 89 e5             	mov    %rsp,%rbp
  410298:	48 83 ec 10          	sub    $0x10,%rsp
  41029c:	48 89 7d f8          	mov    %rdi,-0x8(%rbp)
  4102a0:	ba 40 0b 41 00       	mov    $0x410b40,%edx
  4102a5:	48 8b 45 f8          	mov    -0x8(%rbp),%rax
  4102a9:	48 89 10             	mov    %rdx,(%rax)
  4102ac:	48 8b 45 f8          	mov    -0x8(%rbp),%rax
  4102b0:	48 83 c0 08          	add    $0x8,%rax
  4102b4:	48 89 c7             	mov    %rax,%rdi
  4102b7:	e8 c0 d4 ff ff       	callq  40d77c <_ZNSt13unordered_mapINSt7__cxx1112basic_stringIcSt11char_traitsIcESaIcEEEN2cl7NDRangeESt4hashIS5_ESt8equal_toIS5_ESaISt4pairIKS5_S7_EEED1Ev>
  4102bc:	48 8b 45 f8          	mov    -0x8(%rbp),%rax
  4102c0:	48 89 c7             	mov    %rax,%rdi
  4102c3:	e8 b8 d1 ff ff       	callq  40d480 <_ZN11arm_compute8ICLTunerD1Ev>
  4102c8:	90                   	nop
  4102c9:	c9                   	leaveq 
  4102ca:	c3                   	retq   
  4102cb:	90                   	nop

00000000004102cc <_ZN11arm_compute15CLTuner_ReshapeD0Ev>:
  4102cc:	55                   	push   %rbp
  4102cd:	48 89 e5             	mov    %rsp,%rbp
  4102d0:	48 83 ec 10          	sub    $0x10,%rsp
  4102d4:	48 89 7d f8          	mov    %rdi,-0x8(%rbp)
  4102d8:	48 8b 45 f8          	mov    -0x8(%rbp),%rax
  4102dc:	48 89 c7             	mov    %rax,%rdi
  4102df:	e8 b0 ff ff ff       	callq  410294 <_ZN11arm_compute15CLTuner_ReshapeD1Ev>
  4102e4:	48 8b 45 f8          	mov    -0x8(%rbp),%rax
  4102e8:	48 89 c7             	mov    %rax,%rdi
  4102eb:	e8 e0 3b ff ff       	callq  403ed0 <_ZdlPv@plt>
  4102f0:	c9                   	leaveq 
  4102f1:	c3                   	retq   
  4102f2:	66 2e 0f 1f 84 00 00 	nopw   %cs:0x0(%rax,%rax,1)
  4102f9:	00 00 00 
  4102fc:	0f 1f 40 00          	nopl   0x0(%rax)

0000000000410300 <__libc_csu_init>:
  410300:	41 57                	push   %r15
  410302:	41 56                	push   %r14
  410304:	41 89 ff             	mov    %edi,%r15d
  410307:	41 55                	push   %r13
  410309:	41 54                	push   %r12
  41030b:	4c 8d 25 8e 8a 20 00 	lea    0x208a8e(%rip),%r12        # 618da0 <__frame_dummy_init_array_entry>
  410312:	55                   	push   %rbp
  410313:	48 8d 2d 9e 8a 20 00 	lea    0x208a9e(%rip),%rbp        # 618db8 <__init_array_end>
  41031a:	53                   	push   %rbx
  41031b:	49 89 f6             	mov    %rsi,%r14
  41031e:	49 89 d5             	mov    %rdx,%r13
  410321:	4c 29 e5             	sub    %r12,%rbp
  410324:	48 83 ec 08          	sub    $0x8,%rsp
  410328:	48 c1 fd 03          	sar    $0x3,%rbp
  41032c:	e8 67 39 ff ff       	callq  403c98 <_init>
  410331:	48 85 ed             	test   %rbp,%rbp
  410334:	74 20                	je     410356 <__libc_csu_init+0x56>
  410336:	31 db                	xor    %ebx,%ebx
  410338:	0f 1f 84 00 00 00 00 	nopl   0x0(%rax,%rax,1)
  41033f:	00 
  410340:	4c 89 ea             	mov    %r13,%rdx
  410343:	4c 89 f6             	mov    %r14,%rsi
  410346:	44 89 ff             	mov    %r15d,%edi
  410349:	41 ff 14 dc          	callq  *(%r12,%rbx,8)
  41034d:	48 83 c3 01          	add    $0x1,%rbx
  410351:	48 39 eb             	cmp    %rbp,%rbx
  410354:	75 ea                	jne    410340 <__libc_csu_init+0x40>
  410356:	48 83 c4 08          	add    $0x8,%rsp
  41035a:	5b                   	pop    %rbx
  41035b:	5d                   	pop    %rbp
  41035c:	41 5c                	pop    %r12
  41035e:	41 5d                	pop    %r13
  410360:	41 5e                	pop    %r14
  410362:	41 5f                	pop    %r15
  410364:	c3                   	retq   
  410365:	90                   	nop
  410366:	66 2e 0f 1f 84 00 00 	nopw   %cs:0x0(%rax,%rax,1)
  41036d:	00 00 00 

0000000000410370 <__libc_csu_fini>:
  410370:	f3 c3                	repz retq 

Disassembly of section .fini:

0000000000410374 <_fini>:
  410374:	48 83 ec 08          	sub    $0x8,%rsp
  410378:	48 83 c4 08          	add    $0x8,%rsp
  41037c:	c3                   	retq   
