
depthwiseconv:     file format elf64-x86-64


Disassembly of section .init:

00000000004034d0 <_init>:
  4034d0:	48 83 ec 08          	sub    $0x8,%rsp
  4034d4:	48 8b 05 1d 4b 21 00 	mov    0x214b1d(%rip),%rax        # 617ff8 <_DYNAMIC+0x230>
  4034db:	48 85 c0             	test   %rax,%rax
  4034de:	74 05                	je     4034e5 <_init+0x15>
  4034e0:	e8 9b 05 00 00       	callq  403a80 <_ZNSt8ios_base4InitD1Ev@plt+0x10>
  4034e5:	48 83 c4 08          	add    $0x8,%rsp
  4034e9:	c3                   	retq   

Disassembly of section .plt:

00000000004034f0 <_Znam@plt-0x10>:
  4034f0:	ff 35 12 4b 21 00    	pushq  0x214b12(%rip)        # 618008 <_GLOBAL_OFFSET_TABLE_+0x8>
  4034f6:	ff 25 14 4b 21 00    	jmpq   *0x214b14(%rip)        # 618010 <_GLOBAL_OFFSET_TABLE_+0x10>
  4034fc:	0f 1f 40 00          	nopl   0x0(%rax)

0000000000403500 <_Znam@plt>:
  403500:	ff 25 12 4b 21 00    	jmpq   *0x214b12(%rip)        # 618018 <_GLOBAL_OFFSET_TABLE_+0x18>
  403506:	68 00 00 00 00       	pushq  $0x0
  40350b:	e9 e0 ff ff ff       	jmpq   4034f0 <_init+0x20>

0000000000403510 <_ZNSt7__cxx1112basic_stringIcSt11char_traitsIcESaIcEEaSERKS4_@plt>:
  403510:	ff 25 0a 4b 21 00    	jmpq   *0x214b0a(%rip)        # 618020 <_GLOBAL_OFFSET_TABLE_+0x20>
  403516:	68 01 00 00 00       	pushq  $0x1
  40351b:	e9 d0 ff ff ff       	jmpq   4034f0 <_init+0x20>

0000000000403520 <printf@plt>:
  403520:	ff 25 02 4b 21 00    	jmpq   *0x214b02(%rip)        # 618028 <_GLOBAL_OFFSET_TABLE_+0x28>
  403526:	68 02 00 00 00       	pushq  $0x2
  40352b:	e9 c0 ff ff ff       	jmpq   4034f0 <_init+0x20>

0000000000403530 <_ZNSt6chrono3_V212system_clock3nowEv@plt>:
  403530:	ff 25 fa 4a 21 00    	jmpq   *0x214afa(%rip)        # 618030 <_GLOBAL_OFFSET_TABLE_+0x30>
  403536:	68 03 00 00 00       	pushq  $0x3
  40353b:	e9 b0 ff ff ff       	jmpq   4034f0 <_init+0x20>

0000000000403540 <_ZN11arm_compute11CLScheduler3getEv@plt>:
  403540:	ff 25 f2 4a 21 00    	jmpq   *0x214af2(%rip)        # 618038 <_GLOBAL_OFFSET_TABLE_+0x38>
  403546:	68 04 00 00 00       	pushq  $0x4
  40354b:	e9 a0 ff ff ff       	jmpq   4034f0 <_init+0x20>

0000000000403550 <sprintf@plt>:
  403550:	ff 25 ea 4a 21 00    	jmpq   *0x214aea(%rip)        # 618040 <_GLOBAL_OFFSET_TABLE_+0x40>
  403556:	68 05 00 00 00       	pushq  $0x5
  40355b:	e9 90 ff ff ff       	jmpq   4034f0 <_init+0x20>

0000000000403560 <_ZSt11_Hash_bytesPKvmm@plt>:
  403560:	ff 25 e2 4a 21 00    	jmpq   *0x214ae2(%rip)        # 618048 <_GLOBAL_OFFSET_TABLE_+0x48>
  403566:	68 06 00 00 00       	pushq  $0x6
  40356b:	e9 80 ff ff ff       	jmpq   4034f0 <_init+0x20>

0000000000403570 <xopenme_clock_start@plt>:
  403570:	ff 25 da 4a 21 00    	jmpq   *0x214ada(%rip)        # 618050 <_GLOBAL_OFFSET_TABLE_+0x50>
  403576:	68 07 00 00 00       	pushq  $0x7
  40357b:	e9 70 ff ff ff       	jmpq   4034f0 <_init+0x20>

0000000000403580 <xopenme_dump_state@plt>:
  403580:	ff 25 d2 4a 21 00    	jmpq   *0x214ad2(%rip)        # 618058 <_GLOBAL_OFFSET_TABLE_+0x58>
  403586:	68 08 00 00 00       	pushq  $0x8
  40358b:	e9 60 ff ff ff       	jmpq   4034f0 <_init+0x20>

0000000000403590 <clFinish@plt>:
  403590:	ff 25 ca 4a 21 00    	jmpq   *0x214aca(%rip)        # 618060 <_GLOBAL_OFFSET_TABLE_+0x60>
  403596:	68 09 00 00 00       	pushq  $0x9
  40359b:	e9 50 ff ff ff       	jmpq   4034f0 <_init+0x20>

00000000004035a0 <xopenme_finish@plt>:
  4035a0:	ff 25 c2 4a 21 00    	jmpq   *0x214ac2(%rip)        # 618068 <_GLOBAL_OFFSET_TABLE_+0x68>
  4035a6:	68 0a 00 00 00       	pushq  $0xa
  4035ab:	e9 40 ff ff ff       	jmpq   4034f0 <_init+0x20>

00000000004035b0 <rand@plt>:
  4035b0:	ff 25 ba 4a 21 00    	jmpq   *0x214aba(%rip)        # 618070 <_GLOBAL_OFFSET_TABLE_+0x70>
  4035b6:	68 0b 00 00 00       	pushq  $0xb
  4035bb:	e9 30 ff ff ff       	jmpq   4034f0 <_init+0x20>

00000000004035c0 <_ZNKSt7__cxx1112basic_stringIcSt11char_traitsIcESaIcEE7compareEPKc@plt>:
  4035c0:	ff 25 b2 4a 21 00    	jmpq   *0x214ab2(%rip)        # 618078 <_GLOBAL_OFFSET_TABLE_+0x78>
  4035c6:	68 0c 00 00 00       	pushq  $0xc
  4035cb:	e9 20 ff ff ff       	jmpq   4034f0 <_init+0x20>

00000000004035d0 <_ZN11arm_compute30CLDepthwiseConvolutionLayer3x39configureEPNS_9ICLTensorEPKS1_S4_S2_RKNS_13PadStrideInfoE@plt>:
  4035d0:	ff 25 aa 4a 21 00    	jmpq   *0x214aaa(%rip)        # 618080 <_GLOBAL_OFFSET_TABLE_+0x80>
  4035d6:	68 0d 00 00 00       	pushq  $0xd
  4035db:	e9 10 ff ff ff       	jmpq   4034f0 <_init+0x20>

00000000004035e0 <_ZN11arm_compute8CLTensor5unmapEv@plt>:
  4035e0:	ff 25 a2 4a 21 00    	jmpq   *0x214aa2(%rip)        # 618088 <_GLOBAL_OFFSET_TABLE_+0x88>
  4035e6:	68 0e 00 00 00       	pushq  $0xe
  4035eb:	e9 00 ff ff ff       	jmpq   4034f0 <_init+0x20>

00000000004035f0 <_ZN11arm_compute10TensorInfoC1ERKNS_11TensorShapeEmNS_8DataTypeEi@plt>:
  4035f0:	ff 25 9a 4a 21 00    	jmpq   *0x214a9a(%rip)        # 618090 <_GLOBAL_OFFSET_TABLE_+0x90>
  4035f6:	68 0f 00 00 00       	pushq  $0xf
  4035fb:	e9 f0 fe ff ff       	jmpq   4034f0 <_init+0x20>

0000000000403600 <_ZSt17__throw_bad_allocv@plt>:
  403600:	ff 25 92 4a 21 00    	jmpq   *0x214a92(%rip)        # 618098 <_GLOBAL_OFFSET_TABLE_+0x98>
  403606:	68 10 00 00 00       	pushq  $0x10
  40360b:	e9 e0 fe ff ff       	jmpq   4034f0 <_init+0x20>

0000000000403610 <xopenme_init@plt>:
  403610:	ff 25 8a 4a 21 00    	jmpq   *0x214a8a(%rip)        # 6180a0 <_GLOBAL_OFFSET_TABLE_+0xa0>
  403616:	68 11 00 00 00       	pushq  $0x11
  40361b:	e9 d0 fe ff ff       	jmpq   4034f0 <_init+0x20>

0000000000403620 <__cxa_begin_catch@plt>:
  403620:	ff 25 82 4a 21 00    	jmpq   *0x214a82(%rip)        # 6180a8 <_GLOBAL_OFFSET_TABLE_+0xa8>
  403626:	68 12 00 00 00       	pushq  $0x12
  40362b:	e9 c0 fe ff ff       	jmpq   4034f0 <_init+0x20>

0000000000403630 <_ZNKSt7__cxx1112basic_stringIcSt11char_traitsIcESaIcEE5c_strEv@plt>:
  403630:	ff 25 7a 4a 21 00    	jmpq   *0x214a7a(%rip)        # 6180b0 <_GLOBAL_OFFSET_TABLE_+0xb0>
  403636:	68 13 00 00 00       	pushq  $0x13
  40363b:	e9 b0 fe ff ff       	jmpq   4034f0 <_init+0x20>

0000000000403640 <_ZNSt7__cxx1112basic_stringIcSt11char_traitsIcESaIcEEC1ERKS4_@plt>:
  403640:	ff 25 72 4a 21 00    	jmpq   *0x214a72(%rip)        # 6180b8 <_GLOBAL_OFFSET_TABLE_+0xb8>
  403646:	68 14 00 00 00       	pushq  $0x14
  40364b:	e9 a0 fe ff ff       	jmpq   4034f0 <_init+0x20>

0000000000403650 <strlen@plt>:
  403650:	ff 25 6a 4a 21 00    	jmpq   *0x214a6a(%rip)        # 6180c0 <_GLOBAL_OFFSET_TABLE_+0xc0>
  403656:	68 15 00 00 00       	pushq  $0x15
  40365b:	e9 90 fe ff ff       	jmpq   4034f0 <_init+0x20>

0000000000403660 <xopenme_dump_memory@plt>:
  403660:	ff 25 62 4a 21 00    	jmpq   *0x214a62(%rip)        # 6180c8 <_GLOBAL_OFFSET_TABLE_+0xc8>
  403666:	68 16 00 00 00       	pushq  $0x16
  40366b:	e9 80 fe ff ff       	jmpq   4034f0 <_init+0x20>

0000000000403670 <memcmp@plt>:
  403670:	ff 25 5a 4a 21 00    	jmpq   *0x214a5a(%rip)        # 6180d0 <_GLOBAL_OFFSET_TABLE_+0xd0>
  403676:	68 17 00 00 00       	pushq  $0x17
  40367b:	e9 70 fe ff ff       	jmpq   4034f0 <_init+0x20>

0000000000403680 <clRetainCommandQueue@plt>:
  403680:	ff 25 52 4a 21 00    	jmpq   *0x214a52(%rip)        # 6180d8 <_GLOBAL_OFFSET_TABLE_+0xd8>
  403686:	68 18 00 00 00       	pushq  $0x18
  40368b:	e9 60 fe ff ff       	jmpq   4034f0 <_init+0x20>

0000000000403690 <clCreateContextFromType@plt>:
  403690:	ff 25 4a 4a 21 00    	jmpq   *0x214a4a(%rip)        # 6180e0 <_GLOBAL_OFFSET_TABLE_+0xe0>
  403696:	68 19 00 00 00       	pushq  $0x19
  40369b:	e9 50 fe ff ff       	jmpq   4034f0 <_init+0x20>

00000000004036a0 <__cxa_allocate_exception@plt>:
  4036a0:	ff 25 42 4a 21 00    	jmpq   *0x214a42(%rip)        # 6180e8 <_GLOBAL_OFFSET_TABLE_+0xe8>
  4036a6:	68 1a 00 00 00       	pushq  $0x1a
  4036ab:	e9 40 fe ff ff       	jmpq   4034f0 <_init+0x20>

00000000004036b0 <_ZSt20__throw_length_errorPKc@plt>:
  4036b0:	ff 25 3a 4a 21 00    	jmpq   *0x214a3a(%rip)        # 6180f0 <_GLOBAL_OFFSET_TABLE_+0xf0>
  4036b6:	68 1b 00 00 00       	pushq  $0x1b
  4036bb:	e9 30 fe ff ff       	jmpq   4034f0 <_init+0x20>

00000000004036c0 <memset@plt>:
  4036c0:	ff 25 32 4a 21 00    	jmpq   *0x214a32(%rip)        # 6180f8 <_GLOBAL_OFFSET_TABLE_+0xf8>
  4036c6:	68 1c 00 00 00       	pushq  $0x1c
  4036cb:	e9 20 fe ff ff       	jmpq   4034f0 <_init+0x20>

00000000004036d0 <_ZN11arm_compute15CLKernelLibrary3getEv@plt>:
  4036d0:	ff 25 2a 4a 21 00    	jmpq   *0x214a2a(%rip)        # 618100 <_GLOBAL_OFFSET_TABLE_+0x100>
  4036d6:	68 1d 00 00 00       	pushq  $0x1d
  4036db:	e9 10 fe ff ff       	jmpq   4034f0 <_init+0x20>

00000000004036e0 <clReleaseContext@plt>:
  4036e0:	ff 25 22 4a 21 00    	jmpq   *0x214a22(%rip)        # 618108 <_GLOBAL_OFFSET_TABLE_+0x108>
  4036e6:	68 1e 00 00 00       	pushq  $0x1e
  4036eb:	e9 00 fe ff ff       	jmpq   4034f0 <_init+0x20>

00000000004036f0 <_ZNSt7__cxx1112basic_stringIcSt11char_traitsIcESaIcEED1Ev@plt>:
  4036f0:	ff 25 1a 4a 21 00    	jmpq   *0x214a1a(%rip)        # 618110 <_GLOBAL_OFFSET_TABLE_+0x110>
  4036f6:	68 1f 00 00 00       	pushq  $0x1f
  4036fb:	e9 f0 fd ff ff       	jmpq   4034f0 <_init+0x20>

0000000000403700 <_ZSt20__throw_system_errori@plt>:
  403700:	ff 25 12 4a 21 00    	jmpq   *0x214a12(%rip)        # 618118 <_GLOBAL_OFFSET_TABLE_+0x118>
  403706:	68 20 00 00 00       	pushq  $0x20
  40370b:	e9 e0 fd ff ff       	jmpq   4034f0 <_init+0x20>

0000000000403710 <_ZNKSt7__cxx1112basic_stringIcSt11char_traitsIcESaIcEE4sizeEv@plt>:
  403710:	ff 25 0a 4a 21 00    	jmpq   *0x214a0a(%rip)        # 618120 <_GLOBAL_OFFSET_TABLE_+0x120>
  403716:	68 21 00 00 00       	pushq  $0x21
  40371b:	e9 d0 fd ff ff       	jmpq   4034f0 <_init+0x20>

0000000000403720 <memcpy@plt>:
  403720:	ff 25 02 4a 21 00    	jmpq   *0x214a02(%rip)        # 618128 <_GLOBAL_OFFSET_TABLE_+0x128>
  403726:	68 22 00 00 00       	pushq  $0x22
  40372b:	e9 c0 fd ff ff       	jmpq   4034f0 <_init+0x20>

0000000000403730 <__cxa_atexit@plt>:
  403730:	ff 25 fa 49 21 00    	jmpq   *0x2149fa(%rip)        # 618130 <_GLOBAL_OFFSET_TABLE_+0x130>
  403736:	68 23 00 00 00       	pushq  $0x23
  40373b:	e9 b0 fd ff ff       	jmpq   4034f0 <_init+0x20>

0000000000403740 <_ZdlPv@plt>:
  403740:	ff 25 f2 49 21 00    	jmpq   *0x2149f2(%rip)        # 618138 <_GLOBAL_OFFSET_TABLE_+0x138>
  403746:	68 24 00 00 00       	pushq  $0x24
  40374b:	e9 a0 fd ff ff       	jmpq   4034f0 <_init+0x20>

0000000000403750 <srand@plt>:
  403750:	ff 25 ea 49 21 00    	jmpq   *0x2149ea(%rip)        # 618140 <_GLOBAL_OFFSET_TABLE_+0x140>
  403756:	68 25 00 00 00       	pushq  $0x25
  40375b:	e9 90 fd ff ff       	jmpq   4034f0 <_init+0x20>

0000000000403760 <_Znwm@plt>:
  403760:	ff 25 e2 49 21 00    	jmpq   *0x2149e2(%rip)        # 618148 <_GLOBAL_OFFSET_TABLE_+0x148>
  403766:	68 26 00 00 00       	pushq  $0x26
  40376b:	e9 80 fd ff ff       	jmpq   4034f0 <_init+0x20>

0000000000403770 <_ZNSaIcED1Ev@plt>:
  403770:	ff 25 da 49 21 00    	jmpq   *0x2149da(%rip)        # 618150 <_GLOBAL_OFFSET_TABLE_+0x150>
  403776:	68 27 00 00 00       	pushq  $0x27
  40377b:	e9 70 fd ff ff       	jmpq   4034f0 <_init+0x20>

0000000000403780 <__stack_chk_fail@plt>:
  403780:	ff 25 d2 49 21 00    	jmpq   *0x2149d2(%rip)        # 618158 <_GLOBAL_OFFSET_TABLE_+0x158>
  403786:	68 28 00 00 00       	pushq  $0x28
  40378b:	e9 60 fd ff ff       	jmpq   4034f0 <_init+0x20>

0000000000403790 <_ZNK11arm_compute7IKernel6windowEv@plt>:
  403790:	ff 25 ca 49 21 00    	jmpq   *0x2149ca(%rip)        # 618160 <_GLOBAL_OFFSET_TABLE_+0x160>
  403796:	68 29 00 00 00       	pushq  $0x29
  40379b:	e9 50 fd ff ff       	jmpq   4034f0 <_init+0x20>

00000000004037a0 <_ZN11arm_compute16ITensorAllocator4initERKNS_10TensorInfoE@plt>:
  4037a0:	ff 25 c2 49 21 00    	jmpq   *0x2149c2(%rip)        # 618168 <_GLOBAL_OFFSET_TABLE_+0x168>
  4037a6:	68 2a 00 00 00       	pushq  $0x2a
  4037ab:	e9 40 fd ff ff       	jmpq   4034f0 <_init+0x20>

00000000004037b0 <xopenme_add_var_i@plt>:
  4037b0:	ff 25 ba 49 21 00    	jmpq   *0x2149ba(%rip)        # 618170 <_GLOBAL_OFFSET_TABLE_+0x170>
  4037b6:	68 2b 00 00 00       	pushq  $0x2b
  4037bb:	e9 30 fd ff ff       	jmpq   4034f0 <_init+0x20>

00000000004037c0 <_ZN11arm_compute8CLTensor9allocatorEv@plt>:
  4037c0:	ff 25 b2 49 21 00    	jmpq   *0x2149b2(%rip)        # 618178 <_GLOBAL_OFFSET_TABLE_+0x178>
  4037c6:	68 2c 00 00 00       	pushq  $0x2c
  4037cb:	e9 20 fd ff ff       	jmpq   4034f0 <_init+0x20>

00000000004037d0 <_ZN11arm_compute27CLDepthwiseConvolutionLayerC1Ev@plt>:
  4037d0:	ff 25 aa 49 21 00    	jmpq   *0x2149aa(%rip)        # 618180 <_GLOBAL_OFFSET_TABLE_+0x180>
  4037d6:	68 2d 00 00 00       	pushq  $0x2d
  4037db:	e9 10 fd ff ff       	jmpq   4034f0 <_init+0x20>

00000000004037e0 <fflush@plt>:
  4037e0:	ff 25 a2 49 21 00    	jmpq   *0x2149a2(%rip)        # 618188 <_GLOBAL_OFFSET_TABLE_+0x188>
  4037e6:	68 2e 00 00 00       	pushq  $0x2e
  4037eb:	e9 00 fd ff ff       	jmpq   4034f0 <_init+0x20>

00000000004037f0 <getenv@plt>:
  4037f0:	ff 25 9a 49 21 00    	jmpq   *0x21499a(%rip)        # 618190 <_GLOBAL_OFFSET_TABLE_+0x190>
  4037f6:	68 2f 00 00 00       	pushq  $0x2f
  4037fb:	e9 f0 fc ff ff       	jmpq   4034f0 <_init+0x20>

0000000000403800 <_ZNSt7__cxx1112basic_stringIcSt11char_traitsIcESaIcEEaSEOS4_@plt>:
  403800:	ff 25 92 49 21 00    	jmpq   *0x214992(%rip)        # 618198 <_GLOBAL_OFFSET_TABLE_+0x198>
  403806:	68 30 00 00 00       	pushq  $0x30
  40380b:	e9 e0 fc ff ff       	jmpq   4034f0 <_init+0x20>

0000000000403810 <clGetDeviceIDs@plt>:
  403810:	ff 25 8a 49 21 00    	jmpq   *0x21498a(%rip)        # 6181a0 <_GLOBAL_OFFSET_TABLE_+0x1a0>
  403816:	68 31 00 00 00       	pushq  $0x31
  40381b:	e9 d0 fc ff ff       	jmpq   4034f0 <_init+0x20>

0000000000403820 <clGetContextInfo@plt>:
  403820:	ff 25 82 49 21 00    	jmpq   *0x214982(%rip)        # 6181a8 <_GLOBAL_OFFSET_TABLE_+0x1a8>
  403826:	68 32 00 00 00       	pushq  $0x32
  40382b:	e9 c0 fc ff ff       	jmpq   4034f0 <_init+0x20>

0000000000403830 <__cxa_get_exception_ptr@plt>:
  403830:	ff 25 7a 49 21 00    	jmpq   *0x21497a(%rip)        # 6181b0 <_GLOBAL_OFFSET_TABLE_+0x1b0>
  403836:	68 33 00 00 00       	pushq  $0x33
  40383b:	e9 b0 fc ff ff       	jmpq   4034f0 <_init+0x20>

0000000000403840 <clReleaseCommandQueue@plt>:
  403840:	ff 25 72 49 21 00    	jmpq   *0x214972(%rip)        # 6181b8 <_GLOBAL_OFFSET_TABLE_+0x1b8>
  403846:	68 34 00 00 00       	pushq  $0x34
  40384b:	e9 a0 fc ff ff       	jmpq   4034f0 <_init+0x20>

0000000000403850 <_ZdaPv@plt>:
  403850:	ff 25 6a 49 21 00    	jmpq   *0x21496a(%rip)        # 6181c0 <_GLOBAL_OFFSET_TABLE_+0x1c0>
  403856:	68 35 00 00 00       	pushq  $0x35
  40385b:	e9 90 fc ff ff       	jmpq   4034f0 <_init+0x20>

0000000000403860 <_ZNKSt7__cxx1112basic_stringIcSt11char_traitsIcESaIcEE4dataEv@plt>:
  403860:	ff 25 62 49 21 00    	jmpq   *0x214962(%rip)        # 6181c8 <_GLOBAL_OFFSET_TABLE_+0x1c8>
  403866:	68 36 00 00 00       	pushq  $0x36
  40386b:	e9 80 fc ff ff       	jmpq   4034f0 <_init+0x20>

0000000000403870 <_ZN11arm_compute22get_target_from_deviceERN2cl6DeviceE@plt>:
  403870:	ff 25 5a 49 21 00    	jmpq   *0x21495a(%rip)        # 6181d0 <_GLOBAL_OFFSET_TABLE_+0x1d0>
  403876:	68 37 00 00 00       	pushq  $0x37
  40387b:	e9 70 fc ff ff       	jmpq   4034f0 <_init+0x20>

0000000000403880 <clGetPlatformIDs@plt>:
  403880:	ff 25 52 49 21 00    	jmpq   *0x214952(%rip)        # 6181d8 <_GLOBAL_OFFSET_TABLE_+0x1d8>
  403886:	68 38 00 00 00       	pushq  $0x38
  40388b:	e9 60 fc ff ff       	jmpq   4034f0 <_init+0x20>

0000000000403890 <_ZNKSt8__detail20_Prime_rehash_policy14_M_need_rehashEmmm@plt>:
  403890:	ff 25 4a 49 21 00    	jmpq   *0x21494a(%rip)        # 6181e0 <_GLOBAL_OFFSET_TABLE_+0x1e0>
  403896:	68 39 00 00 00       	pushq  $0x39
  40389b:	e9 50 fc ff ff       	jmpq   4034f0 <_init+0x20>

00000000004038a0 <xopenme_clock_end@plt>:
  4038a0:	ff 25 42 49 21 00    	jmpq   *0x214942(%rip)        # 6181e8 <_GLOBAL_OFFSET_TABLE_+0x1e8>
  4038a6:	68 3a 00 00 00       	pushq  $0x3a
  4038ab:	e9 40 fc ff ff       	jmpq   4034f0 <_init+0x20>

00000000004038b0 <_ZNSt7__cxx1112basic_stringIcSt11char_traitsIcESaIcEEC1EPKcRKS3_@plt>:
  4038b0:	ff 25 3a 49 21 00    	jmpq   *0x21493a(%rip)        # 6181f0 <_GLOBAL_OFFSET_TABLE_+0x1f0>
  4038b6:	68 3b 00 00 00       	pushq  $0x3b
  4038bb:	e9 30 fc ff ff       	jmpq   4034f0 <_init+0x20>

00000000004038c0 <putchar@plt>:
  4038c0:	ff 25 32 49 21 00    	jmpq   *0x214932(%rip)        # 6181f8 <_GLOBAL_OFFSET_TABLE_+0x1f8>
  4038c6:	68 3c 00 00 00       	pushq  $0x3c
  4038cb:	e9 20 fc ff ff       	jmpq   4034f0 <_init+0x20>

00000000004038d0 <__cxa_throw_bad_array_new_length@plt>:
  4038d0:	ff 25 2a 49 21 00    	jmpq   *0x21492a(%rip)        # 618200 <_GLOBAL_OFFSET_TABLE_+0x200>
  4038d6:	68 3d 00 00 00       	pushq  $0x3d
  4038db:	e9 10 fc ff ff       	jmpq   4034f0 <_init+0x20>

00000000004038e0 <__cxa_rethrow@plt>:
  4038e0:	ff 25 22 49 21 00    	jmpq   *0x214922(%rip)        # 618208 <_GLOBAL_OFFSET_TABLE_+0x208>
  4038e6:	68 3e 00 00 00       	pushq  $0x3e
  4038eb:	e9 00 fc ff ff       	jmpq   4034f0 <_init+0x20>

00000000004038f0 <_ZNKSt7__cxx1112basic_stringIcSt11char_traitsIcESaIcEE6lengthEv@plt>:
  4038f0:	ff 25 1a 49 21 00    	jmpq   *0x21491a(%rip)        # 618210 <_GLOBAL_OFFSET_TABLE_+0x210>
  4038f6:	68 3f 00 00 00       	pushq  $0x3f
  4038fb:	e9 f0 fb ff ff       	jmpq   4034f0 <_init+0x20>

0000000000403900 <_ZSt24__throw_out_of_range_fmtPKcz@plt>:
  403900:	ff 25 12 49 21 00    	jmpq   *0x214912(%rip)        # 618218 <_GLOBAL_OFFSET_TABLE_+0x218>
  403906:	68 40 00 00 00       	pushq  $0x40
  40390b:	e9 e0 fb ff ff       	jmpq   4034f0 <_init+0x20>

0000000000403910 <_ZN11arm_compute30CLDepthwiseConvolutionLayer3x3C1Ev@plt>:
  403910:	ff 25 0a 49 21 00    	jmpq   *0x21490a(%rip)        # 618220 <_GLOBAL_OFFSET_TABLE_+0x220>
  403916:	68 41 00 00 00       	pushq  $0x41
  40391b:	e9 d0 fb ff ff       	jmpq   4034f0 <_init+0x20>

0000000000403920 <_ZNSt8ios_base4InitC1Ev@plt>:
  403920:	ff 25 02 49 21 00    	jmpq   *0x214902(%rip)        # 618228 <_GLOBAL_OFFSET_TABLE_+0x228>
  403926:	68 42 00 00 00       	pushq  $0x42
  40392b:	e9 c0 fb ff ff       	jmpq   4034f0 <_init+0x20>

0000000000403930 <puts@plt>:
  403930:	ff 25 fa 48 21 00    	jmpq   *0x2148fa(%rip)        # 618230 <_GLOBAL_OFFSET_TABLE_+0x230>
  403936:	68 43 00 00 00       	pushq  $0x43
  40393b:	e9 b0 fb ff ff       	jmpq   4034f0 <_init+0x20>

0000000000403940 <atoi@plt>:
  403940:	ff 25 f2 48 21 00    	jmpq   *0x2148f2(%rip)        # 618238 <_GLOBAL_OFFSET_TABLE_+0x238>
  403946:	68 44 00 00 00       	pushq  $0x44
  40394b:	e9 a0 fb ff ff       	jmpq   4034f0 <_init+0x20>

0000000000403950 <clCreateCommandQueue@plt>:
  403950:	ff 25 ea 48 21 00    	jmpq   *0x2148ea(%rip)        # 618240 <_GLOBAL_OFFSET_TABLE_+0x240>
  403956:	68 45 00 00 00       	pushq  $0x45
  40395b:	e9 90 fb ff ff       	jmpq   4034f0 <_init+0x20>

0000000000403960 <__once_proxy@plt>:
  403960:	ff 25 e2 48 21 00    	jmpq   *0x2148e2(%rip)        # 618248 <_GLOBAL_OFFSET_TABLE_+0x248>
  403966:	68 46 00 00 00       	pushq  $0x46
  40396b:	e9 80 fb ff ff       	jmpq   4034f0 <_init+0x20>

0000000000403970 <__cxa_end_catch@plt>:
  403970:	ff 25 da 48 21 00    	jmpq   *0x2148da(%rip)        # 618250 <_GLOBAL_OFFSET_TABLE_+0x250>
  403976:	68 47 00 00 00       	pushq  $0x47
  40397b:	e9 70 fb ff ff       	jmpq   4034f0 <_init+0x20>

0000000000403980 <pthread_once@plt>:
  403980:	ff 25 d2 48 21 00    	jmpq   *0x2148d2(%rip)        # 618258 <_GLOBAL_OFFSET_TABLE_+0x258>
  403986:	68 48 00 00 00       	pushq  $0x48
  40398b:	e9 60 fb ff ff       	jmpq   4034f0 <_init+0x20>

0000000000403990 <__gxx_personality_v0@plt>:
  403990:	ff 25 ca 48 21 00    	jmpq   *0x2148ca(%rip)        # 618260 <_GLOBAL_OFFSET_TABLE_+0x260>
  403996:	68 49 00 00 00       	pushq  $0x49
  40399b:	e9 50 fb ff ff       	jmpq   4034f0 <_init+0x20>

00000000004039a0 <__pthread_key_create@plt>:
  4039a0:	ff 25 c2 48 21 00    	jmpq   *0x2148c2(%rip)        # 618268 <_GLOBAL_OFFSET_TABLE_+0x268>
  4039a6:	68 4a 00 00 00       	pushq  $0x4a
  4039ab:	e9 40 fb ff ff       	jmpq   4034f0 <_init+0x20>

00000000004039b0 <clRetainContext@plt>:
  4039b0:	ff 25 ba 48 21 00    	jmpq   *0x2148ba(%rip)        # 618270 <_GLOBAL_OFFSET_TABLE_+0x270>
  4039b6:	68 4b 00 00 00       	pushq  $0x4b
  4039bb:	e9 30 fb ff ff       	jmpq   4034f0 <_init+0x20>

00000000004039c0 <__cxa_throw@plt>:
  4039c0:	ff 25 b2 48 21 00    	jmpq   *0x2148b2(%rip)        # 618278 <_GLOBAL_OFFSET_TABLE_+0x278>
  4039c6:	68 4c 00 00 00       	pushq  $0x4c
  4039cb:	e9 20 fb ff ff       	jmpq   4034f0 <_init+0x20>

00000000004039d0 <_Unwind_Resume@plt>:
  4039d0:	ff 25 aa 48 21 00    	jmpq   *0x2148aa(%rip)        # 618280 <_GLOBAL_OFFSET_TABLE_+0x280>
  4039d6:	68 4d 00 00 00       	pushq  $0x4d
  4039db:	e9 10 fb ff ff       	jmpq   4034f0 <_init+0x20>

00000000004039e0 <_ZNSaIcEC1Ev@plt>:
  4039e0:	ff 25 a2 48 21 00    	jmpq   *0x2148a2(%rip)        # 618288 <_GLOBAL_OFFSET_TABLE_+0x288>
  4039e6:	68 4e 00 00 00       	pushq  $0x4e
  4039eb:	e9 00 fb ff ff       	jmpq   4034f0 <_init+0x20>

00000000004039f0 <_ZN11arm_compute8CLTensor3mapEb@plt>:
  4039f0:	ff 25 9a 48 21 00    	jmpq   *0x21489a(%rip)        # 618290 <_GLOBAL_OFFSET_TABLE_+0x290>
  4039f6:	68 4f 00 00 00       	pushq  $0x4f
  4039fb:	e9 f0 fa ff ff       	jmpq   4034f0 <_init+0x20>

0000000000403a00 <_ZNSt9exceptionD2Ev@plt>:
  403a00:	ff 25 92 48 21 00    	jmpq   *0x214892(%rip)        # 618298 <_GLOBAL_OFFSET_TABLE_+0x298>
  403a06:	68 50 00 00 00       	pushq  $0x50
  403a0b:	e9 e0 fa ff ff       	jmpq   4034f0 <_init+0x20>

0000000000403a10 <__libc_start_main@plt>:
  403a10:	ff 25 8a 48 21 00    	jmpq   *0x21488a(%rip)        # 6182a0 <_GLOBAL_OFFSET_TABLE_+0x2a0>
  403a16:	68 51 00 00 00       	pushq  $0x51
  403a1b:	e9 d0 fa ff ff       	jmpq   4034f0 <_init+0x20>

0000000000403a20 <_ZN11arm_compute27CLDepthwiseConvolutionLayer9configureEPNS_9ICLTensorEPKS1_S4_S2_RKNS_13PadStrideInfoE@plt>:
  403a20:	ff 25 82 48 21 00    	jmpq   *0x214882(%rip)        # 6182a8 <_GLOBAL_OFFSET_TABLE_+0x2a8>
  403a26:	68 52 00 00 00       	pushq  $0x52
  403a2b:	e9 c0 fa ff ff       	jmpq   4034f0 <_init+0x20>

0000000000403a30 <xopenme_add_var_f@plt>:
  403a30:	ff 25 7a 48 21 00    	jmpq   *0x21487a(%rip)        # 6182b0 <_GLOBAL_OFFSET_TABLE_+0x2b0>
  403a36:	68 53 00 00 00       	pushq  $0x53
  403a3b:	e9 b0 fa ff ff       	jmpq   4034f0 <_init+0x20>

0000000000403a40 <_ZN11arm_compute8CLTensorC1Ev@plt>:
  403a40:	ff 25 72 48 21 00    	jmpq   *0x214872(%rip)        # 6182b8 <_GLOBAL_OFFSET_TABLE_+0x2b8>
  403a46:	68 54 00 00 00       	pushq  $0x54
  403a4b:	e9 a0 fa ff ff       	jmpq   4034f0 <_init+0x20>

0000000000403a50 <__cxa_pure_virtual@plt>:
  403a50:	ff 25 6a 48 21 00    	jmpq   *0x21486a(%rip)        # 6182c0 <_GLOBAL_OFFSET_TABLE_+0x2c0>
  403a56:	68 55 00 00 00       	pushq  $0x55
  403a5b:	e9 90 fa ff ff       	jmpq   4034f0 <_init+0x20>

0000000000403a60 <xopenme_get_timer@plt>:
  403a60:	ff 25 62 48 21 00    	jmpq   *0x214862(%rip)        # 6182c8 <_GLOBAL_OFFSET_TABLE_+0x2c8>
  403a66:	68 56 00 00 00       	pushq  $0x56
  403a6b:	e9 80 fa ff ff       	jmpq   4034f0 <_init+0x20>

0000000000403a70 <_ZNSt8ios_base4InitD1Ev@plt>:
  403a70:	ff 25 5a 48 21 00    	jmpq   *0x21485a(%rip)        # 6182d0 <_GLOBAL_OFFSET_TABLE_+0x2d0>
  403a76:	68 57 00 00 00       	pushq  $0x57
  403a7b:	e9 70 fa ff ff       	jmpq   4034f0 <_init+0x20>

Disassembly of section .plt.got:

0000000000403a80 <.plt.got>:
  403a80:	ff 25 72 45 21 00    	jmpq   *0x214572(%rip)        # 617ff8 <_DYNAMIC+0x230>
  403a86:	66 90                	xchg   %ax,%ax

Disassembly of section .text:

0000000000403a90 <_start>:
  403a90:	31 ed                	xor    %ebp,%ebp
  403a92:	49 89 d1             	mov    %rdx,%r9
  403a95:	5e                   	pop    %rsi
  403a96:	48 89 e2             	mov    %rsp,%rdx
  403a99:	48 83 e4 f0          	and    $0xfffffffffffffff0,%rsp
  403a9d:	50                   	push   %rax
  403a9e:	54                   	push   %rsp
  403a9f:	49 c7 c0 e0 01 41 00 	mov    $0x4101e0,%r8
  403aa6:	48 c7 c1 70 01 41 00 	mov    $0x410170,%rcx
  403aad:	48 c7 c7 33 41 40 00 	mov    $0x404133,%rdi
  403ab4:	e8 57 ff ff ff       	callq  403a10 <__libc_start_main@plt>
  403ab9:	f4                   	hlt    
  403aba:	66 0f 1f 44 00 00    	nopw   0x0(%rax,%rax,1)

0000000000403ac0 <deregister_tm_clones>:
  403ac0:	b8 ef 82 61 00       	mov    $0x6182ef,%eax
  403ac5:	55                   	push   %rbp
  403ac6:	48 2d e8 82 61 00    	sub    $0x6182e8,%rax
  403acc:	48 83 f8 0e          	cmp    $0xe,%rax
  403ad0:	48 89 e5             	mov    %rsp,%rbp
  403ad3:	76 1b                	jbe    403af0 <deregister_tm_clones+0x30>
  403ad5:	b8 00 00 00 00       	mov    $0x0,%eax
  403ada:	48 85 c0             	test   %rax,%rax
  403add:	74 11                	je     403af0 <deregister_tm_clones+0x30>
  403adf:	5d                   	pop    %rbp
  403ae0:	bf e8 82 61 00       	mov    $0x6182e8,%edi
  403ae5:	ff e0                	jmpq   *%rax
  403ae7:	66 0f 1f 84 00 00 00 	nopw   0x0(%rax,%rax,1)
  403aee:	00 00 
  403af0:	5d                   	pop    %rbp
  403af1:	c3                   	retq   
  403af2:	0f 1f 40 00          	nopl   0x0(%rax)
  403af6:	66 2e 0f 1f 84 00 00 	nopw   %cs:0x0(%rax,%rax,1)
  403afd:	00 00 00 

0000000000403b00 <register_tm_clones>:
  403b00:	be e8 82 61 00       	mov    $0x6182e8,%esi
  403b05:	55                   	push   %rbp
  403b06:	48 81 ee e8 82 61 00 	sub    $0x6182e8,%rsi
  403b0d:	48 c1 fe 03          	sar    $0x3,%rsi
  403b11:	48 89 e5             	mov    %rsp,%rbp
  403b14:	48 89 f0             	mov    %rsi,%rax
  403b17:	48 c1 e8 3f          	shr    $0x3f,%rax
  403b1b:	48 01 c6             	add    %rax,%rsi
  403b1e:	48 d1 fe             	sar    %rsi
  403b21:	74 15                	je     403b38 <register_tm_clones+0x38>
  403b23:	b8 00 00 00 00       	mov    $0x0,%eax
  403b28:	48 85 c0             	test   %rax,%rax
  403b2b:	74 0b                	je     403b38 <register_tm_clones+0x38>
  403b2d:	5d                   	pop    %rbp
  403b2e:	bf e8 82 61 00       	mov    $0x6182e8,%edi
  403b33:	ff e0                	jmpq   *%rax
  403b35:	0f 1f 00             	nopl   (%rax)
  403b38:	5d                   	pop    %rbp
  403b39:	c3                   	retq   
  403b3a:	66 0f 1f 44 00 00    	nopw   0x0(%rax,%rax,1)

0000000000403b40 <__do_global_dtors_aux>:
  403b40:	80 3d c9 49 21 00 00 	cmpb   $0x0,0x2149c9(%rip)        # 618510 <completed.7593>
  403b47:	75 11                	jne    403b5a <__do_global_dtors_aux+0x1a>
  403b49:	55                   	push   %rbp
  403b4a:	48 89 e5             	mov    %rsp,%rbp
  403b4d:	e8 6e ff ff ff       	callq  403ac0 <deregister_tm_clones>
  403b52:	5d                   	pop    %rbp
  403b53:	c6 05 b6 49 21 00 01 	movb   $0x1,0x2149b6(%rip)        # 618510 <completed.7593>
  403b5a:	f3 c3                	repz retq 
  403b5c:	0f 1f 40 00          	nopl   0x0(%rax)

0000000000403b60 <frame_dummy>:
  403b60:	bf c0 7d 61 00       	mov    $0x617dc0,%edi
  403b65:	48 83 3f 00          	cmpq   $0x0,(%rdi)
  403b69:	75 05                	jne    403b70 <frame_dummy+0x10>
  403b6b:	eb 93                	jmp    403b00 <register_tm_clones>
  403b6d:	0f 1f 00             	nopl   (%rax)
  403b70:	b8 00 00 00 00       	mov    $0x0,%eax
  403b75:	48 85 c0             	test   %rax,%rax
  403b78:	74 f1                	je     403b6b <frame_dummy+0xb>
  403b7a:	55                   	push   %rbp
  403b7b:	48 89 e5             	mov    %rsp,%rbp
  403b7e:	ff d0                	callq  *%rax
  403b80:	5d                   	pop    %rbp
  403b81:	e9 7a ff ff ff       	jmpq   403b00 <register_tm_clones>

0000000000403b86 <_ZL18__gthread_active_pv>:
  403b86:	55                   	push   %rbp
  403b87:	48 89 e5             	mov    %rsp,%rbp
  403b8a:	b8 01 00 00 00       	mov    $0x1,%eax
  403b8f:	ba a0 39 40 00       	mov    $0x4039a0,%edx
  403b94:	48 85 d2             	test   %rdx,%rdx
  403b97:	75 05                	jne    403b9e <_ZL18__gthread_active_pv+0x18>
  403b99:	b8 00 00 00 00       	mov    $0x0,%eax
  403b9e:	0f b6 c0             	movzbl %al,%eax
  403ba1:	5d                   	pop    %rbp
  403ba2:	c3                   	retq   

0000000000403ba3 <_ZL14__gthread_oncePiPFvvE>:
  403ba3:	55                   	push   %rbp
  403ba4:	48 89 e5             	mov    %rsp,%rbp
  403ba7:	48 83 ec 10          	sub    $0x10,%rsp
  403bab:	48 89 7d f8          	mov    %rdi,-0x8(%rbp)
  403baf:	48 89 75 f0          	mov    %rsi,-0x10(%rbp)
  403bb3:	e8 ce ff ff ff       	callq  403b86 <_ZL18__gthread_active_pv>
  403bb8:	85 c0                	test   %eax,%eax
  403bba:	0f 95 c0             	setne  %al
  403bbd:	84 c0                	test   %al,%al
  403bbf:	74 15                	je     403bd6 <_ZL14__gthread_oncePiPFvvE+0x33>
  403bc1:	48 8b 55 f0          	mov    -0x10(%rbp),%rdx
  403bc5:	48 8b 45 f8          	mov    -0x8(%rbp),%rax
  403bc9:	48 89 d6             	mov    %rdx,%rsi
  403bcc:	48 89 c7             	mov    %rax,%rdi
  403bcf:	e8 ac fd ff ff       	callq  403980 <pthread_once@plt>
  403bd4:	eb 05                	jmp    403bdb <_ZL14__gthread_oncePiPFvvE+0x38>
  403bd6:	b8 ff ff ff ff       	mov    $0xffffffff,%eax
  403bdb:	c9                   	leaveq 
  403bdc:	c3                   	retq   

0000000000403bdd <_ZN2cl6detailL10errHandlerEiPKc>:
  403bdd:	55                   	push   %rbp
  403bde:	48 89 e5             	mov    %rsp,%rbp
  403be1:	53                   	push   %rbx
  403be2:	48 83 ec 18          	sub    $0x18,%rsp
  403be6:	89 7d ec             	mov    %edi,-0x14(%rbp)
  403be9:	48 89 75 e0          	mov    %rsi,-0x20(%rbp)
  403bed:	83 7d ec 00          	cmpl   $0x0,-0x14(%rbp)
  403bf1:	74 30                	je     403c23 <_ZN2cl6detailL10errHandlerEiPKc+0x46>
  403bf3:	bf 18 00 00 00       	mov    $0x18,%edi
  403bf8:	e8 a3 fa ff ff       	callq  4036a0 <__cxa_allocate_exception@plt>
  403bfd:	48 89 c3             	mov    %rax,%rbx
  403c00:	48 8b 55 e0          	mov    -0x20(%rbp),%rdx
  403c04:	8b 45 ec             	mov    -0x14(%rbp),%eax
  403c07:	89 c6                	mov    %eax,%esi
  403c09:	48 89 df             	mov    %rbx,%rdi
  403c0c:	e8 df 0c 00 00       	callq  4048f0 <_ZN2cl5ErrorC1EiPKc>
  403c11:	ba 34 49 40 00       	mov    $0x404934,%edx
  403c16:	be a0 07 41 00       	mov    $0x4107a0,%esi
  403c1b:	48 89 df             	mov    %rbx,%rdi
  403c1e:	e8 9d fd ff ff       	callq  4039c0 <__cxa_throw@plt>
  403c23:	8b 45 ec             	mov    -0x14(%rbp),%eax
  403c26:	48 83 c4 18          	add    $0x18,%rsp
  403c2a:	5b                   	pop    %rbx
  403c2b:	5d                   	pop    %rbp
  403c2c:	c3                   	retq   

0000000000403c2d <_ZN2cl6detailL10getVersionERKSt6vectorIcSaIcEE>:
  403c2d:	55                   	push   %rbp
  403c2e:	48 89 e5             	mov    %rsp,%rbp
  403c31:	48 83 ec 20          	sub    $0x20,%rsp
  403c35:	48 89 7d e8          	mov    %rdi,-0x18(%rbp)
  403c39:	c7 45 f4 00 00 00 00 	movl   $0x0,-0xc(%rbp)
  403c40:	c7 45 f8 00 00 00 00 	movl   $0x0,-0x8(%rbp)
  403c47:	c7 45 fc 07 00 00 00 	movl   $0x7,-0x4(%rbp)
  403c4e:	8b 45 fc             	mov    -0x4(%rbp),%eax
  403c51:	48 63 d0             	movslq %eax,%rdx
  403c54:	48 8b 45 e8          	mov    -0x18(%rbp),%rax
  403c58:	48 89 d6             	mov    %rdx,%rsi
  403c5b:	48 89 c7             	mov    %rax,%rdi
  403c5e:	e8 75 3b 00 00       	callq  4077d8 <_ZNKSt6vectorIcSaIcEEixEm>
  403c63:	0f b6 00             	movzbl (%rax),%eax
  403c66:	3c 2e                	cmp    $0x2e,%al
  403c68:	0f 95 c0             	setne  %al
  403c6b:	84 c0                	test   %al,%al
  403c6d:	74 36                	je     403ca5 <_ZN2cl6detailL10getVersionERKSt6vectorIcSaIcEE+0x78>
  403c6f:	8b 55 f4             	mov    -0xc(%rbp),%edx
  403c72:	89 d0                	mov    %edx,%eax
  403c74:	c1 e0 02             	shl    $0x2,%eax
  403c77:	01 d0                	add    %edx,%eax
  403c79:	01 c0                	add    %eax,%eax
  403c7b:	89 45 f4             	mov    %eax,-0xc(%rbp)
  403c7e:	8b 45 fc             	mov    -0x4(%rbp),%eax
  403c81:	48 63 d0             	movslq %eax,%rdx
  403c84:	48 8b 45 e8          	mov    -0x18(%rbp),%rax
  403c88:	48 89 d6             	mov    %rdx,%rsi
  403c8b:	48 89 c7             	mov    %rax,%rdi
  403c8e:	e8 45 3b 00 00       	callq  4077d8 <_ZNKSt6vectorIcSaIcEEixEm>
  403c93:	0f b6 00             	movzbl (%rax),%eax
  403c96:	0f be c0             	movsbl %al,%eax
  403c99:	83 e8 30             	sub    $0x30,%eax
  403c9c:	01 45 f4             	add    %eax,-0xc(%rbp)
  403c9f:	83 45 fc 01          	addl   $0x1,-0x4(%rbp)
  403ca3:	eb a9                	jmp    403c4e <_ZN2cl6detailL10getVersionERKSt6vectorIcSaIcEE+0x21>
  403ca5:	83 45 fc 01          	addl   $0x1,-0x4(%rbp)
  403ca9:	8b 45 fc             	mov    -0x4(%rbp),%eax
  403cac:	48 63 d0             	movslq %eax,%rdx
  403caf:	48 8b 45 e8          	mov    -0x18(%rbp),%rax
  403cb3:	48 89 d6             	mov    %rdx,%rsi
  403cb6:	48 89 c7             	mov    %rax,%rdi
  403cb9:	e8 1a 3b 00 00       	callq  4077d8 <_ZNKSt6vectorIcSaIcEEixEm>
  403cbe:	0f b6 00             	movzbl (%rax),%eax
  403cc1:	3c 20                	cmp    $0x20,%al
  403cc3:	74 23                	je     403ce8 <_ZN2cl6detailL10getVersionERKSt6vectorIcSaIcEE+0xbb>
  403cc5:	8b 45 fc             	mov    -0x4(%rbp),%eax
  403cc8:	48 63 d0             	movslq %eax,%rdx
  403ccb:	48 8b 45 e8          	mov    -0x18(%rbp),%rax
  403ccf:	48 89 d6             	mov    %rdx,%rsi
  403cd2:	48 89 c7             	mov    %rax,%rdi
  403cd5:	e8 fe 3a 00 00       	callq  4077d8 <_ZNKSt6vectorIcSaIcEEixEm>
  403cda:	0f b6 00             	movzbl (%rax),%eax
  403cdd:	84 c0                	test   %al,%al
  403cdf:	74 07                	je     403ce8 <_ZN2cl6detailL10getVersionERKSt6vectorIcSaIcEE+0xbb>
  403ce1:	b8 01 00 00 00       	mov    $0x1,%eax
  403ce6:	eb 05                	jmp    403ced <_ZN2cl6detailL10getVersionERKSt6vectorIcSaIcEE+0xc0>
  403ce8:	b8 00 00 00 00       	mov    $0x0,%eax
  403ced:	84 c0                	test   %al,%al
  403cef:	74 36                	je     403d27 <_ZN2cl6detailL10getVersionERKSt6vectorIcSaIcEE+0xfa>
  403cf1:	8b 55 f8             	mov    -0x8(%rbp),%edx
  403cf4:	89 d0                	mov    %edx,%eax
  403cf6:	c1 e0 02             	shl    $0x2,%eax
  403cf9:	01 d0                	add    %edx,%eax
  403cfb:	01 c0                	add    %eax,%eax
  403cfd:	89 45 f8             	mov    %eax,-0x8(%rbp)
  403d00:	8b 45 fc             	mov    -0x4(%rbp),%eax
  403d03:	48 63 d0             	movslq %eax,%rdx
  403d06:	48 8b 45 e8          	mov    -0x18(%rbp),%rax
  403d0a:	48 89 d6             	mov    %rdx,%rsi
  403d0d:	48 89 c7             	mov    %rax,%rdi
  403d10:	e8 c3 3a 00 00       	callq  4077d8 <_ZNKSt6vectorIcSaIcEEixEm>
  403d15:	0f b6 00             	movzbl (%rax),%eax
  403d18:	0f be c0             	movsbl %al,%eax
  403d1b:	83 e8 30             	sub    $0x30,%eax
  403d1e:	01 45 f8             	add    %eax,-0x8(%rbp)
  403d21:	83 45 fc 01          	addl   $0x1,-0x4(%rbp)
  403d25:	eb 82                	jmp    403ca9 <_ZN2cl6detailL10getVersionERKSt6vectorIcSaIcEE+0x7c>
  403d27:	8b 45 f4             	mov    -0xc(%rbp),%eax
  403d2a:	c1 e0 10             	shl    $0x10,%eax
  403d2d:	0b 45 f8             	or     -0x8(%rbp),%eax
  403d30:	c9                   	leaveq 
  403d31:	c3                   	retq   

0000000000403d32 <_ZN2CK16store_setup_timeEf>:
  403d32:	55                   	push   %rbp
  403d33:	48 89 e5             	mov    %rsp,%rbp
  403d36:	48 83 ec 10          	sub    $0x10,%rsp
  403d3a:	f3 0f 11 45 fc       	movss  %xmm0,-0x4(%rbp)
  403d3f:	8b 45 fc             	mov    -0x4(%rbp),%eax
  403d42:	89 45 f8             	mov    %eax,-0x8(%rbp)
  403d45:	f3 0f 10 45 f8       	movss  -0x8(%rbp),%xmm0
  403d4a:	be f0 03 41 00       	mov    $0x4103f0,%esi
  403d4f:	bf 0a 00 00 00       	mov    $0xa,%edi
  403d54:	e8 a3 32 00 00       	callq  406ffc <_ZN2CK13store_value_fEiPKcf>
  403d59:	90                   	nop
  403d5a:	c9                   	leaveq 
  403d5b:	c3                   	retq   

0000000000403d5c <_ZN2CK15store_test_timeEf>:
  403d5c:	55                   	push   %rbp
  403d5d:	48 89 e5             	mov    %rsp,%rbp
  403d60:	48 83 ec 10          	sub    $0x10,%rsp
  403d64:	f3 0f 11 45 fc       	movss  %xmm0,-0x4(%rbp)
  403d69:	8b 45 fc             	mov    -0x4(%rbp),%eax
  403d6c:	89 45 f8             	mov    %eax,-0x8(%rbp)
  403d6f:	f3 0f 10 45 f8       	movss  -0x8(%rbp),%xmm0
  403d74:	be fb 03 41 00       	mov    $0x4103fb,%esi
  403d79:	bf 0b 00 00 00       	mov    $0xb,%edi
  403d7e:	e8 79 32 00 00       	callq  406ffc <_ZN2CK13store_value_fEiPKcf>
  403d83:	90                   	nop
  403d84:	c9                   	leaveq 
  403d85:	c3                   	retq   

0000000000403d86 <_ZN2CK5armcl15printf_callbackEPKcjmPv>:
  403d86:	55                   	push   %rbp
  403d87:	48 89 e5             	mov    %rsp,%rbp
  403d8a:	48 83 ec 20          	sub    $0x20,%rsp
  403d8e:	48 89 7d f8          	mov    %rdi,-0x8(%rbp)
  403d92:	89 75 f4             	mov    %esi,-0xc(%rbp)
  403d95:	48 89 55 e8          	mov    %rdx,-0x18(%rbp)
  403d99:	48 89 4d e0          	mov    %rcx,-0x20(%rbp)
  403d9d:	48 8b 55 f8          	mov    -0x8(%rbp),%rdx
  403da1:	8b 45 f4             	mov    -0xc(%rbp),%eax
  403da4:	89 c6                	mov    %eax,%esi
  403da6:	bf 05 04 41 00       	mov    $0x410405,%edi
  403dab:	b8 00 00 00 00       	mov    $0x0,%eax
  403db0:	e8 6b f7 ff ff       	callq  403520 <printf@plt>
  403db5:	90                   	nop
  403db6:	c9                   	leaveq 
  403db7:	c3                   	retq   

0000000000403db8 <_Z16init_tensor_dataPN11arm_compute8CLTensorERKN2CK5ShapeEPKcS7_>:
  403db8:	55                   	push   %rbp
  403db9:	48 89 e5             	mov    %rsp,%rbp
  403dbc:	48 83 ec 30          	sub    $0x30,%rsp
  403dc0:	48 89 7d e8          	mov    %rdi,-0x18(%rbp)
  403dc4:	48 89 75 e0          	mov    %rsi,-0x20(%rbp)
  403dc8:	48 89 55 d8          	mov    %rdx,-0x28(%rbp)
  403dcc:	48 89 4d d0          	mov    %rcx,-0x30(%rbp)
  403dd0:	48 8b 45 e0          	mov    -0x20(%rbp),%rax
  403dd4:	48 89 c7             	mov    %rax,%rdi
  403dd7:	e8 27 4a 00 00       	callq  408803 <_ZN2CK19get_random_raw_dataIfEEPT_RKNS_5ShapeE>
  403ddc:	48 89 45 f8          	mov    %rax,-0x8(%rbp)
  403de0:	48 8b 55 e0          	mov    -0x20(%rbp),%rdx
  403de4:	48 8b 45 f8          	mov    -0x8(%rbp),%rax
  403de8:	48 89 d6             	mov    %rdx,%rsi
  403deb:	48 89 c7             	mov    %rax,%rdi
  403dee:	e8 f7 4a 00 00       	callq  4088ea <_ZN2CK32convert_data_layout_NHWC_to_NCHWIfEEvPT_RKNS_5ShapeE>
  403df3:	48 8b 4d d0          	mov    -0x30(%rbp),%rcx
  403df7:	48 8b 55 d8          	mov    -0x28(%rbp),%rdx
  403dfb:	48 8b 75 e0          	mov    -0x20(%rbp),%rsi
  403dff:	48 8b 45 f8          	mov    -0x8(%rbp),%rax
  403e03:	48 89 c7             	mov    %rax,%rdi
  403e06:	e8 47 4c 00 00       	callq  408a52 <_ZN2CK12log_raw_dataIfEEvPT_RKNS_5ShapeEPKcS7_>
  403e0b:	48 8b 55 e0          	mov    -0x20(%rbp),%rdx
  403e0f:	48 8b 4d f8          	mov    -0x8(%rbp),%rcx
  403e13:	48 8b 45 e8          	mov    -0x18(%rbp),%rax
  403e17:	48 89 ce             	mov    %rcx,%rsi
  403e1a:	48 89 c7             	mov    %rax,%rdi
  403e1d:	e8 0c 4d 00 00       	callq  408b2e <_ZN2CK5armcl23copy_raw_data_to_tensorIfEEvPN11arm_compute8CLTensorEPT_RKNS_5ShapeE>
  403e22:	48 83 7d f8 00       	cmpq   $0x0,-0x8(%rbp)
  403e27:	74 0c                	je     403e35 <_Z16init_tensor_dataPN11arm_compute8CLTensorERKN2CK5ShapeEPKcS7_+0x7d>
  403e29:	48 8b 45 f8          	mov    -0x8(%rbp),%rax
  403e2d:	48 89 c7             	mov    %rax,%rdi
  403e30:	e8 1b fa ff ff       	callq  403850 <_ZdaPv@plt>
  403e35:	90                   	nop
  403e36:	c9                   	leaveq 
  403e37:	c3                   	retq   

0000000000403e38 <_Z15to_tensor_shapeRKN2CK5ShapeE>:
  403e38:	55                   	push   %rbp
  403e39:	48 89 e5             	mov    %rsp,%rbp
  403e3c:	48 83 ec 10          	sub    $0x10,%rsp
  403e40:	48 89 7d f8          	mov    %rdi,-0x8(%rbp)
  403e44:	48 89 75 f0          	mov    %rsi,-0x10(%rbp)
  403e48:	48 8b 45 f0          	mov    -0x10(%rbp),%rax
  403e4c:	8b 00                	mov    (%rax),%eax
  403e4e:	48 63 f8             	movslq %eax,%rdi
  403e51:	48 8b 45 f0          	mov    -0x10(%rbp),%rax
  403e55:	8b 40 04             	mov    0x4(%rax),%eax
  403e58:	48 63 c8             	movslq %eax,%rcx
  403e5b:	48 8b 45 f0          	mov    -0x10(%rbp),%rax
  403e5f:	8b 40 08             	mov    0x8(%rax),%eax
  403e62:	48 63 d0             	movslq %eax,%rdx
  403e65:	48 8b 45 f0          	mov    -0x10(%rbp),%rax
  403e69:	8b 40 0c             	mov    0xc(%rax),%eax
  403e6c:	48 63 f0             	movslq %eax,%rsi
  403e6f:	48 8b 45 f8          	mov    -0x8(%rbp),%rax
  403e73:	49 89 f8             	mov    %rdi,%r8
  403e76:	48 89 c7             	mov    %rax,%rdi
  403e79:	e8 be 48 00 00       	callq  40873c <_ZN11arm_compute11TensorShapeC1IJmmmmEEEDpT_>
  403e7e:	48 8b 45 f8          	mov    -0x8(%rbp),%rax
  403e82:	c9                   	leaveq 
  403e83:	c3                   	retq   

0000000000403e84 <_ZZ4mainENKUlvE_clEv>:
  403e84:	55                   	push   %rbp
  403e85:	48 89 e5             	mov    %rsp,%rbp
  403e88:	53                   	push   %rbx
  403e89:	48 81 ec f8 01 00 00 	sub    $0x1f8,%rsp
  403e90:	48 89 bd 08 fe ff ff 	mov    %rdi,-0x1f8(%rbp)
  403e97:	64 48 8b 04 25 28 00 	mov    %fs:0x28,%rax
  403e9e:	00 00 
  403ea0:	48 89 45 e8          	mov    %rax,-0x18(%rbp)
  403ea4:	31 c0                	xor    %eax,%eax
  403ea6:	48 8d 9d 20 fe ff ff 	lea    -0x1e0(%rbp),%rbx
  403ead:	48 8b 85 08 fe ff ff 	mov    -0x1f8(%rbp),%rax
  403eb4:	48 8b 00             	mov    (%rax),%rax
  403eb7:	48 89 c6             	mov    %rax,%rsi
  403eba:	48 89 df             	mov    %rbx,%rdi
  403ebd:	e8 76 ff ff ff       	callq  403e38 <_Z15to_tensor_shapeRKN2CK5ShapeE>
  403ec2:	48 83 c3 38          	add    $0x38,%rbx
  403ec6:	48 8b 85 08 fe ff ff 	mov    -0x1f8(%rbp),%rax
  403ecd:	48 8b 40 08          	mov    0x8(%rax),%rax
  403ed1:	48 89 c6             	mov    %rax,%rsi
  403ed4:	48 89 df             	mov    %rbx,%rdi
  403ed7:	e8 5c ff ff ff       	callq  403e38 <_Z15to_tensor_shapeRKN2CK5ShapeE>
  403edc:	48 8d 53 38          	lea    0x38(%rbx),%rdx
  403ee0:	48 8b 85 08 fe ff ff 	mov    -0x1f8(%rbp),%rax
  403ee7:	48 8b 40 10          	mov    0x10(%rax),%rax
  403eeb:	48 89 c6             	mov    %rax,%rsi
  403eee:	48 89 d7             	mov    %rdx,%rdi
  403ef1:	e8 42 ff ff ff       	callq  403e38 <_Z15to_tensor_shapeRKN2CK5ShapeE>
  403ef6:	c7 85 18 fe ff ff 00 	movl   $0x0,-0x1e8(%rbp)
  403efd:	00 00 00 
  403f00:	83 bd 18 fe ff ff 02 	cmpl   $0x2,-0x1e8(%rbp)
  403f07:	0f 8f a5 00 00 00    	jg     403fb2 <_ZZ4mainENKUlvE_clEv+0x12e>
  403f0d:	48 8d 8d 20 fe ff ff 	lea    -0x1e0(%rbp),%rcx
  403f14:	8b 85 18 fe ff ff    	mov    -0x1e8(%rbp),%eax
  403f1a:	48 63 d0             	movslq %eax,%rdx
  403f1d:	48 89 d0             	mov    %rdx,%rax
  403f20:	48 c1 e0 03          	shl    $0x3,%rax
  403f24:	48 29 d0             	sub    %rdx,%rax
  403f27:	48 c1 e0 03          	shl    $0x3,%rax
  403f2b:	48 8d 34 01          	lea    (%rcx,%rax,1),%rsi
  403f2f:	48 8d 85 d0 fe ff ff 	lea    -0x130(%rbp),%rax
  403f36:	41 b8 00 00 00 00    	mov    $0x0,%r8d
  403f3c:	b9 0e 00 00 00       	mov    $0xe,%ecx
  403f41:	ba 01 00 00 00       	mov    $0x1,%edx
  403f46:	48 89 c7             	mov    %rax,%rdi
  403f49:	e8 a2 f6 ff ff       	callq  4035f0 <_ZN11arm_compute10TensorInfoC1ERKNS_11TensorShapeEmNS_8DataTypeEi@plt>
  403f4e:	48 8b 85 08 fe ff ff 	mov    -0x1f8(%rbp),%rax
  403f55:	48 8b 48 18          	mov    0x18(%rax),%rcx
  403f59:	8b 85 18 fe ff ff    	mov    -0x1e8(%rbp),%eax
  403f5f:	48 63 d0             	movslq %eax,%rdx
  403f62:	48 89 d0             	mov    %rdx,%rax
  403f65:	48 c1 e0 02          	shl    $0x2,%rax
  403f69:	48 01 d0             	add    %rdx,%rax
  403f6c:	48 c1 e0 02          	shl    $0x2,%rax
  403f70:	48 01 d0             	add    %rdx,%rax
  403f73:	48 c1 e0 04          	shl    $0x4,%rax
  403f77:	48 01 c8             	add    %rcx,%rax
  403f7a:	48 89 c7             	mov    %rax,%rdi
  403f7d:	e8 3e f8 ff ff       	callq  4037c0 <_ZN11arm_compute8CLTensor9allocatorEv@plt>
  403f82:	48 89 c2             	mov    %rax,%rdx
  403f85:	48 8d 85 d0 fe ff ff 	lea    -0x130(%rbp),%rax
  403f8c:	48 89 c6             	mov    %rax,%rsi
  403f8f:	48 89 d7             	mov    %rdx,%rdi
  403f92:	e8 09 f8 ff ff       	callq  4037a0 <_ZN11arm_compute16ITensorAllocator4initERKNS_10TensorInfoE@plt>
  403f97:	48 8d 85 d0 fe ff ff 	lea    -0x130(%rbp),%rax
  403f9e:	48 89 c7             	mov    %rax,%rdi
  403fa1:	e8 2e 87 00 00       	callq  40c6d4 <_ZN11arm_compute10TensorInfoD1Ev>
  403fa6:	83 85 18 fe ff ff 01 	addl   $0x1,-0x1e8(%rbp)
  403fad:	e9 4e ff ff ff       	jmpq   403f00 <_ZZ4mainENKUlvE_clEv+0x7c>
  403fb2:	48 8b 85 08 fe ff ff 	mov    -0x1f8(%rbp),%rax
  403fb9:	48 8b 50 28          	mov    0x28(%rax),%rdx
  403fbd:	48 8b 85 08 fe ff ff 	mov    -0x1f8(%rbp),%rax
  403fc4:	48 8b 40 18          	mov    0x18(%rax),%rax
  403fc8:	48 05 a0 02 00 00    	add    $0x2a0,%rax
  403fce:	48 89 c1             	mov    %rax,%rcx
  403fd1:	48 8b 85 08 fe ff ff 	mov    -0x1f8(%rbp),%rax
  403fd8:	48 8b 40 18          	mov    0x18(%rax),%rax
  403fdc:	48 05 50 01 00 00    	add    $0x150,%rax
  403fe2:	48 89 c7             	mov    %rax,%rdi
  403fe5:	48 8b 85 08 fe ff ff 	mov    -0x1f8(%rbp),%rax
  403fec:	48 8b 40 18          	mov    0x18(%rax),%rax
  403ff0:	48 89 c6             	mov    %rax,%rsi
  403ff3:	48 8b 85 08 fe ff ff 	mov    -0x1f8(%rbp),%rax
  403ffa:	48 8b 40 20          	mov    0x20(%rax),%rax
  403ffe:	49 89 d1             	mov    %rdx,%r9
  404001:	49 89 c8             	mov    %rcx,%r8
  404004:	b9 00 00 00 00       	mov    $0x0,%ecx
  404009:	48 89 fa             	mov    %rdi,%rdx
  40400c:	48 89 c7             	mov    %rax,%rdi
  40400f:	e8 9e 36 00 00       	callq  4076b2 <_ZN12LayerWrapper9configureEPN11arm_compute9ICLTensorEPKS1_S4_S2_RKNS0_13PadStrideInfoE>
  404014:	c7 85 1c fe ff ff 00 	movl   $0x0,-0x1e4(%rbp)
  40401b:	00 00 00 
  40401e:	83 bd 1c fe ff ff 02 	cmpl   $0x2,-0x1e4(%rbp)
  404025:	7f 4c                	jg     404073 <_ZZ4mainENKUlvE_clEv+0x1ef>
  404027:	48 8b 85 08 fe ff ff 	mov    -0x1f8(%rbp),%rax
  40402e:	48 8b 48 18          	mov    0x18(%rax),%rcx
  404032:	8b 85 1c fe ff ff    	mov    -0x1e4(%rbp),%eax
  404038:	48 63 d0             	movslq %eax,%rdx
  40403b:	48 89 d0             	mov    %rdx,%rax
  40403e:	48 c1 e0 02          	shl    $0x2,%rax
  404042:	48 01 d0             	add    %rdx,%rax
  404045:	48 c1 e0 02          	shl    $0x2,%rax
  404049:	48 01 d0             	add    %rdx,%rax
  40404c:	48 c1 e0 04          	shl    $0x4,%rax
  404050:	48 01 c8             	add    %rcx,%rax
  404053:	48 89 c7             	mov    %rax,%rdi
  404056:	e8 65 f7 ff ff       	callq  4037c0 <_ZN11arm_compute8CLTensor9allocatorEv@plt>
  40405b:	48 8b 10             	mov    (%rax),%rdx
  40405e:	48 83 c2 10          	add    $0x10,%rdx
  404062:	48 8b 12             	mov    (%rdx),%rdx
  404065:	48 89 c7             	mov    %rax,%rdi
  404068:	ff d2                	callq  *%rdx
  40406a:	83 85 1c fe ff ff 01 	addl   $0x1,-0x1e4(%rbp)
  404071:	eb ab                	jmp    40401e <_ZZ4mainENKUlvE_clEv+0x19a>
  404073:	48 8b 85 08 fe ff ff 	mov    -0x1f8(%rbp),%rax
  40407a:	48 8b 30             	mov    (%rax),%rsi
  40407d:	48 8b 85 08 fe ff ff 	mov    -0x1f8(%rbp),%rax
  404084:	48 8b 40 18          	mov    0x18(%rax),%rax
  404088:	b9 b0 04 41 00       	mov    $0x4104b0,%ecx
  40408d:	ba b6 04 41 00       	mov    $0x4104b6,%edx
  404092:	48 89 c7             	mov    %rax,%rdi
  404095:	e8 1e fd ff ff       	callq  403db8 <_Z16init_tensor_dataPN11arm_compute8CLTensorERKN2CK5ShapeEPKcS7_>
  40409a:	48 8b 85 08 fe ff ff 	mov    -0x1f8(%rbp),%rax
  4040a1:	48 8b 40 08          	mov    0x8(%rax),%rax
  4040a5:	48 8b 95 08 fe ff ff 	mov    -0x1f8(%rbp),%rdx
  4040ac:	48 8b 52 18          	mov    0x18(%rdx),%rdx
  4040b0:	48 8d ba 50 01 00 00 	lea    0x150(%rdx),%rdi
  4040b7:	b9 c9 04 41 00       	mov    $0x4104c9,%ecx
  4040bc:	ba d1 04 41 00       	mov    $0x4104d1,%edx
  4040c1:	48 89 c6             	mov    %rax,%rsi
  4040c4:	e8 ef fc ff ff       	callq  403db8 <_Z16init_tensor_dataPN11arm_compute8CLTensorERKN2CK5ShapeEPKcS7_>
  4040c9:	90                   	nop
  4040ca:	48 8b 45 e8          	mov    -0x18(%rbp),%rax
  4040ce:	64 48 33 04 25 28 00 	xor    %fs:0x28,%rax
  4040d5:	00 00 
  4040d7:	74 24                	je     4040fd <_ZZ4mainENKUlvE_clEv+0x279>
  4040d9:	eb 1d                	jmp    4040f8 <_ZZ4mainENKUlvE_clEv+0x274>
  4040db:	48 89 c3             	mov    %rax,%rbx
  4040de:	48 8d 85 d0 fe ff ff 	lea    -0x130(%rbp),%rax
  4040e5:	48 89 c7             	mov    %rax,%rdi
  4040e8:	e8 e7 85 00 00       	callq  40c6d4 <_ZN11arm_compute10TensorInfoD1Ev>
  4040ed:	48 89 d8             	mov    %rbx,%rax
  4040f0:	48 89 c7             	mov    %rax,%rdi
  4040f3:	e8 d8 f8 ff ff       	callq  4039d0 <_Unwind_Resume@plt>
  4040f8:	e8 83 f6 ff ff       	callq  403780 <__stack_chk_fail@plt>
  4040fd:	48 81 c4 f8 01 00 00 	add    $0x1f8,%rsp
  404104:	5b                   	pop    %rbx
  404105:	5d                   	pop    %rbp
  404106:	c3                   	retq   
  404107:	90                   	nop

0000000000404108 <_ZZ4mainENKUlvE0_clEv>:
  404108:	55                   	push   %rbp
  404109:	48 89 e5             	mov    %rsp,%rbp
  40410c:	48 83 ec 10          	sub    $0x10,%rsp
  404110:	48 89 7d f8          	mov    %rdi,-0x8(%rbp)
  404114:	48 8b 45 f8          	mov    -0x8(%rbp),%rax
  404118:	48 8b 00             	mov    (%rax),%rax
  40411b:	48 89 c7             	mov    %rax,%rdi
  40411e:	e8 15 36 00 00       	callq  407738 <_ZN12LayerWrapper3runEv>
  404123:	e8 18 f4 ff ff       	callq  403540 <_ZN11arm_compute11CLScheduler3getEv@plt>
  404128:	48 89 c7             	mov    %rax,%rdi
  40412b:	e8 70 2c 00 00       	callq  406da0 <_ZN11arm_compute11CLScheduler4syncEv>
  404130:	90                   	nop
  404131:	c9                   	leaveq 
  404132:	c3                   	retq   

0000000000404133 <main>:
  404133:	55                   	push   %rbp
  404134:	48 89 e5             	mov    %rsp,%rbp
  404137:	41 55                	push   %r13
  404139:	41 54                	push   %r12
  40413b:	53                   	push   %rbx
  40413c:	48 81 ec b8 04 00 00 	sub    $0x4b8,%rsp
  404143:	64 48 8b 04 25 28 00 	mov    %fs:0x28,%rax
  40414a:	00 00 
  40414c:	48 89 45 d8          	mov    %rax,-0x28(%rbp)
  404150:	31 c0                	xor    %eax,%eax
  404152:	e8 36 30 00 00       	callq  40718d <_ZN2CK9init_testEv>
  404157:	48 c7 85 40 fb ff ff 	movq   $0x0,-0x4c0(%rbp)
  40415e:	00 00 00 00 
  404162:	bf e9 04 41 00       	mov    $0x4104e9,%edi
  404167:	e8 84 f6 ff ff       	callq  4037f0 <getenv@plt>
  40416c:	48 85 c0             	test   %rax,%rax
  40416f:	0f 95 c0             	setne  %al
  404172:	88 85 33 fb ff ff    	mov    %al,-0x4cd(%rbp)
  404178:	80 bd 33 fb ff ff 00 	cmpb   $0x0,-0x4cd(%rbp)
  40417f:	74 1c                	je     40419d <main+0x6a>
  404181:	bf 40 00 00 00       	mov    $0x40,%edi
  404186:	e8 d5 f5 ff ff       	callq  403760 <_Znwm@plt>
  40418b:	48 89 c3             	mov    %rax,%rbx
  40418e:	48 89 df             	mov    %rbx,%rdi
  404191:	e8 e2 86 00 00       	callq  40c878 <_ZN11arm_compute28CLTuner_DepthwiseConvolutionC1Ev>
  404196:	48 89 9d 40 fb ff ff 	mov    %rbx,-0x4c0(%rbp)
  40419d:	48 8b 85 40 fb ff ff 	mov    -0x4c0(%rbp),%rax
  4041a4:	48 89 c7             	mov    %rax,%rdi
  4041a7:	e8 5a 31 00 00       	callq  407306 <_ZN2CK5armcl10init_armclEPN11arm_compute8ICLTunerE>
  4041ac:	b9 01 00 00 00       	mov    $0x1,%ecx
  4041b1:	ba 01 00 00 00       	mov    $0x1,%edx
  4041b6:	be 03 00 00 00       	mov    $0x3,%esi
  4041bb:	bf 01 00 00 00       	mov    $0x1,%edi
  4041c0:	e8 b3 2e 00 00       	callq  407078 <_ZN2CK24get_input_shape_from_envEiiii>
  4041c5:	48 89 85 50 fb ff ff 	mov    %rax,-0x4b0(%rbp)
  4041cc:	48 89 95 58 fb ff ff 	mov    %rdx,-0x4a8(%rbp)
  4041d3:	8b 85 54 fb ff ff    	mov    -0x4ac(%rbp),%eax
  4041d9:	ba 03 00 00 00       	mov    $0x3,%edx
  4041de:	be 03 00 00 00       	mov    $0x3,%esi
  4041e3:	89 c7                	mov    %eax,%edi
  4041e5:	e8 4a 2c 00 00       	callq  406e34 <_ZN2CK5Shape8make_chwEiii>
  4041ea:	48 89 85 60 fb ff ff 	mov    %rax,-0x4a0(%rbp)
  4041f1:	48 89 95 68 fb ff ff 	mov    %rdx,-0x498(%rbp)
  4041f8:	be 01 00 00 00       	mov    $0x1,%esi
  4041fd:	bf fd 04 41 00       	mov    $0x4104fd,%edi
  404202:	e8 48 2d 00 00       	callq  406f4f <_ZN2CK8getenv_iEPKci>
  404207:	89 85 38 fb ff ff    	mov    %eax,-0x4c8(%rbp)
  40420d:	be 00 00 00 00       	mov    $0x0,%esi
  404212:	bf 11 05 41 00       	mov    $0x410511,%edi
  404217:	e8 33 2d 00 00       	callq  406f4f <_ZN2CK8getenv_iEPKci>
  40421c:	89 85 3c fb ff ff    	mov    %eax,-0x4c4(%rbp)
  404222:	8b bd 3c fb ff ff    	mov    -0x4c4(%rbp),%edi
  404228:	8b 8d 3c fb ff ff    	mov    -0x4c4(%rbp),%ecx
  40422e:	8b 95 38 fb ff ff    	mov    -0x4c8(%rbp),%edx
  404234:	8b b5 38 fb ff ff    	mov    -0x4c8(%rbp),%esi
  40423a:	48 8d 85 90 fb ff ff 	lea    -0x470(%rbp),%rax
  404241:	41 b9 00 00 00 00    	mov    $0x0,%r9d
  404247:	41 89 f8             	mov    %edi,%r8d
  40424a:	48 89 c7             	mov    %rax,%rdi
  40424d:	e8 64 22 00 00       	callq  4064b6 <_ZN11arm_compute13PadStrideInfoC1EjjjjNS_21DimensionRoundingTypeE>
  404252:	8b 95 58 fb ff ff    	mov    -0x4a8(%rbp),%edx
  404258:	8b 85 68 fb ff ff    	mov    -0x498(%rbp),%eax
  40425e:	29 c2                	sub    %eax,%edx
  404260:	89 d0                	mov    %edx,%eax
  404262:	89 c2                	mov    %eax,%edx
  404264:	8b 85 38 fb ff ff    	mov    -0x4c8(%rbp),%eax
  40426a:	01 c2                	add    %eax,%edx
  40426c:	8b 85 3c fb ff ff    	mov    -0x4c4(%rbp),%eax
  404272:	01 c0                	add    %eax,%eax
  404274:	01 d0                	add    %edx,%eax
  404276:	ba 00 00 00 00       	mov    $0x0,%edx
  40427b:	f7 b5 38 fb ff ff    	divl   -0x4c8(%rbp)
  404281:	89 c1                	mov    %eax,%ecx
  404283:	8b 95 5c fb ff ff    	mov    -0x4a4(%rbp),%edx
  404289:	8b 85 6c fb ff ff    	mov    -0x494(%rbp),%eax
  40428f:	29 c2                	sub    %eax,%edx
  404291:	89 d0                	mov    %edx,%eax
  404293:	89 c2                	mov    %eax,%edx
  404295:	8b 85 38 fb ff ff    	mov    -0x4c8(%rbp),%eax
  40429b:	01 c2                	add    %eax,%edx
  40429d:	8b 85 3c fb ff ff    	mov    -0x4c4(%rbp),%eax
  4042a3:	01 c0                	add    %eax,%eax
  4042a5:	01 d0                	add    %edx,%eax
  4042a7:	ba 00 00 00 00       	mov    $0x0,%edx
  4042ac:	f7 b5 38 fb ff ff    	divl   -0x4c8(%rbp)
  4042b2:	89 c2                	mov    %eax,%edx
  4042b4:	8b b5 64 fb ff ff    	mov    -0x49c(%rbp),%esi
  4042ba:	8b 85 50 fb ff ff    	mov    -0x4b0(%rbp),%eax
  4042c0:	89 c7                	mov    %eax,%edi
  4042c2:	e8 f8 2a 00 00       	callq  406dbf <_ZN2CK5Shape9make_nchwEiiii>
  4042c7:	48 89 85 70 fb ff ff 	mov    %rax,-0x490(%rbp)
  4042ce:	48 89 95 78 fb ff ff 	mov    %rdx,-0x488(%rbp)
  4042d5:	4c 8d a5 e0 fb ff ff 	lea    -0x420(%rbp),%r12
  4042dc:	bb 02 00 00 00       	mov    $0x2,%ebx
  4042e1:	4d 89 e5             	mov    %r12,%r13
  4042e4:	48 85 db             	test   %rbx,%rbx
  4042e7:	78 15                	js     4042fe <main+0x1cb>
  4042e9:	4c 89 ef             	mov    %r13,%rdi
  4042ec:	e8 4f f7 ff ff       	callq  403a40 <_ZN11arm_compute8CLTensorC1Ev@plt>
  4042f1:	49 81 c5 50 01 00 00 	add    $0x150,%r13
  4042f8:	48 83 eb 01          	sub    $0x1,%rbx
  4042fc:	eb e6                	jmp    4042e4 <main+0x1b1>
  4042fe:	48 8d 85 80 fb ff ff 	lea    -0x480(%rbp),%rax
  404305:	48 89 c7             	mov    %rax,%rdi
  404308:	e8 7d 32 00 00       	callq  40758a <_ZN12LayerWrapperC1Ev>
  40430d:	48 8d 85 50 fb ff ff 	lea    -0x4b0(%rbp),%rax
  404314:	48 89 85 b0 fb ff ff 	mov    %rax,-0x450(%rbp)
  40431b:	48 8d 85 60 fb ff ff 	lea    -0x4a0(%rbp),%rax
  404322:	48 89 85 b8 fb ff ff 	mov    %rax,-0x448(%rbp)
  404329:	48 8d 85 70 fb ff ff 	lea    -0x490(%rbp),%rax
  404330:	48 89 85 c0 fb ff ff 	mov    %rax,-0x440(%rbp)
  404337:	48 8d 85 e0 fb ff ff 	lea    -0x420(%rbp),%rax
  40433e:	48 89 85 c8 fb ff ff 	mov    %rax,-0x438(%rbp)
  404345:	48 8d 85 80 fb ff ff 	lea    -0x480(%rbp),%rax
  40434c:	48 89 85 d0 fb ff ff 	mov    %rax,-0x430(%rbp)
  404353:	48 8d 85 90 fb ff ff 	lea    -0x470(%rbp),%rax
  40435a:	48 89 85 d8 fb ff ff 	mov    %rax,-0x428(%rbp)
  404361:	48 8d 85 b0 fb ff ff 	lea    -0x450(%rbp),%rax
  404368:	48 89 c7             	mov    %rax,%rdi
  40436b:	e8 b6 02 00 00       	callq  404626 <_ZN2CK13measure_setupIZ4mainEUlvE_EEvOT_>
  404370:	48 8d 85 80 fb ff ff 	lea    -0x480(%rbp),%rax
  404377:	48 89 85 b0 fb ff ff 	mov    %rax,-0x450(%rbp)
  40437e:	48 8d 85 b0 fb ff ff 	lea    -0x450(%rbp),%rax
  404385:	48 89 c7             	mov    %rax,%rdi
  404388:	e8 cc 02 00 00       	callq  404659 <_ZN2CK12measure_testIZ4mainEUlvE0_EEvOT_>
  40438d:	48 8d 85 70 fb ff ff 	lea    -0x490(%rbp),%rax
  404394:	48 89 c7             	mov    %rax,%rdi
  404397:	e8 c0 2a 00 00       	callq  406e5c <_ZNK2CK5Shape10data_countEv>
  40439c:	48 98                	cltq   
  40439e:	48 ba fe ff ff ff ff 	movabs $0x1ffffffffffffffe,%rdx
  4043a5:	ff ff 1f 
  4043a8:	48 39 d0             	cmp    %rdx,%rax
  4043ab:	77 0e                	ja     4043bb <main+0x288>
  4043ad:	48 c1 e0 02          	shl    $0x2,%rax
  4043b1:	48 89 c7             	mov    %rax,%rdi
  4043b4:	e8 47 f1 ff ff       	callq  403500 <_Znam@plt>
  4043b9:	eb 05                	jmp    4043c0 <main+0x28d>
  4043bb:	e8 10 f5 ff ff       	callq  4038d0 <__cxa_throw_bad_array_new_length@plt>
  4043c0:	48 89 85 48 fb ff ff 	mov    %rax,-0x4b8(%rbp)
  4043c7:	48 8d 85 e0 fb ff ff 	lea    -0x420(%rbp),%rax
  4043ce:	48 05 a0 02 00 00    	add    $0x2a0,%rax
  4043d4:	48 8d 95 70 fb ff ff 	lea    -0x490(%rbp),%rdx
  4043db:	48 8b 8d 48 fb ff ff 	mov    -0x4b8(%rbp),%rcx
  4043e2:	48 89 ce             	mov    %rcx,%rsi
  4043e5:	48 89 c7             	mov    %rax,%rdi
  4043e8:	e8 34 49 00 00       	callq  408d21 <_ZN2CK5armcl25copy_raw_data_from_tensorIfEEvPN11arm_compute8CLTensorEPT_RKNS_5ShapeE>
  4043ed:	48 8d 95 70 fb ff ff 	lea    -0x490(%rbp),%rdx
  4043f4:	48 8b 85 48 fb ff ff 	mov    -0x4b8(%rbp),%rax
  4043fb:	48 89 d6             	mov    %rdx,%rsi
  4043fe:	48 89 c7             	mov    %rax,%rdi
  404401:	e8 b3 4a 00 00       	callq  408eb9 <_ZN2CK32convert_data_layout_NCHW_to_NHWCIfEEvPT_RKNS_5ShapeE>
  404406:	48 8d 95 70 fb ff ff 	lea    -0x490(%rbp),%rdx
  40440d:	48 8b 85 48 fb ff ff 	mov    -0x4b8(%rbp),%rax
  404414:	48 89 d6             	mov    %rdx,%rsi
  404417:	48 89 c7             	mov    %rax,%rdi
  40441a:	e8 02 4c 00 00       	callq  409021 <_ZN2CK21print_output_raw_dataIfEEvPT_RKNS_5ShapeE>
  40441f:	48 8d 95 70 fb ff ff 	lea    -0x490(%rbp),%rdx
  404426:	48 8b 85 48 fb ff ff 	mov    -0x4b8(%rbp),%rax
  40442d:	48 89 d6             	mov    %rdx,%rsi
  404430:	48 89 c7             	mov    %rax,%rdi
  404433:	e8 16 4c 00 00       	callq  40904e <_ZN2CK20dump_output_raw_dataIfEEvPT_RKNS_5ShapeE>
  404438:	48 83 bd 48 fb ff ff 	cmpq   $0x0,-0x4b8(%rbp)
  40443f:	00 
  404440:	74 0f                	je     404451 <main+0x31e>
  404442:	48 8b 85 48 fb ff ff 	mov    -0x4b8(%rbp),%rax
  404449:	48 89 c7             	mov    %rax,%rdi
  40444c:	e8 ff f3 ff ff       	callq  403850 <_ZdaPv@plt>
  404451:	c7 85 34 fb ff ff 00 	movl   $0x0,-0x4cc(%rbp)
  404458:	00 00 00 
  40445b:	83 bd 34 fb ff ff 02 	cmpl   $0x2,-0x4cc(%rbp)
  404462:	7f 48                	jg     4044ac <main+0x379>
  404464:	48 8d 8d e0 fb ff ff 	lea    -0x420(%rbp),%rcx
  40446b:	8b 85 34 fb ff ff    	mov    -0x4cc(%rbp),%eax
  404471:	48 63 d0             	movslq %eax,%rdx
  404474:	48 89 d0             	mov    %rdx,%rax
  404477:	48 c1 e0 02          	shl    $0x2,%rax
  40447b:	48 01 d0             	add    %rdx,%rax
  40447e:	48 c1 e0 02          	shl    $0x2,%rax
  404482:	48 01 d0             	add    %rdx,%rax
  404485:	48 c1 e0 04          	shl    $0x4,%rax
  404489:	48 01 c8             	add    %rcx,%rax
  40448c:	48 89 c7             	mov    %rax,%rdi
  40448f:	e8 2c f3 ff ff       	callq  4037c0 <_ZN11arm_compute8CLTensor9allocatorEv@plt>
  404494:	48 8b 10             	mov    (%rax),%rdx
  404497:	48 83 c2 18          	add    $0x18,%rdx
  40449b:	48 8b 12             	mov    (%rdx),%rdx
  40449e:	48 89 c7             	mov    %rax,%rdi
  4044a1:	ff d2                	callq  *%rdx
  4044a3:	83 85 34 fb ff ff 01 	addl   $0x1,-0x4cc(%rbp)
  4044aa:	eb af                	jmp    40445b <main+0x328>
  4044ac:	80 bd 33 fb ff ff 00 	cmpb   $0x0,-0x4cd(%rbp)
  4044b3:	74 27                	je     4044dc <main+0x3a9>
  4044b5:	48 83 bd 40 fb ff ff 	cmpq   $0x0,-0x4c0(%rbp)
  4044bc:	00 
  4044bd:	74 1d                	je     4044dc <main+0x3a9>
  4044bf:	48 8b 85 40 fb ff ff 	mov    -0x4c0(%rbp),%rax
  4044c6:	48 8b 00             	mov    (%rax),%rax
  4044c9:	48 83 c0 08          	add    $0x8,%rax
  4044cd:	48 8b 00             	mov    (%rax),%rax
  4044d0:	48 8b 95 40 fb ff ff 	mov    -0x4c0(%rbp),%rdx
  4044d7:	48 89 d7             	mov    %rdx,%rdi
  4044da:	ff d0                	callq  *%rax
  4044dc:	e8 f6 2c 00 00       	callq  4071d7 <_ZN2CK11finish_testEv>
  4044e1:	48 8b 05 18 3e 21 00 	mov    0x213e18(%rip),%rax        # 618300 <stdout@@GLIBC_2.2.5>
  4044e8:	48 89 c7             	mov    %rax,%rdi
  4044eb:	e8 f0 f2 ff ff       	callq  4037e0 <fflush@plt>
  4044f0:	41 bc 00 00 00 00    	mov    $0x0,%r12d
  4044f6:	48 8d 85 80 fb ff ff 	lea    -0x480(%rbp),%rax
  4044fd:	48 89 c7             	mov    %rax,%rdi
  404500:	e8 49 31 00 00       	callq  40764e <_ZN12LayerWrapperD1Ev>
  404505:	48 8d 9d e0 fb ff ff 	lea    -0x420(%rbp),%rbx
  40450c:	48 81 c3 f0 03 00 00 	add    $0x3f0,%rbx
  404513:	48 8d 85 e0 fb ff ff 	lea    -0x420(%rbp),%rax
  40451a:	48 39 c3             	cmp    %rax,%rbx
  40451d:	74 18                	je     404537 <main+0x404>
  40451f:	48 81 eb 50 01 00 00 	sub    $0x150,%rbx
  404526:	48 8b 03             	mov    (%rbx),%rax
  404529:	48 83 c0 10          	add    $0x10,%rax
  40452d:	48 8b 00             	mov    (%rax),%rax
  404530:	48 89 df             	mov    %rbx,%rdi
  404533:	ff d0                	callq  *%rax
  404535:	eb dc                	jmp    404513 <main+0x3e0>
  404537:	44 89 e0             	mov    %r12d,%eax
  40453a:	48 8b 4d d8          	mov    -0x28(%rbp),%rcx
  40453e:	64 48 33 0c 25 28 00 	xor    %fs:0x28,%rcx
  404545:	00 00 
  404547:	0f 84 cb 00 00 00    	je     404618 <main+0x4e5>
  40454d:	e9 c1 00 00 00       	jmpq   404613 <main+0x4e0>
  404552:	49 89 c4             	mov    %rax,%r12
  404555:	48 89 df             	mov    %rbx,%rdi
  404558:	e8 e3 f1 ff ff       	callq  403740 <_ZdlPv@plt>
  40455d:	4c 89 e0             	mov    %r12,%rax
  404560:	48 89 c7             	mov    %rax,%rdi
  404563:	e8 68 f4 ff ff       	callq  4039d0 <_Unwind_Resume@plt>
  404568:	49 89 c5             	mov    %rax,%r13
  40456b:	4d 85 e4             	test   %r12,%r12
  40456e:	74 41                	je     4045b1 <main+0x47e>
  404570:	b8 02 00 00 00       	mov    $0x2,%eax
  404575:	48 29 d8             	sub    %rbx,%rax
  404578:	48 89 c2             	mov    %rax,%rdx
  40457b:	48 89 d0             	mov    %rdx,%rax
  40457e:	48 c1 e0 02          	shl    $0x2,%rax
  404582:	48 01 d0             	add    %rdx,%rax
  404585:	48 c1 e0 02          	shl    $0x2,%rax
  404589:	48 01 d0             	add    %rdx,%rax
  40458c:	48 c1 e0 04          	shl    $0x4,%rax
  404590:	49 8d 1c 04          	lea    (%r12,%rax,1),%rbx
  404594:	4c 39 e3             	cmp    %r12,%rbx
  404597:	74 18                	je     4045b1 <main+0x47e>
  404599:	48 81 eb 50 01 00 00 	sub    $0x150,%rbx
  4045a0:	48 8b 03             	mov    (%rbx),%rax
  4045a3:	48 83 c0 10          	add    $0x10,%rax
  4045a7:	48 8b 00             	mov    (%rax),%rax
  4045aa:	48 89 df             	mov    %rbx,%rdi
  4045ad:	ff d0                	callq  *%rax
  4045af:	eb e3                	jmp    404594 <main+0x461>
  4045b1:	4c 89 e8             	mov    %r13,%rax
  4045b4:	48 89 c7             	mov    %rax,%rdi
  4045b7:	e8 14 f4 ff ff       	callq  4039d0 <_Unwind_Resume@plt>
  4045bc:	48 89 c3             	mov    %rax,%rbx
  4045bf:	48 8d 85 80 fb ff ff 	lea    -0x480(%rbp),%rax
  4045c6:	48 89 c7             	mov    %rax,%rdi
  4045c9:	e8 80 30 00 00       	callq  40764e <_ZN12LayerWrapperD1Ev>
  4045ce:	49 89 dc             	mov    %rbx,%r12
  4045d1:	eb 03                	jmp    4045d6 <main+0x4a3>
  4045d3:	49 89 c4             	mov    %rax,%r12
  4045d6:	48 8d 9d e0 fb ff ff 	lea    -0x420(%rbp),%rbx
  4045dd:	48 81 c3 f0 03 00 00 	add    $0x3f0,%rbx
  4045e4:	48 8d 85 e0 fb ff ff 	lea    -0x420(%rbp),%rax
  4045eb:	48 39 c3             	cmp    %rax,%rbx
  4045ee:	74 18                	je     404608 <main+0x4d5>
  4045f0:	48 81 eb 50 01 00 00 	sub    $0x150,%rbx
  4045f7:	48 8b 03             	mov    (%rbx),%rax
  4045fa:	48 83 c0 10          	add    $0x10,%rax
  4045fe:	48 8b 00             	mov    (%rax),%rax
  404601:	48 89 df             	mov    %rbx,%rdi
  404604:	ff d0                	callq  *%rax
  404606:	eb dc                	jmp    4045e4 <main+0x4b1>
  404608:	4c 89 e0             	mov    %r12,%rax
  40460b:	48 89 c7             	mov    %rax,%rdi
  40460e:	e8 bd f3 ff ff       	callq  4039d0 <_Unwind_Resume@plt>
  404613:	e8 68 f1 ff ff       	callq  403780 <__stack_chk_fail@plt>
  404618:	48 81 c4 b8 04 00 00 	add    $0x4b8,%rsp
  40461f:	5b                   	pop    %rbx
  404620:	41 5c                	pop    %r12
  404622:	41 5d                	pop    %r13
  404624:	5d                   	pop    %rbp
  404625:	c3                   	retq   

0000000000404626 <_ZN2CK13measure_setupIZ4mainEUlvE_EEvOT_>:
  404626:	55                   	push   %rbp
  404627:	48 89 e5             	mov    %rsp,%rbp
  40462a:	48 83 ec 10          	sub    $0x10,%rsp
  40462e:	48 89 7d f8          	mov    %rdi,-0x8(%rbp)
  404632:	48 8b 45 f8          	mov    -0x8(%rbp),%rax
  404636:	be 00 00 00 00       	mov    $0x0,%esi
  40463b:	48 89 c7             	mov    %rax,%rdi
  40463e:	e8 49 00 00 00       	callq  40468c <_ZN2CK11do_measuredIRZ4mainEUlvE_EEvOT_i>
  404643:	bf 00 00 00 00       	mov    $0x0,%edi
  404648:	e8 13 f4 ff ff       	callq  403a60 <xopenme_get_timer@plt>
  40464d:	f2 0f 5a c0          	cvtsd2ss %xmm0,%xmm0
  404651:	e8 dc f6 ff ff       	callq  403d32 <_ZN2CK16store_setup_timeEf>
  404656:	90                   	nop
  404657:	c9                   	leaveq 
  404658:	c3                   	retq   

0000000000404659 <_ZN2CK12measure_testIZ4mainEUlvE0_EEvOT_>:
  404659:	55                   	push   %rbp
  40465a:	48 89 e5             	mov    %rsp,%rbp
  40465d:	48 83 ec 10          	sub    $0x10,%rsp
  404661:	48 89 7d f8          	mov    %rdi,-0x8(%rbp)
  404665:	48 8b 45 f8          	mov    -0x8(%rbp),%rax
  404669:	be 01 00 00 00       	mov    $0x1,%esi
  40466e:	48 89 c7             	mov    %rax,%rdi
  404671:	e8 48 00 00 00       	callq  4046be <_ZN2CK11do_measuredIRZ4mainEUlvE0_EEvOT_i>
  404676:	bf 01 00 00 00       	mov    $0x1,%edi
  40467b:	e8 e0 f3 ff ff       	callq  403a60 <xopenme_get_timer@plt>
  404680:	f2 0f 5a c0          	cvtsd2ss %xmm0,%xmm0
  404684:	e8 d3 f6 ff ff       	callq  403d5c <_ZN2CK15store_test_timeEf>
  404689:	90                   	nop
  40468a:	c9                   	leaveq 
  40468b:	c3                   	retq   

000000000040468c <_ZN2CK11do_measuredIRZ4mainEUlvE_EEvOT_i>:
  40468c:	55                   	push   %rbp
  40468d:	48 89 e5             	mov    %rsp,%rbp
  404690:	48 83 ec 10          	sub    $0x10,%rsp
  404694:	48 89 7d f8          	mov    %rdi,-0x8(%rbp)
  404698:	89 75 f4             	mov    %esi,-0xc(%rbp)
  40469b:	8b 45 f4             	mov    -0xc(%rbp),%eax
  40469e:	89 c7                	mov    %eax,%edi
  4046a0:	e8 cb ee ff ff       	callq  403570 <xopenme_clock_start@plt>
  4046a5:	48 8b 45 f8          	mov    -0x8(%rbp),%rax
  4046a9:	48 89 c7             	mov    %rax,%rdi
  4046ac:	e8 d3 f7 ff ff       	callq  403e84 <_ZZ4mainENKUlvE_clEv>
  4046b1:	8b 45 f4             	mov    -0xc(%rbp),%eax
  4046b4:	89 c7                	mov    %eax,%edi
  4046b6:	e8 e5 f1 ff ff       	callq  4038a0 <xopenme_clock_end@plt>
  4046bb:	90                   	nop
  4046bc:	c9                   	leaveq 
  4046bd:	c3                   	retq   

00000000004046be <_ZN2CK11do_measuredIRZ4mainEUlvE0_EEvOT_i>:
  4046be:	55                   	push   %rbp
  4046bf:	48 89 e5             	mov    %rsp,%rbp
  4046c2:	48 83 ec 10          	sub    $0x10,%rsp
  4046c6:	48 89 7d f8          	mov    %rdi,-0x8(%rbp)
  4046ca:	89 75 f4             	mov    %esi,-0xc(%rbp)
  4046cd:	8b 45 f4             	mov    -0xc(%rbp),%eax
  4046d0:	89 c7                	mov    %eax,%edi
  4046d2:	e8 99 ee ff ff       	callq  403570 <xopenme_clock_start@plt>
  4046d7:	48 8b 45 f8          	mov    -0x8(%rbp),%rax
  4046db:	48 89 c7             	mov    %rax,%rdi
  4046de:	e8 25 fa ff ff       	callq  404108 <_ZZ4mainENKUlvE0_clEv>
  4046e3:	8b 45 f4             	mov    -0xc(%rbp),%eax
  4046e6:	89 c7                	mov    %eax,%edi
  4046e8:	e8 b3 f1 ff ff       	callq  4038a0 <xopenme_clock_end@plt>
  4046ed:	90                   	nop
  4046ee:	c9                   	leaveq 
  4046ef:	c3                   	retq   

00000000004046f0 <_Z41__static_initialization_and_destruction_0ii>:
  4046f0:	55                   	push   %rbp
  4046f1:	48 89 e5             	mov    %rsp,%rbp
  4046f4:	53                   	push   %rbx
  4046f5:	48 83 ec 28          	sub    $0x28,%rsp
  4046f9:	89 7d dc             	mov    %edi,-0x24(%rbp)
  4046fc:	89 75 d8             	mov    %esi,-0x28(%rbp)
  4046ff:	64 48 8b 04 25 28 00 	mov    %fs:0x28,%rax
  404706:	00 00 
  404708:	48 89 45 e8          	mov    %rax,-0x18(%rbp)
  40470c:	31 c0                	xor    %eax,%eax
  40470e:	83 7d dc 01          	cmpl   $0x1,-0x24(%rbp)
  404712:	0f 85 6f 01 00 00    	jne    404887 <_Z41__static_initialization_and_destruction_0ii+0x197>
  404718:	81 7d d8 ff ff 00 00 	cmpl   $0xffff,-0x28(%rbp)
  40471f:	0f 85 62 01 00 00    	jne    404887 <_Z41__static_initialization_and_destruction_0ii+0x197>
  404725:	b8 78 85 61 00       	mov    $0x618578,%eax
  40472a:	0f b6 00             	movzbl (%rax),%eax
  40472d:	84 c0                	test   %al,%al
  40472f:	75 26                	jne    404757 <_Z41__static_initialization_and_destruction_0ii+0x67>
  404731:	b8 78 85 61 00       	mov    $0x618578,%eax
  404736:	c6 00 01             	movb   $0x1,(%rax)
  404739:	bf 30 85 61 00       	mov    $0x618530,%edi
  40473e:	e8 25 06 00 00       	callq  404d68 <_ZN2cl6DeviceC1Ev>
  404743:	ba e0 82 61 00       	mov    $0x6182e0,%edx
  404748:	be 30 85 61 00       	mov    $0x618530,%esi
  40474d:	bf b4 4d 40 00       	mov    $0x404db4,%edi
  404752:	e8 d9 ef ff ff       	callq  403730 <__cxa_atexit@plt>
  404757:	b8 80 85 61 00       	mov    $0x618580,%eax
  40475c:	0f b6 00             	movzbl (%rax),%eax
  40475f:	84 c0                	test   %al,%al
  404761:	75 26                	jne    404789 <_Z41__static_initialization_and_destruction_0ii+0x99>
  404763:	b8 80 85 61 00       	mov    $0x618580,%eax
  404768:	c6 00 01             	movb   $0x1,(%rax)
  40476b:	bf 48 85 61 00       	mov    $0x618548,%edi
  404770:	e8 7d 09 00 00       	callq  4050f2 <_ZN2cl8PlatformC1Ev>
  404775:	ba e0 82 61 00       	mov    $0x6182e0,%edx
  40477a:	be 48 85 61 00       	mov    $0x618548,%esi
  40477f:	bf ee 4e 40 00       	mov    $0x404eee,%edi
  404784:	e8 a7 ef ff ff       	callq  403730 <__cxa_atexit@plt>
  404789:	b8 88 85 61 00       	mov    $0x618588,%eax
  40478e:	0f b6 00             	movzbl (%rax),%eax
  404791:	84 c0                	test   %al,%al
  404793:	75 26                	jne    4047bb <_Z41__static_initialization_and_destruction_0ii+0xcb>
  404795:	b8 88 85 61 00       	mov    $0x618588,%eax
  40479a:	c6 00 01             	movb   $0x1,(%rax)
  40479d:	bf 58 85 61 00       	mov    $0x618558,%edi
  4047a2:	e8 3d 15 00 00       	callq  405ce4 <_ZN2cl7ContextC1Ev>
  4047a7:	ba e0 82 61 00       	mov    $0x6182e0,%edx
  4047ac:	be 58 85 61 00       	mov    $0x618558,%esi
  4047b1:	bf 6c 56 40 00       	mov    $0x40566c,%edi
  4047b6:	e8 75 ef ff ff       	callq  403730 <__cxa_atexit@plt>
  4047bb:	bf a0 85 61 00       	mov    $0x6185a0,%edi
  4047c0:	e8 67 16 00 00       	callq  405e2c <_ZN2cl7NDRangeC1Ev>
  4047c5:	b8 90 85 61 00       	mov    $0x618590,%eax
  4047ca:	0f b6 00             	movzbl (%rax),%eax
  4047cd:	84 c0                	test   %al,%al
  4047cf:	75 26                	jne    4047f7 <_Z41__static_initialization_and_destruction_0ii+0x107>
  4047d1:	b8 90 85 61 00       	mov    $0x618590,%eax
  4047d6:	c6 00 01             	movb   $0x1,(%rax)
  4047d9:	bf 68 85 61 00       	mov    $0x618568,%edi
  4047de:	e8 3d 19 00 00       	callq  406120 <_ZN2cl12CommandQueueC1Ev>
  4047e3:	ba e0 82 61 00       	mov    $0x6182e0,%edx
  4047e8:	be 68 85 61 00       	mov    $0x618568,%esi
  4047ed:	bf a8 5e 40 00       	mov    $0x405ea8,%edi
  4047f2:	e8 39 ef ff ff       	callq  403730 <__cxa_atexit@plt>
  4047f7:	ba 01 00 00 00       	mov    $0x1,%edx
  4047fc:	be 80 00 00 00       	mov    $0x80,%esi
  404801:	bf c0 85 61 00       	mov    $0x6185c0,%edi
  404806:	e8 5b 16 00 00       	callq  405e66 <_ZN2cl7NDRangeC1Emm>
  40480b:	48 8d 45 e7          	lea    -0x19(%rbp),%rax
  40480f:	48 89 c7             	mov    %rax,%rdi
  404812:	e8 c9 f1 ff ff       	callq  4039e0 <_ZNSaIcEC1Ev@plt>
  404817:	48 8d 45 e7          	lea    -0x19(%rbp),%rax
  40481b:	48 89 c2             	mov    %rax,%rdx
  40481e:	be 0d 06 41 00       	mov    $0x41060d,%esi
  404823:	bf e0 85 61 00       	mov    $0x6185e0,%edi
  404828:	e8 83 f0 ff ff       	callq  4038b0 <_ZNSt7__cxx1112basic_stringIcSt11char_traitsIcESaIcEEC1EPKcRKS3_@plt>
  40482d:	48 8d 45 e7          	lea    -0x19(%rbp),%rax
  404831:	48 89 c7             	mov    %rax,%rdi
  404834:	e8 37 ef ff ff       	callq  403770 <_ZNSaIcED1Ev@plt>
  404839:	ba e0 82 61 00       	mov    $0x6182e0,%edx
  40483e:	be e0 85 61 00       	mov    $0x6185e0,%esi
  404843:	bf f0 36 40 00       	mov    $0x4036f0,%edi
  404848:	e8 e3 ee ff ff       	callq  403730 <__cxa_atexit@plt>
  40484d:	bf 00 86 61 00       	mov    $0x618600,%edi
  404852:	e8 c9 f0 ff ff       	callq  403920 <_ZNSt8ios_base4InitC1Ev@plt>
  404857:	ba e0 82 61 00       	mov    $0x6182e0,%edx
  40485c:	be 00 86 61 00       	mov    $0x618600,%esi
  404861:	bf 70 3a 40 00       	mov    $0x403a70,%edi
  404866:	e8 c5 ee ff ff       	callq  403730 <__cxa_atexit@plt>
  40486b:	eb 1a                	jmp    404887 <_Z41__static_initialization_and_destruction_0ii+0x197>
  40486d:	48 89 c3             	mov    %rax,%rbx
  404870:	48 8d 45 e7          	lea    -0x19(%rbp),%rax
  404874:	48 89 c7             	mov    %rax,%rdi
  404877:	e8 f4 ee ff ff       	callq  403770 <_ZNSaIcED1Ev@plt>
  40487c:	48 89 d8             	mov    %rbx,%rax
  40487f:	48 89 c7             	mov    %rax,%rdi
  404882:	e8 49 f1 ff ff       	callq  4039d0 <_Unwind_Resume@plt>
  404887:	48 8b 45 e8          	mov    -0x18(%rbp),%rax
  40488b:	64 48 33 04 25 28 00 	xor    %fs:0x28,%rax
  404892:	00 00 
  404894:	74 05                	je     40489b <_Z41__static_initialization_and_destruction_0ii+0x1ab>
  404896:	e8 e5 ee ff ff       	callq  403780 <__stack_chk_fail@plt>
  40489b:	48 83 c4 28          	add    $0x28,%rsp
  40489f:	5b                   	pop    %rbx
  4048a0:	5d                   	pop    %rbp
  4048a1:	c3                   	retq   

00000000004048a2 <_GLOBAL__sub_I__ZN2CK16store_setup_timeEf>:
  4048a2:	55                   	push   %rbp
  4048a3:	48 89 e5             	mov    %rsp,%rbp
  4048a6:	be ff ff 00 00       	mov    $0xffff,%esi
  4048ab:	bf 01 00 00 00       	mov    $0x1,%edi
  4048b0:	e8 3b fe ff ff       	callq  4046f0 <_Z41__static_initialization_and_destruction_0ii>
  4048b5:	5d                   	pop    %rbp
  4048b6:	c3                   	retq   
  4048b7:	90                   	nop

00000000004048b8 <_ZNSt9exceptionC1Ev>:
  4048b8:	55                   	push   %rbp
  4048b9:	48 89 e5             	mov    %rsp,%rbp
  4048bc:	48 89 7d f8          	mov    %rdi,-0x8(%rbp)
  4048c0:	ba 80 84 61 00       	mov    $0x618480,%edx
  4048c5:	48 8b 45 f8          	mov    -0x8(%rbp),%rax
  4048c9:	48 89 10             	mov    %rdx,(%rax)
  4048cc:	90                   	nop
  4048cd:	5d                   	pop    %rbp
  4048ce:	c3                   	retq   

00000000004048cf <_ZnwmPv>:
  4048cf:	55                   	push   %rbp
  4048d0:	48 89 e5             	mov    %rsp,%rbp
  4048d3:	48 89 7d f8          	mov    %rdi,-0x8(%rbp)
  4048d7:	48 89 75 f0          	mov    %rsi,-0x10(%rbp)
  4048db:	48 8b 45 f0          	mov    -0x10(%rbp),%rax
  4048df:	5d                   	pop    %rbp
  4048e0:	c3                   	retq   

00000000004048e1 <_ZdlPvS_>:
  4048e1:	55                   	push   %rbp
  4048e2:	48 89 e5             	mov    %rsp,%rbp
  4048e5:	48 89 7d f8          	mov    %rdi,-0x8(%rbp)
  4048e9:	48 89 75 f0          	mov    %rsi,-0x10(%rbp)
  4048ed:	90                   	nop
  4048ee:	5d                   	pop    %rbp
  4048ef:	c3                   	retq   

00000000004048f0 <_ZN2cl5ErrorC1EiPKc>:
  4048f0:	55                   	push   %rbp
  4048f1:	48 89 e5             	mov    %rsp,%rbp
  4048f4:	48 83 ec 20          	sub    $0x20,%rsp
  4048f8:	48 89 7d f8          	mov    %rdi,-0x8(%rbp)
  4048fc:	89 75 f4             	mov    %esi,-0xc(%rbp)
  4048ff:	48 89 55 e8          	mov    %rdx,-0x18(%rbp)
  404903:	48 8b 45 f8          	mov    -0x8(%rbp),%rax
  404907:	48 89 c7             	mov    %rax,%rdi
  40490a:	e8 a9 ff ff ff       	callq  4048b8 <_ZNSt9exceptionC1Ev>
  40490f:	ba 60 07 41 00       	mov    $0x410760,%edx
  404914:	48 8b 45 f8          	mov    -0x8(%rbp),%rax
  404918:	48 89 10             	mov    %rdx,(%rax)
  40491b:	48 8b 45 f8          	mov    -0x8(%rbp),%rax
  40491f:	8b 55 f4             	mov    -0xc(%rbp),%edx
  404922:	89 50 08             	mov    %edx,0x8(%rax)
  404925:	48 8b 45 f8          	mov    -0x8(%rbp),%rax
  404929:	48 8b 55 e8          	mov    -0x18(%rbp),%rdx
  40492d:	48 89 50 10          	mov    %rdx,0x10(%rax)
  404931:	90                   	nop
  404932:	c9                   	leaveq 
  404933:	c3                   	retq   

0000000000404934 <_ZN2cl5ErrorD1Ev>:
  404934:	55                   	push   %rbp
  404935:	48 89 e5             	mov    %rsp,%rbp
  404938:	48 83 ec 10          	sub    $0x10,%rsp
  40493c:	48 89 7d f8          	mov    %rdi,-0x8(%rbp)
  404940:	ba 60 07 41 00       	mov    $0x410760,%edx
  404945:	48 8b 45 f8          	mov    -0x8(%rbp),%rax
  404949:	48 89 10             	mov    %rdx,(%rax)
  40494c:	48 8b 45 f8          	mov    -0x8(%rbp),%rax
  404950:	48 89 c7             	mov    %rax,%rdi
  404953:	e8 a8 f0 ff ff       	callq  403a00 <_ZNSt9exceptionD2Ev@plt>
  404958:	90                   	nop
  404959:	c9                   	leaveq 
  40495a:	c3                   	retq   
  40495b:	90                   	nop

000000000040495c <_ZN2cl5ErrorD0Ev>:
  40495c:	55                   	push   %rbp
  40495d:	48 89 e5             	mov    %rsp,%rbp
  404960:	48 83 ec 10          	sub    $0x10,%rsp
  404964:	48 89 7d f8          	mov    %rdi,-0x8(%rbp)
  404968:	48 8b 45 f8          	mov    -0x8(%rbp),%rax
  40496c:	48 89 c7             	mov    %rax,%rdi
  40496f:	e8 c0 ff ff ff       	callq  404934 <_ZN2cl5ErrorD1Ev>
  404974:	48 8b 45 f8          	mov    -0x8(%rbp),%rax
  404978:	48 89 c7             	mov    %rax,%rdi
  40497b:	e8 c0 ed ff ff       	callq  403740 <_ZdlPv@plt>
  404980:	c9                   	leaveq 
  404981:	c3                   	retq   

0000000000404982 <_ZNK2cl5Error4whatEv>:
  404982:	55                   	push   %rbp
  404983:	48 89 e5             	mov    %rsp,%rbp
  404986:	48 89 7d f8          	mov    %rdi,-0x8(%rbp)
  40498a:	48 8b 45 f8          	mov    -0x8(%rbp),%rax
  40498e:	48 8b 40 10          	mov    0x10(%rax),%rax
  404992:	48 85 c0             	test   %rax,%rax
  404995:	75 07                	jne    40499e <_ZNK2cl5Error4whatEv+0x1c>
  404997:	b8 1d 02 41 00       	mov    $0x41021d,%eax
  40499c:	eb 08                	jmp    4049a6 <_ZNK2cl5Error4whatEv+0x24>
  40499e:	48 8b 45 f8          	mov    -0x8(%rbp),%rax
  4049a2:	48 8b 40 10          	mov    0x10(%rax),%rax
  4049a6:	5d                   	pop    %rbp
  4049a7:	c3                   	retq   

00000000004049a8 <_ZNK2cl5Error3errEv>:
  4049a8:	55                   	push   %rbp
  4049a9:	48 89 e5             	mov    %rsp,%rbp
  4049ac:	48 89 7d f8          	mov    %rdi,-0x8(%rbp)
  4049b0:	48 8b 45 f8          	mov    -0x8(%rbp),%rax
  4049b4:	8b 40 08             	mov    0x8(%rax),%eax
  4049b7:	5d                   	pop    %rbp
  4049b8:	c3                   	retq   
  4049b9:	90                   	nop

00000000004049ba <_ZNSt9exceptionC1ERKS_>:
  4049ba:	55                   	push   %rbp
  4049bb:	48 89 e5             	mov    %rsp,%rbp
  4049be:	48 89 7d f8          	mov    %rdi,-0x8(%rbp)
  4049c2:	48 89 75 f0          	mov    %rsi,-0x10(%rbp)
  4049c6:	ba 80 84 61 00       	mov    $0x618480,%edx
  4049cb:	48 8b 45 f8          	mov    -0x8(%rbp),%rax
  4049cf:	48 89 10             	mov    %rdx,(%rax)
  4049d2:	90                   	nop
  4049d3:	5d                   	pop    %rbp
  4049d4:	c3                   	retq   
  4049d5:	90                   	nop

00000000004049d6 <_ZN2cl5ErrorC1ERKS0_>:
  4049d6:	55                   	push   %rbp
  4049d7:	48 89 e5             	mov    %rsp,%rbp
  4049da:	48 83 ec 10          	sub    $0x10,%rsp
  4049de:	48 89 7d f8          	mov    %rdi,-0x8(%rbp)
  4049e2:	48 89 75 f0          	mov    %rsi,-0x10(%rbp)
  4049e6:	48 8b 55 f0          	mov    -0x10(%rbp),%rdx
  4049ea:	48 8b 45 f8          	mov    -0x8(%rbp),%rax
  4049ee:	48 89 d6             	mov    %rdx,%rsi
  4049f1:	48 89 c7             	mov    %rax,%rdi
  4049f4:	e8 c1 ff ff ff       	callq  4049ba <_ZNSt9exceptionC1ERKS_>
  4049f9:	ba 60 07 41 00       	mov    $0x410760,%edx
  4049fe:	48 8b 45 f8          	mov    -0x8(%rbp),%rax
  404a02:	48 89 10             	mov    %rdx,(%rax)
  404a05:	48 8b 45 f0          	mov    -0x10(%rbp),%rax
  404a09:	8b 50 08             	mov    0x8(%rax),%edx
  404a0c:	48 8b 45 f8          	mov    -0x8(%rbp),%rax
  404a10:	89 50 08             	mov    %edx,0x8(%rax)
  404a13:	48 8b 45 f0          	mov    -0x10(%rbp),%rax
  404a17:	48 8b 50 10          	mov    0x10(%rax),%rdx
  404a1b:	48 8b 45 f8          	mov    -0x8(%rbp),%rax
  404a1f:	48 89 50 10          	mov    %rdx,0x10(%rax)
  404a23:	90                   	nop
  404a24:	c9                   	leaveq 
  404a25:	c3                   	retq   

0000000000404a26 <_ZN2cl6detail16ReferenceHandlerIP13_cl_device_idE6retainES3_>:
  404a26:	55                   	push   %rbp
  404a27:	48 89 e5             	mov    %rsp,%rbp
  404a2a:	48 89 7d f8          	mov    %rdi,-0x8(%rbp)
  404a2e:	b8 00 00 00 00       	mov    $0x0,%eax
  404a33:	5d                   	pop    %rbp
  404a34:	c3                   	retq   

0000000000404a35 <_ZN2cl6detail16ReferenceHandlerIP13_cl_device_idE7releaseES3_>:
  404a35:	55                   	push   %rbp
  404a36:	48 89 e5             	mov    %rsp,%rbp
  404a39:	48 89 7d f8          	mov    %rdi,-0x8(%rbp)
  404a3d:	b8 00 00 00 00       	mov    $0x0,%eax
  404a42:	5d                   	pop    %rbp
  404a43:	c3                   	retq   

0000000000404a44 <_ZN2cl6detail16ReferenceHandlerIP15_cl_platform_idE6retainES3_>:
  404a44:	55                   	push   %rbp
  404a45:	48 89 e5             	mov    %rsp,%rbp
  404a48:	48 89 7d f8          	mov    %rdi,-0x8(%rbp)
  404a4c:	b8 00 00 00 00       	mov    $0x0,%eax
  404a51:	5d                   	pop    %rbp
  404a52:	c3                   	retq   

0000000000404a53 <_ZN2cl6detail16ReferenceHandlerIP15_cl_platform_idE7releaseES3_>:
  404a53:	55                   	push   %rbp
  404a54:	48 89 e5             	mov    %rsp,%rbp
  404a57:	48 89 7d f8          	mov    %rdi,-0x8(%rbp)
  404a5b:	b8 00 00 00 00       	mov    $0x0,%eax
  404a60:	5d                   	pop    %rbp
  404a61:	c3                   	retq   

0000000000404a62 <_ZN2cl6detail16ReferenceHandlerIP11_cl_contextE6retainES3_>:
  404a62:	55                   	push   %rbp
  404a63:	48 89 e5             	mov    %rsp,%rbp
  404a66:	48 83 ec 10          	sub    $0x10,%rsp
  404a6a:	48 89 7d f8          	mov    %rdi,-0x8(%rbp)
  404a6e:	48 8b 45 f8          	mov    -0x8(%rbp),%rax
  404a72:	48 89 c7             	mov    %rax,%rdi
  404a75:	e8 36 ef ff ff       	callq  4039b0 <clRetainContext@plt>
  404a7a:	c9                   	leaveq 
  404a7b:	c3                   	retq   

0000000000404a7c <_ZN2cl6detail16ReferenceHandlerIP11_cl_contextE7releaseES3_>:
  404a7c:	55                   	push   %rbp
  404a7d:	48 89 e5             	mov    %rsp,%rbp
  404a80:	48 83 ec 10          	sub    $0x10,%rsp
  404a84:	48 89 7d f8          	mov    %rdi,-0x8(%rbp)
  404a88:	48 8b 45 f8          	mov    -0x8(%rbp),%rax
  404a8c:	48 89 c7             	mov    %rax,%rdi
  404a8f:	e8 4c ec ff ff       	callq  4036e0 <clReleaseContext@plt>
  404a94:	c9                   	leaveq 
  404a95:	c3                   	retq   

0000000000404a96 <_ZN2cl6detail16ReferenceHandlerIP17_cl_command_queueE6retainES3_>:
  404a96:	55                   	push   %rbp
  404a97:	48 89 e5             	mov    %rsp,%rbp
  404a9a:	48 83 ec 10          	sub    $0x10,%rsp
  404a9e:	48 89 7d f8          	mov    %rdi,-0x8(%rbp)
  404aa2:	48 8b 45 f8          	mov    -0x8(%rbp),%rax
  404aa6:	48 89 c7             	mov    %rax,%rdi
  404aa9:	e8 d2 eb ff ff       	callq  403680 <clRetainCommandQueue@plt>
  404aae:	c9                   	leaveq 
  404aaf:	c3                   	retq   

0000000000404ab0 <_ZN2cl6detail16ReferenceHandlerIP17_cl_command_queueE7releaseES3_>:
  404ab0:	55                   	push   %rbp
  404ab1:	48 89 e5             	mov    %rsp,%rbp
  404ab4:	48 83 ec 10          	sub    $0x10,%rsp
  404ab8:	48 89 7d f8          	mov    %rdi,-0x8(%rbp)
  404abc:	48 8b 45 f8          	mov    -0x8(%rbp),%rax
  404ac0:	48 89 c7             	mov    %rax,%rdi
  404ac3:	e8 78 ed ff ff       	callq  403840 <clReleaseCommandQueue@plt>
  404ac8:	c9                   	leaveq 
  404ac9:	c3                   	retq   

0000000000404aca <_ZN2cl6detail7WrapperIP13_cl_device_idE20isReferenceCountableES3_>:
  404aca:	55                   	push   %rbp
  404acb:	48 89 e5             	mov    %rsp,%rbp
  404ace:	48 89 7d e8          	mov    %rdi,-0x18(%rbp)
  404ad2:	c6 45 ff 00          	movb   $0x0,-0x1(%rbp)
  404ad6:	0f b6 45 ff          	movzbl -0x1(%rbp),%eax
  404ada:	5d                   	pop    %rbp
  404adb:	c3                   	retq   

0000000000404adc <_ZN2cl6detail7WrapperIP13_cl_device_idEC1Ev>:
  404adc:	55                   	push   %rbp
  404add:	48 89 e5             	mov    %rsp,%rbp
  404ae0:	48 89 7d f8          	mov    %rdi,-0x8(%rbp)
  404ae4:	48 8b 45 f8          	mov    -0x8(%rbp),%rax
  404ae8:	48 c7 00 00 00 00 00 	movq   $0x0,(%rax)
  404aef:	48 8b 45 f8          	mov    -0x8(%rbp),%rax
  404af3:	c6 40 08 00          	movb   $0x0,0x8(%rax)
  404af7:	90                   	nop
  404af8:	5d                   	pop    %rbp
  404af9:	c3                   	retq   

0000000000404afa <_ZN2cl6detail7WrapperIP13_cl_device_idEC1ERKS3_b>:
  404afa:	55                   	push   %rbp
  404afb:	48 89 e5             	mov    %rsp,%rbp
  404afe:	48 83 ec 20          	sub    $0x20,%rsp
  404b02:	48 89 7d f8          	mov    %rdi,-0x8(%rbp)
  404b06:	48 89 75 f0          	mov    %rsi,-0x10(%rbp)
  404b0a:	89 d0                	mov    %edx,%eax
  404b0c:	88 45 ec             	mov    %al,-0x14(%rbp)
  404b0f:	48 8b 45 f0          	mov    -0x10(%rbp),%rax
  404b13:	48 8b 10             	mov    (%rax),%rdx
  404b16:	48 8b 45 f8          	mov    -0x8(%rbp),%rax
  404b1a:	48 89 10             	mov    %rdx,(%rax)
  404b1d:	48 8b 45 f8          	mov    -0x8(%rbp),%rax
  404b21:	c6 40 08 00          	movb   $0x0,0x8(%rax)
  404b25:	48 8b 45 f0          	mov    -0x10(%rbp),%rax
  404b29:	48 8b 00             	mov    (%rax),%rax
  404b2c:	48 89 c7             	mov    %rax,%rdi
  404b2f:	e8 96 ff ff ff       	callq  404aca <_ZN2cl6detail7WrapperIP13_cl_device_idE20isReferenceCountableES3_>
  404b34:	89 c2                	mov    %eax,%edx
  404b36:	48 8b 45 f8          	mov    -0x8(%rbp),%rax
  404b3a:	88 50 08             	mov    %dl,0x8(%rax)
  404b3d:	80 7d ec 00          	cmpb   $0x0,-0x14(%rbp)
  404b41:	74 18                	je     404b5b <_ZN2cl6detail7WrapperIP13_cl_device_idEC1ERKS3_b+0x61>
  404b43:	48 8b 45 f8          	mov    -0x8(%rbp),%rax
  404b47:	48 89 c7             	mov    %rax,%rdi
  404b4a:	e8 a1 01 00 00       	callq  404cf0 <_ZNK2cl6detail7WrapperIP13_cl_device_idE6retainEv>
  404b4f:	be 23 02 41 00       	mov    $0x410223,%esi
  404b54:	89 c7                	mov    %eax,%edi
  404b56:	e8 82 f0 ff ff       	callq  403bdd <_ZN2cl6detailL10errHandlerEiPKc>
  404b5b:	90                   	nop
  404b5c:	c9                   	leaveq 
  404b5d:	c3                   	retq   

0000000000404b5e <_ZN2cl6detail7WrapperIP13_cl_device_idED1Ev>:
  404b5e:	55                   	push   %rbp
  404b5f:	48 89 e5             	mov    %rsp,%rbp
  404b62:	48 83 ec 10          	sub    $0x10,%rsp
  404b66:	48 89 7d f8          	mov    %rdi,-0x8(%rbp)
  404b6a:	48 8b 45 f8          	mov    -0x8(%rbp),%rax
  404b6e:	48 89 c7             	mov    %rax,%rdi
  404b71:	e8 b6 01 00 00       	callq  404d2c <_ZNK2cl6detail7WrapperIP13_cl_device_idE7releaseEv>
  404b76:	90                   	nop
  404b77:	c9                   	leaveq 
  404b78:	c3                   	retq   
  404b79:	90                   	nop

0000000000404b7a <_ZN2cl6detail7WrapperIP13_cl_device_idEC1ERKS4_>:
  404b7a:	55                   	push   %rbp
  404b7b:	48 89 e5             	mov    %rsp,%rbp
  404b7e:	48 83 ec 10          	sub    $0x10,%rsp
  404b82:	48 89 7d f8          	mov    %rdi,-0x8(%rbp)
  404b86:	48 89 75 f0          	mov    %rsi,-0x10(%rbp)
  404b8a:	48 8b 45 f0          	mov    -0x10(%rbp),%rax
  404b8e:	48 8b 10             	mov    (%rax),%rdx
  404b91:	48 8b 45 f8          	mov    -0x8(%rbp),%rax
  404b95:	48 89 10             	mov    %rdx,(%rax)
  404b98:	48 8b 45 f8          	mov    -0x8(%rbp),%rax
  404b9c:	48 8b 00             	mov    (%rax),%rax
  404b9f:	48 89 c7             	mov    %rax,%rdi
  404ba2:	e8 23 ff ff ff       	callq  404aca <_ZN2cl6detail7WrapperIP13_cl_device_idE20isReferenceCountableES3_>
  404ba7:	89 c2                	mov    %eax,%edx
  404ba9:	48 8b 45 f8          	mov    -0x8(%rbp),%rax
  404bad:	88 50 08             	mov    %dl,0x8(%rax)
  404bb0:	48 8b 45 f8          	mov    -0x8(%rbp),%rax
  404bb4:	48 89 c7             	mov    %rax,%rdi
  404bb7:	e8 34 01 00 00       	callq  404cf0 <_ZNK2cl6detail7WrapperIP13_cl_device_idE6retainEv>
  404bbc:	be 23 02 41 00       	mov    $0x410223,%esi
  404bc1:	89 c7                	mov    %eax,%edi
  404bc3:	e8 15 f0 ff ff       	callq  403bdd <_ZN2cl6detailL10errHandlerEiPKc>
  404bc8:	90                   	nop
  404bc9:	c9                   	leaveq 
  404bca:	c3                   	retq   
  404bcb:	90                   	nop

0000000000404bcc <_ZN2cl6detail7WrapperIP13_cl_device_idEC1EOS4_>:
  404bcc:	55                   	push   %rbp
  404bcd:	48 89 e5             	mov    %rsp,%rbp
  404bd0:	48 89 7d f8          	mov    %rdi,-0x8(%rbp)
  404bd4:	48 89 75 f0          	mov    %rsi,-0x10(%rbp)
  404bd8:	48 8b 45 f0          	mov    -0x10(%rbp),%rax
  404bdc:	48 8b 10             	mov    (%rax),%rdx
  404bdf:	48 8b 45 f8          	mov    -0x8(%rbp),%rax
  404be3:	48 89 10             	mov    %rdx,(%rax)
  404be6:	48 8b 45 f0          	mov    -0x10(%rbp),%rax
  404bea:	0f b6 50 08          	movzbl 0x8(%rax),%edx
  404bee:	48 8b 45 f8          	mov    -0x8(%rbp),%rax
  404bf2:	88 50 08             	mov    %dl,0x8(%rax)
  404bf5:	48 8b 45 f0          	mov    -0x10(%rbp),%rax
  404bf9:	48 c7 00 00 00 00 00 	movq   $0x0,(%rax)
  404c00:	48 8b 45 f0          	mov    -0x10(%rbp),%rax
  404c04:	c6 40 08 00          	movb   $0x0,0x8(%rax)
  404c08:	90                   	nop
  404c09:	5d                   	pop    %rbp
  404c0a:	c3                   	retq   
  404c0b:	90                   	nop

0000000000404c0c <_ZN2cl6detail7WrapperIP13_cl_device_idEaSERKS4_>:
  404c0c:	55                   	push   %rbp
  404c0d:	48 89 e5             	mov    %rsp,%rbp
  404c10:	48 83 ec 10          	sub    $0x10,%rsp
  404c14:	48 89 7d f8          	mov    %rdi,-0x8(%rbp)
  404c18:	48 89 75 f0          	mov    %rsi,-0x10(%rbp)
  404c1c:	48 8b 45 f8          	mov    -0x8(%rbp),%rax
  404c20:	48 3b 45 f0          	cmp    -0x10(%rbp),%rax
  404c24:	74 4d                	je     404c73 <_ZN2cl6detail7WrapperIP13_cl_device_idEaSERKS4_+0x67>
  404c26:	48 8b 45 f8          	mov    -0x8(%rbp),%rax
  404c2a:	48 89 c7             	mov    %rax,%rdi
  404c2d:	e8 fa 00 00 00       	callq  404d2c <_ZNK2cl6detail7WrapperIP13_cl_device_idE7releaseEv>
  404c32:	be 31 02 41 00       	mov    $0x410231,%esi
  404c37:	89 c7                	mov    %eax,%edi
  404c39:	e8 9f ef ff ff       	callq  403bdd <_ZN2cl6detailL10errHandlerEiPKc>
  404c3e:	48 8b 45 f0          	mov    -0x10(%rbp),%rax
  404c42:	48 8b 10             	mov    (%rax),%rdx
  404c45:	48 8b 45 f8          	mov    -0x8(%rbp),%rax
  404c49:	48 89 10             	mov    %rdx,(%rax)
  404c4c:	48 8b 45 f0          	mov    -0x10(%rbp),%rax
  404c50:	0f b6 50 08          	movzbl 0x8(%rax),%edx
  404c54:	48 8b 45 f8          	mov    -0x8(%rbp),%rax
  404c58:	88 50 08             	mov    %dl,0x8(%rax)
  404c5b:	48 8b 45 f8          	mov    -0x8(%rbp),%rax
  404c5f:	48 89 c7             	mov    %rax,%rdi
  404c62:	e8 89 00 00 00       	callq  404cf0 <_ZNK2cl6detail7WrapperIP13_cl_device_idE6retainEv>
  404c67:	be 23 02 41 00       	mov    $0x410223,%esi
  404c6c:	89 c7                	mov    %eax,%edi
  404c6e:	e8 6a ef ff ff       	callq  403bdd <_ZN2cl6detailL10errHandlerEiPKc>
  404c73:	48 8b 45 f8          	mov    -0x8(%rbp),%rax
  404c77:	c9                   	leaveq 
  404c78:	c3                   	retq   
  404c79:	90                   	nop

0000000000404c7a <_ZN2cl6detail7WrapperIP13_cl_device_idEaSEOS4_>:
  404c7a:	55                   	push   %rbp
  404c7b:	48 89 e5             	mov    %rsp,%rbp
  404c7e:	48 83 ec 10          	sub    $0x10,%rsp
  404c82:	48 89 7d f8          	mov    %rdi,-0x8(%rbp)
  404c86:	48 89 75 f0          	mov    %rsi,-0x10(%rbp)
  404c8a:	48 8b 45 f8          	mov    -0x8(%rbp),%rax
  404c8e:	48 3b 45 f0          	cmp    -0x10(%rbp),%rax
  404c92:	74 48                	je     404cdc <_ZN2cl6detail7WrapperIP13_cl_device_idEaSEOS4_+0x62>
  404c94:	48 8b 45 f8          	mov    -0x8(%rbp),%rax
  404c98:	48 89 c7             	mov    %rax,%rdi
  404c9b:	e8 8c 00 00 00       	callq  404d2c <_ZNK2cl6detail7WrapperIP13_cl_device_idE7releaseEv>
  404ca0:	be 31 02 41 00       	mov    $0x410231,%esi
  404ca5:	89 c7                	mov    %eax,%edi
  404ca7:	e8 31 ef ff ff       	callq  403bdd <_ZN2cl6detailL10errHandlerEiPKc>
  404cac:	48 8b 45 f0          	mov    -0x10(%rbp),%rax
  404cb0:	48 8b 10             	mov    (%rax),%rdx
  404cb3:	48 8b 45 f8          	mov    -0x8(%rbp),%rax
  404cb7:	48 89 10             	mov    %rdx,(%rax)
  404cba:	48 8b 45 f0          	mov    -0x10(%rbp),%rax
  404cbe:	0f b6 50 08          	movzbl 0x8(%rax),%edx
  404cc2:	48 8b 45 f8          	mov    -0x8(%rbp),%rax
  404cc6:	88 50 08             	mov    %dl,0x8(%rax)
  404cc9:	48 8b 45 f0          	mov    -0x10(%rbp),%rax
  404ccd:	48 c7 00 00 00 00 00 	movq   $0x0,(%rax)
  404cd4:	48 8b 45 f0          	mov    -0x10(%rbp),%rax
  404cd8:	c6 40 08 00          	movb   $0x0,0x8(%rax)
  404cdc:	48 8b 45 f8          	mov    -0x8(%rbp),%rax
  404ce0:	c9                   	leaveq 
  404ce1:	c3                   	retq   

0000000000404ce2 <_ZNK2cl6detail7WrapperIP13_cl_device_idEclEv>:
  404ce2:	55                   	push   %rbp
  404ce3:	48 89 e5             	mov    %rsp,%rbp
  404ce6:	48 89 7d f8          	mov    %rdi,-0x8(%rbp)
  404cea:	48 8b 45 f8          	mov    -0x8(%rbp),%rax
  404cee:	5d                   	pop    %rbp
  404cef:	c3                   	retq   

0000000000404cf0 <_ZNK2cl6detail7WrapperIP13_cl_device_idE6retainEv>:
  404cf0:	55                   	push   %rbp
  404cf1:	48 89 e5             	mov    %rsp,%rbp
  404cf4:	48 83 ec 10          	sub    $0x10,%rsp
  404cf8:	48 89 7d f8          	mov    %rdi,-0x8(%rbp)
  404cfc:	48 8b 45 f8          	mov    -0x8(%rbp),%rax
  404d00:	48 8b 00             	mov    (%rax),%rax
  404d03:	48 85 c0             	test   %rax,%rax
  404d06:	74 1d                	je     404d25 <_ZNK2cl6detail7WrapperIP13_cl_device_idE6retainEv+0x35>
  404d08:	48 8b 45 f8          	mov    -0x8(%rbp),%rax
  404d0c:	0f b6 40 08          	movzbl 0x8(%rax),%eax
  404d10:	84 c0                	test   %al,%al
  404d12:	74 11                	je     404d25 <_ZNK2cl6detail7WrapperIP13_cl_device_idE6retainEv+0x35>
  404d14:	48 8b 45 f8          	mov    -0x8(%rbp),%rax
  404d18:	48 8b 00             	mov    (%rax),%rax
  404d1b:	48 89 c7             	mov    %rax,%rdi
  404d1e:	e8 03 fd ff ff       	callq  404a26 <_ZN2cl6detail16ReferenceHandlerIP13_cl_device_idE6retainES3_>
  404d23:	eb 05                	jmp    404d2a <_ZNK2cl6detail7WrapperIP13_cl_device_idE6retainEv+0x3a>
  404d25:	b8 00 00 00 00       	mov    $0x0,%eax
  404d2a:	c9                   	leaveq 
  404d2b:	c3                   	retq   

0000000000404d2c <_ZNK2cl6detail7WrapperIP13_cl_device_idE7releaseEv>:
  404d2c:	55                   	push   %rbp
  404d2d:	48 89 e5             	mov    %rsp,%rbp
  404d30:	48 83 ec 10          	sub    $0x10,%rsp
  404d34:	48 89 7d f8          	mov    %rdi,-0x8(%rbp)
  404d38:	48 8b 45 f8          	mov    -0x8(%rbp),%rax
  404d3c:	48 8b 00             	mov    (%rax),%rax
  404d3f:	48 85 c0             	test   %rax,%rax
  404d42:	74 1d                	je     404d61 <_ZNK2cl6detail7WrapperIP13_cl_device_idE7releaseEv+0x35>
  404d44:	48 8b 45 f8          	mov    -0x8(%rbp),%rax
  404d48:	0f b6 40 08          	movzbl 0x8(%rax),%eax
  404d4c:	84 c0                	test   %al,%al
  404d4e:	74 11                	je     404d61 <_ZNK2cl6detail7WrapperIP13_cl_device_idE7releaseEv+0x35>
  404d50:	48 8b 45 f8          	mov    -0x8(%rbp),%rax
  404d54:	48 8b 00             	mov    (%rax),%rax
  404d57:	48 89 c7             	mov    %rax,%rdi
  404d5a:	e8 d6 fc ff ff       	callq  404a35 <_ZN2cl6detail16ReferenceHandlerIP13_cl_device_idE7releaseES3_>
  404d5f:	eb 05                	jmp    404d66 <_ZNK2cl6detail7WrapperIP13_cl_device_idE7releaseEv+0x3a>
  404d61:	b8 00 00 00 00       	mov    $0x0,%eax
  404d66:	c9                   	leaveq 
  404d67:	c3                   	retq   

0000000000404d68 <_ZN2cl6DeviceC1Ev>:
  404d68:	55                   	push   %rbp
  404d69:	48 89 e5             	mov    %rsp,%rbp
  404d6c:	48 83 ec 10          	sub    $0x10,%rsp
  404d70:	48 89 7d f8          	mov    %rdi,-0x8(%rbp)
  404d74:	48 8b 45 f8          	mov    -0x8(%rbp),%rax
  404d78:	48 89 c7             	mov    %rax,%rdi
  404d7b:	e8 5c fd ff ff       	callq  404adc <_ZN2cl6detail7WrapperIP13_cl_device_idEC1Ev>
  404d80:	90                   	nop
  404d81:	c9                   	leaveq 
  404d82:	c3                   	retq   
  404d83:	90                   	nop

0000000000404d84 <_ZN2cl6DeviceC1ERKP13_cl_device_idb>:
  404d84:	55                   	push   %rbp
  404d85:	48 89 e5             	mov    %rsp,%rbp
  404d88:	48 83 ec 20          	sub    $0x20,%rsp
  404d8c:	48 89 7d f8          	mov    %rdi,-0x8(%rbp)
  404d90:	48 89 75 f0          	mov    %rsi,-0x10(%rbp)
  404d94:	89 d0                	mov    %edx,%eax
  404d96:	88 45 ec             	mov    %al,-0x14(%rbp)
  404d99:	0f b6 55 ec          	movzbl -0x14(%rbp),%edx
  404d9d:	48 8b 45 f8          	mov    -0x8(%rbp),%rax
  404da1:	48 8b 4d f0          	mov    -0x10(%rbp),%rcx
  404da5:	48 89 ce             	mov    %rcx,%rsi
  404da8:	48 89 c7             	mov    %rax,%rdi
  404dab:	e8 4a fd ff ff       	callq  404afa <_ZN2cl6detail7WrapperIP13_cl_device_idEC1ERKS3_b>
  404db0:	90                   	nop
  404db1:	c9                   	leaveq 
  404db2:	c3                   	retq   
  404db3:	90                   	nop

0000000000404db4 <_ZN2cl6DeviceD1Ev>:
  404db4:	55                   	push   %rbp
  404db5:	48 89 e5             	mov    %rsp,%rbp
  404db8:	48 83 ec 10          	sub    $0x10,%rsp
  404dbc:	48 89 7d f8          	mov    %rdi,-0x8(%rbp)
  404dc0:	48 8b 45 f8          	mov    -0x8(%rbp),%rax
  404dc4:	48 89 c7             	mov    %rax,%rdi
  404dc7:	e8 92 fd ff ff       	callq  404b5e <_ZN2cl6detail7WrapperIP13_cl_device_idED1Ev>
  404dcc:	90                   	nop
  404dcd:	c9                   	leaveq 
  404dce:	c3                   	retq   

0000000000404dcf <_ZN2cl6Device10getDefaultEPi>:
  404dcf:	55                   	push   %rbp
  404dd0:	48 89 e5             	mov    %rsp,%rbp
  404dd3:	48 83 ec 10          	sub    $0x10,%rsp
  404dd7:	48 89 7d f8          	mov    %rdi,-0x8(%rbp)
  404ddb:	48 89 75 f0          	mov    %rsi,-0x10(%rbp)
  404ddf:	be 00 5d 40 00       	mov    $0x405d00,%esi
  404de4:	bf 20 85 61 00       	mov    $0x618520,%edi
  404de9:	e8 7b 2a 00 00       	callq  407869 <_ZSt9call_onceIRFvvEJEEvRSt9once_flagOT_DpOT0_>
  404dee:	8b 05 4c 37 21 00    	mov    0x21374c(%rip),%eax        # 618540 <_ZN2cl6Device14default_error_E>
  404df4:	be 00 00 00 00       	mov    $0x0,%esi
  404df9:	89 c7                	mov    %eax,%edi
  404dfb:	e8 dd ed ff ff       	callq  403bdd <_ZN2cl6detailL10errHandlerEiPKc>
  404e00:	48 83 7d f0 00       	cmpq   $0x0,-0x10(%rbp)
  404e05:	74 0c                	je     404e13 <_ZN2cl6Device10getDefaultEPi+0x44>
  404e07:	8b 15 33 37 21 00    	mov    0x213733(%rip),%edx        # 618540 <_ZN2cl6Device14default_error_E>
  404e0d:	48 8b 45 f0          	mov    -0x10(%rbp),%rax
  404e11:	89 10                	mov    %edx,(%rax)
  404e13:	48 8b 45 f8          	mov    -0x8(%rbp),%rax
  404e17:	be 30 85 61 00       	mov    $0x618530,%esi
  404e1c:	48 89 c7             	mov    %rax,%rdi
  404e1f:	e8 06 00 00 00       	callq  404e2a <_ZN2cl6DeviceC1ERKS0_>
  404e24:	48 8b 45 f8          	mov    -0x8(%rbp),%rax
  404e28:	c9                   	leaveq 
  404e29:	c3                   	retq   

0000000000404e2a <_ZN2cl6DeviceC1ERKS0_>:
  404e2a:	55                   	push   %rbp
  404e2b:	48 89 e5             	mov    %rsp,%rbp
  404e2e:	48 83 ec 10          	sub    $0x10,%rsp
  404e32:	48 89 7d f8          	mov    %rdi,-0x8(%rbp)
  404e36:	48 89 75 f0          	mov    %rsi,-0x10(%rbp)
  404e3a:	48 8b 55 f0          	mov    -0x10(%rbp),%rdx
  404e3e:	48 8b 45 f8          	mov    -0x8(%rbp),%rax
  404e42:	48 89 d6             	mov    %rdx,%rsi
  404e45:	48 89 c7             	mov    %rax,%rdi
  404e48:	e8 2d fd ff ff       	callq  404b7a <_ZN2cl6detail7WrapperIP13_cl_device_idEC1ERKS4_>
  404e4d:	90                   	nop
  404e4e:	c9                   	leaveq 
  404e4f:	c3                   	retq   

0000000000404e50 <_ZN2cl6DeviceaSERKS0_>:
  404e50:	55                   	push   %rbp
  404e51:	48 89 e5             	mov    %rsp,%rbp
  404e54:	48 83 ec 10          	sub    $0x10,%rsp
  404e58:	48 89 7d f8          	mov    %rdi,-0x8(%rbp)
  404e5c:	48 89 75 f0          	mov    %rsi,-0x10(%rbp)
  404e60:	48 8b 55 f0          	mov    -0x10(%rbp),%rdx
  404e64:	48 8b 45 f8          	mov    -0x8(%rbp),%rax
  404e68:	48 89 d6             	mov    %rdx,%rsi
  404e6b:	48 89 c7             	mov    %rax,%rdi
  404e6e:	e8 99 fd ff ff       	callq  404c0c <_ZN2cl6detail7WrapperIP13_cl_device_idEaSERKS4_>
  404e73:	48 8b 45 f8          	mov    -0x8(%rbp),%rax
  404e77:	c9                   	leaveq 
  404e78:	c3                   	retq   

0000000000404e79 <_ZSt4moveIRN2cl6DeviceEEONSt16remove_referenceIT_E4typeEOS4_>:
  404e79:	55                   	push   %rbp
  404e7a:	48 89 e5             	mov    %rsp,%rbp
  404e7d:	48 89 7d f8          	mov    %rdi,-0x8(%rbp)
  404e81:	48 8b 45 f8          	mov    -0x8(%rbp),%rax
  404e85:	5d                   	pop    %rbp
  404e86:	c3                   	retq   
  404e87:	90                   	nop

0000000000404e88 <_ZN2cl6DeviceC1EOS0_>:
  404e88:	55                   	push   %rbp
  404e89:	48 89 e5             	mov    %rsp,%rbp
  404e8c:	48 83 ec 10          	sub    $0x10,%rsp
  404e90:	48 89 7d f8          	mov    %rdi,-0x8(%rbp)
  404e94:	48 89 75 f0          	mov    %rsi,-0x10(%rbp)
  404e98:	48 8b 45 f0          	mov    -0x10(%rbp),%rax
  404e9c:	48 89 c7             	mov    %rax,%rdi
  404e9f:	e8 d5 ff ff ff       	callq  404e79 <_ZSt4moveIRN2cl6DeviceEEONSt16remove_referenceIT_E4typeEOS4_>
  404ea4:	48 89 c2             	mov    %rax,%rdx
  404ea7:	48 8b 45 f8          	mov    -0x8(%rbp),%rax
  404eab:	48 89 d6             	mov    %rdx,%rsi
  404eae:	48 89 c7             	mov    %rax,%rdi
  404eb1:	e8 16 fd ff ff       	callq  404bcc <_ZN2cl6detail7WrapperIP13_cl_device_idEC1EOS4_>
  404eb6:	90                   	nop
  404eb7:	c9                   	leaveq 
  404eb8:	c3                   	retq   
  404eb9:	90                   	nop

0000000000404eba <_ZN2cl6DeviceaSEOS0_>:
  404eba:	55                   	push   %rbp
  404ebb:	48 89 e5             	mov    %rsp,%rbp
  404ebe:	48 83 ec 10          	sub    $0x10,%rsp
  404ec2:	48 89 7d f8          	mov    %rdi,-0x8(%rbp)
  404ec6:	48 89 75 f0          	mov    %rsi,-0x10(%rbp)
  404eca:	48 8b 45 f0          	mov    -0x10(%rbp),%rax
  404ece:	48 89 c7             	mov    %rax,%rdi
  404ed1:	e8 a3 ff ff ff       	callq  404e79 <_ZSt4moveIRN2cl6DeviceEEONSt16remove_referenceIT_E4typeEOS4_>
  404ed6:	48 89 c2             	mov    %rax,%rdx
  404ed9:	48 8b 45 f8          	mov    -0x8(%rbp),%rax
  404edd:	48 89 d6             	mov    %rdx,%rsi
  404ee0:	48 89 c7             	mov    %rax,%rdi
  404ee3:	e8 92 fd ff ff       	callq  404c7a <_ZN2cl6detail7WrapperIP13_cl_device_idEaSEOS4_>
  404ee8:	48 8b 45 f8          	mov    -0x8(%rbp),%rax
  404eec:	c9                   	leaveq 
  404eed:	c3                   	retq   

0000000000404eee <_ZN2cl8PlatformD1Ev>:
  404eee:	55                   	push   %rbp
  404eef:	48 89 e5             	mov    %rsp,%rbp
  404ef2:	48 83 ec 10          	sub    $0x10,%rsp
  404ef6:	48 89 7d f8          	mov    %rdi,-0x8(%rbp)
  404efa:	48 8b 45 f8          	mov    -0x8(%rbp),%rax
  404efe:	48 89 c7             	mov    %rax,%rdi
  404f01:	e8 1c 2b 00 00       	callq  407a22 <_ZN2cl6detail7WrapperIP15_cl_platform_idED1Ev>
  404f06:	90                   	nop
  404f07:	c9                   	leaveq 
  404f08:	c3                   	retq   
  404f09:	90                   	nop

0000000000404f0a <_ZN2cl8PlatformaSEOS0_>:
  404f0a:	55                   	push   %rbp
  404f0b:	48 89 e5             	mov    %rsp,%rbp
  404f0e:	48 83 ec 10          	sub    $0x10,%rsp
  404f12:	48 89 7d f8          	mov    %rdi,-0x8(%rbp)
  404f16:	48 89 75 f0          	mov    %rsi,-0x10(%rbp)
  404f1a:	48 8b 55 f0          	mov    -0x10(%rbp),%rdx
  404f1e:	48 8b 45 f8          	mov    -0x8(%rbp),%rax
  404f22:	48 89 d6             	mov    %rdx,%rsi
  404f25:	48 89 c7             	mov    %rax,%rdi
  404f28:	e8 1d 2b 00 00       	callq  407a4a <_ZN2cl6detail7WrapperIP15_cl_platform_idEaSEOS4_>
  404f2d:	48 8b 45 f8          	mov    -0x8(%rbp),%rax
  404f31:	c9                   	leaveq 
  404f32:	c3                   	retq   

0000000000404f33 <_ZN2cl8Platform11makeDefaultEv>:
  404f33:	55                   	push   %rbp
  404f34:	48 89 e5             	mov    %rsp,%rbp
  404f37:	41 54                	push   %r12
  404f39:	53                   	push   %rbx
  404f3a:	48 83 ec 40          	sub    $0x40,%rsp
  404f3e:	64 48 8b 04 25 28 00 	mov    %fs:0x28,%rax
  404f45:	00 00 
  404f47:	48 89 45 e8          	mov    %rax,-0x18(%rbp)
  404f4b:	31 c0                	xor    %eax,%eax
  404f4d:	c7 45 b8 00 00 00 00 	movl   $0x0,-0x48(%rbp)
  404f54:	48 8d 45 b8          	lea    -0x48(%rbp),%rax
  404f58:	48 89 c2             	mov    %rax,%rdx
  404f5b:	be 00 00 00 00       	mov    $0x0,%esi
  404f60:	bf 00 00 00 00       	mov    $0x0,%edi
  404f65:	e8 16 e9 ff ff       	callq  403880 <clGetPlatformIDs@plt>
  404f6a:	89 45 bc             	mov    %eax,-0x44(%rbp)
  404f6d:	83 7d bc 00          	cmpl   $0x0,-0x44(%rbp)
  404f71:	74 0e                	je     404f81 <_ZN2cl8Platform11makeDefaultEv+0x4e>
  404f73:	8b 45 bc             	mov    -0x44(%rbp),%eax
  404f76:	89 05 d4 35 21 00    	mov    %eax,0x2135d4(%rip)        # 618550 <_ZN2cl8Platform14default_error_E>
  404f7c:	e9 54 01 00 00       	jmpq   4050d5 <_ZN2cl8Platform11makeDefaultEv+0x1a2>
  404f81:	8b 45 b8             	mov    -0x48(%rbp),%eax
  404f84:	85 c0                	test   %eax,%eax
  404f86:	75 0f                	jne    404f97 <_ZN2cl8Platform11makeDefaultEv+0x64>
  404f88:	c7 05 be 35 21 00 e0 	movl   $0xffffffe0,0x2135be(%rip)        # 618550 <_ZN2cl8Platform14default_error_E>
  404f8f:	ff ff ff 
  404f92:	e9 3e 01 00 00       	jmpq   4050d5 <_ZN2cl8Platform11makeDefaultEv+0x1a2>
  404f97:	48 8d 45 c0          	lea    -0x40(%rbp),%rax
  404f9b:	48 89 c7             	mov    %rax,%rdi
  404f9e:	e8 5d 29 00 00       	callq  407900 <_ZNSaIP15_cl_platform_idEC1Ev>
  404fa3:	8b 45 b8             	mov    -0x48(%rbp),%eax
  404fa6:	89 c1                	mov    %eax,%ecx
  404fa8:	48 8d 55 c0          	lea    -0x40(%rbp),%rdx
  404fac:	48 8d 45 d0          	lea    -0x30(%rbp),%rax
  404fb0:	48 89 ce             	mov    %rcx,%rsi
  404fb3:	48 89 c7             	mov    %rax,%rdi
  404fb6:	e8 7d 29 00 00       	callq  407938 <_ZNSt6vectorIP15_cl_platform_idSaIS1_EEC1EmRKS2_>
  404fbb:	48 8d 45 c0          	lea    -0x40(%rbp),%rax
  404fbf:	48 89 c7             	mov    %rax,%rdi
  404fc2:	e8 55 29 00 00       	callq  40791c <_ZNSaIP15_cl_platform_idED1Ev>
  404fc7:	48 8d 45 d0          	lea    -0x30(%rbp),%rax
  404fcb:	48 89 c7             	mov    %rax,%rdi
  404fce:	e8 0b 2a 00 00       	callq  4079de <_ZNSt6vectorIP15_cl_platform_idSaIS1_EE4dataEv>
  404fd3:	48 89 c1             	mov    %rax,%rcx
  404fd6:	8b 45 b8             	mov    -0x48(%rbp),%eax
  404fd9:	ba 00 00 00 00       	mov    $0x0,%edx
  404fde:	48 89 ce             	mov    %rcx,%rsi
  404fe1:	89 c7                	mov    %eax,%edi
  404fe3:	e8 98 e8 ff ff       	callq  403880 <clGetPlatformIDs@plt>
  404fe8:	89 45 bc             	mov    %eax,-0x44(%rbp)
  404feb:	83 7d bc 00          	cmpl   $0x0,-0x44(%rbp)
  404fef:	74 10                	je     405001 <_ZN2cl8Platform11makeDefaultEv+0xce>
  404ff1:	8b 45 bc             	mov    -0x44(%rbp),%eax
  404ff4:	89 05 56 35 21 00    	mov    %eax,0x213556(%rip)        # 618550 <_ZN2cl8Platform14default_error_E>
  404ffa:	bb 00 00 00 00       	mov    $0x0,%ebx
  404fff:	eb 4a                	jmp    40504b <_ZN2cl8Platform11makeDefaultEv+0x118>
  405001:	48 8d 45 d0          	lea    -0x30(%rbp),%rax
  405005:	be 00 00 00 00       	mov    $0x0,%esi
  40500a:	48 89 c7             	mov    %rax,%rdi
  40500d:	e8 f0 29 00 00       	callq  407a02 <_ZNSt6vectorIP15_cl_platform_idSaIS1_EEixEm>
  405012:	48 89 c1             	mov    %rax,%rcx
  405015:	48 8d 45 c0          	lea    -0x40(%rbp),%rax
  405019:	ba 00 00 00 00       	mov    $0x0,%edx
  40501e:	48 89 ce             	mov    %rcx,%rsi
  405021:	48 89 c7             	mov    %rax,%rdi
  405024:	e8 e5 00 00 00       	callq  40510e <_ZN2cl8PlatformC1ERKP15_cl_platform_idb>
  405029:	48 8d 45 c0          	lea    -0x40(%rbp),%rax
  40502d:	48 89 c6             	mov    %rax,%rsi
  405030:	bf 48 85 61 00       	mov    $0x618548,%edi
  405035:	e8 d0 fe ff ff       	callq  404f0a <_ZN2cl8PlatformaSEOS0_>
  40503a:	48 8d 45 c0          	lea    -0x40(%rbp),%rax
  40503e:	48 89 c7             	mov    %rax,%rdi
  405041:	e8 a8 fe ff ff       	callq  404eee <_ZN2cl8PlatformD1Ev>
  405046:	bb 01 00 00 00       	mov    $0x1,%ebx
  40504b:	48 8d 45 d0          	lea    -0x30(%rbp),%rax
  40504f:	48 89 c7             	mov    %rax,%rdi
  405052:	e8 43 29 00 00       	callq  40799a <_ZNSt6vectorIP15_cl_platform_idSaIS1_EED1Ev>
  405057:	83 fb 01             	cmp    $0x1,%ebx
  40505a:	eb 79                	jmp    4050d5 <_ZN2cl8Platform11makeDefaultEv+0x1a2>
  40505c:	49 89 c4             	mov    %rax,%r12
  40505f:	48 89 d3             	mov    %rdx,%rbx
  405062:	48 8d 45 c0          	lea    -0x40(%rbp),%rax
  405066:	48 89 c7             	mov    %rax,%rdi
  405069:	e8 ae 28 00 00       	callq  40791c <_ZNSaIP15_cl_platform_idED1Ev>
  40506e:	4c 89 e0             	mov    %r12,%rax
  405071:	48 89 da             	mov    %rbx,%rdx
  405074:	eb 2e                	jmp    4050a4 <_ZN2cl8Platform11makeDefaultEv+0x171>
  405076:	49 89 c4             	mov    %rax,%r12
  405079:	48 89 d3             	mov    %rdx,%rbx
  40507c:	48 8d 45 c0          	lea    -0x40(%rbp),%rax
  405080:	48 89 c7             	mov    %rax,%rdi
  405083:	e8 66 fe ff ff       	callq  404eee <_ZN2cl8PlatformD1Ev>
  405088:	eb 06                	jmp    405090 <_ZN2cl8Platform11makeDefaultEv+0x15d>
  40508a:	49 89 c4             	mov    %rax,%r12
  40508d:	48 89 d3             	mov    %rdx,%rbx
  405090:	48 8d 45 d0          	lea    -0x30(%rbp),%rax
  405094:	48 89 c7             	mov    %rax,%rdi
  405097:	e8 fe 28 00 00       	callq  40799a <_ZNSt6vectorIP15_cl_platform_idSaIS1_EED1Ev>
  40509c:	4c 89 e0             	mov    %r12,%rax
  40509f:	48 89 da             	mov    %rbx,%rdx
  4050a2:	eb 00                	jmp    4050a4 <_ZN2cl8Platform11makeDefaultEv+0x171>
  4050a4:	48 83 fa 01          	cmp    $0x1,%rdx
  4050a8:	74 08                	je     4050b2 <_ZN2cl8Platform11makeDefaultEv+0x17f>
  4050aa:	48 89 c7             	mov    %rax,%rdi
  4050ad:	e8 1e e9 ff ff       	callq  4039d0 <_Unwind_Resume@plt>
  4050b2:	48 89 c7             	mov    %rax,%rdi
  4050b5:	e8 66 e5 ff ff       	callq  403620 <__cxa_begin_catch@plt>
  4050ba:	48 89 45 c8          	mov    %rax,-0x38(%rbp)
  4050be:	48 8b 45 c8          	mov    -0x38(%rbp),%rax
  4050c2:	48 89 c7             	mov    %rax,%rdi
  4050c5:	e8 de f8 ff ff       	callq  4049a8 <_ZNK2cl5Error3errEv>
  4050ca:	89 05 80 34 21 00    	mov    %eax,0x213480(%rip)        # 618550 <_ZN2cl8Platform14default_error_E>
  4050d0:	e8 9b e8 ff ff       	callq  403970 <__cxa_end_catch@plt>
  4050d5:	48 8b 45 e8          	mov    -0x18(%rbp),%rax
  4050d9:	64 48 33 04 25 28 00 	xor    %fs:0x28,%rax
  4050e0:	00 00 
  4050e2:	74 05                	je     4050e9 <_ZN2cl8Platform11makeDefaultEv+0x1b6>
  4050e4:	e8 97 e6 ff ff       	callq  403780 <__stack_chk_fail@plt>
  4050e9:	48 83 c4 40          	add    $0x40,%rsp
  4050ed:	5b                   	pop    %rbx
  4050ee:	41 5c                	pop    %r12
  4050f0:	5d                   	pop    %rbp
  4050f1:	c3                   	retq   

00000000004050f2 <_ZN2cl8PlatformC1Ev>:
  4050f2:	55                   	push   %rbp
  4050f3:	48 89 e5             	mov    %rsp,%rbp
  4050f6:	48 83 ec 10          	sub    $0x10,%rsp
  4050fa:	48 89 7d f8          	mov    %rdi,-0x8(%rbp)
  4050fe:	48 8b 45 f8          	mov    -0x8(%rbp),%rax
  405102:	48 89 c7             	mov    %rax,%rdi
  405105:	e8 92 29 00 00       	callq  407a9c <_ZN2cl6detail7WrapperIP15_cl_platform_idEC1Ev>
  40510a:	90                   	nop
  40510b:	c9                   	leaveq 
  40510c:	c3                   	retq   
  40510d:	90                   	nop

000000000040510e <_ZN2cl8PlatformC1ERKP15_cl_platform_idb>:
  40510e:	55                   	push   %rbp
  40510f:	48 89 e5             	mov    %rsp,%rbp
  405112:	48 83 ec 20          	sub    $0x20,%rsp
  405116:	48 89 7d f8          	mov    %rdi,-0x8(%rbp)
  40511a:	48 89 75 f0          	mov    %rsi,-0x10(%rbp)
  40511e:	89 d0                	mov    %edx,%eax
  405120:	88 45 ec             	mov    %al,-0x14(%rbp)
  405123:	0f b6 55 ec          	movzbl -0x14(%rbp),%edx
  405127:	48 8b 45 f8          	mov    -0x8(%rbp),%rax
  40512b:	48 8b 4d f0          	mov    -0x10(%rbp),%rcx
  40512f:	48 89 ce             	mov    %rcx,%rsi
  405132:	48 89 c7             	mov    %rax,%rdi
  405135:	e8 78 29 00 00       	callq  407ab2 <_ZN2cl6detail7WrapperIP15_cl_platform_idEC1ERKS3_b>
  40513a:	90                   	nop
  40513b:	c9                   	leaveq 
  40513c:	c3                   	retq   
  40513d:	90                   	nop

000000000040513e <_ZN2cl8PlatformC1ERKS0_>:
  40513e:	55                   	push   %rbp
  40513f:	48 89 e5             	mov    %rsp,%rbp
  405142:	48 83 ec 10          	sub    $0x10,%rsp
  405146:	48 89 7d f8          	mov    %rdi,-0x8(%rbp)
  40514a:	48 89 75 f0          	mov    %rsi,-0x10(%rbp)
  40514e:	48 8b 55 f0          	mov    -0x10(%rbp),%rdx
  405152:	48 8b 45 f8          	mov    -0x8(%rbp),%rax
  405156:	48 89 d6             	mov    %rdx,%rsi
  405159:	48 89 c7             	mov    %rax,%rdi
  40515c:	e8 95 29 00 00       	callq  407af6 <_ZN2cl6detail7WrapperIP15_cl_platform_idEC1ERKS4_>
  405161:	90                   	nop
  405162:	c9                   	leaveq 
  405163:	c3                   	retq   

0000000000405164 <_ZN2cl8Platform10getDefaultEPi>:
  405164:	55                   	push   %rbp
  405165:	48 89 e5             	mov    %rsp,%rbp
  405168:	48 83 ec 10          	sub    $0x10,%rsp
  40516c:	48 89 7d f8          	mov    %rdi,-0x8(%rbp)
  405170:	48 89 75 f0          	mov    %rsi,-0x10(%rbp)
  405174:	be 33 4f 40 00       	mov    $0x404f33,%esi
  405179:	bf 44 85 61 00       	mov    $0x618544,%edi
  40517e:	e8 e6 26 00 00       	callq  407869 <_ZSt9call_onceIRFvvEJEEvRSt9once_flagOT_DpOT0_>
  405183:	8b 05 c7 33 21 00    	mov    0x2133c7(%rip),%eax        # 618550 <_ZN2cl8Platform14default_error_E>
  405189:	be 00 00 00 00       	mov    $0x0,%esi
  40518e:	89 c7                	mov    %eax,%edi
  405190:	e8 48 ea ff ff       	callq  403bdd <_ZN2cl6detailL10errHandlerEiPKc>
  405195:	48 83 7d f0 00       	cmpq   $0x0,-0x10(%rbp)
  40519a:	74 0c                	je     4051a8 <_ZN2cl8Platform10getDefaultEPi+0x44>
  40519c:	8b 15 ae 33 21 00    	mov    0x2133ae(%rip),%edx        # 618550 <_ZN2cl8Platform14default_error_E>
  4051a2:	48 8b 45 f0          	mov    -0x10(%rbp),%rax
  4051a6:	89 10                	mov    %edx,(%rax)
  4051a8:	48 8b 45 f8          	mov    -0x8(%rbp),%rax
  4051ac:	be 48 85 61 00       	mov    $0x618548,%esi
  4051b1:	48 89 c7             	mov    %rax,%rdi
  4051b4:	e8 85 ff ff ff       	callq  40513e <_ZN2cl8PlatformC1ERKS0_>
  4051b9:	48 8b 45 f8          	mov    -0x8(%rbp),%rax
  4051bd:	c9                   	leaveq 
  4051be:	c3                   	retq   
  4051bf:	90                   	nop

00000000004051c0 <_ZNK2cl8Platform10getDevicesEmPSt6vectorINS_6DeviceESaIS2_EE>:
  4051c0:	55                   	push   %rbp
  4051c1:	48 89 e5             	mov    %rsp,%rbp
  4051c4:	53                   	push   %rbx
  4051c5:	48 83 ec 68          	sub    $0x68,%rsp
  4051c9:	48 89 7d a8          	mov    %rdi,-0x58(%rbp)
  4051cd:	48 89 75 a0          	mov    %rsi,-0x60(%rbp)
  4051d1:	48 89 55 98          	mov    %rdx,-0x68(%rbp)
  4051d5:	64 48 8b 04 25 28 00 	mov    %fs:0x28,%rax
  4051dc:	00 00 
  4051de:	48 89 45 e8          	mov    %rax,-0x18(%rbp)
  4051e2:	31 c0                	xor    %eax,%eax
  4051e4:	c7 45 b0 00 00 00 00 	movl   $0x0,-0x50(%rbp)
  4051eb:	48 83 7d 98 00       	cmpq   $0x0,-0x68(%rbp)
  4051f0:	75 16                	jne    405208 <_ZNK2cl8Platform10getDevicesEmPSt6vectorINS_6DeviceESaIS2_EE+0x48>
  4051f2:	be 40 02 41 00       	mov    $0x410240,%esi
  4051f7:	bf ce ff ff ff       	mov    $0xffffffce,%edi
  4051fc:	e8 dc e9 ff ff       	callq  403bdd <_ZN2cl6detailL10errHandlerEiPKc>
  405201:	89 c3                	mov    %eax,%ebx
  405203:	e9 78 01 00 00       	jmpq   405380 <_ZNK2cl8Platform10getDevicesEmPSt6vectorINS_6DeviceESaIS2_EE+0x1c0>
  405208:	48 8b 45 a8          	mov    -0x58(%rbp),%rax
  40520c:	48 8b 00             	mov    (%rax),%rax
  40520f:	48 8d 55 b0          	lea    -0x50(%rbp),%rdx
  405213:	48 8b 75 a0          	mov    -0x60(%rbp),%rsi
  405217:	49 89 d0             	mov    %rdx,%r8
  40521a:	b9 00 00 00 00       	mov    $0x0,%ecx
  40521f:	ba 00 00 00 00       	mov    $0x0,%edx
  405224:	48 89 c7             	mov    %rax,%rdi
  405227:	e8 e4 e5 ff ff       	callq  403810 <clGetDeviceIDs@plt>
  40522c:	89 45 b4             	mov    %eax,-0x4c(%rbp)
  40522f:	83 7d b4 00          	cmpl   $0x0,-0x4c(%rbp)
  405233:	74 16                	je     40524b <_ZNK2cl8Platform10getDevicesEmPSt6vectorINS_6DeviceESaIS2_EE+0x8b>
  405235:	8b 45 b4             	mov    -0x4c(%rbp),%eax
  405238:	be 40 02 41 00       	mov    $0x410240,%esi
  40523d:	89 c7                	mov    %eax,%edi
  40523f:	e8 99 e9 ff ff       	callq  403bdd <_ZN2cl6detailL10errHandlerEiPKc>
  405244:	89 c3                	mov    %eax,%ebx
  405246:	e9 35 01 00 00       	jmpq   405380 <_ZNK2cl8Platform10getDevicesEmPSt6vectorINS_6DeviceESaIS2_EE+0x1c0>
  40524b:	48 8d 45 c0          	lea    -0x40(%rbp),%rax
  40524f:	48 89 c7             	mov    %rax,%rdi
  405252:	e8 d9 28 00 00       	callq  407b30 <_ZNSaIP13_cl_device_idEC1Ev>
  405257:	8b 45 b0             	mov    -0x50(%rbp),%eax
  40525a:	89 c1                	mov    %eax,%ecx
  40525c:	48 8d 55 c0          	lea    -0x40(%rbp),%rdx
  405260:	48 8d 45 d0          	lea    -0x30(%rbp),%rax
  405264:	48 89 ce             	mov    %rcx,%rsi
  405267:	48 89 c7             	mov    %rax,%rdi
  40526a:	e8 f9 28 00 00       	callq  407b68 <_ZNSt6vectorIP13_cl_device_idSaIS1_EEC1EmRKS2_>
  40526f:	48 8d 45 c0          	lea    -0x40(%rbp),%rax
  405273:	48 89 c7             	mov    %rax,%rdi
  405276:	e8 d1 28 00 00       	callq  407b4c <_ZNSaIP13_cl_device_idED1Ev>
  40527b:	48 8d 45 d0          	lea    -0x30(%rbp),%rax
  40527f:	48 89 c7             	mov    %rax,%rdi
  405282:	e8 87 29 00 00       	callq  407c0e <_ZNSt6vectorIP13_cl_device_idSaIS1_EE4dataEv>
  405287:	48 89 c1             	mov    %rax,%rcx
  40528a:	8b 55 b0             	mov    -0x50(%rbp),%edx
  40528d:	48 8b 45 a8          	mov    -0x58(%rbp),%rax
  405291:	48 8b 00             	mov    (%rax),%rax
  405294:	48 8b 75 a0          	mov    -0x60(%rbp),%rsi
  405298:	41 b8 00 00 00 00    	mov    $0x0,%r8d
  40529e:	48 89 c7             	mov    %rax,%rdi
  4052a1:	e8 6a e5 ff ff       	callq  403810 <clGetDeviceIDs@plt>
  4052a6:	89 45 b4             	mov    %eax,-0x4c(%rbp)
  4052a9:	83 7d b4 00          	cmpl   $0x0,-0x4c(%rbp)
  4052ad:	74 16                	je     4052c5 <_ZNK2cl8Platform10getDevicesEmPSt6vectorINS_6DeviceESaIS2_EE+0x105>
  4052af:	8b 45 b4             	mov    -0x4c(%rbp),%eax
  4052b2:	be 40 02 41 00       	mov    $0x410240,%esi
  4052b7:	89 c7                	mov    %eax,%edi
  4052b9:	e8 1f e9 ff ff       	callq  403bdd <_ZN2cl6detailL10errHandlerEiPKc>
  4052be:	89 c3                	mov    %eax,%ebx
  4052c0:	e9 af 00 00 00       	jmpq   405374 <_ZNK2cl8Platform10getDevicesEmPSt6vectorINS_6DeviceESaIS2_EE+0x1b4>
  4052c5:	48 83 7d 98 00       	cmpq   $0x0,-0x68(%rbp)
  4052ca:	0f 84 9f 00 00 00    	je     40536f <_ZNK2cl8Platform10getDevicesEmPSt6vectorINS_6DeviceESaIS2_EE+0x1af>
  4052d0:	48 8d 45 d0          	lea    -0x30(%rbp),%rax
  4052d4:	48 89 c7             	mov    %rax,%rdi
  4052d7:	e8 56 29 00 00       	callq  407c32 <_ZNKSt6vectorIP13_cl_device_idSaIS1_EE4sizeEv>
  4052dc:	48 89 c2             	mov    %rax,%rdx
  4052df:	48 8b 45 98          	mov    -0x68(%rbp),%rax
  4052e3:	48 89 d6             	mov    %rdx,%rsi
  4052e6:	48 89 c7             	mov    %rax,%rdi
  4052e9:	e8 6a 29 00 00       	callq  407c58 <_ZNSt6vectorIN2cl6DeviceESaIS1_EE6resizeEm>
  4052ee:	48 c7 45 b8 00 00 00 	movq   $0x0,-0x48(%rbp)
  4052f5:	00 
  4052f6:	48 8d 45 d0          	lea    -0x30(%rbp),%rax
  4052fa:	48 89 c7             	mov    %rax,%rdi
  4052fd:	e8 30 29 00 00       	callq  407c32 <_ZNKSt6vectorIP13_cl_device_idSaIS1_EE4sizeEv>
  405302:	48 3b 45 b8          	cmp    -0x48(%rbp),%rax
  405306:	0f 97 c0             	seta   %al
  405309:	84 c0                	test   %al,%al
  40530b:	74 62                	je     40536f <_ZNK2cl8Platform10getDevicesEmPSt6vectorINS_6DeviceESaIS2_EE+0x1af>
  40530d:	48 8b 55 b8          	mov    -0x48(%rbp),%rdx
  405311:	48 8d 45 d0          	lea    -0x30(%rbp),%rax
  405315:	48 89 d6             	mov    %rdx,%rsi
  405318:	48 89 c7             	mov    %rax,%rdi
  40531b:	e8 e4 29 00 00       	callq  407d04 <_ZNSt6vectorIP13_cl_device_idSaIS1_EEixEm>
  405320:	48 89 c1             	mov    %rax,%rcx
  405323:	48 8d 45 c0          	lea    -0x40(%rbp),%rax
  405327:	ba 01 00 00 00       	mov    $0x1,%edx
  40532c:	48 89 ce             	mov    %rcx,%rsi
  40532f:	48 89 c7             	mov    %rax,%rdi
  405332:	e8 4d fa ff ff       	callq  404d84 <_ZN2cl6DeviceC1ERKP13_cl_device_idb>
  405337:	48 8b 55 b8          	mov    -0x48(%rbp),%rdx
  40533b:	48 8b 45 98          	mov    -0x68(%rbp),%rax
  40533f:	48 89 d6             	mov    %rdx,%rsi
  405342:	48 89 c7             	mov    %rax,%rdi
  405345:	e8 9a 29 00 00       	callq  407ce4 <_ZNSt6vectorIN2cl6DeviceESaIS1_EEixEm>
  40534a:	48 89 c2             	mov    %rax,%rdx
  40534d:	48 8d 45 c0          	lea    -0x40(%rbp),%rax
  405351:	48 89 c6             	mov    %rax,%rsi
  405354:	48 89 d7             	mov    %rdx,%rdi
  405357:	e8 5e fb ff ff       	callq  404eba <_ZN2cl6DeviceaSEOS0_>
  40535c:	48 8d 45 c0          	lea    -0x40(%rbp),%rax
  405360:	48 89 c7             	mov    %rax,%rdi
  405363:	e8 4c fa ff ff       	callq  404db4 <_ZN2cl6DeviceD1Ev>
  405368:	48 83 45 b8 01       	addq   $0x1,-0x48(%rbp)
  40536d:	eb 87                	jmp    4052f6 <_ZNK2cl8Platform10getDevicesEmPSt6vectorINS_6DeviceESaIS2_EE+0x136>
  40536f:	bb 00 00 00 00       	mov    $0x0,%ebx
  405374:	48 8d 45 d0          	lea    -0x30(%rbp),%rax
  405378:	48 89 c7             	mov    %rax,%rdi
  40537b:	e8 4a 28 00 00       	callq  407bca <_ZNSt6vectorIP13_cl_device_idSaIS1_EED1Ev>
  405380:	89 d8                	mov    %ebx,%eax
  405382:	48 8b 4d e8          	mov    -0x18(%rbp),%rcx
  405386:	64 48 33 0c 25 28 00 	xor    %fs:0x28,%rcx
  40538d:	00 00 
  40538f:	74 4c                	je     4053dd <_ZNK2cl8Platform10getDevicesEmPSt6vectorINS_6DeviceESaIS2_EE+0x21d>
  405391:	eb 45                	jmp    4053d8 <_ZNK2cl8Platform10getDevicesEmPSt6vectorINS_6DeviceESaIS2_EE+0x218>
  405393:	48 89 c3             	mov    %rax,%rbx
  405396:	48 8d 45 c0          	lea    -0x40(%rbp),%rax
  40539a:	48 89 c7             	mov    %rax,%rdi
  40539d:	e8 aa 27 00 00       	callq  407b4c <_ZNSaIP13_cl_device_idED1Ev>
  4053a2:	48 89 d8             	mov    %rbx,%rax
  4053a5:	48 89 c7             	mov    %rax,%rdi
  4053a8:	e8 23 e6 ff ff       	callq  4039d0 <_Unwind_Resume@plt>
  4053ad:	48 89 c3             	mov    %rax,%rbx
  4053b0:	48 8d 45 c0          	lea    -0x40(%rbp),%rax
  4053b4:	48 89 c7             	mov    %rax,%rdi
  4053b7:	e8 f8 f9 ff ff       	callq  404db4 <_ZN2cl6DeviceD1Ev>
  4053bc:	eb 03                	jmp    4053c1 <_ZNK2cl8Platform10getDevicesEmPSt6vectorINS_6DeviceESaIS2_EE+0x201>
  4053be:	48 89 c3             	mov    %rax,%rbx
  4053c1:	48 8d 45 d0          	lea    -0x30(%rbp),%rax
  4053c5:	48 89 c7             	mov    %rax,%rdi
  4053c8:	e8 fd 27 00 00       	callq  407bca <_ZNSt6vectorIP13_cl_device_idSaIS1_EED1Ev>
  4053cd:	48 89 d8             	mov    %rbx,%rax
  4053d0:	48 89 c7             	mov    %rax,%rdi
  4053d3:	e8 f8 e5 ff ff       	callq  4039d0 <_Unwind_Resume@plt>
  4053d8:	e8 a3 e3 ff ff       	callq  403780 <__stack_chk_fail@plt>
  4053dd:	48 83 c4 68          	add    $0x68,%rsp
  4053e1:	5b                   	pop    %rbx
  4053e2:	5d                   	pop    %rbp
  4053e3:	c3                   	retq   

00000000004053e4 <_ZN2cl8Platform3getEPSt6vectorIS0_SaIS0_EE>:
  4053e4:	55                   	push   %rbp
  4053e5:	48 89 e5             	mov    %rsp,%rbp
  4053e8:	53                   	push   %rbx
  4053e9:	48 83 ec 58          	sub    $0x58,%rsp
  4053ed:	48 89 7d a8          	mov    %rdi,-0x58(%rbp)
  4053f1:	64 48 8b 04 25 28 00 	mov    %fs:0x28,%rax
  4053f8:	00 00 
  4053fa:	48 89 45 e8          	mov    %rax,-0x18(%rbp)
  4053fe:	31 c0                	xor    %eax,%eax
  405400:	c7 45 b8 00 00 00 00 	movl   $0x0,-0x48(%rbp)
  405407:	48 83 7d a8 00       	cmpq   $0x0,-0x58(%rbp)
  40540c:	75 16                	jne    405424 <_ZN2cl8Platform3getEPSt6vectorIS0_SaIS0_EE+0x40>
  40540e:	be 4f 02 41 00       	mov    $0x41024f,%esi
  405413:	bf ce ff ff ff       	mov    $0xffffffce,%edi
  405418:	e8 c0 e7 ff ff       	callq  403bdd <_ZN2cl6detailL10errHandlerEiPKc>
  40541d:	89 c3                	mov    %eax,%ebx
  40541f:	e9 60 01 00 00       	jmpq   405584 <_ZN2cl8Platform3getEPSt6vectorIS0_SaIS0_EE+0x1a0>
  405424:	48 8d 45 b8          	lea    -0x48(%rbp),%rax
  405428:	48 89 c2             	mov    %rax,%rdx
  40542b:	be 00 00 00 00       	mov    $0x0,%esi
  405430:	bf 00 00 00 00       	mov    $0x0,%edi
  405435:	e8 46 e4 ff ff       	callq  403880 <clGetPlatformIDs@plt>
  40543a:	89 45 bc             	mov    %eax,-0x44(%rbp)
  40543d:	83 7d bc 00          	cmpl   $0x0,-0x44(%rbp)
  405441:	74 16                	je     405459 <_ZN2cl8Platform3getEPSt6vectorIS0_SaIS0_EE+0x75>
  405443:	8b 45 bc             	mov    -0x44(%rbp),%eax
  405446:	be 4f 02 41 00       	mov    $0x41024f,%esi
  40544b:	89 c7                	mov    %eax,%edi
  40544d:	e8 8b e7 ff ff       	callq  403bdd <_ZN2cl6detailL10errHandlerEiPKc>
  405452:	89 c3                	mov    %eax,%ebx
  405454:	e9 2b 01 00 00       	jmpq   405584 <_ZN2cl8Platform3getEPSt6vectorIS0_SaIS0_EE+0x1a0>
  405459:	48 8d 45 c0          	lea    -0x40(%rbp),%rax
  40545d:	48 89 c7             	mov    %rax,%rdi
  405460:	e8 9b 24 00 00       	callq  407900 <_ZNSaIP15_cl_platform_idEC1Ev>
  405465:	8b 45 b8             	mov    -0x48(%rbp),%eax
  405468:	89 c1                	mov    %eax,%ecx
  40546a:	48 8d 55 c0          	lea    -0x40(%rbp),%rdx
  40546e:	48 8d 45 d0          	lea    -0x30(%rbp),%rax
  405472:	48 89 ce             	mov    %rcx,%rsi
  405475:	48 89 c7             	mov    %rax,%rdi
  405478:	e8 bb 24 00 00       	callq  407938 <_ZNSt6vectorIP15_cl_platform_idSaIS1_EEC1EmRKS2_>
  40547d:	48 8d 45 c0          	lea    -0x40(%rbp),%rax
  405481:	48 89 c7             	mov    %rax,%rdi
  405484:	e8 93 24 00 00       	callq  40791c <_ZNSaIP15_cl_platform_idED1Ev>
  405489:	48 8d 45 d0          	lea    -0x30(%rbp),%rax
  40548d:	48 89 c7             	mov    %rax,%rdi
  405490:	e8 49 25 00 00       	callq  4079de <_ZNSt6vectorIP15_cl_platform_idSaIS1_EE4dataEv>
  405495:	48 89 c1             	mov    %rax,%rcx
  405498:	8b 45 b8             	mov    -0x48(%rbp),%eax
  40549b:	ba 00 00 00 00       	mov    $0x0,%edx
  4054a0:	48 89 ce             	mov    %rcx,%rsi
  4054a3:	89 c7                	mov    %eax,%edi
  4054a5:	e8 d6 e3 ff ff       	callq  403880 <clGetPlatformIDs@plt>
  4054aa:	89 45 bc             	mov    %eax,-0x44(%rbp)
  4054ad:	83 7d bc 00          	cmpl   $0x0,-0x44(%rbp)
  4054b1:	74 16                	je     4054c9 <_ZN2cl8Platform3getEPSt6vectorIS0_SaIS0_EE+0xe5>
  4054b3:	8b 45 bc             	mov    -0x44(%rbp),%eax
  4054b6:	be 4f 02 41 00       	mov    $0x41024f,%esi
  4054bb:	89 c7                	mov    %eax,%edi
  4054bd:	e8 1b e7 ff ff       	callq  403bdd <_ZN2cl6detailL10errHandlerEiPKc>
  4054c2:	89 c3                	mov    %eax,%ebx
  4054c4:	e9 af 00 00 00       	jmpq   405578 <_ZN2cl8Platform3getEPSt6vectorIS0_SaIS0_EE+0x194>
  4054c9:	48 83 7d a8 00       	cmpq   $0x0,-0x58(%rbp)
  4054ce:	0f 84 9f 00 00 00    	je     405573 <_ZN2cl8Platform3getEPSt6vectorIS0_SaIS0_EE+0x18f>
  4054d4:	48 8d 45 d0          	lea    -0x30(%rbp),%rax
  4054d8:	48 89 c7             	mov    %rax,%rdi
  4054db:	e8 44 28 00 00       	callq  407d24 <_ZNKSt6vectorIP15_cl_platform_idSaIS1_EE4sizeEv>
  4054e0:	48 89 c2             	mov    %rax,%rdx
  4054e3:	48 8b 45 a8          	mov    -0x58(%rbp),%rax
  4054e7:	48 89 d6             	mov    %rdx,%rsi
  4054ea:	48 89 c7             	mov    %rax,%rdi
  4054ed:	e8 58 28 00 00       	callq  407d4a <_ZNSt6vectorIN2cl8PlatformESaIS1_EE6resizeEm>
  4054f2:	48 c7 45 c8 00 00 00 	movq   $0x0,-0x38(%rbp)
  4054f9:	00 
  4054fa:	48 8d 45 d0          	lea    -0x30(%rbp),%rax
  4054fe:	48 89 c7             	mov    %rax,%rdi
  405501:	e8 1e 28 00 00       	callq  407d24 <_ZNKSt6vectorIP15_cl_platform_idSaIS1_EE4sizeEv>
  405506:	48 3b 45 c8          	cmp    -0x38(%rbp),%rax
  40550a:	0f 97 c0             	seta   %al
  40550d:	84 c0                	test   %al,%al
  40550f:	74 62                	je     405573 <_ZN2cl8Platform3getEPSt6vectorIS0_SaIS0_EE+0x18f>
  405511:	48 8b 55 c8          	mov    -0x38(%rbp),%rdx
  405515:	48 8d 45 d0          	lea    -0x30(%rbp),%rax
  405519:	48 89 d6             	mov    %rdx,%rsi
  40551c:	48 89 c7             	mov    %rax,%rdi
  40551f:	e8 de 24 00 00       	callq  407a02 <_ZNSt6vectorIP15_cl_platform_idSaIS1_EEixEm>
  405524:	48 89 c1             	mov    %rax,%rcx
  405527:	48 8d 45 c0          	lea    -0x40(%rbp),%rax
  40552b:	ba 00 00 00 00       	mov    $0x0,%edx
  405530:	48 89 ce             	mov    %rcx,%rsi
  405533:	48 89 c7             	mov    %rax,%rdi
  405536:	e8 d3 fb ff ff       	callq  40510e <_ZN2cl8PlatformC1ERKP15_cl_platform_idb>
  40553b:	48 8b 55 c8          	mov    -0x38(%rbp),%rdx
  40553f:	48 8b 45 a8          	mov    -0x58(%rbp),%rax
  405543:	48 89 d6             	mov    %rdx,%rsi
  405546:	48 89 c7             	mov    %rax,%rdi
  405549:	e8 88 28 00 00       	callq  407dd6 <_ZNSt6vectorIN2cl8PlatformESaIS1_EEixEm>
  40554e:	48 89 c2             	mov    %rax,%rdx
  405551:	48 8d 45 c0          	lea    -0x40(%rbp),%rax
  405555:	48 89 c6             	mov    %rax,%rsi
  405558:	48 89 d7             	mov    %rdx,%rdi
  40555b:	e8 aa f9 ff ff       	callq  404f0a <_ZN2cl8PlatformaSEOS0_>
  405560:	48 8d 45 c0          	lea    -0x40(%rbp),%rax
  405564:	48 89 c7             	mov    %rax,%rdi
  405567:	e8 82 f9 ff ff       	callq  404eee <_ZN2cl8PlatformD1Ev>
  40556c:	48 83 45 c8 01       	addq   $0x1,-0x38(%rbp)
  405571:	eb 87                	jmp    4054fa <_ZN2cl8Platform3getEPSt6vectorIS0_SaIS0_EE+0x116>
  405573:	bb 00 00 00 00       	mov    $0x0,%ebx
  405578:	48 8d 45 d0          	lea    -0x30(%rbp),%rax
  40557c:	48 89 c7             	mov    %rax,%rdi
  40557f:	e8 16 24 00 00       	callq  40799a <_ZNSt6vectorIP15_cl_platform_idSaIS1_EED1Ev>
  405584:	89 d8                	mov    %ebx,%eax
  405586:	48 8b 4d e8          	mov    -0x18(%rbp),%rcx
  40558a:	64 48 33 0c 25 28 00 	xor    %fs:0x28,%rcx
  405591:	00 00 
  405593:	74 4c                	je     4055e1 <_ZN2cl8Platform3getEPSt6vectorIS0_SaIS0_EE+0x1fd>
  405595:	eb 45                	jmp    4055dc <_ZN2cl8Platform3getEPSt6vectorIS0_SaIS0_EE+0x1f8>
  405597:	48 89 c3             	mov    %rax,%rbx
  40559a:	48 8d 45 c0          	lea    -0x40(%rbp),%rax
  40559e:	48 89 c7             	mov    %rax,%rdi
  4055a1:	e8 76 23 00 00       	callq  40791c <_ZNSaIP15_cl_platform_idED1Ev>
  4055a6:	48 89 d8             	mov    %rbx,%rax
  4055a9:	48 89 c7             	mov    %rax,%rdi
  4055ac:	e8 1f e4 ff ff       	callq  4039d0 <_Unwind_Resume@plt>
  4055b1:	48 89 c3             	mov    %rax,%rbx
  4055b4:	48 8d 45 c0          	lea    -0x40(%rbp),%rax
  4055b8:	48 89 c7             	mov    %rax,%rdi
  4055bb:	e8 2e f9 ff ff       	callq  404eee <_ZN2cl8PlatformD1Ev>
  4055c0:	eb 03                	jmp    4055c5 <_ZN2cl8Platform3getEPSt6vectorIS0_SaIS0_EE+0x1e1>
  4055c2:	48 89 c3             	mov    %rax,%rbx
  4055c5:	48 8d 45 d0          	lea    -0x30(%rbp),%rax
  4055c9:	48 89 c7             	mov    %rax,%rdi
  4055cc:	e8 c9 23 00 00       	callq  40799a <_ZNSt6vectorIP15_cl_platform_idSaIS1_EED1Ev>
  4055d1:	48 89 d8             	mov    %rbx,%rax
  4055d4:	48 89 c7             	mov    %rax,%rdi
  4055d7:	e8 f4 e3 ff ff       	callq  4039d0 <_Unwind_Resume@plt>
  4055dc:	e8 9f e1 ff ff       	callq  403780 <__stack_chk_fail@plt>
  4055e1:	48 83 c4 58          	add    $0x58,%rsp
  4055e5:	5b                   	pop    %rbx
  4055e6:	5d                   	pop    %rbp
  4055e7:	c3                   	retq   

00000000004055e8 <_ZN2cl8PlatformC1EOS0_>:
  4055e8:	55                   	push   %rbp
  4055e9:	48 89 e5             	mov    %rsp,%rbp
  4055ec:	48 83 ec 10          	sub    $0x10,%rsp
  4055f0:	48 89 7d f8          	mov    %rdi,-0x8(%rbp)
  4055f4:	48 89 75 f0          	mov    %rsi,-0x10(%rbp)
  4055f8:	48 8b 55 f0          	mov    -0x10(%rbp),%rdx
  4055fc:	48 8b 45 f8          	mov    -0x8(%rbp),%rax
  405600:	48 89 d6             	mov    %rdx,%rsi
  405603:	48 89 c7             	mov    %rax,%rdi
  405606:	e8 eb 27 00 00       	callq  407df6 <_ZN2cl6detail7WrapperIP15_cl_platform_idEC1EOS4_>
  40560b:	90                   	nop
  40560c:	c9                   	leaveq 
  40560d:	c3                   	retq   

000000000040560e <_ZN2cl8Platform3getEPi>:
  40560e:	55                   	push   %rbp
  40560f:	48 89 e5             	mov    %rsp,%rbp
  405612:	48 83 ec 20          	sub    $0x20,%rsp
  405616:	48 89 7d e8          	mov    %rdi,-0x18(%rbp)
  40561a:	48 89 75 e0          	mov    %rsi,-0x20(%rbp)
  40561e:	64 48 8b 04 25 28 00 	mov    %fs:0x28,%rax
  405625:	00 00 
  405627:	48 89 45 f8          	mov    %rax,-0x8(%rbp)
  40562b:	31 c0                	xor    %eax,%eax
  40562d:	48 8b 45 e8          	mov    -0x18(%rbp),%rax
  405631:	48 8d 55 f4          	lea    -0xc(%rbp),%rdx
  405635:	48 89 d6             	mov    %rdx,%rsi
  405638:	48 89 c7             	mov    %rax,%rdi
  40563b:	e8 24 fb ff ff       	callq  405164 <_ZN2cl8Platform10getDefaultEPi>
  405640:	48 83 7d e0 00       	cmpq   $0x0,-0x20(%rbp)
  405645:	74 0a                	je     405651 <_ZN2cl8Platform3getEPi+0x43>
  405647:	8b 55 f4             	mov    -0xc(%rbp),%edx
  40564a:	48 8b 45 e0          	mov    -0x20(%rbp),%rax
  40564e:	89 10                	mov    %edx,(%rax)
  405650:	90                   	nop
  405651:	90                   	nop
  405652:	48 8b 45 e8          	mov    -0x18(%rbp),%rax
  405656:	48 8b 4d f8          	mov    -0x8(%rbp),%rcx
  40565a:	64 48 33 0c 25 28 00 	xor    %fs:0x28,%rcx
  405661:	00 00 
  405663:	74 05                	je     40566a <_ZN2cl8Platform3getEPi+0x5c>
  405665:	e8 16 e1 ff ff       	callq  403780 <__stack_chk_fail@plt>
  40566a:	c9                   	leaveq 
  40566b:	c3                   	retq   

000000000040566c <_ZN2cl7ContextD1Ev>:
  40566c:	55                   	push   %rbp
  40566d:	48 89 e5             	mov    %rsp,%rbp
  405670:	48 83 ec 10          	sub    $0x10,%rsp
  405674:	48 89 7d f8          	mov    %rdi,-0x8(%rbp)
  405678:	48 8b 45 f8          	mov    -0x8(%rbp),%rax
  40567c:	48 89 c7             	mov    %rax,%rdi
  40567f:	e8 a8 27 00 00       	callq  407e2c <_ZN2cl6detail7WrapperIP11_cl_contextED1Ev>
  405684:	90                   	nop
  405685:	c9                   	leaveq 
  405686:	c3                   	retq   

0000000000405687 <_ZN2cl7Context11makeDefaultEv>:
  405687:	55                   	push   %rbp
  405688:	48 89 e5             	mov    %rsp,%rbp
  40568b:	41 54                	push   %r12
  40568d:	53                   	push   %rbx
  40568e:	48 83 ec 50          	sub    $0x50,%rsp
  405692:	64 48 8b 04 25 28 00 	mov    %fs:0x28,%rax
  405699:	00 00 
  40569b:	48 89 45 e8          	mov    %rax,-0x18(%rbp)
  40569f:	31 c0                	xor    %eax,%eax
  4056a1:	48 8d 45 a8          	lea    -0x58(%rbp),%rax
  4056a5:	be 00 00 00 00       	mov    $0x0,%esi
  4056aa:	48 89 c7             	mov    %rax,%rdi
  4056ad:	e8 b2 fa ff ff       	callq  405164 <_ZN2cl8Platform10getDefaultEPi>
  4056b2:	48 8d 45 a8          	lea    -0x58(%rbp),%rax
  4056b6:	48 89 45 b8          	mov    %rax,-0x48(%rbp)
  4056ba:	48 8b 45 b8          	mov    -0x48(%rbp),%rax
  4056be:	48 89 c7             	mov    %rax,%rdi
  4056c1:	e8 58 27 00 00       	callq  407e1e <_ZNK2cl6detail7WrapperIP15_cl_platform_idEclEv>
  4056c6:	48 8b 00             	mov    (%rax),%rax
  4056c9:	48 89 45 c0          	mov    %rax,-0x40(%rbp)
  4056cd:	48 c7 45 d0 00 00 00 	movq   $0x0,-0x30(%rbp)
  4056d4:	00 
  4056d5:	48 c7 45 d8 00 00 00 	movq   $0x0,-0x28(%rbp)
  4056dc:	00 
  4056dd:	48 c7 45 e0 00 00 00 	movq   $0x0,-0x20(%rbp)
  4056e4:	00 
  4056e5:	48 c7 45 d0 84 10 00 	movq   $0x1084,-0x30(%rbp)
  4056ec:	00 
  4056ed:	48 8b 45 c0          	mov    -0x40(%rbp),%rax
  4056f1:	48 89 45 d8          	mov    %rax,-0x28(%rbp)
  4056f5:	48 8d 55 d0          	lea    -0x30(%rbp),%rdx
  4056f9:	48 8d 45 b0          	lea    -0x50(%rbp),%rax
  4056fd:	41 b9 60 85 61 00    	mov    $0x618560,%r9d
  405703:	41 b8 00 00 00 00    	mov    $0x0,%r8d
  405709:	b9 00 00 00 00       	mov    $0x0,%ecx
  40570e:	be 01 00 00 00       	mov    $0x1,%esi
  405713:	48 89 c7             	mov    %rax,%rdi
  405716:	e8 c9 00 00 00       	callq  4057e4 <_ZN2cl7ContextC1EmPlPFvPKcPKvmPvES6_Pi>
  40571b:	48 8d 45 b0          	lea    -0x50(%rbp),%rax
  40571f:	48 89 c6             	mov    %rax,%rsi
  405722:	bf 58 85 61 00       	mov    $0x618558,%edi
  405727:	e8 a6 04 00 00       	callq  405bd2 <_ZN2cl7ContextaSEOS0_>
  40572c:	48 8d 45 b0          	lea    -0x50(%rbp),%rax
  405730:	48 89 c7             	mov    %rax,%rdi
  405733:	e8 34 ff ff ff       	callq  40566c <_ZN2cl7ContextD1Ev>
  405738:	48 8d 45 a8          	lea    -0x58(%rbp),%rax
  40573c:	48 89 c7             	mov    %rax,%rdi
  40573f:	e8 aa f7 ff ff       	callq  404eee <_ZN2cl8PlatformD1Ev>
  405744:	eb 5f                	jmp    4057a5 <_ZN2cl7Context11makeDefaultEv+0x11e>
  405746:	49 89 c4             	mov    %rax,%r12
  405749:	48 89 d3             	mov    %rdx,%rbx
  40574c:	48 8d 45 b0          	lea    -0x50(%rbp),%rax
  405750:	48 89 c7             	mov    %rax,%rdi
  405753:	e8 14 ff ff ff       	callq  40566c <_ZN2cl7ContextD1Ev>
  405758:	eb 06                	jmp    405760 <_ZN2cl7Context11makeDefaultEv+0xd9>
  40575a:	49 89 c4             	mov    %rax,%r12
  40575d:	48 89 d3             	mov    %rdx,%rbx
  405760:	48 8d 45 a8          	lea    -0x58(%rbp),%rax
  405764:	48 89 c7             	mov    %rax,%rdi
  405767:	e8 82 f7 ff ff       	callq  404eee <_ZN2cl8PlatformD1Ev>
  40576c:	4c 89 e0             	mov    %r12,%rax
  40576f:	48 89 da             	mov    %rbx,%rdx
  405772:	eb 00                	jmp    405774 <_ZN2cl7Context11makeDefaultEv+0xed>
  405774:	48 83 fa 01          	cmp    $0x1,%rdx
  405778:	74 08                	je     405782 <_ZN2cl7Context11makeDefaultEv+0xfb>
  40577a:	48 89 c7             	mov    %rax,%rdi
  40577d:	e8 4e e2 ff ff       	callq  4039d0 <_Unwind_Resume@plt>
  405782:	48 89 c7             	mov    %rax,%rdi
  405785:	e8 96 de ff ff       	callq  403620 <__cxa_begin_catch@plt>
  40578a:	48 89 45 c8          	mov    %rax,-0x38(%rbp)
  40578e:	48 8b 45 c8          	mov    -0x38(%rbp),%rax
  405792:	48 89 c7             	mov    %rax,%rdi
  405795:	e8 0e f2 ff ff       	callq  4049a8 <_ZNK2cl5Error3errEv>
  40579a:	89 05 c0 2d 21 00    	mov    %eax,0x212dc0(%rip)        # 618560 <_ZN2cl7Context14default_error_E>
  4057a0:	e8 cb e1 ff ff       	callq  403970 <__cxa_end_catch@plt>
  4057a5:	90                   	nop
  4057a6:	48 8b 45 e8          	mov    -0x18(%rbp),%rax
  4057aa:	64 48 33 04 25 28 00 	xor    %fs:0x28,%rax
  4057b1:	00 00 
  4057b3:	74 05                	je     4057ba <_ZN2cl7Context11makeDefaultEv+0x133>
  4057b5:	e8 c6 df ff ff       	callq  403780 <__stack_chk_fail@plt>
  4057ba:	48 83 c4 50          	add    $0x50,%rsp
  4057be:	5b                   	pop    %rbx
  4057bf:	41 5c                	pop    %r12
  4057c1:	5d                   	pop    %rbp
  4057c2:	c3                   	retq   

00000000004057c3 <_ZN2cl7Context19makeDefaultProvidedERKS0_>:
  4057c3:	55                   	push   %rbp
  4057c4:	48 89 e5             	mov    %rsp,%rbp
  4057c7:	48 83 ec 10          	sub    $0x10,%rsp
  4057cb:	48 89 7d f8          	mov    %rdi,-0x8(%rbp)
  4057cf:	48 8b 45 f8          	mov    -0x8(%rbp),%rax
  4057d3:	48 89 c6             	mov    %rax,%rsi
  4057d6:	bf 58 85 61 00       	mov    $0x618558,%edi
  4057db:	e8 ba 03 00 00       	callq  405b9a <_ZN2cl7ContextaSERKS0_>
  4057e0:	90                   	nop
  4057e1:	c9                   	leaveq 
  4057e2:	c3                   	retq   
  4057e3:	90                   	nop

00000000004057e4 <_ZN2cl7ContextC1EmPlPFvPKcPKvmPvES6_Pi>:
  4057e4:	55                   	push   %rbp
  4057e5:	48 89 e5             	mov    %rsp,%rbp
  4057e8:	53                   	push   %rbx
  4057e9:	48 81 ec d8 00 00 00 	sub    $0xd8,%rsp
  4057f0:	48 89 bd 48 ff ff ff 	mov    %rdi,-0xb8(%rbp)
  4057f7:	48 89 b5 40 ff ff ff 	mov    %rsi,-0xc0(%rbp)
  4057fe:	48 89 95 38 ff ff ff 	mov    %rdx,-0xc8(%rbp)
  405805:	48 89 8d 30 ff ff ff 	mov    %rcx,-0xd0(%rbp)
  40580c:	4c 89 85 28 ff ff ff 	mov    %r8,-0xd8(%rbp)
  405813:	4c 89 8d 20 ff ff ff 	mov    %r9,-0xe0(%rbp)
  40581a:	64 48 8b 04 25 28 00 	mov    %fs:0x28,%rax
  405821:	00 00 
  405823:	48 89 45 e8          	mov    %rax,-0x18(%rbp)
  405827:	31 c0                	xor    %eax,%eax
  405829:	48 8b 85 48 ff ff ff 	mov    -0xb8(%rbp),%rax
  405830:	48 89 c7             	mov    %rax,%rdi
  405833:	e8 1c 26 00 00       	callq  407e54 <_ZN2cl6detail7WrapperIP11_cl_contextEC1Ev>
  405838:	48 c7 45 c0 84 10 00 	movq   $0x1084,-0x40(%rbp)
  40583f:	00 
  405840:	48 c7 45 c8 00 00 00 	movq   $0x0,-0x38(%rbp)
  405847:	00 
  405848:	48 c7 45 d0 00 00 00 	movq   $0x0,-0x30(%rbp)
  40584f:	00 
  405850:	48 c7 45 d8 00 00 00 	movq   $0x0,-0x28(%rbp)
  405857:	00 
  405858:	48 83 bd 38 ff ff ff 	cmpq   $0x0,-0xc8(%rbp)
  40585f:	00 
  405860:	0f 85 f3 01 00 00    	jne    405a59 <_ZN2cl7ContextC1EmPlPFvPKcPKvmPvES6_Pi+0x275>
  405866:	48 8d 85 60 ff ff ff 	lea    -0xa0(%rbp),%rax
  40586d:	48 89 c7             	mov    %rax,%rdi
  405870:	e8 1b 26 00 00       	callq  407e90 <_ZNSt6vectorIN2cl8PlatformESaIS1_EEC1Ev>
  405875:	48 8d 85 60 ff ff ff 	lea    -0xa0(%rbp),%rax
  40587c:	48 89 c7             	mov    %rax,%rdi
  40587f:	e8 60 fb ff ff       	callq  4053e4 <_ZN2cl8Platform3getEPSt6vectorIS0_SaIS0_EE>
  405884:	89 85 50 ff ff ff    	mov    %eax,-0xb0(%rbp)
  40588a:	8b 85 50 ff ff ff    	mov    -0xb0(%rbp),%eax
  405890:	85 c0                	test   %eax,%eax
  405892:	74 35                	je     4058c9 <_ZN2cl7ContextC1EmPlPFvPKcPKvmPvES6_Pi+0xe5>
  405894:	8b 85 50 ff ff ff    	mov    -0xb0(%rbp),%eax
  40589a:	be 60 02 41 00       	mov    $0x410260,%esi
  40589f:	89 c7                	mov    %eax,%edi
  4058a1:	e8 37 e3 ff ff       	callq  403bdd <_ZN2cl6detailL10errHandlerEiPKc>
  4058a6:	48 83 bd 20 ff ff ff 	cmpq   $0x0,-0xe0(%rbp)
  4058ad:	00 
  4058ae:	74 0f                	je     4058bf <_ZN2cl7ContextC1EmPlPFvPKcPKvmPvES6_Pi+0xdb>
  4058b0:	8b 95 50 ff ff ff    	mov    -0xb0(%rbp),%edx
  4058b6:	48 8b 85 20 ff ff ff 	mov    -0xe0(%rbp),%rax
  4058bd:	89 10                	mov    %edx,(%rax)
  4058bf:	bb 00 00 00 00       	mov    $0x0,%ebx
  4058c4:	e9 77 01 00 00       	jmpq   405a40 <_ZN2cl7ContextC1EmPlPFvPKcPKvmPvES6_Pi+0x25c>
  4058c9:	48 c7 85 58 ff ff ff 	movq   $0x0,-0xa8(%rbp)
  4058d0:	00 00 00 00 
  4058d4:	c7 85 54 ff ff ff 00 	movl   $0x0,-0xac(%rbp)
  4058db:	00 00 00 
  4058de:	8b 9d 54 ff ff ff    	mov    -0xac(%rbp),%ebx
  4058e4:	48 8d 85 60 ff ff ff 	lea    -0xa0(%rbp),%rax
  4058eb:	48 89 c7             	mov    %rax,%rdi
  4058ee:	e8 fd 25 00 00       	callq  407ef0 <_ZNKSt6vectorIN2cl8PlatformESaIS1_EE4sizeEv>
  4058f3:	48 39 c3             	cmp    %rax,%rbx
  4058f6:	0f 92 c0             	setb   %al
  4058f9:	84 c0                	test   %al,%al
  4058fb:	0f 84 ed 00 00 00    	je     4059ee <_ZN2cl7ContextC1EmPlPFvPKcPKvmPvES6_Pi+0x20a>
  405901:	48 8d 45 80          	lea    -0x80(%rbp),%rax
  405905:	48 89 c7             	mov    %rax,%rdi
  405908:	e8 09 26 00 00       	callq  407f16 <_ZNSt6vectorIN2cl6DeviceESaIS1_EEC1Ev>
  40590d:	8b 95 54 ff ff ff    	mov    -0xac(%rbp),%edx
  405913:	48 8d 85 60 ff ff ff 	lea    -0xa0(%rbp),%rax
  40591a:	48 89 d6             	mov    %rdx,%rsi
  40591d:	48 89 c7             	mov    %rax,%rdi
  405920:	e8 b1 24 00 00       	callq  407dd6 <_ZNSt6vectorIN2cl8PlatformESaIS1_EEixEm>
  405925:	48 89 c1             	mov    %rax,%rcx
  405928:	48 8d 55 80          	lea    -0x80(%rbp),%rdx
  40592c:	48 8b 85 40 ff ff ff 	mov    -0xc0(%rbp),%rax
  405933:	48 89 c6             	mov    %rax,%rsi
  405936:	48 89 cf             	mov    %rcx,%rdi
  405939:	e8 82 f8 ff ff       	callq  4051c0 <_ZNK2cl8Platform10getDevicesEmPSt6vectorINS_6DeviceESaIS2_EE>
  40593e:	89 85 50 ff ff ff    	mov    %eax,-0xb0(%rbp)
  405944:	8b 85 50 ff ff ff    	mov    -0xb0(%rbp),%eax
  40594a:	85 c0                	test   %eax,%eax
  40594c:	74 36                	je     405984 <_ZN2cl7ContextC1EmPlPFvPKcPKvmPvES6_Pi+0x1a0>
  40594e:	8b 85 50 ff ff ff    	mov    -0xb0(%rbp),%eax
  405954:	83 f8 ff             	cmp    $0xffffffff,%eax
  405957:	74 2b                	je     405984 <_ZN2cl7ContextC1EmPlPFvPKcPKvmPvES6_Pi+0x1a0>
  405959:	8b 85 50 ff ff ff    	mov    -0xb0(%rbp),%eax
  40595f:	be 60 02 41 00       	mov    $0x410260,%esi
  405964:	89 c7                	mov    %eax,%edi
  405966:	e8 72 e2 ff ff       	callq  403bdd <_ZN2cl6detailL10errHandlerEiPKc>
  40596b:	48 83 bd 20 ff ff ff 	cmpq   $0x0,-0xe0(%rbp)
  405972:	00 
  405973:	74 0f                	je     405984 <_ZN2cl7ContextC1EmPlPFvPKcPKvmPvES6_Pi+0x1a0>
  405975:	8b 95 50 ff ff ff    	mov    -0xb0(%rbp),%edx
  40597b:	48 8b 85 20 ff ff ff 	mov    -0xe0(%rbp),%rax
  405982:	89 10                	mov    %edx,(%rax)
  405984:	48 8d 45 80          	lea    -0x80(%rbp),%rax
  405988:	48 89 c7             	mov    %rax,%rdi
  40598b:	e8 da 24 00 00       	callq  407e6a <_ZNKSt6vectorIN2cl6DeviceESaIS1_EE4sizeEv>
  405990:	48 85 c0             	test   %rax,%rax
  405993:	0f 95 c0             	setne  %al
  405996:	84 c0                	test   %al,%al
  405998:	74 31                	je     4059cb <_ZN2cl7ContextC1EmPlPFvPKcPKvmPvES6_Pi+0x1e7>
  40599a:	8b 95 54 ff ff ff    	mov    -0xac(%rbp),%edx
  4059a0:	48 8d 85 60 ff ff ff 	lea    -0xa0(%rbp),%rax
  4059a7:	48 89 d6             	mov    %rdx,%rsi
  4059aa:	48 89 c7             	mov    %rax,%rdi
  4059ad:	e8 24 24 00 00       	callq  407dd6 <_ZNSt6vectorIN2cl8PlatformESaIS1_EEixEm>
  4059b2:	48 89 c7             	mov    %rax,%rdi
  4059b5:	e8 bc 25 00 00       	callq  407f76 <_ZN2cl6detail7WrapperIP15_cl_platform_idEclEv>
  4059ba:	48 8b 00             	mov    (%rax),%rax
  4059bd:	48 89 85 58 ff ff ff 	mov    %rax,-0xa8(%rbp)
  4059c4:	bb 00 00 00 00       	mov    $0x0,%ebx
  4059c9:	eb 05                	jmp    4059d0 <_ZN2cl7ContextC1EmPlPFvPKcPKvmPvES6_Pi+0x1ec>
  4059cb:	bb 01 00 00 00       	mov    $0x1,%ebx
  4059d0:	48 8d 45 80          	lea    -0x80(%rbp),%rax
  4059d4:	48 89 c7             	mov    %rax,%rdi
  4059d7:	e8 56 25 00 00       	callq  407f32 <_ZNSt6vectorIN2cl6DeviceESaIS1_EED1Ev>
  4059dc:	83 fb 01             	cmp    $0x1,%ebx
  4059df:	75 0d                	jne    4059ee <_ZN2cl7ContextC1EmPlPFvPKcPKvmPvES6_Pi+0x20a>
  4059e1:	90                   	nop
  4059e2:	83 85 54 ff ff ff 01 	addl   $0x1,-0xac(%rbp)
  4059e9:	e9 f0 fe ff ff       	jmpq   4058de <_ZN2cl7ContextC1EmPlPFvPKcPKvmPvES6_Pi+0xfa>
  4059ee:	48 83 bd 58 ff ff ff 	cmpq   $0x0,-0xa8(%rbp)
  4059f5:	00 
  4059f6:	75 2d                	jne    405a25 <_ZN2cl7ContextC1EmPlPFvPKcPKvmPvES6_Pi+0x241>
  4059f8:	be 60 02 41 00       	mov    $0x410260,%esi
  4059fd:	bf ff ff ff ff       	mov    $0xffffffff,%edi
  405a02:	e8 d6 e1 ff ff       	callq  403bdd <_ZN2cl6detailL10errHandlerEiPKc>
  405a07:	48 83 bd 20 ff ff ff 	cmpq   $0x0,-0xe0(%rbp)
  405a0e:	00 
  405a0f:	74 0d                	je     405a1e <_ZN2cl7ContextC1EmPlPFvPKcPKvmPvES6_Pi+0x23a>
  405a11:	48 8b 85 20 ff ff ff 	mov    -0xe0(%rbp),%rax
  405a18:	c7 00 ff ff ff ff    	movl   $0xffffffff,(%rax)
  405a1e:	bb 00 00 00 00       	mov    $0x0,%ebx
  405a23:	eb 1b                	jmp    405a40 <_ZN2cl7ContextC1EmPlPFvPKcPKvmPvES6_Pi+0x25c>
  405a25:	48 8b 85 58 ff ff ff 	mov    -0xa8(%rbp),%rax
  405a2c:	48 89 45 c8          	mov    %rax,-0x38(%rbp)
  405a30:	48 8d 45 c0          	lea    -0x40(%rbp),%rax
  405a34:	48 89 85 38 ff ff ff 	mov    %rax,-0xc8(%rbp)
  405a3b:	bb 01 00 00 00       	mov    $0x1,%ebx
  405a40:	48 8d 85 60 ff ff ff 	lea    -0xa0(%rbp),%rax
  405a47:	48 89 c7             	mov    %rax,%rdi
  405a4a:	e8 5d 24 00 00       	callq  407eac <_ZNSt6vectorIN2cl8PlatformESaIS1_EED1Ev>
  405a4f:	83 fb 01             	cmp    $0x1,%ebx
  405a52:	0f 85 fe 00 00 00    	jne    405b56 <_ZN2cl7ContextC1EmPlPFvPKcPKvmPvES6_Pi+0x372>
  405a58:	90                   	nop
  405a59:	48 8d bd 50 ff ff ff 	lea    -0xb0(%rbp),%rdi
  405a60:	48 8b 8d 28 ff ff ff 	mov    -0xd8(%rbp),%rcx
  405a67:	48 8b 95 30 ff ff ff 	mov    -0xd0(%rbp),%rdx
  405a6e:	48 8b b5 40 ff ff ff 	mov    -0xc0(%rbp),%rsi
  405a75:	48 8b 85 38 ff ff ff 	mov    -0xc8(%rbp),%rax
  405a7c:	49 89 f8             	mov    %rdi,%r8
  405a7f:	48 89 c7             	mov    %rax,%rdi
  405a82:	e8 09 dc ff ff       	callq  403690 <clCreateContextFromType@plt>
  405a87:	48 89 c2             	mov    %rax,%rdx
  405a8a:	48 8b 85 48 ff ff ff 	mov    -0xb8(%rbp),%rax
  405a91:	48 89 10             	mov    %rdx,(%rax)
  405a94:	8b 85 50 ff ff ff    	mov    -0xb0(%rbp),%eax
  405a9a:	be 60 02 41 00       	mov    $0x410260,%esi
  405a9f:	89 c7                	mov    %eax,%edi
  405aa1:	e8 37 e1 ff ff       	callq  403bdd <_ZN2cl6detailL10errHandlerEiPKc>
  405aa6:	48 83 bd 20 ff ff ff 	cmpq   $0x0,-0xe0(%rbp)
  405aad:	00 
  405aae:	0f 84 a2 00 00 00    	je     405b56 <_ZN2cl7ContextC1EmPlPFvPKcPKvmPvES6_Pi+0x372>
  405ab4:	8b 95 50 ff ff ff    	mov    -0xb0(%rbp),%edx
  405aba:	48 8b 85 20 ff ff ff 	mov    -0xe0(%rbp),%rax
  405ac1:	89 10                	mov    %edx,(%rax)
  405ac3:	e9 8e 00 00 00       	jmpq   405b56 <_ZN2cl7ContextC1EmPlPFvPKcPKvmPvES6_Pi+0x372>
  405ac8:	48 89 c3             	mov    %rax,%rbx
  405acb:	48 89 d0             	mov    %rdx,%rax
  405ace:	48 83 f8 01          	cmp    $0x1,%rax
  405ad2:	74 02                	je     405ad6 <_ZN2cl7ContextC1EmPlPFvPKcPKvmPvES6_Pi+0x2f2>
  405ad4:	eb 41                	jmp    405b17 <_ZN2cl7ContextC1EmPlPFvPKcPKvmPvES6_Pi+0x333>
  405ad6:	48 89 d8             	mov    %rbx,%rax
  405ad9:	48 89 c7             	mov    %rax,%rdi
  405adc:	e8 4f dd ff ff       	callq  403830 <__cxa_get_exception_ptr@plt>
  405ae1:	48 89 c2             	mov    %rax,%rdx
  405ae4:	48 8d 45 a0          	lea    -0x60(%rbp),%rax
  405ae8:	48 89 d6             	mov    %rdx,%rsi
  405aeb:	48 89 c7             	mov    %rax,%rdi
  405aee:	e8 e3 ee ff ff       	callq  4049d6 <_ZN2cl5ErrorC1ERKS0_>
  405af3:	48 89 d8             	mov    %rbx,%rax
  405af6:	48 89 c7             	mov    %rax,%rdi
  405af9:	e8 22 db ff ff       	callq  403620 <__cxa_begin_catch@plt>
  405afe:	48 8d 45 a0          	lea    -0x60(%rbp),%rax
  405b02:	48 89 c7             	mov    %rax,%rdi
  405b05:	e8 2a ee ff ff       	callq  404934 <_ZN2cl5ErrorD1Ev>
  405b0a:	e8 61 de ff ff       	callq  403970 <__cxa_end_catch@plt>
  405b0f:	e9 30 fe ff ff       	jmpq   405944 <_ZN2cl7ContextC1EmPlPFvPKcPKvmPvES6_Pi+0x160>
  405b14:	48 89 c3             	mov    %rax,%rbx
  405b17:	48 8d 45 80          	lea    -0x80(%rbp),%rax
  405b1b:	48 89 c7             	mov    %rax,%rdi
  405b1e:	e8 0f 24 00 00       	callq  407f32 <_ZNSt6vectorIN2cl6DeviceESaIS1_EED1Ev>
  405b23:	eb 03                	jmp    405b28 <_ZN2cl7ContextC1EmPlPFvPKcPKvmPvES6_Pi+0x344>
  405b25:	48 89 c3             	mov    %rax,%rbx
  405b28:	48 8d 85 60 ff ff ff 	lea    -0xa0(%rbp),%rax
  405b2f:	48 89 c7             	mov    %rax,%rdi
  405b32:	e8 75 23 00 00       	callq  407eac <_ZNSt6vectorIN2cl8PlatformESaIS1_EED1Ev>
  405b37:	eb 03                	jmp    405b3c <_ZN2cl7ContextC1EmPlPFvPKcPKvmPvES6_Pi+0x358>
  405b39:	48 89 c3             	mov    %rax,%rbx
  405b3c:	48 8b 85 48 ff ff ff 	mov    -0xb8(%rbp),%rax
  405b43:	48 89 c7             	mov    %rax,%rdi
  405b46:	e8 e1 22 00 00       	callq  407e2c <_ZN2cl6detail7WrapperIP11_cl_contextED1Ev>
  405b4b:	48 89 d8             	mov    %rbx,%rax
  405b4e:	48 89 c7             	mov    %rax,%rdi
  405b51:	e8 7a de ff ff       	callq  4039d0 <_Unwind_Resume@plt>
  405b56:	48 8b 45 e8          	mov    -0x18(%rbp),%rax
  405b5a:	64 48 33 04 25 28 00 	xor    %fs:0x28,%rax
  405b61:	00 00 
  405b63:	74 05                	je     405b6a <_ZN2cl7ContextC1EmPlPFvPKcPKvmPvES6_Pi+0x386>
  405b65:	e8 16 dc ff ff       	callq  403780 <__stack_chk_fail@plt>
  405b6a:	48 81 c4 d8 00 00 00 	add    $0xd8,%rsp
  405b71:	5b                   	pop    %rbx
  405b72:	5d                   	pop    %rbp
  405b73:	c3                   	retq   

0000000000405b74 <_ZN2cl7ContextC1ERKS0_>:
  405b74:	55                   	push   %rbp
  405b75:	48 89 e5             	mov    %rsp,%rbp
  405b78:	48 83 ec 10          	sub    $0x10,%rsp
  405b7c:	48 89 7d f8          	mov    %rdi,-0x8(%rbp)
  405b80:	48 89 75 f0          	mov    %rsi,-0x10(%rbp)
  405b84:	48 8b 55 f0          	mov    -0x10(%rbp),%rdx
  405b88:	48 8b 45 f8          	mov    -0x8(%rbp),%rax
  405b8c:	48 89 d6             	mov    %rdx,%rsi
  405b8f:	48 89 c7             	mov    %rax,%rdi
  405b92:	e8 ed 23 00 00       	callq  407f84 <_ZN2cl6detail7WrapperIP11_cl_contextEC1ERKS4_>
  405b97:	90                   	nop
  405b98:	c9                   	leaveq 
  405b99:	c3                   	retq   

0000000000405b9a <_ZN2cl7ContextaSERKS0_>:
  405b9a:	55                   	push   %rbp
  405b9b:	48 89 e5             	mov    %rsp,%rbp
  405b9e:	48 83 ec 10          	sub    $0x10,%rsp
  405ba2:	48 89 7d f8          	mov    %rdi,-0x8(%rbp)
  405ba6:	48 89 75 f0          	mov    %rsi,-0x10(%rbp)
  405baa:	48 8b 55 f0          	mov    -0x10(%rbp),%rdx
  405bae:	48 8b 45 f8          	mov    -0x8(%rbp),%rax
  405bb2:	48 89 d6             	mov    %rdx,%rsi
  405bb5:	48 89 c7             	mov    %rax,%rdi
  405bb8:	e8 01 24 00 00       	callq  407fbe <_ZN2cl6detail7WrapperIP11_cl_contextEaSERKS4_>
  405bbd:	48 8b 45 f8          	mov    -0x8(%rbp),%rax
  405bc1:	c9                   	leaveq 
  405bc2:	c3                   	retq   

0000000000405bc3 <_ZSt4moveIRN2cl7ContextEEONSt16remove_referenceIT_E4typeEOS4_>:
  405bc3:	55                   	push   %rbp
  405bc4:	48 89 e5             	mov    %rsp,%rbp
  405bc7:	48 89 7d f8          	mov    %rdi,-0x8(%rbp)
  405bcb:	48 8b 45 f8          	mov    -0x8(%rbp),%rax
  405bcf:	5d                   	pop    %rbp
  405bd0:	c3                   	retq   
  405bd1:	90                   	nop

0000000000405bd2 <_ZN2cl7ContextaSEOS0_>:
  405bd2:	55                   	push   %rbp
  405bd3:	48 89 e5             	mov    %rsp,%rbp
  405bd6:	48 83 ec 10          	sub    $0x10,%rsp
  405bda:	48 89 7d f8          	mov    %rdi,-0x8(%rbp)
  405bde:	48 89 75 f0          	mov    %rsi,-0x10(%rbp)
  405be2:	48 8b 45 f0          	mov    -0x10(%rbp),%rax
  405be6:	48 89 c7             	mov    %rax,%rdi
  405be9:	e8 d5 ff ff ff       	callq  405bc3 <_ZSt4moveIRN2cl7ContextEEONSt16remove_referenceIT_E4typeEOS4_>
  405bee:	48 89 c2             	mov    %rax,%rdx
  405bf1:	48 8b 45 f8          	mov    -0x8(%rbp),%rax
  405bf5:	48 89 d6             	mov    %rdx,%rsi
  405bf8:	48 89 c7             	mov    %rax,%rdi
  405bfb:	e8 1c 24 00 00       	callq  40801c <_ZN2cl6detail7WrapperIP11_cl_contextEaSEOS4_>
  405c00:	48 8b 45 f8          	mov    -0x8(%rbp),%rax
  405c04:	c9                   	leaveq 
  405c05:	c3                   	retq   

0000000000405c06 <_ZN2cl7Context10getDefaultEPi>:
  405c06:	55                   	push   %rbp
  405c07:	48 89 e5             	mov    %rsp,%rbp
  405c0a:	48 83 ec 10          	sub    $0x10,%rsp
  405c0e:	48 89 7d f8          	mov    %rdi,-0x8(%rbp)
  405c12:	48 89 75 f0          	mov    %rsi,-0x10(%rbp)
  405c16:	be 87 56 40 00       	mov    $0x405687,%esi
  405c1b:	bf 54 85 61 00       	mov    $0x618554,%edi
  405c20:	e8 44 1c 00 00       	callq  407869 <_ZSt9call_onceIRFvvEJEEvRSt9once_flagOT_DpOT0_>
  405c25:	8b 05 35 29 21 00    	mov    0x212935(%rip),%eax        # 618560 <_ZN2cl7Context14default_error_E>
  405c2b:	be 00 00 00 00       	mov    $0x0,%esi
  405c30:	89 c7                	mov    %eax,%edi
  405c32:	e8 a6 df ff ff       	callq  403bdd <_ZN2cl6detailL10errHandlerEiPKc>
  405c37:	48 83 7d f0 00       	cmpq   $0x0,-0x10(%rbp)
  405c3c:	74 0c                	je     405c4a <_ZN2cl7Context10getDefaultEPi+0x44>
  405c3e:	8b 15 1c 29 21 00    	mov    0x21291c(%rip),%edx        # 618560 <_ZN2cl7Context14default_error_E>
  405c44:	48 8b 45 f0          	mov    -0x10(%rbp),%rax
  405c48:	89 10                	mov    %edx,(%rax)
  405c4a:	48 8b 45 f8          	mov    -0x8(%rbp),%rax
  405c4e:	be 58 85 61 00       	mov    $0x618558,%esi
  405c53:	48 89 c7             	mov    %rax,%rdi
  405c56:	e8 19 ff ff ff       	callq  405b74 <_ZN2cl7ContextC1ERKS0_>
  405c5b:	48 8b 45 f8          	mov    -0x8(%rbp),%rax
  405c5f:	c9                   	leaveq 
  405c60:	c3                   	retq   

0000000000405c61 <_ZN2cl7Context10setDefaultERKS0_>:
  405c61:	55                   	push   %rbp
  405c62:	48 89 e5             	mov    %rsp,%rbp
  405c65:	48 83 ec 20          	sub    $0x20,%rsp
  405c69:	48 89 7d e8          	mov    %rdi,-0x18(%rbp)
  405c6d:	48 89 75 e0          	mov    %rsi,-0x20(%rbp)
  405c71:	64 48 8b 04 25 28 00 	mov    %fs:0x28,%rax
  405c78:	00 00 
  405c7a:	48 89 45 f8          	mov    %rax,-0x8(%rbp)
  405c7e:	31 c0                	xor    %eax,%eax
  405c80:	48 8b 45 e0          	mov    -0x20(%rbp),%rax
  405c84:	48 89 c7             	mov    %rax,%rdi
  405c87:	e8 e1 23 00 00       	callq  40806d <_ZSt4crefIN2cl7ContextEESt17reference_wrapperIKT_ERS4_>
  405c8c:	48 89 45 f0          	mov    %rax,-0x10(%rbp)
  405c90:	48 8d 45 f0          	lea    -0x10(%rbp),%rax
  405c94:	48 89 c2             	mov    %rax,%rdx
  405c97:	be c3 57 40 00       	mov    $0x4057c3,%esi
  405c9c:	bf 54 85 61 00       	mov    $0x618554,%edi
  405ca1:	e8 af 24 00 00       	callq  408155 <_ZSt9call_onceIRFvRKN2cl7ContextEEJSt17reference_wrapperIS2_EEEvRSt9once_flagOT_DpOT0_>
  405ca6:	8b 05 b4 28 21 00    	mov    0x2128b4(%rip),%eax        # 618560 <_ZN2cl7Context14default_error_E>
  405cac:	be 00 00 00 00       	mov    $0x0,%esi
  405cb1:	89 c7                	mov    %eax,%edi
  405cb3:	e8 25 df ff ff       	callq  403bdd <_ZN2cl6detailL10errHandlerEiPKc>
  405cb8:	48 8b 45 e8          	mov    -0x18(%rbp),%rax
  405cbc:	be 58 85 61 00       	mov    $0x618558,%esi
  405cc1:	48 89 c7             	mov    %rax,%rdi
  405cc4:	e8 ab fe ff ff       	callq  405b74 <_ZN2cl7ContextC1ERKS0_>
  405cc9:	48 8b 45 e8          	mov    -0x18(%rbp),%rax
  405ccd:	48 8b 4d f8          	mov    -0x8(%rbp),%rcx
  405cd1:	64 48 33 0c 25 28 00 	xor    %fs:0x28,%rcx
  405cd8:	00 00 
  405cda:	74 05                	je     405ce1 <_ZN2cl7Context10setDefaultERKS0_+0x80>
  405cdc:	e8 9f da ff ff       	callq  403780 <__stack_chk_fail@plt>
  405ce1:	c9                   	leaveq 
  405ce2:	c3                   	retq   
  405ce3:	90                   	nop

0000000000405ce4 <_ZN2cl7ContextC1Ev>:
  405ce4:	55                   	push   %rbp
  405ce5:	48 89 e5             	mov    %rsp,%rbp
  405ce8:	48 83 ec 10          	sub    $0x10,%rsp
  405cec:	48 89 7d f8          	mov    %rdi,-0x8(%rbp)
  405cf0:	48 8b 45 f8          	mov    -0x8(%rbp),%rax
  405cf4:	48 89 c7             	mov    %rax,%rdi
  405cf7:	e8 58 21 00 00       	callq  407e54 <_ZN2cl6detail7WrapperIP11_cl_contextEC1Ev>
  405cfc:	90                   	nop
  405cfd:	c9                   	leaveq 
  405cfe:	c3                   	retq   
  405cff:	90                   	nop

0000000000405d00 <_ZN2cl6Device11makeDefaultEv>:
  405d00:	55                   	push   %rbp
  405d01:	48 89 e5             	mov    %rsp,%rbp
  405d04:	41 54                	push   %r12
  405d06:	53                   	push   %rbx
  405d07:	48 83 ec 40          	sub    $0x40,%rsp
  405d0b:	64 48 8b 04 25 28 00 	mov    %fs:0x28,%rax
  405d12:	00 00 
  405d14:	48 89 45 e8          	mov    %rax,-0x18(%rbp)
  405d18:	31 c0                	xor    %eax,%eax
  405d1a:	c7 45 bc 00 00 00 00 	movl   $0x0,-0x44(%rbp)
  405d21:	48 8d 45 c0          	lea    -0x40(%rbp),%rax
  405d25:	48 8d 55 bc          	lea    -0x44(%rbp),%rdx
  405d29:	48 89 d6             	mov    %rdx,%rsi
  405d2c:	48 89 c7             	mov    %rax,%rdi
  405d2f:	e8 d2 fe ff ff       	callq  405c06 <_ZN2cl7Context10getDefaultEPi>
  405d34:	8b 45 bc             	mov    -0x44(%rbp),%eax
  405d37:	be 78 02 41 00       	mov    $0x410278,%esi
  405d3c:	89 c7                	mov    %eax,%edi
  405d3e:	e8 9a de ff ff       	callq  403bdd <_ZN2cl6detailL10errHandlerEiPKc>
  405d43:	8b 45 bc             	mov    -0x44(%rbp),%eax
  405d46:	85 c0                	test   %eax,%eax
  405d48:	74 0b                	je     405d55 <_ZN2cl6Device11makeDefaultEv+0x55>
  405d4a:	8b 45 bc             	mov    -0x44(%rbp),%eax
  405d4d:	89 05 ed 27 21 00    	mov    %eax,0x2127ed(%rip)        # 618540 <_ZN2cl6Device14default_error_E>
  405d53:	eb 4c                	jmp    405da1 <_ZN2cl6Device11makeDefaultEv+0xa1>
  405d55:	48 8d 45 d0          	lea    -0x30(%rbp),%rax
  405d59:	48 8d 4d c0          	lea    -0x40(%rbp),%rcx
  405d5d:	ba 00 00 00 00       	mov    $0x0,%edx
  405d62:	48 89 ce             	mov    %rcx,%rsi
  405d65:	48 89 c7             	mov    %rax,%rdi
  405d68:	e8 8b 24 00 00       	callq  4081f8 <_ZNK2cl7Context7getInfoILi4225EEENS_6detail12param_traitsINS2_15cl_context_infoEXT_EE10param_typeEPi>
  405d6d:	48 8d 45 d0          	lea    -0x30(%rbp),%rax
  405d71:	be 00 00 00 00       	mov    $0x0,%esi
  405d76:	48 89 c7             	mov    %rax,%rdi
  405d79:	e8 66 1f 00 00       	callq  407ce4 <_ZNSt6vectorIN2cl6DeviceESaIS1_EEixEm>
  405d7e:	48 89 c6             	mov    %rax,%rsi
  405d81:	bf 30 85 61 00       	mov    $0x618530,%edi
  405d86:	e8 c5 f0 ff ff       	callq  404e50 <_ZN2cl6DeviceaSERKS0_>
  405d8b:	48 8d 45 d0          	lea    -0x30(%rbp),%rax
  405d8f:	48 89 c7             	mov    %rax,%rdi
  405d92:	e8 9b 21 00 00       	callq  407f32 <_ZNSt6vectorIN2cl6DeviceESaIS1_EED1Ev>
  405d97:	c7 05 9f 27 21 00 00 	movl   $0x0,0x21279f(%rip)        # 618540 <_ZN2cl6Device14default_error_E>
  405d9e:	00 00 00 
  405da1:	48 8d 45 c0          	lea    -0x40(%rbp),%rax
  405da5:	48 89 c7             	mov    %rax,%rdi
  405da8:	e8 bf f8 ff ff       	callq  40566c <_ZN2cl7ContextD1Ev>
  405dad:	eb 5f                	jmp    405e0e <_ZN2cl6Device11makeDefaultEv+0x10e>
  405daf:	49 89 c4             	mov    %rax,%r12
  405db2:	48 89 d3             	mov    %rdx,%rbx
  405db5:	48 8d 45 d0          	lea    -0x30(%rbp),%rax
  405db9:	48 89 c7             	mov    %rax,%rdi
  405dbc:	e8 71 21 00 00       	callq  407f32 <_ZNSt6vectorIN2cl6DeviceESaIS1_EED1Ev>
  405dc1:	eb 06                	jmp    405dc9 <_ZN2cl6Device11makeDefaultEv+0xc9>
  405dc3:	49 89 c4             	mov    %rax,%r12
  405dc6:	48 89 d3             	mov    %rdx,%rbx
  405dc9:	48 8d 45 c0          	lea    -0x40(%rbp),%rax
  405dcd:	48 89 c7             	mov    %rax,%rdi
  405dd0:	e8 97 f8 ff ff       	callq  40566c <_ZN2cl7ContextD1Ev>
  405dd5:	4c 89 e0             	mov    %r12,%rax
  405dd8:	48 89 da             	mov    %rbx,%rdx
  405ddb:	eb 00                	jmp    405ddd <_ZN2cl6Device11makeDefaultEv+0xdd>
  405ddd:	48 83 fa 01          	cmp    $0x1,%rdx
  405de1:	74 08                	je     405deb <_ZN2cl6Device11makeDefaultEv+0xeb>
  405de3:	48 89 c7             	mov    %rax,%rdi
  405de6:	e8 e5 db ff ff       	callq  4039d0 <_Unwind_Resume@plt>
  405deb:	48 89 c7             	mov    %rax,%rdi
  405dee:	e8 2d d8 ff ff       	callq  403620 <__cxa_begin_catch@plt>
  405df3:	48 89 45 c8          	mov    %rax,-0x38(%rbp)
  405df7:	48 8b 45 c8          	mov    -0x38(%rbp),%rax
  405dfb:	48 89 c7             	mov    %rax,%rdi
  405dfe:	e8 a5 eb ff ff       	callq  4049a8 <_ZNK2cl5Error3errEv>
  405e03:	89 05 37 27 21 00    	mov    %eax,0x212737(%rip)        # 618540 <_ZN2cl6Device14default_error_E>
  405e09:	e8 62 db ff ff       	callq  403970 <__cxa_end_catch@plt>
  405e0e:	90                   	nop
  405e0f:	48 8b 45 e8          	mov    -0x18(%rbp),%rax
  405e13:	64 48 33 04 25 28 00 	xor    %fs:0x28,%rax
  405e1a:	00 00 
  405e1c:	74 05                	je     405e23 <_ZN2cl6Device11makeDefaultEv+0x123>
  405e1e:	e8 5d d9 ff ff       	callq  403780 <__stack_chk_fail@plt>
  405e23:	48 83 c4 40          	add    $0x40,%rsp
  405e27:	5b                   	pop    %rbx
  405e28:	41 5c                	pop    %r12
  405e2a:	5d                   	pop    %rbp
  405e2b:	c3                   	retq   

0000000000405e2c <_ZN2cl7NDRangeC1Ev>:
  405e2c:	55                   	push   %rbp
  405e2d:	48 89 e5             	mov    %rsp,%rbp
  405e30:	48 89 7d f8          	mov    %rdi,-0x8(%rbp)
  405e34:	48 8b 45 f8          	mov    -0x8(%rbp),%rax
  405e38:	c7 40 18 00 00 00 00 	movl   $0x0,0x18(%rax)
  405e3f:	48 8b 45 f8          	mov    -0x8(%rbp),%rax
  405e43:	48 c7 00 00 00 00 00 	movq   $0x0,(%rax)
  405e4a:	48 8b 45 f8          	mov    -0x8(%rbp),%rax
  405e4e:	48 c7 40 08 00 00 00 	movq   $0x0,0x8(%rax)
  405e55:	00 
  405e56:	48 8b 45 f8          	mov    -0x8(%rbp),%rax
  405e5a:	48 c7 40 10 00 00 00 	movq   $0x0,0x10(%rax)
  405e61:	00 
  405e62:	90                   	nop
  405e63:	5d                   	pop    %rbp
  405e64:	c3                   	retq   
  405e65:	90                   	nop

0000000000405e66 <_ZN2cl7NDRangeC1Emm>:
  405e66:	55                   	push   %rbp
  405e67:	48 89 e5             	mov    %rsp,%rbp
  405e6a:	48 89 7d f8          	mov    %rdi,-0x8(%rbp)
  405e6e:	48 89 75 f0          	mov    %rsi,-0x10(%rbp)
  405e72:	48 89 55 e8          	mov    %rdx,-0x18(%rbp)
  405e76:	48 8b 45 f8          	mov    -0x8(%rbp),%rax
  405e7a:	c7 40 18 02 00 00 00 	movl   $0x2,0x18(%rax)
  405e81:	48 8b 45 f8          	mov    -0x8(%rbp),%rax
  405e85:	48 8b 55 f0          	mov    -0x10(%rbp),%rdx
  405e89:	48 89 10             	mov    %rdx,(%rax)
  405e8c:	48 8b 45 f8          	mov    -0x8(%rbp),%rax
  405e90:	48 8b 55 e8          	mov    -0x18(%rbp),%rdx
  405e94:	48 89 50 08          	mov    %rdx,0x8(%rax)
  405e98:	48 8b 45 f8          	mov    -0x8(%rbp),%rax
  405e9c:	48 c7 40 10 01 00 00 	movq   $0x1,0x10(%rax)
  405ea3:	00 
  405ea4:	90                   	nop
  405ea5:	5d                   	pop    %rbp
  405ea6:	c3                   	retq   
  405ea7:	90                   	nop

0000000000405ea8 <_ZN2cl12CommandQueueD1Ev>:
  405ea8:	55                   	push   %rbp
  405ea9:	48 89 e5             	mov    %rsp,%rbp
  405eac:	48 83 ec 10          	sub    $0x10,%rsp
  405eb0:	48 89 7d f8          	mov    %rdi,-0x8(%rbp)
  405eb4:	48 8b 45 f8          	mov    -0x8(%rbp),%rax
  405eb8:	48 89 c7             	mov    %rax,%rdi
  405ebb:	e8 da 23 00 00       	callq  40829a <_ZN2cl6detail7WrapperIP17_cl_command_queueED1Ev>
  405ec0:	90                   	nop
  405ec1:	c9                   	leaveq 
  405ec2:	c3                   	retq   

0000000000405ec3 <_ZN2cl12CommandQueue11makeDefaultEv>:
  405ec3:	55                   	push   %rbp
  405ec4:	48 89 e5             	mov    %rsp,%rbp
  405ec7:	41 54                	push   %r12
  405ec9:	53                   	push   %rbx
  405eca:	48 83 ec 40          	sub    $0x40,%rsp
  405ece:	64 48 8b 04 25 28 00 	mov    %fs:0x28,%rax
  405ed5:	00 00 
  405ed7:	48 89 45 e8          	mov    %rax,-0x18(%rbp)
  405edb:	31 c0                	xor    %eax,%eax
  405edd:	48 8d 45 b8          	lea    -0x48(%rbp),%rax
  405ee1:	48 8d 55 b4          	lea    -0x4c(%rbp),%rdx
  405ee5:	48 89 d6             	mov    %rdx,%rsi
  405ee8:	48 89 c7             	mov    %rax,%rdi
  405eeb:	e8 16 fd ff ff       	callq  405c06 <_ZN2cl7Context10getDefaultEPi>
  405ef0:	8b 45 b4             	mov    -0x4c(%rbp),%eax
  405ef3:	85 c0                	test   %eax,%eax
  405ef5:	74 0b                	je     405f02 <_ZN2cl12CommandQueue11makeDefaultEv+0x3f>
  405ef7:	8b 45 b4             	mov    -0x4c(%rbp),%eax
  405efa:	89 05 70 26 21 00    	mov    %eax,0x212670(%rip)        # 618570 <_ZN2cl12CommandQueue14default_error_E>
  405f00:	eb 59                	jmp    405f5b <_ZN2cl12CommandQueue11makeDefaultEv+0x98>
  405f02:	48 8d 45 d0          	lea    -0x30(%rbp),%rax
  405f06:	be 00 00 00 00       	mov    $0x0,%esi
  405f0b:	48 89 c7             	mov    %rax,%rdi
  405f0e:	e8 bc ee ff ff       	callq  404dcf <_ZN2cl6Device10getDefaultEPi>
  405f13:	48 8d 55 d0          	lea    -0x30(%rbp),%rdx
  405f17:	48 8d 75 b8          	lea    -0x48(%rbp),%rsi
  405f1b:	48 8d 45 c0          	lea    -0x40(%rbp),%rax
  405f1f:	41 b8 70 85 61 00    	mov    $0x618570,%r8d
  405f25:	b9 00 00 00 00       	mov    $0x0,%ecx
  405f2a:	48 89 c7             	mov    %rax,%rdi
  405f2d:	e8 c8 00 00 00       	callq  405ffa <_ZN2cl12CommandQueueC1ERKNS_7ContextERKNS_6DeviceEmPi>
  405f32:	48 8d 45 c0          	lea    -0x40(%rbp),%rax
  405f36:	48 89 c6             	mov    %rax,%rsi
  405f39:	bf 68 85 61 00       	mov    $0x618568,%edi
  405f3e:	e8 2d 02 00 00       	callq  406170 <_ZN2cl12CommandQueueaSEOS0_>
  405f43:	48 8d 45 c0          	lea    -0x40(%rbp),%rax
  405f47:	48 89 c7             	mov    %rax,%rdi
  405f4a:	e8 59 ff ff ff       	callq  405ea8 <_ZN2cl12CommandQueueD1Ev>
  405f4f:	48 8d 45 d0          	lea    -0x30(%rbp),%rax
  405f53:	48 89 c7             	mov    %rax,%rdi
  405f56:	e8 59 ee ff ff       	callq  404db4 <_ZN2cl6DeviceD1Ev>
  405f5b:	48 8d 45 b8          	lea    -0x48(%rbp),%rax
  405f5f:	48 89 c7             	mov    %rax,%rdi
  405f62:	e8 05 f7 ff ff       	callq  40566c <_ZN2cl7ContextD1Ev>
  405f67:	eb 73                	jmp    405fdc <_ZN2cl12CommandQueue11makeDefaultEv+0x119>
  405f69:	49 89 c4             	mov    %rax,%r12
  405f6c:	48 89 d3             	mov    %rdx,%rbx
  405f6f:	48 8d 45 c0          	lea    -0x40(%rbp),%rax
  405f73:	48 89 c7             	mov    %rax,%rdi
  405f76:	e8 2d ff ff ff       	callq  405ea8 <_ZN2cl12CommandQueueD1Ev>
  405f7b:	eb 06                	jmp    405f83 <_ZN2cl12CommandQueue11makeDefaultEv+0xc0>
  405f7d:	49 89 c4             	mov    %rax,%r12
  405f80:	48 89 d3             	mov    %rdx,%rbx
  405f83:	48 8d 45 d0          	lea    -0x30(%rbp),%rax
  405f87:	48 89 c7             	mov    %rax,%rdi
  405f8a:	e8 25 ee ff ff       	callq  404db4 <_ZN2cl6DeviceD1Ev>
  405f8f:	eb 06                	jmp    405f97 <_ZN2cl12CommandQueue11makeDefaultEv+0xd4>
  405f91:	49 89 c4             	mov    %rax,%r12
  405f94:	48 89 d3             	mov    %rdx,%rbx
  405f97:	48 8d 45 b8          	lea    -0x48(%rbp),%rax
  405f9b:	48 89 c7             	mov    %rax,%rdi
  405f9e:	e8 c9 f6 ff ff       	callq  40566c <_ZN2cl7ContextD1Ev>
  405fa3:	4c 89 e0             	mov    %r12,%rax
  405fa6:	48 89 da             	mov    %rbx,%rdx
  405fa9:	eb 00                	jmp    405fab <_ZN2cl12CommandQueue11makeDefaultEv+0xe8>
  405fab:	48 83 fa 01          	cmp    $0x1,%rdx
  405faf:	74 08                	je     405fb9 <_ZN2cl12CommandQueue11makeDefaultEv+0xf6>
  405fb1:	48 89 c7             	mov    %rax,%rdi
  405fb4:	e8 17 da ff ff       	callq  4039d0 <_Unwind_Resume@plt>
  405fb9:	48 89 c7             	mov    %rax,%rdi
  405fbc:	e8 5f d6 ff ff       	callq  403620 <__cxa_begin_catch@plt>
  405fc1:	48 89 45 c8          	mov    %rax,-0x38(%rbp)
  405fc5:	48 8b 45 c8          	mov    -0x38(%rbp),%rax
  405fc9:	48 89 c7             	mov    %rax,%rdi
  405fcc:	e8 d7 e9 ff ff       	callq  4049a8 <_ZNK2cl5Error3errEv>
  405fd1:	89 05 99 25 21 00    	mov    %eax,0x212599(%rip)        # 618570 <_ZN2cl12CommandQueue14default_error_E>
  405fd7:	e8 94 d9 ff ff       	callq  403970 <__cxa_end_catch@plt>
  405fdc:	90                   	nop
  405fdd:	48 8b 45 e8          	mov    -0x18(%rbp),%rax
  405fe1:	64 48 33 04 25 28 00 	xor    %fs:0x28,%rax
  405fe8:	00 00 
  405fea:	74 05                	je     405ff1 <_ZN2cl12CommandQueue11makeDefaultEv+0x12e>
  405fec:	e8 8f d7 ff ff       	callq  403780 <__stack_chk_fail@plt>
  405ff1:	48 83 c4 40          	add    $0x40,%rsp
  405ff5:	5b                   	pop    %rbx
  405ff6:	41 5c                	pop    %r12
  405ff8:	5d                   	pop    %rbp
  405ff9:	c3                   	retq   

0000000000405ffa <_ZN2cl12CommandQueueC1ERKNS_7ContextERKNS_6DeviceEmPi>:
  405ffa:	55                   	push   %rbp
  405ffb:	48 89 e5             	mov    %rsp,%rbp
  405ffe:	53                   	push   %rbx
  405fff:	48 83 ec 48          	sub    $0x48,%rsp
  406003:	48 89 7d d8          	mov    %rdi,-0x28(%rbp)
  406007:	48 89 75 d0          	mov    %rsi,-0x30(%rbp)
  40600b:	48 89 55 c8          	mov    %rdx,-0x38(%rbp)
  40600f:	48 89 4d c0          	mov    %rcx,-0x40(%rbp)
  406013:	4c 89 45 b8          	mov    %r8,-0x48(%rbp)
  406017:	64 48 8b 04 25 28 00 	mov    %fs:0x28,%rax
  40601e:	00 00 
  406020:	48 89 45 e8          	mov    %rax,-0x18(%rbp)
  406024:	31 c0                	xor    %eax,%eax
  406026:	48 8b 45 d8          	mov    -0x28(%rbp),%rax
  40602a:	48 89 c7             	mov    %rax,%rdi
  40602d:	e8 90 22 00 00       	callq  4082c2 <_ZN2cl6detail7WrapperIP17_cl_command_queueEC1Ev>
  406032:	48 8b 45 c8          	mov    -0x38(%rbp),%rax
  406036:	48 89 c7             	mov    %rax,%rdi
  406039:	e8 a4 ec ff ff       	callq  404ce2 <_ZNK2cl6detail7WrapperIP13_cl_device_idEclEv>
  40603e:	48 8b 18             	mov    (%rax),%rbx
  406041:	48 8b 45 d0          	mov    -0x30(%rbp),%rax
  406045:	48 89 c7             	mov    %rax,%rdi
  406048:	e8 3f 22 00 00       	callq  40828c <_ZNK2cl6detail7WrapperIP11_cl_contextEclEv>
  40604d:	48 8b 00             	mov    (%rax),%rax
  406050:	48 8d 4d e4          	lea    -0x1c(%rbp),%rcx
  406054:	48 8b 55 c0          	mov    -0x40(%rbp),%rdx
  406058:	48 89 de             	mov    %rbx,%rsi
  40605b:	48 89 c7             	mov    %rax,%rdi
  40605e:	e8 ed d8 ff ff       	callq  403950 <clCreateCommandQueue@plt>
  406063:	48 89 c2             	mov    %rax,%rdx
  406066:	48 8b 45 d8          	mov    -0x28(%rbp),%rax
  40606a:	48 89 10             	mov    %rdx,(%rax)
  40606d:	8b 45 e4             	mov    -0x1c(%rbp),%eax
  406070:	be 88 02 41 00       	mov    $0x410288,%esi
  406075:	89 c7                	mov    %eax,%edi
  406077:	e8 61 db ff ff       	callq  403bdd <_ZN2cl6detailL10errHandlerEiPKc>
  40607c:	48 83 7d b8 00       	cmpq   $0x0,-0x48(%rbp)
  406081:	74 25                	je     4060a8 <_ZN2cl12CommandQueueC1ERKNS_7ContextERKNS_6DeviceEmPi+0xae>
  406083:	8b 55 e4             	mov    -0x1c(%rbp),%edx
  406086:	48 8b 45 b8          	mov    -0x48(%rbp),%rax
  40608a:	89 10                	mov    %edx,(%rax)
  40608c:	eb 1a                	jmp    4060a8 <_ZN2cl12CommandQueueC1ERKNS_7ContextERKNS_6DeviceEmPi+0xae>
  40608e:	48 89 c3             	mov    %rax,%rbx
  406091:	48 8b 45 d8          	mov    -0x28(%rbp),%rax
  406095:	48 89 c7             	mov    %rax,%rdi
  406098:	e8 fd 21 00 00       	callq  40829a <_ZN2cl6detail7WrapperIP17_cl_command_queueED1Ev>
  40609d:	48 89 d8             	mov    %rbx,%rax
  4060a0:	48 89 c7             	mov    %rax,%rdi
  4060a3:	e8 28 d9 ff ff       	callq  4039d0 <_Unwind_Resume@plt>
  4060a8:	90                   	nop
  4060a9:	48 8b 45 e8          	mov    -0x18(%rbp),%rax
  4060ad:	64 48 33 04 25 28 00 	xor    %fs:0x28,%rax
  4060b4:	00 00 
  4060b6:	74 05                	je     4060bd <_ZN2cl12CommandQueueC1ERKNS_7ContextERKNS_6DeviceEmPi+0xc3>
  4060b8:	e8 c3 d6 ff ff       	callq  403780 <__stack_chk_fail@plt>
  4060bd:	48 83 c4 48          	add    $0x48,%rsp
  4060c1:	5b                   	pop    %rbx
  4060c2:	5d                   	pop    %rbp
  4060c3:	c3                   	retq   

00000000004060c4 <_ZN2cl12CommandQueue10getDefaultEPi>:
  4060c4:	55                   	push   %rbp
  4060c5:	48 89 e5             	mov    %rsp,%rbp
  4060c8:	48 83 ec 10          	sub    $0x10,%rsp
  4060cc:	48 89 7d f8          	mov    %rdi,-0x8(%rbp)
  4060d0:	48 89 75 f0          	mov    %rsi,-0x10(%rbp)
  4060d4:	be c3 5e 40 00       	mov    $0x405ec3,%esi
  4060d9:	bf 64 85 61 00       	mov    $0x618564,%edi
  4060de:	e8 86 17 00 00       	callq  407869 <_ZSt9call_onceIRFvvEJEEvRSt9once_flagOT_DpOT0_>
  4060e3:	8b 05 87 24 21 00    	mov    0x212487(%rip),%eax        # 618570 <_ZN2cl12CommandQueue14default_error_E>
  4060e9:	be 88 02 41 00       	mov    $0x410288,%esi
  4060ee:	89 c7                	mov    %eax,%edi
  4060f0:	e8 e8 da ff ff       	callq  403bdd <_ZN2cl6detailL10errHandlerEiPKc>
  4060f5:	48 83 7d f0 00       	cmpq   $0x0,-0x10(%rbp)
  4060fa:	74 0c                	je     406108 <_ZN2cl12CommandQueue10getDefaultEPi+0x44>
  4060fc:	8b 15 6e 24 21 00    	mov    0x21246e(%rip),%edx        # 618570 <_ZN2cl12CommandQueue14default_error_E>
  406102:	48 8b 45 f0          	mov    -0x10(%rbp),%rax
  406106:	89 10                	mov    %edx,(%rax)
  406108:	48 8b 45 f8          	mov    -0x8(%rbp),%rax
  40610c:	be 68 85 61 00       	mov    $0x618568,%esi
  406111:	48 89 c7             	mov    %rax,%rdi
  406114:	e8 23 00 00 00       	callq  40613c <_ZN2cl12CommandQueueC1ERKS0_>
  406119:	48 8b 45 f8          	mov    -0x8(%rbp),%rax
  40611d:	c9                   	leaveq 
  40611e:	c3                   	retq   
  40611f:	90                   	nop

0000000000406120 <_ZN2cl12CommandQueueC1Ev>:
  406120:	55                   	push   %rbp
  406121:	48 89 e5             	mov    %rsp,%rbp
  406124:	48 83 ec 10          	sub    $0x10,%rsp
  406128:	48 89 7d f8          	mov    %rdi,-0x8(%rbp)
  40612c:	48 8b 45 f8          	mov    -0x8(%rbp),%rax
  406130:	48 89 c7             	mov    %rax,%rdi
  406133:	e8 8a 21 00 00       	callq  4082c2 <_ZN2cl6detail7WrapperIP17_cl_command_queueEC1Ev>
  406138:	90                   	nop
  406139:	c9                   	leaveq 
  40613a:	c3                   	retq   
  40613b:	90                   	nop

000000000040613c <_ZN2cl12CommandQueueC1ERKS0_>:
  40613c:	55                   	push   %rbp
  40613d:	48 89 e5             	mov    %rsp,%rbp
  406140:	48 83 ec 10          	sub    $0x10,%rsp
  406144:	48 89 7d f8          	mov    %rdi,-0x8(%rbp)
  406148:	48 89 75 f0          	mov    %rsi,-0x10(%rbp)
  40614c:	48 8b 55 f0          	mov    -0x10(%rbp),%rdx
  406150:	48 8b 45 f8          	mov    -0x8(%rbp),%rax
  406154:	48 89 d6             	mov    %rdx,%rsi
  406157:	48 89 c7             	mov    %rax,%rdi
  40615a:	e8 b3 21 00 00       	callq  408312 <_ZN2cl6detail7WrapperIP17_cl_command_queueEC1ERKS4_>
  40615f:	90                   	nop
  406160:	c9                   	leaveq 
  406161:	c3                   	retq   

0000000000406162 <_ZSt4moveIRN2cl12CommandQueueEEONSt16remove_referenceIT_E4typeEOS4_>:
  406162:	55                   	push   %rbp
  406163:	48 89 e5             	mov    %rsp,%rbp
  406166:	48 89 7d f8          	mov    %rdi,-0x8(%rbp)
  40616a:	48 8b 45 f8          	mov    -0x8(%rbp),%rax
  40616e:	5d                   	pop    %rbp
  40616f:	c3                   	retq   

0000000000406170 <_ZN2cl12CommandQueueaSEOS0_>:
  406170:	55                   	push   %rbp
  406171:	48 89 e5             	mov    %rsp,%rbp
  406174:	48 83 ec 10          	sub    $0x10,%rsp
  406178:	48 89 7d f8          	mov    %rdi,-0x8(%rbp)
  40617c:	48 89 75 f0          	mov    %rsi,-0x10(%rbp)
  406180:	48 8b 45 f0          	mov    -0x10(%rbp),%rax
  406184:	48 89 c7             	mov    %rax,%rdi
  406187:	e8 d6 ff ff ff       	callq  406162 <_ZSt4moveIRN2cl12CommandQueueEEONSt16remove_referenceIT_E4typeEOS4_>
  40618c:	48 89 c2             	mov    %rax,%rdx
  40618f:	48 8b 45 f8          	mov    -0x8(%rbp),%rax
  406193:	48 89 d6             	mov    %rdx,%rsi
  406196:	48 89 c7             	mov    %rax,%rdi
  406199:	e8 ae 21 00 00       	callq  40834c <_ZN2cl6detail7WrapperIP17_cl_command_queueEaSEOS4_>
  40619e:	48 8b 45 f8          	mov    -0x8(%rbp),%rax
  4061a2:	c9                   	leaveq 
  4061a3:	c3                   	retq   

00000000004061a4 <_ZNK2cl12CommandQueue6finishEv>:
  4061a4:	55                   	push   %rbp
  4061a5:	48 89 e5             	mov    %rsp,%rbp
  4061a8:	48 83 ec 10          	sub    $0x10,%rsp
  4061ac:	48 89 7d f8          	mov    %rdi,-0x8(%rbp)
  4061b0:	48 8b 45 f8          	mov    -0x8(%rbp),%rax
  4061b4:	48 8b 00             	mov    (%rax),%rax
  4061b7:	48 89 c7             	mov    %rax,%rdi
  4061ba:	e8 d1 d3 ff ff       	callq  403590 <clFinish@plt>
  4061bf:	be 9d 02 41 00       	mov    $0x41029d,%esi
  4061c4:	89 c7                	mov    %eax,%edi
  4061c6:	e8 12 da ff ff       	callq  403bdd <_ZN2cl6detailL10errHandlerEiPKc>
  4061cb:	c9                   	leaveq 
  4061cc:	c3                   	retq   

00000000004061cd <_ZSt4moveIRNSt7__cxx1112basic_stringIcSt11char_traitsIcESaIcEEEEONSt16remove_referenceIT_E4typeEOS8_>:
  4061cd:	55                   	push   %rbp
  4061ce:	48 89 e5             	mov    %rsp,%rbp
  4061d1:	48 89 7d f8          	mov    %rdi,-0x8(%rbp)
  4061d5:	48 8b 45 f8          	mov    -0x8(%rbp),%rax
  4061d9:	5d                   	pop    %rbp
  4061da:	c3                   	retq   
  4061db:	90                   	nop

00000000004061dc <_ZN11arm_compute15CLKernelLibrary4initENSt7__cxx1112basic_stringIcSt11char_traitsIcESaIcEEEN2cl7ContextENS7_6DeviceE>:
  4061dc:	55                   	push   %rbp
  4061dd:	48 89 e5             	mov    %rsp,%rbp
  4061e0:	48 83 ec 20          	sub    $0x20,%rsp
  4061e4:	48 89 7d f8          	mov    %rdi,-0x8(%rbp)
  4061e8:	48 89 75 f0          	mov    %rsi,-0x10(%rbp)
  4061ec:	48 89 55 e8          	mov    %rdx,-0x18(%rbp)
  4061f0:	48 89 4d e0          	mov    %rcx,-0x20(%rbp)
  4061f4:	48 8b 45 f0          	mov    -0x10(%rbp),%rax
  4061f8:	48 89 c7             	mov    %rax,%rdi
  4061fb:	e8 cd ff ff ff       	callq  4061cd <_ZSt4moveIRNSt7__cxx1112basic_stringIcSt11char_traitsIcESaIcEEEEONSt16remove_referenceIT_E4typeEOS8_>
  406200:	48 89 c2             	mov    %rax,%rdx
  406203:	48 8b 45 f8          	mov    -0x8(%rbp),%rax
  406207:	48 83 c0 18          	add    $0x18,%rax
  40620b:	48 89 d6             	mov    %rdx,%rsi
  40620e:	48 89 c7             	mov    %rax,%rdi
  406211:	e8 ea d5 ff ff       	callq  403800 <_ZNSt7__cxx1112basic_stringIcSt11char_traitsIcESaIcEEaSEOS4_@plt>
  406216:	48 8b 45 e8          	mov    -0x18(%rbp),%rax
  40621a:	48 89 c7             	mov    %rax,%rdi
  40621d:	e8 a1 f9 ff ff       	callq  405bc3 <_ZSt4moveIRN2cl7ContextEEONSt16remove_referenceIT_E4typeEOS4_>
  406222:	48 89 c2             	mov    %rax,%rdx
  406225:	48 8b 45 f8          	mov    -0x8(%rbp),%rax
  406229:	48 89 d6             	mov    %rdx,%rsi
  40622c:	48 89 c7             	mov    %rax,%rdi
  40622f:	e8 9e f9 ff ff       	callq  405bd2 <_ZN2cl7ContextaSEOS0_>
  406234:	48 8b 45 e0          	mov    -0x20(%rbp),%rax
  406238:	48 89 c7             	mov    %rax,%rdi
  40623b:	e8 39 ec ff ff       	callq  404e79 <_ZSt4moveIRN2cl6DeviceEEONSt16remove_referenceIT_E4typeEOS4_>
  406240:	48 89 c2             	mov    %rax,%rdx
  406243:	48 8b 45 f8          	mov    -0x8(%rbp),%rax
  406247:	48 83 c0 08          	add    $0x8,%rax
  40624b:	48 89 d6             	mov    %rdx,%rsi
  40624e:	48 89 c7             	mov    %rax,%rdi
  406251:	e8 64 ec ff ff       	callq  404eba <_ZN2cl6DeviceaSEOS0_>
  406256:	90                   	nop
  406257:	c9                   	leaveq 
  406258:	c3                   	retq   
  406259:	90                   	nop

000000000040625a <_ZN11arm_compute15CLKernelLibrary15set_kernel_pathERKNSt7__cxx1112basic_stringIcSt11char_traitsIcESaIcEEE>:
  40625a:	55                   	push   %rbp
  40625b:	48 89 e5             	mov    %rsp,%rbp
  40625e:	48 83 ec 10          	sub    $0x10,%rsp
  406262:	48 89 7d f8          	mov    %rdi,-0x8(%rbp)
  406266:	48 89 75 f0          	mov    %rsi,-0x10(%rbp)
  40626a:	48 8b 45 f8          	mov    -0x8(%rbp),%rax
  40626e:	48 8d 50 18          	lea    0x18(%rax),%rdx
  406272:	48 8b 45 f0          	mov    -0x10(%rbp),%rax
  406276:	48 89 c6             	mov    %rax,%rsi
  406279:	48 89 d7             	mov    %rdx,%rdi
  40627c:	e8 8f d2 ff ff       	callq  403510 <_ZNSt7__cxx1112basic_stringIcSt11char_traitsIcESaIcEEaSERKS4_@plt>
  406281:	90                   	nop
  406282:	c9                   	leaveq 
  406283:	c3                   	retq   

0000000000406284 <_ZN11arm_compute11TensorShape3setEmm>:
  406284:	55                   	push   %rbp
  406285:	48 89 e5             	mov    %rsp,%rbp
  406288:	53                   	push   %rbx
  406289:	48 83 ec 38          	sub    $0x38,%rsp
  40628d:	48 89 7d d8          	mov    %rdi,-0x28(%rbp)
  406291:	48 89 75 d0          	mov    %rsi,-0x30(%rbp)
  406295:	48 89 55 c8          	mov    %rdx,-0x38(%rbp)
  406299:	64 48 8b 04 25 28 00 	mov    %fs:0x28,%rax
  4062a0:	00 00 
  4062a2:	48 89 45 e8          	mov    %rax,-0x18(%rbp)
  4062a6:	31 c0                	xor    %eax,%eax
  4062a8:	48 83 7d c8 00       	cmpq   $0x0,-0x38(%rbp)
  4062ad:	75 45                	jne    4062f4 <_ZN11arm_compute11TensorShape3setEmm+0x70>
  4062af:	48 8b 45 d8          	mov    -0x28(%rbp),%rax
  4062b3:	48 c7 40 30 00 00 00 	movq   $0x0,0x30(%rax)
  4062ba:	00 
  4062bb:	c7 45 e4 00 00 00 00 	movl   $0x0,-0x1c(%rbp)
  4062c2:	48 8b 45 d8          	mov    -0x28(%rbp),%rax
  4062c6:	48 89 c7             	mov    %rax,%rdi
  4062c9:	e8 ea 20 00 00       	callq  4083b8 <_ZNSt5arrayImLm6EE3endEv>
  4062ce:	48 89 c3             	mov    %rax,%rbx
  4062d1:	48 8b 45 d8          	mov    -0x28(%rbp),%rax
  4062d5:	48 89 c7             	mov    %rax,%rdi
  4062d8:	e8 c1 20 00 00       	callq  40839e <_ZNSt5arrayImLm6EE5beginEv>
  4062dd:	48 89 c1             	mov    %rax,%rcx
  4062e0:	48 8d 45 e4          	lea    -0x1c(%rbp),%rax
  4062e4:	48 89 c2             	mov    %rax,%rdx
  4062e7:	48 89 de             	mov    %rbx,%rsi
  4062ea:	48 89 cf             	mov    %rcx,%rdi
  4062ed:	e8 98 14 00 00       	callq  40778a <_ZSt4fillIPmiEvT_S1_RKT0_>
  4062f2:	eb 6a                	jmp    40635e <_ZN11arm_compute11TensorShape3setEmm+0xda>
  4062f4:	c7 45 e4 01 00 00 00 	movl   $0x1,-0x1c(%rbp)
  4062fb:	48 8b 45 d8          	mov    -0x28(%rbp),%rax
  4062ff:	48 89 c7             	mov    %rax,%rdi
  406302:	e8 b1 20 00 00       	callq  4083b8 <_ZNSt5arrayImLm6EE3endEv>
  406307:	48 89 c3             	mov    %rax,%rbx
  40630a:	48 8b 45 d8          	mov    -0x28(%rbp),%rax
  40630e:	48 89 c7             	mov    %rax,%rdi
  406311:	e8 88 20 00 00       	callq  40839e <_ZNSt5arrayImLm6EE5beginEv>
  406316:	48 89 c2             	mov    %rax,%rdx
  406319:	48 8b 45 d8          	mov    -0x28(%rbp),%rax
  40631d:	48 8b 40 30          	mov    0x30(%rax),%rax
  406321:	48 c1 e0 03          	shl    $0x3,%rax
  406325:	48 8d 0c 02          	lea    (%rdx,%rax,1),%rcx
  406329:	48 8d 45 e4          	lea    -0x1c(%rbp),%rax
  40632d:	48 89 c2             	mov    %rax,%rdx
  406330:	48 89 de             	mov    %rbx,%rsi
  406333:	48 89 cf             	mov    %rcx,%rdi
  406336:	e8 4f 14 00 00       	callq  40778a <_ZSt4fillIPmiEvT_S1_RKT0_>
  40633b:	48 8b 45 d8          	mov    -0x28(%rbp),%rax
  40633f:	48 8b 55 c8          	mov    -0x38(%rbp),%rdx
  406343:	48 8b 4d d0          	mov    -0x30(%rbp),%rcx
  406347:	48 89 ce             	mov    %rcx,%rsi
  40634a:	48 89 c7             	mov    %rax,%rdi
  40634d:	e8 84 20 00 00       	callq  4083d6 <_ZN11arm_compute10DimensionsImE3setEmm>
  406352:	48 8b 45 d8          	mov    -0x28(%rbp),%rax
  406356:	48 89 c7             	mov    %rax,%rdi
  406359:	e8 1c 00 00 00       	callq  40637a <_ZN11arm_compute11TensorShape26apply_dimension_correctionEv>
  40635e:	48 8b 45 e8          	mov    -0x18(%rbp),%rax
  406362:	64 48 33 04 25 28 00 	xor    %fs:0x28,%rax
  406369:	00 00 
  40636b:	74 05                	je     406372 <_ZN11arm_compute11TensorShape3setEmm+0xee>
  40636d:	e8 0e d4 ff ff       	callq  403780 <__stack_chk_fail@plt>
  406372:	48 83 c4 38          	add    $0x38,%rsp
  406376:	5b                   	pop    %rbx
  406377:	5d                   	pop    %rbp
  406378:	c3                   	retq   
  406379:	90                   	nop

000000000040637a <_ZN11arm_compute11TensorShape26apply_dimension_correctionEv>:
  40637a:	55                   	push   %rbp
  40637b:	48 89 e5             	mov    %rsp,%rbp
  40637e:	48 83 ec 20          	sub    $0x20,%rsp
  406382:	48 89 7d e8          	mov    %rdi,-0x18(%rbp)
  406386:	48 8b 45 e8          	mov    -0x18(%rbp),%rax
  40638a:	48 8b 40 30          	mov    0x30(%rax),%rax
  40638e:	83 e8 01             	sub    $0x1,%eax
  406391:	89 45 fc             	mov    %eax,-0x4(%rbp)
  406394:	83 7d fc 00          	cmpl   $0x0,-0x4(%rbp)
  406398:	7e 3e                	jle    4063d8 <_ZN11arm_compute11TensorShape26apply_dimension_correctionEv+0x5e>
  40639a:	8b 45 fc             	mov    -0x4(%rbp),%eax
  40639d:	48 63 d0             	movslq %eax,%rdx
  4063a0:	48 8b 45 e8          	mov    -0x18(%rbp),%rax
  4063a4:	48 89 d6             	mov    %rdx,%rsi
  4063a7:	48 89 c7             	mov    %rax,%rdi
  4063aa:	e8 cd 20 00 00       	callq  40847c <_ZNSt5arrayImLm6EEixEm>
  4063af:	48 8b 00             	mov    (%rax),%rax
  4063b2:	48 83 f8 01          	cmp    $0x1,%rax
  4063b6:	0f 94 c0             	sete   %al
  4063b9:	84 c0                	test   %al,%al
  4063bb:	74 1a                	je     4063d7 <_ZN11arm_compute11TensorShape26apply_dimension_correctionEv+0x5d>
  4063bd:	48 8b 45 e8          	mov    -0x18(%rbp),%rax
  4063c1:	48 8b 40 30          	mov    0x30(%rax),%rax
  4063c5:	48 8d 50 ff          	lea    -0x1(%rax),%rdx
  4063c9:	48 8b 45 e8          	mov    -0x18(%rbp),%rax
  4063cd:	48 89 50 30          	mov    %rdx,0x30(%rax)
  4063d1:	83 6d fc 01          	subl   $0x1,-0x4(%rbp)
  4063d5:	eb bd                	jmp    406394 <_ZN11arm_compute11TensorShape26apply_dimension_correctionEv+0x1a>
  4063d7:	90                   	nop
  4063d8:	90                   	nop
  4063d9:	c9                   	leaveq 
  4063da:	c3                   	retq   
  4063db:	90                   	nop

00000000004063dc <_ZN11arm_compute11CoordinatesC1IJEEEDpT_>:
  4063dc:	55                   	push   %rbp
  4063dd:	48 89 e5             	mov    %rsp,%rbp
  4063e0:	48 83 ec 10          	sub    $0x10,%rsp
  4063e4:	48 89 7d f8          	mov    %rdi,-0x8(%rbp)
  4063e8:	48 8b 45 f8          	mov    -0x8(%rbp),%rax
  4063ec:	48 89 c7             	mov    %rax,%rdi
  4063ef:	e8 ae 20 00 00       	callq  4084a2 <_ZN11arm_compute10DimensionsIiEC1IJEEEDpT_>
  4063f4:	90                   	nop
  4063f5:	c9                   	leaveq 
  4063f6:	c3                   	retq   

00000000004063f7 <_ZSt7forwardIRjEOT_RNSt16remove_referenceIS1_E4typeE>:
  4063f7:	55                   	push   %rbp
  4063f8:	48 89 e5             	mov    %rsp,%rbp
  4063fb:	48 89 7d f8          	mov    %rdi,-0x8(%rbp)
  4063ff:	48 8b 45 f8          	mov    -0x8(%rbp),%rax
  406403:	5d                   	pop    %rbp
  406404:	c3                   	retq   
  406405:	90                   	nop

0000000000406406 <_ZNSt4pairIjjEC1IRjS2_Lb1EEEOT_OT0_>:
  406406:	55                   	push   %rbp
  406407:	48 89 e5             	mov    %rsp,%rbp
  40640a:	48 83 ec 20          	sub    $0x20,%rsp
  40640e:	48 89 7d f8          	mov    %rdi,-0x8(%rbp)
  406412:	48 89 75 f0          	mov    %rsi,-0x10(%rbp)
  406416:	48 89 55 e8          	mov    %rdx,-0x18(%rbp)
  40641a:	48 8b 45 f0          	mov    -0x10(%rbp),%rax
  40641e:	48 89 c7             	mov    %rax,%rdi
  406421:	e8 d1 ff ff ff       	callq  4063f7 <_ZSt7forwardIRjEOT_RNSt16remove_referenceIS1_E4typeE>
  406426:	8b 10                	mov    (%rax),%edx
  406428:	48 8b 45 f8          	mov    -0x8(%rbp),%rax
  40642c:	89 10                	mov    %edx,(%rax)
  40642e:	48 8b 45 e8          	mov    -0x18(%rbp),%rax
  406432:	48 89 c7             	mov    %rax,%rdi
  406435:	e8 bd ff ff ff       	callq  4063f7 <_ZSt7forwardIRjEOT_RNSt16remove_referenceIS1_E4typeE>
  40643a:	8b 10                	mov    (%rax),%edx
  40643c:	48 8b 45 f8          	mov    -0x8(%rbp),%rax
  406440:	89 50 04             	mov    %edx,0x4(%rax)
  406443:	90                   	nop
  406444:	c9                   	leaveq 
  406445:	c3                   	retq   

0000000000406446 <_ZSt9make_pairIRjS0_ESt4pairINSt17__decay_and_stripIT_E6__typeENS2_IT0_E6__typeEEOS3_OS6_>:
  406446:	55                   	push   %rbp
  406447:	48 89 e5             	mov    %rsp,%rbp
  40644a:	53                   	push   %rbx
  40644b:	48 83 ec 28          	sub    $0x28,%rsp
  40644f:	48 89 7d d8          	mov    %rdi,-0x28(%rbp)
  406453:	48 89 75 d0          	mov    %rsi,-0x30(%rbp)
  406457:	64 48 8b 04 25 28 00 	mov    %fs:0x28,%rax
  40645e:	00 00 
  406460:	48 89 45 e8          	mov    %rax,-0x18(%rbp)
  406464:	31 c0                	xor    %eax,%eax
  406466:	48 8b 45 d0          	mov    -0x30(%rbp),%rax
  40646a:	48 89 c7             	mov    %rax,%rdi
  40646d:	e8 85 ff ff ff       	callq  4063f7 <_ZSt7forwardIRjEOT_RNSt16remove_referenceIS1_E4typeE>
  406472:	48 89 c3             	mov    %rax,%rbx
  406475:	48 8b 45 d8          	mov    -0x28(%rbp),%rax
  406479:	48 89 c7             	mov    %rax,%rdi
  40647c:	e8 76 ff ff ff       	callq  4063f7 <_ZSt7forwardIRjEOT_RNSt16remove_referenceIS1_E4typeE>
  406481:	48 89 c1             	mov    %rax,%rcx
  406484:	48 8d 45 e0          	lea    -0x20(%rbp),%rax
  406488:	48 89 da             	mov    %rbx,%rdx
  40648b:	48 89 ce             	mov    %rcx,%rsi
  40648e:	48 89 c7             	mov    %rax,%rdi
  406491:	e8 70 ff ff ff       	callq  406406 <_ZNSt4pairIjjEC1IRjS2_Lb1EEEOT_OT0_>
  406496:	48 8b 45 e0          	mov    -0x20(%rbp),%rax
  40649a:	48 8b 55 e8          	mov    -0x18(%rbp),%rdx
  40649e:	64 48 33 14 25 28 00 	xor    %fs:0x28,%rdx
  4064a5:	00 00 
  4064a7:	74 05                	je     4064ae <_ZSt9make_pairIRjS0_ESt4pairINSt17__decay_and_stripIT_E6__typeENS2_IT0_E6__typeEEOS3_OS6_+0x68>
  4064a9:	e8 d2 d2 ff ff       	callq  403780 <__stack_chk_fail@plt>
  4064ae:	48 83 c4 28          	add    $0x28,%rsp
  4064b2:	5b                   	pop    %rbx
  4064b3:	5d                   	pop    %rbp
  4064b4:	c3                   	retq   
  4064b5:	90                   	nop

00000000004064b6 <_ZN11arm_compute13PadStrideInfoC1EjjjjNS_21DimensionRoundingTypeE>:
  4064b6:	55                   	push   %rbp
  4064b7:	48 89 e5             	mov    %rsp,%rbp
  4064ba:	53                   	push   %rbx
  4064bb:	48 83 ec 28          	sub    $0x28,%rsp
  4064bf:	48 89 7d e8          	mov    %rdi,-0x18(%rbp)
  4064c3:	89 75 e4             	mov    %esi,-0x1c(%rbp)
  4064c6:	89 55 e0             	mov    %edx,-0x20(%rbp)
  4064c9:	89 4d dc             	mov    %ecx,-0x24(%rbp)
  4064cc:	44 89 45 d8          	mov    %r8d,-0x28(%rbp)
  4064d0:	44 89 4d d4          	mov    %r9d,-0x2c(%rbp)
  4064d4:	48 8b 5d e8          	mov    -0x18(%rbp),%rbx
  4064d8:	48 8d 55 e0          	lea    -0x20(%rbp),%rdx
  4064dc:	48 8d 45 e4          	lea    -0x1c(%rbp),%rax
  4064e0:	48 89 d6             	mov    %rdx,%rsi
  4064e3:	48 89 c7             	mov    %rax,%rdi
  4064e6:	e8 5b ff ff ff       	callq  406446 <_ZSt9make_pairIRjS0_ESt4pairINSt17__decay_and_stripIT_E6__typeENS2_IT0_E6__typeEEOS3_OS6_>
  4064eb:	48 89 03             	mov    %rax,(%rbx)
  4064ee:	48 8b 45 e8          	mov    -0x18(%rbp),%rax
  4064f2:	8b 55 dc             	mov    -0x24(%rbp),%edx
  4064f5:	89 50 08             	mov    %edx,0x8(%rax)
  4064f8:	48 8b 45 e8          	mov    -0x18(%rbp),%rax
  4064fc:	8b 55 d8             	mov    -0x28(%rbp),%edx
  4064ff:	89 50 0c             	mov    %edx,0xc(%rax)
  406502:	48 8b 45 e8          	mov    -0x18(%rbp),%rax
  406506:	8b 55 dc             	mov    -0x24(%rbp),%edx
  406509:	89 50 10             	mov    %edx,0x10(%rax)
  40650c:	48 8b 45 e8          	mov    -0x18(%rbp),%rax
  406510:	8b 55 d8             	mov    -0x28(%rbp),%edx
  406513:	89 50 14             	mov    %edx,0x14(%rax)
  406516:	48 8b 45 e8          	mov    -0x18(%rbp),%rax
  40651a:	8b 55 d4             	mov    -0x2c(%rbp),%edx
  40651d:	89 50 18             	mov    %edx,0x18(%rax)
  406520:	90                   	nop
  406521:	48 83 c4 28          	add    $0x28,%rsp
  406525:	5b                   	pop    %rbx
  406526:	5d                   	pop    %rbp
  406527:	c3                   	retq   

0000000000406528 <_ZN11arm_compute6Window9DimensionC1Eiii>:
  406528:	55                   	push   %rbp
  406529:	48 89 e5             	mov    %rsp,%rbp
  40652c:	48 89 7d f8          	mov    %rdi,-0x8(%rbp)
  406530:	89 75 f4             	mov    %esi,-0xc(%rbp)
  406533:	89 55 f0             	mov    %edx,-0x10(%rbp)
  406536:	89 4d ec             	mov    %ecx,-0x14(%rbp)
  406539:	48 8b 45 f8          	mov    -0x8(%rbp),%rax
  40653d:	8b 55 f4             	mov    -0xc(%rbp),%edx
  406540:	89 10                	mov    %edx,(%rax)
  406542:	48 8b 45 f8          	mov    -0x8(%rbp),%rax
  406546:	8b 55 f0             	mov    -0x10(%rbp),%edx
  406549:	89 50 04             	mov    %edx,0x4(%rax)
  40654c:	48 8b 45 f8          	mov    -0x8(%rbp),%rax
  406550:	8b 55 ec             	mov    -0x14(%rbp),%edx
  406553:	89 50 08             	mov    %edx,0x8(%rax)
  406556:	90                   	nop
  406557:	5d                   	pop    %rbp
  406558:	c3                   	retq   
  406559:	90                   	nop

000000000040655a <_ZNK11arm_compute6Window9Dimension5startEv>:
  40655a:	55                   	push   %rbp
  40655b:	48 89 e5             	mov    %rsp,%rbp
  40655e:	48 89 7d f8          	mov    %rdi,-0x8(%rbp)
  406562:	48 8b 45 f8          	mov    -0x8(%rbp),%rax
  406566:	8b 00                	mov    (%rax),%eax
  406568:	5d                   	pop    %rbp
  406569:	c3                   	retq   

000000000040656a <_ZNK11arm_compute6Window9Dimension3endEv>:
  40656a:	55                   	push   %rbp
  40656b:	48 89 e5             	mov    %rsp,%rbp
  40656e:	48 89 7d f8          	mov    %rdi,-0x8(%rbp)
  406572:	48 8b 45 f8          	mov    -0x8(%rbp),%rax
  406576:	8b 40 04             	mov    0x4(%rax),%eax
  406579:	5d                   	pop    %rbp
  40657a:	c3                   	retq   
  40657b:	90                   	nop

000000000040657c <_ZNK11arm_compute6Window9Dimension4stepEv>:
  40657c:	55                   	push   %rbp
  40657d:	48 89 e5             	mov    %rsp,%rbp
  406580:	48 89 7d f8          	mov    %rdi,-0x8(%rbp)
  406584:	48 8b 45 f8          	mov    -0x8(%rbp),%rax
  406588:	8b 40 08             	mov    0x8(%rax),%eax
  40658b:	5d                   	pop    %rbp
  40658c:	c3                   	retq   

000000000040658d <_ZNSt14__array_traitsIN11arm_compute6Window9DimensionELm6EE6_S_refERA6_KS2_m>:
  40658d:	55                   	push   %rbp
  40658e:	48 89 e5             	mov    %rsp,%rbp
  406591:	48 89 7d f8          	mov    %rdi,-0x8(%rbp)
  406595:	48 89 75 f0          	mov    %rsi,-0x10(%rbp)
  406599:	48 8b 55 f0          	mov    -0x10(%rbp),%rdx
  40659d:	48 89 d0             	mov    %rdx,%rax
  4065a0:	48 01 c0             	add    %rax,%rax
  4065a3:	48 01 d0             	add    %rdx,%rax
  4065a6:	48 c1 e0 02          	shl    $0x2,%rax
  4065aa:	48 8b 55 f8          	mov    -0x8(%rbp),%rdx
  4065ae:	48 01 d0             	add    %rdx,%rax
  4065b1:	5d                   	pop    %rbp
  4065b2:	c3                   	retq   
  4065b3:	90                   	nop

00000000004065b4 <_ZNKSt5arrayIN11arm_compute6Window9DimensionELm6EE2atEm>:
  4065b4:	55                   	push   %rbp
  4065b5:	48 89 e5             	mov    %rsp,%rbp
  4065b8:	48 83 ec 10          	sub    $0x10,%rsp
  4065bc:	48 89 7d f8          	mov    %rdi,-0x8(%rbp)
  4065c0:	48 89 75 f0          	mov    %rsi,-0x10(%rbp)
  4065c4:	48 83 7d f0 05       	cmpq   $0x5,-0x10(%rbp)
  4065c9:	77 15                	ja     4065e0 <_ZNKSt5arrayIN11arm_compute6Window9DimensionELm6EE2atEm+0x2c>
  4065cb:	48 8b 45 f8          	mov    -0x8(%rbp),%rax
  4065cf:	48 8b 55 f0          	mov    -0x10(%rbp),%rdx
  4065d3:	48 89 d6             	mov    %rdx,%rsi
  4065d6:	48 89 c7             	mov    %rax,%rdi
  4065d9:	e8 af ff ff ff       	callq  40658d <_ZNSt14__array_traitsIN11arm_compute6Window9DimensionELm6EE6_S_refERA6_KS2_m>
  4065de:	eb 1b                	jmp    4065fb <_ZNKSt5arrayIN11arm_compute6Window9DimensionELm6EE2atEm+0x47>
  4065e0:	48 8b 45 f0          	mov    -0x10(%rbp),%rax
  4065e4:	ba 06 00 00 00       	mov    $0x6,%edx
  4065e9:	48 89 c6             	mov    %rax,%rsi
  4065ec:	bf c0 02 41 00       	mov    $0x4102c0,%edi
  4065f1:	b8 00 00 00 00       	mov    $0x0,%eax
  4065f6:	e8 05 d3 ff ff       	callq  403900 <_ZSt24__throw_out_of_range_fmtPKcz@plt>
  4065fb:	c9                   	leaveq 
  4065fc:	c3                   	retq   
  4065fd:	90                   	nop

00000000004065fe <_ZNK11arm_compute6WindowixEm>:
  4065fe:	55                   	push   %rbp
  4065ff:	48 89 e5             	mov    %rsp,%rbp
  406602:	48 83 ec 10          	sub    $0x10,%rsp
  406606:	48 89 7d f8          	mov    %rdi,-0x8(%rbp)
  40660a:	48 89 75 f0          	mov    %rsi,-0x10(%rbp)
  40660e:	48 8b 45 f8          	mov    -0x8(%rbp),%rax
  406612:	48 8b 55 f0          	mov    -0x10(%rbp),%rdx
  406616:	48 89 d6             	mov    %rdx,%rsi
  406619:	48 89 c7             	mov    %rax,%rdi
  40661c:	e8 93 ff ff ff       	callq  4065b4 <_ZNKSt5arrayIN11arm_compute6Window9DimensionELm6EE2atEm>
  406621:	c9                   	leaveq 
  406622:	c3                   	retq   
  406623:	90                   	nop

0000000000406624 <_ZN11arm_compute6Window3setEmRKNS0_9DimensionE>:
  406624:	55                   	push   %rbp
  406625:	48 89 e5             	mov    %rsp,%rbp
  406628:	48 83 ec 20          	sub    $0x20,%rsp
  40662c:	48 89 7d f8          	mov    %rdi,-0x8(%rbp)
  406630:	48 89 75 f0          	mov    %rsi,-0x10(%rbp)
  406634:	48 89 55 e8          	mov    %rdx,-0x18(%rbp)
  406638:	48 8b 45 f8          	mov    -0x8(%rbp),%rax
  40663c:	48 8b 55 f0          	mov    -0x10(%rbp),%rdx
  406640:	48 89 d6             	mov    %rdx,%rsi
  406643:	48 89 c7             	mov    %rax,%rdi
  406646:	e8 f9 1f 00 00       	callq  408644 <_ZNSt5arrayIN11arm_compute6Window9DimensionELm6EEixEm>
  40664b:	48 89 c2             	mov    %rax,%rdx
  40664e:	48 8b 45 e8          	mov    -0x18(%rbp),%rax
  406652:	48 8b 08             	mov    (%rax),%rcx
  406655:	48 89 0a             	mov    %rcx,(%rdx)
  406658:	8b 40 08             	mov    0x8(%rax),%eax
  40665b:	89 42 08             	mov    %eax,0x8(%rdx)
  40665e:	90                   	nop
  40665f:	c9                   	leaveq 
  406660:	c3                   	retq   
  406661:	90                   	nop

0000000000406662 <_ZNK11arm_compute6Window8validateEv>:
  406662:	55                   	push   %rbp
  406663:	48 89 e5             	mov    %rsp,%rbp
  406666:	48 89 7d e8          	mov    %rdi,-0x18(%rbp)
  40666a:	48 c7 45 f8 00 00 00 	movq   $0x0,-0x8(%rbp)
  406671:	00 
  406672:	48 83 7d f8 05       	cmpq   $0x5,-0x8(%rbp)
  406677:	77 07                	ja     406680 <_ZNK11arm_compute6Window8validateEv+0x1e>
  406679:	48 83 45 f8 01       	addq   $0x1,-0x8(%rbp)
  40667e:	eb f2                	jmp    406672 <_ZNK11arm_compute6Window8validateEv+0x10>
  406680:	90                   	nop
  406681:	5d                   	pop    %rbp
  406682:	c3                   	retq   
  406683:	90                   	nop

0000000000406684 <_ZN11arm_compute6Window21use_tensor_dimensionsERKNS_11TensorShapeEm>:
  406684:	55                   	push   %rbp
  406685:	48 89 e5             	mov    %rsp,%rbp
  406688:	48 83 ec 50          	sub    $0x50,%rsp
  40668c:	48 89 7d c8          	mov    %rdi,-0x38(%rbp)
  406690:	48 89 75 c0          	mov    %rsi,-0x40(%rbp)
  406694:	48 89 55 b8          	mov    %rdx,-0x48(%rbp)
  406698:	64 48 8b 04 25 28 00 	mov    %fs:0x28,%rax
  40669f:	00 00 
  4066a1:	48 89 45 f8          	mov    %rax,-0x8(%rbp)
  4066a5:	31 c0                	xor    %eax,%eax
  4066a7:	48 8b 45 b8          	mov    -0x48(%rbp),%rax
  4066ab:	89 45 dc             	mov    %eax,-0x24(%rbp)
  4066ae:	48 8b 45 c0          	mov    -0x40(%rbp),%rax
  4066b2:	48 89 c7             	mov    %rax,%rdi
  4066b5:	e8 be 1e 00 00       	callq  408578 <_ZNK11arm_compute10DimensionsImE14num_dimensionsEv>
  4066ba:	3b 45 dc             	cmp    -0x24(%rbp),%eax
  4066bd:	0f 97 c0             	seta   %al
  4066c0:	84 c0                	test   %al,%al
  4066c2:	74 63                	je     406727 <_ZN11arm_compute6Window21use_tensor_dimensionsERKNS_11TensorShapeEm+0xa3>
  4066c4:	48 c7 45 e0 01 00 00 	movq   $0x1,-0x20(%rbp)
  4066cb:	00 
  4066cc:	8b 55 dc             	mov    -0x24(%rbp),%edx
  4066cf:	48 8b 45 c0          	mov    -0x40(%rbp),%rax
  4066d3:	48 89 d6             	mov    %rdx,%rsi
  4066d6:	48 89 c7             	mov    %rax,%rdi
  4066d9:	e8 40 1f 00 00       	callq  40861e <_ZNK11arm_compute10DimensionsImEixEm>
  4066de:	48 89 c2             	mov    %rax,%rdx
  4066e1:	48 8d 45 e0          	lea    -0x20(%rbp),%rax
  4066e5:	48 89 c6             	mov    %rax,%rsi
  4066e8:	48 89 d7             	mov    %rdx,%rdi
  4066eb:	e8 79 1f 00 00       	callq  408669 <_ZSt3maxImERKT_S2_S2_>
  4066f0:	48 8b 00             	mov    (%rax),%rax
  4066f3:	89 c2                	mov    %eax,%edx
  4066f5:	48 8d 45 ec          	lea    -0x14(%rbp),%rax
  4066f9:	b9 01 00 00 00       	mov    $0x1,%ecx
  4066fe:	be 00 00 00 00       	mov    $0x0,%esi
  406703:	48 89 c7             	mov    %rax,%rdi
  406706:	e8 1d fe ff ff       	callq  406528 <_ZN11arm_compute6Window9DimensionC1Eiii>
  40670b:	8b 4d dc             	mov    -0x24(%rbp),%ecx
  40670e:	48 8d 55 ec          	lea    -0x14(%rbp),%rdx
  406712:	48 8b 45 c8          	mov    -0x38(%rbp),%rax
  406716:	48 89 ce             	mov    %rcx,%rsi
  406719:	48 89 c7             	mov    %rax,%rdi
  40671c:	e8 03 ff ff ff       	callq  406624 <_ZN11arm_compute6Window3setEmRKNS0_9DimensionE>
  406721:	83 45 dc 01          	addl   $0x1,-0x24(%rbp)
  406725:	eb 87                	jmp    4066ae <_ZN11arm_compute6Window21use_tensor_dimensionsERKNS_11TensorShapeEm+0x2a>
  406727:	90                   	nop
  406728:	48 8b 45 f8          	mov    -0x8(%rbp),%rax
  40672c:	64 48 33 04 25 28 00 	xor    %fs:0x28,%rax
  406733:	00 00 
  406735:	74 05                	je     40673c <_ZN11arm_compute6Window21use_tensor_dimensionsERKNS_11TensorShapeEm+0xb8>
  406737:	e8 44 d0 ff ff       	callq  403780 <__stack_chk_fail@plt>
  40673c:	c9                   	leaveq 
  40673d:	c3                   	retq   

000000000040673e <_ZNK11arm_compute10TensorInfo9dimensionEm>:
  40673e:	55                   	push   %rbp
  40673f:	48 89 e5             	mov    %rsp,%rbp
  406742:	48 83 ec 10          	sub    $0x10,%rsp
  406746:	48 89 7d f8          	mov    %rdi,-0x8(%rbp)
  40674a:	48 89 75 f0          	mov    %rsi,-0x10(%rbp)
  40674e:	48 8b 45 f8          	mov    -0x8(%rbp),%rax
  406752:	48 8d 50 60          	lea    0x60(%rax),%rdx
  406756:	48 8b 45 f0          	mov    -0x10(%rbp),%rax
  40675a:	48 89 c6             	mov    %rax,%rsi
  40675d:	48 89 d7             	mov    %rdx,%rdi
  406760:	e8 b9 1e 00 00       	callq  40861e <_ZNK11arm_compute10DimensionsImEixEm>
  406765:	48 8b 00             	mov    (%rax),%rax
  406768:	c9                   	leaveq 
  406769:	c3                   	retq   

000000000040676a <_ZNK11arm_compute10TensorInfo14num_dimensionsEv>:
  40676a:	55                   	push   %rbp
  40676b:	48 89 e5             	mov    %rsp,%rbp
  40676e:	48 83 ec 10          	sub    $0x10,%rsp
  406772:	48 89 7d f8          	mov    %rdi,-0x8(%rbp)
  406776:	48 8b 45 f8          	mov    -0x8(%rbp),%rax
  40677a:	48 83 c0 60          	add    $0x60,%rax
  40677e:	48 89 c7             	mov    %rax,%rdi
  406781:	e8 f2 1d 00 00       	callq  408578 <_ZNK11arm_compute10DimensionsImE14num_dimensionsEv>
  406786:	89 c0                	mov    %eax,%eax
  406788:	c9                   	leaveq 
  406789:	c3                   	retq   

000000000040678a <_ZNSt5arrayIN11arm_compute8Iterator9DimensionELm6EEC1Ev>:
  40678a:	55                   	push   %rbp
  40678b:	48 89 e5             	mov    %rsp,%rbp
  40678e:	48 89 7d f8          	mov    %rdi,-0x8(%rbp)
  406792:	48 8b 45 f8          	mov    -0x8(%rbp),%rax
  406796:	b9 30 00 00 00       	mov    $0x30,%ecx
  40679b:	be 00 00 00 00       	mov    $0x0,%esi
  4067a0:	48 89 30             	mov    %rsi,(%rax)
  4067a3:	89 ca                	mov    %ecx,%edx
  4067a5:	48 01 c2             	add    %rax,%rdx
  4067a8:	48 83 c2 08          	add    $0x8,%rdx
  4067ac:	48 89 72 f0          	mov    %rsi,-0x10(%rdx)
  4067b0:	48 8d 50 08          	lea    0x8(%rax),%rdx
  4067b4:	48 83 e2 f8          	and    $0xfffffffffffffff8,%rdx
  4067b8:	48 29 d0             	sub    %rdx,%rax
  4067bb:	01 c1                	add    %eax,%ecx
  4067bd:	83 e1 f8             	and    $0xfffffff8,%ecx
  4067c0:	89 c8                	mov    %ecx,%eax
  4067c2:	c1 e8 03             	shr    $0x3,%eax
  4067c5:	89 c1                	mov    %eax,%ecx
  4067c7:	48 89 d7             	mov    %rdx,%rdi
  4067ca:	48 89 f0             	mov    %rsi,%rax
  4067cd:	f3 48 ab             	rep stos %rax,%es:(%rdi)
  4067d0:	90                   	nop
  4067d1:	5d                   	pop    %rbp
  4067d2:	c3                   	retq   
  4067d3:	90                   	nop

00000000004067d4 <_ZN11arm_compute8IteratorC1Ev>:
  4067d4:	55                   	push   %rbp
  4067d5:	48 89 e5             	mov    %rsp,%rbp
  4067d8:	48 83 ec 10          	sub    $0x10,%rsp
  4067dc:	48 89 7d f8          	mov    %rdi,-0x8(%rbp)
  4067e0:	48 8b 45 f8          	mov    -0x8(%rbp),%rax
  4067e4:	48 c7 00 00 00 00 00 	movq   $0x0,(%rax)
  4067eb:	48 8b 45 f8          	mov    -0x8(%rbp),%rax
  4067ef:	48 8d 50 08          	lea    0x8(%rax),%rdx
  4067f3:	b8 00 00 00 00       	mov    $0x0,%eax
  4067f8:	b9 06 00 00 00       	mov    $0x6,%ecx
  4067fd:	48 89 d7             	mov    %rdx,%rdi
  406800:	f3 48 ab             	rep stos %rax,%es:(%rdi)
  406803:	48 8b 45 f8          	mov    -0x8(%rbp),%rax
  406807:	48 83 c0 08          	add    $0x8,%rax
  40680b:	48 89 c7             	mov    %rax,%rdi
  40680e:	e8 77 ff ff ff       	callq  40678a <_ZNSt5arrayIN11arm_compute8Iterator9DimensionELm6EEC1Ev>
  406813:	90                   	nop
  406814:	c9                   	leaveq 
  406815:	c3                   	retq   

0000000000406816 <_ZNSt14__array_traitsIN11arm_compute8Iterator9DimensionELm6EE6_S_refERA6_KS2_m>:
  406816:	55                   	push   %rbp
  406817:	48 89 e5             	mov    %rsp,%rbp
  40681a:	48 89 7d f8          	mov    %rdi,-0x8(%rbp)
  40681e:	48 89 75 f0          	mov    %rsi,-0x10(%rbp)
  406822:	48 8b 45 f0          	mov    -0x10(%rbp),%rax
  406826:	48 8d 14 c5 00 00 00 	lea    0x0(,%rax,8),%rdx
  40682d:	00 
  40682e:	48 8b 45 f8          	mov    -0x8(%rbp),%rax
  406832:	48 01 d0             	add    %rdx,%rax
  406835:	5d                   	pop    %rbp
  406836:	c3                   	retq   

0000000000406837 <_ZSt3getILm0EN11arm_compute8Iterator9DimensionELm6EERT0_RSt5arrayIS3_XT1_EE>:
  406837:	55                   	push   %rbp
  406838:	48 89 e5             	mov    %rsp,%rbp
  40683b:	48 83 ec 10          	sub    $0x10,%rsp
  40683f:	48 89 7d f8          	mov    %rdi,-0x8(%rbp)
  406843:	48 8b 45 f8          	mov    -0x8(%rbp),%rax
  406847:	be 00 00 00 00       	mov    $0x0,%esi
  40684c:	48 89 c7             	mov    %rax,%rdi
  40684f:	e8 c2 ff ff ff       	callq  406816 <_ZNSt14__array_traitsIN11arm_compute8Iterator9DimensionELm6EE6_S_refERA6_KS2_m>
  406854:	c9                   	leaveq 
  406855:	c3                   	retq   

0000000000406856 <_ZN11arm_compute8IteratorC1EPKNS_7ITensorERKNS_6WindowE>:
  406856:	55                   	push   %rbp
  406857:	48 89 e5             	mov    %rsp,%rbp
  40685a:	41 54                	push   %r12
  40685c:	53                   	push   %rbx
  40685d:	48 83 ec 40          	sub    $0x40,%rsp
  406861:	48 89 7d c8          	mov    %rdi,-0x38(%rbp)
  406865:	48 89 75 c0          	mov    %rsi,-0x40(%rbp)
  406869:	48 89 55 b8          	mov    %rdx,-0x48(%rbp)
  40686d:	48 8b 45 c8          	mov    -0x38(%rbp),%rax
  406871:	48 89 c7             	mov    %rax,%rdi
  406874:	e8 5b ff ff ff       	callq  4067d4 <_ZN11arm_compute8IteratorC1Ev>
  406879:	48 8b 45 c0          	mov    -0x40(%rbp),%rax
  40687d:	48 8b 00             	mov    (%rax),%rax
  406880:	48 8b 00             	mov    (%rax),%rax
  406883:	48 8b 55 c0          	mov    -0x40(%rbp),%rdx
  406887:	48 89 d7             	mov    %rdx,%rdi
  40688a:	ff d0                	callq  *%rax
  40688c:	48 89 45 e0          	mov    %rax,-0x20(%rbp)
  406890:	48 8b 45 e0          	mov    -0x20(%rbp),%rax
  406894:	48 8b 00             	mov    (%rax),%rax
  406897:	48 83 c0 68          	add    $0x68,%rax
  40689b:	48 8b 00             	mov    (%rax),%rax
  40689e:	48 8b 55 e0          	mov    -0x20(%rbp),%rdx
  4068a2:	48 89 d7             	mov    %rdx,%rdi
  4068a5:	ff d0                	callq  *%rax
  4068a7:	48 89 45 e8          	mov    %rax,-0x18(%rbp)
  4068ab:	48 8b 45 c0          	mov    -0x40(%rbp),%rax
  4068af:	48 8b 00             	mov    (%rax),%rax
  4068b2:	48 83 c0 20          	add    $0x20,%rax
  4068b6:	48 8b 00             	mov    (%rax),%rax
  4068b9:	48 8b 55 c0          	mov    -0x40(%rbp),%rdx
  4068bd:	48 89 d7             	mov    %rdx,%rdi
  4068c0:	ff d0                	callq  *%rax
  4068c2:	48 89 c3             	mov    %rax,%rbx
  4068c5:	48 8b 45 e0          	mov    -0x20(%rbp),%rax
  4068c9:	48 8b 00             	mov    (%rax),%rax
  4068cc:	48 83 c0 70          	add    $0x70,%rax
  4068d0:	48 8b 00             	mov    (%rax),%rax
  4068d3:	48 8b 55 e0          	mov    -0x20(%rbp),%rdx
  4068d7:	48 89 d7             	mov    %rdx,%rdi
  4068da:	ff d0                	callq  *%rax
  4068dc:	48 8d 14 03          	lea    (%rbx,%rax,1),%rdx
  4068e0:	48 8b 45 c8          	mov    -0x38(%rbp),%rax
  4068e4:	48 89 10             	mov    %rdx,(%rax)
  4068e7:	c7 45 d8 00 00 00 00 	movl   $0x0,-0x28(%rbp)
  4068ee:	8b 5d d8             	mov    -0x28(%rbp),%ebx
  4068f1:	48 8b 45 e0          	mov    -0x20(%rbp),%rax
  4068f5:	48 8b 00             	mov    (%rax),%rax
  4068f8:	48 05 90 00 00 00    	add    $0x90,%rax
  4068fe:	48 8b 00             	mov    (%rax),%rax
  406901:	48 8b 55 e0          	mov    -0x20(%rbp),%rdx
  406905:	48 89 d7             	mov    %rdx,%rdi
  406908:	ff d0                	callq  *%rax
  40690a:	48 39 c3             	cmp    %rax,%rbx
  40690d:	0f 92 c0             	setb   %al
  406910:	84 c0                	test   %al,%al
  406912:	0f 84 ac 00 00 00    	je     4069c4 <_ZN11arm_compute8IteratorC1EPKNS_7ITensorERKNS_6WindowE+0x16e>
  406918:	8b 45 d8             	mov    -0x28(%rbp),%eax
  40691b:	48 8b 55 c8          	mov    -0x38(%rbp),%rdx
  40691f:	48 83 c2 08          	add    $0x8,%rdx
  406923:	48 89 c6             	mov    %rax,%rsi
  406926:	48 89 d7             	mov    %rdx,%rdi
  406929:	e8 66 1d 00 00       	callq  408694 <_ZNSt5arrayIN11arm_compute8Iterator9DimensionELm6EEixEm>
  40692e:	48 89 c3             	mov    %rax,%rbx
  406931:	8b 55 d8             	mov    -0x28(%rbp),%edx
  406934:	48 8b 45 b8          	mov    -0x48(%rbp),%rax
  406938:	48 89 d6             	mov    %rdx,%rsi
  40693b:	48 89 c7             	mov    %rax,%rdi
  40693e:	e8 bb fc ff ff       	callq  4065fe <_ZNK11arm_compute6WindowixEm>
  406943:	48 89 c7             	mov    %rax,%rdi
  406946:	e8 31 fc ff ff       	callq  40657c <_ZNK11arm_compute6Window9Dimension4stepEv>
  40694b:	48 98                	cltq   
  40694d:	41 89 c4             	mov    %eax,%r12d
  406950:	8b 55 d8             	mov    -0x28(%rbp),%edx
  406953:	48 8b 45 e8          	mov    -0x18(%rbp),%rax
  406957:	48 89 d6             	mov    %rdx,%rsi
  40695a:	48 89 c7             	mov    %rax,%rdi
  40695d:	e8 bc 1c 00 00       	callq  40861e <_ZNK11arm_compute10DimensionsImEixEm>
  406962:	48 8b 00             	mov    (%rax),%rax
  406965:	41 0f af c4          	imul   %r12d,%eax
  406969:	89 43 04             	mov    %eax,0x4(%rbx)
  40696c:	8b 55 d8             	mov    -0x28(%rbp),%edx
  40696f:	48 8b 45 e8          	mov    -0x18(%rbp),%rax
  406973:	48 89 d6             	mov    %rdx,%rsi
  406976:	48 89 c7             	mov    %rax,%rdi
  406979:	e8 a0 1c 00 00       	callq  40861e <_ZNK11arm_compute10DimensionsImEixEm>
  40697e:	48 8b 18             	mov    (%rax),%rbx
  406981:	8b 55 d8             	mov    -0x28(%rbp),%edx
  406984:	48 8b 45 b8          	mov    -0x48(%rbp),%rax
  406988:	48 89 d6             	mov    %rdx,%rsi
  40698b:	48 89 c7             	mov    %rax,%rdi
  40698e:	e8 6b fc ff ff       	callq  4065fe <_ZNK11arm_compute6WindowixEm>
  406993:	48 89 c7             	mov    %rax,%rdi
  406996:	e8 bf fb ff ff       	callq  40655a <_ZNK11arm_compute6Window9Dimension5startEv>
  40699b:	48 98                	cltq   
  40699d:	48 0f af d8          	imul   %rax,%rbx
  4069a1:	48 8b 45 c8          	mov    -0x38(%rbp),%rax
  4069a5:	48 83 c0 08          	add    $0x8,%rax
  4069a9:	48 89 c7             	mov    %rax,%rdi
  4069ac:	e8 86 fe ff ff       	callq  406837 <_ZSt3getILm0EN11arm_compute8Iterator9DimensionELm6EERT0_RSt5arrayIS3_XT1_EE>
  4069b1:	8b 10                	mov    (%rax),%edx
  4069b3:	89 d1                	mov    %edx,%ecx
  4069b5:	89 da                	mov    %ebx,%edx
  4069b7:	01 ca                	add    %ecx,%edx
  4069b9:	89 10                	mov    %edx,(%rax)
  4069bb:	83 45 d8 01          	addl   $0x1,-0x28(%rbp)
  4069bf:	e9 2a ff ff ff       	jmpq   4068ee <_ZN11arm_compute8IteratorC1EPKNS_7ITensorERKNS_6WindowE+0x98>
  4069c4:	c7 45 dc 01 00 00 00 	movl   $0x1,-0x24(%rbp)
  4069cb:	83 7d dc 05          	cmpl   $0x5,-0x24(%rbp)
  4069cf:	77 33                	ja     406a04 <_ZN11arm_compute8IteratorC1EPKNS_7ITensorERKNS_6WindowE+0x1ae>
  4069d1:	8b 45 dc             	mov    -0x24(%rbp),%eax
  4069d4:	48 8b 55 c8          	mov    -0x38(%rbp),%rdx
  4069d8:	48 83 c2 08          	add    $0x8,%rdx
  4069dc:	48 89 c6             	mov    %rax,%rsi
  4069df:	48 89 d7             	mov    %rdx,%rdi
  4069e2:	e8 ad 1c 00 00       	callq  408694 <_ZNSt5arrayIN11arm_compute8Iterator9DimensionELm6EEixEm>
  4069e7:	48 89 c3             	mov    %rax,%rbx
  4069ea:	48 8b 45 c8          	mov    -0x38(%rbp),%rax
  4069ee:	48 83 c0 08          	add    $0x8,%rax
  4069f2:	48 89 c7             	mov    %rax,%rdi
  4069f5:	e8 3d fe ff ff       	callq  406837 <_ZSt3getILm0EN11arm_compute8Iterator9DimensionELm6EERT0_RSt5arrayIS3_XT1_EE>
  4069fa:	8b 00                	mov    (%rax),%eax
  4069fc:	89 03                	mov    %eax,(%rbx)
  4069fe:	83 45 dc 01          	addl   $0x1,-0x24(%rbp)
  406a02:	eb c7                	jmp    4069cb <_ZN11arm_compute8IteratorC1EPKNS_7ITensorERKNS_6WindowE+0x175>
  406a04:	90                   	nop
  406a05:	48 83 c4 40          	add    $0x40,%rsp
  406a09:	5b                   	pop    %rbx
  406a0a:	41 5c                	pop    %r12
  406a0c:	5d                   	pop    %rbp
  406a0d:	c3                   	retq   

0000000000406a0e <_ZN11arm_compute8Iterator9incrementEm>:
  406a0e:	55                   	push   %rbp
  406a0f:	48 89 e5             	mov    %rsp,%rbp
  406a12:	53                   	push   %rbx
  406a13:	48 83 ec 28          	sub    $0x28,%rsp
  406a17:	48 89 7d d8          	mov    %rdi,-0x28(%rbp)
  406a1b:	48 89 75 d0          	mov    %rsi,-0x30(%rbp)
  406a1f:	48 8b 45 d8          	mov    -0x28(%rbp),%rax
  406a23:	48 8d 50 08          	lea    0x8(%rax),%rdx
  406a27:	48 8b 45 d0          	mov    -0x30(%rbp),%rax
  406a2b:	48 89 c6             	mov    %rax,%rsi
  406a2e:	48 89 d7             	mov    %rdx,%rdi
  406a31:	e8 5e 1c 00 00       	callq  408694 <_ZNSt5arrayIN11arm_compute8Iterator9DimensionELm6EEixEm>
  406a36:	8b 58 04             	mov    0x4(%rax),%ebx
  406a39:	48 8b 45 d8          	mov    -0x28(%rbp),%rax
  406a3d:	48 8d 50 08          	lea    0x8(%rax),%rdx
  406a41:	48 8b 45 d0          	mov    -0x30(%rbp),%rax
  406a45:	48 89 c6             	mov    %rax,%rsi
  406a48:	48 89 d7             	mov    %rdx,%rdi
  406a4b:	e8 44 1c 00 00       	callq  408694 <_ZNSt5arrayIN11arm_compute8Iterator9DimensionELm6EEixEm>
  406a50:	8b 10                	mov    (%rax),%edx
  406a52:	01 da                	add    %ebx,%edx
  406a54:	89 10                	mov    %edx,(%rax)
  406a56:	c7 45 ec 00 00 00 00 	movl   $0x0,-0x14(%rbp)
  406a5d:	8b 45 ec             	mov    -0x14(%rbp),%eax
  406a60:	48 3b 45 d0          	cmp    -0x30(%rbp),%rax
  406a64:	73 3a                	jae    406aa0 <_ZN11arm_compute8Iterator9incrementEm+0x92>
  406a66:	8b 45 ec             	mov    -0x14(%rbp),%eax
  406a69:	48 8b 55 d8          	mov    -0x28(%rbp),%rdx
  406a6d:	48 83 c2 08          	add    $0x8,%rdx
  406a71:	48 89 c6             	mov    %rax,%rsi
  406a74:	48 89 d7             	mov    %rdx,%rdi
  406a77:	e8 18 1c 00 00       	callq  408694 <_ZNSt5arrayIN11arm_compute8Iterator9DimensionELm6EEixEm>
  406a7c:	48 89 c3             	mov    %rax,%rbx
  406a7f:	48 8b 45 d8          	mov    -0x28(%rbp),%rax
  406a83:	48 8d 50 08          	lea    0x8(%rax),%rdx
  406a87:	48 8b 45 d0          	mov    -0x30(%rbp),%rax
  406a8b:	48 89 c6             	mov    %rax,%rsi
  406a8e:	48 89 d7             	mov    %rdx,%rdi
  406a91:	e8 fe 1b 00 00       	callq  408694 <_ZNSt5arrayIN11arm_compute8Iterator9DimensionELm6EEixEm>
  406a96:	8b 00                	mov    (%rax),%eax
  406a98:	89 03                	mov    %eax,(%rbx)
  406a9a:	83 45 ec 01          	addl   $0x1,-0x14(%rbp)
  406a9e:	eb bd                	jmp    406a5d <_ZN11arm_compute8Iterator9incrementEm+0x4f>
  406aa0:	90                   	nop
  406aa1:	48 83 c4 28          	add    $0x28,%rsp
  406aa5:	5b                   	pop    %rbx
  406aa6:	5d                   	pop    %rbp
  406aa7:	c3                   	retq   

0000000000406aa8 <_ZNKSt5arrayIN11arm_compute8Iterator9DimensionELm6EE2atEm>:
  406aa8:	55                   	push   %rbp
  406aa9:	48 89 e5             	mov    %rsp,%rbp
  406aac:	48 83 ec 10          	sub    $0x10,%rsp
  406ab0:	48 89 7d f8          	mov    %rdi,-0x8(%rbp)
  406ab4:	48 89 75 f0          	mov    %rsi,-0x10(%rbp)
  406ab8:	48 83 7d f0 05       	cmpq   $0x5,-0x10(%rbp)
  406abd:	77 15                	ja     406ad4 <_ZNKSt5arrayIN11arm_compute8Iterator9DimensionELm6EE2atEm+0x2c>
  406abf:	48 8b 45 f8          	mov    -0x8(%rbp),%rax
  406ac3:	48 8b 55 f0          	mov    -0x10(%rbp),%rdx
  406ac7:	48 89 d6             	mov    %rdx,%rsi
  406aca:	48 89 c7             	mov    %rax,%rdi
  406acd:	e8 44 fd ff ff       	callq  406816 <_ZNSt14__array_traitsIN11arm_compute8Iterator9DimensionELm6EE6_S_refERA6_KS2_m>
  406ad2:	eb 1b                	jmp    406aef <_ZNKSt5arrayIN11arm_compute8Iterator9DimensionELm6EE2atEm+0x47>
  406ad4:	48 8b 45 f0          	mov    -0x10(%rbp),%rax
  406ad8:	ba 06 00 00 00       	mov    $0x6,%edx
  406add:	48 89 c6             	mov    %rax,%rsi
  406ae0:	bf c0 02 41 00       	mov    $0x4102c0,%edi
  406ae5:	b8 00 00 00 00       	mov    $0x0,%eax
  406aea:	e8 11 ce ff ff       	callq  403900 <_ZSt24__throw_out_of_range_fmtPKcz@plt>
  406aef:	c9                   	leaveq 
  406af0:	c3                   	retq   
  406af1:	90                   	nop

0000000000406af2 <_ZNK11arm_compute8Iterator3ptrEv>:
  406af2:	55                   	push   %rbp
  406af3:	48 89 e5             	mov    %rsp,%rbp
  406af6:	53                   	push   %rbx
  406af7:	48 83 ec 18          	sub    $0x18,%rsp
  406afb:	48 89 7d e8          	mov    %rdi,-0x18(%rbp)
  406aff:	48 8b 45 e8          	mov    -0x18(%rbp),%rax
  406b03:	48 8b 18             	mov    (%rax),%rbx
  406b06:	48 8b 45 e8          	mov    -0x18(%rbp),%rax
  406b0a:	48 83 c0 08          	add    $0x8,%rax
  406b0e:	be 00 00 00 00       	mov    $0x0,%esi
  406b13:	48 89 c7             	mov    %rax,%rdi
  406b16:	e8 8d ff ff ff       	callq  406aa8 <_ZNKSt5arrayIN11arm_compute8Iterator9DimensionELm6EE2atEm>
  406b1b:	8b 00                	mov    (%rax),%eax
  406b1d:	48 98                	cltq   
  406b1f:	48 01 d8             	add    %rbx,%rax
  406b22:	48 83 c4 18          	add    $0x18,%rsp
  406b26:	5b                   	pop    %rbx
  406b27:	5d                   	pop    %rbp
  406b28:	c3                   	retq   
  406b29:	90                   	nop

0000000000406b2a <_ZN11arm_compute11CLScheduler12default_initEPNS_8ICLTunerE>:
  406b2a:	55                   	push   %rbp
  406b2b:	48 89 e5             	mov    %rsp,%rbp
  406b2e:	53                   	push   %rbx
  406b2f:	48 83 ec 68          	sub    $0x68,%rsp
  406b33:	48 89 7d 98          	mov    %rdi,-0x68(%rbp)
  406b37:	48 89 75 90          	mov    %rsi,-0x70(%rbp)
  406b3b:	64 48 8b 04 25 28 00 	mov    %fs:0x28,%rax
  406b42:	00 00 
  406b44:	48 89 45 e8          	mov    %rax,-0x18(%rbp)
  406b48:	31 c0                	xor    %eax,%eax
  406b4a:	48 8b 45 98          	mov    -0x68(%rbp),%rax
  406b4e:	0f b6 40 14          	movzbl 0x14(%rax),%eax
  406b52:	83 f0 01             	xor    $0x1,%eax
  406b55:	84 c0                	test   %al,%al
  406b57:	0f 84 0a 01 00 00    	je     406c67 <_ZN11arm_compute11CLScheduler12default_initEPNS_8ICLTunerE+0x13d>
  406b5d:	48 8d 45 b0          	lea    -0x50(%rbp),%rax
  406b61:	be 00 00 00 00       	mov    $0x0,%esi
  406b66:	48 89 c7             	mov    %rax,%rdi
  406b69:	e8 61 e2 ff ff       	callq  404dcf <_ZN2cl6Device10getDefaultEPi>
  406b6e:	48 8d 45 a8          	lea    -0x58(%rbp),%rax
  406b72:	be 00 00 00 00       	mov    $0x0,%esi
  406b77:	48 89 c7             	mov    %rax,%rdi
  406b7a:	e8 87 f0 ff ff       	callq  405c06 <_ZN2cl7Context10getDefaultEPi>
  406b7f:	48 8d 45 a0          	lea    -0x60(%rbp),%rax
  406b83:	48 89 c7             	mov    %rax,%rdi
  406b86:	e8 55 ce ff ff       	callq  4039e0 <_ZNSaIcEC1Ev@plt>
  406b8b:	48 8d 55 a0          	lea    -0x60(%rbp),%rdx
  406b8f:	48 8d 45 c0          	lea    -0x40(%rbp),%rax
  406b93:	be f8 02 41 00       	mov    $0x4102f8,%esi
  406b98:	48 89 c7             	mov    %rax,%rdi
  406b9b:	e8 10 cd ff ff       	callq  4038b0 <_ZNSt7__cxx1112basic_stringIcSt11char_traitsIcESaIcEEC1EPKcRKS3_@plt>
  406ba0:	e8 2b cb ff ff       	callq  4036d0 <_ZN11arm_compute15CLKernelLibrary3getEv@plt>
  406ba5:	48 89 c7             	mov    %rax,%rdi
  406ba8:	48 8d 4d b0          	lea    -0x50(%rbp),%rcx
  406bac:	48 8d 55 a8          	lea    -0x58(%rbp),%rdx
  406bb0:	48 8d 45 c0          	lea    -0x40(%rbp),%rax
  406bb4:	48 89 c6             	mov    %rax,%rsi
  406bb7:	e8 20 f6 ff ff       	callq  4061dc <_ZN11arm_compute15CLKernelLibrary4initENSt7__cxx1112basic_stringIcSt11char_traitsIcESaIcEEEN2cl7ContextENS7_6DeviceE>
  406bbc:	48 8d 45 c0          	lea    -0x40(%rbp),%rax
  406bc0:	48 89 c7             	mov    %rax,%rdi
  406bc3:	e8 28 cb ff ff       	callq  4036f0 <_ZNSt7__cxx1112basic_stringIcSt11char_traitsIcESaIcEED1Ev@plt>
  406bc8:	48 8d 45 a0          	lea    -0x60(%rbp),%rax
  406bcc:	48 89 c7             	mov    %rax,%rdi
  406bcf:	e8 9c cb ff ff       	callq  403770 <_ZNSaIcED1Ev@plt>
  406bd4:	48 8d 45 a8          	lea    -0x58(%rbp),%rax
  406bd8:	48 89 c7             	mov    %rax,%rdi
  406bdb:	e8 8c ea ff ff       	callq  40566c <_ZN2cl7ContextD1Ev>
  406be0:	48 8d 45 b0          	lea    -0x50(%rbp),%rax
  406be4:	48 89 c7             	mov    %rax,%rdi
  406be7:	e8 c8 e1 ff ff       	callq  404db4 <_ZN2cl6DeviceD1Ev>
  406bec:	48 8d 45 b0          	lea    -0x50(%rbp),%rax
  406bf0:	be 00 00 00 00       	mov    $0x0,%esi
  406bf5:	48 89 c7             	mov    %rax,%rdi
  406bf8:	e8 d2 e1 ff ff       	callq  404dcf <_ZN2cl6Device10getDefaultEPi>
  406bfd:	48 8d 45 a8          	lea    -0x58(%rbp),%rax
  406c01:	be 00 00 00 00       	mov    $0x0,%esi
  406c06:	48 89 c7             	mov    %rax,%rdi
  406c09:	e8 b6 f4 ff ff       	callq  4060c4 <_ZN2cl12CommandQueue10getDefaultEPi>
  406c0e:	48 8d 45 a0          	lea    -0x60(%rbp),%rax
  406c12:	be 00 00 00 00       	mov    $0x0,%esi
  406c17:	48 89 c7             	mov    %rax,%rdi
  406c1a:	e8 e7 ef ff ff       	callq  405c06 <_ZN2cl7Context10getDefaultEPi>
  406c1f:	48 8b 7d 90          	mov    -0x70(%rbp),%rdi
  406c23:	48 8d 4d b0          	lea    -0x50(%rbp),%rcx
  406c27:	48 8d 55 a8          	lea    -0x58(%rbp),%rdx
  406c2b:	48 8d 75 a0          	lea    -0x60(%rbp),%rsi
  406c2f:	48 8b 45 98          	mov    -0x68(%rbp),%rax
  406c33:	49 89 f8             	mov    %rdi,%r8
  406c36:	48 89 c7             	mov    %rax,%rdi
  406c39:	e8 da 00 00 00       	callq  406d18 <_ZN11arm_compute11CLScheduler4initEN2cl7ContextENS1_12CommandQueueENS1_6DeviceEPNS_8ICLTunerE>
  406c3e:	48 8d 45 a0          	lea    -0x60(%rbp),%rax
  406c42:	48 89 c7             	mov    %rax,%rdi
  406c45:	e8 22 ea ff ff       	callq  40566c <_ZN2cl7ContextD1Ev>
  406c4a:	48 8d 45 a8          	lea    -0x58(%rbp),%rax
  406c4e:	48 89 c7             	mov    %rax,%rdi
  406c51:	e8 52 f2 ff ff       	callq  405ea8 <_ZN2cl12CommandQueueD1Ev>
  406c56:	48 8d 45 b0          	lea    -0x50(%rbp),%rax
  406c5a:	48 89 c7             	mov    %rax,%rdi
  406c5d:	e8 52 e1 ff ff       	callq  404db4 <_ZN2cl6DeviceD1Ev>
  406c62:	e9 95 00 00 00       	jmpq   406cfc <_ZN11arm_compute11CLScheduler12default_initEPNS_8ICLTunerE+0x1d2>
  406c67:	48 8b 45 98          	mov    -0x68(%rbp),%rax
  406c6b:	48 8b 55 90          	mov    -0x70(%rbp),%rdx
  406c6f:	48 89 50 18          	mov    %rdx,0x18(%rax)
  406c73:	e9 84 00 00 00       	jmpq   406cfc <_ZN11arm_compute11CLScheduler12default_initEPNS_8ICLTunerE+0x1d2>
  406c78:	48 89 c3             	mov    %rax,%rbx
  406c7b:	48 8d 45 c0          	lea    -0x40(%rbp),%rax
  406c7f:	48 89 c7             	mov    %rax,%rdi
  406c82:	e8 69 ca ff ff       	callq  4036f0 <_ZNSt7__cxx1112basic_stringIcSt11char_traitsIcESaIcEED1Ev@plt>
  406c87:	eb 03                	jmp    406c8c <_ZN11arm_compute11CLScheduler12default_initEPNS_8ICLTunerE+0x162>
  406c89:	48 89 c3             	mov    %rax,%rbx
  406c8c:	48 8d 45 a0          	lea    -0x60(%rbp),%rax
  406c90:	48 89 c7             	mov    %rax,%rdi
  406c93:	e8 d8 ca ff ff       	callq  403770 <_ZNSaIcED1Ev@plt>
  406c98:	48 8d 45 a8          	lea    -0x58(%rbp),%rax
  406c9c:	48 89 c7             	mov    %rax,%rdi
  406c9f:	e8 c8 e9 ff ff       	callq  40566c <_ZN2cl7ContextD1Ev>
  406ca4:	eb 03                	jmp    406ca9 <_ZN11arm_compute11CLScheduler12default_initEPNS_8ICLTunerE+0x17f>
  406ca6:	48 89 c3             	mov    %rax,%rbx
  406ca9:	48 8d 45 b0          	lea    -0x50(%rbp),%rax
  406cad:	48 89 c7             	mov    %rax,%rdi
  406cb0:	e8 ff e0 ff ff       	callq  404db4 <_ZN2cl6DeviceD1Ev>
  406cb5:	48 89 d8             	mov    %rbx,%rax
  406cb8:	48 89 c7             	mov    %rax,%rdi
  406cbb:	e8 10 cd ff ff       	callq  4039d0 <_Unwind_Resume@plt>
  406cc0:	48 89 c3             	mov    %rax,%rbx
  406cc3:	48 8d 45 a0          	lea    -0x60(%rbp),%rax
  406cc7:	48 89 c7             	mov    %rax,%rdi
  406cca:	e8 9d e9 ff ff       	callq  40566c <_ZN2cl7ContextD1Ev>
  406ccf:	eb 03                	jmp    406cd4 <_ZN11arm_compute11CLScheduler12default_initEPNS_8ICLTunerE+0x1aa>
  406cd1:	48 89 c3             	mov    %rax,%rbx
  406cd4:	48 8d 45 a8          	lea    -0x58(%rbp),%rax
  406cd8:	48 89 c7             	mov    %rax,%rdi
  406cdb:	e8 c8 f1 ff ff       	callq  405ea8 <_ZN2cl12CommandQueueD1Ev>
  406ce0:	eb 03                	jmp    406ce5 <_ZN11arm_compute11CLScheduler12default_initEPNS_8ICLTunerE+0x1bb>
  406ce2:	48 89 c3             	mov    %rax,%rbx
  406ce5:	48 8d 45 b0          	lea    -0x50(%rbp),%rax
  406ce9:	48 89 c7             	mov    %rax,%rdi
  406cec:	e8 c3 e0 ff ff       	callq  404db4 <_ZN2cl6DeviceD1Ev>
  406cf1:	48 89 d8             	mov    %rbx,%rax
  406cf4:	48 89 c7             	mov    %rax,%rdi
  406cf7:	e8 d4 cc ff ff       	callq  4039d0 <_Unwind_Resume@plt>
  406cfc:	48 8b 45 e8          	mov    -0x18(%rbp),%rax
  406d00:	64 48 33 04 25 28 00 	xor    %fs:0x28,%rax
  406d07:	00 00 
  406d09:	74 05                	je     406d10 <_ZN11arm_compute11CLScheduler12default_initEPNS_8ICLTunerE+0x1e6>
  406d0b:	e8 70 ca ff ff       	callq  403780 <__stack_chk_fail@plt>
  406d10:	48 83 c4 68          	add    $0x68,%rsp
  406d14:	5b                   	pop    %rbx
  406d15:	5d                   	pop    %rbp
  406d16:	c3                   	retq   
  406d17:	90                   	nop

0000000000406d18 <_ZN11arm_compute11CLScheduler4initEN2cl7ContextENS1_12CommandQueueENS1_6DeviceEPNS_8ICLTunerE>:
  406d18:	55                   	push   %rbp
  406d19:	48 89 e5             	mov    %rsp,%rbp
  406d1c:	48 83 ec 30          	sub    $0x30,%rsp
  406d20:	48 89 7d f8          	mov    %rdi,-0x8(%rbp)
  406d24:	48 89 75 f0          	mov    %rsi,-0x10(%rbp)
  406d28:	48 89 55 e8          	mov    %rdx,-0x18(%rbp)
  406d2c:	48 89 4d e0          	mov    %rcx,-0x20(%rbp)
  406d30:	4c 89 45 d8          	mov    %r8,-0x28(%rbp)
  406d34:	48 8b 45 f0          	mov    -0x10(%rbp),%rax
  406d38:	48 89 c7             	mov    %rax,%rdi
  406d3b:	e8 83 ee ff ff       	callq  405bc3 <_ZSt4moveIRN2cl7ContextEEONSt16remove_referenceIT_E4typeEOS4_>
  406d40:	48 89 c2             	mov    %rax,%rdx
  406d43:	48 8b 45 f8          	mov    -0x8(%rbp),%rax
  406d47:	48 89 d6             	mov    %rdx,%rsi
  406d4a:	48 89 c7             	mov    %rax,%rdi
  406d4d:	e8 80 ee ff ff       	callq  405bd2 <_ZN2cl7ContextaSEOS0_>
  406d52:	48 8b 45 e8          	mov    -0x18(%rbp),%rax
  406d56:	48 89 c7             	mov    %rax,%rdi
  406d59:	e8 04 f4 ff ff       	callq  406162 <_ZSt4moveIRN2cl12CommandQueueEEONSt16remove_referenceIT_E4typeEOS4_>
  406d5e:	48 89 c2             	mov    %rax,%rdx
  406d61:	48 8b 45 f8          	mov    -0x8(%rbp),%rax
  406d65:	48 83 c0 08          	add    $0x8,%rax
  406d69:	48 89 d6             	mov    %rdx,%rsi
  406d6c:	48 89 c7             	mov    %rax,%rdi
  406d6f:	e8 fc f3 ff ff       	callq  406170 <_ZN2cl12CommandQueueaSEOS0_>
  406d74:	48 8b 45 e0          	mov    -0x20(%rbp),%rax
  406d78:	48 89 c7             	mov    %rax,%rdi
  406d7b:	e8 f0 ca ff ff       	callq  403870 <_ZN11arm_compute22get_target_from_deviceERN2cl6DeviceE@plt>
  406d80:	89 c2                	mov    %eax,%edx
  406d82:	48 8b 45 f8          	mov    -0x8(%rbp),%rax
  406d86:	89 50 10             	mov    %edx,0x10(%rax)
  406d89:	48 8b 45 f8          	mov    -0x8(%rbp),%rax
  406d8d:	c6 40 14 01          	movb   $0x1,0x14(%rax)
  406d91:	48 8b 45 f8          	mov    -0x8(%rbp),%rax
  406d95:	48 8b 55 d8          	mov    -0x28(%rbp),%rdx
  406d99:	48 89 50 18          	mov    %rdx,0x18(%rax)
  406d9d:	90                   	nop
  406d9e:	c9                   	leaveq 
  406d9f:	c3                   	retq   

0000000000406da0 <_ZN11arm_compute11CLScheduler4syncEv>:
  406da0:	55                   	push   %rbp
  406da1:	48 89 e5             	mov    %rsp,%rbp
  406da4:	48 83 ec 10          	sub    $0x10,%rsp
  406da8:	48 89 7d f8          	mov    %rdi,-0x8(%rbp)
  406dac:	48 8b 45 f8          	mov    -0x8(%rbp),%rax
  406db0:	48 83 c0 08          	add    $0x8,%rax
  406db4:	48 89 c7             	mov    %rax,%rdi
  406db7:	e8 e8 f3 ff ff       	callq  4061a4 <_ZNK2cl12CommandQueue6finishEv>
  406dbc:	90                   	nop
  406dbd:	c9                   	leaveq 
  406dbe:	c3                   	retq   

0000000000406dbf <_ZN2CK5Shape9make_nchwEiiii>:
  406dbf:	55                   	push   %rbp
  406dc0:	48 89 e5             	mov    %rsp,%rbp
  406dc3:	48 83 ec 30          	sub    $0x30,%rsp
  406dc7:	89 7d dc             	mov    %edi,-0x24(%rbp)
  406dca:	89 75 d8             	mov    %esi,-0x28(%rbp)
  406dcd:	89 55 d4             	mov    %edx,-0x2c(%rbp)
  406dd0:	89 4d d0             	mov    %ecx,-0x30(%rbp)
  406dd3:	64 48 8b 04 25 28 00 	mov    %fs:0x28,%rax
  406dda:	00 00 
  406ddc:	48 89 45 f8          	mov    %rax,-0x8(%rbp)
  406de0:	31 c0                	xor    %eax,%eax
  406de2:	c7 45 e0 01 00 00 00 	movl   $0x1,-0x20(%rbp)
  406de9:	c7 45 e4 01 00 00 00 	movl   $0x1,-0x1c(%rbp)
  406df0:	c7 45 e8 01 00 00 00 	movl   $0x1,-0x18(%rbp)
  406df7:	c7 45 ec 01 00 00 00 	movl   $0x1,-0x14(%rbp)
  406dfe:	8b 45 dc             	mov    -0x24(%rbp),%eax
  406e01:	89 45 e0             	mov    %eax,-0x20(%rbp)
  406e04:	8b 45 d8             	mov    -0x28(%rbp),%eax
  406e07:	89 45 e4             	mov    %eax,-0x1c(%rbp)
  406e0a:	8b 45 d4             	mov    -0x2c(%rbp),%eax
  406e0d:	89 45 e8             	mov    %eax,-0x18(%rbp)
  406e10:	8b 45 d0             	mov    -0x30(%rbp),%eax
  406e13:	89 45 ec             	mov    %eax,-0x14(%rbp)
  406e16:	48 8b 45 e0          	mov    -0x20(%rbp),%rax
  406e1a:	48 8b 55 e8          	mov    -0x18(%rbp),%rdx
  406e1e:	48 8b 4d f8          	mov    -0x8(%rbp),%rcx
  406e22:	64 48 33 0c 25 28 00 	xor    %fs:0x28,%rcx
  406e29:	00 00 
  406e2b:	74 05                	je     406e32 <_ZN2CK5Shape9make_nchwEiiii+0x73>
  406e2d:	e8 4e c9 ff ff       	callq  403780 <__stack_chk_fail@plt>
  406e32:	c9                   	leaveq 
  406e33:	c3                   	retq   

0000000000406e34 <_ZN2CK5Shape8make_chwEiii>:
  406e34:	55                   	push   %rbp
  406e35:	48 89 e5             	mov    %rsp,%rbp
  406e38:	48 83 ec 10          	sub    $0x10,%rsp
  406e3c:	89 7d fc             	mov    %edi,-0x4(%rbp)
  406e3f:	89 75 f8             	mov    %esi,-0x8(%rbp)
  406e42:	89 55 f4             	mov    %edx,-0xc(%rbp)
  406e45:	8b 4d f4             	mov    -0xc(%rbp),%ecx
  406e48:	8b 55 f8             	mov    -0x8(%rbp),%edx
  406e4b:	8b 45 fc             	mov    -0x4(%rbp),%eax
  406e4e:	89 c6                	mov    %eax,%esi
  406e50:	bf 01 00 00 00       	mov    $0x1,%edi
  406e55:	e8 65 ff ff ff       	callq  406dbf <_ZN2CK5Shape9make_nchwEiiii>
  406e5a:	c9                   	leaveq 
  406e5b:	c3                   	retq   

0000000000406e5c <_ZNK2CK5Shape10data_countEv>:
  406e5c:	55                   	push   %rbp
  406e5d:	48 89 e5             	mov    %rsp,%rbp
  406e60:	48 89 7d f8          	mov    %rdi,-0x8(%rbp)
  406e64:	48 8b 45 f8          	mov    -0x8(%rbp),%rax
  406e68:	8b 10                	mov    (%rax),%edx
  406e6a:	48 8b 45 f8          	mov    -0x8(%rbp),%rax
  406e6e:	8b 40 04             	mov    0x4(%rax),%eax
  406e71:	0f af d0             	imul   %eax,%edx
  406e74:	48 8b 45 f8          	mov    -0x8(%rbp),%rax
  406e78:	8b 40 08             	mov    0x8(%rax),%eax
  406e7b:	0f af d0             	imul   %eax,%edx
  406e7e:	48 8b 45 f8          	mov    -0x8(%rbp),%rax
  406e82:	8b 40 0c             	mov    0xc(%rax),%eax
  406e85:	0f af c2             	imul   %edx,%eax
  406e88:	5d                   	pop    %rbp
  406e89:	c3                   	retq   

0000000000406e8a <_ZNK2CK5Shape14get_flat_indexEiiii>:
  406e8a:	55                   	push   %rbp
  406e8b:	48 89 e5             	mov    %rsp,%rbp
  406e8e:	48 83 ec 20          	sub    $0x20,%rsp
  406e92:	48 89 7d f8          	mov    %rdi,-0x8(%rbp)
  406e96:	89 75 f4             	mov    %esi,-0xc(%rbp)
  406e99:	89 55 f0             	mov    %edx,-0x10(%rbp)
  406e9c:	89 4d ec             	mov    %ecx,-0x14(%rbp)
  406e9f:	44 89 45 e8          	mov    %r8d,-0x18(%rbp)
  406ea3:	8b 7d e8             	mov    -0x18(%rbp),%edi
  406ea6:	8b 4d ec             	mov    -0x14(%rbp),%ecx
  406ea9:	8b 55 f0             	mov    -0x10(%rbp),%edx
  406eac:	8b 75 f4             	mov    -0xc(%rbp),%esi
  406eaf:	48 8b 45 f8          	mov    -0x8(%rbp),%rax
  406eb3:	41 89 f8             	mov    %edi,%r8d
  406eb6:	48 89 c7             	mov    %rax,%rdi
  406eb9:	e8 02 00 00 00       	callq  406ec0 <_ZNK2CK5Shape19get_flat_index_nchwEiiii>
  406ebe:	c9                   	leaveq 
  406ebf:	c3                   	retq   

0000000000406ec0 <_ZNK2CK5Shape19get_flat_index_nchwEiiii>:
  406ec0:	55                   	push   %rbp
  406ec1:	48 89 e5             	mov    %rsp,%rbp
  406ec4:	48 89 7d f8          	mov    %rdi,-0x8(%rbp)
  406ec8:	89 75 f4             	mov    %esi,-0xc(%rbp)
  406ecb:	89 55 f0             	mov    %edx,-0x10(%rbp)
  406ece:	89 4d ec             	mov    %ecx,-0x14(%rbp)
  406ed1:	44 89 45 e8          	mov    %r8d,-0x18(%rbp)
  406ed5:	48 8b 45 f8          	mov    -0x8(%rbp),%rax
  406ed9:	8b 40 04             	mov    0x4(%rax),%eax
  406edc:	0f af 45 f4          	imul   -0xc(%rbp),%eax
  406ee0:	89 c2                	mov    %eax,%edx
  406ee2:	8b 45 f0             	mov    -0x10(%rbp),%eax
  406ee5:	01 c2                	add    %eax,%edx
  406ee7:	48 8b 45 f8          	mov    -0x8(%rbp),%rax
  406eeb:	8b 40 08             	mov    0x8(%rax),%eax
  406eee:	0f af d0             	imul   %eax,%edx
  406ef1:	8b 45 ec             	mov    -0x14(%rbp),%eax
  406ef4:	01 c2                	add    %eax,%edx
  406ef6:	48 8b 45 f8          	mov    -0x8(%rbp),%rax
  406efa:	8b 40 0c             	mov    0xc(%rax),%eax
  406efd:	0f af d0             	imul   %eax,%edx
  406f00:	8b 45 e8             	mov    -0x18(%rbp),%eax
  406f03:	01 d0                	add    %edx,%eax
  406f05:	5d                   	pop    %rbp
  406f06:	c3                   	retq   
  406f07:	90                   	nop

0000000000406f08 <_ZNK2CK5Shape19get_flat_index_nhwcEiiii>:
  406f08:	55                   	push   %rbp
  406f09:	48 89 e5             	mov    %rsp,%rbp
  406f0c:	48 89 7d f8          	mov    %rdi,-0x8(%rbp)
  406f10:	89 75 f4             	mov    %esi,-0xc(%rbp)
  406f13:	89 55 f0             	mov    %edx,-0x10(%rbp)
  406f16:	89 4d ec             	mov    %ecx,-0x14(%rbp)
  406f19:	44 89 45 e8          	mov    %r8d,-0x18(%rbp)
  406f1d:	48 8b 45 f8          	mov    -0x8(%rbp),%rax
  406f21:	8b 40 08             	mov    0x8(%rax),%eax
  406f24:	0f af 45 f4          	imul   -0xc(%rbp),%eax
  406f28:	89 c2                	mov    %eax,%edx
  406f2a:	8b 45 f0             	mov    -0x10(%rbp),%eax
  406f2d:	01 c2                	add    %eax,%edx
  406f2f:	48 8b 45 f8          	mov    -0x8(%rbp),%rax
  406f33:	8b 40 0c             	mov    0xc(%rax),%eax
  406f36:	0f af d0             	imul   %eax,%edx
  406f39:	8b 45 ec             	mov    -0x14(%rbp),%eax
  406f3c:	01 c2                	add    %eax,%edx
  406f3e:	48 8b 45 f8          	mov    -0x8(%rbp),%rax
  406f42:	8b 40 04             	mov    0x4(%rax),%eax
  406f45:	0f af d0             	imul   %eax,%edx
  406f48:	8b 45 e8             	mov    -0x18(%rbp),%eax
  406f4b:	01 d0                	add    %edx,%eax
  406f4d:	5d                   	pop    %rbp
  406f4e:	c3                   	retq   

0000000000406f4f <_ZN2CK8getenv_iEPKci>:
  406f4f:	55                   	push   %rbp
  406f50:	48 89 e5             	mov    %rsp,%rbp
  406f53:	48 83 ec 10          	sub    $0x10,%rsp
  406f57:	48 89 7d f8          	mov    %rdi,-0x8(%rbp)
  406f5b:	89 75 f4             	mov    %esi,-0xc(%rbp)
  406f5e:	48 8b 45 f8          	mov    -0x8(%rbp),%rax
  406f62:	48 89 c7             	mov    %rax,%rdi
  406f65:	e8 86 c8 ff ff       	callq  4037f0 <getenv@plt>
  406f6a:	48 85 c0             	test   %rax,%rax
  406f6d:	74 16                	je     406f85 <_ZN2CK8getenv_iEPKci+0x36>
  406f6f:	48 8b 45 f8          	mov    -0x8(%rbp),%rax
  406f73:	48 89 c7             	mov    %rax,%rdi
  406f76:	e8 75 c8 ff ff       	callq  4037f0 <getenv@plt>
  406f7b:	48 89 c7             	mov    %rax,%rdi
  406f7e:	e8 bd c9 ff ff       	callq  403940 <atoi@plt>
  406f83:	eb 03                	jmp    406f88 <_ZN2CK8getenv_iEPKci+0x39>
  406f85:	8b 45 f4             	mov    -0xc(%rbp),%eax
  406f88:	c9                   	leaveq 
  406f89:	c3                   	retq   

0000000000406f8a <_ZN2CK13store_value_iEiPKci>:
  406f8a:	55                   	push   %rbp
  406f8b:	48 89 e5             	mov    %rsp,%rbp
  406f8e:	48 83 ec 20          	sub    $0x20,%rsp
  406f92:	89 7d ec             	mov    %edi,-0x14(%rbp)
  406f95:	48 89 75 e0          	mov    %rsi,-0x20(%rbp)
  406f99:	89 55 e8             	mov    %edx,-0x18(%rbp)
  406f9c:	48 8b 45 e0          	mov    -0x20(%rbp),%rax
  406fa0:	48 89 c7             	mov    %rax,%rdi
  406fa3:	e8 a8 c6 ff ff       	callq  403650 <strlen@plt>
  406fa8:	48 83 c0 06          	add    $0x6,%rax
  406fac:	48 89 c7             	mov    %rax,%rdi
  406faf:	e8 4c c5 ff ff       	callq  403500 <_Znam@plt>
  406fb4:	48 89 45 f8          	mov    %rax,-0x8(%rbp)
  406fb8:	48 8b 55 e0          	mov    -0x20(%rbp),%rdx
  406fbc:	48 8b 45 f8          	mov    -0x8(%rbp),%rax
  406fc0:	be 06 03 41 00       	mov    $0x410306,%esi
  406fc5:	48 89 c7             	mov    %rax,%rdi
  406fc8:	b8 00 00 00 00       	mov    $0x0,%eax
  406fcd:	e8 7e c5 ff ff       	callq  403550 <sprintf@plt>
  406fd2:	8b 55 e8             	mov    -0x18(%rbp),%edx
  406fd5:	48 8b 4d f8          	mov    -0x8(%rbp),%rcx
  406fd9:	8b 45 ec             	mov    -0x14(%rbp),%eax
  406fdc:	48 89 ce             	mov    %rcx,%rsi
  406fdf:	89 c7                	mov    %eax,%edi
  406fe1:	e8 ca c7 ff ff       	callq  4037b0 <xopenme_add_var_i@plt>
  406fe6:	48 83 7d f8 00       	cmpq   $0x0,-0x8(%rbp)
  406feb:	74 0c                	je     406ff9 <_ZN2CK13store_value_iEiPKci+0x6f>
