
reshape:     file format elf64-x86-64


Disassembly of section .init:

0000000000402ca0 <_init>:
  402ca0:	48 83 ec 08          	sub    $0x8,%rsp
  402ca4:	48 8b 05 4d b3 20 00 	mov    0x20b34d(%rip),%rax        # 60dff8 <_DYNAMIC+0x210>
  402cab:	48 85 c0             	test   %rax,%rax
  402cae:	74 05                	je     402cb5 <_init+0x15>
  402cb0:	e8 3b 05 00 00       	callq  4031f0 <_ZNSaIcED1Ev@plt+0x10>
  402cb5:	48 83 c4 08          	add    $0x8,%rsp
  402cb9:	c3                   	retq   

Disassembly of section .plt:

0000000000402cc0 <_ZNSt7__cxx1112basic_stringIcSt11char_traitsIcESaIcEEC1ERKS4_@plt-0x10>:
  402cc0:	ff 35 42 b3 20 00    	pushq  0x20b342(%rip)        # 60e008 <_GLOBAL_OFFSET_TABLE_+0x8>
  402cc6:	ff 25 44 b3 20 00    	jmpq   *0x20b344(%rip)        # 60e010 <_GLOBAL_OFFSET_TABLE_+0x10>
  402ccc:	0f 1f 40 00          	nopl   0x0(%rax)

0000000000402cd0 <_ZNSt7__cxx1112basic_stringIcSt11char_traitsIcESaIcEEC1ERKS4_@plt>:
  402cd0:	ff 25 42 b3 20 00    	jmpq   *0x20b342(%rip)        # 60e018 <_GLOBAL_OFFSET_TABLE_+0x18>
  402cd6:	68 00 00 00 00       	pushq  $0x0
  402cdb:	e9 e0 ff ff ff       	jmpq   402cc0 <_init+0x20>

0000000000402ce0 <_ZN10tensorflow10RunOptionsD1Ev@plt>:
  402ce0:	ff 25 3a b3 20 00    	jmpq   *0x20b33a(%rip)        # 60e020 <_GLOBAL_OFFSET_TABLE_+0x20>
  402ce6:	68 01 00 00 00       	pushq  $0x1
  402ceb:	e9 d0 ff ff ff       	jmpq   402cc0 <_init+0x20>

0000000000402cf0 <_ZN10tensorflow8internal15LogMessageFatalC1EPKci@plt>:
  402cf0:	ff 25 32 b3 20 00    	jmpq   *0x20b332(%rip)        # 60e028 <_GLOBAL_OFFSET_TABLE_+0x28>
  402cf6:	68 02 00 00 00       	pushq  $0x2
  402cfb:	e9 c0 ff ff ff       	jmpq   402cc0 <_init+0x20>

0000000000402d00 <__assert_fail@plt>:
  402d00:	ff 25 2a b3 20 00    	jmpq   *0x20b32a(%rip)        # 60e030 <_GLOBAL_OFFSET_TABLE_+0x30>
  402d06:	68 03 00 00 00       	pushq  $0x3
  402d0b:	e9 b0 ff ff ff       	jmpq   402cc0 <_init+0x20>

0000000000402d10 <__stack_chk_fail@plt>:
  402d10:	ff 25 22 b3 20 00    	jmpq   *0x20b322(%rip)        # 60e038 <_GLOBAL_OFFSET_TABLE_+0x38>
  402d16:	68 04 00 00 00       	pushq  $0x4
  402d1b:	e9 a0 ff ff ff       	jmpq   402cc0 <_init+0x20>

0000000000402d20 <memset@plt>:
  402d20:	ff 25 1a b3 20 00    	jmpq   *0x20b31a(%rip)        # 60e040 <_GLOBAL_OFFSET_TABLE_+0x40>
  402d26:	68 05 00 00 00       	pushq  $0x5
  402d2b:	e9 90 ff ff ff       	jmpq   402cc0 <_init+0x20>

0000000000402d30 <clock_gettime@plt>:
  402d30:	ff 25 12 b3 20 00    	jmpq   *0x20b312(%rip)        # 60e048 <_GLOBAL_OFFSET_TABLE_+0x48>
  402d36:	68 06 00 00 00       	pushq  $0x6
  402d3b:	e9 80 ff ff ff       	jmpq   402cc0 <_init+0x20>

0000000000402d40 <_ZdlPv@plt>:
  402d40:	ff 25 0a b3 20 00    	jmpq   *0x20b30a(%rip)        # 60e050 <_GLOBAL_OFFSET_TABLE_+0x50>
  402d46:	68 07 00 00 00       	pushq  $0x7
  402d4b:	e9 70 ff ff ff       	jmpq   402cc0 <_init+0x20>

0000000000402d50 <xopenme_clock_start@plt>:
  402d50:	ff 25 02 b3 20 00    	jmpq   *0x20b302(%rip)        # 60e058 <_GLOBAL_OFFSET_TABLE_+0x58>
  402d56:	68 08 00 00 00       	pushq  $0x8
  402d5b:	e9 60 ff ff ff       	jmpq   402cc0 <_init+0x20>

0000000000402d60 <_ZN10tensorflow15TensorShapeBaseINS_11TensorShapeEEC2ESt16initializer_listIxE@plt>:
  402d60:	ff 25 fa b2 20 00    	jmpq   *0x20b2fa(%rip)        # 60e060 <_GLOBAL_OFFSET_TABLE_+0x60>
  402d66:	68 09 00 00 00       	pushq  $0x9
  402d6b:	e9 50 ff ff ff       	jmpq   402cc0 <_init+0x20>

0000000000402d70 <_ZN10tensorflow11RunMetadataD1Ev@plt>:
  402d70:	ff 25 f2 b2 20 00    	jmpq   *0x20b2f2(%rip)        # 60e068 <_GLOBAL_OFFSET_TABLE_+0x68>
  402d76:	68 0a 00 00 00       	pushq  $0xa
  402d7b:	e9 40 ff ff ff       	jmpq   402cc0 <_init+0x20>

0000000000402d80 <_ZN10tensorflow6TensorD1Ev@plt>:
  402d80:	ff 25 ea b2 20 00    	jmpq   *0x20b2ea(%rip)        # 60e070 <_GLOBAL_OFFSET_TABLE_+0x70>
  402d86:	68 0b 00 00 00       	pushq  $0xb
  402d8b:	e9 30 ff ff ff       	jmpq   402cc0 <_init+0x20>

0000000000402d90 <__cxa_atexit@plt>:
  402d90:	ff 25 e2 b2 20 00    	jmpq   *0x20b2e2(%rip)        # 60e078 <_GLOBAL_OFFSET_TABLE_+0x78>
  402d96:	68 0c 00 00 00       	pushq  $0xc
  402d9b:	e9 20 ff ff ff       	jmpq   402cc0 <_init+0x20>

0000000000402da0 <_ZNSaIcEC1Ev@plt>:
  402da0:	ff 25 da b2 20 00    	jmpq   *0x20b2da(%rip)        # 60e080 <_GLOBAL_OFFSET_TABLE_+0x80>
  402da6:	68 0d 00 00 00       	pushq  $0xd
  402dab:	e9 10 ff ff ff       	jmpq   402cc0 <_init+0x20>

0000000000402db0 <sprintf@plt>:
  402db0:	ff 25 d2 b2 20 00    	jmpq   *0x20b2d2(%rip)        # 60e088 <_GLOBAL_OFFSET_TABLE_+0x88>
  402db6:	68 0e 00 00 00       	pushq  $0xe
  402dbb:	e9 00 ff ff ff       	jmpq   402cc0 <_init+0x20>

0000000000402dc0 <_ZN10tensorflow6TensorC1ENS_8DataTypeERKNS_11TensorShapeE@plt>:
  402dc0:	ff 25 ca b2 20 00    	jmpq   *0x20b2ca(%rip)        # 60e090 <_GLOBAL_OFFSET_TABLE_+0x90>
  402dc6:	68 0f 00 00 00       	pushq  $0xf
  402dcb:	e9 f0 fe ff ff       	jmpq   402cc0 <_init+0x20>

0000000000402dd0 <putchar@plt>:
  402dd0:	ff 25 c2 b2 20 00    	jmpq   *0x20b2c2(%rip)        # 60e098 <_GLOBAL_OFFSET_TABLE_+0x98>
  402dd6:	68 10 00 00 00       	pushq  $0x10
  402ddb:	e9 e0 fe ff ff       	jmpq   402cc0 <_init+0x20>

0000000000402de0 <_ZN10tensorflow6TensorC1Ev@plt>:
  402de0:	ff 25 ba b2 20 00    	jmpq   *0x20b2ba(%rip)        # 60e0a0 <_GLOBAL_OFFSET_TABLE_+0xa0>
  402de6:	68 11 00 00 00       	pushq  $0x11
  402deb:	e9 d0 fe ff ff       	jmpq   402cc0 <_init+0x20>

0000000000402df0 <printf@plt>:
  402df0:	ff 25 b2 b2 20 00    	jmpq   *0x20b2b2(%rip)        # 60e0a8 <_GLOBAL_OFFSET_TABLE_+0xa8>
  402df6:	68 12 00 00 00       	pushq  $0x12
  402dfb:	e9 c0 fe ff ff       	jmpq   402cc0 <_init+0x20>

0000000000402e00 <_ZN10tensorflow14TensorShapeRep19DestructorOutOfLineEv@plt>:
  402e00:	ff 25 aa b2 20 00    	jmpq   *0x20b2aa(%rip)        # 60e0b0 <_GLOBAL_OFFSET_TABLE_+0xb0>
  402e06:	68 13 00 00 00       	pushq  $0x13
  402e0b:	e9 b0 fe ff ff       	jmpq   402cc0 <_init+0x20>

0000000000402e10 <_ZStlsIcSt11char_traitsIcESaIcEERSt13basic_ostreamIT_T0_ES7_RKNSt7__cxx1112basic_stringIS4_S5_T1_EE@plt>:
  402e10:	ff 25 a2 b2 20 00    	jmpq   *0x20b2a2(%rip)        # 60e0b8 <_GLOBAL_OFFSET_TABLE_+0xb8>
  402e16:	68 14 00 00 00       	pushq  $0x14
  402e1b:	e9 a0 fe ff ff       	jmpq   402cc0 <_init+0x20>

0000000000402e20 <_ZNK10tensorflow6Tensor9CheckTypeENS_8DataTypeE@plt>:
  402e20:	ff 25 9a b2 20 00    	jmpq   *0x20b29a(%rip)        # 60e0c0 <_GLOBAL_OFFSET_TABLE_+0xc0>
  402e26:	68 15 00 00 00       	pushq  $0x15
  402e2b:	e9 90 fe ff ff       	jmpq   402cc0 <_init+0x20>

0000000000402e30 <_ZNSolsEi@plt>:
  402e30:	ff 25 92 b2 20 00    	jmpq   *0x20b292(%rip)        # 60e0c8 <_GLOBAL_OFFSET_TABLE_+0xc8>
  402e36:	68 16 00 00 00       	pushq  $0x16
  402e3b:	e9 80 fe ff ff       	jmpq   402cc0 <_init+0x20>

0000000000402e40 <__gxx_personality_v0@plt>:
  402e40:	ff 25 8a b2 20 00    	jmpq   *0x20b28a(%rip)        # 60e0d0 <_GLOBAL_OFFSET_TABLE_+0xd0>
  402e46:	68 17 00 00 00       	pushq  $0x17
  402e4b:	e9 70 fe ff ff       	jmpq   402cc0 <_init+0x20>

0000000000402e50 <_ZN10tensorflow3ops7ReshapeC1ERKNS_5ScopeENS_5InputES5_@plt>:
  402e50:	ff 25 82 b2 20 00    	jmpq   *0x20b282(%rip)        # 60e0d8 <_GLOBAL_OFFSET_TABLE_+0xd8>
  402e56:	68 18 00 00 00       	pushq  $0x18
  402e5b:	e9 60 fe ff ff       	jmpq   402cc0 <_init+0x20>

0000000000402e60 <_ZN10tensorflow5ScopeD1Ev@plt>:
  402e60:	ff 25 7a b2 20 00    	jmpq   *0x20b27a(%rip)        # 60e0e0 <_GLOBAL_OFFSET_TABLE_+0xe0>
  402e66:	68 19 00 00 00       	pushq  $0x19
  402e6b:	e9 50 fe ff ff       	jmpq   402cc0 <_init+0x20>

0000000000402e70 <_ZNSt7__cxx1112basic_stringIcSt11char_traitsIcESaIcEED1Ev@plt>:
  402e70:	ff 25 72 b2 20 00    	jmpq   *0x20b272(%rip)        # 60e0e8 <_GLOBAL_OFFSET_TABLE_+0xe8>
  402e76:	68 1a 00 00 00       	pushq  $0x1a
  402e7b:	e9 40 fe ff ff       	jmpq   402cc0 <_init+0x20>

0000000000402e80 <getenv@plt>:
  402e80:	ff 25 6a b2 20 00    	jmpq   *0x20b26a(%rip)        # 60e0f0 <_GLOBAL_OFFSET_TABLE_+0xf0>
  402e86:	68 1b 00 00 00       	pushq  $0x1b
  402e8b:	e9 30 fe ff ff       	jmpq   402cc0 <_init+0x20>

0000000000402e90 <_ZN10tensorflow14StatSummarizerD1Ev@plt>:
  402e90:	ff 25 62 b2 20 00    	jmpq   *0x20b262(%rip)        # 60e0f8 <_GLOBAL_OFFSET_TABLE_+0xf8>
  402e96:	68 1c 00 00 00       	pushq  $0x1c
  402e9b:	e9 20 fe ff ff       	jmpq   402cc0 <_init+0x20>

0000000000402ea0 <_ZN10tensorflow8internal15LogMessageFatalD1Ev@plt>:
  402ea0:	ff 25 5a b2 20 00    	jmpq   *0x20b25a(%rip)        # 60e100 <_GLOBAL_OFFSET_TABLE_+0x100>
  402ea6:	68 1d 00 00 00       	pushq  $0x1d
  402eab:	e9 10 fe ff ff       	jmpq   402cc0 <_init+0x20>

0000000000402eb0 <__libc_start_main@plt>:
  402eb0:	ff 25 52 b2 20 00    	jmpq   *0x20b252(%rip)        # 60e108 <_GLOBAL_OFFSET_TABLE_+0x108>
  402eb6:	68 1e 00 00 00       	pushq  $0x1e
  402ebb:	e9 00 fe ff ff       	jmpq   402cc0 <_init+0x20>

0000000000402ec0 <puts@plt>:
  402ec0:	ff 25 4a b2 20 00    	jmpq   *0x20b24a(%rip)        # 60e110 <_GLOBAL_OFFSET_TABLE_+0x110>
  402ec6:	68 1f 00 00 00       	pushq  $0x1f
  402ecb:	e9 f0 fd ff ff       	jmpq   402cc0 <_init+0x20>

0000000000402ed0 <_ZN10tensorflow5Scope12NewRootScopeEv@plt>:
  402ed0:	ff 25 42 b2 20 00    	jmpq   *0x20b242(%rip)        # 60e118 <_GLOBAL_OFFSET_TABLE_+0x118>
  402ed6:	68 20 00 00 00       	pushq  $0x20
  402edb:	e9 e0 fd ff ff       	jmpq   402cc0 <_init+0x20>

0000000000402ee0 <srand@plt>:
  402ee0:	ff 25 3a b2 20 00    	jmpq   *0x20b23a(%rip)        # 60e120 <_GLOBAL_OFFSET_TABLE_+0x120>
  402ee6:	68 21 00 00 00       	pushq  $0x21
  402eeb:	e9 d0 fd ff ff       	jmpq   402cc0 <_init+0x20>

0000000000402ef0 <xopenme_finish@plt>:
  402ef0:	ff 25 32 b2 20 00    	jmpq   *0x20b232(%rip)        # 60e128 <_GLOBAL_OFFSET_TABLE_+0x128>
  402ef6:	68 22 00 00 00       	pushq  $0x22
  402efb:	e9 c0 fd ff ff       	jmpq   402cc0 <_init+0x20>

0000000000402f00 <xopenme_dump_memory@plt>:
  402f00:	ff 25 2a b2 20 00    	jmpq   *0x20b22a(%rip)        # 60e130 <_GLOBAL_OFFSET_TABLE_+0x130>
  402f06:	68 23 00 00 00       	pushq  $0x23
  402f0b:	e9 b0 fd ff ff       	jmpq   402cc0 <_init+0x20>

0000000000402f10 <_ZNKSt7__cxx1112basic_stringIcSt11char_traitsIcESaIcEE4findEPKcm@plt>:
  402f10:	ff 25 22 b2 20 00    	jmpq   *0x20b222(%rip)        # 60e138 <_GLOBAL_OFFSET_TABLE_+0x138>
  402f16:	68 24 00 00 00       	pushq  $0x24
  402f1b:	e9 a0 fd ff ff       	jmpq   402cc0 <_init+0x20>

0000000000402f20 <xopenme_init@plt>:
  402f20:	ff 25 1a b2 20 00    	jmpq   *0x20b21a(%rip)        # 60e140 <_GLOBAL_OFFSET_TABLE_+0x140>
  402f26:	68 25 00 00 00       	pushq  $0x25
  402f2b:	e9 90 fd ff ff       	jmpq   402cc0 <_init+0x20>

0000000000402f30 <__cxa_begin_catch@plt>:
  402f30:	ff 25 12 b2 20 00    	jmpq   *0x20b212(%rip)        # 60e148 <_GLOBAL_OFFSET_TABLE_+0x148>
  402f36:	68 26 00 00 00       	pushq  $0x26
  402f3b:	e9 80 fd ff ff       	jmpq   402cc0 <_init+0x20>

0000000000402f40 <atoi@plt>:
  402f40:	ff 25 0a b2 20 00    	jmpq   *0x20b20a(%rip)        # 60e150 <_GLOBAL_OFFSET_TABLE_+0x150>
  402f46:	68 27 00 00 00       	pushq  $0x27
  402f4b:	e9 70 fd ff ff       	jmpq   402cc0 <_init+0x20>

0000000000402f50 <_ZdaPv@plt>:
  402f50:	ff 25 02 b2 20 00    	jmpq   *0x20b202(%rip)        # 60e158 <_GLOBAL_OFFSET_TABLE_+0x158>
  402f56:	68 28 00 00 00       	pushq  $0x28
  402f5b:	e9 60 fd ff ff       	jmpq   402cc0 <_init+0x20>

0000000000402f60 <_ZNSolsEl@plt>:
  402f60:	ff 25 fa b1 20 00    	jmpq   *0x20b1fa(%rip)        # 60e160 <_GLOBAL_OFFSET_TABLE_+0x160>
  402f66:	68 29 00 00 00       	pushq  $0x29
  402f6b:	e9 50 fd ff ff       	jmpq   402cc0 <_init+0x20>

0000000000402f70 <strlen@plt>:
  402f70:	ff 25 f2 b1 20 00    	jmpq   *0x20b1f2(%rip)        # 60e168 <_GLOBAL_OFFSET_TABLE_+0x168>
  402f76:	68 2a 00 00 00       	pushq  $0x2a
  402f7b:	e9 40 fd ff ff       	jmpq   402cc0 <_init+0x20>

0000000000402f80 <xopenme_add_var_i@plt>:
  402f80:	ff 25 ea b1 20 00    	jmpq   *0x20b1ea(%rip)        # 60e170 <_GLOBAL_OFFSET_TABLE_+0x170>
  402f86:	68 2b 00 00 00       	pushq  $0x2b
  402f8b:	e9 30 fd ff ff       	jmpq   402cc0 <_init+0x20>

0000000000402f90 <_ZN10tensorflow8internal21CheckOpMessageBuilderC1EPKc@plt>:
  402f90:	ff 25 e2 b1 20 00    	jmpq   *0x20b1e2(%rip)        # 60e178 <_GLOBAL_OFFSET_TABLE_+0x178>
  402f96:	68 2c 00 00 00       	pushq  $0x2c
  402f9b:	e9 20 fd ff ff       	jmpq   402cc0 <_init+0x20>

0000000000402fa0 <_ZNSolsEx@plt>:
  402fa0:	ff 25 da b1 20 00    	jmpq   *0x20b1da(%rip)        # 60e180 <_GLOBAL_OFFSET_TABLE_+0x180>
  402fa6:	68 2d 00 00 00       	pushq  $0x2d
  402fab:	e9 10 fd ff ff       	jmpq   402cc0 <_init+0x20>

0000000000402fb0 <_ZN10tensorflow8internal21CheckOpMessageBuilderD1Ev@plt>:
  402fb0:	ff 25 d2 b1 20 00    	jmpq   *0x20b1d2(%rip)        # 60e188 <_GLOBAL_OFFSET_TABLE_+0x188>
  402fb6:	68 2e 00 00 00       	pushq  $0x2e
  402fbb:	e9 00 fd ff ff       	jmpq   402cc0 <_init+0x20>

0000000000402fc0 <_Unwind_Resume@plt>:
  402fc0:	ff 25 ca b1 20 00    	jmpq   *0x20b1ca(%rip)        # 60e190 <_GLOBAL_OFFSET_TABLE_+0x190>
  402fc6:	68 2f 00 00 00       	pushq  $0x2f
  402fcb:	e9 f0 fc ff ff       	jmpq   402cc0 <_init+0x20>

0000000000402fd0 <_ZN10tensorflow8internal21CheckOpMessageBuilder9NewStringB5cxx11Ev@plt>:
  402fd0:	ff 25 c2 b1 20 00    	jmpq   *0x20b1c2(%rip)        # 60e198 <_GLOBAL_OFFSET_TABLE_+0x198>
  402fd6:	68 30 00 00 00       	pushq  $0x30
  402fdb:	e9 e0 fc ff ff       	jmpq   402cc0 <_init+0x20>

0000000000402fe0 <_ZNK10tensorflow6Tensor21CheckTypeAndIsAlignedENS_8DataTypeE@plt>:
  402fe0:	ff 25 ba b1 20 00    	jmpq   *0x20b1ba(%rip)        # 60e1a0 <_GLOBAL_OFFSET_TABLE_+0x1a0>
  402fe6:	68 31 00 00 00       	pushq  $0x31
  402feb:	e9 d0 fc ff ff       	jmpq   402cc0 <_init+0x20>

0000000000402ff0 <_ZNSt7__cxx1112basic_stringIcSt11char_traitsIcESaIcEEC1EPKcRKS3_@plt>:
  402ff0:	ff 25 b2 b1 20 00    	jmpq   *0x20b1b2(%rip)        # 60e1a8 <_GLOBAL_OFFSET_TABLE_+0x1a8>
  402ff6:	68 32 00 00 00       	pushq  $0x32
  402ffb:	e9 c0 fc ff ff       	jmpq   402cc0 <_init+0x20>

0000000000403000 <_ZN10tensorflow11RunMetadataC1Ev@plt>:
  403000:	ff 25 aa b1 20 00    	jmpq   *0x20b1aa(%rip)        # 60e1b0 <_GLOBAL_OFFSET_TABLE_+0x1b0>
  403006:	68 33 00 00 00       	pushq  $0x33
  40300b:	e9 b0 fc ff ff       	jmpq   402cc0 <_init+0x20>

0000000000403010 <_ZN10tensorflow14TensorShapeRep12SlowCopyFromERKS0_@plt>:
  403010:	ff 25 a2 b1 20 00    	jmpq   *0x20b1a2(%rip)        # 60e1b8 <_GLOBAL_OFFSET_TABLE_+0x1b8>
  403016:	68 34 00 00 00       	pushq  $0x34
  40301b:	e9 a0 fc ff ff       	jmpq   402cc0 <_init+0x20>

0000000000403020 <_ZNSolsEm@plt>:
  403020:	ff 25 9a b1 20 00    	jmpq   *0x20b19a(%rip)        # 60e1c0 <_GLOBAL_OFFSET_TABLE_+0x1c0>
  403026:	68 35 00 00 00       	pushq  $0x35
  40302b:	e9 90 fc ff ff       	jmpq   402cc0 <_init+0x20>

0000000000403030 <random@plt>:
  403030:	ff 25 92 b1 20 00    	jmpq   *0x20b192(%rip)        # 60e1c8 <_GLOBAL_OFFSET_TABLE_+0x1c8>
  403036:	68 36 00 00 00       	pushq  $0x36
  40303b:	e9 80 fc ff ff       	jmpq   402cc0 <_init+0x20>

0000000000403040 <xopenme_dump_state@plt>:
  403040:	ff 25 8a b1 20 00    	jmpq   *0x20b18a(%rip)        # 60e1d0 <_GLOBAL_OFFSET_TABLE_+0x1d0>
  403046:	68 37 00 00 00       	pushq  $0x37
  40304b:	e9 70 fc ff ff       	jmpq   402cc0 <_init+0x20>

0000000000403050 <_ZN10tensorflow3ops5ShapeC1ERKNS_5ScopeENS_5InputE@plt>:
  403050:	ff 25 82 b1 20 00    	jmpq   *0x20b182(%rip)        # 60e1d8 <_GLOBAL_OFFSET_TABLE_+0x1d8>
  403056:	68 38 00 00 00       	pushq  $0x38
  40305b:	e9 60 fc ff ff       	jmpq   402cc0 <_init+0x20>

0000000000403060 <_ZN10tensorflow9OperationC1EPNS_4NodeE@plt>:
  403060:	ff 25 7a b1 20 00    	jmpq   *0x20b17a(%rip)        # 60e1e0 <_GLOBAL_OFFSET_TABLE_+0x1e0>
  403066:	68 39 00 00 00       	pushq  $0x39
  40306b:	e9 50 fc ff ff       	jmpq   402cc0 <_init+0x20>

0000000000403070 <xopenme_add_var_f@plt>:
  403070:	ff 25 72 b1 20 00    	jmpq   *0x20b172(%rip)        # 60e1e8 <_GLOBAL_OFFSET_TABLE_+0x1e8>
  403076:	68 3a 00 00 00       	pushq  $0x3a
  40307b:	e9 40 fc ff ff       	jmpq   402cc0 <_init+0x20>

0000000000403080 <_ZSt17__throw_bad_allocv@plt>:
  403080:	ff 25 6a b1 20 00    	jmpq   *0x20b16a(%rip)        # 60e1f0 <_GLOBAL_OFFSET_TABLE_+0x1f0>
  403086:	68 3b 00 00 00       	pushq  $0x3b
  40308b:	e9 30 fc ff ff       	jmpq   402cc0 <_init+0x20>

0000000000403090 <memcpy@plt>:
  403090:	ff 25 62 b1 20 00    	jmpq   *0x20b162(%rip)        # 60e1f8 <_GLOBAL_OFFSET_TABLE_+0x1f8>
  403096:	68 3c 00 00 00       	pushq  $0x3c
  40309b:	e9 20 fc ff ff       	jmpq   402cc0 <_init+0x20>

00000000004030a0 <_ZN10tensorflow8internal21CheckOpMessageBuilder7ForVar2Ev@plt>:
  4030a0:	ff 25 5a b1 20 00    	jmpq   *0x20b15a(%rip)        # 60e200 <_GLOBAL_OFFSET_TABLE_+0x200>
  4030a6:	68 3d 00 00 00       	pushq  $0x3d
  4030ab:	e9 10 fc ff ff       	jmpq   402cc0 <_init+0x20>

00000000004030b0 <_ZN10tensorflow13ClientSessionC1ERKNS_5ScopeE@plt>:
  4030b0:	ff 25 52 b1 20 00    	jmpq   *0x20b152(%rip)        # 60e208 <_GLOBAL_OFFSET_TABLE_+0x208>
  4030b6:	68 3e 00 00 00       	pushq  $0x3e
  4030bb:	e9 00 fc ff ff       	jmpq   402cc0 <_init+0x20>

00000000004030c0 <_ZNK10tensorflow14StatSummarizer14PrintStepStatsEv@plt>:
  4030c0:	ff 25 4a b1 20 00    	jmpq   *0x20b14a(%rip)        # 60e210 <_GLOBAL_OFFSET_TABLE_+0x210>
  4030c6:	68 3f 00 00 00       	pushq  $0x3f
  4030cb:	e9 f0 fb ff ff       	jmpq   402cc0 <_init+0x20>

00000000004030d0 <_Znwm@plt>:
  4030d0:	ff 25 42 b1 20 00    	jmpq   *0x20b142(%rip)        # 60e218 <_GLOBAL_OFFSET_TABLE_+0x218>
  4030d6:	68 40 00 00 00       	pushq  $0x40
  4030db:	e9 e0 fb ff ff       	jmpq   402cc0 <_init+0x20>

00000000004030e0 <_ZNK10tensorflow13ClientSession3RunERKNS_10RunOptionsERKSt13unordered_mapINS_6OutputENS_5Input11InitializerENS_10OutputHashESt8equal_toIS5_ESaISt4pairIKS5_S7_EEERKSt6vectorIS5_SaIS5_EERKSI_INS_9OperationESaISN_EEPSI_INS_6TensorESaISS_EEPNS_11RunMetadataE@plt>:
  4030e0:	ff 25 3a b1 20 00    	jmpq   *0x20b13a(%rip)        # 60e220 <_GLOBAL_OFFSET_TABLE_+0x220>
  4030e6:	68 41 00 00 00       	pushq  $0x41
  4030eb:	e9 d0 fb ff ff       	jmpq   402cc0 <_init+0x20>

00000000004030f0 <_ZN10tensorflow10RunOptionsC1Ev@plt>:
  4030f0:	ff 25 32 b1 20 00    	jmpq   *0x20b132(%rip)        # 60e228 <_GLOBAL_OFFSET_TABLE_+0x228>
  4030f6:	68 42 00 00 00       	pushq  $0x42
  4030fb:	e9 c0 fb ff ff       	jmpq   402cc0 <_init+0x20>

0000000000403100 <_ZN10tensorflow13ClientSessionD1Ev@plt>:
  403100:	ff 25 2a b1 20 00    	jmpq   *0x20b12a(%rip)        # 60e230 <_GLOBAL_OFFSET_TABLE_+0x230>
  403106:	68 43 00 00 00       	pushq  $0x43
  40310b:	e9 b0 fb ff ff       	jmpq   402cc0 <_init+0x20>

0000000000403110 <_Znam@plt>:
  403110:	ff 25 22 b1 20 00    	jmpq   *0x20b122(%rip)        # 60e238 <_GLOBAL_OFFSET_TABLE_+0x238>
  403116:	68 44 00 00 00       	pushq  $0x44
  40311b:	e9 a0 fb ff ff       	jmpq   402cc0 <_init+0x20>

0000000000403120 <xopenme_get_timer@plt>:
  403120:	ff 25 1a b1 20 00    	jmpq   *0x20b11a(%rip)        # 60e240 <_GLOBAL_OFFSET_TABLE_+0x240>
  403126:	68 45 00 00 00       	pushq  $0x45
  40312b:	e9 90 fb ff ff       	jmpq   402cc0 <_init+0x20>

0000000000403130 <xopenme_clock_end@plt>:
  403130:	ff 25 12 b1 20 00    	jmpq   *0x20b112(%rip)        # 60e248 <_GLOBAL_OFFSET_TABLE_+0x248>
  403136:	68 46 00 00 00       	pushq  $0x46
  40313b:	e9 80 fb ff ff       	jmpq   402cc0 <_init+0x20>

0000000000403140 <_ZStlsISt11char_traitsIcEERSt13basic_ostreamIcT_ES5_PKc@plt>:
  403140:	ff 25 0a b1 20 00    	jmpq   *0x20b10a(%rip)        # 60e250 <_GLOBAL_OFFSET_TABLE_+0x250>
  403146:	68 47 00 00 00       	pushq  $0x47
  40314b:	e9 70 fb ff ff       	jmpq   402cc0 <_init+0x20>

0000000000403150 <_ZN10tensorflow14StatSummarizer16ProcessStepStatsERKNS_9StepStatsE@plt>:
  403150:	ff 25 02 b1 20 00    	jmpq   *0x20b102(%rip)        # 60e258 <_GLOBAL_OFFSET_TABLE_+0x258>
  403156:	68 48 00 00 00       	pushq  $0x48
  40315b:	e9 60 fb ff ff       	jmpq   402cc0 <_init+0x20>

0000000000403160 <_ZNSt8ios_base4InitD1Ev@plt>:
  403160:	ff 25 fa b0 20 00    	jmpq   *0x20b0fa(%rip)        # 60e260 <_GLOBAL_OFFSET_TABLE_+0x260>
  403166:	68 49 00 00 00       	pushq  $0x49
  40316b:	e9 50 fb ff ff       	jmpq   402cc0 <_init+0x20>

0000000000403170 <__cxa_end_catch@plt>:
  403170:	ff 25 f2 b0 20 00    	jmpq   *0x20b0f2(%rip)        # 60e268 <_GLOBAL_OFFSET_TABLE_+0x268>
  403176:	68 4a 00 00 00       	pushq  $0x4a
  40317b:	e9 40 fb ff ff       	jmpq   402cc0 <_init+0x20>

0000000000403180 <__cxa_rethrow@plt>:
  403180:	ff 25 ea b0 20 00    	jmpq   *0x20b0ea(%rip)        # 60e270 <_GLOBAL_OFFSET_TABLE_+0x270>
  403186:	68 4b 00 00 00       	pushq  $0x4b
  40318b:	e9 30 fb ff ff       	jmpq   402cc0 <_init+0x20>

0000000000403190 <_ZN10tensorflow24TfCheckOpHelperOutOfLineB5cxx11ERKNS_6StatusEPKc@plt>:
  403190:	ff 25 e2 b0 20 00    	jmpq   *0x20b0e2(%rip)        # 60e278 <_GLOBAL_OFFSET_TABLE_+0x278>
  403196:	68 4c 00 00 00       	pushq  $0x4c
  40319b:	e9 20 fb ff ff       	jmpq   402cc0 <_init+0x20>

00000000004031a0 <_ZNK10tensorflow5Scope10WithOpNameERKNSt7__cxx1112basic_stringIcSt11char_traitsIcESaIcEEE@plt>:
  4031a0:	ff 25 da b0 20 00    	jmpq   *0x20b0da(%rip)        # 60e280 <_GLOBAL_OFFSET_TABLE_+0x280>
  4031a6:	68 4d 00 00 00       	pushq  $0x4d
  4031ab:	e9 10 fb ff ff       	jmpq   402cc0 <_init+0x20>

00000000004031b0 <rand@plt>:
  4031b0:	ff 25 d2 b0 20 00    	jmpq   *0x20b0d2(%rip)        # 60e288 <_GLOBAL_OFFSET_TABLE_+0x288>
  4031b6:	68 4e 00 00 00       	pushq  $0x4e
  4031bb:	e9 00 fb ff ff       	jmpq   402cc0 <_init+0x20>

00000000004031c0 <_ZNSt8ios_base4InitC1Ev@plt>:
  4031c0:	ff 25 ca b0 20 00    	jmpq   *0x20b0ca(%rip)        # 60e290 <_GLOBAL_OFFSET_TABLE_+0x290>
  4031c6:	68 4f 00 00 00       	pushq  $0x4f
  4031cb:	e9 f0 fa ff ff       	jmpq   402cc0 <_init+0x20>

00000000004031d0 <_ZN10tensorflow14StatSummarizerC1ERKNS_21StatSummarizerOptionsE@plt>:
  4031d0:	ff 25 c2 b0 20 00    	jmpq   *0x20b0c2(%rip)        # 60e298 <_GLOBAL_OFFSET_TABLE_+0x298>
  4031d6:	68 50 00 00 00       	pushq  $0x50
  4031db:	e9 e0 fa ff ff       	jmpq   402cc0 <_init+0x20>

00000000004031e0 <_ZNSaIcED1Ev@plt>:
  4031e0:	ff 25 ba b0 20 00    	jmpq   *0x20b0ba(%rip)        # 60e2a0 <_GLOBAL_OFFSET_TABLE_+0x2a0>
  4031e6:	68 51 00 00 00       	pushq  $0x51
  4031eb:	e9 d0 fa ff ff       	jmpq   402cc0 <_init+0x20>

Disassembly of section .plt.got:

00000000004031f0 <.plt.got>:
  4031f0:	ff 25 02 ae 20 00    	jmpq   *0x20ae02(%rip)        # 60dff8 <_DYNAMIC+0x210>
  4031f6:	66 90                	xchg   %ax,%ax

Disassembly of section .text:

0000000000403200 <_start>:
  403200:	31 ed                	xor    %ebp,%ebp
  403202:	49 89 d1             	mov    %rdx,%r9
  403205:	5e                   	pop    %rsi
  403206:	48 89 e2             	mov    %rsp,%rdx
  403209:	48 83 e4 f0          	and    $0xfffffffffffffff0,%rsp
  40320d:	50                   	push   %rax
  40320e:	54                   	push   %rsp
  40320f:	49 c7 c0 60 8e 40 00 	mov    $0x408e60,%r8
  403216:	48 c7 c1 f0 8d 40 00 	mov    $0x408df0,%rcx
  40321d:	48 c7 c7 d6 36 40 00 	mov    $0x4036d6,%rdi
  403224:	e8 87 fc ff ff       	callq  402eb0 <__libc_start_main@plt>
  403229:	f4                   	hlt    
  40322a:	66 0f 1f 44 00 00    	nopw   0x0(%rax,%rax,1)

0000000000403230 <deregister_tm_clones>:
  403230:	b8 bf e2 60 00       	mov    $0x60e2bf,%eax
  403235:	55                   	push   %rbp
  403236:	48 2d b8 e2 60 00    	sub    $0x60e2b8,%rax
  40323c:	48 83 f8 0e          	cmp    $0xe,%rax
  403240:	48 89 e5             	mov    %rsp,%rbp
  403243:	76 1b                	jbe    403260 <deregister_tm_clones+0x30>
  403245:	b8 00 00 00 00       	mov    $0x0,%eax
  40324a:	48 85 c0             	test   %rax,%rax
  40324d:	74 11                	je     403260 <deregister_tm_clones+0x30>
  40324f:	5d                   	pop    %rbp
  403250:	bf b8 e2 60 00       	mov    $0x60e2b8,%edi
  403255:	ff e0                	jmpq   *%rax
  403257:	66 0f 1f 84 00 00 00 	nopw   0x0(%rax,%rax,1)
  40325e:	00 00 
  403260:	5d                   	pop    %rbp
  403261:	c3                   	retq   
  403262:	0f 1f 40 00          	nopl   0x0(%rax)
  403266:	66 2e 0f 1f 84 00 00 	nopw   %cs:0x0(%rax,%rax,1)
  40326d:	00 00 00 

0000000000403270 <register_tm_clones>:
  403270:	be b8 e2 60 00       	mov    $0x60e2b8,%esi
  403275:	55                   	push   %rbp
  403276:	48 81 ee b8 e2 60 00 	sub    $0x60e2b8,%rsi
  40327d:	48 c1 fe 03          	sar    $0x3,%rsi
  403281:	48 89 e5             	mov    %rsp,%rbp
  403284:	48 89 f0             	mov    %rsi,%rax
  403287:	48 c1 e8 3f          	shr    $0x3f,%rax
  40328b:	48 01 c6             	add    %rax,%rsi
  40328e:	48 d1 fe             	sar    %rsi
  403291:	74 15                	je     4032a8 <register_tm_clones+0x38>
  403293:	b8 00 00 00 00       	mov    $0x0,%eax
  403298:	48 85 c0             	test   %rax,%rax
  40329b:	74 0b                	je     4032a8 <register_tm_clones+0x38>
  40329d:	5d                   	pop    %rbp
  40329e:	bf b8 e2 60 00       	mov    $0x60e2b8,%edi
  4032a3:	ff e0                	jmpq   *%rax
  4032a5:	0f 1f 00             	nopl   (%rax)
  4032a8:	5d                   	pop    %rbp
  4032a9:	c3                   	retq   
  4032aa:	66 0f 1f 44 00 00    	nopw   0x0(%rax,%rax,1)

00000000004032b0 <__do_global_dtors_aux>:
  4032b0:	80 3d d1 b0 20 00 00 	cmpb   $0x0,0x20b0d1(%rip)        # 60e388 <completed.7593>
  4032b7:	75 11                	jne    4032ca <__do_global_dtors_aux+0x1a>
  4032b9:	55                   	push   %rbp
  4032ba:	48 89 e5             	mov    %rsp,%rbp
  4032bd:	e8 6e ff ff ff       	callq  403230 <deregister_tm_clones>
  4032c2:	5d                   	pop    %rbp
  4032c3:	c6 05 be b0 20 00 01 	movb   $0x1,0x20b0be(%rip)        # 60e388 <completed.7593>
  4032ca:	f3 c3                	repz retq 
  4032cc:	0f 1f 40 00          	nopl   0x0(%rax)

00000000004032d0 <frame_dummy>:
  4032d0:	bf e0 dd 60 00       	mov    $0x60dde0,%edi
  4032d5:	48 83 3f 00          	cmpq   $0x0,(%rdi)
  4032d9:	75 05                	jne    4032e0 <frame_dummy+0x10>
  4032db:	eb 93                	jmp    403270 <register_tm_clones>
  4032dd:	0f 1f 00             	nopl   (%rax)
  4032e0:	b8 00 00 00 00       	mov    $0x0,%eax
  4032e5:	48 85 c0             	test   %rax,%rax
  4032e8:	74 f1                	je     4032db <frame_dummy+0xb>
  4032ea:	55                   	push   %rbp
  4032eb:	48 89 e5             	mov    %rsp,%rbp
  4032ee:	ff d0                	callq  *%rax
  4032f0:	5d                   	pop    %rbp
  4032f1:	e9 7a ff ff ff       	jmpq   403270 <register_tm_clones>

00000000004032f6 <_ZN5Eigen8internal12_GLOBAL__N_115get_random_seedEv>:
  4032f6:	55                   	push   %rbp
  4032f7:	48 89 e5             	mov    %rsp,%rbp
  4032fa:	48 83 ec 30          	sub    $0x30,%rsp
  4032fe:	64 48 8b 04 25 28 00 	mov    %fs:0x28,%rax
  403305:	00 00 
  403307:	48 89 45 f8          	mov    %rax,-0x8(%rbp)
  40330b:	31 c0                	xor    %eax,%eax
  40330d:	48 8d 45 e0          	lea    -0x20(%rbp),%rax
  403311:	48 89 c6             	mov    %rax,%rsi
  403314:	bf 00 00 00 00       	mov    $0x0,%edi
  403319:	e8 12 fa ff ff       	callq  402d30 <clock_gettime@plt>
  40331e:	e8 0d fd ff ff       	callq  403030 <random@plt>
  403323:	48 89 c2             	mov    %rax,%rdx
  403326:	48 8b 45 e8          	mov    -0x18(%rbp),%rax
  40332a:	48 31 d0             	xor    %rdx,%rax
  40332d:	48 89 45 d8          	mov    %rax,-0x28(%rbp)
  403331:	48 8b 45 d8          	mov    -0x28(%rbp),%rax
  403335:	48 8b 4d f8          	mov    -0x8(%rbp),%rcx
  403339:	64 48 33 0c 25 28 00 	xor    %fs:0x28,%rcx
  403340:	00 00 
  403342:	74 05                	je     403349 <_ZN5Eigen8internal12_GLOBAL__N_115get_random_seedEv+0x53>
  403344:	e8 c7 f9 ff ff       	callq  402d10 <__stack_chk_fail@plt>
  403349:	c9                   	leaveq 
  40334a:	c3                   	retq   

000000000040334b <_ZN2CK16store_setup_timeEf>:
  40334b:	55                   	push   %rbp
  40334c:	48 89 e5             	mov    %rsp,%rbp
  40334f:	48 83 ec 10          	sub    $0x10,%rsp
  403353:	f3 0f 11 45 fc       	movss  %xmm0,-0x4(%rbp)
  403358:	8b 45 fc             	mov    -0x4(%rbp),%eax
  40335b:	89 45 f8             	mov    %eax,-0x8(%rbp)
  40335e:	f3 0f 10 45 f8       	movss  -0x8(%rbp),%xmm0
  403363:	be 08 92 40 00       	mov    $0x409208,%esi
  403368:	bf 0a 00 00 00       	mov    $0xa,%edi
  40336d:	e8 8c 1c 00 00       	callq  404ffe <_ZN2CK13store_value_fEiPKcf>
  403372:	90                   	nop
  403373:	c9                   	leaveq 
  403374:	c3                   	retq   

0000000000403375 <_ZN2CK15store_test_timeEf>:
  403375:	55                   	push   %rbp
  403376:	48 89 e5             	mov    %rsp,%rbp
  403379:	48 83 ec 10          	sub    $0x10,%rsp
  40337d:	f3 0f 11 45 fc       	movss  %xmm0,-0x4(%rbp)
  403382:	8b 45 fc             	mov    -0x4(%rbp),%eax
  403385:	89 45 f8             	mov    %eax,-0x8(%rbp)
  403388:	f3 0f 10 45 f8       	movss  -0x8(%rbp),%xmm0
  40338d:	be 13 92 40 00       	mov    $0x409213,%esi
  403392:	bf 0b 00 00 00       	mov    $0xb,%edi
  403397:	e8 62 1c 00 00       	callq  404ffe <_ZN2CK13store_value_fEiPKcf>
  40339c:	90                   	nop
  40339d:	c9                   	leaveq 
  40339e:	c3                   	retq   
  40339f:	90                   	nop

00000000004033a0 <_ZZ4mainENKUlvE_clEv>:
  4033a0:	55                   	push   %rbp
  4033a1:	48 89 e5             	mov    %rsp,%rbp
  4033a4:	41 56                	push   %r14
  4033a6:	41 55                	push   %r13
  4033a8:	41 54                	push   %r12
  4033aa:	53                   	push   %rbx
  4033ab:	48 81 ec 70 02 00 00 	sub    $0x270,%rsp
  4033b2:	48 89 bd 78 fd ff ff 	mov    %rdi,-0x288(%rbp)
  4033b9:	64 48 8b 04 25 28 00 	mov    %fs:0x28,%rax
  4033c0:	00 00 
  4033c2:	48 89 45 d8          	mov    %rax,-0x28(%rbp)
  4033c6:	31 c0                	xor    %eax,%eax
  4033c8:	48 8b 85 78 fd ff ff 	mov    -0x288(%rbp),%rax
  4033cf:	48 8b 10             	mov    (%rax),%rdx
  4033d2:	48 8d 85 88 fd ff ff 	lea    -0x278(%rbp),%rax
  4033d9:	48 89 d6             	mov    %rdx,%rsi
  4033dc:	48 89 c7             	mov    %rax,%rdi
  4033df:	e8 cc fc ff ff       	callq  4030b0 <_ZN10tensorflow13ClientSessionC1ERKNS_5ScopeE@plt>
  4033e4:	48 8b 85 78 fd ff ff 	mov    -0x288(%rbp),%rax
  4033eb:	4c 8b 70 20          	mov    0x20(%rax),%r14
  4033ef:	48 8b 85 78 fd ff ff 	mov    -0x288(%rbp),%rax
  4033f6:	48 8b 58 18          	mov    0x18(%rax),%rbx
  4033fa:	48 8d 85 c0 fd ff ff 	lea    -0x240(%rbp),%rax
  403401:	48 89 c7             	mov    %rax,%rdi
  403404:	e8 69 31 00 00       	callq  406572 <_ZNSt6vectorIN10tensorflow9OperationESaIS1_EEC1Ev>
  403409:	48 8b 85 78 fd ff ff 	mov    -0x288(%rbp),%rax
  403410:	48 8b 50 10          	mov    0x10(%rax),%rdx
  403414:	48 8d 85 20 fe ff ff 	lea    -0x1e0(%rbp),%rax
  40341b:	48 89 d6             	mov    %rdx,%rsi
  40341e:	48 89 c7             	mov    %rax,%rdi
  403421:	e8 4e 21 00 00       	callq  405574 <_ZNK10tensorflow3ops7ReshapecvNS_6OutputEEv>
  403426:	48 8d 85 20 fe ff ff 	lea    -0x1e0(%rbp),%rax
  40342d:	49 89 c4             	mov    %rax,%r12
  403430:	41 bd 01 00 00 00    	mov    $0x1,%r13d
  403436:	48 8d 85 87 fd ff ff 	lea    -0x279(%rbp),%rax
  40343d:	48 89 c7             	mov    %rax,%rdi
  403440:	e8 f7 2f 00 00       	callq  40643c <_ZNSaIN10tensorflow6OutputEEC1Ev>
  403445:	48 8d 95 87 fd ff ff 	lea    -0x279(%rbp),%rdx
  40344c:	4d 89 e0             	mov    %r12,%r8
  40344f:	4d 89 e9             	mov    %r13,%r9
  403452:	4c 89 e6             	mov    %r12,%rsi
  403455:	4c 89 ef             	mov    %r13,%rdi
  403458:	48 8d 85 a0 fd ff ff 	lea    -0x260(%rbp),%rax
  40345f:	48 89 d1             	mov    %rdx,%rcx
  403462:	4c 89 c6             	mov    %r8,%rsi
  403465:	48 89 fa             	mov    %rdi,%rdx
  403468:	48 89 c7             	mov    %rax,%rdi
  40346b:	e8 04 30 00 00       	callq  406474 <_ZNSt6vectorIN10tensorflow6OutputESaIS1_EEC1ESt16initializer_listIS1_ERKS2_>
  403470:	48 8d 95 e0 fd ff ff 	lea    -0x220(%rbp),%rdx
  403477:	b8 00 00 00 00       	mov    $0x0,%eax
  40347c:	b9 07 00 00 00       	mov    $0x7,%ecx
  403481:	48 89 d7             	mov    %rdx,%rdi
  403484:	f3 48 ab             	rep stos %rax,%es:(%rdi)
  403487:	48 8d 85 e0 fd ff ff 	lea    -0x220(%rbp),%rax
  40348e:	48 89 c7             	mov    %rax,%rdi
  403491:	e8 f0 23 00 00       	callq  405886 <_ZNSt13unordered_mapIN10tensorflow6OutputENS0_5Input11InitializerENS0_10OutputHashESt8equal_toIS1_ESaISt4pairIKS1_S3_EEEC1Ev>
  403496:	48 8b 85 78 fd ff ff 	mov    -0x288(%rbp),%rax
  40349d:	48 8b 50 08          	mov    0x8(%rax),%rdx
  4034a1:	48 8d 85 90 fd ff ff 	lea    -0x270(%rbp),%rax
  4034a8:	4c 8d 85 c0 fd ff ff 	lea    -0x240(%rbp),%r8
  4034af:	48 8d bd a0 fd ff ff 	lea    -0x260(%rbp),%rdi
  4034b6:	48 8d 8d e0 fd ff ff 	lea    -0x220(%rbp),%rcx
  4034bd:	48 8d b5 88 fd ff ff 	lea    -0x278(%rbp),%rsi
  4034c4:	41 56                	push   %r14
  4034c6:	53                   	push   %rbx
  4034c7:	4d 89 c1             	mov    %r8,%r9
  4034ca:	49 89 f8             	mov    %rdi,%r8
  4034cd:	48 89 c7             	mov    %rax,%rdi
  4034d0:	e8 0b fc ff ff       	callq  4030e0 <_ZNK10tensorflow13ClientSession3RunERKNS_10RunOptionsERKSt13unordered_mapINS_6OutputENS_5Input11InitializerENS_10OutputHashESt8equal_toIS5_ESaISt4pairIKS5_S7_EEERKSt6vectorIS5_SaIS5_EERKSI_INS_9OperationESaISN_EEPSI_INS_6TensorESaISS_EEPNS_11RunMetadataE@plt>
  4034d5:	48 83 c4 10          	add    $0x10,%rsp
  4034d9:	48 8d 85 e0 fd ff ff 	lea    -0x220(%rbp),%rax
  4034e0:	48 89 c7             	mov    %rax,%rdi
  4034e3:	e8 ba 23 00 00       	callq  4058a2 <_ZNSt13unordered_mapIN10tensorflow6OutputENS0_5Input11InitializerENS0_10OutputHashESt8equal_toIS1_ESaISt4pairIKS1_S3_EEED1Ev>
  4034e8:	48 8d 85 a0 fd ff ff 	lea    -0x260(%rbp),%rax
  4034ef:	48 89 c7             	mov    %rax,%rdi
  4034f2:	e8 37 30 00 00       	callq  40652e <_ZNSt6vectorIN10tensorflow6OutputESaIS1_EED1Ev>
  4034f7:	48 8d 85 87 fd ff ff 	lea    -0x279(%rbp),%rax
  4034fe:	48 89 c7             	mov    %rax,%rdi
  403501:	e8 52 2f 00 00       	callq  406458 <_ZNSaIN10tensorflow6OutputEED1Ev>
  403506:	48 8d 9d 20 fe ff ff 	lea    -0x1e0(%rbp),%rbx
  40350d:	48 83 c3 28          	add    $0x28,%rbx
  403511:	48 8d 85 20 fe ff ff 	lea    -0x1e0(%rbp),%rax
  403518:	48 39 c3             	cmp    %rax,%rbx
  40351b:	74 0e                	je     40352b <_ZZ4mainENKUlvE_clEv+0x18b>
  40351d:	48 83 eb 28          	sub    $0x28,%rbx
  403521:	48 89 df             	mov    %rbx,%rdi
  403524:	e8 d1 14 00 00       	callq  4049fa <_ZN10tensorflow6OutputD1Ev>
  403529:	eb e6                	jmp    403511 <_ZZ4mainENKUlvE_clEv+0x171>
  40352b:	48 8d 85 c0 fd ff ff 	lea    -0x240(%rbp),%rax
  403532:	48 89 c7             	mov    %rax,%rdi
  403535:	e8 54 30 00 00       	callq  40658e <_ZNSt6vectorIN10tensorflow9OperationESaIS1_EED1Ev>
  40353a:	48 8d 95 90 fd ff ff 	lea    -0x270(%rbp),%rdx
  403541:	48 8d 85 e0 fd ff ff 	lea    -0x220(%rbp),%rax
  403548:	48 89 d6             	mov    %rdx,%rsi
  40354b:	48 89 c7             	mov    %rax,%rdi
  40354e:	e8 e1 0d 00 00       	callq  404334 <_ZN10tensorflow6StatusC1ERKS0_>
  403553:	48 8d 85 e0 fd ff ff 	lea    -0x220(%rbp),%rax
  40355a:	be dc 92 40 00       	mov    $0x4092dc,%esi
  40355f:	48 89 c7             	mov    %rax,%rdi
  403562:	e8 56 0e 00 00       	callq  4043bd <_ZN10tensorflow15TfCheckOpHelperB5cxx11ENS_6StatusEPKc>
  403567:	48 89 85 98 fd ff ff 	mov    %rax,-0x268(%rbp)
  40356e:	48 8d 85 e0 fd ff ff 	lea    -0x220(%rbp),%rax
  403575:	48 89 c7             	mov    %rax,%rdi
  403578:	e8 23 0d 00 00       	callq  4042a0 <_ZN10tensorflow6StatusD1Ev>
  40357d:	48 83 bd 98 fd ff ff 	cmpq   $0x0,-0x268(%rbp)
  403584:	00 
  403585:	74 41                	je     4035c8 <_ZZ4mainENKUlvE_clEv+0x228>
  403587:	48 8d 85 50 fe ff ff 	lea    -0x1b0(%rbp),%rax
  40358e:	ba 37 00 00 00       	mov    $0x37,%edx
  403593:	be e3 92 40 00       	mov    $0x4092e3,%esi
  403598:	48 89 c7             	mov    %rax,%rdi
  40359b:	e8 50 f7 ff ff       	callq  402cf0 <_ZN10tensorflow8internal15LogMessageFatalC1EPKci@plt>
  4035a0:	48 8b 95 98 fd ff ff 	mov    -0x268(%rbp),%rdx
  4035a7:	48 8d 85 50 fe ff ff 	lea    -0x1b0(%rbp),%rax
  4035ae:	48 89 d6             	mov    %rdx,%rsi
  4035b1:	48 89 c7             	mov    %rax,%rdi
  4035b4:	e8 bc 25 00 00       	callq  405b75 <_ZStlsIcSt11char_traitsIcENSt7__cxx1112basic_stringIcS1_SaIcEEEERSt13basic_ostreamIT_T0_EOS9_RKT1_>
  4035b9:	48 8d 85 50 fe ff ff 	lea    -0x1b0(%rbp),%rax
  4035c0:	48 89 c7             	mov    %rax,%rdi
  4035c3:	e8 d8 f8 ff ff       	callq  402ea0 <_ZN10tensorflow8internal15LogMessageFatalD1Ev@plt>
  4035c8:	48 8d 85 90 fd ff ff 	lea    -0x270(%rbp),%rax
  4035cf:	48 89 c7             	mov    %rax,%rdi
  4035d2:	e8 c9 0c 00 00       	callq  4042a0 <_ZN10tensorflow6StatusD1Ev>
  4035d7:	48 8d 85 88 fd ff ff 	lea    -0x278(%rbp),%rax
  4035de:	48 89 c7             	mov    %rax,%rdi
  4035e1:	e8 1a fb ff ff       	callq  403100 <_ZN10tensorflow13ClientSessionD1Ev@plt>
  4035e6:	90                   	nop
  4035e7:	48 8b 45 d8          	mov    -0x28(%rbp),%rax
  4035eb:	64 48 33 04 25 28 00 	xor    %fs:0x28,%rax
  4035f2:	00 00 
  4035f4:	0f 84 cf 00 00 00    	je     4036c9 <_ZZ4mainENKUlvE_clEv+0x329>
  4035fa:	e9 c5 00 00 00       	jmpq   4036c4 <_ZZ4mainENKUlvE_clEv+0x324>
  4035ff:	48 89 c3             	mov    %rax,%rbx
  403602:	48 8d 85 e0 fd ff ff 	lea    -0x220(%rbp),%rax
  403609:	48 89 c7             	mov    %rax,%rdi
  40360c:	e8 91 22 00 00       	callq  4058a2 <_ZNSt13unordered_mapIN10tensorflow6OutputENS0_5Input11InitializerENS0_10OutputHashESt8equal_toIS1_ESaISt4pairIKS1_S3_EEED1Ev>
  403611:	48 8d 85 a0 fd ff ff 	lea    -0x260(%rbp),%rax
  403618:	48 89 c7             	mov    %rax,%rdi
  40361b:	e8 0e 2f 00 00       	callq  40652e <_ZNSt6vectorIN10tensorflow6OutputESaIS1_EED1Ev>
  403620:	eb 03                	jmp    403625 <_ZZ4mainENKUlvE_clEv+0x285>
  403622:	48 89 c3             	mov    %rax,%rbx
  403625:	48 8d 85 87 fd ff ff 	lea    -0x279(%rbp),%rax
  40362c:	48 89 c7             	mov    %rax,%rdi
  40362f:	e8 24 2e 00 00       	callq  406458 <_ZNSaIN10tensorflow6OutputEED1Ev>
  403634:	49 89 dc             	mov    %rbx,%r12
  403637:	48 8d 9d 20 fe ff ff 	lea    -0x1e0(%rbp),%rbx
  40363e:	48 83 c3 28          	add    $0x28,%rbx
  403642:	48 8d 85 20 fe ff ff 	lea    -0x1e0(%rbp),%rax
  403649:	48 39 c3             	cmp    %rax,%rbx
  40364c:	74 0e                	je     40365c <_ZZ4mainENKUlvE_clEv+0x2bc>
  40364e:	48 83 eb 28          	sub    $0x28,%rbx
  403652:	48 89 df             	mov    %rbx,%rdi
  403655:	e8 a0 13 00 00       	callq  4049fa <_ZN10tensorflow6OutputD1Ev>
  40365a:	eb e6                	jmp    403642 <_ZZ4mainENKUlvE_clEv+0x2a2>
  40365c:	4c 89 e3             	mov    %r12,%rbx
  40365f:	eb 03                	jmp    403664 <_ZZ4mainENKUlvE_clEv+0x2c4>
  403661:	48 89 c3             	mov    %rax,%rbx
  403664:	48 8d 85 c0 fd ff ff 	lea    -0x240(%rbp),%rax
  40366b:	48 89 c7             	mov    %rax,%rdi
  40366e:	e8 1b 2f 00 00       	callq  40658e <_ZNSt6vectorIN10tensorflow9OperationESaIS1_EED1Ev>
  403673:	eb 35                	jmp    4036aa <_ZZ4mainENKUlvE_clEv+0x30a>
  403675:	48 89 c3             	mov    %rax,%rbx
  403678:	48 8d 85 e0 fd ff ff 	lea    -0x220(%rbp),%rax
  40367f:	48 89 c7             	mov    %rax,%rdi
  403682:	e8 19 0c 00 00       	callq  4042a0 <_ZN10tensorflow6StatusD1Ev>
  403687:	eb 12                	jmp    40369b <_ZZ4mainENKUlvE_clEv+0x2fb>
  403689:	48 8d 85 50 fe ff ff 	lea    -0x1b0(%rbp),%rax
  403690:	48 89 c7             	mov    %rax,%rdi
  403693:	e8 08 f8 ff ff       	callq  402ea0 <_ZN10tensorflow8internal15LogMessageFatalD1Ev@plt>
  403698:	48 89 c3             	mov    %rax,%rbx
  40369b:	48 8d 85 90 fd ff ff 	lea    -0x270(%rbp),%rax
  4036a2:	48 89 c7             	mov    %rax,%rdi
  4036a5:	e8 f6 0b 00 00       	callq  4042a0 <_ZN10tensorflow6StatusD1Ev>
  4036aa:	48 8d 85 88 fd ff ff 	lea    -0x278(%rbp),%rax
  4036b1:	48 89 c7             	mov    %rax,%rdi
  4036b4:	e8 47 fa ff ff       	callq  403100 <_ZN10tensorflow13ClientSessionD1Ev@plt>
  4036b9:	48 89 d8             	mov    %rbx,%rax
  4036bc:	48 89 c7             	mov    %rax,%rdi
  4036bf:	e8 fc f8 ff ff       	callq  402fc0 <_Unwind_Resume@plt>
  4036c4:	e8 47 f6 ff ff       	callq  402d10 <__stack_chk_fail@plt>
  4036c9:	48 8d 65 e0          	lea    -0x20(%rbp),%rsp
  4036cd:	5b                   	pop    %rbx
  4036ce:	41 5c                	pop    %r12
  4036d0:	41 5d                	pop    %r13
  4036d2:	41 5e                	pop    %r14
  4036d4:	5d                   	pop    %rbp
  4036d5:	c3                   	retq   

00000000004036d6 <main>:
  4036d6:	55                   	push   %rbp
  4036d7:	48 89 e5             	mov    %rsp,%rbp
  4036da:	41 57                	push   %r15
  4036dc:	41 56                	push   %r14
  4036de:	41 55                	push   %r13
  4036e0:	41 54                	push   %r12
  4036e2:	53                   	push   %rbx
  4036e3:	48 81 ec a8 03 00 00 	sub    $0x3a8,%rsp
  4036ea:	64 48 8b 04 25 28 00 	mov    %fs:0x28,%rax
  4036f1:	00 00 
  4036f3:	48 89 45 c8          	mov    %rax,-0x38(%rbp)
  4036f7:	31 c0                	xor    %eax,%eax
  4036f9:	e8 d1 1a 00 00       	callq  4051cf <_ZN2CK9init_testEv>
  4036fe:	48 8d 85 30 fc ff ff 	lea    -0x3d0(%rbp),%rax
  403705:	48 89 c7             	mov    %rax,%rdi
  403708:	e8 c3 f7 ff ff       	callq  402ed0 <_ZN10tensorflow5Scope12NewRootScopeEv@plt>
  40370d:	b9 01 00 00 00       	mov    $0x1,%ecx
  403712:	ba 01 00 00 00       	mov    $0x1,%edx
  403717:	be 03 00 00 00       	mov    $0x3,%esi
  40371c:	bf 01 00 00 00       	mov    $0x1,%edi
  403721:	e8 54 19 00 00       	callq  40507a <_ZN2CK24get_input_shape_from_envEiiii>
  403726:	48 89 85 60 fc ff ff 	mov    %rax,-0x3a0(%rbp)
  40372d:	48 89 95 68 fc ff ff 	mov    %rdx,-0x398(%rbp)
  403734:	8b 85 60 fc ff ff    	mov    -0x3a0(%rbp),%eax
  40373a:	48 98                	cltq   
  40373c:	48 89 85 50 ff ff ff 	mov    %rax,-0xb0(%rbp)
  403743:	8b 85 68 fc ff ff    	mov    -0x398(%rbp),%eax
  403749:	48 98                	cltq   
  40374b:	48 89 85 58 ff ff ff 	mov    %rax,-0xa8(%rbp)
  403752:	8b 85 6c fc ff ff    	mov    -0x394(%rbp),%eax
  403758:	48 98                	cltq   
  40375a:	48 89 85 60 ff ff ff 	mov    %rax,-0xa0(%rbp)
  403761:	8b 85 64 fc ff ff    	mov    -0x39c(%rbp),%eax
  403767:	48 98                	cltq   
  403769:	48 89 85 68 ff ff ff 	mov    %rax,-0x98(%rbp)
  403770:	48 8d 85 50 ff ff ff 	lea    -0xb0(%rbp),%rax
  403777:	49 89 c6             	mov    %rax,%r14
  40377a:	41 bf 04 00 00 00    	mov    $0x4,%r15d
  403780:	4c 89 f1             	mov    %r14,%rcx
  403783:	4c 89 fb             	mov    %r15,%rbx
  403786:	4c 89 f0             	mov    %r14,%rax
  403789:	4c 89 fa             	mov    %r15,%rdx
  40378c:	48 8d 85 90 fd ff ff 	lea    -0x270(%rbp),%rax
  403793:	48 89 ce             	mov    %rcx,%rsi
  403796:	48 89 c7             	mov    %rax,%rdi
  403799:	e8 ea 1c 00 00       	callq  405488 <_ZN10tensorflow11TensorShapeC1ESt16initializer_listIxE>
  40379e:	48 8d 95 90 fd ff ff 	lea    -0x270(%rbp),%rdx
  4037a5:	48 8d 85 d0 fd ff ff 	lea    -0x230(%rbp),%rax
  4037ac:	be 0c 00 00 00       	mov    $0xc,%esi
  4037b1:	48 89 c7             	mov    %rax,%rdi
  4037b4:	e8 07 f6 ff ff       	callq  402dc0 <_ZN10tensorflow6TensorC1ENS_8DataTypeERKNS_11TensorShapeE@plt>
  4037b9:	48 8d 85 90 fd ff ff 	lea    -0x270(%rbp),%rax
  4037c0:	48 89 c7             	mov    %rax,%rdi
  4037c3:	e8 10 11 00 00       	callq  4048d8 <_ZN10tensorflow11TensorShapeD1Ev>
  4037c8:	48 8d 85 30 fd ff ff 	lea    -0x2d0(%rbp),%rax
  4037cf:	be ff 00 00 00       	mov    $0xff,%esi
  4037d4:	48 89 c7             	mov    %rax,%rdi
  4037d7:	e8 d6 08 00 00       	callq  4040b2 <_ZN5Eigen6QUInt8C1Eh>
  4037dc:	48 8d 85 00 fd ff ff 	lea    -0x300(%rbp),%rax
  4037e3:	be 00 00 00 00       	mov    $0x0,%esi
  4037e8:	48 89 c7             	mov    %rax,%rdi
  4037eb:	e8 c2 08 00 00       	callq  4040b2 <_ZN5Eigen6QUInt8C1Eh>
  4037f0:	0f b6 95 30 fd ff ff 	movzbl -0x2d0(%rbp),%edx
  4037f7:	0f b6 8d 00 fd ff ff 	movzbl -0x300(%rbp),%ecx
  4037fe:	48 8d 85 60 fc ff ff 	lea    -0x3a0(%rbp),%rax
  403805:	89 ce                	mov    %ecx,%esi
  403807:	48 89 c7             	mov    %rax,%rdi
  40380a:	e8 59 28 00 00       	callq  406068 <_ZN2CK19get_random_raw_dataIN5Eigen6QUInt8EEEPT_RKNS_5ShapeES3_S3_>
  40380f:	48 89 85 48 fc ff ff 	mov    %rax,-0x3b8(%rbp)
  403816:	48 8d 95 60 fc ff ff 	lea    -0x3a0(%rbp),%rdx
  40381d:	48 8b 85 48 fc ff ff 	mov    -0x3b8(%rbp),%rax
  403824:	48 89 d6             	mov    %rdx,%rsi
  403827:	48 89 c7             	mov    %rax,%rdi
  40382a:	e8 73 2a 00 00       	callq  4062a2 <_ZN2CK20print_input_raw_dataIN5Eigen6QUInt8EEEvPT_RKNS_5ShapeE>
  40382f:	48 8d 85 60 fc ff ff 	lea    -0x3a0(%rbp),%rax
  403836:	48 89 c7             	mov    %rax,%rdi
  403839:	e8 68 16 00 00       	callq  404ea6 <_ZNK2CK5Shape10data_countEv>
  40383e:	48 63 d8             	movslq %eax,%rbx
  403841:	48 8d 85 d0 fd ff ff 	lea    -0x230(%rbp),%rax
  403848:	48 89 c7             	mov    %rax,%rdi
  40384b:	e8 80 2a 00 00       	callq  4062d0 <_ZN10tensorflow6Tensor4flatIN5Eigen6QUInt8EEENS_6TTypesIT_Li1ElE4FlatEv>
  403850:	48 89 85 70 fd ff ff 	mov    %rax,-0x290(%rbp)
  403857:	48 89 95 78 fd ff ff 	mov    %rdx,-0x288(%rbp)
  40385e:	48 8d 85 70 fd ff ff 	lea    -0x290(%rbp),%rax
  403865:	48 89 c7             	mov    %rax,%rdi
  403868:	e8 f1 2a 00 00       	callq  40635e <_ZN5Eigen9TensorMapINS_6TensorINS_6QUInt8ELi1ELi1ElEELi16ENS_11MakePointerEE4dataEv>
  40386d:	48 89 c1             	mov    %rax,%rcx
  403870:	48 8b 85 48 fc ff ff 	mov    -0x3b8(%rbp),%rax
  403877:	48 89 da             	mov    %rbx,%rdx
  40387a:	48 89 c6             	mov    %rax,%rsi
  40387d:	48 89 cf             	mov    %rcx,%rdi
  403880:	e8 0b f8 ff ff       	callq  403090 <memcpy@plt>
  403885:	48 83 bd 48 fc ff ff 	cmpq   $0x0,-0x3b8(%rbp)
  40388c:	00 
  40388d:	74 0f                	je     40389e <main+0x1c8>
  40388f:	48 8b 85 48 fc ff ff 	mov    -0x3b8(%rbp),%rax
  403896:	48 89 c7             	mov    %rax,%rdi
  403899:	e8 b2 f6 ff ff       	callq  402f50 <_ZdaPv@plt>
  40389e:	c7 85 70 fc ff ff 01 	movl   $0x1,-0x390(%rbp)
  4038a5:	00 00 00 
  4038a8:	c7 85 74 fc ff ff 01 	movl   $0x1,-0x38c(%rbp)
  4038af:	00 00 00 
  4038b2:	c7 85 78 fc ff ff 01 	movl   $0x1,-0x388(%rbp)
  4038b9:	00 00 00 
  4038bc:	c7 85 7c fc ff ff 01 	movl   $0x1,-0x384(%rbp)
  4038c3:	00 00 00 
  4038c6:	8b 85 60 fc ff ff    	mov    -0x3a0(%rbp),%eax
  4038cc:	89 85 70 fc ff ff    	mov    %eax,-0x390(%rbp)
  4038d2:	be 01 00 00 00       	mov    $0x1,%esi
  4038d7:	bf f2 92 40 00       	mov    $0x4092f2,%edi
  4038dc:	e8 70 16 00 00       	callq  404f51 <_ZN2CK8getenv_iEPKci>
  4038e1:	89 85 78 fc ff ff    	mov    %eax,-0x388(%rbp)
  4038e7:	be 01 00 00 00       	mov    $0x1,%esi
  4038ec:	bf 01 93 40 00       	mov    $0x409301,%edi
  4038f1:	e8 5b 16 00 00       	callq  404f51 <_ZN2CK8getenv_iEPKci>
  4038f6:	89 85 7c fc ff ff    	mov    %eax,-0x384(%rbp)
  4038fc:	be 01 00 00 00       	mov    $0x1,%esi
  403901:	bf 10 93 40 00       	mov    $0x409310,%edi
  403906:	e8 46 16 00 00       	callq  404f51 <_ZN2CK8getenv_iEPKci>
  40390b:	89 85 74 fc ff ff    	mov    %eax,-0x38c(%rbp)
  403911:	8b 85 70 fc ff ff    	mov    -0x390(%rbp),%eax
  403917:	48 98                	cltq   
  403919:	48 89 85 50 ff ff ff 	mov    %rax,-0xb0(%rbp)
  403920:	8b 85 78 fc ff ff    	mov    -0x388(%rbp),%eax
  403926:	48 98                	cltq   
  403928:	48 89 85 58 ff ff ff 	mov    %rax,-0xa8(%rbp)
  40392f:	8b 85 7c fc ff ff    	mov    -0x384(%rbp),%eax
  403935:	48 98                	cltq   
  403937:	48 89 85 60 ff ff ff 	mov    %rax,-0xa0(%rbp)
  40393e:	8b 85 74 fc ff ff    	mov    -0x38c(%rbp),%eax
  403944:	48 98                	cltq   
  403946:	48 89 85 68 ff ff ff 	mov    %rax,-0x98(%rbp)
  40394d:	48 8d 85 50 ff ff ff 	lea    -0xb0(%rbp),%rax
  403954:	49 89 c4             	mov    %rax,%r12
  403957:	41 bd 04 00 00 00    	mov    $0x4,%r13d
  40395d:	4c 89 e1             	mov    %r12,%rcx
  403960:	4c 89 eb             	mov    %r13,%rbx
  403963:	4c 89 e0             	mov    %r12,%rax
  403966:	4c 89 ea             	mov    %r13,%rdx
  403969:	48 8d 85 b0 fd ff ff 	lea    -0x250(%rbp),%rax
  403970:	48 89 ce             	mov    %rcx,%rsi
  403973:	48 89 c7             	mov    %rax,%rdi
  403976:	e8 0d 1b 00 00       	callq  405488 <_ZN10tensorflow11TensorShapeC1ESt16initializer_listIxE>
  40397b:	48 8d 95 b0 fd ff ff 	lea    -0x250(%rbp),%rdx
  403982:	48 8d 85 f0 fd ff ff 	lea    -0x210(%rbp),%rax
  403989:	be 0c 00 00 00       	mov    $0xc,%esi
  40398e:	48 89 c7             	mov    %rax,%rdi
  403991:	e8 2a f4 ff ff       	callq  402dc0 <_ZN10tensorflow6TensorC1ENS_8DataTypeERKNS_11TensorShapeE@plt>
  403996:	48 8d 85 b0 fd ff ff 	lea    -0x250(%rbp),%rax
  40399d:	48 89 c7             	mov    %rax,%rdi
  4039a0:	e8 33 0f 00 00       	callq  4048d8 <_ZN10tensorflow11TensorShapeD1Ev>
  4039a5:	48 8d 85 80 fc ff ff 	lea    -0x380(%rbp),%rax
  4039ac:	48 89 c7             	mov    %rax,%rdi
  4039af:	e8 bc 29 00 00       	callq  406370 <_ZNSt6vectorIN10tensorflow6TensorESaIS1_EEC1Ev>
  4039b4:	48 c7 85 50 fc ff ff 	movq   $0x40931f,-0x3b0(%rbp)
  4039bb:	1f 93 40 00 
  4039bf:	48 8d 95 f0 fd ff ff 	lea    -0x210(%rbp),%rdx
  4039c6:	48 8d 85 50 fe ff ff 	lea    -0x1b0(%rbp),%rax
  4039cd:	48 89 d6             	mov    %rdx,%rsi
  4039d0:	48 89 c7             	mov    %rax,%rdi
  4039d3:	e8 7e 11 00 00       	callq  404b56 <_ZN10tensorflow5InputC1ERKNS_6TensorE>
  4039d8:	48 8d 85 30 fd ff ff 	lea    -0x2d0(%rbp),%rax
  4039df:	48 89 c7             	mov    %rax,%rdi
  4039e2:	e8 b9 f3 ff ff       	callq  402da0 <_ZNSaIcEC1Ev@plt>
  4039e7:	48 8d 95 30 fd ff ff 	lea    -0x2d0(%rbp),%rdx
  4039ee:	48 8d 85 30 fe ff ff 	lea    -0x1d0(%rbp),%rax
  4039f5:	be 2c 93 40 00       	mov    $0x40932c,%esi
  4039fa:	48 89 c7             	mov    %rax,%rdi
  4039fd:	e8 ee f5 ff ff       	callq  402ff0 <_ZNSt7__cxx1112basic_stringIcSt11char_traitsIcESaIcEEC1EPKcRKS3_@plt>
  403a02:	48 8d 85 40 fc ff ff 	lea    -0x3c0(%rbp),%rax
  403a09:	48 8d 95 30 fe ff ff 	lea    -0x1d0(%rbp),%rdx
  403a10:	48 8d 8d 30 fc ff ff 	lea    -0x3d0(%rbp),%rcx
  403a17:	48 89 ce             	mov    %rcx,%rsi
  403a1a:	48 89 c7             	mov    %rax,%rdi
  403a1d:	e8 7e f7 ff ff       	callq  4031a0 <_ZNK10tensorflow5Scope10WithOpNameERKNSt7__cxx1112basic_stringIcSt11char_traitsIcESaIcEEE@plt>
  403a22:	48 8d 95 50 fe ff ff 	lea    -0x1b0(%rbp),%rdx
  403a29:	48 8d 8d 40 fc ff ff 	lea    -0x3c0(%rbp),%rcx
  403a30:	48 8d 85 d0 fc ff ff 	lea    -0x330(%rbp),%rax
  403a37:	48 89 ce             	mov    %rcx,%rsi
  403a3a:	48 89 c7             	mov    %rax,%rdi
  403a3d:	e8 0e f6 ff ff       	callq  403050 <_ZN10tensorflow3ops5ShapeC1ERKNS_5ScopeENS_5InputE@plt>
  403a42:	48 8d 85 50 ff ff ff 	lea    -0xb0(%rbp),%rax
  403a49:	48 8d 95 d0 fc ff ff 	lea    -0x330(%rbp),%rdx
  403a50:	48 89 d6             	mov    %rdx,%rsi
  403a53:	48 89 c7             	mov    %rax,%rdi
  403a56:	e8 43 1b 00 00       	callq  40559e <_ZNK10tensorflow3ops5ShapecvNS_5InputEEv>
  403a5b:	48 8d 95 d0 fd ff ff 	lea    -0x230(%rbp),%rdx
  403a62:	48 8d 85 d0 fe ff ff 	lea    -0x130(%rbp),%rax
  403a69:	48 89 d6             	mov    %rdx,%rsi
  403a6c:	48 89 c7             	mov    %rax,%rdi
  403a6f:	e8 e2 10 00 00       	callq  404b56 <_ZN10tensorflow5InputC1ERKNS_6TensorE>
  403a74:	48 8d 85 00 fd ff ff 	lea    -0x300(%rbp),%rax
  403a7b:	48 89 c7             	mov    %rax,%rdi
  403a7e:	e8 1d f3 ff ff       	callq  402da0 <_ZNSaIcEC1Ev@plt>
  403a83:	48 8d 95 00 fd ff ff 	lea    -0x300(%rbp),%rdx
  403a8a:	48 8b 8d 50 fc ff ff 	mov    -0x3b0(%rbp),%rcx
  403a91:	48 8d 85 10 fe ff ff 	lea    -0x1f0(%rbp),%rax
  403a98:	48 89 ce             	mov    %rcx,%rsi
  403a9b:	48 89 c7             	mov    %rax,%rdi
  403a9e:	e8 4d f5 ff ff       	callq  402ff0 <_ZNSt7__cxx1112basic_stringIcSt11char_traitsIcESaIcEEC1EPKcRKS3_@plt>
  403aa3:	48 8d 85 38 fc ff ff 	lea    -0x3c8(%rbp),%rax
  403aaa:	48 8d 95 10 fe ff ff 	lea    -0x1f0(%rbp),%rdx
  403ab1:	48 8d 8d 30 fc ff ff 	lea    -0x3d0(%rbp),%rcx
  403ab8:	48 89 ce             	mov    %rcx,%rsi
  403abb:	48 89 c7             	mov    %rax,%rdi
  403abe:	e8 dd f6 ff ff       	callq  4031a0 <_ZNK10tensorflow5Scope10WithOpNameERKNSt7__cxx1112basic_stringIcSt11char_traitsIcESaIcEEE@plt>
  403ac3:	48 8d 8d 50 ff ff ff 	lea    -0xb0(%rbp),%rcx
  403aca:	48 8d 95 d0 fe ff ff 	lea    -0x130(%rbp),%rdx
  403ad1:	48 8d b5 38 fc ff ff 	lea    -0x3c8(%rbp),%rsi
  403ad8:	48 8d 85 a0 fc ff ff 	lea    -0x360(%rbp),%rax
  403adf:	48 89 c7             	mov    %rax,%rdi
  403ae2:	e8 69 f3 ff ff       	callq  402e50 <_ZN10tensorflow3ops7ReshapeC1ERKNS_5ScopeENS_5InputES5_@plt>
  403ae7:	48 8d 85 38 fc ff ff 	lea    -0x3c8(%rbp),%rax
  403aee:	48 89 c7             	mov    %rax,%rdi
  403af1:	e8 6a f3 ff ff       	callq  402e60 <_ZN10tensorflow5ScopeD1Ev@plt>
  403af6:	48 8d 85 10 fe ff ff 	lea    -0x1f0(%rbp),%rax
  403afd:	48 89 c7             	mov    %rax,%rdi
  403b00:	e8 6b f3 ff ff       	callq  402e70 <_ZNSt7__cxx1112basic_stringIcSt11char_traitsIcESaIcEED1Ev@plt>
  403b05:	48 8d 85 00 fd ff ff 	lea    -0x300(%rbp),%rax
  403b0c:	48 89 c7             	mov    %rax,%rdi
  403b0f:	e8 cc f6 ff ff       	callq  4031e0 <_ZNSaIcED1Ev@plt>
  403b14:	48 8d 85 d0 fe ff ff 	lea    -0x130(%rbp),%rax
  403b1b:	48 89 c7             	mov    %rax,%rdi
  403b1e:	e8 a5 11 00 00       	callq  404cc8 <_ZN10tensorflow5InputD1Ev>
  403b23:	48 8d 85 50 ff ff ff 	lea    -0xb0(%rbp),%rax
  403b2a:	48 89 c7             	mov    %rax,%rdi
  403b2d:	e8 96 11 00 00       	callq  404cc8 <_ZN10tensorflow5InputD1Ev>
  403b32:	48 8d 85 d0 fc ff ff 	lea    -0x330(%rbp),%rax
  403b39:	48 89 c7             	mov    %rax,%rdi
  403b3c:	e8 87 1a 00 00       	callq  4055c8 <_ZN10tensorflow3ops5ShapeD1Ev>
  403b41:	48 8d 85 40 fc ff ff 	lea    -0x3c0(%rbp),%rax
  403b48:	48 89 c7             	mov    %rax,%rdi
  403b4b:	e8 10 f3 ff ff       	callq  402e60 <_ZN10tensorflow5ScopeD1Ev@plt>
  403b50:	48 8d 85 30 fe ff ff 	lea    -0x1d0(%rbp),%rax
  403b57:	48 89 c7             	mov    %rax,%rdi
  403b5a:	e8 11 f3 ff ff       	callq  402e70 <_ZNSt7__cxx1112basic_stringIcSt11char_traitsIcESaIcEED1Ev@plt>
  403b5f:	48 8d 85 30 fd ff ff 	lea    -0x2d0(%rbp),%rax
  403b66:	48 89 c7             	mov    %rax,%rdi
  403b69:	e8 72 f6 ff ff       	callq  4031e0 <_ZNSaIcED1Ev@plt>
  403b6e:	48 8d 85 50 fe ff ff 	lea    -0x1b0(%rbp),%rax
  403b75:	48 89 c7             	mov    %rax,%rdi
  403b78:	e8 4b 11 00 00       	callq  404cc8 <_ZN10tensorflow5InputD1Ev>
  403b7d:	48 8d 85 00 fd ff ff 	lea    -0x300(%rbp),%rax
  403b84:	48 89 c7             	mov    %rax,%rdi
  403b87:	e8 64 f5 ff ff       	callq  4030f0 <_ZN10tensorflow10RunOptionsC1Ev@plt>
  403b8c:	48 8d 85 00 fd ff ff 	lea    -0x300(%rbp),%rax
  403b93:	be 03 00 00 00       	mov    $0x3,%esi
  403b98:	48 89 c7             	mov    %rax,%rdi
  403b9b:	e8 40 12 00 00       	callq  404de0 <_ZN10tensorflow10RunOptions15set_trace_levelENS_21RunOptions_TraceLevelE>
  403ba0:	48 8d 85 30 fd ff ff 	lea    -0x2d0(%rbp),%rax
  403ba7:	48 89 c7             	mov    %rax,%rdi
  403baa:	e8 51 f4 ff ff       	callq  403000 <_ZN10tensorflow11RunMetadataC1Ev@plt>
  403baf:	48 8d 85 30 fc ff ff 	lea    -0x3d0(%rbp),%rax
  403bb6:	48 89 85 d0 fc ff ff 	mov    %rax,-0x330(%rbp)
  403bbd:	48 8d 85 00 fd ff ff 	lea    -0x300(%rbp),%rax
  403bc4:	48 89 85 d8 fc ff ff 	mov    %rax,-0x328(%rbp)
  403bcb:	48 8d 85 a0 fc ff ff 	lea    -0x360(%rbp),%rax
  403bd2:	48 89 85 e0 fc ff ff 	mov    %rax,-0x320(%rbp)
  403bd9:	48 8d 85 80 fc ff ff 	lea    -0x380(%rbp),%rax
  403be0:	48 89 85 e8 fc ff ff 	mov    %rax,-0x318(%rbp)
  403be7:	48 8d 85 30 fd ff ff 	lea    -0x2d0(%rbp),%rax
  403bee:	48 89 85 f0 fc ff ff 	mov    %rax,-0x310(%rbp)
  403bf5:	48 8d 85 d0 fc ff ff 	lea    -0x330(%rbp),%rax
  403bfc:	48 89 c7             	mov    %rax,%rdi
  403bff:	e8 07 03 00 00       	callq  403f0b <_ZN2CK12measure_testIZ4mainEUlvE_EEvOT_>
  403c04:	48 8d 95 70 fc ff ff 	lea    -0x390(%rbp),%rdx
  403c0b:	48 8d 85 f0 fd ff ff 	lea    -0x210(%rbp),%rax
  403c12:	48 89 d6             	mov    %rdx,%rsi
  403c15:	48 89 c7             	mov    %rax,%rdi
  403c18:	e8 b5 29 00 00       	callq  4065d2 <_ZN2CK2TF15get_tensor_dataIN5Eigen6QUInt8EEEPT_RKN10tensorflow6TensorERNS_5ShapeE>
  403c1d:	48 89 85 58 fc ff ff 	mov    %rax,-0x3a8(%rbp)
  403c24:	48 8d 85 70 fc ff ff 	lea    -0x390(%rbp),%rax
  403c2b:	48 89 c7             	mov    %rax,%rdi
  403c2e:	e8 73 12 00 00       	callq  404ea6 <_ZNK2CK5Shape10data_countEv>
  403c33:	48 63 d8             	movslq %eax,%rbx
  403c36:	48 8d 85 80 fc ff ff 	lea    -0x380(%rbp),%rax
  403c3d:	be 00 00 00 00       	mov    $0x0,%esi
  403c42:	48 89 c7             	mov    %rax,%rdi
  403c45:	e8 52 2a 00 00       	callq  40669c <_ZNSt6vectorIN10tensorflow6TensorESaIS1_EEixEm>
  403c4a:	48 89 c7             	mov    %rax,%rdi
  403c4d:	e8 7e 26 00 00       	callq  4062d0 <_ZN10tensorflow6Tensor4flatIN5Eigen6QUInt8EEENS_6TTypesIT_Li1ElE4FlatEv>
  403c52:	48 89 85 80 fd ff ff 	mov    %rax,-0x280(%rbp)
  403c59:	48 89 95 88 fd ff ff 	mov    %rdx,-0x278(%rbp)
  403c60:	48 8d 85 80 fd ff ff 	lea    -0x280(%rbp),%rax
  403c67:	48 89 c7             	mov    %rax,%rdi
  403c6a:	e8 ef 26 00 00       	callq  40635e <_ZN5Eigen9TensorMapINS_6TensorINS_6QUInt8ELi1ELi1ElEELi16ENS_11MakePointerEE4dataEv>
  403c6f:	48 89 c1             	mov    %rax,%rcx
  403c72:	48 8b 85 58 fc ff ff 	mov    -0x3a8(%rbp),%rax
  403c79:	48 89 da             	mov    %rbx,%rdx
  403c7c:	48 89 ce             	mov    %rcx,%rsi
  403c7f:	48 89 c7             	mov    %rax,%rdi
  403c82:	e8 09 f4 ff ff       	callq  403090 <memcpy@plt>
  403c87:	48 8d 95 70 fc ff ff 	lea    -0x390(%rbp),%rdx
  403c8e:	48 8b 85 58 fc ff ff 	mov    -0x3a8(%rbp),%rax
  403c95:	48 89 d6             	mov    %rdx,%rsi
  403c98:	48 89 c7             	mov    %rax,%rdi
  403c9b:	e8 1c 2a 00 00       	callq  4066bc <_ZN2CK21print_output_raw_dataIN5Eigen6QUInt8EEEvPT_RKNS_5ShapeE>
  403ca0:	48 8d 95 70 fc ff ff 	lea    -0x390(%rbp),%rdx
  403ca7:	48 8b 85 58 fc ff ff 	mov    -0x3a8(%rbp),%rax
  403cae:	48 89 d6             	mov    %rdx,%rsi
  403cb1:	48 89 c7             	mov    %rax,%rdi
  403cb4:	e8 30 2a 00 00       	callq  4066e9 <_ZN2CK20dump_output_raw_dataIN5Eigen6QUInt8EEEvPT_RKNS_5ShapeE>
  403cb9:	48 83 bd 58 fc ff ff 	cmpq   $0x0,-0x3a8(%rbp)
  403cc0:	00 
  403cc1:	74 0f                	je     403cd2 <main+0x5fc>
  403cc3:	48 8b 85 58 fc ff ff 	mov    -0x3a8(%rbp),%rax
  403cca:	48 89 c7             	mov    %rax,%rdi
  403ccd:	e8 7e f2 ff ff       	callq  402f50 <_ZdaPv@plt>
  403cd2:	48 8b 95 50 fc ff ff 	mov    -0x3b0(%rbp),%rdx
  403cd9:	48 8d 85 30 fd ff ff 	lea    -0x2d0(%rbp),%rax
  403ce0:	48 89 d6             	mov    %rdx,%rsi
  403ce3:	48 89 c7             	mov    %rax,%rdi
  403ce6:	e8 d4 17 00 00       	callq  4054bf <_ZN2CK2TF16process_metadataERKN10tensorflow11RunMetadataEPKc>
  403ceb:	e8 29 15 00 00       	callq  405219 <_ZN2CK11finish_testEv>
  403cf0:	bb 00 00 00 00       	mov    $0x0,%ebx
  403cf5:	48 8d 85 30 fd ff ff 	lea    -0x2d0(%rbp),%rax
  403cfc:	48 89 c7             	mov    %rax,%rdi
  403cff:	e8 6c f0 ff ff       	callq  402d70 <_ZN10tensorflow11RunMetadataD1Ev@plt>
  403d04:	48 8d 85 00 fd ff ff 	lea    -0x300(%rbp),%rax
  403d0b:	48 89 c7             	mov    %rax,%rdi
  403d0e:	e8 cd ef ff ff       	callq  402ce0 <_ZN10tensorflow10RunOptionsD1Ev@plt>
  403d13:	48 8d 85 a0 fc ff ff 	lea    -0x360(%rbp),%rax
  403d1a:	48 89 c7             	mov    %rax,%rdi
  403d1d:	e8 c2 18 00 00       	callq  4055e4 <_ZN10tensorflow3ops7ReshapeD1Ev>
  403d22:	48 8d 85 80 fc ff ff 	lea    -0x380(%rbp),%rax
  403d29:	48 89 c7             	mov    %rax,%rdi
  403d2c:	e8 5b 26 00 00       	callq  40638c <_ZNSt6vectorIN10tensorflow6TensorESaIS1_EED1Ev>
  403d31:	48 8d 85 f0 fd ff ff 	lea    -0x210(%rbp),%rax
  403d38:	48 89 c7             	mov    %rax,%rdi
  403d3b:	e8 40 f0 ff ff       	callq  402d80 <_ZN10tensorflow6TensorD1Ev@plt>
  403d40:	48 8d 85 d0 fd ff ff 	lea    -0x230(%rbp),%rax
  403d47:	48 89 c7             	mov    %rax,%rdi
  403d4a:	e8 31 f0 ff ff       	callq  402d80 <_ZN10tensorflow6TensorD1Ev@plt>
  403d4f:	48 8d 85 30 fc ff ff 	lea    -0x3d0(%rbp),%rax
  403d56:	48 89 c7             	mov    %rax,%rdi
  403d59:	e8 02 f1 ff ff       	callq  402e60 <_ZN10tensorflow5ScopeD1Ev@plt>
  403d5e:	89 d8                	mov    %ebx,%eax
  403d60:	48 8b 4d c8          	mov    -0x38(%rbp),%rcx
  403d64:	64 48 33 0c 25 28 00 	xor    %fs:0x28,%rcx
  403d6b:	00 00 
  403d6d:	0f 84 86 01 00 00    	je     403ef9 <main+0x823>
  403d73:	e9 7c 01 00 00       	jmpq   403ef4 <main+0x81e>
  403d78:	48 89 c3             	mov    %rax,%rbx
  403d7b:	48 8d 85 90 fd ff ff 	lea    -0x270(%rbp),%rax
  403d82:	48 89 c7             	mov    %rax,%rdi
  403d85:	e8 4e 0b 00 00       	callq  4048d8 <_ZN10tensorflow11TensorShapeD1Ev>
  403d8a:	e9 4b 01 00 00       	jmpq   403eda <main+0x804>
  403d8f:	48 89 c3             	mov    %rax,%rbx
  403d92:	48 8d 85 b0 fd ff ff 	lea    -0x250(%rbp),%rax
  403d99:	48 89 c7             	mov    %rax,%rdi
  403d9c:	e8 37 0b 00 00       	callq  4048d8 <_ZN10tensorflow11TensorShapeD1Ev>
  403da1:	e9 20 01 00 00       	jmpq   403ec6 <main+0x7f0>
  403da6:	48 89 c3             	mov    %rax,%rbx
  403da9:	48 8d 85 38 fc ff ff 	lea    -0x3c8(%rbp),%rax
  403db0:	48 89 c7             	mov    %rax,%rdi
  403db3:	e8 a8 f0 ff ff       	callq  402e60 <_ZN10tensorflow5ScopeD1Ev@plt>
  403db8:	eb 03                	jmp    403dbd <main+0x6e7>
  403dba:	48 89 c3             	mov    %rax,%rbx
  403dbd:	48 8d 85 10 fe ff ff 	lea    -0x1f0(%rbp),%rax
  403dc4:	48 89 c7             	mov    %rax,%rdi
  403dc7:	e8 a4 f0 ff ff       	callq  402e70 <_ZNSt7__cxx1112basic_stringIcSt11char_traitsIcESaIcEED1Ev@plt>
  403dcc:	eb 03                	jmp    403dd1 <main+0x6fb>
  403dce:	48 89 c3             	mov    %rax,%rbx
  403dd1:	48 8d 85 00 fd ff ff 	lea    -0x300(%rbp),%rax
  403dd8:	48 89 c7             	mov    %rax,%rdi
  403ddb:	e8 00 f4 ff ff       	callq  4031e0 <_ZNSaIcED1Ev@plt>
  403de0:	48 8d 85 d0 fe ff ff 	lea    -0x130(%rbp),%rax
  403de7:	48 89 c7             	mov    %rax,%rdi
  403dea:	e8 d9 0e 00 00       	callq  404cc8 <_ZN10tensorflow5InputD1Ev>
  403def:	eb 03                	jmp    403df4 <main+0x71e>
  403df1:	48 89 c3             	mov    %rax,%rbx
  403df4:	48 8d 85 50 ff ff ff 	lea    -0xb0(%rbp),%rax
  403dfb:	48 89 c7             	mov    %rax,%rdi
  403dfe:	e8 c5 0e 00 00       	callq  404cc8 <_ZN10tensorflow5InputD1Ev>
  403e03:	eb 03                	jmp    403e08 <main+0x732>
  403e05:	48 89 c3             	mov    %rax,%rbx
  403e08:	48 8d 85 d0 fc ff ff 	lea    -0x330(%rbp),%rax
  403e0f:	48 89 c7             	mov    %rax,%rdi
  403e12:	e8 b1 17 00 00       	callq  4055c8 <_ZN10tensorflow3ops5ShapeD1Ev>
  403e17:	eb 03                	jmp    403e1c <main+0x746>
  403e19:	48 89 c3             	mov    %rax,%rbx
  403e1c:	48 8d 85 40 fc ff ff 	lea    -0x3c0(%rbp),%rax
  403e23:	48 89 c7             	mov    %rax,%rdi
  403e26:	e8 35 f0 ff ff       	callq  402e60 <_ZN10tensorflow5ScopeD1Ev@plt>
  403e2b:	eb 03                	jmp    403e30 <main+0x75a>
  403e2d:	48 89 c3             	mov    %rax,%rbx
  403e30:	48 8d 85 30 fe ff ff 	lea    -0x1d0(%rbp),%rax
  403e37:	48 89 c7             	mov    %rax,%rdi
  403e3a:	e8 31 f0 ff ff       	callq  402e70 <_ZNSt7__cxx1112basic_stringIcSt11char_traitsIcESaIcEED1Ev@plt>
  403e3f:	eb 03                	jmp    403e44 <main+0x76e>
  403e41:	48 89 c3             	mov    %rax,%rbx
  403e44:	48 8d 85 30 fd ff ff 	lea    -0x2d0(%rbp),%rax
  403e4b:	48 89 c7             	mov    %rax,%rdi
  403e4e:	e8 8d f3 ff ff       	callq  4031e0 <_ZNSaIcED1Ev@plt>
  403e53:	48 8d 85 50 fe ff ff 	lea    -0x1b0(%rbp),%rax
  403e5a:	48 89 c7             	mov    %rax,%rdi
  403e5d:	e8 66 0e 00 00       	callq  404cc8 <_ZN10tensorflow5InputD1Ev>
  403e62:	eb 3f                	jmp    403ea3 <main+0x7cd>
  403e64:	48 89 c3             	mov    %rax,%rbx
  403e67:	48 8d 85 30 fd ff ff 	lea    -0x2d0(%rbp),%rax
  403e6e:	48 89 c7             	mov    %rax,%rdi
  403e71:	e8 fa ee ff ff       	callq  402d70 <_ZN10tensorflow11RunMetadataD1Ev@plt>
  403e76:	eb 03                	jmp    403e7b <main+0x7a5>
  403e78:	48 89 c3             	mov    %rax,%rbx
  403e7b:	48 8d 85 00 fd ff ff 	lea    -0x300(%rbp),%rax
  403e82:	48 89 c7             	mov    %rax,%rdi
  403e85:	e8 56 ee ff ff       	callq  402ce0 <_ZN10tensorflow10RunOptionsD1Ev@plt>
  403e8a:	eb 03                	jmp    403e8f <main+0x7b9>
  403e8c:	48 89 c3             	mov    %rax,%rbx
  403e8f:	48 8d 85 a0 fc ff ff 	lea    -0x360(%rbp),%rax
  403e96:	48 89 c7             	mov    %rax,%rdi
  403e99:	e8 46 17 00 00       	callq  4055e4 <_ZN10tensorflow3ops7ReshapeD1Ev>
  403e9e:	eb 03                	jmp    403ea3 <main+0x7cd>
  403ea0:	48 89 c3             	mov    %rax,%rbx
  403ea3:	48 8d 85 80 fc ff ff 	lea    -0x380(%rbp),%rax
  403eaa:	48 89 c7             	mov    %rax,%rdi
  403ead:	e8 da 24 00 00       	callq  40638c <_ZNSt6vectorIN10tensorflow6TensorESaIS1_EED1Ev>
  403eb2:	48 8d 85 f0 fd ff ff 	lea    -0x210(%rbp),%rax
  403eb9:	48 89 c7             	mov    %rax,%rdi
  403ebc:	e8 bf ee ff ff       	callq  402d80 <_ZN10tensorflow6TensorD1Ev@plt>
  403ec1:	eb 03                	jmp    403ec6 <main+0x7f0>
  403ec3:	48 89 c3             	mov    %rax,%rbx
  403ec6:	48 8d 85 d0 fd ff ff 	lea    -0x230(%rbp),%rax
  403ecd:	48 89 c7             	mov    %rax,%rdi
  403ed0:	e8 ab ee ff ff       	callq  402d80 <_ZN10tensorflow6TensorD1Ev@plt>
  403ed5:	eb 03                	jmp    403eda <main+0x804>
  403ed7:	48 89 c3             	mov    %rax,%rbx
  403eda:	48 8d 85 30 fc ff ff 	lea    -0x3d0(%rbp),%rax
  403ee1:	48 89 c7             	mov    %rax,%rdi
  403ee4:	e8 77 ef ff ff       	callq  402e60 <_ZN10tensorflow5ScopeD1Ev@plt>
  403ee9:	48 89 d8             	mov    %rbx,%rax
  403eec:	48 89 c7             	mov    %rax,%rdi
  403eef:	e8 cc f0 ff ff       	callq  402fc0 <_Unwind_Resume@plt>
  403ef4:	e8 17 ee ff ff       	callq  402d10 <__stack_chk_fail@plt>
  403ef9:	48 81 c4 a8 03 00 00 	add    $0x3a8,%rsp
  403f00:	5b                   	pop    %rbx
  403f01:	41 5c                	pop    %r12
  403f03:	41 5d                	pop    %r13
  403f05:	41 5e                	pop    %r14
  403f07:	41 5f                	pop    %r15
  403f09:	5d                   	pop    %rbp
  403f0a:	c3                   	retq   

0000000000403f0b <_ZN2CK12measure_testIZ4mainEUlvE_EEvOT_>:
  403f0b:	55                   	push   %rbp
  403f0c:	48 89 e5             	mov    %rsp,%rbp
  403f0f:	48 83 ec 10          	sub    $0x10,%rsp
  403f13:	48 89 7d f8          	mov    %rdi,-0x8(%rbp)
  403f17:	48 8b 45 f8          	mov    -0x8(%rbp),%rax
  403f1b:	be 01 00 00 00       	mov    $0x1,%esi
  403f20:	48 89 c7             	mov    %rax,%rdi
  403f23:	e8 16 00 00 00       	callq  403f3e <_ZN2CK11do_measuredIRZ4mainEUlvE_EEvOT_i>
  403f28:	bf 01 00 00 00       	mov    $0x1,%edi
  403f2d:	e8 ee f1 ff ff       	callq  403120 <xopenme_get_timer@plt>
  403f32:	f2 0f 5a c0          	cvtsd2ss %xmm0,%xmm0
  403f36:	e8 3a f4 ff ff       	callq  403375 <_ZN2CK15store_test_timeEf>
  403f3b:	90                   	nop
  403f3c:	c9                   	leaveq 
  403f3d:	c3                   	retq   

0000000000403f3e <_ZN2CK11do_measuredIRZ4mainEUlvE_EEvOT_i>:
  403f3e:	55                   	push   %rbp
  403f3f:	48 89 e5             	mov    %rsp,%rbp
  403f42:	48 83 ec 10          	sub    $0x10,%rsp
  403f46:	48 89 7d f8          	mov    %rdi,-0x8(%rbp)
  403f4a:	89 75 f4             	mov    %esi,-0xc(%rbp)
  403f4d:	8b 45 f4             	mov    -0xc(%rbp),%eax
  403f50:	89 c7                	mov    %eax,%edi
  403f52:	e8 f9 ed ff ff       	callq  402d50 <xopenme_clock_start@plt>
  403f57:	48 8b 45 f8          	mov    -0x8(%rbp),%rax
  403f5b:	48 89 c7             	mov    %rax,%rdi
  403f5e:	e8 3d f4 ff ff       	callq  4033a0 <_ZZ4mainENKUlvE_clEv>
  403f63:	8b 45 f4             	mov    -0xc(%rbp),%eax
  403f66:	89 c7                	mov    %eax,%edi
  403f68:	e8 c3 f1 ff ff       	callq  403130 <xopenme_clock_end@plt>
  403f6d:	90                   	nop
  403f6e:	c9                   	leaveq 
  403f6f:	c3                   	retq   

0000000000403f70 <_Z41__static_initialization_and_destruction_0ii>:
  403f70:	55                   	push   %rbp
  403f71:	48 89 e5             	mov    %rsp,%rbp
  403f74:	53                   	push   %rbx
  403f75:	48 83 ec 28          	sub    $0x28,%rsp
  403f79:	89 7d dc             	mov    %edi,-0x24(%rbp)
  403f7c:	89 75 d8             	mov    %esi,-0x28(%rbp)
  403f7f:	64 48 8b 04 25 28 00 	mov    %fs:0x28,%rax
  403f86:	00 00 
  403f88:	48 89 45 e8          	mov    %rax,-0x18(%rbp)
  403f8c:	31 c0                	xor    %eax,%eax
  403f8e:	83 7d dc 01          	cmpl   $0x1,-0x24(%rbp)
  403f92:	75 53                	jne    403fe7 <_Z41__static_initialization_and_destruction_0ii+0x77>
  403f94:	81 7d d8 ff ff 00 00 	cmpl   $0xffff,-0x28(%rbp)
  403f9b:	75 4a                	jne    403fe7 <_Z41__static_initialization_and_destruction_0ii+0x77>
  403f9d:	bf 89 e3 60 00       	mov    $0x60e389,%edi
  403fa2:	e8 23 19 00 00       	callq  4058ca <_ZN5Eigen8Symbolic10SymbolExprINS_12placeholders8internal17symbolic_last_tagEEC1Ev>
  403fa7:	e8 39 19 00 00       	callq  4058e5 <_ZN5Eigen3fixILi1EEENS_8internal8FixedIntIXT_EEEv>
  403fac:	48 83 ec 08          	sub    $0x8,%rsp
  403fb0:	53                   	push   %rbx
  403fb1:	bf 89 e3 60 00       	mov    $0x60e389,%edi
  403fb6:	e8 6b 19 00 00       	callq  405926 <_ZNK5Eigen8Symbolic8BaseExprINS0_10SymbolExprINS_12placeholders8internal17symbolic_last_tagEEEEplILi1EEENS0_7AddExprIS6_NS0_9ValueExprINS_8internal8FixedIntIXT_EEEEEEESD_>
  403fbb:	48 83 c4 10          	add    $0x10,%rsp
  403fbf:	bf 8c e3 60 00       	mov    $0x60e38c,%edi
  403fc4:	e8 d1 00 00 00       	callq  40409a <_ZN5Eigen8internal5all_tC1Ev>
  403fc9:	bf 8d e3 60 00       	mov    $0x60e38d,%edi
  403fce:	e8 ed f1 ff ff       	callq  4031c0 <_ZNSt8ios_base4InitC1Ev@plt>
  403fd3:	ba b0 e2 60 00       	mov    $0x60e2b0,%edx
  403fd8:	be 8d e3 60 00       	mov    $0x60e38d,%esi
  403fdd:	bf 60 31 40 00       	mov    $0x403160,%edi
  403fe2:	e8 a9 ed ff ff       	callq  402d90 <__cxa_atexit@plt>
  403fe7:	90                   	nop
  403fe8:	48 8b 45 e8          	mov    -0x18(%rbp),%rax
  403fec:	64 48 33 04 25 28 00 	xor    %fs:0x28,%rax
  403ff3:	00 00 
  403ff5:	74 05                	je     403ffc <_Z41__static_initialization_and_destruction_0ii+0x8c>
  403ff7:	e8 14 ed ff ff       	callq  402d10 <__stack_chk_fail@plt>
  403ffc:	48 8b 5d f8          	mov    -0x8(%rbp),%rbx
  404000:	c9                   	leaveq 
  404001:	c3                   	retq   

0000000000404002 <_GLOBAL__sub_I__ZN2CK16store_setup_timeEf>:
  404002:	55                   	push   %rbp
  404003:	48 89 e5             	mov    %rsp,%rbp
  404006:	be ff ff 00 00       	mov    $0xffff,%esi
  40400b:	bf 01 00 00 00       	mov    $0x1,%edi
  404010:	e8 5b ff ff ff       	callq  403f70 <_Z41__static_initialization_and_destruction_0ii>
  404015:	5d                   	pop    %rbp
  404016:	c3                   	retq   

0000000000404017 <_ZnwmPv>:
  404017:	55                   	push   %rbp
  404018:	48 89 e5             	mov    %rsp,%rbp
  40401b:	48 89 7d f8          	mov    %rdi,-0x8(%rbp)
  40401f:	48 89 75 f0          	mov    %rsi,-0x10(%rbp)
  404023:	48 8b 45 f0          	mov    -0x10(%rbp),%rax
  404027:	5d                   	pop    %rbp
  404028:	c3                   	retq   

0000000000404029 <_ZdlPvS_>:
  404029:	55                   	push   %rbp
  40402a:	48 89 e5             	mov    %rsp,%rbp
  40402d:	48 89 7d f8          	mov    %rdi,-0x8(%rbp)
  404031:	48 89 75 f0          	mov    %rsi,-0x10(%rbp)
  404035:	90                   	nop
  404036:	5d                   	pop    %rbp
  404037:	c3                   	retq   

0000000000404038 <_ZStanSt12memory_orderSt23__memory_order_modifier>:
  404038:	55                   	push   %rbp
  404039:	48 89 e5             	mov    %rsp,%rbp
  40403c:	89 7d fc             	mov    %edi,-0x4(%rbp)
  40403f:	89 75 f8             	mov    %esi,-0x8(%rbp)
  404042:	8b 55 fc             	mov    -0x4(%rbp),%edx
  404045:	8b 45 f8             	mov    -0x8(%rbp),%eax
  404048:	21 d0                	and    %edx,%eax
  40404a:	5d                   	pop    %rbp
  40404b:	c3                   	retq   

000000000040404c <_ZNSt8__detail15_Hash_node_baseC1Ev>:
  40404c:	55                   	push   %rbp
  40404d:	48 89 e5             	mov    %rsp,%rbp
  404050:	48 89 7d f8          	mov    %rdi,-0x8(%rbp)
  404054:	48 8b 45 f8          	mov    -0x8(%rbp),%rax
  404058:	48 c7 00 00 00 00 00 	movq   $0x0,(%rax)
  40405f:	90                   	nop
  404060:	5d                   	pop    %rbp
  404061:	c3                   	retq   

0000000000404062 <_ZNSt8__detail20_Prime_rehash_policyC1Ef>:
  404062:	55                   	push   %rbp
  404063:	48 89 e5             	mov    %rsp,%rbp
  404066:	48 89 7d f8          	mov    %rdi,-0x8(%rbp)
  40406a:	f3 0f 11 45 f4       	movss  %xmm0,-0xc(%rbp)
  40406f:	48 8b 45 f8          	mov    -0x8(%rbp),%rax
  404073:	f3 0f 10 45 f4       	movss  -0xc(%rbp),%xmm0
  404078:	f3 0f 11 00          	movss  %xmm0,(%rax)
  40407c:	48 8b 45 f8          	mov    -0x8(%rbp),%rax
  404080:	48 c7 40 08 00 00 00 	movq   $0x0,0x8(%rax)
  404087:	00 
  404088:	90                   	nop
  404089:	5d                   	pop    %rbp
  40408a:	c3                   	retq   

000000000040408b <_ZNSt14numeric_limitsIfE3maxEv>:
  40408b:	55                   	push   %rbp
  40408c:	48 89 e5             	mov    %rsp,%rbp
  40408f:	f3 0f 10 05 d5 55 00 	movss  0x55d5(%rip),%xmm0        # 40966c <_ZZN2CK2TF16process_metadataERKN10tensorflow11RunMetadataEPKcE19__PRETTY_FUNCTION__+0x4c>
  404096:	00 
  404097:	5d                   	pop    %rbp
  404098:	c3                   	retq   
  404099:	90                   	nop

000000000040409a <_ZN5Eigen8internal5all_tC1Ev>:
  40409a:	55                   	push   %rbp
  40409b:	48 89 e5             	mov    %rsp,%rbp
  40409e:	48 89 7d f8          	mov    %rdi,-0x8(%rbp)
  4040a2:	90                   	nop
  4040a3:	5d                   	pop    %rbp
  4040a4:	c3                   	retq   
  4040a5:	90                   	nop

00000000004040a6 <_ZN5Eigen6QUInt8C1Ev>:
  4040a6:	55                   	push   %rbp
  4040a7:	48 89 e5             	mov    %rsp,%rbp
  4040aa:	48 89 7d f8          	mov    %rdi,-0x8(%rbp)
  4040ae:	90                   	nop
  4040af:	5d                   	pop    %rbp
  4040b0:	c3                   	retq   
  4040b1:	90                   	nop

00000000004040b2 <_ZN5Eigen6QUInt8C1Eh>:
  4040b2:	55                   	push   %rbp
  4040b3:	48 89 e5             	mov    %rsp,%rbp
  4040b6:	48 89 7d f8          	mov    %rdi,-0x8(%rbp)
  4040ba:	89 f0                	mov    %esi,%eax
  4040bc:	88 45 f4             	mov    %al,-0xc(%rbp)
  4040bf:	48 8b 45 f8          	mov    -0x8(%rbp),%rax
  4040c3:	0f b6 55 f4          	movzbl -0xc(%rbp),%edx
  4040c7:	88 10                	mov    %dl,(%rax)
  4040c9:	90                   	nop
  4040ca:	5d                   	pop    %rbp
  4040cb:	c3                   	retq   

00000000004040cc <_ZNK5Eigen6QUInt8cviEv>:
  4040cc:	55                   	push   %rbp
  4040cd:	48 89 e5             	mov    %rsp,%rbp
  4040d0:	48 89 7d f8          	mov    %rdi,-0x8(%rbp)
  4040d4:	48 8b 45 f8          	mov    -0x8(%rbp),%rax
  4040d8:	0f b6 00             	movzbl (%rax),%eax
  4040db:	0f b6 c0             	movzbl %al,%eax
  4040de:	5d                   	pop    %rbp
  4040df:	c3                   	retq   

00000000004040e0 <_ZN5EigengtENS_6QUInt8ES0_>:
  4040e0:	55                   	push   %rbp
  4040e1:	48 89 e5             	mov    %rsp,%rbp
  4040e4:	40 88 7d ff          	mov    %dil,-0x1(%rbp)
  4040e8:	40 88 75 fe          	mov    %sil,-0x2(%rbp)
  4040ec:	0f b6 45 ff          	movzbl -0x1(%rbp),%eax
  4040f0:	0f b6 d0             	movzbl %al,%edx
  4040f3:	0f b6 45 fe          	movzbl -0x2(%rbp),%eax
  4040f7:	0f b6 c0             	movzbl %al,%eax
  4040fa:	39 c2                	cmp    %eax,%edx
  4040fc:	0f 9f c0             	setg   %al
  4040ff:	5d                   	pop    %rbp
  404100:	c3                   	retq   
  404101:	90                   	nop

0000000000404102 <_ZNK6google8protobuf8internal14ArenaStringPtr3GetB5cxx11Ev>:
  404102:	55                   	push   %rbp
  404103:	48 89 e5             	mov    %rsp,%rbp
  404106:	48 89 7d f8          	mov    %rdi,-0x8(%rbp)
  40410a:	48 8b 45 f8          	mov    -0x8(%rbp),%rax
  40410e:	48 8b 00             	mov    (%rax),%rax
  404111:	5d                   	pop    %rbp
  404112:	c3                   	retq   
  404113:	90                   	nop

0000000000404114 <_ZNK6google8protobuf8internal20RepeatedPtrFieldBase4sizeEv>:
  404114:	55                   	push   %rbp
  404115:	48 89 e5             	mov    %rsp,%rbp
  404118:	48 89 7d f8          	mov    %rdi,-0x8(%rbp)
  40411c:	48 8b 45 f8          	mov    -0x8(%rbp),%rax
  404120:	8b 40 08             	mov    0x8(%rax),%eax
  404123:	5d                   	pop    %rbp
  404124:	c3                   	retq   
  404125:	90                   	nop

0000000000404126 <_ZNK6google8protobuf8internal20RepeatedPtrFieldBase8raw_dataEv>:
  404126:	55                   	push   %rbp
  404127:	48 89 e5             	mov    %rsp,%rbp
  40412a:	48 89 7d f8          	mov    %rdi,-0x8(%rbp)
  40412e:	48 8b 45 f8          	mov    -0x8(%rbp),%rax
  404132:	48 8b 40 10          	mov    0x10(%rax),%rax
  404136:	48 85 c0             	test   %rax,%rax
  404139:	74 0e                	je     404149 <_ZNK6google8protobuf8internal20RepeatedPtrFieldBase8raw_dataEv+0x23>
  40413b:	48 8b 45 f8          	mov    -0x8(%rbp),%rax
  40413f:	48 8b 40 10          	mov    0x10(%rax),%rax
  404143:	48 83 c0 08          	add    $0x8,%rax
  404147:	eb 05                	jmp    40414e <_ZNK6google8protobuf8internal20RepeatedPtrFieldBase8raw_dataEv+0x28>
  404149:	b8 00 00 00 00       	mov    $0x0,%eax
  40414e:	5d                   	pop    %rbp
  40414f:	c3                   	retq   

0000000000404150 <_ZN10tensorflow8internal21GetReferenceableValueEi>:
  404150:	55                   	push   %rbp
  404151:	48 89 e5             	mov    %rsp,%rbp
  404154:	89 7d fc             	mov    %edi,-0x4(%rbp)
  404157:	8b 45 fc             	mov    -0x4(%rbp),%eax
  40415a:	5d                   	pop    %rbp
  40415b:	c3                   	retq   

000000000040415c <_ZN10tensorflow8internal21GetReferenceableValueEl>:
  40415c:	55                   	push   %rbp
  40415d:	48 89 e5             	mov    %rsp,%rbp
  404160:	48 89 7d f8          	mov    %rdi,-0x8(%rbp)
  404164:	48 8b 45 f8          	mov    -0x8(%rbp),%rax
  404168:	5d                   	pop    %rbp
  404169:	c3                   	retq   

000000000040416a <_ZN10tensorflow8internal21GetReferenceableValueEm>:
  40416a:	55                   	push   %rbp
  40416b:	48 89 e5             	mov    %rsp,%rbp
  40416e:	48 89 7d f8          	mov    %rdi,-0x8(%rbp)
  404172:	48 8b 45 f8          	mov    -0x8(%rbp),%rax
  404176:	5d                   	pop    %rbp
  404177:	c3                   	retq   

0000000000404178 <_ZN10tensorflow8internal21GetReferenceableValueEx>:
  404178:	55                   	push   %rbp
  404179:	48 89 e5             	mov    %rsp,%rbp
  40417c:	48 89 7d f8          	mov    %rdi,-0x8(%rbp)
  404180:	48 8b 45 f8          	mov    -0x8(%rbp),%rax
  404184:	5d                   	pop    %rbp
  404185:	c3                   	retq   

0000000000404186 <_ZN10tensorflow8internal13CheckOpStringC1EPNSt7__cxx1112basic_stringIcSt11char_traitsIcESaIcEEE>:
  404186:	55                   	push   %rbp
  404187:	48 89 e5             	mov    %rsp,%rbp
  40418a:	48 89 7d f8          	mov    %rdi,-0x8(%rbp)
  40418e:	48 89 75 f0          	mov    %rsi,-0x10(%rbp)
  404192:	48 8b 45 f8          	mov    -0x8(%rbp),%rax
  404196:	48 8b 55 f0          	mov    -0x10(%rbp),%rdx
  40419a:	48 89 10             	mov    %rdx,(%rax)
  40419d:	90                   	nop
  40419e:	5d                   	pop    %rbp
  40419f:	c3                   	retq   

00000000004041a0 <_ZNK10tensorflow8internal13CheckOpStringcvbEv>:
  4041a0:	55                   	push   %rbp
  4041a1:	48 89 e5             	mov    %rsp,%rbp
  4041a4:	48 89 7d f8          	mov    %rdi,-0x8(%rbp)
  4041a8:	48 8b 45 f8          	mov    -0x8(%rbp),%rax
  4041ac:	48 8b 00             	mov    (%rax),%rax
  4041af:	48 85 c0             	test   %rax,%rax
  4041b2:	0f 95 c0             	setne  %al
  4041b5:	5d                   	pop    %rbp
  4041b6:	c3                   	retq   
  4041b7:	90                   	nop

00000000004041b8 <_ZN10tensorflow8internal21CheckOpMessageBuilder7ForVar1Ev>:
  4041b8:	55                   	push   %rbp
  4041b9:	48 89 e5             	mov    %rsp,%rbp
  4041bc:	48 89 7d f8          	mov    %rdi,-0x8(%rbp)
  4041c0:	48 8b 45 f8          	mov    -0x8(%rbp),%rax
  4041c4:	48 8b 00             	mov    (%rax),%rax
  4041c7:	5d                   	pop    %rbp
  4041c8:	c3                   	retq   
  4041c9:	90                   	nop

00000000004041ca <_ZNSt14default_deleteIN10tensorflow6Status5StateEEC1Ev>:
  4041ca:	55                   	push   %rbp
  4041cb:	48 89 e5             	mov    %rsp,%rbp
  4041ce:	48 89 7d f8          	mov    %rdi,-0x8(%rbp)
  4041d2:	90                   	nop
  4041d3:	5d                   	pop    %rbp
  4041d4:	c3                   	retq   
  4041d5:	90                   	nop

00000000004041d6 <_ZNSt10_Head_baseILm1ESt14default_deleteIN10tensorflow6Status5StateEELb1EEC2Ev>:
  4041d6:	55                   	push   %rbp
  4041d7:	48 89 e5             	mov    %rsp,%rbp
  4041da:	48 83 ec 10          	sub    $0x10,%rsp
  4041de:	48 89 7d f8          	mov    %rdi,-0x8(%rbp)
  4041e2:	48 8b 45 f8          	mov    -0x8(%rbp),%rax
  4041e6:	48 89 c7             	mov    %rax,%rdi
  4041e9:	e8 dc ff ff ff       	callq  4041ca <_ZNSt14default_deleteIN10tensorflow6Status5StateEEC1Ev>
  4041ee:	90                   	nop
  4041ef:	c9                   	leaveq 
  4041f0:	c3                   	retq   
  4041f1:	90                   	nop

00000000004041f2 <_ZNSt11_Tuple_implILm1EJSt14default_deleteIN10tensorflow6Status5StateEEEEC2Ev>:
  4041f2:	55                   	push   %rbp
  4041f3:	48 89 e5             	mov    %rsp,%rbp
  4041f6:	48 83 ec 10          	sub    $0x10,%rsp
  4041fa:	48 89 7d f8          	mov    %rdi,-0x8(%rbp)
  4041fe:	48 8b 45 f8          	mov    -0x8(%rbp),%rax
  404202:	48 89 c7             	mov    %rax,%rdi
  404205:	e8 cc ff ff ff       	callq  4041d6 <_ZNSt10_Head_baseILm1ESt14default_deleteIN10tensorflow6Status5StateEELb1EEC2Ev>
  40420a:	90                   	nop
  40420b:	c9                   	leaveq 
  40420c:	c3                   	retq   
  40420d:	90                   	nop

000000000040420e <_ZNSt10_Head_baseILm0EPN10tensorflow6Status5StateELb0EEC2Ev>:
  40420e:	55                   	push   %rbp
  40420f:	48 89 e5             	mov    %rsp,%rbp
  404212:	48 89 7d f8          	mov    %rdi,-0x8(%rbp)
  404216:	48 8b 45 f8          	mov    -0x8(%rbp),%rax
  40421a:	48 c7 00 00 00 00 00 	movq   $0x0,(%rax)
  404221:	90                   	nop
  404222:	5d                   	pop    %rbp
  404223:	c3                   	retq   

0000000000404224 <_ZNSt11_Tuple_implILm0EJPN10tensorflow6Status5StateESt14default_deleteIS2_EEEC2Ev>:
  404224:	55                   	push   %rbp
  404225:	48 89 e5             	mov    %rsp,%rbp
  404228:	48 83 ec 10          	sub    $0x10,%rsp
  40422c:	48 89 7d f8          	mov    %rdi,-0x8(%rbp)
  404230:	48 8b 45 f8          	mov    -0x8(%rbp),%rax
  404234:	48 89 c7             	mov    %rax,%rdi
  404237:	e8 b6 ff ff ff       	callq  4041f2 <_ZNSt11_Tuple_implILm1EJSt14default_deleteIN10tensorflow6Status5StateEEEEC2Ev>
  40423c:	48 8b 45 f8          	mov    -0x8(%rbp),%rax
  404240:	48 89 c7             	mov    %rax,%rdi
  404243:	e8 c6 ff ff ff       	callq  40420e <_ZNSt10_Head_baseILm0EPN10tensorflow6Status5StateELb0EEC2Ev>
  404248:	90                   	nop
  404249:	c9                   	leaveq 
  40424a:	c3                   	retq   
  40424b:	90                   	nop

000000000040424c <_ZNSt5tupleIJPN10tensorflow6Status5StateESt14default_deleteIS2_EEEC1IS3_S5_Lb1EEEv>:
  40424c:	55                   	push   %rbp
  40424d:	48 89 e5             	mov    %rsp,%rbp
  404250:	48 83 ec 10          	sub    $0x10,%rsp
  404254:	48 89 7d f8          	mov    %rdi,-0x8(%rbp)
  404258:	48 8b 45 f8          	mov    -0x8(%rbp),%rax
  40425c:	48 89 c7             	mov    %rax,%rdi
  40425f:	e8 c0 ff ff ff       	callq  404224 <_ZNSt11_Tuple_implILm0EJPN10tensorflow6Status5StateESt14default_deleteIS2_EEEC2Ev>
  404264:	90                   	nop
  404265:	c9                   	leaveq 
  404266:	c3                   	retq   
  404267:	90                   	nop

0000000000404268 <_ZNSt10unique_ptrIN10tensorflow6Status5StateESt14default_deleteIS2_EEC1Ev>:
  404268:	55                   	push   %rbp
  404269:	48 89 e5             	mov    %rsp,%rbp
  40426c:	48 83 ec 10          	sub    $0x10,%rsp
  404270:	48 89 7d f8          	mov    %rdi,-0x8(%rbp)
  404274:	48 8b 45 f8          	mov    -0x8(%rbp),%rax
  404278:	48 89 c7             	mov    %rax,%rdi
  40427b:	e8 cc ff ff ff       	callq  40424c <_ZNSt5tupleIJPN10tensorflow6Status5StateESt14default_deleteIS2_EEEC1IS3_S5_Lb1EEEv>
  404280:	90                   	nop
  404281:	c9                   	leaveq 
  404282:	c3                   	retq   
  404283:	90                   	nop

0000000000404284 <_ZN10tensorflow6StatusC1Ev>:
  404284:	55                   	push   %rbp
  404285:	48 89 e5             	mov    %rsp,%rbp
  404288:	48 83 ec 10          	sub    $0x10,%rsp
  40428c:	48 89 7d f8          	mov    %rdi,-0x8(%rbp)
  404290:	48 8b 45 f8          	mov    -0x8(%rbp),%rax
  404294:	48 89 c7             	mov    %rax,%rdi
  404297:	e8 cc ff ff ff       	callq  404268 <_ZNSt10unique_ptrIN10tensorflow6Status5StateESt14default_deleteIS2_EEC1Ev>
  40429c:	90                   	nop
  40429d:	c9                   	leaveq 
  40429e:	c3                   	retq   
  40429f:	90                   	nop

00000000004042a0 <_ZN10tensorflow6StatusD1Ev>:
  4042a0:	55                   	push   %rbp
  4042a1:	48 89 e5             	mov    %rsp,%rbp
  4042a4:	48 83 ec 10          	sub    $0x10,%rsp
  4042a8:	48 89 7d f8          	mov    %rdi,-0x8(%rbp)
  4042ac:	48 8b 45 f8          	mov    -0x8(%rbp),%rax
  4042b0:	48 89 c7             	mov    %rax,%rdi
  4042b3:	e8 78 17 00 00       	callq  405a30 <_ZNSt10unique_ptrIN10tensorflow6Status5StateESt14default_deleteIS2_EED1Ev>
  4042b8:	90                   	nop
  4042b9:	c9                   	leaveq 
  4042ba:	c3                   	retq   

00000000004042bb <_ZN10tensorflow6Status2OKEv>:
  4042bb:	55                   	push   %rbp
  4042bc:	48 89 e5             	mov    %rsp,%rbp
  4042bf:	48 83 ec 10          	sub    $0x10,%rsp
  4042c3:	48 89 7d f8          	mov    %rdi,-0x8(%rbp)
  4042c7:	48 8b 45 f8          	mov    -0x8(%rbp),%rax
  4042cb:	48 89 c7             	mov    %rax,%rdi
  4042ce:	e8 b1 ff ff ff       	callq  404284 <_ZN10tensorflow6StatusC1Ev>
  4042d3:	48 8b 45 f8          	mov    -0x8(%rbp),%rax
  4042d7:	c9                   	leaveq 
  4042d8:	c3                   	retq   
  4042d9:	90                   	nop

00000000004042da <_ZNK10tensorflow6Status2okEv>:
  4042da:	55                   	push   %rbp
  4042db:	48 89 e5             	mov    %rsp,%rbp
  4042de:	48 83 ec 10          	sub    $0x10,%rsp
  4042e2:	48 89 7d f8          	mov    %rdi,-0x8(%rbp)
  4042e6:	48 8b 45 f8          	mov    -0x8(%rbp),%rax
  4042ea:	be 00 00 00 00       	mov    $0x0,%esi
  4042ef:	48 89 c7             	mov    %rax,%rdi
  4042f2:	e8 93 17 00 00       	callq  405a8a <_ZSteqIN10tensorflow6Status5StateESt14default_deleteIS2_EEbRKSt10unique_ptrIT_T0_EDn>
  4042f7:	c9                   	leaveq 
  4042f8:	c3                   	retq   
  4042f9:	90                   	nop

00000000004042fa <_ZN10tensorflow6Status5StateC1ERKS1_>:
  4042fa:	55                   	push   %rbp
  4042fb:	48 89 e5             	mov    %rsp,%rbp
  4042fe:	48 83 ec 10          	sub    $0x10,%rsp
  404302:	48 89 7d f8          	mov    %rdi,-0x8(%rbp)
  404306:	48 89 75 f0          	mov    %rsi,-0x10(%rbp)
  40430a:	48 8b 45 f0          	mov    -0x10(%rbp),%rax
  40430e:	8b 10                	mov    (%rax),%edx
  404310:	48 8b 45 f8          	mov    -0x8(%rbp),%rax
  404314:	89 10                	mov    %edx,(%rax)
  404316:	48 8b 45 f0          	mov    -0x10(%rbp),%rax
  40431a:	48 8d 50 08          	lea    0x8(%rax),%rdx
  40431e:	48 8b 45 f8          	mov    -0x8(%rbp),%rax
  404322:	48 83 c0 08          	add    $0x8,%rax
  404326:	48 89 d6             	mov    %rdx,%rsi
  404329:	48 89 c7             	mov    %rax,%rdi
  40432c:	e8 9f e9 ff ff       	callq  402cd0 <_ZNSt7__cxx1112basic_stringIcSt11char_traitsIcESaIcEEC1ERKS4_@plt>
  404331:	90                   	nop
  404332:	c9                   	leaveq 
  404333:	c3                   	retq   

0000000000404334 <_ZN10tensorflow6StatusC1ERKS0_>:
  404334:	55                   	push   %rbp
  404335:	48 89 e5             	mov    %rsp,%rbp
  404338:	41 54                	push   %r12
  40433a:	53                   	push   %rbx
  40433b:	48 83 ec 10          	sub    $0x10,%rsp
  40433f:	48 89 7d e8          	mov    %rdi,-0x18(%rbp)
  404343:	48 89 75 e0          	mov    %rsi,-0x20(%rbp)
  404347:	48 8b 45 e0          	mov    -0x20(%rbp),%rax
  40434b:	be 00 00 00 00       	mov    $0x0,%esi
  404350:	48 89 c7             	mov    %rax,%rdi
  404353:	e8 32 17 00 00       	callq  405a8a <_ZSteqIN10tensorflow6Status5StateESt14default_deleteIS2_EEbRKSt10unique_ptrIT_T0_EDn>
  404358:	84 c0                	test   %al,%al
  40435a:	74 07                	je     404363 <_ZN10tensorflow6StatusC1ERKS0_+0x2f>
  40435c:	ba 00 00 00 00       	mov    $0x0,%edx
  404361:	eb 2a                	jmp    40438d <_ZN10tensorflow6StatusC1ERKS0_+0x59>
  404363:	48 8b 45 e0          	mov    -0x20(%rbp),%rax
  404367:	48 89 c7             	mov    %rax,%rdi
  40436a:	e8 3d 17 00 00       	callq  405aac <_ZNKSt10unique_ptrIN10tensorflow6Status5StateESt14default_deleteIS2_EEdeEv>
  40436f:	49 89 c4             	mov    %rax,%r12
  404372:	bf 28 00 00 00       	mov    $0x28,%edi
  404377:	e8 54 ed ff ff       	callq  4030d0 <_Znwm@plt>
  40437c:	48 89 c3             	mov    %rax,%rbx
  40437f:	4c 89 e6             	mov    %r12,%rsi
  404382:	48 89 df             	mov    %rbx,%rdi
  404385:	e8 70 ff ff ff       	callq  4042fa <_ZN10tensorflow6Status5StateC1ERKS1_>
  40438a:	48 89 da             	mov    %rbx,%rdx
  40438d:	48 8b 45 e8          	mov    -0x18(%rbp),%rax
  404391:	48 89 d6             	mov    %rdx,%rsi
  404394:	48 89 c7             	mov    %rax,%rdi
  404397:	e8 2a 17 00 00       	callq  405ac6 <_ZNSt10unique_ptrIN10tensorflow6Status5StateESt14default_deleteIS2_EEC1EPS2_>
  40439c:	eb 16                	jmp    4043b4 <_ZN10tensorflow6StatusC1ERKS0_+0x80>
  40439e:	49 89 c4             	mov    %rax,%r12
  4043a1:	48 89 df             	mov    %rbx,%rdi
  4043a4:	e8 97 e9 ff ff       	callq  402d40 <_ZdlPv@plt>
  4043a9:	4c 89 e0             	mov    %r12,%rax
  4043ac:	48 89 c7             	mov    %rax,%rdi
  4043af:	e8 0c ec ff ff       	callq  402fc0 <_Unwind_Resume@plt>
  4043b4:	48 83 c4 10          	add    $0x10,%rsp
  4043b8:	5b                   	pop    %rbx
  4043b9:	41 5c                	pop    %r12
  4043bb:	5d                   	pop    %rbp
  4043bc:	c3                   	retq   

00000000004043bd <_ZN10tensorflow15TfCheckOpHelperB5cxx11ENS_6StatusEPKc>:
  4043bd:	55                   	push   %rbp
  4043be:	48 89 e5             	mov    %rsp,%rbp
  4043c1:	48 83 ec 10          	sub    $0x10,%rsp
  4043c5:	48 89 7d f8          	mov    %rdi,-0x8(%rbp)
  4043c9:	48 89 75 f0          	mov    %rsi,-0x10(%rbp)
  4043cd:	48 8b 45 f8          	mov    -0x8(%rbp),%rax
  4043d1:	48 89 c7             	mov    %rax,%rdi
  4043d4:	e8 01 ff ff ff       	callq  4042da <_ZNK10tensorflow6Status2okEv>
  4043d9:	84 c0                	test   %al,%al
  4043db:	74 07                	je     4043e4 <_ZN10tensorflow15TfCheckOpHelperB5cxx11ENS_6StatusEPKc+0x27>
  4043dd:	b8 00 00 00 00       	mov    $0x0,%eax
  4043e2:	eb 13                	jmp    4043f7 <_ZN10tensorflow15TfCheckOpHelperB5cxx11ENS_6StatusEPKc+0x3a>
  4043e4:	48 8b 55 f0          	mov    -0x10(%rbp),%rdx
  4043e8:	48 8b 45 f8          	mov    -0x8(%rbp),%rax
  4043ec:	48 89 d6             	mov    %rdx,%rsi
  4043ef:	48 89 c7             	mov    %rax,%rdi
  4043f2:	e8 99 ed ff ff       	callq  403190 <_ZN10tensorflow24TfCheckOpHelperOutOfLineB5cxx11ERKNS_6StatusEPKc@plt>
  4043f7:	c9                   	leaveq 
  4043f8:	c3                   	retq   
  4043f9:	90                   	nop

00000000004043fa <_ZNK10tensorflow14TensorShapeRep12num_elementsEv>:
  4043fa:	55                   	push   %rbp
  4043fb:	48 89 e5             	mov    %rsp,%rbp
  4043fe:	48 89 7d f8          	mov    %rdi,-0x8(%rbp)
  404402:	48 8b 45 f8          	mov    -0x8(%rbp),%rax
  404406:	48 8b 40 10          	mov    0x10(%rax),%rax
  40440a:	5d                   	pop    %rbp
  40440b:	c3                   	retq   

000000000040440c <_ZNK10tensorflow14TensorShapeRep3tagEv>:
  40440c:	55                   	push   %rbp
  40440d:	48 89 e5             	mov    %rsp,%rbp
  404410:	48 83 ec 10          	sub    $0x10,%rsp
  404414:	48 89 7d f8          	mov    %rdi,-0x8(%rbp)
  404418:	48 8b 45 f8          	mov    -0x8(%rbp),%rax
  40441c:	48 89 c7             	mov    %rax,%rdi
  40441f:	e8 42 00 00 00       	callq  404466 <_ZNK10tensorflow14TensorShapeRep3bufEv>
  404424:	48 83 c0 0f          	add    $0xf,%rax
  404428:	0f b6 00             	movzbl (%rax),%eax
  40442b:	0f b6 c0             	movzbl %al,%eax
  40442e:	c9                   	leaveq 
  40442f:	c3                   	retq   

0000000000404430 <_ZN10tensorflow14TensorShapeRep7set_tagENS0_6RepTagE>:
  404430:	55                   	push   %rbp
  404431:	48 89 e5             	mov    %rsp,%rbp
  404434:	48 83 ec 10          	sub    $0x10,%rsp
  404438:	48 89 7d f8          	mov    %rdi,-0x8(%rbp)
  40443c:	89 75 f4             	mov    %esi,-0xc(%rbp)
  40443f:	48 8b 45 f8          	mov    -0x8(%rbp),%rax
  404443:	48 89 c7             	mov    %rax,%rdi
  404446:	e8 0d 00 00 00       	callq  404458 <_ZN10tensorflow14TensorShapeRep3bufEv>
  40444b:	48 83 c0 0f          	add    $0xf,%rax
  40444f:	8b 55 f4             	mov    -0xc(%rbp),%edx
  404452:	88 10                	mov    %dl,(%rax)
  404454:	90                   	nop
  404455:	c9                   	leaveq 
  404456:	c3                   	retq   
  404457:	90                   	nop

0000000000404458 <_ZN10tensorflow14TensorShapeRep3bufEv>:
  404458:	55                   	push   %rbp
  404459:	48 89 e5             	mov    %rsp,%rbp
  40445c:	48 89 7d f8          	mov    %rdi,-0x8(%rbp)
  404460:	48 8b 45 f8          	mov    -0x8(%rbp),%rax
  404464:	5d                   	pop    %rbp
  404465:	c3                   	retq   

0000000000404466 <_ZNK10tensorflow14TensorShapeRep3bufEv>:
  404466:	55                   	push   %rbp
  404467:	48 89 e5             	mov    %rsp,%rbp
  40446a:	48 89 7d f8          	mov    %rdi,-0x8(%rbp)
  40446e:	48 8b 45 f8          	mov    -0x8(%rbp),%rax
  404472:	5d                   	pop    %rbp
  404473:	c3                   	retq   

0000000000404474 <_ZN10tensorflow14TensorShapeRepC1ERKS0_>:
  404474:	55                   	push   %rbp
  404475:	48 89 e5             	mov    %rsp,%rbp
  404478:	53                   	push   %rbx
  404479:	48 83 ec 18          	sub    $0x18,%rsp
  40447d:	48 89 7d e8          	mov    %rdi,-0x18(%rbp)
  404481:	48 89 75 e0          	mov    %rsi,-0x20(%rbp)
  404485:	48 8b 45 e0          	mov    -0x20(%rbp),%rax
  404489:	48 8b 50 10          	mov    0x10(%rax),%rdx
  40448d:	48 8b 45 e8          	mov    -0x18(%rbp),%rax
  404491:	48 89 50 10          	mov    %rdx,0x10(%rax)
  404495:	48 8b 45 e0          	mov    -0x20(%rbp),%rax
  404499:	48 89 c7             	mov    %rax,%rdi
  40449c:	e8 6b ff ff ff       	callq  40440c <_ZNK10tensorflow14TensorShapeRep3tagEv>
  4044a1:	83 f8 02             	cmp    $0x2,%eax
  4044a4:	0f 95 c0             	setne  %al
  4044a7:	84 c0                	test   %al,%al
  4044a9:	74 2e                	je     4044d9 <_ZN10tensorflow14TensorShapeRepC1ERKS0_+0x65>
  4044ab:	48 8b 45 e0          	mov    -0x20(%rbp),%rax
  4044af:	48 89 c7             	mov    %rax,%rdi
  4044b2:	e8 af ff ff ff       	callq  404466 <_ZNK10tensorflow14TensorShapeRep3bufEv>
  4044b7:	48 89 c3             	mov    %rax,%rbx
  4044ba:	48 8b 45 e8          	mov    -0x18(%rbp),%rax
  4044be:	48 89 c7             	mov    %rax,%rdi
  4044c1:	e8 92 ff ff ff       	callq  404458 <_ZN10tensorflow14TensorShapeRep3bufEv>
  4044c6:	48 89 c1             	mov    %rax,%rcx
  4044c9:	48 8b 03             	mov    (%rbx),%rax
  4044cc:	48 8b 53 08          	mov    0x8(%rbx),%rdx
  4044d0:	48 89 01             	mov    %rax,(%rcx)
  4044d3:	48 89 51 08          	mov    %rdx,0x8(%rcx)
  4044d7:	eb 24                	jmp    4044fd <_ZN10tensorflow14TensorShapeRepC1ERKS0_+0x89>
  4044d9:	48 8b 45 e8          	mov    -0x18(%rbp),%rax
  4044dd:	be 00 00 00 00       	mov    $0x0,%esi
  4044e2:	48 89 c7             	mov    %rax,%rdi
  4044e5:	e8 46 ff ff ff       	callq  404430 <_ZN10tensorflow14TensorShapeRep7set_tagENS0_6RepTagE>
  4044ea:	48 8b 55 e0          	mov    -0x20(%rbp),%rdx
  4044ee:	48 8b 45 e8          	mov    -0x18(%rbp),%rax
  4044f2:	48 89 d6             	mov    %rdx,%rsi
  4044f5:	48 89 c7             	mov    %rax,%rdi
  4044f8:	e8 13 eb ff ff       	callq  403010 <_ZN10tensorflow14TensorShapeRep12SlowCopyFromERKS0_@plt>
  4044fd:	90                   	nop
  4044fe:	48 83 c4 18          	add    $0x18,%rsp
  404502:	5b                   	pop    %rbx
  404503:	5d                   	pop    %rbp
  404504:	c3                   	retq   
  404505:	90                   	nop

0000000000404506 <_ZN10tensorflow14TensorShapeRepD1Ev>:
  404506:	55                   	push   %rbp
  404507:	48 89 e5             	mov    %rsp,%rbp
  40450a:	48 83 ec 10          	sub    $0x10,%rsp
  40450e:	48 89 7d f8          	mov    %rdi,-0x8(%rbp)
  404512:	48 8b 45 f8          	mov    -0x8(%rbp),%rax
  404516:	48 89 c7             	mov    %rax,%rdi
  404519:	e8 ee fe ff ff       	callq  40440c <_ZNK10tensorflow14TensorShapeRep3tagEv>
  40451e:	83 f8 02             	cmp    $0x2,%eax
  404521:	0f 94 c0             	sete   %al
  404524:	84 c0                	test   %al,%al
  404526:	74 0c                	je     404534 <_ZN10tensorflow14TensorShapeRepD1Ev+0x2e>
  404528:	48 8b 45 f8          	mov    -0x8(%rbp),%rax
  40452c:	48 89 c7             	mov    %rax,%rdi
  40452f:	e8 cc e8 ff ff       	callq  402e00 <_ZN10tensorflow14TensorShapeRep19DestructorOutOfLineEv@plt>
  404534:	90                   	nop
  404535:	c9                   	leaveq 
  404536:	c3                   	retq   

0000000000404537 <_ZN10tensorflow14DataTypeToEnumIN5Eigen6QUInt8EE1vEv>:
  404537:	55                   	push   %rbp
  404538:	48 89 e5             	mov    %rsp,%rbp
  40453b:	b8 0c 00 00 00       	mov    $0xc,%eax
  404540:	5d                   	pop    %rbp
  404541:	c3                   	retq   

0000000000404542 <_ZN10tensorflow4core10RefCountedD1Ev>:
  404542:	55                   	push   %rbp
  404543:	48 89 e5             	mov    %rsp,%rbp
  404546:	53                   	push   %rbx
  404547:	48 81 ec d8 01 00 00 	sub    $0x1d8,%rsp
  40454e:	48 89 bd 28 fe ff ff 	mov    %rdi,-0x1d8(%rbp)
  404555:	64 48 8b 04 25 28 00 	mov    %fs:0x28,%rax
  40455c:	00 00 
  40455e:	48 89 45 e8          	mov    %rax,-0x18(%rbp)
  404562:	31 c0                	xor    %eax,%eax
  404564:	ba a0 96 40 00       	mov    $0x4096a0,%edx
  404569:	48 8b 85 28 fe ff ff 	mov    -0x1d8(%rbp),%rax
  404570:	48 89 10             	mov    %rdx,(%rax)
  404573:	bf 00 00 00 00       	mov    $0x0,%edi
  404578:	e8 d3 fb ff ff       	callq  404150 <_ZN10tensorflow8internal21GetReferenceableValueEi>
  40457d:	89 85 3c fe ff ff    	mov    %eax,-0x1c4(%rbp)
  404583:	48 8b 85 28 fe ff ff 	mov    -0x1d8(%rbp),%rax
  40458a:	48 83 c0 08          	add    $0x8,%rax
  40458e:	48 89 85 58 fe ff ff 	mov    %rax,-0x1a8(%rbp)
  404595:	c7 85 40 fe ff ff 05 	movl   $0x5,-0x1c0(%rbp)
  40459c:	00 00 00 
  40459f:	8b 85 40 fe ff ff    	mov    -0x1c0(%rbp),%eax
  4045a5:	be ff ff 00 00       	mov    $0xffff,%esi
  4045aa:	89 c7                	mov    %eax,%edi
  4045ac:	e8 87 fa ff ff       	callq  404038 <_ZStanSt12memory_orderSt23__memory_order_modifier>
  4045b1:	89 85 44 fe ff ff    	mov    %eax,-0x1bc(%rbp)
  4045b7:	48 8b 85 58 fe ff ff 	mov    -0x1a8(%rbp),%rax
  4045be:	48 8b 00             	mov    (%rax),%rax
  4045c1:	48 89 c7             	mov    %rax,%rdi
  4045c4:	e8 93 fb ff ff       	callq  40415c <_ZN10tensorflow8internal21GetReferenceableValueEl>
  4045c9:	48 89 85 50 fe ff ff 	mov    %rax,-0x1b0(%rbp)
  4045d0:	48 8d 8d 3c fe ff ff 	lea    -0x1c4(%rbp),%rcx
  4045d7:	48 8d 85 50 fe ff ff 	lea    -0x1b0(%rbp),%rax
  4045de:	ba dc 8f 40 00       	mov    $0x408fdc,%edx
  4045e3:	48 89 ce             	mov    %rcx,%rsi
  4045e6:	48 89 c7             	mov    %rax,%rdi
  4045e9:	e8 b0 15 00 00       	callq  405b9e <_ZN10tensorflow8internal12Check_EQImplIliEEPNSt7__cxx1112basic_stringIcSt11char_traitsIcESaIcEEERKT_RKT0_PKc>
  4045ee:	48 89 c2             	mov    %rax,%rdx
  4045f1:	48 8d 85 48 fe ff ff 	lea    -0x1b8(%rbp),%rax
  4045f8:	48 89 d6             	mov    %rdx,%rsi
  4045fb:	48 89 c7             	mov    %rax,%rdi
  4045fe:	e8 83 fb ff ff       	callq  404186 <_ZN10tensorflow8internal13CheckOpStringC1EPNSt7__cxx1112basic_stringIcSt11char_traitsIcESaIcEEE>
  404603:	48 8d 85 48 fe ff ff 	lea    -0x1b8(%rbp),%rax
  40460a:	48 89 c7             	mov    %rax,%rdi
  40460d:	e8 8e fb ff ff       	callq  4041a0 <_ZNK10tensorflow8internal13CheckOpStringcvbEv>
  404612:	83 f0 01             	xor    $0x1,%eax
  404615:	84 c0                	test   %al,%al
  404617:	75 41                	jne    40465a <_ZN10tensorflow4core10RefCountedD1Ev+0x118>
  404619:	48 8b 9d 48 fe ff ff 	mov    -0x1b8(%rbp),%rbx
  404620:	48 8d 85 60 fe ff ff 	lea    -0x1a0(%rbp),%rax
  404627:	ba 4f 00 00 00       	mov    $0x4f,%edx
  40462c:	be f0 8f 40 00       	mov    $0x408ff0,%esi
  404631:	48 89 c7             	mov    %rax,%rdi
  404634:	e8 b7 e6 ff ff       	callq  402cf0 <_ZN10tensorflow8internal15LogMessageFatalC1EPKci@plt>
  404639:	48 8d 85 60 fe ff ff 	lea    -0x1a0(%rbp),%rax
  404640:	48 89 de             	mov    %rbx,%rsi
  404643:	48 89 c7             	mov    %rax,%rdi
  404646:	e8 2a 15 00 00       	callq  405b75 <_ZStlsIcSt11char_traitsIcENSt7__cxx1112basic_stringIcS1_SaIcEEEERSt13basic_ostreamIT_T0_EOS9_RKT1_>
  40464b:	48 8d 85 60 fe ff ff 	lea    -0x1a0(%rbp),%rax
  404652:	48 89 c7             	mov    %rax,%rdi
  404655:	e8 46 e8 ff ff       	callq  402ea0 <_ZN10tensorflow8internal15LogMessageFatalD1Ev@plt>
  40465a:	90                   	nop
  40465b:	48 8b 45 e8          	mov    -0x18(%rbp),%rax
  40465f:	64 48 33 04 25 28 00 	xor    %fs:0x28,%rax
  404666:	00 00 
  404668:	74 05                	je     40466f <_ZN10tensorflow4core10RefCountedD1Ev+0x12d>
  40466a:	e8 a1 e6 ff ff       	callq  402d10 <__stack_chk_fail@plt>
  40466f:	48 81 c4 d8 01 00 00 	add    $0x1d8,%rsp
  404676:	5b                   	pop    %rbx
  404677:	5d                   	pop    %rbp
  404678:	c3                   	retq   
  404679:	90                   	nop

000000000040467a <_ZN10tensorflow4core10RefCountedD0Ev>:
  40467a:	55                   	push   %rbp
  40467b:	48 89 e5             	mov    %rsp,%rbp
  40467e:	48 83 ec 10          	sub    $0x10,%rsp
  404682:	48 89 7d f8          	mov    %rdi,-0x8(%rbp)
  404686:	48 8b 45 f8          	mov    -0x8(%rbp),%rax
  40468a:	48 89 c7             	mov    %rax,%rdi
  40468d:	e8 b0 fe ff ff       	callq  404542 <_ZN10tensorflow4core10RefCountedD1Ev>
  404692:	48 8b 45 f8          	mov    -0x8(%rbp),%rax
  404696:	48 89 c7             	mov    %rax,%rdi
  404699:	e8 a2 e6 ff ff       	callq  402d40 <_ZdlPv@plt>
  40469e:	c9                   	leaveq 
  40469f:	c3                   	retq   

00000000004046a0 <_ZNK10tensorflow4core10RefCounted3RefEv>:
  4046a0:	55                   	push   %rbp
  4046a1:	48 89 e5             	mov    %rsp,%rbp
  4046a4:	53                   	push   %rbx
  4046a5:	48 81 ec e8 01 00 00 	sub    $0x1e8,%rsp
  4046ac:	48 89 bd 18 fe ff ff 	mov    %rdi,-0x1e8(%rbp)
  4046b3:	64 48 8b 04 25 28 00 	mov    %fs:0x28,%rax
  4046ba:	00 00 
  4046bc:	48 89 45 e8          	mov    %rax,-0x18(%rbp)
  4046c0:	31 c0                	xor    %eax,%eax
  4046c2:	bf 01 00 00 00       	mov    $0x1,%edi
  4046c7:	e8 84 fa ff ff       	callq  404150 <_ZN10tensorflow8internal21GetReferenceableValueEi>
  4046cc:	89 85 28 fe ff ff    	mov    %eax,-0x1d8(%rbp)
  4046d2:	48 8b 85 18 fe ff ff 	mov    -0x1e8(%rbp),%rax
  4046d9:	48 83 c0 08          	add    $0x8,%rax
  4046dd:	48 89 85 48 fe ff ff 	mov    %rax,-0x1b8(%rbp)
  4046e4:	c7 85 2c fe ff ff 05 	movl   $0x5,-0x1d4(%rbp)
  4046eb:	00 00 00 
  4046ee:	8b 85 2c fe ff ff    	mov    -0x1d4(%rbp),%eax
  4046f4:	be ff ff 00 00       	mov    $0xffff,%esi
  4046f9:	89 c7                	mov    %eax,%edi
  4046fb:	e8 38 f9 ff ff       	callq  404038 <_ZStanSt12memory_orderSt23__memory_order_modifier>
  404700:	89 85 30 fe ff ff    	mov    %eax,-0x1d0(%rbp)
  404706:	48 8b 85 48 fe ff ff 	mov    -0x1b8(%rbp),%rax
  40470d:	48 8b 00             	mov    (%rax),%rax
  404710:	48 89 c7             	mov    %rax,%rdi
  404713:	e8 44 fa ff ff       	callq  40415c <_ZN10tensorflow8internal21GetReferenceableValueEl>
  404718:	48 89 85 40 fe ff ff 	mov    %rax,-0x1c0(%rbp)
  40471f:	48 8d 8d 28 fe ff ff 	lea    -0x1d8(%rbp),%rcx
  404726:	48 8d 85 40 fe ff ff 	lea    -0x1c0(%rbp),%rax
  40472d:	ba 76 90 40 00       	mov    $0x409076,%edx
  404732:	48 89 ce             	mov    %rcx,%rsi
  404735:	48 89 c7             	mov    %rax,%rdi
  404738:	e8 a9 14 00 00       	callq  405be6 <_ZN10tensorflow8internal12Check_GEImplIliEEPNSt7__cxx1112basic_stringIcSt11char_traitsIcESaIcEEERKT_RKT0_PKc>
  40473d:	48 89 c2             	mov    %rax,%rdx
  404740:	48 8d 85 38 fe ff ff 	lea    -0x1c8(%rbp),%rax
  404747:	48 89 d6             	mov    %rdx,%rsi
  40474a:	48 89 c7             	mov    %rax,%rdi
  40474d:	e8 34 fa ff ff       	callq  404186 <_ZN10tensorflow8internal13CheckOpStringC1EPNSt7__cxx1112basic_stringIcSt11char_traitsIcESaIcEEE>
  404752:	48 8d 85 38 fe ff ff 	lea    -0x1c8(%rbp),%rax
  404759:	48 89 c7             	mov    %rax,%rdi
  40475c:	e8 3f fa ff ff       	callq  4041a0 <_ZNK10tensorflow8internal13CheckOpStringcvbEv>
  404761:	83 f0 01             	xor    $0x1,%eax
  404764:	84 c0                	test   %al,%al
  404766:	75 41                	jne    4047a9 <_ZNK10tensorflow4core10RefCounted3RefEv+0x109>
  404768:	48 8b 9d 38 fe ff ff 	mov    -0x1c8(%rbp),%rbx
  40476f:	48 8d 85 60 fe ff ff 	lea    -0x1a0(%rbp),%rax
  404776:	ba 52 00 00 00       	mov    $0x52,%edx
  40477b:	be f0 8f 40 00       	mov    $0x408ff0,%esi
  404780:	48 89 c7             	mov    %rax,%rdi
  404783:	e8 68 e5 ff ff       	callq  402cf0 <_ZN10tensorflow8internal15LogMessageFatalC1EPKci@plt>
  404788:	48 8d 85 60 fe ff ff 	lea    -0x1a0(%rbp),%rax
  40478f:	48 89 de             	mov    %rbx,%rsi
  404792:	48 89 c7             	mov    %rax,%rdi
  404795:	e8 db 13 00 00       	callq  405b75 <_ZStlsIcSt11char_traitsIcENSt7__cxx1112basic_stringIcS1_SaIcEEEERSt13basic_ostreamIT_T0_EOS9_RKT1_>
  40479a:	48 8d 85 60 fe ff ff 	lea    -0x1a0(%rbp),%rax
  4047a1:	48 89 c7             	mov    %rax,%rdi
  4047a4:	e8 f7 e6 ff ff       	callq  402ea0 <_ZN10tensorflow8internal15LogMessageFatalD1Ev@plt>
  4047a9:	48 8b 85 18 fe ff ff 	mov    -0x1e8(%rbp),%rax
  4047b0:	48 83 c0 08          	add    $0x8,%rax
  4047b4:	48 89 85 50 fe ff ff 	mov    %rax,-0x1b0(%rbp)
  4047bb:	48 c7 85 58 fe ff ff 	movq   $0x1,-0x1a8(%rbp)
  4047c2:	01 00 00 00 
  4047c6:	c7 85 34 fe ff ff 00 	movl   $0x0,-0x1cc(%rbp)
  4047cd:	00 00 00 
  4047d0:	48 8b 95 58 fe ff ff 	mov    -0x1a8(%rbp),%rdx
  4047d7:	48 8b 85 50 fe ff ff 	mov    -0x1b0(%rbp),%rax
  4047de:	f0 48 0f c1 10       	lock xadd %rdx,(%rax)
  4047e3:	90                   	nop
  4047e4:	48 8b 45 e8          	mov    -0x18(%rbp),%rax
  4047e8:	64 48 33 04 25 28 00 	xor    %fs:0x28,%rax
  4047ef:	00 00 
  4047f1:	74 16                	je     404809 <_ZNK10tensorflow4core10RefCounted3RefEv+0x169>
  4047f3:	eb 0f                	jmp    404804 <_ZNK10tensorflow4core10RefCounted3RefEv+0x164>
  4047f5:	48 8d 85 60 fe ff ff 	lea    -0x1a0(%rbp),%rax
  4047fc:	48 89 c7             	mov    %rax,%rdi
  4047ff:	e8 9c e6 ff ff       	callq  402ea0 <_ZN10tensorflow8internal15LogMessageFatalD1Ev@plt>
  404804:	e8 07 e5 ff ff       	callq  402d10 <__stack_chk_fail@plt>
  404809:	48 81 c4 e8 01 00 00 	add    $0x1e8,%rsp
  404810:	5b                   	pop    %rbx
  404811:	5d                   	pop    %rbp
  404812:	c3                   	retq   
  404813:	90                   	nop

0000000000404814 <_ZNK10tensorflow6Tensor5shapeEv>:
  404814:	55                   	push   %rbp
  404815:	48 89 e5             	mov    %rsp,%rbp
  404818:	48 89 7d f8          	mov    %rdi,-0x8(%rbp)
  40481c:	48 8b 45 f8          	mov    -0x8(%rbp),%rax
  404820:	5d                   	pop    %rbp
  404821:	c3                   	retq   

0000000000404822 <_ZNK10tensorflow6Tensor11NumElementsEv>:
  404822:	55                   	push   %rbp
  404823:	48 89 e5             	mov    %rsp,%rbp
  404826:	48 83 ec 10          	sub    $0x10,%rsp
  40482a:	48 89 7d f8          	mov    %rdi,-0x8(%rbp)
  40482e:	48 8b 45 f8          	mov    -0x8(%rbp),%rax
  404832:	48 89 c7             	mov    %rax,%rdi
  404835:	e8 da ff ff ff       	callq  404814 <_ZNK10tensorflow6Tensor5shapeEv>
  40483a:	48 89 c7             	mov    %rax,%rdi
  40483d:	e8 b8 fb ff ff       	callq  4043fa <_ZNK10tensorflow14TensorShapeRep12num_elementsEv>
  404842:	c9                   	leaveq 
  404843:	c3                   	retq   

0000000000404844 <_ZNK10tensorflow6Tensor9IsAlignedEv>:
  404844:	55                   	push   %rbp
  404845:	48 89 e5             	mov    %rsp,%rbp
  404848:	48 83 ec 20          	sub    $0x20,%rsp
  40484c:	48 89 7d e8          	mov    %rdi,-0x18(%rbp)
  404850:	48 8b 45 e8          	mov    -0x18(%rbp),%rax
  404854:	48 89 c7             	mov    %rax,%rdi
  404857:	e8 d2 13 00 00       	callq  405c2e <_ZNK10tensorflow6Tensor4baseIvEEPT_v>
  40485c:	48 89 45 f8          	mov    %rax,-0x8(%rbp)
  404860:	48 8b 45 f8          	mov    -0x8(%rbp),%rax
  404864:	83 e0 0f             	and    $0xf,%eax
  404867:	48 85 c0             	test   %rax,%rax
  40486a:	0f 94 c0             	sete   %al
  40486d:	c9                   	leaveq 
  40486e:	c3                   	retq   
  40486f:	90                   	nop

0000000000404870 <_ZN10tensorflow15TensorShapeBaseINS_11TensorShapeEEC1ERKS2_>:
  404870:	55                   	push   %rbp
  404871:	48 89 e5             	mov    %rsp,%rbp
  404874:	48 83 ec 10          	sub    $0x10,%rsp
  404878:	48 89 7d f8          	mov    %rdi,-0x8(%rbp)
  40487c:	48 89 75 f0          	mov    %rsi,-0x10(%rbp)
  404880:	48 8b 55 f0          	mov    -0x10(%rbp),%rdx
  404884:	48 8b 45 f8          	mov    -0x8(%rbp),%rax
  404888:	48 89 d6             	mov    %rdx,%rsi
  40488b:	48 89 c7             	mov    %rax,%rdi
  40488e:	e8 e1 fb ff ff       	callq  404474 <_ZN10tensorflow14TensorShapeRepC1ERKS0_>
  404893:	90                   	nop
  404894:	c9                   	leaveq 
  404895:	c3                   	retq   

0000000000404896 <_ZN10tensorflow15TensorShapeBaseINS_11TensorShapeEED1Ev>:
  404896:	55                   	push   %rbp
  404897:	48 89 e5             	mov    %rsp,%rbp
  40489a:	48 83 ec 10          	sub    $0x10,%rsp
  40489e:	48 89 7d f8          	mov    %rdi,-0x8(%rbp)
  4048a2:	48 8b 45 f8          	mov    -0x8(%rbp),%rax
  4048a6:	48 89 c7             	mov    %rax,%rdi
  4048a9:	e8 58 fc ff ff       	callq  404506 <_ZN10tensorflow14TensorShapeRepD1Ev>
  4048ae:	90                   	nop
  4048af:	c9                   	leaveq 
  4048b0:	c3                   	retq   
  4048b1:	90                   	nop

00000000004048b2 <_ZN10tensorflow11TensorShapeC1ERKS0_>:
  4048b2:	55                   	push   %rbp
  4048b3:	48 89 e5             	mov    %rsp,%rbp
  4048b6:	48 83 ec 10          	sub    $0x10,%rsp
  4048ba:	48 89 7d f8          	mov    %rdi,-0x8(%rbp)
  4048be:	48 89 75 f0          	mov    %rsi,-0x10(%rbp)
  4048c2:	48 8b 55 f0          	mov    -0x10(%rbp),%rdx
  4048c6:	48 8b 45 f8          	mov    -0x8(%rbp),%rax
  4048ca:	48 89 d6             	mov    %rdx,%rsi
  4048cd:	48 89 c7             	mov    %rax,%rdi
  4048d0:	e8 9b ff ff ff       	callq  404870 <_ZN10tensorflow15TensorShapeBaseINS_11TensorShapeEEC1ERKS2_>
  4048d5:	90                   	nop
  4048d6:	c9                   	leaveq 
  4048d7:	c3                   	retq   

00000000004048d8 <_ZN10tensorflow11TensorShapeD1Ev>:
  4048d8:	55                   	push   %rbp
  4048d9:	48 89 e5             	mov    %rsp,%rbp
  4048dc:	48 83 ec 10          	sub    $0x10,%rsp
  4048e0:	48 89 7d f8          	mov    %rdi,-0x8(%rbp)
  4048e4:	48 8b 45 f8          	mov    -0x8(%rbp),%rax
  4048e8:	48 89 c7             	mov    %rax,%rdi
  4048eb:	e8 a6 ff ff ff       	callq  404896 <_ZN10tensorflow15TensorShapeBaseINS_11TensorShapeEED1Ev>
  4048f0:	90                   	nop
  4048f1:	c9                   	leaveq 
  4048f2:	c3                   	retq   
  4048f3:	90                   	nop

00000000004048f4 <_ZN10tensorflow6TensorC1ERKS0_>:
  4048f4:	55                   	push   %rbp
  4048f5:	48 89 e5             	mov    %rsp,%rbp
  4048f8:	53                   	push   %rbx
  4048f9:	48 83 ec 18          	sub    $0x18,%rsp
  4048fd:	48 89 7d e8          	mov    %rdi,-0x18(%rbp)
  404901:	48 89 75 e0          	mov    %rsi,-0x20(%rbp)
  404905:	48 8b 45 e0          	mov    -0x20(%rbp),%rax
  404909:	48 89 c7             	mov    %rax,%rdi
  40490c:	e8 03 ff ff ff       	callq  404814 <_ZNK10tensorflow6Tensor5shapeEv>
  404911:	48 89 c2             	mov    %rax,%rdx
  404914:	48 8b 45 e8          	mov    -0x18(%rbp),%rax
  404918:	48 89 d6             	mov    %rdx,%rsi
  40491b:	48 89 c7             	mov    %rax,%rdi
  40491e:	e8 8f ff ff ff       	callq  4048b2 <_ZN10tensorflow11TensorShapeC1ERKS0_>
  404923:	48 8b 45 e0          	mov    -0x20(%rbp),%rax
  404927:	48 8b 50 18          	mov    0x18(%rax),%rdx
  40492b:	48 8b 45 e8          	mov    -0x18(%rbp),%rax
  40492f:	48 89 50 18          	mov    %rdx,0x18(%rax)
  404933:	48 8b 45 e8          	mov    -0x18(%rbp),%rax
  404937:	48 8b 40 18          	mov    0x18(%rax),%rax
  40493b:	48 85 c0             	test   %rax,%rax
  40493e:	74 2c                	je     40496c <_ZN10tensorflow6TensorC1ERKS0_+0x78>
  404940:	48 8b 45 e8          	mov    -0x18(%rbp),%rax
  404944:	48 8b 40 18          	mov    0x18(%rax),%rax
  404948:	48 89 c7             	mov    %rax,%rdi
  40494b:	e8 50 fd ff ff       	callq  4046a0 <_ZNK10tensorflow4core10RefCounted3RefEv>
  404950:	eb 1a                	jmp    40496c <_ZN10tensorflow6TensorC1ERKS0_+0x78>
  404952:	48 89 c3             	mov    %rax,%rbx
  404955:	48 8b 45 e8          	mov    -0x18(%rbp),%rax
  404959:	48 89 c7             	mov    %rax,%rdi
  40495c:	e8 77 ff ff ff       	callq  4048d8 <_ZN10tensorflow11TensorShapeD1Ev>
  404961:	48 89 d8             	mov    %rbx,%rax
  404964:	48 89 c7             	mov    %rax,%rdi
  404967:	e8 54 e6 ff ff       	callq  402fc0 <_Unwind_Resume@plt>
  40496c:	90                   	nop
  40496d:	48 83 c4 18          	add    $0x18,%rsp
  404971:	5b                   	pop    %rbx
  404972:	5d                   	pop    %rbp
  404973:	c3                   	retq   

0000000000404974 <_ZN10tensorflow9OperationD1Ev>:
  404974:	55                   	push   %rbp
  404975:	48 89 e5             	mov    %rsp,%rbp
  404978:	48 83 ec 10          	sub    $0x10,%rsp
  40497c:	48 89 7d f8          	mov    %rdi,-0x8(%rbp)
  404980:	48 8b 45 f8          	mov    -0x8(%rbp),%rax
  404984:	48 89 c7             	mov    %rax,%rdi
  404987:	e8 d4 12 00 00       	callq  405c60 <_ZNSt6vectorISt4pairIPN10tensorflow4NodeEiESaIS4_EED1Ev>
  40498c:	90                   	nop
  40498d:	c9                   	leaveq 
  40498e:	c3                   	retq   
  40498f:	90                   	nop

0000000000404990 <_ZN10tensorflow9OperationC1ERKS0_>:
  404990:	55                   	push   %rbp
  404991:	48 89 e5             	mov    %rsp,%rbp
  404994:	48 83 ec 10          	sub    $0x10,%rsp
  404998:	48 89 7d f8          	mov    %rdi,-0x8(%rbp)
  40499c:	48 89 75 f0          	mov    %rsi,-0x10(%rbp)
  4049a0:	48 8b 55 f0          	mov    -0x10(%rbp),%rdx
  4049a4:	48 8b 45 f8          	mov    -0x8(%rbp),%rax
  4049a8:	48 89 d6             	mov    %rdx,%rsi
  4049ab:	48 89 c7             	mov    %rax,%rdi
  4049ae:	e8 f1 12 00 00       	callq  405ca4 <_ZNSt6vectorISt4pairIPN10tensorflow4NodeEiESaIS4_EEC1ERKS6_>
  4049b3:	48 8b 45 f0          	mov    -0x10(%rbp),%rax
  4049b7:	48 8b 50 18          	mov    0x18(%rax),%rdx
  4049bb:	48 8b 45 f8          	mov    -0x8(%rbp),%rax
  4049bf:	48 89 50 18          	mov    %rdx,0x18(%rax)
  4049c3:	90                   	nop
  4049c4:	c9                   	leaveq 
  4049c5:	c3                   	retq   

00000000004049c6 <_ZN10tensorflow6OutputC1ERKNS_9OperationEi>:
  4049c6:	55                   	push   %rbp
  4049c7:	48 89 e5             	mov    %rsp,%rbp
  4049ca:	48 83 ec 20          	sub    $0x20,%rsp
  4049ce:	48 89 7d f8          	mov    %rdi,-0x8(%rbp)
  4049d2:	48 89 75 f0          	mov    %rsi,-0x10(%rbp)
  4049d6:	89 55 ec             	mov    %edx,-0x14(%rbp)
  4049d9:	48 8b 45 f8          	mov    -0x8(%rbp),%rax
  4049dd:	48 8b 55 f0          	mov    -0x10(%rbp),%rdx
  4049e1:	48 89 d6             	mov    %rdx,%rsi
  4049e4:	48 89 c7             	mov    %rax,%rdi
  4049e7:	e8 a4 ff ff ff       	callq  404990 <_ZN10tensorflow9OperationC1ERKS0_>
  4049ec:	48 8b 45 f8          	mov    -0x8(%rbp),%rax
  4049f0:	8b 55 ec             	mov    -0x14(%rbp),%edx
  4049f3:	89 50 20             	mov    %edx,0x20(%rax)
  4049f6:	90                   	nop
  4049f7:	c9                   	leaveq 
  4049f8:	c3                   	retq   
  4049f9:	90                   	nop

00000000004049fa <_ZN10tensorflow6OutputD1Ev>:
  4049fa:	55                   	push   %rbp
  4049fb:	48 89 e5             	mov    %rsp,%rbp
  4049fe:	48 83 ec 10          	sub    $0x10,%rsp
  404a02:	48 89 7d f8          	mov    %rdi,-0x8(%rbp)
  404a06:	48 8b 45 f8          	mov    -0x8(%rbp),%rax
  404a0a:	48 89 c7             	mov    %rax,%rdi
  404a0d:	e8 62 ff ff ff       	callq  404974 <_ZN10tensorflow9OperationD1Ev>
  404a12:	90                   	nop
  404a13:	c9                   	leaveq 
  404a14:	c3                   	retq   
  404a15:	90                   	nop

0000000000404a16 <_ZN10tensorflow6OutputC1ERKS0_>:
  404a16:	55                   	push   %rbp
  404a17:	48 89 e5             	mov    %rsp,%rbp
  404a1a:	48 83 ec 10          	sub    $0x10,%rsp
  404a1e:	48 89 7d f8          	mov    %rdi,-0x8(%rbp)
  404a22:	48 89 75 f0          	mov    %rsi,-0x10(%rbp)
  404a26:	48 8b 55 f0          	mov    -0x10(%rbp),%rdx
  404a2a:	48 8b 45 f8          	mov    -0x8(%rbp),%rax
  404a2e:	48 89 d6             	mov    %rdx,%rsi
  404a31:	48 89 c7             	mov    %rax,%rdi
  404a34:	e8 57 ff ff ff       	callq  404990 <_ZN10tensorflow9OperationC1ERKS0_>
  404a39:	48 8b 45 f0          	mov    -0x10(%rbp),%rax
  404a3d:	8b 50 20             	mov    0x20(%rax),%edx
  404a40:	48 8b 45 f8          	mov    -0x8(%rbp),%rax
  404a44:	89 50 20             	mov    %edx,0x20(%rax)
  404a47:	90                   	nop
  404a48:	c9                   	leaveq 
  404a49:	c3                   	retq   

0000000000404a4a <_ZN10tensorflow5InputC1ERKNS_6OutputE>:
  404a4a:	55                   	push   %rbp
  404a4b:	48 89 e5             	mov    %rsp,%rbp
  404a4e:	53                   	push   %rbx
  404a4f:	48 83 ec 28          	sub    $0x28,%rsp
  404a53:	48 89 7d d8          	mov    %rdi,-0x28(%rbp)
  404a57:	48 89 75 d0          	mov    %rsi,-0x30(%rbp)
  404a5b:	64 48 8b 04 25 28 00 	mov    %fs:0x28,%rax
  404a62:	00 00 
  404a64:	48 89 45 e8          	mov    %rax,-0x18(%rbp)
  404a68:	31 c0                	xor    %eax,%eax
  404a6a:	48 8b 45 d8          	mov    -0x28(%rbp),%rax
  404a6e:	48 89 c7             	mov    %rax,%rdi
  404a71:	e8 0e f8 ff ff       	callq  404284 <_ZN10tensorflow6StatusC1Ev>
  404a76:	48 8b 45 d8          	mov    -0x28(%rbp),%rax
  404a7a:	48 8d 50 08          	lea    0x8(%rax),%rdx
  404a7e:	48 8b 45 d0          	mov    -0x30(%rbp),%rax
  404a82:	48 89 c6             	mov    %rax,%rsi
  404a85:	48 89 d7             	mov    %rdx,%rdi
  404a88:	e8 89 ff ff ff       	callq  404a16 <_ZN10tensorflow6OutputC1ERKS0_>
  404a8d:	48 8b 45 d8          	mov    -0x28(%rbp),%rax
  404a91:	48 83 c0 30          	add    $0x30,%rax
  404a95:	48 89 c7             	mov    %rax,%rdi
  404a98:	e8 43 e3 ff ff       	callq  402de0 <_ZN10tensorflow6TensorC1Ev@plt>
  404a9d:	48 8d 45 e7          	lea    -0x19(%rbp),%rax
  404aa1:	48 89 c7             	mov    %rax,%rdi
  404aa4:	e8 f7 e2 ff ff       	callq  402da0 <_ZNSaIcEC1Ev@plt>
  404aa9:	48 8b 45 d8          	mov    -0x28(%rbp),%rax
  404aad:	48 8d 48 50          	lea    0x50(%rax),%rcx
  404ab1:	48 8d 45 e7          	lea    -0x19(%rbp),%rax
  404ab5:	48 89 c2             	mov    %rax,%rdx
  404ab8:	be e0 90 40 00       	mov    $0x4090e0,%esi
  404abd:	48 89 cf             	mov    %rcx,%rdi
  404ac0:	e8 2b e5 ff ff       	callq  402ff0 <_ZNSt7__cxx1112basic_stringIcSt11char_traitsIcESaIcEEC1EPKcRKS3_@plt>
  404ac5:	48 8d 45 e7          	lea    -0x19(%rbp),%rax
  404ac9:	48 89 c7             	mov    %rax,%rdi
  404acc:	e8 0f e7 ff ff       	callq  4031e0 <_ZNSaIcED1Ev@plt>
  404ad1:	48 8b 45 d8          	mov    -0x28(%rbp),%rax
  404ad5:	c7 40 70 00 00 00 00 	movl   $0x0,0x70(%rax)
  404adc:	48 8b 45 d8          	mov    -0x28(%rbp),%rax
  404ae0:	c7 40 74 00 00 00 00 	movl   $0x0,0x74(%rax)
  404ae7:	90                   	nop
  404ae8:	48 8b 45 e8          	mov    -0x18(%rbp),%rax
  404aec:	64 48 33 04 25 28 00 	xor    %fs:0x28,%rax
  404af3:	00 00 
  404af5:	74 57                	je     404b4e <_ZN10tensorflow5InputC1ERKNS_6OutputE+0x104>
  404af7:	eb 50                	jmp    404b49 <_ZN10tensorflow5InputC1ERKNS_6OutputE+0xff>
  404af9:	48 89 c3             	mov    %rax,%rbx
  404afc:	48 8d 45 e7          	lea    -0x19(%rbp),%rax
  404b00:	48 89 c7             	mov    %rax,%rdi
  404b03:	e8 d8 e6 ff ff       	callq  4031e0 <_ZNSaIcED1Ev@plt>
  404b08:	48 8b 45 d8          	mov    -0x28(%rbp),%rax
  404b0c:	48 83 c0 30          	add    $0x30,%rax
  404b10:	48 89 c7             	mov    %rax,%rdi
  404b13:	e8 68 e2 ff ff       	callq  402d80 <_ZN10tensorflow6TensorD1Ev@plt>
  404b18:	eb 03                	jmp    404b1d <_ZN10tensorflow5InputC1ERKNS_6OutputE+0xd3>
  404b1a:	48 89 c3             	mov    %rax,%rbx
  404b1d:	48 8b 45 d8          	mov    -0x28(%rbp),%rax
  404b21:	48 83 c0 08          	add    $0x8,%rax
  404b25:	48 89 c7             	mov    %rax,%rdi
  404b28:	e8 cd fe ff ff       	callq  4049fa <_ZN10tensorflow6OutputD1Ev>
  404b2d:	eb 03                	jmp    404b32 <_ZN10tensorflow5InputC1ERKNS_6OutputE+0xe8>
  404b2f:	48 89 c3             	mov    %rax,%rbx
  404b32:	48 8b 45 d8          	mov    -0x28(%rbp),%rax
  404b36:	48 89 c7             	mov    %rax,%rdi
  404b39:	e8 62 f7 ff ff       	callq  4042a0 <_ZN10tensorflow6StatusD1Ev>
  404b3e:	48 89 d8             	mov    %rbx,%rax
  404b41:	48 89 c7             	mov    %rax,%rdi
  404b44:	e8 77 e4 ff ff       	callq  402fc0 <_Unwind_Resume@plt>
  404b49:	e8 c2 e1 ff ff       	callq  402d10 <__stack_chk_fail@plt>
  404b4e:	48 83 c4 28          	add    $0x28,%rsp
  404b52:	5b                   	pop    %rbx
  404b53:	5d                   	pop    %rbp
  404b54:	c3                   	retq   
  404b55:	90                   	nop

0000000000404b56 <_ZN10tensorflow5InputC1ERKNS_6TensorE>:
  404b56:	55                   	push   %rbp
  404b57:	48 89 e5             	mov    %rsp,%rbp
  404b5a:	53                   	push   %rbx
  404b5b:	48 83 ec 48          	sub    $0x48,%rsp
  404b5f:	48 89 7d b8          	mov    %rdi,-0x48(%rbp)
  404b63:	48 89 75 b0          	mov    %rsi,-0x50(%rbp)
  404b67:	64 48 8b 04 25 28 00 	mov    %fs:0x28,%rax
  404b6e:	00 00 
  404b70:	48 89 45 e8          	mov    %rax,-0x18(%rbp)
  404b74:	31 c0                	xor    %eax,%eax
  404b76:	48 8b 45 b8          	mov    -0x48(%rbp),%rax
  404b7a:	48 89 c7             	mov    %rax,%rdi
  404b7d:	e8 39 f7 ff ff       	callq  4042bb <_ZN10tensorflow6Status2OKEv>
  404b82:	48 8d 45 c0          	lea    -0x40(%rbp),%rax
  404b86:	be 00 00 00 00       	mov    $0x0,%esi
  404b8b:	48 89 c7             	mov    %rax,%rdi
  404b8e:	e8 cd e4 ff ff       	callq  403060 <_ZN10tensorflow9OperationC1EPNS_4NodeE@plt>
  404b93:	48 8b 45 b8          	mov    -0x48(%rbp),%rax
  404b97:	48 8d 48 08          	lea    0x8(%rax),%rcx
  404b9b:	48 8d 45 c0          	lea    -0x40(%rbp),%rax
  404b9f:	ba 00 00 00 00       	mov    $0x0,%edx
  404ba4:	48 89 c6             	mov    %rax,%rsi
  404ba7:	48 89 cf             	mov    %rcx,%rdi
  404baa:	e8 17 fe ff ff       	callq  4049c6 <_ZN10tensorflow6OutputC1ERKNS_9OperationEi>
  404baf:	48 8d 45 c0          	lea    -0x40(%rbp),%rax
  404bb3:	48 89 c7             	mov    %rax,%rdi
  404bb6:	e8 b9 fd ff ff       	callq  404974 <_ZN10tensorflow9OperationD1Ev>
  404bbb:	48 8b 45 b8          	mov    -0x48(%rbp),%rax
  404bbf:	48 8d 50 30          	lea    0x30(%rax),%rdx
  404bc3:	48 8b 45 b0          	mov    -0x50(%rbp),%rax
  404bc7:	48 89 c6             	mov    %rax,%rsi
  404bca:	48 89 d7             	mov    %rdx,%rdi
  404bcd:	e8 22 fd ff ff       	callq  4048f4 <_ZN10tensorflow6TensorC1ERKS0_>
  404bd2:	48 8d 45 c0          	lea    -0x40(%rbp),%rax
  404bd6:	48 89 c7             	mov    %rax,%rdi
  404bd9:	e8 c2 e1 ff ff       	callq  402da0 <_ZNSaIcEC1Ev@plt>
  404bde:	48 8b 45 b8          	mov    -0x48(%rbp),%rax
  404be2:	48 8d 48 50          	lea    0x50(%rax),%rcx
  404be6:	48 8d 45 c0          	lea    -0x40(%rbp),%rax
  404bea:	48 89 c2             	mov    %rax,%rdx
  404bed:	be e0 90 40 00       	mov    $0x4090e0,%esi
  404bf2:	48 89 cf             	mov    %rcx,%rdi
  404bf5:	e8 f6 e3 ff ff       	callq  402ff0 <_ZNSt7__cxx1112basic_stringIcSt11char_traitsIcESaIcEEC1EPKcRKS3_@plt>
  404bfa:	48 8d 45 c0          	lea    -0x40(%rbp),%rax
  404bfe:	48 89 c7             	mov    %rax,%rdi
  404c01:	e8 da e5 ff ff       	callq  4031e0 <_ZNSaIcED1Ev@plt>
  404c06:	48 8b 45 b8          	mov    -0x48(%rbp),%rax
  404c0a:	c7 40 70 00 00 00 00 	movl   $0x0,0x70(%rax)
  404c11:	48 8b 45 b8          	mov    -0x48(%rbp),%rax
  404c15:	c7 40 74 00 00 00 00 	movl   $0x0,0x74(%rax)
  404c1c:	90                   	nop
  404c1d:	48 8b 45 e8          	mov    -0x18(%rbp),%rax
  404c21:	64 48 33 04 25 28 00 	xor    %fs:0x28,%rax
  404c28:	00 00 
  404c2a:	74 68                	je     404c94 <_ZN10tensorflow5InputC1ERKNS_6TensorE+0x13e>
  404c2c:	eb 61                	jmp    404c8f <_ZN10tensorflow5InputC1ERKNS_6TensorE+0x139>
  404c2e:	48 89 c3             	mov    %rax,%rbx
  404c31:	48 8d 45 c0          	lea    -0x40(%rbp),%rax
  404c35:	48 89 c7             	mov    %rax,%rdi
  404c38:	e8 37 fd ff ff       	callq  404974 <_ZN10tensorflow9OperationD1Ev>
  404c3d:	eb 39                	jmp    404c78 <_ZN10tensorflow5InputC1ERKNS_6TensorE+0x122>
  404c3f:	48 89 c3             	mov    %rax,%rbx
  404c42:	48 8d 45 c0          	lea    -0x40(%rbp),%rax
  404c46:	48 89 c7             	mov    %rax,%rdi
  404c49:	e8 92 e5 ff ff       	callq  4031e0 <_ZNSaIcED1Ev@plt>
  404c4e:	48 8b 45 b8          	mov    -0x48(%rbp),%rax
  404c52:	48 83 c0 30          	add    $0x30,%rax
  404c56:	48 89 c7             	mov    %rax,%rdi
  404c59:	e8 22 e1 ff ff       	callq  402d80 <_ZN10tensorflow6TensorD1Ev@plt>
  404c5e:	eb 03                	jmp    404c63 <_ZN10tensorflow5InputC1ERKNS_6TensorE+0x10d>
  404c60:	48 89 c3             	mov    %rax,%rbx
  404c63:	48 8b 45 b8          	mov    -0x48(%rbp),%rax
  404c67:	48 83 c0 08          	add    $0x8,%rax
  404c6b:	48 89 c7             	mov    %rax,%rdi
  404c6e:	e8 87 fd ff ff       	callq  4049fa <_ZN10tensorflow6OutputD1Ev>
  404c73:	eb 03                	jmp    404c78 <_ZN10tensorflow5InputC1ERKNS_6TensorE+0x122>
  404c75:	48 89 c3             	mov    %rax,%rbx
  404c78:	48 8b 45 b8          	mov    -0x48(%rbp),%rax
  404c7c:	48 89 c7             	mov    %rax,%rdi
  404c7f:	e8 1c f6 ff ff       	callq  4042a0 <_ZN10tensorflow6StatusD1Ev>
  404c84:	48 89 d8             	mov    %rbx,%rax
  404c87:	48 89 c7             	mov    %rax,%rdi
  404c8a:	e8 31 e3 ff ff       	callq  402fc0 <_Unwind_Resume@plt>
  404c8f:	e8 7c e0 ff ff       	callq  402d10 <__stack_chk_fail@plt>
  404c94:	48 83 c4 48          	add    $0x48,%rsp
  404c98:	5b                   	pop    %rbx
  404c99:	5d                   	pop    %rbp
  404c9a:	c3                   	retq   
  404c9b:	90                   	nop

0000000000404c9c <_ZN10tensorflow5Input11InitializerD1Ev>:
  404c9c:	55                   	push   %rbp
  404c9d:	48 89 e5             	mov    %rsp,%rbp
  404ca0:	48 83 ec 10          	sub    $0x10,%rsp
  404ca4:	48 89 7d f8          	mov    %rdi,-0x8(%rbp)
  404ca8:	48 8b 45 f8          	mov    -0x8(%rbp),%rax
  404cac:	48 83 c0 08          	add    $0x8,%rax
  404cb0:	48 89 c7             	mov    %rax,%rdi
  404cb3:	e8 c8 e0 ff ff       	callq  402d80 <_ZN10tensorflow6TensorD1Ev@plt>
  404cb8:	48 8b 45 f8          	mov    -0x8(%rbp),%rax
  404cbc:	48 89 c7             	mov    %rax,%rdi
  404cbf:	e8 dc f5 ff ff       	callq  4042a0 <_ZN10tensorflow6StatusD1Ev>
  404cc4:	90                   	nop
  404cc5:	c9                   	leaveq 
  404cc6:	c3                   	retq   
  404cc7:	90                   	nop

0000000000404cc8 <_ZN10tensorflow5InputD1Ev>:
  404cc8:	55                   	push   %rbp
  404cc9:	48 89 e5             	mov    %rsp,%rbp
  404ccc:	48 83 ec 10          	sub    $0x10,%rsp
  404cd0:	48 89 7d f8          	mov    %rdi,-0x8(%rbp)
  404cd4:	48 8b 45 f8          	mov    -0x8(%rbp),%rax
  404cd8:	48 83 c0 50          	add    $0x50,%rax
  404cdc:	48 89 c7             	mov    %rax,%rdi
  404cdf:	e8 8c e1 ff ff       	callq  402e70 <_ZNSt7__cxx1112basic_stringIcSt11char_traitsIcESaIcEED1Ev@plt>
  404ce4:	48 8b 45 f8          	mov    -0x8(%rbp),%rax
  404ce8:	48 83 c0 30          	add    $0x30,%rax
  404cec:	48 89 c7             	mov    %rax,%rdi
  404cef:	e8 8c e0 ff ff       	callq  402d80 <_ZN10tensorflow6TensorD1Ev@plt>
  404cf4:	48 8b 45 f8          	mov    -0x8(%rbp),%rax
  404cf8:	48 83 c0 08          	add    $0x8,%rax
  404cfc:	48 89 c7             	mov    %rax,%rdi
  404cff:	e8 f6 fc ff ff       	callq  4049fa <_ZN10tensorflow6OutputD1Ev>
  404d04:	48 8b 45 f8          	mov    -0x8(%rbp),%rax
  404d08:	48 89 c7             	mov    %rax,%rdi
  404d0b:	e8 90 f5 ff ff       	callq  4042a0 <_ZN10tensorflow6StatusD1Ev>
  404d10:	90                   	nop
  404d11:	c9                   	leaveq 
  404d12:	c3                   	retq   
  404d13:	90                   	nop

0000000000404d14 <_ZNKSt16initializer_listIN10tensorflow6OutputEE5beginEv>:
  404d14:	55                   	push   %rbp
  404d15:	48 89 e5             	mov    %rsp,%rbp
  404d18:	48 89 7d f8          	mov    %rdi,-0x8(%rbp)
  404d1c:	48 8b 45 f8          	mov    -0x8(%rbp),%rax
  404d20:	48 8b 00             	mov    (%rax),%rax
  404d23:	5d                   	pop    %rbp
  404d24:	c3                   	retq   
  404d25:	90                   	nop

0000000000404d26 <_ZNKSt16initializer_listIN10tensorflow6OutputEE4sizeEv>:
  404d26:	55                   	push   %rbp
  404d27:	48 89 e5             	mov    %rsp,%rbp
  404d2a:	48 89 7d f8          	mov    %rdi,-0x8(%rbp)
  404d2e:	48 8b 45 f8          	mov    -0x8(%rbp),%rax
  404d32:	48 8b 40 08          	mov    0x8(%rax),%rax
  404d36:	5d                   	pop    %rbp
  404d37:	c3                   	retq   

0000000000404d38 <_ZNKSt16initializer_listIN10tensorflow6OutputEE3endEv>:
  404d38:	55                   	push   %rbp
  404d39:	48 89 e5             	mov    %rsp,%rbp
  404d3c:	53                   	push   %rbx
  404d3d:	48 83 ec 18          	sub    $0x18,%rsp
  404d41:	48 89 7d e8          	mov    %rdi,-0x18(%rbp)
  404d45:	48 8b 45 e8          	mov    -0x18(%rbp),%rax
  404d49:	48 89 c7             	mov    %rax,%rdi
  404d4c:	e8 c3 ff ff ff       	callq  404d14 <_ZNKSt16initializer_listIN10tensorflow6OutputEE5beginEv>
  404d51:	48 89 c3             	mov    %rax,%rbx
  404d54:	48 8b 45 e8          	mov    -0x18(%rbp),%rax
  404d58:	48 89 c7             	mov    %rax,%rdi
  404d5b:	e8 c6 ff ff ff       	callq  404d26 <_ZNKSt16initializer_listIN10tensorflow6OutputEE4sizeEv>
  404d60:	48 89 c2             	mov    %rax,%rdx
  404d63:	48 89 d0             	mov    %rdx,%rax
  404d66:	48 c1 e0 02          	shl    $0x2,%rax
  404d6a:	48 01 d0             	add    %rdx,%rax
  404d6d:	48 c1 e0 03          	shl    $0x3,%rax
  404d71:	48 01 d8             	add    %rbx,%rax
  404d74:	48 83 c4 18          	add    $0x18,%rsp
  404d78:	5b                   	pop    %rbx
  404d79:	5d                   	pop    %rbp
  404d7a:	c3                   	retq   
  404d7b:	90                   	nop

0000000000404d7c <_ZNK10tensorflow13NodeExecStats9node_nameB5cxx11Ev>:
  404d7c:	55                   	push   %rbp
  404d7d:	48 89 e5             	mov    %rsp,%rbp
  404d80:	48 83 ec 10          	sub    $0x10,%rsp
  404d84:	48 89 7d f8          	mov    %rdi,-0x8(%rbp)
  404d88:	48 8b 45 f8          	mov    -0x8(%rbp),%rax
  404d8c:	48 83 c0 58          	add    $0x58,%rax
  404d90:	48 89 c7             	mov    %rax,%rdi
  404d93:	e8 6a f3 ff ff       	callq  404102 <_ZNK6google8protobuf8internal14ArenaStringPtr3GetB5cxx11Ev>
  404d98:	c9                   	leaveq 
  404d99:	c3                   	retq   

0000000000404d9a <_ZNK10tensorflow13NodeExecStats18all_end_rel_microsEv>:
  404d9a:	55                   	push   %rbp
  404d9b:	48 89 e5             	mov    %rsp,%rbp
  404d9e:	48 89 7d f8          	mov    %rdi,-0x8(%rbp)
  404da2:	48 8b 45 f8          	mov    -0x8(%rbp),%rax
  404da6:	48 8b 80 88 00 00 00 	mov    0x88(%rax),%rax
  404dad:	5d                   	pop    %rbp
  404dae:	c3                   	retq   
  404daf:	90                   	nop

0000000000404db0 <_ZNK10tensorflow15DeviceStepStats10node_statsEv>:
  404db0:	55                   	push   %rbp
  404db1:	48 89 e5             	mov    %rsp,%rbp
  404db4:	48 89 7d f8          	mov    %rdi,-0x8(%rbp)
  404db8:	48 8b 45 f8          	mov    -0x8(%rbp),%rax
  404dbc:	48 83 c0 10          	add    $0x10,%rax
  404dc0:	5d                   	pop    %rbp
  404dc1:	c3                   	retq   

0000000000404dc2 <_ZNK10tensorflow9StepStats9dev_statsEv>:
  404dc2:	55                   	push   %rbp
  404dc3:	48 89 e5             	mov    %rsp,%rbp
  404dc6:	48 89 7d f8          	mov    %rdi,-0x8(%rbp)
  404dca:	48 8b 45 f8          	mov    -0x8(%rbp),%rax
  404dce:	48 83 c0 10          	add    $0x10,%rax
  404dd2:	5d                   	pop    %rbp
  404dd3:	c3                   	retq   

0000000000404dd4 <_ZN10tensorflow11RunMetadata25internal_default_instanceEv>:
  404dd4:	55                   	push   %rbp
  404dd5:	48 89 e5             	mov    %rsp,%rbp
  404dd8:	b8 c0 e2 60 00       	mov    $0x60e2c0,%eax
  404ddd:	5d                   	pop    %rbp
  404dde:	c3                   	retq   
  404ddf:	90                   	nop

0000000000404de0 <_ZN10tensorflow10RunOptions15set_trace_levelENS_21RunOptions_TraceLevelE>:
  404de0:	55                   	push   %rbp
  404de1:	48 89 e5             	mov    %rsp,%rbp
  404de4:	48 89 7d f8          	mov    %rdi,-0x8(%rbp)
  404de8:	89 75 f4             	mov    %esi,-0xc(%rbp)
  404deb:	48 8b 45 f8          	mov    -0x8(%rbp),%rax
  404def:	8b 55 f4             	mov    -0xc(%rbp),%edx
  404df2:	89 50 20             	mov    %edx,0x20(%rax)
  404df5:	90                   	nop
  404df6:	5d                   	pop    %rbp
  404df7:	c3                   	retq   

0000000000404df8 <_ZNK10tensorflow11RunMetadata14has_step_statsEv>:
  404df8:	55                   	push   %rbp
  404df9:	48 89 e5             	mov    %rsp,%rbp
  404dfc:	48 83 ec 10          	sub    $0x10,%rsp
  404e00:	48 89 7d f8          	mov    %rdi,-0x8(%rbp)
  404e04:	e8 cb ff ff ff       	callq  404dd4 <_ZN10tensorflow11RunMetadata25internal_default_instanceEv>
  404e09:	48 3b 45 f8          	cmp    -0x8(%rbp),%rax
  404e0d:	74 14                	je     404e23 <_ZNK10tensorflow11RunMetadata14has_step_statsEv+0x2b>
  404e0f:	48 8b 45 f8          	mov    -0x8(%rbp),%rax
  404e13:	48 8b 40 28          	mov    0x28(%rax),%rax
  404e17:	48 85 c0             	test   %rax,%rax
  404e1a:	74 07                	je     404e23 <_ZNK10tensorflow11RunMetadata14has_step_statsEv+0x2b>
  404e1c:	b8 01 00 00 00       	mov    $0x1,%eax
  404e21:	eb 05                	jmp    404e28 <_ZNK10tensorflow11RunMetadata14has_step_statsEv+0x30>
  404e23:	b8 00 00 00 00       	mov    $0x0,%eax
  404e28:	c9                   	leaveq 
  404e29:	c3                   	retq   

0000000000404e2a <_ZNK10tensorflow11RunMetadata10step_statsEv>:
  404e2a:	55                   	push   %rbp
  404e2b:	48 89 e5             	mov    %rsp,%rbp
  404e2e:	48 89 7d e8          	mov    %rdi,-0x18(%rbp)
  404e32:	48 8b 45 e8          	mov    -0x18(%rbp),%rax
  404e36:	48 8b 40 28          	mov    0x28(%rax),%rax
  404e3a:	48 89 45 f8          	mov    %rax,-0x8(%rbp)
  404e3e:	48 83 7d f8 00       	cmpq   $0x0,-0x8(%rbp)
  404e43:	74 06                	je     404e4b <_ZNK10tensorflow11RunMetadata10step_statsEv+0x21>
  404e45:	48 8b 45 f8          	mov    -0x8(%rbp),%rax
  404e49:	eb 05                	jmp    404e50 <_ZNK10tensorflow11RunMetadata10step_statsEv+0x26>
  404e4b:	b8 00 e3 60 00       	mov    $0x60e300,%eax
  404e50:	5d                   	pop    %rbp
  404e51:	c3                   	retq   

0000000000404e52 <_ZN10tensorflow21StatSummarizerOptionsC1Ev>:
  404e52:	55                   	push   %rbp
  404e53:	48 89 e5             	mov    %rsp,%rbp
  404e56:	48 89 7d f8          	mov    %rdi,-0x8(%rbp)
  404e5a:	48 8b 45 f8          	mov    -0x8(%rbp),%rax
  404e5e:	c6 00 01             	movb   $0x1,(%rax)
  404e61:	48 8b 45 f8          	mov    -0x8(%rbp),%rax
  404e65:	c7 40 04 00 00 00 00 	movl   $0x0,0x4(%rax)
  404e6c:	48 8b 45 f8          	mov    -0x8(%rbp),%rax
  404e70:	c6 40 08 01          	movb   $0x1,0x8(%rax)
  404e74:	48 8b 45 f8          	mov    -0x8(%rbp),%rax
  404e78:	c7 40 0c 0a 00 00 00 	movl   $0xa,0xc(%rax)
  404e7f:	48 8b 45 f8          	mov    -0x8(%rbp),%rax
  404e83:	c6 40 10 01          	movb   $0x1,0x10(%rax)
  404e87:	48 8b 45 f8          	mov    -0x8(%rbp),%rax
  404e8b:	c7 40 14 0a 00 00 00 	movl   $0xa,0x14(%rax)
  404e92:	48 8b 45 f8          	mov    -0x8(%rbp),%rax
  404e96:	c6 40 18 01          	movb   $0x1,0x18(%rax)
  404e9a:	48 8b 45 f8          	mov    -0x8(%rbp),%rax
  404e9e:	c6 40 19 01          	movb   $0x1,0x19(%rax)
  404ea2:	90                   	nop
  404ea3:	5d                   	pop    %rbp
  404ea4:	c3                   	retq   
  404ea5:	90                   	nop

0000000000404ea6 <_ZNK2CK5Shape10data_countEv>:
  404ea6:	55                   	push   %rbp
  404ea7:	48 89 e5             	mov    %rsp,%rbp
  404eaa:	48 89 7d f8          	mov    %rdi,-0x8(%rbp)
  404eae:	48 8b 45 f8          	mov    -0x8(%rbp),%rax
  404eb2:	8b 10                	mov    (%rax),%edx
  404eb4:	48 8b 45 f8          	mov    -0x8(%rbp),%rax
  404eb8:	8b 40 04             	mov    0x4(%rax),%eax
  404ebb:	0f af d0             	imul   %eax,%edx
  404ebe:	48 8b 45 f8          	mov    -0x8(%rbp),%rax
  404ec2:	8b 40 08             	mov    0x8(%rax),%eax
  404ec5:	0f af d0             	imul   %eax,%edx
  404ec8:	48 8b 45 f8          	mov    -0x8(%rbp),%rax
  404ecc:	8b 40 0c             	mov    0xc(%rax),%eax
  404ecf:	0f af c2             	imul   %edx,%eax
  404ed2:	5d                   	pop    %rbp
  404ed3:	c3                   	retq   

0000000000404ed4 <_ZNK2CK5Shape14get_flat_indexEiiii>:
  404ed4:	55                   	push   %rbp
  404ed5:	48 89 e5             	mov    %rsp,%rbp
  404ed8:	48 83 ec 20          	sub    $0x20,%rsp
  404edc:	48 89 7d f8          	mov    %rdi,-0x8(%rbp)
  404ee0:	89 75 f4             	mov    %esi,-0xc(%rbp)
  404ee3:	89 55 f0             	mov    %edx,-0x10(%rbp)
  404ee6:	89 4d ec             	mov    %ecx,-0x14(%rbp)
  404ee9:	44 89 45 e8          	mov    %r8d,-0x18(%rbp)
  404eed:	8b 7d e8             	mov    -0x18(%rbp),%edi
  404ef0:	8b 4d ec             	mov    -0x14(%rbp),%ecx
  404ef3:	8b 55 f0             	mov    -0x10(%rbp),%edx
  404ef6:	8b 75 f4             	mov    -0xc(%rbp),%esi
  404ef9:	48 8b 45 f8          	mov    -0x8(%rbp),%rax
  404efd:	41 89 f8             	mov    %edi,%r8d
  404f00:	48 89 c7             	mov    %rax,%rdi
  404f03:	e8 02 00 00 00       	callq  404f0a <_ZNK2CK5Shape19get_flat_index_nchwEiiii>
  404f08:	c9                   	leaveq 
  404f09:	c3                   	retq   

0000000000404f0a <_ZNK2CK5Shape19get_flat_index_nchwEiiii>:
  404f0a:	55                   	push   %rbp
  404f0b:	48 89 e5             	mov    %rsp,%rbp
  404f0e:	48 89 7d f8          	mov    %rdi,-0x8(%rbp)
  404f12:	89 75 f4             	mov    %esi,-0xc(%rbp)
  404f15:	89 55 f0             	mov    %edx,-0x10(%rbp)
  404f18:	89 4d ec             	mov    %ecx,-0x14(%rbp)
  404f1b:	44 89 45 e8          	mov    %r8d,-0x18(%rbp)
  404f1f:	48 8b 45 f8          	mov    -0x8(%rbp),%rax
  404f23:	8b 40 04             	mov    0x4(%rax),%eax
  404f26:	0f af 45 f4          	imul   -0xc(%rbp),%eax
  404f2a:	89 c2                	mov    %eax,%edx
  404f2c:	8b 45 f0             	mov    -0x10(%rbp),%eax
  404f2f:	01 c2                	add    %eax,%edx
  404f31:	48 8b 45 f8          	mov    -0x8(%rbp),%rax
  404f35:	8b 40 08             	mov    0x8(%rax),%eax
  404f38:	0f af d0             	imul   %eax,%edx
  404f3b:	8b 45 ec             	mov    -0x14(%rbp),%eax
  404f3e:	01 c2                	add    %eax,%edx
  404f40:	48 8b 45 f8          	mov    -0x8(%rbp),%rax
  404f44:	8b 40 0c             	mov    0xc(%rax),%eax
  404f47:	0f af d0             	imul   %eax,%edx
  404f4a:	8b 45 e8             	mov    -0x18(%rbp),%eax
  404f4d:	01 d0                	add    %edx,%eax
  404f4f:	5d                   	pop    %rbp
  404f50:	c3                   	retq   

0000000000404f51 <_ZN2CK8getenv_iEPKci>:
  404f51:	55                   	push   %rbp
  404f52:	48 89 e5             	mov    %rsp,%rbp
  404f55:	48 83 ec 10          	sub    $0x10,%rsp
  404f59:	48 89 7d f8          	mov    %rdi,-0x8(%rbp)
  404f5d:	89 75 f4             	mov    %esi,-0xc(%rbp)
  404f60:	48 8b 45 f8          	mov    -0x8(%rbp),%rax
  404f64:	48 89 c7             	mov    %rax,%rdi
  404f67:	e8 14 df ff ff       	callq  402e80 <getenv@plt>
  404f6c:	48 85 c0             	test   %rax,%rax
  404f6f:	74 16                	je     404f87 <_ZN2CK8getenv_iEPKci+0x36>
  404f71:	48 8b 45 f8          	mov    -0x8(%rbp),%rax
  404f75:	48 89 c7             	mov    %rax,%rdi
  404f78:	e8 03 df ff ff       	callq  402e80 <getenv@plt>
  404f7d:	48 89 c7             	mov    %rax,%rdi
  404f80:	e8 bb df ff ff       	callq  402f40 <atoi@plt>
  404f85:	eb 03                	jmp    404f8a <_ZN2CK8getenv_iEPKci+0x39>
  404f87:	8b 45 f4             	mov    -0xc(%rbp),%eax
  404f8a:	c9                   	leaveq 
  404f8b:	c3                   	retq   

0000000000404f8c <_ZN2CK13store_value_iEiPKci>:
  404f8c:	55                   	push   %rbp
  404f8d:	48 89 e5             	mov    %rsp,%rbp
  404f90:	48 83 ec 20          	sub    $0x20,%rsp
  404f94:	89 7d ec             	mov    %edi,-0x14(%rbp)
  404f97:	48 89 75 e0          	mov    %rsi,-0x20(%rbp)
  404f9b:	89 55 e8             	mov    %edx,-0x18(%rbp)
  404f9e:	48 8b 45 e0          	mov    -0x20(%rbp),%rax
  404fa2:	48 89 c7             	mov    %rax,%rdi
  404fa5:	e8 c6 df ff ff       	callq  402f70 <strlen@plt>
  404faa:	48 83 c0 06          	add    $0x6,%rax
  404fae:	48 89 c7             	mov    %rax,%rdi
  404fb1:	e8 5a e1 ff ff       	callq  403110 <_Znam@plt>
  404fb6:	48 89 45 f8          	mov    %rax,-0x8(%rbp)
  404fba:	48 8b 55 e0          	mov    -0x20(%rbp),%rdx
  404fbe:	48 8b 45 f8          	mov    -0x8(%rbp),%rax
  404fc2:	be 20 91 40 00       	mov    $0x409120,%esi
  404fc7:	48 89 c7             	mov    %rax,%rdi
  404fca:	b8 00 00 00 00       	mov    $0x0,%eax
  404fcf:	e8 dc dd ff ff       	callq  402db0 <sprintf@plt>
  404fd4:	8b 55 e8             	mov    -0x18(%rbp),%edx
  404fd7:	48 8b 4d f8          	mov    -0x8(%rbp),%rcx
  404fdb:	8b 45 ec             	mov    -0x14(%rbp),%eax
  404fde:	48 89 ce             	mov    %rcx,%rsi
  404fe1:	89 c7                	mov    %eax,%edi
  404fe3:	e8 98 df ff ff       	callq  402f80 <xopenme_add_var_i@plt>
  404fe8:	48 83 7d f8 00       	cmpq   $0x0,-0x8(%rbp)
  404fed:	74 0c                	je     404ffb <_ZN2CK13store_value_iEiPKci+0x6f>
  404fef:	48 8b 45 f8          	mov    -0x8(%rbp),%rax
  404ff3:	48 89 c7             	mov    %rax,%rdi
  404ff6:	e8 55 df ff ff       	callq  402f50 <_ZdaPv@plt>
  404ffb:	90                   	nop
  404ffc:	c9                   	leaveq 
  404ffd:	c3                   	retq   

0000000000404ffe <_ZN2CK13store_value_fEiPKcf>:
  404ffe:	55                   	push   %rbp
  404fff:	48 89 e5             	mov    %rsp,%rbp
  405002:	48 83 ec 30          	sub    $0x30,%rsp
  405006:	89 7d ec             	mov    %edi,-0x14(%rbp)
  405009:	48 89 75 e0          	mov    %rsi,-0x20(%rbp)
  40500d:	f3 0f 11 45 e8       	movss  %xmm0,-0x18(%rbp)
  405012:	48 8b 45 e0          	mov    -0x20(%rbp),%rax
  405016:	48 89 c7             	mov    %rax,%rdi
  405019:	e8 52 df ff ff       	callq  402f70 <strlen@plt>
  40501e:	48 83 c0 06          	add    $0x6,%rax
  405022:	48 89 c7             	mov    %rax,%rdi
  405025:	e8 e6 e0 ff ff       	callq  403110 <_Znam@plt>
  40502a:	48 89 45 f8          	mov    %rax,-0x8(%rbp)
  40502e:	48 8b 55 e0          	mov    -0x20(%rbp),%rdx
  405032:	48 8b 45 f8          	mov    -0x8(%rbp),%rax
  405036:	be 29 91 40 00       	mov    $0x409129,%esi
  40503b:	48 89 c7             	mov    %rax,%rdi
  40503e:	b8 00 00 00 00       	mov    $0x0,%eax
  405043:	e8 68 dd ff ff       	callq  402db0 <sprintf@plt>
  405048:	8b 4d e8             	mov    -0x18(%rbp),%ecx
  40504b:	48 8b 55 f8          	mov    -0x8(%rbp),%rdx
  40504f:	8b 45 ec             	mov    -0x14(%rbp),%eax
  405052:	89 4d dc             	mov    %ecx,-0x24(%rbp)
  405055:	f3 0f 10 45 dc       	movss  -0x24(%rbp),%xmm0
  40505a:	48 89 d6             	mov    %rdx,%rsi
  40505d:	89 c7                	mov    %eax,%edi
  40505f:	e8 0c e0 ff ff       	callq  403070 <xopenme_add_var_f@plt>
  405064:	48 83 7d f8 00       	cmpq   $0x0,-0x8(%rbp)
  405069:	74 0c                	je     405077 <_ZN2CK13store_value_fEiPKcf+0x79>
  40506b:	48 8b 45 f8          	mov    -0x8(%rbp),%rax
  40506f:	48 89 c7             	mov    %rax,%rdi
  405072:	e8 d9 de ff ff       	callq  402f50 <_ZdaPv@plt>
  405077:	90                   	nop
  405078:	c9                   	leaveq 
  405079:	c3                   	retq   

000000000040507a <_ZN2CK24get_input_shape_from_envEiiii>:
  40507a:	55                   	push   %rbp
  40507b:	48 89 e5             	mov    %rsp,%rbp
  40507e:	48 83 ec 30          	sub    $0x30,%rsp
  405082:	89 7d dc             	mov    %edi,-0x24(%rbp)
  405085:	89 75 d8             	mov    %esi,-0x28(%rbp)
  405088:	89 55 d4             	mov    %edx,-0x2c(%rbp)
  40508b:	89 4d d0             	mov    %ecx,-0x30(%rbp)
  40508e:	64 48 8b 04 25 28 00 	mov    %fs:0x28,%rax
  405095:	00 00 
  405097:	48 89 45 f8          	mov    %rax,-0x8(%rbp)
  40509b:	31 c0                	xor    %eax,%eax
  40509d:	c7 45 e0 01 00 00 00 	movl   $0x1,-0x20(%rbp)
  4050a4:	c7 45 e4 01 00 00 00 	movl   $0x1,-0x1c(%rbp)
  4050ab:	c7 45 e8 01 00 00 00 	movl   $0x1,-0x18(%rbp)
  4050b2:	c7 45 ec 01 00 00 00 	movl   $0x1,-0x14(%rbp)
  4050b9:	8b 45 dc             	mov    -0x24(%rbp),%eax
  4050bc:	89 c6                	mov    %eax,%esi
  4050be:	bf 32 91 40 00       	mov    $0x409132,%edi
  4050c3:	e8 89 fe ff ff       	callq  404f51 <_ZN2CK8getenv_iEPKci>
  4050c8:	89 45 e0             	mov    %eax,-0x20(%rbp)
  4050cb:	8b 45 d8             	mov    -0x28(%rbp),%eax
  4050ce:	89 c6                	mov    %eax,%esi
  4050d0:	bf 40 91 40 00       	mov    $0x409140,%edi
  4050d5:	e8 77 fe ff ff       	callq  404f51 <_ZN2CK8getenv_iEPKci>
  4050da:	89 45 e4             	mov    %eax,-0x1c(%rbp)
  4050dd:	8b 45 d4             	mov    -0x2c(%rbp),%eax
  4050e0:	89 c6                	mov    %eax,%esi
  4050e2:	bf 4e 91 40 00       	mov    $0x40914e,%edi
  4050e7:	e8 65 fe ff ff       	callq  404f51 <_ZN2CK8getenv_iEPKci>
  4050ec:	89 45 e8             	mov    %eax,-0x18(%rbp)
  4050ef:	8b 45 d0             	mov    -0x30(%rbp),%eax
  4050f2:	89 c6                	mov    %eax,%esi
  4050f4:	bf 5c 91 40 00       	mov    $0x40915c,%edi
  4050f9:	e8 53 fe ff ff       	callq  404f51 <_ZN2CK8getenv_iEPKci>
  4050fe:	89 45 ec             	mov    %eax,-0x14(%rbp)
  405101:	8b 45 e0             	mov    -0x20(%rbp),%eax
  405104:	89 c2                	mov    %eax,%edx
  405106:	be 6a 91 40 00       	mov    $0x40916a,%esi
  40510b:	bf 04 00 00 00       	mov    $0x4,%edi
  405110:	e8 77 fe ff ff       	callq  404f8c <_ZN2CK13store_value_iEiPKci>
  405115:	8b 45 e4             	mov    -0x1c(%rbp),%eax
  405118:	89 c2                	mov    %eax,%edx
  40511a:	be 75 91 40 00       	mov    $0x409175,%esi
  40511f:	bf 05 00 00 00       	mov    $0x5,%edi
  405124:	e8 63 fe ff ff       	callq  404f8c <_ZN2CK13store_value_iEiPKci>
  405129:	8b 45 e8             	mov    -0x18(%rbp),%eax
  40512c:	89 c2                	mov    %eax,%edx
  40512e:	be 80 91 40 00       	mov    $0x409180,%esi
  405133:	bf 06 00 00 00       	mov    $0x6,%edi
  405138:	e8 4f fe ff ff       	callq  404f8c <_ZN2CK13store_value_iEiPKci>
  40513d:	8b 45 ec             	mov    -0x14(%rbp),%eax
  405140:	89 c2                	mov    %eax,%edx
  405142:	be 8b 91 40 00       	mov    $0x40918b,%esi
  405147:	bf 07 00 00 00       	mov    $0x7,%edi
  40514c:	e8 3b fe ff ff       	callq  404f8c <_ZN2CK13store_value_iEiPKci>
  405151:	8b 75 ec             	mov    -0x14(%rbp),%esi
  405154:	8b 4d e8             	mov    -0x18(%rbp),%ecx
  405157:	8b 55 e4             	mov    -0x1c(%rbp),%edx
  40515a:	8b 45 e0             	mov    -0x20(%rbp),%eax
  40515d:	41 89 f0             	mov    %esi,%r8d
  405160:	89 c6                	mov    %eax,%esi
  405162:	bf 98 91 40 00       	mov    $0x409198,%edi
  405167:	b8 00 00 00 00       	mov    $0x0,%eax
  40516c:	e8 7f dc ff ff       	callq  402df0 <printf@plt>
  405171:	48 8b 45 e0          	mov    -0x20(%rbp),%rax
  405175:	48 8b 55 e8          	mov    -0x18(%rbp),%rdx
  405179:	48 8b 4d f8          	mov    -0x8(%rbp),%rcx
  40517d:	64 48 33 0c 25 28 00 	xor    %fs:0x28,%rcx
  405184:	00 00 
  405186:	74 05                	je     40518d <_ZN2CK24get_input_shape_from_envEiiii+0x113>
  405188:	e8 83 db ff ff       	callq  402d10 <__stack_chk_fail@plt>
  40518d:	c9                   	leaveq 
  40518e:	c3                   	retq   

000000000040518f <_ZN2CK12get_random_fEv>:
  40518f:	55                   	push   %rbp
  405190:	48 89 e5             	mov    %rsp,%rbp
  405193:	e8 18 e0 ff ff       	callq  4031b0 <rand@plt>
  405198:	89 c1                	mov    %eax,%ecx
  40519a:	ba 1d da 1b 43       	mov    $0x431bda1d,%edx
  40519f:	89 c8                	mov    %ecx,%eax
  4051a1:	f7 ea                	imul   %edx
  4051a3:	c1 fa 12             	sar    $0x12,%edx
  4051a6:	89 c8                	mov    %ecx,%eax
  4051a8:	c1 f8 1f             	sar    $0x1f,%eax
  4051ab:	29 c2                	sub    %eax,%edx
  4051ad:	89 d0                	mov    %edx,%eax
  4051af:	69 c0 41 42 0f 00    	imul   $0xf4241,%eax,%eax
  4051b5:	29 c1                	sub    %eax,%ecx
  4051b7:	89 c8                	mov    %ecx,%eax
  4051b9:	66 0f ef c0          	pxor   %xmm0,%xmm0
  4051bd:	f3 0f 2a c0          	cvtsi2ss %eax,%xmm0
  4051c1:	f3 0f 10 0d a7 44 00 	movss  0x44a7(%rip),%xmm1        # 409670 <_ZZN2CK2TF16process_metadataERKN10tensorflow11RunMetadataEPKcE19__PRETTY_FUNCTION__+0x50>
  4051c8:	00 
  4051c9:	f3 0f 5e c1          	divss  %xmm1,%xmm0
  4051cd:	5d                   	pop    %rbp
  4051ce:	c3                   	retq   

00000000004051cf <_ZN2CK9init_testEv>:
  4051cf:	55                   	push   %rbp
  4051d0:	48 89 e5             	mov    %rsp,%rbp
  4051d3:	48 83 ec 10          	sub    $0x10,%rsp
  4051d7:	be 0c 00 00 00       	mov    $0xc,%esi
  4051dc:	bf 02 00 00 00       	mov    $0x2,%edi
  4051e1:	e8 3a dd ff ff       	callq  402f20 <xopenme_init@plt>
  4051e6:	be 2a 00 00 00       	mov    $0x2a,%esi
  4051eb:	bf cf 91 40 00       	mov    $0x4091cf,%edi
  4051f0:	e8 5c fd ff ff       	callq  404f51 <_ZN2CK8getenv_iEPKci>
  4051f5:	89 45 fc             	mov    %eax,-0x4(%rbp)
  4051f8:	8b 45 fc             	mov    -0x4(%rbp),%eax
  4051fb:	89 c2                	mov    %eax,%edx
  4051fd:	be d7 91 40 00       	mov    $0x4091d7,%esi
  405202:	bf 08 00 00 00       	mov    $0x8,%edi
  405207:	e8 80 fd ff ff       	callq  404f8c <_ZN2CK13store_value_iEiPKci>
  40520c:	8b 45 fc             	mov    -0x4(%rbp),%eax
  40520f:	89 c7                	mov    %eax,%edi
  405211:	e8 ca dc ff ff       	callq  402ee0 <srand@plt>
  405216:	90                   	nop
  405217:	c9                   	leaveq 
  405218:	c3                   	retq   

0000000000405219 <_ZN2CK11finish_testEv>:
  405219:	55                   	push   %rbp
  40521a:	48 89 e5             	mov    %rsp,%rbp
  40521d:	bf 00 00 00 00       	mov    $0x0,%edi
  405222:	e8 f9 de ff ff       	callq  403120 <xopenme_get_timer@plt>
  405227:	be 00 00 00 00       	mov    $0x0,%esi
  40522c:	bf e0 91 40 00       	mov    $0x4091e0,%edi
  405231:	b8 01 00 00 00       	mov    $0x1,%eax
  405236:	e8 b5 db ff ff       	callq  402df0 <printf@plt>
  40523b:	bf 01 00 00 00       	mov    $0x1,%edi
  405240:	e8 db de ff ff       	callq  403120 <xopenme_get_timer@plt>
  405245:	be 01 00 00 00       	mov    $0x1,%esi
  40524a:	bf f4 91 40 00       	mov    $0x4091f4,%edi
  40524f:	b8 01 00 00 00       	mov    $0x1,%eax
  405254:	e8 97 db ff ff       	callq  402df0 <printf@plt>
  405259:	e8 e2 dd ff ff       	callq  403040 <xopenme_dump_state@plt>
  40525e:	e8 8d dc ff ff       	callq  402ef0 <xopenme_finish@plt>
  405263:	90                   	nop
  405264:	5d                   	pop    %rbp
  405265:	c3                   	retq   

0000000000405266 <_ZN2CK2TF16get_node_time_msERKN10tensorflow9StepStatsEPKc>:
  405266:	55                   	push   %rbp
  405267:	48 89 e5             	mov    %rsp,%rbp
  40526a:	48 83 ec 60          	sub    $0x60,%rsp
  40526e:	48 89 7d a8          	mov    %rdi,-0x58(%rbp)
  405272:	48 89 75 a0          	mov    %rsi,-0x60(%rbp)
  405276:	64 48 8b 04 25 28 00 	mov    %fs:0x28,%rax
  40527d:	00 00 
  40527f:	48 89 45 f8          	mov    %rax,-0x8(%rbp)
  405283:	31 c0                	xor    %eax,%eax
  405285:	48 c7 45 d0 00 00 00 	movq   $0x0,-0x30(%rbp)
  40528c:	00 
  40528d:	48 8b 45 a8          	mov    -0x58(%rbp),%rax
  405291:	48 89 c7             	mov    %rax,%rdi
  405294:	e8 29 fb ff ff       	callq  404dc2 <_ZNK10tensorflow9StepStats9dev_statsEv>
  405299:	48 89 45 d8          	mov    %rax,-0x28(%rbp)
  40529d:	48 8b 45 d8          	mov    -0x28(%rbp),%rax
  4052a1:	48 89 c7             	mov    %rax,%rdi
  4052a4:	e8 43 0b 00 00       	callq  405dec <_ZNK6google8protobuf16RepeatedPtrFieldIN10tensorflow15DeviceStepStatsEE5beginEv>
  4052a9:	48 89 45 b0          	mov    %rax,-0x50(%rbp)
  4052ad:	48 8b 45 d8          	mov    -0x28(%rbp),%rax
  4052b1:	48 89 c7             	mov    %rax,%rdi
  4052b4:	e8 99 0b 00 00       	callq  405e52 <_ZNK6google8protobuf16RepeatedPtrFieldIN10tensorflow15DeviceStepStatsEE3endEv>
  4052b9:	48 89 45 b8          	mov    %rax,-0x48(%rbp)
  4052bd:	48 8d 55 b8          	lea    -0x48(%rbp),%rdx
  4052c1:	48 8d 45 b0          	lea    -0x50(%rbp),%rax
  4052c5:	48 89 d6             	mov    %rdx,%rsi
  4052c8:	48 89 c7             	mov    %rax,%rdi
  4052cb:	e8 04 0c 00 00       	callq  405ed4 <_ZNK6google8protobuf8internal19RepeatedPtrIteratorIKN10tensorflow15DeviceStepStatsEEneERKS6_>
  4052d0:	84 c0                	test   %al,%al
  4052d2:	0f 84 c4 00 00 00    	je     40539c <_ZN2CK2TF16get_node_time_msERKN10tensorflow9StepStatsEPKc+0x136>
  4052d8:	48 8d 45 b0          	lea    -0x50(%rbp),%rax
  4052dc:	48 89 c7             	mov    %rax,%rdi
  4052df:	e8 32 0c 00 00       	callq  405f16 <_ZNK6google8protobuf8internal19RepeatedPtrIteratorIKN10tensorflow15DeviceStepStatsEEdeEv>
  4052e4:	48 89 45 e0          	mov    %rax,-0x20(%rbp)
  4052e8:	48 8b 45 e0          	mov    -0x20(%rbp),%rax
  4052ec:	48 89 c7             	mov    %rax,%rdi
  4052ef:	e8 bc fa ff ff       	callq  404db0 <_ZNK10tensorflow15DeviceStepStats10node_statsEv>
  4052f4:	48 89 45 e8          	mov    %rax,-0x18(%rbp)
  4052f8:	48 8b 45 e8          	mov    -0x18(%rbp),%rax
  4052fc:	48 89 c7             	mov    %rax,%rdi
  4052ff:	e8 26 0c 00 00       	callq  405f2a <_ZNK6google8protobuf16RepeatedPtrFieldIN10tensorflow13NodeExecStatsEE5beginEv>
  405304:	48 89 45 c0          	mov    %rax,-0x40(%rbp)
  405308:	48 8b 45 e8          	mov    -0x18(%rbp),%rax
  40530c:	48 89 c7             	mov    %rax,%rdi
  40530f:	e8 7c 0c 00 00       	callq  405f90 <_ZNK6google8protobuf16RepeatedPtrFieldIN10tensorflow13NodeExecStatsEE3endEv>
  405314:	48 89 45 c8          	mov    %rax,-0x38(%rbp)
  405318:	48 8d 55 c8          	lea    -0x38(%rbp),%rdx
  40531c:	48 8d 45 c0          	lea    -0x40(%rbp),%rax
  405320:	48 89 d6             	mov    %rdx,%rsi
  405323:	48 89 c7             	mov    %rax,%rdi
  405326:	e8 e7 0c 00 00       	callq  406012 <_ZNK6google8protobuf8internal19RepeatedPtrIteratorIKN10tensorflow13NodeExecStatsEEneERKS6_>
  40532b:	84 c0                	test   %al,%al
  40532d:	74 5c                	je     40538b <_ZN2CK2TF16get_node_time_msERKN10tensorflow9StepStatsEPKc+0x125>
  40532f:	48 8d 45 c0          	lea    -0x40(%rbp),%rax
  405333:	48 89 c7             	mov    %rax,%rdi
  405336:	e8 19 0d 00 00       	callq  406054 <_ZNK6google8protobuf8internal19RepeatedPtrIteratorIKN10tensorflow13NodeExecStatsEEdeEv>
  40533b:	48 89 45 f0          	mov    %rax,-0x10(%rbp)
  40533f:	48 8b 45 f0          	mov    -0x10(%rbp),%rax
  405343:	48 89 c7             	mov    %rax,%rdi
  405346:	e8 31 fa ff ff       	callq  404d7c <_ZNK10tensorflow13NodeExecStats9node_nameB5cxx11Ev>
  40534b:	48 89 c1             	mov    %rax,%rcx
  40534e:	48 8b 45 a0          	mov    -0x60(%rbp),%rax
  405352:	ba 00 00 00 00       	mov    $0x0,%edx
  405357:	48 89 c6             	mov    %rax,%rsi
  40535a:	48 89 cf             	mov    %rcx,%rdi
  40535d:	e8 ae db ff ff       	callq  402f10 <_ZNKSt7__cxx1112basic_stringIcSt11char_traitsIcESaIcEE4findEPKcm@plt>
  405362:	48 83 f8 ff          	cmp    $0xffffffffffffffff,%rax
  405366:	0f 95 c0             	setne  %al
  405369:	84 c0                	test   %al,%al
  40536b:	74 10                	je     40537d <_ZN2CK2TF16get_node_time_msERKN10tensorflow9StepStatsEPKc+0x117>
  40536d:	48 8b 45 f0          	mov    -0x10(%rbp),%rax
  405371:	48 89 c7             	mov    %rax,%rdi
  405374:	e8 21 fa ff ff       	callq  404d9a <_ZNK10tensorflow13NodeExecStats18all_end_rel_microsEv>
  405379:	48 01 45 d0          	add    %rax,-0x30(%rbp)
  40537d:	48 8d 45 c0          	lea    -0x40(%rbp),%rax
  405381:	48 89 c7             	mov    %rax,%rdi
  405384:	e8 ab 0c 00 00       	callq  406034 <_ZN6google8protobuf8internal19RepeatedPtrIteratorIKN10tensorflow13NodeExecStatsEEppEv>
  405389:	eb 8d                	jmp    405318 <_ZN2CK2TF16get_node_time_msERKN10tensorflow9StepStatsEPKc+0xb2>
  40538b:	48 8d 45 b0          	lea    -0x50(%rbp),%rax
  40538f:	48 89 c7             	mov    %rax,%rdi
  405392:	e8 5f 0b 00 00       	callq  405ef6 <_ZN6google8protobuf8internal19RepeatedPtrIteratorIKN10tensorflow15DeviceStepStatsEEppEv>
  405397:	e9 21 ff ff ff       	jmpq   4052bd <_ZN2CK2TF16get_node_time_msERKN10tensorflow9StepStatsEPKc+0x57>
  40539c:	66 0f ef c0          	pxor   %xmm0,%xmm0
  4053a0:	f3 48 0f 2a 45 d0    	cvtsi2ssq -0x30(%rbp),%xmm0
  4053a6:	f3 0f 10 0d c6 42 00 	movss  0x42c6(%rip),%xmm1        # 409674 <_ZZN2CK2TF16process_metadataERKN10tensorflow11RunMetadataEPKcE19__PRETTY_FUNCTION__+0x54>
  4053ad:	00 
  4053ae:	f3 0f 5e c1          	divss  %xmm1,%xmm0
  4053b2:	48 8b 45 f8          	mov    -0x8(%rbp),%rax
  4053b6:	64 48 33 04 25 28 00 	xor    %fs:0x28,%rax
  4053bd:	00 00 
  4053bf:	74 05                	je     4053c6 <_ZN2CK2TF16get_node_time_msERKN10tensorflow9StepStatsEPKc+0x160>
  4053c1:	e8 4a d9 ff ff       	callq  402d10 <__stack_chk_fail@plt>
  4053c6:	c9                   	leaveq 
  4053c7:	c3                   	retq   

00000000004053c8 <_ZN2CK2TF14print_all_statERKN10tensorflow9StepStatsE>:
  4053c8:	55                   	push   %rbp
  4053c9:	48 89 e5             	mov    %rsp,%rbp
  4053cc:	53                   	push   %rbx
  4053cd:	48 81 ec 08 01 00 00 	sub    $0x108,%rsp
  4053d4:	48 89 bd f8 fe ff ff 	mov    %rdi,-0x108(%rbp)
  4053db:	64 48 8b 04 25 28 00 	mov    %fs:0x28,%rax
  4053e2:	00 00 
  4053e4:	48 89 45 e8          	mov    %rax,-0x18(%rbp)
  4053e8:	31 c0                	xor    %eax,%eax
  4053ea:	48 8d 85 00 ff ff ff 	lea    -0x100(%rbp),%rax
  4053f1:	48 89 c7             	mov    %rax,%rdi
  4053f4:	e8 59 fa ff ff       	callq  404e52 <_ZN10tensorflow21StatSummarizerOptionsC1Ev>
  4053f9:	48 8d 95 00 ff ff ff 	lea    -0x100(%rbp),%rdx
  405400:	48 8d 85 20 ff ff ff 	lea    -0xe0(%rbp),%rax
  405407:	48 89 d6             	mov    %rdx,%rsi
  40540a:	48 89 c7             	mov    %rax,%rdi
  40540d:	e8 be dd ff ff       	callq  4031d0 <_ZN10tensorflow14StatSummarizerC1ERKNS_21StatSummarizerOptionsE@plt>
  405412:	48 8b 95 f8 fe ff ff 	mov    -0x108(%rbp),%rdx
  405419:	48 8d 85 20 ff ff ff 	lea    -0xe0(%rbp),%rax
  405420:	48 89 d6             	mov    %rdx,%rsi
  405423:	48 89 c7             	mov    %rax,%rdi
  405426:	e8 25 dd ff ff       	callq  403150 <_ZN10tensorflow14StatSummarizer16ProcessStepStatsERKNS_9StepStatsE@plt>
  40542b:	48 8d 85 20 ff ff ff 	lea    -0xe0(%rbp),%rax
  405432:	48 89 c7             	mov    %rax,%rdi
  405435:	e8 86 dc ff ff       	callq  4030c0 <_ZNK10tensorflow14StatSummarizer14PrintStepStatsEv@plt>
  40543a:	48 8d 85 20 ff ff ff 	lea    -0xe0(%rbp),%rax
  405441:	48 89 c7             	mov    %rax,%rdi
  405444:	e8 47 da ff ff       	callq  402e90 <_ZN10tensorflow14StatSummarizerD1Ev@plt>
  405449:	90                   	nop
  40544a:	48 8b 45 e8          	mov    -0x18(%rbp),%rax
  40544e:	64 48 33 04 25 28 00 	xor    %fs:0x28,%rax
  405455:	00 00 
  405457:	74 24                	je     40547d <_ZN2CK2TF14print_all_statERKN10tensorflow9StepStatsE+0xb5>
  405459:	eb 1d                	jmp    405478 <_ZN2CK2TF14print_all_statERKN10tensorflow9StepStatsE+0xb0>
  40545b:	48 89 c3             	mov    %rax,%rbx
  40545e:	48 8d 85 20 ff ff ff 	lea    -0xe0(%rbp),%rax
  405465:	48 89 c7             	mov    %rax,%rdi
  405468:	e8 23 da ff ff       	callq  402e90 <_ZN10tensorflow14StatSummarizerD1Ev@plt>
  40546d:	48 89 d8             	mov    %rbx,%rax
  405470:	48 89 c7             	mov    %rax,%rdi
  405473:	e8 48 db ff ff       	callq  402fc0 <_Unwind_Resume@plt>
  405478:	e8 93 d8 ff ff       	callq  402d10 <__stack_chk_fail@plt>
  40547d:	48 81 c4 08 01 00 00 	add    $0x108,%rsp
  405484:	5b                   	pop    %rbx
  405485:	5d                   	pop    %rbp
  405486:	c3                   	retq   
  405487:	90                   	nop

0000000000405488 <_ZN10tensorflow11TensorShapeC1ESt16initializer_listIxE>:
  405488:	55                   	push   %rbp
  405489:	48 89 e5             	mov    %rsp,%rbp
  40548c:	48 83 ec 20          	sub    $0x20,%rsp
  405490:	48 89 7d f8          	mov    %rdi,-0x8(%rbp)
  405494:	48 89 f0             	mov    %rsi,%rax
  405497:	48 89 d1             	mov    %rdx,%rcx
  40549a:	48 89 ca             	mov    %rcx,%rdx
  40549d:	48 89 45 e0          	mov    %rax,-0x20(%rbp)
  4054a1:	48 89 55 e8          	mov    %rdx,-0x18(%rbp)
  4054a5:	48 8b 45 f8          	mov    -0x8(%rbp),%rax
  4054a9:	48 8b 4d e0          	mov    -0x20(%rbp),%rcx
  4054ad:	48 8b 55 e8          	mov    -0x18(%rbp),%rdx
  4054b1:	48 89 ce             	mov    %rcx,%rsi
  4054b4:	48 89 c7             	mov    %rax,%rdi
  4054b7:	e8 a4 d8 ff ff       	callq  402d60 <_ZN10tensorflow15TensorShapeBaseINS_11TensorShapeEEC2ESt16initializer_listIxE@plt>
  4054bc:	90                   	nop
  4054bd:	c9                   	leaveq 
  4054be:	c3                   	retq   

00000000004054bf <_ZN2CK2TF16process_metadataERKN10tensorflow11RunMetadataEPKc>:
  4054bf:	55                   	push   %rbp
  4054c0:	48 89 e5             	mov    %rsp,%rbp
  4054c3:	48 83 ec 30          	sub    $0x30,%rsp
  4054c7:	48 89 7d e8          	mov    %rdi,-0x18(%rbp)
  4054cb:	48 89 75 e0          	mov    %rsi,-0x20(%rbp)
  4054cf:	48 8b 45 e8          	mov    -0x18(%rbp),%rax
  4054d3:	48 89 c7             	mov    %rax,%rdi
  4054d6:	e8 1d f9 ff ff       	callq  404df8 <_ZNK10tensorflow11RunMetadata14has_step_statsEv>
  4054db:	84 c0                	test   %al,%al
  4054dd:	75 19                	jne    4054f8 <_ZN2CK2TF16process_metadataERKN10tensorflow11RunMetadataEPKc+0x39>
  4054df:	b9 20 96 40 00       	mov    $0x409620,%ecx
  4054e4:	ba 53 00 00 00       	mov    $0x53,%edx
  4054e9:	be 20 92 40 00       	mov    $0x409220,%esi
  4054ee:	bf 80 92 40 00       	mov    $0x409280,%edi
  4054f3:	e8 08 d8 ff ff       	callq  402d00 <__assert_fail@plt>
  4054f8:	48 8b 45 e8          	mov    -0x18(%rbp),%rax
  4054fc:	48 89 c7             	mov    %rax,%rdi
  4054ff:	e8 26 f9 ff ff       	callq  404e2a <_ZNK10tensorflow11RunMetadata10step_statsEv>
  405504:	48 89 45 f8          	mov    %rax,-0x8(%rbp)
  405508:	be 00 00 00 00       	mov    $0x0,%esi
  40550d:	bf 9e 92 40 00       	mov    $0x40929e,%edi
  405512:	e8 3a fa ff ff       	callq  404f51 <_ZN2CK8getenv_iEPKci>
  405517:	85 c0                	test   %eax,%eax
  405519:	0f 95 c0             	setne  %al
  40551c:	84 c0                	test   %al,%al
  40551e:	74 0c                	je     40552c <_ZN2CK2TF16process_metadataERKN10tensorflow11RunMetadataEPKc+0x6d>
  405520:	48 8b 45 f8          	mov    -0x8(%rbp),%rax
  405524:	48 89 c7             	mov    %rax,%rdi
  405527:	e8 9c fe ff ff       	callq  4053c8 <_ZN2CK2TF14print_all_statERKN10tensorflow9StepStatsE>
  40552c:	48 8b 55 e0          	mov    -0x20(%rbp),%rdx
  405530:	48 8b 45 f8          	mov    -0x8(%rbp),%rax
  405534:	48 89 d6             	mov    %rdx,%rsi
  405537:	48 89 c7             	mov    %rax,%rdi
  40553a:	e8 27 fd ff ff       	callq  405266 <_ZN2CK2TF16get_node_time_msERKN10tensorflow9StepStatsEPKc>
  40553f:	66 0f 7e c0          	movd   %xmm0,%eax
  405543:	89 45 f4             	mov    %eax,-0xc(%rbp)
  405546:	f3 0f 5a 45 f4       	cvtss2sd -0xc(%rbp),%xmm0
  40554b:	48 8b 45 e0          	mov    -0x20(%rbp),%rax
  40554f:	48 89 c6             	mov    %rax,%rsi
  405552:	bf b0 92 40 00       	mov    $0x4092b0,%edi
  405557:	b8 01 00 00 00       	mov    $0x1,%eax
  40555c:	e8 8f d8 ff ff       	callq  402df0 <printf@plt>
  405561:	8b 45 f4             	mov    -0xc(%rbp),%eax
  405564:	89 45 dc             	mov    %eax,-0x24(%rbp)
  405567:	f3 0f 10 45 dc       	movss  -0x24(%rbp),%xmm0
  40556c:	e8 04 de ff ff       	callq  403375 <_ZN2CK15store_test_timeEf>
  405571:	90                   	nop
  405572:	c9                   	leaveq 
  405573:	c3                   	retq   

0000000000405574 <_ZNK10tensorflow3ops7ReshapecvNS_6OutputEEv>:
  405574:	55                   	push   %rbp
  405575:	48 89 e5             	mov    %rsp,%rbp
  405578:	48 83 ec 10          	sub    $0x10,%rsp
  40557c:	48 89 7d f8          	mov    %rdi,-0x8(%rbp)
  405580:	48 89 75 f0          	mov    %rsi,-0x10(%rbp)
  405584:	48 8b 55 f0          	mov    -0x10(%rbp),%rdx
  405588:	48 8b 45 f8          	mov    -0x8(%rbp),%rax
  40558c:	48 89 d6             	mov    %rdx,%rsi
  40558f:	48 89 c7             	mov    %rax,%rdi
  405592:	e8 7f f4 ff ff       	callq  404a16 <_ZN10tensorflow6OutputC1ERKS0_>
  405597:	48 8b 45 f8          	mov    -0x8(%rbp),%rax
  40559b:	c9                   	leaveq 
  40559c:	c3                   	retq   
  40559d:	90                   	nop

000000000040559e <_ZNK10tensorflow3ops5ShapecvNS_5InputEEv>:
  40559e:	55                   	push   %rbp
  40559f:	48 89 e5             	mov    %rsp,%rbp
  4055a2:	48 83 ec 10          	sub    $0x10,%rsp
  4055a6:	48 89 7d f8          	mov    %rdi,-0x8(%rbp)
  4055aa:	48 89 75 f0          	mov    %rsi,-0x10(%rbp)
  4055ae:	48 8b 55 f0          	mov    -0x10(%rbp),%rdx
  4055b2:	48 8b 45 f8          	mov    -0x8(%rbp),%rax
  4055b6:	48 89 d6             	mov    %rdx,%rsi
  4055b9:	48 89 c7             	mov    %rax,%rdi
  4055bc:	e8 89 f4 ff ff       	callq  404a4a <_ZN10tensorflow5InputC1ERKNS_6OutputE>
  4055c1:	48 8b 45 f8          	mov    -0x8(%rbp),%rax
  4055c5:	c9                   	leaveq 
  4055c6:	c3                   	retq   
  4055c7:	90                   	nop

00000000004055c8 <_ZN10tensorflow3ops5ShapeD1Ev>:
  4055c8:	55                   	push   %rbp
  4055c9:	48 89 e5             	mov    %rsp,%rbp
  4055cc:	48 83 ec 10          	sub    $0x10,%rsp
  4055d0:	48 89 7d f8          	mov    %rdi,-0x8(%rbp)
  4055d4:	48 8b 45 f8          	mov    -0x8(%rbp),%rax
  4055d8:	48 89 c7             	mov    %rax,%rdi
  4055db:	e8 1a f4 ff ff       	callq  4049fa <_ZN10tensorflow6OutputD1Ev>
  4055e0:	90                   	nop
  4055e1:	c9                   	leaveq 
  4055e2:	c3                   	retq   
  4055e3:	90                   	nop

00000000004055e4 <_ZN10tensorflow3ops7ReshapeD1Ev>:
  4055e4:	55                   	push   %rbp
  4055e5:	48 89 e5             	mov    %rsp,%rbp
  4055e8:	48 83 ec 10          	sub    $0x10,%rsp
  4055ec:	48 89 7d f8          	mov    %rdi,-0x8(%rbp)
  4055f0:	48 8b 45 f8          	mov    -0x8(%rbp),%rax
  4055f4:	48 89 c7             	mov    %rax,%rdi
  4055f7:	e8 fe f3 ff ff       	callq  4049fa <_ZN10tensorflow6OutputD1Ev>
  4055fc:	90                   	nop
  4055fd:	c9                   	leaveq 
  4055fe:	c3                   	retq   
  4055ff:	90                   	nop

0000000000405600 <_ZNSt8__detail10_Select1stC1Ev>:
  405600:	55                   	push   %rbp
  405601:	48 89 e5             	mov    %rsp,%rbp
  405604:	48 89 7d f8          	mov    %rdi,-0x8(%rbp)
  405608:	90                   	nop
  405609:	5d                   	pop    %rbp
  40560a:	c3                   	retq   
  40560b:	90                   	nop

000000000040560c <_ZNSt8__detail21_Hashtable_ebo_helperILi0ENS_10_Select1stELb1EEC1Ev>:
  40560c:	55                   	push   %rbp
  40560d:	48 89 e5             	mov    %rsp,%rbp
  405610:	48 83 ec 10          	sub    $0x10,%rsp
  405614:	48 89 7d f8          	mov    %rdi,-0x8(%rbp)
  405618:	48 8b 45 f8          	mov    -0x8(%rbp),%rax
  40561c:	48 89 c7             	mov    %rax,%rdi
  40561f:	e8 dc ff ff ff       	callq  405600 <_ZNSt8__detail10_Select1stC1Ev>
  405624:	90                   	nop
  405625:	c9                   	leaveq 
  405626:	c3                   	retq   
  405627:	90                   	nop

0000000000405628 <_ZN10tensorflow10OutputHashC1Ev>:
  405628:	55                   	push   %rbp
  405629:	48 89 e5             	mov    %rsp,%rbp
  40562c:	48 89 7d f8          	mov    %rdi,-0x8(%rbp)
  405630:	90                   	nop
  405631:	5d                   	pop    %rbp
  405632:	c3                   	retq   
  405633:	90                   	nop

0000000000405634 <_ZNSt8__detail21_Hashtable_ebo_helperILi1EN10tensorflow10OutputHashELb1EEC1Ev>:
  405634:	55                   	push   %rbp
  405635:	48 89 e5             	mov    %rsp,%rbp
  405638:	48 83 ec 10          	sub    $0x10,%rsp
  40563c:	48 89 7d f8          	mov    %rdi,-0x8(%rbp)
  405640:	48 8b 45 f8          	mov    -0x8(%rbp),%rax
  405644:	48 89 c7             	mov    %rax,%rdi
  405647:	e8 dc ff ff ff       	callq  405628 <_ZN10tensorflow10OutputHashC1Ev>
  40564c:	90                   	nop
  40564d:	c9                   	leaveq 
  40564e:	c3                   	retq   
  40564f:	90                   	nop

0000000000405650 <_ZNSt8__detail18_Mod_range_hashingC1Ev>:
  405650:	55                   	push   %rbp
  405651:	48 89 e5             	mov    %rsp,%rbp
  405654:	48 89 7d f8          	mov    %rdi,-0x8(%rbp)
  405658:	90                   	nop
  405659:	5d                   	pop    %rbp
  40565a:	c3                   	retq   
  40565b:	90                   	nop

000000000040565c <_ZNSt8__detail21_Hashtable_ebo_helperILi2ENS_18_Mod_range_hashingELb1EEC1Ev>:
  40565c:	55                   	push   %rbp
  40565d:	48 89 e5             	mov    %rsp,%rbp
  405660:	48 83 ec 10          	sub    $0x10,%rsp
  405664:	48 89 7d f8          	mov    %rdi,-0x8(%rbp)
  405668:	48 8b 45 f8          	mov    -0x8(%rbp),%rax
  40566c:	48 89 c7             	mov    %rax,%rdi
  40566f:	e8 dc ff ff ff       	callq  405650 <_ZNSt8__detail18_Mod_range_hashingC1Ev>
  405674:	90                   	nop
  405675:	c9                   	leaveq 
  405676:	c3                   	retq   
  405677:	90                   	nop

0000000000405678 <_ZNSt8__detail15_Hash_code_baseIN10tensorflow6OutputESt4pairIKS2_NS1_5Input11InitializerEENS_10_Select1stENS1_10OutputHashENS_18_Mod_range_hashingENS_20_Default_ranged_hashELb1EEC1Ev>:
  405678:	55                   	push   %rbp
  405679:	48 89 e5             	mov    %rsp,%rbp
  40567c:	48 83 ec 10          	sub    $0x10,%rsp
  405680:	48 89 7d f8          	mov    %rdi,-0x8(%rbp)
  405684:	48 8b 45 f8          	mov    -0x8(%rbp),%rax
  405688:	48 89 c7             	mov    %rax,%rdi
  40568b:	e8 7c ff ff ff       	callq  40560c <_ZNSt8__detail21_Hashtable_ebo_helperILi0ENS_10_Select1stELb1EEC1Ev>
  405690:	48 8b 45 f8          	mov    -0x8(%rbp),%rax
  405694:	48 89 c7             	mov    %rax,%rdi
  405697:	e8 98 ff ff ff       	callq  405634 <_ZNSt8__detail21_Hashtable_ebo_helperILi1EN10tensorflow10OutputHashELb1EEC1Ev>
  40569c:	48 8b 45 f8          	mov    -0x8(%rbp),%rax
  4056a0:	48 89 c7             	mov    %rax,%rdi
  4056a3:	e8 b4 ff ff ff       	callq  40565c <_ZNSt8__detail21_Hashtable_ebo_helperILi2ENS_18_Mod_range_hashingELb1EEC1Ev>
  4056a8:	90                   	nop
  4056a9:	c9                   	leaveq 
  4056aa:	c3                   	retq   
  4056ab:	90                   	nop

00000000004056ac <_ZNSt15binary_functionIN10tensorflow6OutputES1_bEC1Ev>:
  4056ac:	55                   	push   %rbp
  4056ad:	48 89 e5             	mov    %rsp,%rbp
  4056b0:	48 89 7d f8          	mov    %rdi,-0x8(%rbp)
  4056b4:	90                   	nop
  4056b5:	5d                   	pop    %rbp
  4056b6:	c3                   	retq   
  4056b7:	90                   	nop

00000000004056b8 <_ZNSt8equal_toIN10tensorflow6OutputEEC1Ev>:
  4056b8:	55                   	push   %rbp
  4056b9:	48 89 e5             	mov    %rsp,%rbp
  4056bc:	48 83 ec 10          	sub    $0x10,%rsp
  4056c0:	48 89 7d f8          	mov    %rdi,-0x8(%rbp)
  4056c4:	48 8b 45 f8          	mov    -0x8(%rbp),%rax
  4056c8:	48 89 c7             	mov    %rax,%rdi
  4056cb:	e8 dc ff ff ff       	callq  4056ac <_ZNSt15binary_functionIN10tensorflow6OutputES1_bEC1Ev>
  4056d0:	90                   	nop
  4056d1:	c9                   	leaveq 
  4056d2:	c3                   	retq   
  4056d3:	90                   	nop

00000000004056d4 <_ZNSt8__detail21_Hashtable_ebo_helperILi0ESt8equal_toIN10tensorflow6OutputEELb1EEC1Ev>:
  4056d4:	55                   	push   %rbp
  4056d5:	48 89 e5             	mov    %rsp,%rbp
  4056d8:	48 83 ec 10          	sub    $0x10,%rsp
  4056dc:	48 89 7d f8          	mov    %rdi,-0x8(%rbp)
  4056e0:	48 8b 45 f8          	mov    -0x8(%rbp),%rax
  4056e4:	48 89 c7             	mov    %rax,%rdi
  4056e7:	e8 cc ff ff ff       	callq  4056b8 <_ZNSt8equal_toIN10tensorflow6OutputEEC1Ev>
  4056ec:	90                   	nop
  4056ed:	c9                   	leaveq 
  4056ee:	c3                   	retq   
  4056ef:	90                   	nop

00000000004056f0 <_ZNSt8__detail15_Hashtable_baseIN10tensorflow6OutputESt4pairIKS2_NS1_5Input11InitializerEENS_10_Select1stESt8equal_toIS2_ENS1_10OutputHashENS_18_Mod_range_hashingENS_20_Default_ranged_hashENS_17_Hashtable_traitsILb1ELb0ELb1EEEEC1Ev>:
  4056f0:	55                   	push   %rbp
  4056f1:	48 89 e5             	mov    %rsp,%rbp
  4056f4:	48 83 ec 10          	sub    $0x10,%rsp
  4056f8:	48 89 7d f8          	mov    %rdi,-0x8(%rbp)
  4056fc:	48 8b 45 f8          	mov    -0x8(%rbp),%rax
  405700:	48 89 c7             	mov    %rax,%rdi
  405703:	e8 70 ff ff ff       	callq  405678 <_ZNSt8__detail15_Hash_code_baseIN10tensorflow6OutputESt4pairIKS2_NS1_5Input11InitializerEENS_10_Select1stENS1_10OutputHashENS_18_Mod_range_hashingENS_20_Default_ranged_hashELb1EEC1Ev>
  405708:	48 8b 45 f8          	mov    -0x8(%rbp),%rax
  40570c:	48 89 c7             	mov    %rax,%rdi
  40570f:	e8 c0 ff ff ff       	callq  4056d4 <_ZNSt8__detail21_Hashtable_ebo_helperILi0ESt8equal_toIN10tensorflow6OutputEELb1EEC1Ev>
  405714:	90                   	nop
  405715:	c9                   	leaveq 
  405716:	c3                   	retq   
  405717:	90                   	nop

0000000000405718 <_ZNSt8__detail9_Map_baseIN10tensorflow6OutputESt4pairIKS2_NS1_5Input11InitializerEESaIS7_ENS_10_Select1stESt8equal_toIS2_ENS1_10OutputHashENS_18_Mod_range_hashingENS_20_Default_ranged_hashENS_20_Prime_rehash_policyENS_17_Hashtable_traitsILb1ELb0ELb1EEELb1EEC1Ev>:
  405718:	55                   	push   %rbp
  405719:	48 89 e5             	mov    %rsp,%rbp
  40571c:	48 89 7d f8          	mov    %rdi,-0x8(%rbp)
  405720:	90                   	nop
  405721:	5d                   	pop    %rbp
  405722:	c3                   	retq   
  405723:	90                   	nop

0000000000405724 <_ZNSt8__detail12_Insert_baseIN10tensorflow6OutputESt4pairIKS2_NS1_5Input11InitializerEESaIS7_ENS_10_Select1stESt8equal_toIS2_ENS1_10OutputHashENS_18_Mod_range_hashingENS_20_Default_ranged_hashENS_20_Prime_rehash_policyENS_17_Hashtable_traitsILb1ELb0ELb1EEEEC1Ev>:
  405724:	55                   	push   %rbp
  405725:	48 89 e5             	mov    %rsp,%rbp
  405728:	48 89 7d f8          	mov    %rdi,-0x8(%rbp)
  40572c:	90                   	nop
  40572d:	5d                   	pop    %rbp
  40572e:	c3                   	retq   
  40572f:	90                   	nop

0000000000405730 <_ZNSt8__detail7_InsertIN10tensorflow6OutputESt4pairIKS2_NS1_5Input11InitializerEESaIS7_ENS_10_Select1stESt8equal_toIS2_ENS1_10OutputHashENS_18_Mod_range_hashingENS_20_Default_ranged_hashENS_20_Prime_rehash_policyENS_17_Hashtable_traitsILb1ELb0ELb1EEELb0ELb1EEC1Ev>:
  405730:	55                   	push   %rbp
  405731:	48 89 e5             	mov    %rsp,%rbp
  405734:	48 83 ec 10          	sub    $0x10,%rsp
  405738:	48 89 7d f8          	mov    %rdi,-0x8(%rbp)
  40573c:	48 8b 45 f8          	mov    -0x8(%rbp),%rax
  405740:	48 89 c7             	mov    %rax,%rdi
  405743:	e8 dc ff ff ff       	callq  405724 <_ZNSt8__detail12_Insert_baseIN10tensorflow6OutputESt4pairIKS2_NS1_5Input11InitializerEESaIS7_ENS_10_Select1stESt8equal_toIS2_ENS1_10OutputHashENS_18_Mod_range_hashingENS_20_Default_ranged_hashENS_20_Prime_rehash_policyENS_17_Hashtable_traitsILb1ELb0ELb1EEEEC1Ev>
  405748:	90                   	nop
  405749:	c9                   	leaveq 
  40574a:	c3                   	retq   
  40574b:	90                   	nop

000000000040574c <_ZNSt8__detail12_Rehash_baseIN10tensorflow6OutputESt4pairIKS2_NS1_5Input11InitializerEESaIS7_ENS_10_Select1stESt8equal_toIS2_ENS1_10OutputHashENS_18_Mod_range_hashingENS_20_Default_ranged_hashENS_20_Prime_rehash_policyENS_17_Hashtable_traitsILb1ELb0ELb1EEEEC1Ev>:
  40574c:	55                   	push   %rbp
  40574d:	48 89 e5             	mov    %rsp,%rbp
  405750:	48 89 7d f8          	mov    %rdi,-0x8(%rbp)
  405754:	90                   	nop
  405755:	5d                   	pop    %rbp
  405756:	c3                   	retq   
  405757:	90                   	nop

0000000000405758 <_ZNSt8__detail9_EqualityIN10tensorflow6OutputESt4pairIKS2_NS1_5Input11InitializerEESaIS7_ENS_10_Select1stESt8equal_toIS2_ENS1_10OutputHashENS_18_Mod_range_hashingENS_20_Default_ranged_hashENS_20_Prime_rehash_policyENS_17_Hashtable_traitsILb1ELb0ELb1EEELb1EEC1Ev>:
  405758:	55                   	push   %rbp
  405759:	48 89 e5             	mov    %rsp,%rbp
  40575c:	48 89 7d f8          	mov    %rdi,-0x8(%rbp)
  405760:	90                   	nop
  405761:	5d                   	pop    %rbp
  405762:	c3                   	retq   
  405763:	90                   	nop

0000000000405764 <_ZNSt8__detail21_Hashtable_ebo_helperILi0ESaINS_10_Hash_nodeISt4pairIKN10tensorflow6OutputENS3_5Input11InitializerEELb1EEEELb1EEC1Ev>:
  405764:	55                   	push   %rbp
  405765:	48 89 e5             	mov    %rsp,%rbp
  405768:	48 83 ec 10          	sub    $0x10,%rsp
  40576c:	48 89 7d f8          	mov    %rdi,-0x8(%rbp)
  405770:	48 8b 45 f8          	mov    -0x8(%rbp),%rax
  405774:	48 89 c7             	mov    %rax,%rdi
  405777:	e8 54 0c 00 00       	callq  4063d0 <_ZNSaINSt8__detail10_Hash_nodeISt4pairIKN10tensorflow6OutputENS2_5Input11InitializerEELb1EEEEC1Ev>
  40577c:	90                   	nop
  40577d:	c9                   	leaveq 
  40577e:	c3                   	retq   
  40577f:	90                   	nop

0000000000405780 <_ZNSt8__detail21_Hashtable_ebo_helperILi0ESaINS_10_Hash_nodeISt4pairIKN10tensorflow6OutputENS3_5Input11InitializerEELb1EEEELb1EED1Ev>:
  405780:	55                   	push   %rbp
  405781:	48 89 e5             	mov    %rsp,%rbp
  405784:	48 83 ec 10          	sub    $0x10,%rsp
  405788:	48 89 7d f8          	mov    %rdi,-0x8(%rbp)
  40578c:	48 8b 45 f8          	mov    -0x8(%rbp),%rax
  405790:	48 89 c7             	mov    %rax,%rdi
  405793:	e8 54 0c 00 00       	callq  4063ec <_ZNSaINSt8__detail10_Hash_nodeISt4pairIKN10tensorflow6OutputENS2_5Input11InitializerEELb1EEEED1Ev>
  405798:	90                   	nop
  405799:	c9                   	leaveq 
  40579a:	c3                   	retq   
  40579b:	90                   	nop

000000000040579c <_ZNSt8__detail16_Hashtable_allocISaINS_10_Hash_nodeISt4pairIKN10tensorflow6OutputENS3_5Input11InitializerEELb1EEEEEC1Ev>:
  40579c:	55                   	push   %rbp
  40579d:	48 89 e5             	mov    %rsp,%rbp
  4057a0:	48 83 ec 10          	sub    $0x10,%rsp
  4057a4:	48 89 7d f8          	mov    %rdi,-0x8(%rbp)
  4057a8:	48 8b 45 f8          	mov    -0x8(%rbp),%rax
  4057ac:	48 89 c7             	mov    %rax,%rdi
  4057af:	e8 b0 ff ff ff       	callq  405764 <_ZNSt8__detail21_Hashtable_ebo_helperILi0ESaINS_10_Hash_nodeISt4pairIKN10tensorflow6OutputENS3_5Input11InitializerEELb1EEEELb1EEC1Ev>
  4057b4:	90                   	nop
  4057b5:	c9                   	leaveq 
  4057b6:	c3                   	retq   
  4057b7:	90                   	nop

00000000004057b8 <_ZNSt8__detail16_Hashtable_allocISaINS_10_Hash_nodeISt4pairIKN10tensorflow6OutputENS3_5Input11InitializerEELb1EEEEED1Ev>:
  4057b8:	55                   	push   %rbp
  4057b9:	48 89 e5             	mov    %rsp,%rbp
  4057bc:	48 83 ec 10          	sub    $0x10,%rsp
  4057c0:	48 89 7d f8          	mov    %rdi,-0x8(%rbp)
  4057c4:	48 8b 45 f8          	mov    -0x8(%rbp),%rax
  4057c8:	48 89 c7             	mov    %rax,%rdi
  4057cb:	e8 b0 ff ff ff       	callq  405780 <_ZNSt8__detail21_Hashtable_ebo_helperILi0ESaINS_10_Hash_nodeISt4pairIKN10tensorflow6OutputENS3_5Input11InitializerEELb1EEEELb1EED1Ev>
  4057d0:	90                   	nop
  4057d1:	c9                   	leaveq 
  4057d2:	c3                   	retq   
  4057d3:	90                   	nop

00000000004057d4 <_ZNSt10_HashtableIN10tensorflow6OutputESt4pairIKS1_NS0_5Input11InitializerEESaIS6_ENSt8__detail10_Select1stESt8equal_toIS1_ENS0_10OutputHashENS8_18_Mod_range_hashingENS8_20_Default_ranged_hashENS8_20_Prime_rehash_policyENS8_17_Hashtable_traitsILb1ELb0ELb1EEEEC1Ev>:
  4057d4:	55                   	push   %rbp
  4057d5:	48 89 e5             	mov    %rsp,%rbp
  4057d8:	48 83 ec 10          	sub    $0x10,%rsp
  4057dc:	48 89 7d f8          	mov    %rdi,-0x8(%rbp)
  4057e0:	48 8b 45 f8          	mov    -0x8(%rbp),%rax
  4057e4:	48 89 c7             	mov    %rax,%rdi
  4057e7:	e8 04 ff ff ff       	callq  4056f0 <_ZNSt8__detail15_Hashtable_baseIN10tensorflow6OutputESt4pairIKS2_NS1_5Input11InitializerEENS_10_Select1stESt8equal_toIS2_ENS1_10OutputHashENS_18_Mod_range_hashingENS_20_Default_ranged_hashENS_17_Hashtable_traitsILb1ELb0ELb1EEEEC1Ev>
  4057ec:	48 8b 45 f8          	mov    -0x8(%rbp),%rax
  4057f0:	48 89 c7             	mov    %rax,%rdi
  4057f3:	e8 20 ff ff ff       	callq  405718 <_ZNSt8__detail9_Map_baseIN10tensorflow6OutputESt4pairIKS2_NS1_5Input11InitializerEESaIS7_ENS_10_Select1stESt8equal_toIS2_ENS1_10OutputHashENS_18_Mod_range_hashingENS_20_Default_ranged_hashENS_20_Prime_rehash_policyENS_17_Hashtable_traitsILb1ELb0ELb1EEELb1EEC1Ev>
  4057f8:	48 8b 45 f8          	mov    -0x8(%rbp),%rax
  4057fc:	48 89 c7             	mov    %rax,%rdi
  4057ff:	e8 2c ff ff ff       	callq  405730 <_ZNSt8__detail7_InsertIN10tensorflow6OutputESt4pairIKS2_NS1_5Input11InitializerEESaIS7_ENS_10_Select1stESt8equal_toIS2_ENS1_10OutputHashENS_18_Mod_range_hashingENS_20_Default_ranged_hashENS_20_Prime_rehash_policyENS_17_Hashtable_traitsILb1ELb0ELb1EEELb0ELb1EEC1Ev>
  405804:	48 8b 45 f8          	mov    -0x8(%rbp),%rax
  405808:	48 89 c7             	mov    %rax,%rdi
  40580b:	e8 3c ff ff ff       	callq  40574c <_ZNSt8__detail12_Rehash_baseIN10tensorflow6OutputESt4pairIKS2_NS1_5Input11InitializerEESaIS7_ENS_10_Select1stESt8equal_toIS2_ENS1_10OutputHashENS_18_Mod_range_hashingENS_20_Default_ranged_hashENS_20_Prime_rehash_policyENS_17_Hashtable_traitsILb1ELb0ELb1EEEEC1Ev>
  405810:	48 8b 45 f8          	mov    -0x8(%rbp),%rax
  405814:	48 89 c7             	mov    %rax,%rdi
  405817:	e8 3c ff ff ff       	callq  405758 <_ZNSt8__detail9_EqualityIN10tensorflow6OutputESt4pairIKS2_NS1_5Input11InitializerEESaIS7_ENS_10_Select1stESt8equal_toIS2_ENS1_10OutputHashENS_18_Mod_range_hashingENS_20_Default_ranged_hashENS_20_Prime_rehash_policyENS_17_Hashtable_traitsILb1ELb0ELb1EEELb1EEC1Ev>
  40581c:	48 8b 45 f8          	mov    -0x8(%rbp),%rax
  405820:	48 89 c7             	mov    %rax,%rdi
  405823:	e8 74 ff ff ff       	callq  40579c <_ZNSt8__detail16_Hashtable_allocISaINS_10_Hash_nodeISt4pairIKN10tensorflow6OutputENS3_5Input11InitializerEELb1EEEEEC1Ev>
  405828:	48 8b 45 f8          	mov    -0x8(%rbp),%rax
  40582c:	48 8d 50 30          	lea    0x30(%rax),%rdx
  405830:	48 8b 45 f8          	mov    -0x8(%rbp),%rax
  405834:	48 89 10             	mov    %rdx,(%rax)
  405837:	48 8b 45 f8          	mov    -0x8(%rbp),%rax
  40583b:	48 c7 40 08 01 00 00 	movq   $0x1,0x8(%rax)
  405842:	00 
  405843:	48 8b 45 f8          	mov    -0x8(%rbp),%rax
  405847:	48 83 c0 10          	add    $0x10,%rax
  40584b:	48 89 c7             	mov    %rax,%rdi
  40584e:	e8 f9 e7 ff ff       	callq  40404c <_ZNSt8__detail15_Hash_node_baseC1Ev>
  405853:	48 8b 45 f8          	mov    -0x8(%rbp),%rax
  405857:	48 c7 40 18 00 00 00 	movq   $0x0,0x18(%rax)
  40585e:	00 
  40585f:	48 8b 45 f8          	mov    -0x8(%rbp),%rax
  405863:	48 83 c0 20          	add    $0x20,%rax
  405867:	f3 0f 10 05 09 3e 00 	movss  0x3e09(%rip),%xmm0        # 409678 <_ZZN2CK2TF16process_metadataERKN10tensorflow11RunMetadataEPKcE19__PRETTY_FUNCTION__+0x58>
  40586e:	00 
  40586f:	48 89 c7             	mov    %rax,%rdi
  405872:	e8 eb e7 ff ff       	callq  404062 <_ZNSt8__detail20_Prime_rehash_policyC1Ef>
  405877:	48 8b 45 f8          	mov    -0x8(%rbp),%rax
  40587b:	48 c7 40 30 00 00 00 	movq   $0x0,0x30(%rax)
  405882:	00 
  405883:	90                   	nop
  405884:	c9                   	leaveq 
  405885:	c3                   	retq   

0000000000405886 <_ZNSt13unordered_mapIN10tensorflow6OutputENS0_5Input11InitializerENS0_10OutputHashESt8equal_toIS1_ESaISt4pairIKS1_S3_EEEC1Ev>:
  405886:	55                   	push   %rbp
  405887:	48 89 e5             	mov    %rsp,%rbp
  40588a:	48 83 ec 10          	sub    $0x10,%rsp
  40588e:	48 89 7d f8          	mov    %rdi,-0x8(%rbp)
  405892:	48 8b 45 f8          	mov    -0x8(%rbp),%rax
  405896:	48 89 c7             	mov    %rax,%rdi
  405899:	e8 36 ff ff ff       	callq  4057d4 <_ZNSt10_HashtableIN10tensorflow6OutputESt4pairIKS1_NS0_5Input11InitializerEESaIS6_ENSt8__detail10_Select1stESt8equal_toIS1_ENS0_10OutputHashENS8_18_Mod_range_hashingENS8_20_Default_ranged_hashENS8_20_Prime_rehash_policyENS8_17_Hashtable_traitsILb1ELb0ELb1EEEEC1Ev>
  40589e:	90                   	nop
  40589f:	c9                   	leaveq 
  4058a0:	c3                   	retq   
  4058a1:	90                   	nop

00000000004058a2 <_ZNSt13unordered_mapIN10tensorflow6OutputENS0_5Input11InitializerENS0_10OutputHashESt8equal_toIS1_ESaISt4pairIKS1_S3_EEED1Ev>:
  4058a2:	55                   	push   %rbp
  4058a3:	48 89 e5             	mov    %rsp,%rbp
  4058a6:	48 83 ec 10          	sub    $0x10,%rsp
  4058aa:	48 89 7d f8          	mov    %rdi,-0x8(%rbp)
  4058ae:	48 8b 45 f8          	mov    -0x8(%rbp),%rax
  4058b2:	48 89 c7             	mov    %rax,%rdi
  4058b5:	e8 4e 0b 00 00       	callq  406408 <_ZNSt10_HashtableIN10tensorflow6OutputESt4pairIKS1_NS0_5Input11InitializerEESaIS6_ENSt8__detail10_Select1stESt8equal_toIS1_ENS0_10OutputHashENS8_18_Mod_range_hashingENS8_20_Default_ranged_hashENS8_20_Prime_rehash_policyENS8_17_Hashtable_traitsILb1ELb0ELb1EEEED1Ev>
  4058ba:	90                   	nop
  4058bb:	c9                   	leaveq 
  4058bc:	c3                   	retq   
  4058bd:	90                   	nop

00000000004058be <_ZN5Eigen8Symbolic8BaseExprINS0_10SymbolExprINS_12placeholders8internal17symbolic_last_tagEEEEC1Ev>:
  4058be:	55                   	push   %rbp
  4058bf:	48 89 e5             	mov    %rsp,%rbp
  4058c2:	48 89 7d f8          	mov    %rdi,-0x8(%rbp)
  4058c6:	90                   	nop
  4058c7:	5d                   	pop    %rbp
  4058c8:	c3                   	retq   
  4058c9:	90                   	nop

00000000004058ca <_ZN5Eigen8Symbolic10SymbolExprINS_12placeholders8internal17symbolic_last_tagEEC1Ev>:
  4058ca:	55                   	push   %rbp
  4058cb:	48 89 e5             	mov    %rsp,%rbp
  4058ce:	48 83 ec 10          	sub    $0x10,%rsp
  4058d2:	48 89 7d f8          	mov    %rdi,-0x8(%rbp)
  4058d6:	48 8b 45 f8          	mov    -0x8(%rbp),%rax
  4058da:	48 89 c7             	mov    %rax,%rdi
  4058dd:	e8 dc ff ff ff       	callq  4058be <_ZN5Eigen8Symbolic8BaseExprINS0_10SymbolExprINS_12placeholders8internal17symbolic_last_tagEEEEC1Ev>
  4058e2:	90                   	nop
  4058e3:	c9                   	leaveq 
  4058e4:	c3                   	retq   

00000000004058e5 <_ZN5Eigen3fixILi1EEENS_8internal8FixedIntIXT_EEEv>:
  4058e5:	55                   	push   %rbp
  4058e6:	48 89 e5             	mov    %rsp,%rbp
  4058e9:	53                   	push   %rbx
  4058ea:	48 83 ec 18          	sub    $0x18,%rsp
  4058ee:	64 48 8b 04 25 28 00 	mov    %fs:0x28,%rax
  4058f5:	00 00 
  4058f7:	48 89 45 e8          	mov    %rax,-0x18(%rbp)
  4058fb:	31 c0                	xor    %eax,%eax
  4058fd:	48 8d 45 e7          	lea    -0x19(%rbp),%rax
  405901:	48 89 c7             	mov    %rax,%rdi
  405904:	e8 8f 0e 00 00       	callq  406798 <_ZN5Eigen8internal8FixedIntILi1EEC1Ev>
  405909:	89 d8                	mov    %ebx,%eax
  40590b:	48 8b 55 e8          	mov    -0x18(%rbp),%rdx
  40590f:	64 48 33 14 25 28 00 	xor    %fs:0x28,%rdx
  405916:	00 00 
  405918:	74 05                	je     40591f <_ZN5Eigen3fixILi1EEENS_8internal8FixedIntIXT_EEEv+0x3a>
  40591a:	e8 f1 d3 ff ff       	callq  402d10 <__stack_chk_fail@plt>
  40591f:	48 83 c4 18          	add    $0x18,%rsp
  405923:	5b                   	pop    %rbx
  405924:	5d                   	pop    %rbp
  405925:	c3                   	retq   

0000000000405926 <_ZNK5Eigen8Symbolic8BaseExprINS0_10SymbolExprINS_12placeholders8internal17symbolic_last_tagEEEEplILi1EEENS0_7AddExprIS6_NS0_9ValueExprINS_8internal8FixedIntIXT_EEEEEEESD_>:
  405926:	55                   	push   %rbp
  405927:	48 89 e5             	mov    %rsp,%rbp
  40592a:	53                   	push   %rbx
  40592b:	48 83 ec 28          	sub    $0x28,%rsp
  40592f:	48 89 7d d8          	mov    %rdi,-0x28(%rbp)
  405933:	64 48 8b 04 25 28 00 	mov    %fs:0x28,%rax
  40593a:	00 00 
  40593c:	48 89 45 e8          	mov    %rax,-0x18(%rbp)
  405940:	31 c0                	xor    %eax,%eax
  405942:	48 8d 45 e5          	lea    -0x1b(%rbp),%rax
  405946:	48 89 c7             	mov    %rax,%rdi
  405949:	e8 64 0e 00 00       	callq  4067b2 <_ZN5Eigen8Symbolic9ValueExprINS_8internal8FixedIntILi1EEEEC1Ev>
  40594e:	48 8b 45 d8          	mov    -0x28(%rbp),%rax
  405952:	48 89 c7             	mov    %rax,%rdi
  405955:	e8 4a 0e 00 00       	callq  4067a4 <_ZNK5Eigen8Symbolic8BaseExprINS0_10SymbolExprINS_12placeholders8internal17symbolic_last_tagEEEE7derivedEv>
  40595a:	48 89 c1             	mov    %rax,%rcx
  40595d:	48 8d 55 e5          	lea    -0x1b(%rbp),%rdx
  405961:	48 8d 45 e6          	lea    -0x1a(%rbp),%rax
  405965:	48 89 ce             	mov    %rcx,%rsi
  405968:	48 89 c7             	mov    %rax,%rdi
  40596b:	e8 5a 0e 00 00       	callq  4067ca <_ZN5Eigen8Symbolic7AddExprINS0_10SymbolExprINS_12placeholders8internal17symbolic_last_tagEEENS0_9ValueExprINS_8internal8FixedIntILi1EEEEEEC1ERKS6_RKSB_>
  405970:	89 d8                	mov    %ebx,%eax
  405972:	48 8b 75 e8          	mov    -0x18(%rbp),%rsi
  405976:	64 48 33 34 25 28 00 	xor    %fs:0x28,%rsi
  40597d:	00 00 
  40597f:	74 05                	je     405986 <_ZNK5Eigen8Symbolic8BaseExprINS0_10SymbolExprINS_12placeholders8internal17symbolic_last_tagEEEEplILi1EEENS0_7AddExprIS6_NS0_9ValueExprINS_8internal8FixedIntIXT_EEEEEEESD_+0x60>
  405981:	e8 8a d3 ff ff       	callq  402d10 <__stack_chk_fail@plt>
  405986:	48 83 c4 28          	add    $0x28,%rsp
  40598a:	5b                   	pop    %rbx
  40598b:	5d                   	pop    %rbp
  40598c:	c3                   	retq   

000000000040598d <_ZN10tensorflow8internal12Check_EQImplImmEEPNSt7__cxx1112basic_stringIcSt11char_traitsIcESaIcEEERKT_RKT0_PKc>:
  40598d:	55                   	push   %rbp
  40598e:	48 89 e5             	mov    %rsp,%rbp
  405991:	48 83 ec 20          	sub    $0x20,%rsp
  405995:	48 89 7d f8          	mov    %rdi,-0x8(%rbp)
  405999:	48 89 75 f0          	mov    %rsi,-0x10(%rbp)
  40599d:	48 89 55 e8          	mov    %rdx,-0x18(%rbp)
  4059a1:	48 8b 45 f8          	mov    -0x8(%rbp),%rax
  4059a5:	48 8b 10             	mov    (%rax),%rdx
  4059a8:	48 8b 45 f0          	mov    -0x10(%rbp),%rax
  4059ac:	48 8b 00             	mov    (%rax),%rax
  4059af:	48 39 c2             	cmp    %rax,%rdx
  4059b2:	75 07                	jne    4059bb <_ZN10tensorflow8internal12Check_EQImplImmEEPNSt7__cxx1112basic_stringIcSt11char_traitsIcESaIcEEERKT_RKT0_PKc+0x2e>
  4059b4:	b8 00 00 00 00       	mov    $0x0,%eax
  4059b9:	eb 17                	jmp    4059d2 <_ZN10tensorflow8internal12Check_EQImplImmEEPNSt7__cxx1112basic_stringIcSt11char_traitsIcESaIcEEERKT_RKT0_PKc+0x45>
  4059bb:	48 8b 55 e8          	mov    -0x18(%rbp),%rdx
  4059bf:	48 8b 4d f0          	mov    -0x10(%rbp),%rcx
  4059c3:	48 8b 45 f8          	mov    -0x8(%rbp),%rax
  4059c7:	48 89 ce             	mov    %rcx,%rsi
  4059ca:	48 89 c7             	mov    %rax,%rdi
  4059cd:	e8 6b 0e 00 00       	callq  40683d <_ZN10tensorflow8internal17MakeCheckOpStringImmEEPNSt7__cxx1112basic_stringIcSt11char_traitsIcESaIcEEERKT_RKT0_PKc>
  4059d2:	c9                   	leaveq 
  4059d3:	c3                   	retq   

00000000004059d4 <_ZNSt10_Head_baseILm0EPN10tensorflow6Status5StateELb0EE7_M_headERS4_>:
  4059d4:	55                   	push   %rbp
  4059d5:	48 89 e5             	mov    %rsp,%rbp
  4059d8:	48 89 7d f8          	mov    %rdi,-0x8(%rbp)
  4059dc:	48 8b 45 f8          	mov    -0x8(%rbp),%rax
  4059e0:	5d                   	pop    %rbp
  4059e1:	c3                   	retq   

00000000004059e2 <_ZNSt11_Tuple_implILm0EJPN10tensorflow6Status5StateESt14default_deleteIS2_EEE7_M_headERS6_>:
  4059e2:	55                   	push   %rbp
  4059e3:	48 89 e5             	mov    %rsp,%rbp
  4059e6:	48 83 ec 10          	sub    $0x10,%rsp
  4059ea:	48 89 7d f8          	mov    %rdi,-0x8(%rbp)
  4059ee:	48 8b 45 f8          	mov    -0x8(%rbp),%rax
  4059f2:	48 89 c7             	mov    %rax,%rdi
  4059f5:	e8 da ff ff ff       	callq  4059d4 <_ZNSt10_Head_baseILm0EPN10tensorflow6Status5StateELb0EE7_M_headERS4_>
  4059fa:	c9                   	leaveq 
  4059fb:	c3                   	retq   

00000000004059fc <_ZSt12__get_helperILm0EPN10tensorflow6Status5StateEJSt14default_deleteIS2_EEERT0_RSt11_Tuple_implIXT_EJS6_DpT1_EE>:
  4059fc:	55                   	push   %rbp
  4059fd:	48 89 e5             	mov    %rsp,%rbp
  405a00:	48 83 ec 10          	sub    $0x10,%rsp
  405a04:	48 89 7d f8          	mov    %rdi,-0x8(%rbp)
  405a08:	48 8b 45 f8          	mov    -0x8(%rbp),%rax
  405a0c:	48 89 c7             	mov    %rax,%rdi
  405a0f:	e8 ce ff ff ff       	callq  4059e2 <_ZNSt11_Tuple_implILm0EJPN10tensorflow6Status5StateESt14default_deleteIS2_EEE7_M_headERS6_>
  405a14:	c9                   	leaveq 
  405a15:	c3                   	retq   

0000000000405a16 <_ZSt3getILm0EJPN10tensorflow6Status5StateESt14default_deleteIS2_EEERNSt13tuple_elementIXT_ESt5tupleIJDpT0_EEE4typeERSA_>:
  405a16:	55                   	push   %rbp
  405a17:	48 89 e5             	mov    %rsp,%rbp
  405a1a:	48 83 ec 10          	sub    $0x10,%rsp
  405a1e:	48 89 7d f8          	mov    %rdi,-0x8(%rbp)
  405a22:	48 8b 45 f8          	mov    -0x8(%rbp),%rax
  405a26:	48 89 c7             	mov    %rax,%rdi
  405a29:	e8 ce ff ff ff       	callq  4059fc <_ZSt12__get_helperILm0EPN10tensorflow6Status5StateEJSt14default_deleteIS2_EEERT0_RSt11_Tuple_implIXT_EJS6_DpT1_EE>
  405a2e:	c9                   	leaveq 
  405a2f:	c3                   	retq   

0000000000405a30 <_ZNSt10unique_ptrIN10tensorflow6Status5StateESt14default_deleteIS2_EED1Ev>:
  405a30:	55                   	push   %rbp
  405a31:	48 89 e5             	mov    %rsp,%rbp
  405a34:	53                   	push   %rbx
  405a35:	48 83 ec 28          	sub    $0x28,%rsp
  405a39:	48 89 7d d8          	mov    %rdi,-0x28(%rbp)
  405a3d:	48 8b 45 d8          	mov    -0x28(%rbp),%rax
  405a41:	48 89 c7             	mov    %rax,%rdi
  405a44:	e8 cd ff ff ff       	callq  405a16 <_ZSt3getILm0EJPN10tensorflow6Status5StateESt14default_deleteIS2_EEERNSt13tuple_elementIXT_ESt5tupleIJDpT0_EEE4typeERSA_>
  405a49:	48 89 45 e8          	mov    %rax,-0x18(%rbp)
  405a4d:	48 8b 45 e8          	mov    -0x18(%rbp),%rax
  405a51:	48 8b 00             	mov    (%rax),%rax
  405a54:	48 85 c0             	test   %rax,%rax
  405a57:	74 1e                	je     405a77 <_ZNSt10unique_ptrIN10tensorflow6Status5StateESt14default_deleteIS2_EED1Ev+0x47>
  405a59:	48 8b 45 e8          	mov    -0x18(%rbp),%rax
  405a5d:	48 8b 18             	mov    (%rax),%rbx
  405a60:	48 8b 45 d8          	mov    -0x28(%rbp),%rax
  405a64:	48 89 c7             	mov    %rax,%rdi
  405a67:	e8 f6 0e 00 00       	callq  406962 <_ZNSt10unique_ptrIN10tensorflow6Status5StateESt14default_deleteIS2_EE11get_deleterEv>
  405a6c:	48 89 de             	mov    %rbx,%rsi
  405a6f:	48 89 c7             	mov    %rax,%rdi
  405a72:	e8 25 0f 00 00       	callq  40699c <_ZNKSt14default_deleteIN10tensorflow6Status5StateEEclEPS2_>
  405a77:	48 8b 45 e8          	mov    -0x18(%rbp),%rax
  405a7b:	48 c7 00 00 00 00 00 	movq   $0x0,(%rax)
  405a82:	90                   	nop
  405a83:	48 83 c4 28          	add    $0x28,%rsp
  405a87:	5b                   	pop    %rbx
  405a88:	5d                   	pop    %rbp
  405a89:	c3                   	retq   

0000000000405a8a <_ZSteqIN10tensorflow6Status5StateESt14default_deleteIS2_EEbRKSt10unique_ptrIT_T0_EDn>:
  405a8a:	55                   	push   %rbp
  405a8b:	48 89 e5             	mov    %rsp,%rbp
  405a8e:	48 83 ec 10          	sub    $0x10,%rsp
  405a92:	48 89 7d f8          	mov    %rdi,-0x8(%rbp)
  405a96:	48 89 75 f0          	mov    %rsi,-0x10(%rbp)
  405a9a:	48 8b 45 f8          	mov    -0x8(%rbp),%rax
  405a9e:	48 89 c7             	mov    %rax,%rdi
  405aa1:	e8 28 0f 00 00       	callq  4069ce <_ZNKSt10unique_ptrIN10tensorflow6Status5StateESt14default_deleteIS2_EEcvbEv>
  405aa6:	83 f0 01             	xor    $0x1,%eax
  405aa9:	c9                   	leaveq 
  405aaa:	c3                   	retq   
  405aab:	90                   	nop

0000000000405aac <_ZNKSt10unique_ptrIN10tensorflow6Status5StateESt14default_deleteIS2_EEdeEv>:
  405aac:	55                   	push   %rbp
  405aad:	48 89 e5             	mov    %rsp,%rbp
  405ab0:	48 83 ec 10          	sub    $0x10,%rsp
  405ab4:	48 89 7d f8          	mov    %rdi,-0x8(%rbp)
  405ab8:	48 8b 45 f8          	mov    -0x8(%rbp),%rax
  405abc:	48 89 c7             	mov    %rax,%rdi
  405abf:	e8 94 00 00 00       	callq  405b58 <_ZNKSt10unique_ptrIN10tensorflow6Status5StateESt14default_deleteIS2_EE3getEv>
  405ac4:	c9                   	leaveq 
  405ac5:	c3                   	retq   

0000000000405ac6 <_ZNSt10unique_ptrIN10tensorflow6Status5StateESt14default_deleteIS2_EEC1EPS2_>:
  405ac6:	55                   	push   %rbp
  405ac7:	48 89 e5             	mov    %rsp,%rbp
  405aca:	48 83 ec 10          	sub    $0x10,%rsp
  405ace:	48 89 7d f8          	mov    %rdi,-0x8(%rbp)
  405ad2:	48 89 75 f0          	mov    %rsi,-0x10(%rbp)
  405ad6:	48 8b 45 f8          	mov    -0x8(%rbp),%rax
  405ada:	48 89 c7             	mov    %rax,%rdi
  405add:	e8 6a e7 ff ff       	callq  40424c <_ZNSt5tupleIJPN10tensorflow6Status5StateESt14default_deleteIS2_EEEC1IS3_S5_Lb1EEEv>
  405ae2:	48 8b 45 f8          	mov    -0x8(%rbp),%rax
  405ae6:	48 89 c7             	mov    %rax,%rdi
  405ae9:	e8 28 ff ff ff       	callq  405a16 <_ZSt3getILm0EJPN10tensorflow6Status5StateESt14default_deleteIS2_EEERNSt13tuple_elementIXT_ESt5tupleIJDpT0_EEE4typeERSA_>
  405aee:	48 89 c2             	mov    %rax,%rdx
  405af1:	48 8b 45 f0          	mov    -0x10(%rbp),%rax
  405af5:	48 89 02             	mov    %rax,(%rdx)
  405af8:	90                   	nop
  405af9:	c9                   	leaveq 
  405afa:	c3                   	retq   

0000000000405afb <_ZNSt10_Head_baseILm0EPN10tensorflow6Status5StateELb0EE7_M_headERKS4_>:
  405afb:	55                   	push   %rbp
  405afc:	48 89 e5             	mov    %rsp,%rbp
  405aff:	48 89 7d f8          	mov    %rdi,-0x8(%rbp)
  405b03:	48 8b 45 f8          	mov    -0x8(%rbp),%rax
  405b07:	5d                   	pop    %rbp
  405b08:	c3                   	retq   

0000000000405b09 <_ZNSt11_Tuple_implILm0EJPN10tensorflow6Status5StateESt14default_deleteIS2_EEE7_M_headERKS6_>:
  405b09:	55                   	push   %rbp
  405b0a:	48 89 e5             	mov    %rsp,%rbp
  405b0d:	48 83 ec 10          	sub    $0x10,%rsp
  405b11:	48 89 7d f8          	mov    %rdi,-0x8(%rbp)
  405b15:	48 8b 45 f8          	mov    -0x8(%rbp),%rax
  405b19:	48 89 c7             	mov    %rax,%rdi
  405b1c:	e8 da ff ff ff       	callq  405afb <_ZNSt10_Head_baseILm0EPN10tensorflow6Status5StateELb0EE7_M_headERKS4_>
  405b21:	c9                   	leaveq 
  405b22:	c3                   	retq   

0000000000405b23 <_ZSt12__get_helperILm0EPN10tensorflow6Status5StateEJSt14default_deleteIS2_EEERKT0_RKSt11_Tuple_implIXT_EJS6_DpT1_EE>:
  405b23:	55                   	push   %rbp
  405b24:	48 89 e5             	mov    %rsp,%rbp
  405b27:	48 83 ec 10          	sub    $0x10,%rsp
  405b2b:	48 89 7d f8          	mov    %rdi,-0x8(%rbp)
  405b2f:	48 8b 45 f8          	mov    -0x8(%rbp),%rax
  405b33:	48 89 c7             	mov    %rax,%rdi
  405b36:	e8 ce ff ff ff       	callq  405b09 <_ZNSt11_Tuple_implILm0EJPN10tensorflow6Status5StateESt14default_deleteIS2_EEE7_M_headERKS6_>
  405b3b:	c9                   	leaveq 
  405b3c:	c3                   	retq   

0000000000405b3d <_ZSt3getILm0EJPN10tensorflow6Status5StateESt14default_deleteIS2_EEERKNSt13tuple_elementIXT_ESt5tupleIJDpT0_EEE4typeERKSA_>:
  405b3d:	55                   	push   %rbp
  405b3e:	48 89 e5             	mov    %rsp,%rbp
  405b41:	48 83 ec 10          	sub    $0x10,%rsp
  405b45:	48 89 7d f8          	mov    %rdi,-0x8(%rbp)
  405b49:	48 8b 45 f8          	mov    -0x8(%rbp),%rax
  405b4d:	48 89 c7             	mov    %rax,%rdi
  405b50:	e8 ce ff ff ff       	callq  405b23 <_ZSt12__get_helperILm0EPN10tensorflow6Status5StateEJSt14default_deleteIS2_EEERKT0_RKSt11_Tuple_implIXT_EJS6_DpT1_EE>
  405b55:	c9                   	leaveq 
  405b56:	c3                   	retq   
  405b57:	90                   	nop

0000000000405b58 <_ZNKSt10unique_ptrIN10tensorflow6Status5StateESt14default_deleteIS2_EE3getEv>:
  405b58:	55                   	push   %rbp
  405b59:	48 89 e5             	mov    %rsp,%rbp
  405b5c:	48 83 ec 10          	sub    $0x10,%rsp
  405b60:	48 89 7d f8          	mov    %rdi,-0x8(%rbp)
  405b64:	48 8b 45 f8          	mov    -0x8(%rbp),%rax
  405b68:	48 89 c7             	mov    %rax,%rdi
  405b6b:	e8 cd ff ff ff       	callq  405b3d <_ZSt3getILm0EJPN10tensorflow6Status5StateESt14default_deleteIS2_EEERKNSt13tuple_elementIXT_ESt5tupleIJDpT0_EEE4typeERKSA_>
  405b70:	48 8b 00             	mov    (%rax),%rax
  405b73:	c9                   	leaveq 
  405b74:	c3                   	retq   

0000000000405b75 <_ZStlsIcSt11char_traitsIcENSt7__cxx1112basic_stringIcS1_SaIcEEEERSt13basic_ostreamIT_T0_EOS9_RKT1_>:
  405b75:	55                   	push   %rbp
  405b76:	48 89 e5             	mov    %rsp,%rbp
  405b79:	48 83 ec 10          	sub    $0x10,%rsp
  405b7d:	48 89 7d f8          	mov    %rdi,-0x8(%rbp)
  405b81:	48 89 75 f0          	mov    %rsi,-0x10(%rbp)
  405b85:	48 8b 55 f0          	mov    -0x10(%rbp),%rdx
  405b89:	48 8b 45 f8          	mov    -0x8(%rbp),%rax
  405b8d:	48 89 d6             	mov    %rdx,%rsi
  405b90:	48 89 c7             	mov    %rax,%rdi
  405b93:	e8 78 d2 ff ff       	callq  402e10 <_ZStlsIcSt11char_traitsIcESaIcEERSt13basic_ostreamIT_T0_ES7_RKNSt7__cxx1112basic_stringIS4_S5_T1_EE@plt>
  405b98:	48 8b 45 f8          	mov    -0x8(%rbp),%rax
  405b9c:	c9                   	leaveq 
  405b9d:	c3                   	retq   

0000000000405b9e <_ZN10tensorflow8internal12Check_EQImplIliEEPNSt7__cxx1112basic_stringIcSt11char_traitsIcESaIcEEERKT_RKT0_PKc>:
  405b9e:	55                   	push   %rbp
  405b9f:	48 89 e5             	mov    %rsp,%rbp
  405ba2:	48 83 ec 20          	sub    $0x20,%rsp
  405ba6:	48 89 7d f8          	mov    %rdi,-0x8(%rbp)
  405baa:	48 89 75 f0          	mov    %rsi,-0x10(%rbp)
  405bae:	48 89 55 e8          	mov    %rdx,-0x18(%rbp)
  405bb2:	48 8b 45 f8          	mov    -0x8(%rbp),%rax
  405bb6:	48 8b 10             	mov    (%rax),%rdx
  405bb9:	48 8b 45 f0          	mov    -0x10(%rbp),%rax
  405bbd:	8b 00                	mov    (%rax),%eax
  405bbf:	48 98                	cltq   
  405bc1:	48 39 c2             	cmp    %rax,%rdx
  405bc4:	75 07                	jne    405bcd <_ZN10tensorflow8internal12Check_EQImplIliEEPNSt7__cxx1112basic_stringIcSt11char_traitsIcESaIcEEERKT_RKT0_PKc+0x2f>
  405bc6:	b8 00 00 00 00       	mov    $0x0,%eax
  405bcb:	eb 17                	jmp    405be4 <_ZN10tensorflow8internal12Check_EQImplIliEEPNSt7__cxx1112basic_stringIcSt11char_traitsIcESaIcEEERKT_RKT0_PKc+0x46>
  405bcd:	48 8b 55 e8          	mov    -0x18(%rbp),%rdx
  405bd1:	48 8b 4d f0          	mov    -0x10(%rbp),%rcx
  405bd5:	48 8b 45 f8          	mov    -0x8(%rbp),%rax
  405bd9:	48 89 ce             	mov    %rcx,%rsi
  405bdc:	48 89 c7             	mov    %rax,%rdi
  405bdf:	e8 0a 0e 00 00       	callq  4069ee <_ZN10tensorflow8internal17MakeCheckOpStringIliEEPNSt7__cxx1112basic_stringIcSt11char_traitsIcESaIcEEERKT_RKT0_PKc>
  405be4:	c9                   	leaveq 
  405be5:	c3                   	retq   

0000000000405be6 <_ZN10tensorflow8internal12Check_GEImplIliEEPNSt7__cxx1112basic_stringIcSt11char_traitsIcESaIcEEERKT_RKT0_PKc>:
  405be6:	55                   	push   %rbp
  405be7:	48 89 e5             	mov    %rsp,%rbp
  405bea:	48 83 ec 20          	sub    $0x20,%rsp
  405bee:	48 89 7d f8          	mov    %rdi,-0x8(%rbp)
  405bf2:	48 89 75 f0          	mov    %rsi,-0x10(%rbp)
  405bf6:	48 89 55 e8          	mov    %rdx,-0x18(%rbp)
  405bfa:	48 8b 45 f8          	mov    -0x8(%rbp),%rax
  405bfe:	48 8b 10             	mov    (%rax),%rdx
  405c01:	48 8b 45 f0          	mov    -0x10(%rbp),%rax
  405c05:	8b 00                	mov    (%rax),%eax
  405c07:	48 98                	cltq   
  405c09:	48 39 c2             	cmp    %rax,%rdx
  405c0c:	7c 07                	jl     405c15 <_ZN10tensorflow8internal12Check_GEImplIliEEPNSt7__cxx1112basic_stringIcSt11char_traitsIcESaIcEEERKT_RKT0_PKc+0x2f>
  405c0e:	b8 00 00 00 00       	mov    $0x0,%eax
  405c13:	eb 17                	jmp    405c2c <_ZN10tensorflow8internal12Check_GEImplIliEEPNSt7__cxx1112basic_stringIcSt11char_traitsIcESaIcEEERKT_RKT0_PKc+0x46>
  405c15:	48 8b 55 e8          	mov    -0x18(%rbp),%rdx
  405c19:	48 8b 4d f0          	mov    -0x10(%rbp),%rcx
  405c1d:	48 8b 45 f8          	mov    -0x8(%rbp),%rax
  405c21:	48 89 ce             	mov    %rcx,%rsi
  405c24:	48 89 c7             	mov    %rax,%rdi
  405c27:	e8 c2 0d 00 00       	callq  4069ee <_ZN10tensorflow8internal17MakeCheckOpStringIliEEPNSt7__cxx1112basic_stringIcSt11char_traitsIcESaIcEEERKT_RKT0_PKc>
  405c2c:	c9                   	leaveq 
  405c2d:	c3                   	retq   

0000000000405c2e <_ZNK10tensorflow6Tensor4baseIvEEPT_v>:
  405c2e:	55                   	push   %rbp
  405c2f:	48 89 e5             	mov    %rsp,%rbp
  405c32:	48 83 ec 10          	sub    $0x10,%rsp
  405c36:	48 89 7d f8          	mov    %rdi,-0x8(%rbp)
  405c3a:	48 8b 45 f8          	mov    -0x8(%rbp),%rax
  405c3e:	48 8b 40 18          	mov    0x18(%rax),%rax
  405c42:	48 85 c0             	test   %rax,%rax
  405c45:	74 12                	je     405c59 <_ZNK10tensorflow6Tensor4baseIvEEPT_v+0x2b>
  405c47:	48 8b 45 f8          	mov    -0x8(%rbp),%rax
  405c4b:	48 8b 40 18          	mov    0x18(%rax),%rax
  405c4f:	48 89 c7             	mov    %rax,%rdi
  405c52:	e8 5f 0e 00 00       	callq  406ab6 <_ZNK10tensorflow12TensorBuffer4baseIvEEPT_v>
  405c57:	eb 05                	jmp    405c5e <_ZNK10tensorflow6Tensor4baseIvEEPT_v+0x30>
  405c59:	b8 00 00 00 00       	mov    $0x0,%eax
  405c5e:	c9                   	leaveq 
  405c5f:	c3                   	retq   

0000000000405c60 <_ZNSt6vectorISt4pairIPN10tensorflow4NodeEiESaIS4_EED1Ev>:
  405c60:	55                   	push   %rbp
  405c61:	48 89 e5             	mov    %rsp,%rbp
  405c64:	48 83 ec 10          	sub    $0x10,%rsp
  405c68:	48 89 7d f8          	mov    %rdi,-0x8(%rbp)
  405c6c:	48 8b 45 f8          	mov    -0x8(%rbp),%rax
  405c70:	48 89 c7             	mov    %rax,%rdi
  405c73:	e8 d0 0e 00 00       	callq  406b48 <_ZNSt12_Vector_baseISt4pairIPN10tensorflow4NodeEiESaIS4_EE19_M_get_Tp_allocatorEv>
  405c78:	48 89 c2             	mov    %rax,%rdx
  405c7b:	48 8b 45 f8          	mov    -0x8(%rbp),%rax
  405c7f:	48 8b 48 08          	mov    0x8(%rax),%rcx
  405c83:	48 8b 45 f8          	mov    -0x8(%rbp),%rax
  405c87:	48 8b 00             	mov    (%rax),%rax
  405c8a:	48 89 ce             	mov    %rcx,%rsi
  405c8d:	48 89 c7             	mov    %rax,%rdi
  405c90:	e8 c1 0e 00 00       	callq  406b56 <_ZSt8_DestroyIPSt4pairIPN10tensorflow4NodeEiES4_EvT_S6_RSaIT0_E>
  405c95:	48 8b 45 f8          	mov    -0x8(%rbp),%rax
  405c99:	48 89 c7             	mov    %rax,%rdi
  405c9c:	e8 57 0e 00 00       	callq  406af8 <_ZNSt12_Vector_baseISt4pairIPN10tensorflow4NodeEiESaIS4_EED1Ev>
  405ca1:	90                   	nop
  405ca2:	c9                   	leaveq 
  405ca3:	c3                   	retq   

0000000000405ca4 <_ZNSt6vectorISt4pairIPN10tensorflow4NodeEiESaIS4_EEC1ERKS6_>:
  405ca4:	55                   	push   %rbp
  405ca5:	48 89 e5             	mov    %rsp,%rbp
  405ca8:	41 55                	push   %r13
  405caa:	41 54                	push   %r12
  405cac:	53                   	push   %rbx
  405cad:	48 83 ec 28          	sub    $0x28,%rsp
  405cb1:	48 89 7d c8          	mov    %rdi,-0x38(%rbp)
  405cb5:	48 89 75 c0          	mov    %rsi,-0x40(%rbp)
  405cb9:	64 48 8b 04 25 28 00 	mov    %fs:0x28,%rax
  405cc0:	00 00 
  405cc2:	48 89 45 d8          	mov    %rax,-0x28(%rbp)
  405cc6:	31 c0                	xor    %eax,%eax
  405cc8:	48 8b 45 c0          	mov    -0x40(%rbp),%rax
  405ccc:	48 89 c7             	mov    %rax,%rdi
  405ccf:	e8 1e 0f 00 00       	callq  406bf2 <_ZNKSt12_Vector_baseISt4pairIPN10tensorflow4NodeEiESaIS4_EE19_M_get_Tp_allocatorEv>
  405cd4:	48 89 c2             	mov    %rax,%rdx
  405cd7:	48 8d 45 d7          	lea    -0x29(%rbp),%rax
  405cdb:	48 89 d6             	mov    %rdx,%rsi
  405cde:	48 89 c7             	mov    %rax,%rdi
  405ce1:	e8 c0 0e 00 00       	callq  406ba6 <_ZN9__gnu_cxx14__alloc_traitsISaISt4pairIPN10tensorflow4NodeEiEEE17_S_select_on_copyERKS6_>
  405ce6:	48 8b 45 c0          	mov    -0x40(%rbp),%rax
  405cea:	48 89 c7             	mov    %rax,%rdi
  405ced:	e8 8e 0e 00 00       	callq  406b80 <_ZNKSt6vectorISt4pairIPN10tensorflow4NodeEiESaIS4_EE4sizeEv>
  405cf2:	48 89 c1             	mov    %rax,%rcx
  405cf5:	48 8b 45 c8          	mov    -0x38(%rbp),%rax
  405cf9:	48 8d 55 d7          	lea    -0x29(%rbp),%rdx
  405cfd:	48 89 ce             	mov    %rcx,%rsi
  405d00:	48 89 c7             	mov    %rax,%rdi
  405d03:	e8 14 0f 00 00       	callq  406c1c <_ZNSt12_Vector_baseISt4pairIPN10tensorflow4NodeEiESaIS4_EEC1EmRKS5_>
  405d08:	48 8d 45 d7          	lea    -0x29(%rbp),%rax
  405d0c:	48 89 c7             	mov    %rax,%rdi
  405d0f:	e8 ec 0e 00 00       	callq  406c00 <_ZNSaISt4pairIPN10tensorflow4NodeEiEED1Ev>
  405d14:	48 8b 45 c8          	mov    -0x38(%rbp),%rax
  405d18:	48 89 c7             	mov    %rax,%rdi
  405d1b:	e8 28 0e 00 00       	callq  406b48 <_ZNSt12_Vector_baseISt4pairIPN10tensorflow4NodeEiESaIS4_EE19_M_get_Tp_allocatorEv>
  405d20:	49 89 c5             	mov    %rax,%r13
  405d23:	48 8b 45 c8          	mov    -0x38(%rbp),%rax
  405d27:	48 8b 18             	mov    (%rax),%rbx
  405d2a:	48 8b 45 c0          	mov    -0x40(%rbp),%rax
  405d2e:	48 89 c7             	mov    %rax,%rdi
  405d31:	e8 98 0f 00 00       	callq  406cce <_ZNKSt6vectorISt4pairIPN10tensorflow4NodeEiESaIS4_EE3endEv>
  405d36:	49 89 c4             	mov    %rax,%r12
  405d39:	48 8b 45 c0          	mov    -0x40(%rbp),%rax
  405d3d:	48 89 c7             	mov    %rax,%rdi
  405d40:	e8 35 0f 00 00       	callq  406c7a <_ZNKSt6vectorISt4pairIPN10tensorflow4NodeEiESaIS4_EE5beginEv>
  405d45:	4c 89 e9             	mov    %r13,%rcx
  405d48:	48 89 da             	mov    %rbx,%rdx
  405d4b:	4c 89 e6             	mov    %r12,%rsi
  405d4e:	48 89 c7             	mov    %rax,%rdi
  405d51:	e8 cc 0f 00 00       	callq  406d22 <_ZSt22__uninitialized_copy_aIN9__gnu_cxx17__normal_iteratorIPKSt4pairIPN10tensorflow4NodeEiESt6vectorIS6_SaIS6_EEEEPS6_S6_ET0_T_SF_SE_RSaIT1_E>
  405d56:	48 89 c2             	mov    %rax,%rdx
  405d59:	48 8b 45 c8          	mov    -0x38(%rbp),%rax
  405d5d:	48 89 50 08          	mov    %rdx,0x8(%rax)
  405d61:	90                   	nop
  405d62:	48 8b 45 d8          	mov    -0x28(%rbp),%rax
  405d66:	64 48 33 04 25 28 00 	xor    %fs:0x28,%rax
  405d6d:	00 00 
  405d6f:	74 3b                	je     405dac <_ZNSt6vectorISt4pairIPN10tensorflow4NodeEiESaIS4_EEC1ERKS6_+0x108>
  405d71:	eb 34                	jmp    405da7 <_ZNSt6vectorISt4pairIPN10tensorflow4NodeEiESaIS4_EEC1ERKS6_+0x103>
  405d73:	48 89 c3             	mov    %rax,%rbx
  405d76:	48 8d 45 d7          	lea    -0x29(%rbp),%rax
  405d7a:	48 89 c7             	mov    %rax,%rdi
  405d7d:	e8 7e 0e 00 00       	callq  406c00 <_ZNSaISt4pairIPN10tensorflow4NodeEiEED1Ev>
  405d82:	48 89 d8             	mov    %rbx,%rax
  405d85:	48 89 c7             	mov    %rax,%rdi
  405d88:	e8 33 d2 ff ff       	callq  402fc0 <_Unwind_Resume@plt>
  405d8d:	48 89 c3             	mov    %rax,%rbx
  405d90:	48 8b 45 c8          	mov    -0x38(%rbp),%rax
  405d94:	48 89 c7             	mov    %rax,%rdi
  405d97:	e8 5c 0d 00 00       	callq  406af8 <_ZNSt12_Vector_baseISt4pairIPN10tensorflow4NodeEiESaIS4_EED1Ev>
  405d9c:	48 89 d8             	mov    %rbx,%rax
  405d9f:	48 89 c7             	mov    %rax,%rdi
  405da2:	e8 19 d2 ff ff       	callq  402fc0 <_Unwind_Resume@plt>
  405da7:	e8 64 cf ff ff       	callq  402d10 <__stack_chk_fail@plt>
  405dac:	48 83 c4 28          	add    $0x28,%rsp
  405db0:	5b                   	pop    %rbx
  405db1:	41 5c                	pop    %r12
  405db3:	41 5d                	pop    %r13
  405db5:	5d                   	pop    %rbp
  405db6:	c3                   	retq   
  405db7:	90                   	nop

0000000000405db8 <_ZNK6google8protobuf16RepeatedPtrFieldIN10tensorflow13NodeExecStatsEE4sizeEv>:
  405db8:	55                   	push   %rbp
  405db9:	48 89 e5             	mov    %rsp,%rbp
  405dbc:	48 83 ec 10          	sub    $0x10,%rsp
  405dc0:	48 89 7d f8          	mov    %rdi,-0x8(%rbp)
  405dc4:	48 8b 45 f8          	mov    -0x8(%rbp),%rax
  405dc8:	48 89 c7             	mov    %rax,%rdi
  405dcb:	e8 44 e3 ff ff       	callq  404114 <_ZNK6google8protobuf8internal20RepeatedPtrFieldBase4sizeEv>
  405dd0:	c9                   	leaveq 
  405dd1:	c3                   	retq   

0000000000405dd2 <_ZNK6google8protobuf16RepeatedPtrFieldIN10tensorflow15DeviceStepStatsEE4sizeEv>:
  405dd2:	55                   	push   %rbp
  405dd3:	48 89 e5             	mov    %rsp,%rbp
  405dd6:	48 83 ec 10          	sub    $0x10,%rsp
  405dda:	48 89 7d f8          	mov    %rdi,-0x8(%rbp)
  405dde:	48 8b 45 f8          	mov    -0x8(%rbp),%rax
  405de2:	48 89 c7             	mov    %rax,%rdi
  405de5:	e8 2a e3 ff ff       	callq  404114 <_ZNK6google8protobuf8internal20RepeatedPtrFieldBase4sizeEv>
  405dea:	c9                   	leaveq 
  405deb:	c3                   	retq   

0000000000405dec <_ZNK6google8protobuf16RepeatedPtrFieldIN10tensorflow15DeviceStepStatsEE5beginEv>:
  405dec:	55                   	push   %rbp
  405ded:	48 89 e5             	mov    %rsp,%rbp
  405df0:	48 83 ec 30          	sub    $0x30,%rsp
  405df4:	48 89 7d d8          	mov    %rdi,-0x28(%rbp)
  405df8:	64 48 8b 04 25 28 00 	mov    %fs:0x28,%rax
  405dff:	00 00 
  405e01:	48 89 45 f8          	mov    %rax,-0x8(%rbp)
  405e05:	31 c0                	xor    %eax,%eax
  405e07:	48 8b 45 d8          	mov    -0x28(%rbp),%rax
  405e0b:	48 89 c7             	mov    %rax,%rdi
  405e0e:	e8 13 e3 ff ff       	callq  404126 <_ZNK6google8protobuf8internal20RepeatedPtrFieldBase8raw_dataEv>
  405e13:	48 89 c2             	mov    %rax,%rdx
  405e16:	48 8d 45 e8          	lea    -0x18(%rbp),%rax
  405e1a:	48 89 d6             	mov    %rdx,%rsi
  405e1d:	48 89 c7             	mov    %rax,%rdi
  405e20:	e8 3b 0f 00 00       	callq  406d60 <_ZN6google8protobuf8internal19RepeatedPtrIteratorIN10tensorflow15DeviceStepStatsEEC1EPKPv>
  405e25:	48 8d 55 e8          	lea    -0x18(%rbp),%rdx
  405e29:	48 8d 45 f0          	lea    -0x10(%rbp),%rax
  405e2d:	48 89 d6             	mov    %rdx,%rsi
  405e30:	48 89 c7             	mov    %rax,%rdi
  405e33:	e8 5e 0f 00 00       	callq  406d96 <_ZN6google8protobuf8internal19RepeatedPtrIteratorIKN10tensorflow15DeviceStepStatsEEC1IS4_EERKNS2_IT_EE>
  405e38:	48 8b 45 f0          	mov    -0x10(%rbp),%rax
  405e3c:	48 8b 4d f8          	mov    -0x8(%rbp),%rcx
  405e40:	64 48 33 0c 25 28 00 	xor    %fs:0x28,%rcx
  405e47:	00 00 
  405e49:	74 05                	je     405e50 <_ZNK6google8protobuf16RepeatedPtrFieldIN10tensorflow15DeviceStepStatsEE5beginEv+0x64>
  405e4b:	e8 c0 ce ff ff       	callq  402d10 <__stack_chk_fail@plt>
  405e50:	c9                   	leaveq 
  405e51:	c3                   	retq   

0000000000405e52 <_ZNK6google8protobuf16RepeatedPtrFieldIN10tensorflow15DeviceStepStatsEE3endEv>:
  405e52:	55                   	push   %rbp
  405e53:	48 89 e5             	mov    %rsp,%rbp
  405e56:	53                   	push   %rbx
  405e57:	48 83 ec 38          	sub    $0x38,%rsp
  405e5b:	48 89 7d c8          	mov    %rdi,-0x38(%rbp)
  405e5f:	64 48 8b 04 25 28 00 	mov    %fs:0x28,%rax
  405e66:	00 00 
  405e68:	48 89 45 e8          	mov    %rax,-0x18(%rbp)
  405e6c:	31 c0                	xor    %eax,%eax
  405e6e:	48 8b 45 c8          	mov    -0x38(%rbp),%rax
  405e72:	48 89 c7             	mov    %rax,%rdi
  405e75:	e8 ac e2 ff ff       	callq  404126 <_ZNK6google8protobuf8internal20RepeatedPtrFieldBase8raw_dataEv>
  405e7a:	48 89 c3             	mov    %rax,%rbx
  405e7d:	48 8b 45 c8          	mov    -0x38(%rbp),%rax
  405e81:	48 89 c7             	mov    %rax,%rdi
  405e84:	e8 49 ff ff ff       	callq  405dd2 <_ZNK6google8protobuf16RepeatedPtrFieldIN10tensorflow15DeviceStepStatsEE4sizeEv>
  405e89:	48 98                	cltq   
  405e8b:	48 c1 e0 03          	shl    $0x3,%rax
  405e8f:	48 8d 14 03          	lea    (%rbx,%rax,1),%rdx
  405e93:	48 8d 45 d8          	lea    -0x28(%rbp),%rax
  405e97:	48 89 d6             	mov    %rdx,%rsi
  405e9a:	48 89 c7             	mov    %rax,%rdi
  405e9d:	e8 be 0e 00 00       	callq  406d60 <_ZN6google8protobuf8internal19RepeatedPtrIteratorIN10tensorflow15DeviceStepStatsEEC1EPKPv>
  405ea2:	48 8d 55 d8          	lea    -0x28(%rbp),%rdx
  405ea6:	48 8d 45 e0          	lea    -0x20(%rbp),%rax
  405eaa:	48 89 d6             	mov    %rdx,%rsi
  405ead:	48 89 c7             	mov    %rax,%rdi
  405eb0:	e8 e1 0e 00 00       	callq  406d96 <_ZN6google8protobuf8internal19RepeatedPtrIteratorIKN10tensorflow15DeviceStepStatsEEC1IS4_EERKNS2_IT_EE>
  405eb5:	48 8b 45 e0          	mov    -0x20(%rbp),%rax
  405eb9:	48 8b 4d e8          	mov    -0x18(%rbp),%rcx
  405ebd:	64 48 33 0c 25 28 00 	xor    %fs:0x28,%rcx
  405ec4:	00 00 
  405ec6:	74 05                	je     405ecd <_ZNK6google8protobuf16RepeatedPtrFieldIN10tensorflow15DeviceStepStatsEE3endEv+0x7b>
  405ec8:	e8 43 ce ff ff       	callq  402d10 <__stack_chk_fail@plt>
  405ecd:	48 83 c4 38          	add    $0x38,%rsp
  405ed1:	5b                   	pop    %rbx
  405ed2:	5d                   	pop    %rbp
  405ed3:	c3                   	retq   

0000000000405ed4 <_ZNK6google8protobuf8internal19RepeatedPtrIteratorIKN10tensorflow15DeviceStepStatsEEneERKS6_>:
  405ed4:	55                   	push   %rbp
  405ed5:	48 89 e5             	mov    %rsp,%rbp
  405ed8:	48 89 7d f8          	mov    %rdi,-0x8(%rbp)
  405edc:	48 89 75 f0          	mov    %rsi,-0x10(%rbp)
  405ee0:	48 8b 45 f8          	mov    -0x8(%rbp),%rax
  405ee4:	48 8b 10             	mov    (%rax),%rdx
  405ee7:	48 8b 45 f0          	mov    -0x10(%rbp),%rax
  405eeb:	48 8b 00             	mov    (%rax),%rax
  405eee:	48 39 c2             	cmp    %rax,%rdx
  405ef1:	0f 95 c0             	setne  %al
  405ef4:	5d                   	pop    %rbp
  405ef5:	c3                   	retq   

0000000000405ef6 <_ZN6google8protobuf8internal19RepeatedPtrIteratorIKN10tensorflow15DeviceStepStatsEEppEv>:
  405ef6:	55                   	push   %rbp
  405ef7:	48 89 e5             	mov    %rsp,%rbp
  405efa:	48 89 7d f8          	mov    %rdi,-0x8(%rbp)
  405efe:	48 8b 45 f8          	mov    -0x8(%rbp),%rax
  405f02:	48 8b 00             	mov    (%rax),%rax
  405f05:	48 8d 50 08          	lea    0x8(%rax),%rdx
  405f09:	48 8b 45 f8          	mov    -0x8(%rbp),%rax
  405f0d:	48 89 10             	mov    %rdx,(%rax)
  405f10:	48 8b 45 f8          	mov    -0x8(%rbp),%rax
  405f14:	5d                   	pop    %rbp
  405f15:	c3                   	retq   

0000000000405f16 <_ZNK6google8protobuf8internal19RepeatedPtrIteratorIKN10tensorflow15DeviceStepStatsEEdeEv>:
  405f16:	55                   	push   %rbp
  405f17:	48 89 e5             	mov    %rsp,%rbp
  405f1a:	48 89 7d f8          	mov    %rdi,-0x8(%rbp)
  405f1e:	48 8b 45 f8          	mov    -0x8(%rbp),%rax
  405f22:	48 8b 00             	mov    (%rax),%rax
  405f25:	48 8b 00             	mov    (%rax),%rax
  405f28:	5d                   	pop    %rbp
  405f29:	c3                   	retq   

0000000000405f2a <_ZNK6google8protobuf16RepeatedPtrFieldIN10tensorflow13NodeExecStatsEE5beginEv>:
  405f2a:	55                   	push   %rbp
  405f2b:	48 89 e5             	mov    %rsp,%rbp
  405f2e:	48 83 ec 30          	sub    $0x30,%rsp
  405f32:	48 89 7d d8          	mov    %rdi,-0x28(%rbp)
  405f36:	64 48 8b 04 25 28 00 	mov    %fs:0x28,%rax
  405f3d:	00 00 
  405f3f:	48 89 45 f8          	mov    %rax,-0x8(%rbp)
  405f43:	31 c0                	xor    %eax,%eax
  405f45:	48 8b 45 d8          	mov    -0x28(%rbp),%rax
  405f49:	48 89 c7             	mov    %rax,%rdi
  405f4c:	e8 d5 e1 ff ff       	callq  404126 <_ZNK6google8protobuf8internal20RepeatedPtrFieldBase8raw_dataEv>
  405f51:	48 89 c2             	mov    %rax,%rdx
  405f54:	48 8d 45 e8          	lea    -0x18(%rbp),%rax
  405f58:	48 89 d6             	mov    %rdx,%rsi
  405f5b:	48 89 c7             	mov    %rax,%rdi
  405f5e:	e8 8f 0e 00 00       	callq  406df2 <_ZN6google8protobuf8internal19RepeatedPtrIteratorIN10tensorflow13NodeExecStatsEEC1EPKPv>
  405f63:	48 8d 55 e8          	lea    -0x18(%rbp),%rdx
  405f67:	48 8d 45 f0          	lea    -0x10(%rbp),%rax
  405f6b:	48 89 d6             	mov    %rdx,%rsi
  405f6e:	48 89 c7             	mov    %rax,%rdi
  405f71:	e8 b2 0e 00 00       	callq  406e28 <_ZN6google8protobuf8internal19RepeatedPtrIteratorIKN10tensorflow13NodeExecStatsEEC1IS4_EERKNS2_IT_EE>
  405f76:	48 8b 45 f0          	mov    -0x10(%rbp),%rax
  405f7a:	48 8b 4d f8          	mov    -0x8(%rbp),%rcx
  405f7e:	64 48 33 0c 25 28 00 	xor    %fs:0x28,%rcx
  405f85:	00 00 
  405f87:	74 05                	je     405f8e <_ZNK6google8protobuf16RepeatedPtrFieldIN10tensorflow13NodeExecStatsEE5beginEv+0x64>
  405f89:	e8 82 cd ff ff       	callq  402d10 <__stack_chk_fail@plt>
  405f8e:	c9                   	leaveq 
  405f8f:	c3                   	retq   

0000000000405f90 <_ZNK6google8protobuf16RepeatedPtrFieldIN10tensorflow13NodeExecStatsEE3endEv>:
  405f90:	55                   	push   %rbp
  405f91:	48 89 e5             	mov    %rsp,%rbp
  405f94:	53                   	push   %rbx
  405f95:	48 83 ec 38          	sub    $0x38,%rsp
  405f99:	48 89 7d c8          	mov    %rdi,-0x38(%rbp)
  405f9d:	64 48 8b 04 25 28 00 	mov    %fs:0x28,%rax
  405fa4:	00 00 
  405fa6:	48 89 45 e8          	mov    %rax,-0x18(%rbp)
  405faa:	31 c0                	xor    %eax,%eax
  405fac:	48 8b 45 c8          	mov    -0x38(%rbp),%rax
  405fb0:	48 89 c7             	mov    %rax,%rdi
  405fb3:	e8 6e e1 ff ff       	callq  404126 <_ZNK6google8protobuf8internal20RepeatedPtrFieldBase8raw_dataEv>
  405fb8:	48 89 c3             	mov    %rax,%rbx
  405fbb:	48 8b 45 c8          	mov    -0x38(%rbp),%rax
  405fbf:	48 89 c7             	mov    %rax,%rdi
  405fc2:	e8 f1 fd ff ff       	callq  405db8 <_ZNK6google8protobuf16RepeatedPtrFieldIN10tensorflow13NodeExecStatsEE4sizeEv>
  405fc7:	48 98                	cltq   
  405fc9:	48 c1 e0 03          	shl    $0x3,%rax
  405fcd:	48 8d 14 03          	lea    (%rbx,%rax,1),%rdx
  405fd1:	48 8d 45 d8          	lea    -0x28(%rbp),%rax
  405fd5:	48 89 d6             	mov    %rdx,%rsi
  405fd8:	48 89 c7             	mov    %rax,%rdi
  405fdb:	e8 12 0e 00 00       	callq  406df2 <_ZN6google8protobuf8internal19RepeatedPtrIteratorIN10tensorflow13NodeExecStatsEEC1EPKPv>
  405fe0:	48 8d 55 d8          	lea    -0x28(%rbp),%rdx
  405fe4:	48 8d 45 e0          	lea    -0x20(%rbp),%rax
  405fe8:	48 89 d6             	mov    %rdx,%rsi
  405feb:	48 89 c7             	mov    %rax,%rdi
  405fee:	e8 35 0e 00 00       	callq  406e28 <_ZN6google8protobuf8internal19RepeatedPtrIteratorIKN10tensorflow13NodeExecStatsEEC1IS4_EERKNS2_IT_EE>
  405ff3:	48 8b 45 e0          	mov    -0x20(%rbp),%rax
  405ff7:	48 8b 4d e8          	mov    -0x18(%rbp),%rcx
  405ffb:	64 48 33 0c 25 28 00 	xor    %fs:0x28,%rcx
  406002:	00 00 
  406004:	74 05                	je     40600b <_ZNK6google8protobuf16RepeatedPtrFieldIN10tensorflow13NodeExecStatsEE3endEv+0x7b>
  406006:	e8 05 cd ff ff       	callq  402d10 <__stack_chk_fail@plt>
  40600b:	48 83 c4 38          	add    $0x38,%rsp
  40600f:	5b                   	pop    %rbx
  406010:	5d                   	pop    %rbp
  406011:	c3                   	retq   

0000000000406012 <_ZNK6google8protobuf8internal19RepeatedPtrIteratorIKN10tensorflow13NodeExecStatsEEneERKS6_>:
  406012:	55                   	push   %rbp
  406013:	48 89 e5             	mov    %rsp,%rbp
  406016:	48 89 7d f8          	mov    %rdi,-0x8(%rbp)
  40601a:	48 89 75 f0          	mov    %rsi,-0x10(%rbp)
  40601e:	48 8b 45 f8          	mov    -0x8(%rbp),%rax
  406022:	48 8b 10             	mov    (%rax),%rdx
  406025:	48 8b 45 f0          	mov    -0x10(%rbp),%rax
  406029:	48 8b 00             	mov    (%rax),%rax
  40602c:	48 39 c2             	cmp    %rax,%rdx
  40602f:	0f 95 c0             	setne  %al
  406032:	5d                   	pop    %rbp
  406033:	c3                   	retq   

0000000000406034 <_ZN6google8protobuf8internal19RepeatedPtrIteratorIKN10tensorflow13NodeExecStatsEEppEv>:
  406034:	55                   	push   %rbp
  406035:	48 89 e5             	mov    %rsp,%rbp
  406038:	48 89 7d f8          	mov    %rdi,-0x8(%rbp)
  40603c:	48 8b 45 f8          	mov    -0x8(%rbp),%rax
  406040:	48 8b 00             	mov    (%rax),%rax
  406043:	48 8d 50 08          	lea    0x8(%rax),%rdx
  406047:	48 8b 45 f8          	mov    -0x8(%rbp),%rax
  40604b:	48 89 10             	mov    %rdx,(%rax)
  40604e:	48 8b 45 f8          	mov    -0x8(%rbp),%rax
  406052:	5d                   	pop    %rbp
  406053:	c3                   	retq   

0000000000406054 <_ZNK6google8protobuf8internal19RepeatedPtrIteratorIKN10tensorflow13NodeExecStatsEEdeEv>:
  406054:	55                   	push   %rbp
  406055:	48 89 e5             	mov    %rsp,%rbp
  406058:	48 89 7d f8          	mov    %rdi,-0x8(%rbp)
  40605c:	48 8b 45 f8          	mov    -0x8(%rbp),%rax
  406060:	48 8b 00             	mov    (%rax),%rax
  406063:	48 8b 00             	mov    (%rax),%rax
  406066:	5d                   	pop    %rbp
  406067:	c3                   	retq   

0000000000406068 <_ZN2CK19get_random_raw_dataIN5Eigen6QUInt8EEEPT_RKNS_5ShapeES3_S3_>:
  406068:	55                   	push   %rbp
  406069:	48 89 e5             	mov    %rsp,%rbp
  40606c:	41 55                	push   %r13
  40606e:	41 54                	push   %r12
  406070:	53                   	push   %rbx
  406071:	48 83 ec 58          	sub    $0x58,%rsp
  406075:	48 89 7d 98          	mov    %rdi,-0x68(%rbp)
  406079:	40 88 75 97          	mov    %sil,-0x69(%rbp)
  40607d:	88 55 96             	mov    %dl,-0x6a(%rbp)
  406080:	64 48 8b 04 25 28 00 	mov    %fs:0x28,%rax
  406087:	00 00 
  406089:	48 89 45 d8          	mov    %rax,-0x28(%rbp)
  40608d:	31 c0                	xor    %eax,%eax
  40608f:	0f b6 55 97          	movzbl -0x69(%rbp),%edx
  406093:	0f b6 45 96          	movzbl -0x6a(%rbp),%eax
  406097:	89 d6                	mov    %edx,%esi
  406099:	89 c7                	mov    %eax,%edi
  40609b:	e8 40 e0 ff ff       	callq  4040e0 <_ZN5EigengtENS_6QUInt8ES0_>
  4060a0:	84 c0                	test   %al,%al
  4060a2:	75 19                	jne    4060bd <_ZN2CK19get_random_raw_dataIN5Eigen6QUInt8EEEPT_RKNS_5ShapeES3_S3_+0x55>
  4060a4:	b9 c0 95 40 00       	mov    $0x4095c0,%ecx
  4060a9:	ba c8 00 00 00       	mov    $0xc8,%edx
  4060ae:	be 38 93 40 00       	mov    $0x409338,%esi
  4060b3:	bf 94 93 40 00       	mov    $0x409394,%edi
  4060b8:	e8 43 cc ff ff       	callq  402d00 <__assert_fail@plt>
  4060bd:	e8 c9 df ff ff       	callq  40408b <_ZNSt14numeric_limitsIfE3maxEv>
  4060c2:	66 0f 7e c0          	movd   %xmm0,%eax
  4060c6:	89 45 b4             	mov    %eax,-0x4c(%rbp)
  4060c9:	48 8d 45 97          	lea    -0x69(%rbp),%rax
  4060cd:	48 89 c7             	mov    %rax,%rdi
  4060d0:	e8 f7 df ff ff       	callq  4040cc <_ZNK5Eigen6QUInt8cviEv>
  4060d5:	66 0f ef c0          	pxor   %xmm0,%xmm0
  4060d9:	f3 0f 2a c0          	cvtsi2ss %eax,%xmm0
  4060dd:	f3 0f 10 55 b4       	movss  -0x4c(%rbp),%xmm2
  4060e2:	f3 0f 10 0d 96 35 00 	movss  0x3596(%rip),%xmm1        # 409680 <_ZZN2CK2TF16process_metadataERKN10tensorflow11RunMetadataEPKcE19__PRETTY_FUNCTION__+0x60>
  4060e9:	00 
  4060ea:	0f 57 ca             	xorps  %xmm2,%xmm1
  4060ed:	0f 2e c1             	ucomiss %xmm1,%xmm0
  4060f0:	72 1e                	jb     406110 <_ZN2CK19get_random_raw_dataIN5Eigen6QUInt8EEEPT_RKNS_5ShapeES3_S3_+0xa8>
  4060f2:	48 8d 45 97          	lea    -0x69(%rbp),%rax
  4060f6:	48 89 c7             	mov    %rax,%rdi
  4060f9:	e8 ce df ff ff       	callq  4040cc <_ZNK5Eigen6QUInt8cviEv>
  4060fe:	66 0f ef c0          	pxor   %xmm0,%xmm0
  406102:	f3 0f 2a c0          	cvtsi2ss %eax,%xmm0
  406106:	f3 0f 10 4d b4       	movss  -0x4c(%rbp),%xmm1
  40610b:	0f 2e c8             	ucomiss %xmm0,%xmm1
  40610e:	73 19                	jae    406129 <_ZN2CK19get_random_raw_dataIN5Eigen6QUInt8EEEPT_RKNS_5ShapeES3_S3_+0xc1>
  406110:	b9 c0 95 40 00       	mov    $0x4095c0,%ecx
  406115:	ba ca 00 00 00       	mov    $0xca,%edx
  40611a:	be 38 93 40 00       	mov    $0x409338,%esi
  40611f:	bf a0 93 40 00       	mov    $0x4093a0,%edi
  406124:	e8 d7 cb ff ff       	callq  402d00 <__assert_fail@plt>
  406129:	48 8d 45 96          	lea    -0x6a(%rbp),%rax
  40612d:	48 89 c7             	mov    %rax,%rdi
  406130:	e8 97 df ff ff       	callq  4040cc <_ZNK5Eigen6QUInt8cviEv>
  406135:	66 0f ef c0          	pxor   %xmm0,%xmm0
  406139:	f3 0f 2a c0          	cvtsi2ss %eax,%xmm0
  40613d:	f3 0f 10 55 b4       	movss  -0x4c(%rbp),%xmm2
  406142:	f3 0f 10 0d 36 35 00 	movss  0x3536(%rip),%xmm1        # 409680 <_ZZN2CK2TF16process_metadataERKN10tensorflow11RunMetadataEPKcE19__PRETTY_FUNCTION__+0x60>
  406149:	00 
  40614a:	0f 57 ca             	xorps  %xmm2,%xmm1
  40614d:	0f 2e c1             	ucomiss %xmm1,%xmm0
  406150:	72 1e                	jb     406170 <_ZN2CK19get_random_raw_dataIN5Eigen6QUInt8EEEPT_RKNS_5ShapeES3_S3_+0x108>
  406152:	48 8d 45 96          	lea    -0x6a(%rbp),%rax
  406156:	48 89 c7             	mov    %rax,%rdi
  406159:	e8 6e df ff ff       	callq  4040cc <_ZNK5Eigen6QUInt8cviEv>
  40615e:	66 0f ef c0          	pxor   %xmm0,%xmm0
  406162:	f3 0f 2a c0          	cvtsi2ss %eax,%xmm0
  406166:	f3 0f 10 4d b4       	movss  -0x4c(%rbp),%xmm1
  40616b:	0f 2e c8             	ucomiss %xmm0,%xmm1
  40616e:	73 19                	jae    406189 <_ZN2CK19get_random_raw_dataIN5Eigen6QUInt8EEEPT_RKNS_5ShapeES3_S3_+0x121>
  406170:	b9 c0 95 40 00       	mov    $0x4095c0,%ecx
  406175:	ba cb 00 00 00       	mov    $0xcb,%edx
  40617a:	be 38 93 40 00       	mov    $0x409338,%esi
  40617f:	bf c8 93 40 00       	mov    $0x4093c8,%edi
  406184:	e8 77 cb ff ff       	callq  402d00 <__assert_fail@plt>
  406189:	ba 08 00 00 00       	mov    $0x8,%edx
  40618e:	be ee 93 40 00       	mov    $0x4093ee,%esi
  406193:	bf 09 00 00 00       	mov    $0x9,%edi
  406198:	e8 ef ed ff ff       	callq  404f8c <_ZN2CK13store_value_iEiPKci>
  40619d:	48 8b 45 98          	mov    -0x68(%rbp),%rax
  4061a1:	48 89 c7             	mov    %rax,%rdi
  4061a4:	e8 fd ec ff ff       	callq  404ea6 <_ZNK2CK5Shape10data_countEv>
  4061a9:	89 45 b8             	mov    %eax,-0x48(%rbp)
  4061ac:	8b 45 b8             	mov    -0x48(%rbp),%eax
  4061af:	48 98                	cltq   
  4061b1:	48 89 c7             	mov    %rax,%rdi
  4061b4:	e8 57 cf ff ff       	callq  403110 <_Znam@plt>
  4061b9:	49 89 c5             	mov    %rax,%r13
  4061bc:	4c 89 ea             	mov    %r13,%rdx
  4061bf:	8b 45 b8             	mov    -0x48(%rbp),%eax
  4061c2:	48 98                	cltq   
  4061c4:	48 83 e8 01          	sub    $0x1,%rax
  4061c8:	48 89 c3             	mov    %rax,%rbx
  4061cb:	49 89 d4             	mov    %rdx,%r12
  4061ce:	48 85 db             	test   %rbx,%rbx
  4061d1:	78 12                	js     4061e5 <_ZN2CK19get_random_raw_dataIN5Eigen6QUInt8EEEPT_RKNS_5ShapeES3_S3_+0x17d>
  4061d3:	4c 89 e7             	mov    %r12,%rdi
  4061d6:	e8 cb de ff ff       	callq  4040a6 <_ZN5Eigen6QUInt8C1Ev>
  4061db:	49 83 c4 01          	add    $0x1,%r12
  4061df:	48 83 eb 01          	sub    $0x1,%rbx
  4061e3:	eb e9                	jmp    4061ce <_ZN2CK19get_random_raw_dataIN5Eigen6QUInt8EEEPT_RKNS_5ShapeES3_S3_+0x166>
  4061e5:	4c 89 6d c0          	mov    %r13,-0x40(%rbp)
  4061e9:	48 8d 45 97          	lea    -0x69(%rbp),%rax
  4061ed:	48 89 c7             	mov    %rax,%rdi
  4061f0:	e8 d7 de ff ff       	callq  4040cc <_ZNK5Eigen6QUInt8cviEv>
  4061f5:	66 0f ef c0          	pxor   %xmm0,%xmm0
  4061f9:	f2 0f 2a c0          	cvtsi2sd %eax,%xmm0
  4061fd:	f2 0f 11 45 c8       	movsd  %xmm0,-0x38(%rbp)
  406202:	48 8d 45 96          	lea    -0x6a(%rbp),%rax
  406206:	48 89 c7             	mov    %rax,%rdi
  406209:	e8 be de ff ff       	callq  4040cc <_ZNK5Eigen6QUInt8cviEv>
  40620e:	66 0f ef c0          	pxor   %xmm0,%xmm0
  406212:	f2 0f 2a c0          	cvtsi2sd %eax,%xmm0
  406216:	f2 0f 11 45 d0       	movsd  %xmm0,-0x30(%rbp)
  40621b:	f2 0f 10 45 d0       	movsd  -0x30(%rbp),%xmm0
  406220:	f2 0f 5c 45 c8       	subsd  -0x38(%rbp),%xmm0
  406225:	f2 0f 5a d8          	cvtsd2ss %xmm0,%xmm3
  406229:	f3 0f 11 5d bc       	movss  %xmm3,-0x44(%rbp)
  40622e:	c7 45 b0 00 00 00 00 	movl   $0x0,-0x50(%rbp)
  406235:	8b 45 b0             	mov    -0x50(%rbp),%eax
  406238:	3b 45 b8             	cmp    -0x48(%rbp),%eax
  40623b:	7d 42                	jge    40627f <_ZN2CK19get_random_raw_dataIN5Eigen6QUInt8EEEPT_RKNS_5ShapeES3_S3_+0x217>
  40623d:	8b 45 b0             	mov    -0x50(%rbp),%eax
  406240:	48 63 d0             	movslq %eax,%rdx
  406243:	48 8b 45 c0          	mov    -0x40(%rbp),%rax
  406247:	48 8d 1c 02          	lea    (%rdx,%rax,1),%rbx
  40624b:	e8 3f ef ff ff       	callq  40518f <_ZN2CK12get_random_fEv>
  406250:	f3 0f 59 45 bc       	mulss  -0x44(%rbp),%xmm0
  406255:	f3 0f 5a c0          	cvtss2sd %xmm0,%xmm0
  406259:	f2 0f 58 45 c8       	addsd  -0x38(%rbp),%xmm0
  40625e:	f2 0f 2c c0          	cvttsd2si %xmm0,%eax
  406262:	0f b6 d0             	movzbl %al,%edx
  406265:	48 8d 45 af          	lea    -0x51(%rbp),%rax
  406269:	89 d6                	mov    %edx,%esi
  40626b:	48 89 c7             	mov    %rax,%rdi
  40626e:	e8 3f de ff ff       	callq  4040b2 <_ZN5Eigen6QUInt8C1Eh>
  406273:	0f b6 45 af          	movzbl -0x51(%rbp),%eax
  406277:	88 03                	mov    %al,(%rbx)
  406279:	83 45 b0 01          	addl   $0x1,-0x50(%rbp)
  40627d:	eb b6                	jmp    406235 <_ZN2CK19get_random_raw_dataIN5Eigen6QUInt8EEEPT_RKNS_5ShapeES3_S3_+0x1cd>
  40627f:	48 8b 45 c0          	mov    -0x40(%rbp),%rax
  406283:	48 8b 4d d8          	mov    -0x28(%rbp),%rcx
  406287:	64 48 33 0c 25 28 00 	xor    %fs:0x28,%rcx
  40628e:	00 00 
  406290:	74 05                	je     406297 <_ZN2CK19get_random_raw_dataIN5Eigen6QUInt8EEEPT_RKNS_5ShapeES3_S3_+0x22f>
  406292:	e8 79 ca ff ff       	callq  402d10 <__stack_chk_fail@plt>
  406297:	48 83 c4 58          	add    $0x58,%rsp
  40629b:	5b                   	pop    %rbx
  40629c:	41 5c                	pop    %r12
  40629e:	41 5d                	pop    %r13
  4062a0:	5d                   	pop    %rbp
  4062a1:	c3                   	retq   

00000000004062a2 <_ZN2CK20print_input_raw_dataIN5Eigen6QUInt8EEEvPT_RKNS_5ShapeE>:
  4062a2:	55                   	push   %rbp
  4062a3:	48 89 e5             	mov    %rsp,%rbp
  4062a6:	48 83 ec 10          	sub    $0x10,%rsp
  4062aa:	48 89 7d f8          	mov    %rdi,-0x8(%rbp)
  4062ae:	48 89 75 f0          	mov    %rsi,-0x10(%rbp)
  4062b2:	48 8b 75 f0          	mov    -0x10(%rbp),%rsi
  4062b6:	48 8b 45 f8          	mov    -0x8(%rbp),%rax
  4062ba:	b9 f8 93 40 00       	mov    $0x4093f8,%ecx
  4062bf:	ba fe 93 40 00       	mov    $0x4093fe,%edx
  4062c4:	48 89 c7             	mov    %rax,%rdi
  4062c7:	e8 54 0c 00 00       	callq  406f20 <_ZN2CK12log_raw_dataIN5Eigen6QUInt8EEEvPT_RKNS_5ShapeEPKcS9_>
  4062cc:	90                   	nop
  4062cd:	c9                   	leaveq 
  4062ce:	c3                   	retq   
  4062cf:	90                   	nop

00000000004062d0 <_ZN10tensorflow6Tensor4flatIN5Eigen6QUInt8EEENS_6TTypesIT_Li1ElE4FlatEv>:
  4062d0:	55                   	push   %rbp
  4062d1:	48 89 e5             	mov    %rsp,%rbp
  4062d4:	41 55                	push   %r13
  4062d6:	41 54                	push   %r12
  4062d8:	53                   	push   %rbx
  4062d9:	48 83 ec 38          	sub    $0x38,%rsp
  4062dd:	48 89 7d b8          	mov    %rdi,-0x48(%rbp)
  4062e1:	64 48 8b 04 25 28 00 	mov    %fs:0x28,%rax
  4062e8:	00 00 
  4062ea:	48 89 45 d8          	mov    %rax,-0x28(%rbp)
  4062ee:	31 c0                	xor    %eax,%eax
  4062f0:	48 8b 45 b8          	mov    -0x48(%rbp),%rax
  4062f4:	48 89 c7             	mov    %rax,%rdi
  4062f7:	e8 26 e5 ff ff       	callq  404822 <_ZNK10tensorflow6Tensor11NumElementsEv>
  4062fc:	48 89 45 d0          	mov    %rax,-0x30(%rbp)
  406300:	48 8d 45 d0          	lea    -0x30(%rbp),%rax
  406304:	49 89 c4             	mov    %rax,%r12
  406307:	41 bd 01 00 00 00    	mov    $0x1,%r13d
  40630d:	4c 89 e1             	mov    %r12,%rcx
  406310:	4c 89 eb             	mov    %r13,%rbx
  406313:	4c 89 e0             	mov    %r12,%rax
  406316:	4c 89 ea             	mov    %r13,%rdx
  406319:	48 8d 45 c0          	lea    -0x40(%rbp),%rax
  40631d:	48 89 ce             	mov    %rcx,%rsi
  406320:	48 89 c7             	mov    %rax,%rdi
  406323:	e8 a2 0b 00 00       	callq  406eca <_ZN10tensorflow3gtl10ArraySliceIxEC1ESt16initializer_listIxE>
  406328:	48 8b 4d c0          	mov    -0x40(%rbp),%rcx
  40632c:	48 8b 55 c8          	mov    -0x38(%rbp),%rdx
  406330:	48 8b 45 b8          	mov    -0x48(%rbp),%rax
  406334:	48 89 ce             	mov    %rcx,%rsi
  406337:	48 89 c7             	mov    %rax,%rdi
  40633a:	e8 59 0c 00 00       	callq  406f98 <_ZN10tensorflow6Tensor6shapedIN5Eigen6QUInt8ELm1EEENS_6TTypesIT_XT0_ElE6TensorENS_3gtl10ArraySliceIxEE>
  40633f:	48 8b 5d d8          	mov    -0x28(%rbp),%rbx
  406343:	64 48 33 1c 25 28 00 	xor    %fs:0x28,%rbx
  40634a:	00 00 
  40634c:	74 05                	je     406353 <_ZN10tensorflow6Tensor4flatIN5Eigen6QUInt8EEENS_6TTypesIT_Li1ElE4FlatEv+0x83>
  40634e:	e8 bd c9 ff ff       	callq  402d10 <__stack_chk_fail@plt>
  406353:	48 83 c4 38          	add    $0x38,%rsp
  406357:	5b                   	pop    %rbx
  406358:	41 5c                	pop    %r12
  40635a:	41 5d                	pop    %r13
  40635c:	5d                   	pop    %rbp
  40635d:	c3                   	retq   

000000000040635e <_ZN5Eigen9TensorMapINS_6TensorINS_6QUInt8ELi1ELi1ElEELi16ENS_11MakePointerEE4dataEv>:
  40635e:	55                   	push   %rbp
  40635f:	48 89 e5             	mov    %rsp,%rbp
  406362:	48 89 7d f8          	mov    %rdi,-0x8(%rbp)
  406366:	48 8b 45 f8          	mov    -0x8(%rbp),%rax
  40636a:	48 8b 00             	mov    (%rax),%rax
  40636d:	5d                   	pop    %rbp
  40636e:	c3                   	retq   
  40636f:	90                   	nop

0000000000406370 <_ZNSt6vectorIN10tensorflow6TensorESaIS1_EEC1Ev>:
  406370:	55                   	push   %rbp
  406371:	48 89 e5             	mov    %rsp,%rbp
  406374:	48 83 ec 10          	sub    $0x10,%rsp
  406378:	48 89 7d f8          	mov    %rdi,-0x8(%rbp)
  40637c:	48 8b 45 f8          	mov    -0x8(%rbp),%rax
  406380:	48 89 c7             	mov    %rax,%rdi
  406383:	e8 c6 0c 00 00       	callq  40704e <_ZNSt12_Vector_baseIN10tensorflow6TensorESaIS1_EEC1Ev>
  406388:	90                   	nop
  406389:	c9                   	leaveq 
  40638a:	c3                   	retq   
  40638b:	90                   	nop

000000000040638c <_ZNSt6vectorIN10tensorflow6TensorESaIS1_EED1Ev>:
  40638c:	55                   	push   %rbp
  40638d:	48 89 e5             	mov    %rsp,%rbp
  406390:	48 83 ec 10          	sub    $0x10,%rsp
  406394:	48 89 7d f8          	mov    %rdi,-0x8(%rbp)
  406398:	48 8b 45 f8          	mov    -0x8(%rbp),%rax
  40639c:	48 89 c7             	mov    %rax,%rdi
  40639f:	e8 16 0d 00 00       	callq  4070ba <_ZNSt12_Vector_baseIN10tensorflow6TensorESaIS1_EE19_M_get_Tp_allocatorEv>
  4063a4:	48 89 c2             	mov    %rax,%rdx
  4063a7:	48 8b 45 f8          	mov    -0x8(%rbp),%rax
  4063ab:	48 8b 48 08          	mov    0x8(%rax),%rcx
  4063af:	48 8b 45 f8          	mov    -0x8(%rbp),%rax
  4063b3:	48 8b 00             	mov    (%rax),%rax
  4063b6:	48 89 ce             	mov    %rcx,%rsi
  4063b9:	48 89 c7             	mov    %rax,%rdi
  4063bc:	e8 07 0d 00 00       	callq  4070c8 <_ZSt8_DestroyIPN10tensorflow6TensorES1_EvT_S3_RSaIT0_E>
  4063c1:	48 8b 45 f8          	mov    -0x8(%rbp),%rax
  4063c5:	48 89 c7             	mov    %rax,%rdi
  4063c8:	e8 9d 0c 00 00       	callq  40706a <_ZNSt12_Vector_baseIN10tensorflow6TensorESaIS1_EED1Ev>
  4063cd:	90                   	nop
  4063ce:	c9                   	leaveq 
  4063cf:	c3                   	retq   

00000000004063d0 <_ZNSaINSt8__detail10_Hash_nodeISt4pairIKN10tensorflow6OutputENS2_5Input11InitializerEELb1EEEEC1Ev>:
  4063d0:	55                   	push   %rbp
  4063d1:	48 89 e5             	mov    %rsp,%rbp
  4063d4:	48 83 ec 10          	sub    $0x10,%rsp
  4063d8:	48 89 7d f8          	mov    %rdi,-0x8(%rbp)
  4063dc:	48 8b 45 f8          	mov    -0x8(%rbp),%rax
  4063e0:	48 89 c7             	mov    %rax,%rdi
  4063e3:	e8 0a 0d 00 00       	callq  4070f2 <_ZN9__gnu_cxx13new_allocatorINSt8__detail10_Hash_nodeISt4pairIKN10tensorflow6OutputENS4_5Input11InitializerEELb1EEEEC1Ev>
  4063e8:	90                   	nop
  4063e9:	c9                   	leaveq 
  4063ea:	c3                   	retq   
  4063eb:	90                   	nop

00000000004063ec <_ZNSaINSt8__detail10_Hash_nodeISt4pairIKN10tensorflow6OutputENS2_5Input11InitializerEELb1EEEED1Ev>:
  4063ec:	55                   	push   %rbp
  4063ed:	48 89 e5             	mov    %rsp,%rbp
  4063f0:	48 83 ec 10          	sub    $0x10,%rsp
  4063f4:	48 89 7d f8          	mov    %rdi,-0x8(%rbp)
  4063f8:	48 8b 45 f8          	mov    -0x8(%rbp),%rax
  4063fc:	48 89 c7             	mov    %rax,%rdi
  4063ff:	e8 fa 0c 00 00       	callq  4070fe <_ZN9__gnu_cxx13new_allocatorINSt8__detail10_Hash_nodeISt4pairIKN10tensorflow6OutputENS4_5Input11InitializerEELb1EEEED1Ev>
  406404:	90                   	nop
  406405:	c9                   	leaveq 
  406406:	c3                   	retq   
  406407:	90                   	nop

0000000000406408 <_ZNSt10_HashtableIN10tensorflow6OutputESt4pairIKS1_NS0_5Input11InitializerEESaIS6_ENSt8__detail10_Select1stESt8equal_toIS1_ENS0_10OutputHashENS8_18_Mod_range_hashingENS8_20_Default_ranged_hashENS8_20_Prime_rehash_policyENS8_17_Hashtable_traitsILb1ELb0ELb1EEEED1Ev>:
  406408:	55                   	push   %rbp
  406409:	48 89 e5             	mov    %rsp,%rbp
  40640c:	48 83 ec 10          	sub    $0x10,%rsp
  406410:	48 89 7d f8          	mov    %rdi,-0x8(%rbp)
  406414:	48 8b 45 f8          	mov    -0x8(%rbp),%rax
  406418:	48 89 c7             	mov    %rax,%rdi
  40641b:	e8 ea 0c 00 00       	callq  40710a <_ZNSt10_HashtableIN10tensorflow6OutputESt4pairIKS1_NS0_5Input11InitializerEESaIS6_ENSt8__detail10_Select1stESt8equal_toIS1_ENS0_10OutputHashENS8_18_Mod_range_hashingENS8_20_Default_ranged_hashENS8_20_Prime_rehash_policyENS8_17_Hashtable_traitsILb1ELb0ELb1EEEE5clearEv>
  406420:	48 8b 45 f8          	mov    -0x8(%rbp),%rax
  406424:	48 89 c7             	mov    %rax,%rdi
  406427:	e8 48 0d 00 00       	callq  407174 <_ZNSt10_HashtableIN10tensorflow6OutputESt4pairIKS1_NS0_5Input11InitializerEESaIS6_ENSt8__detail10_Select1stESt8equal_toIS1_ENS0_10OutputHashENS8_18_Mod_range_hashingENS8_20_Default_ranged_hashENS8_20_Prime_rehash_policyENS8_17_Hashtable_traitsILb1ELb0ELb1EEEE21_M_deallocate_bucketsEv>
  40642c:	48 8b 45 f8          	mov    -0x8(%rbp),%rax
  406430:	48 89 c7             	mov    %rax,%rdi
  406433:	e8 80 f3 ff ff       	callq  4057b8 <_ZNSt8__detail16_Hashtable_allocISaINS_10_Hash_nodeISt4pairIKN10tensorflow6OutputENS3_5Input11InitializerEELb1EEEEED1Ev>
  406438:	90                   	nop
  406439:	c9                   	leaveq 
  40643a:	c3                   	retq   
  40643b:	90                   	nop

000000000040643c <_ZNSaIN10tensorflow6OutputEEC1Ev>:
  40643c:	55                   	push   %rbp
  40643d:	48 89 e5             	mov    %rsp,%rbp
