
softmax:     file format elf64-x86-64


Disassembly of section .init:

0000000000403d78 <_init>:
  403d78:	48 83 ec 08          	sub    $0x8,%rsp
  403d7c:	48 8b 05 75 c2 20 00 	mov    0x20c275(%rip),%rax        # 60fff8 <_DYNAMIC+0x220>
  403d83:	48 85 c0             	test   %rax,%rax
  403d86:	74 05                	je     403d8d <_init+0x15>
  403d88:	e8 13 05 00 00       	callq  4042a0 <_ZN5caffe4BlobIfE9FromProtoERKNS_9BlobProtoEb@plt+0x10>
  403d8d:	48 83 c4 08          	add    $0x8,%rsp
  403d91:	c3                   	retq   

Disassembly of section .plt:

0000000000403da0 <xopenme_init@plt-0x10>:
  403da0:	ff 35 62 c2 20 00    	pushq  0x20c262(%rip)        # 610008 <_GLOBAL_OFFSET_TABLE_+0x8>
  403da6:	ff 25 64 c2 20 00    	jmpq   *0x20c264(%rip)        # 610010 <_GLOBAL_OFFSET_TABLE_+0x10>
  403dac:	0f 1f 40 00          	nopl   0x0(%rax)

0000000000403db0 <xopenme_init@plt>:
  403db0:	ff 25 62 c2 20 00    	jmpq   *0x20c262(%rip)        # 610018 <_GLOBAL_OFFSET_TABLE_+0x18>
  403db6:	68 00 00 00 00       	pushq  $0x0
  403dbb:	e9 e0 ff ff ff       	jmpq   403da0 <_init+0x28>

0000000000403dc0 <xopenme_add_var_f@plt>:
  403dc0:	ff 25 5a c2 20 00    	jmpq   *0x20c25a(%rip)        # 610020 <_GLOBAL_OFFSET_TABLE_+0x20>
  403dc6:	68 01 00 00 00       	pushq  $0x1
  403dcb:	e9 d0 ff ff ff       	jmpq   403da0 <_init+0x28>

0000000000403dd0 <_ZN5caffe16SoftmaxParameterC1Ev@plt>:
  403dd0:	ff 25 52 c2 20 00    	jmpq   *0x20c252(%rip)        # 610028 <_GLOBAL_OFFSET_TABLE_+0x28>
  403dd6:	68 02 00 00 00       	pushq  $0x2
  403ddb:	e9 c0 ff ff ff       	jmpq   403da0 <_init+0x28>

0000000000403de0 <__cxa_begin_catch@plt>:
  403de0:	ff 25 4a c2 20 00    	jmpq   *0x20c24a(%rip)        # 610030 <_GLOBAL_OFFSET_TABLE_+0x30>
  403de6:	68 03 00 00 00       	pushq  $0x3
  403deb:	e9 b0 ff ff ff       	jmpq   403da0 <_init+0x28>

0000000000403df0 <_ZN5caffe14LayerParameterC1Ev@plt>:
  403df0:	ff 25 42 c2 20 00    	jmpq   *0x20c242(%rip)        # 610038 <_GLOBAL_OFFSET_TABLE_+0x38>
  403df6:	68 04 00 00 00       	pushq  $0x4
  403dfb:	e9 a0 ff ff ff       	jmpq   403da0 <_init+0x28>

0000000000403e00 <printf@plt>:
  403e00:	ff 25 3a c2 20 00    	jmpq   *0x20c23a(%rip)        # 610040 <_GLOBAL_OFFSET_TABLE_+0x40>
  403e06:	68 05 00 00 00       	pushq  $0x5
  403e0b:	e9 90 ff ff ff       	jmpq   403da0 <_init+0x28>

0000000000403e10 <_ZN6google4base21CheckOpMessageBuilder7ForVar2Ev@plt>:
  403e10:	ff 25 32 c2 20 00    	jmpq   *0x20c232(%rip)        # 610048 <_GLOBAL_OFFSET_TABLE_+0x48>
  403e16:	68 06 00 00 00       	pushq  $0x6
  403e1b:	e9 80 ff ff ff       	jmpq   403da0 <_init+0x28>

0000000000403e20 <memcpy@plt>:
  403e20:	ff 25 2a c2 20 00    	jmpq   *0x20c22a(%rip)        # 610050 <_GLOBAL_OFFSET_TABLE_+0x50>
  403e26:	68 07 00 00 00       	pushq  $0x7
  403e2b:	e9 70 ff ff ff       	jmpq   403da0 <_init+0x28>

0000000000403e30 <_ZSt17__throw_bad_allocv@plt>:
  403e30:	ff 25 22 c2 20 00    	jmpq   *0x20c222(%rip)        # 610058 <_GLOBAL_OFFSET_TABLE_+0x58>
  403e36:	68 08 00 00 00       	pushq  $0x8
  403e3b:	e9 60 ff ff ff       	jmpq   403da0 <_init+0x28>

0000000000403e40 <_ZN6google4base21CheckOpMessageBuilderC1EPKc@plt>:
  403e40:	ff 25 1a c2 20 00    	jmpq   *0x20c21a(%rip)        # 610060 <_GLOBAL_OFFSET_TABLE_+0x60>
  403e46:	68 09 00 00 00       	pushq  $0x9
  403e4b:	e9 50 ff ff ff       	jmpq   403da0 <_init+0x28>

0000000000403e50 <_Znwm@plt>:
  403e50:	ff 25 12 c2 20 00    	jmpq   *0x20c212(%rip)        # 610068 <_GLOBAL_OFFSET_TABLE_+0x68>
  403e56:	68 0a 00 00 00       	pushq  $0xa
  403e5b:	e9 40 ff ff ff       	jmpq   403da0 <_init+0x28>

0000000000403e60 <memmove@plt>:
  403e60:	ff 25 0a c2 20 00    	jmpq   *0x20c20a(%rip)        # 610070 <_GLOBAL_OFFSET_TABLE_+0x70>
  403e66:	68 0b 00 00 00       	pushq  $0xb
  403e6b:	e9 30 ff ff ff       	jmpq   403da0 <_init+0x28>

0000000000403e70 <__assert_fail@plt>:
  403e70:	ff 25 02 c2 20 00    	jmpq   *0x20c202(%rip)        # 610078 <_GLOBAL_OFFSET_TABLE_+0x78>
  403e76:	68 0c 00 00 00       	pushq  $0xc
  403e7b:	e9 20 ff ff ff       	jmpq   403da0 <_init+0x28>

0000000000403e80 <_ZN5caffe14LayerParameter8CopyFromERKS0_@plt>:
  403e80:	ff 25 fa c1 20 00    	jmpq   *0x20c1fa(%rip)        # 610080 <_GLOBAL_OFFSET_TABLE_+0x80>
  403e86:	68 0d 00 00 00       	pushq  $0xd
  403e8b:	e9 10 ff ff ff       	jmpq   403da0 <_init+0x28>

0000000000403e90 <_ZN5caffe4BlobIfE16mutable_cpu_dataEv@plt>:
  403e90:	ff 25 f2 c1 20 00    	jmpq   *0x20c1f2(%rip)        # 610088 <_GLOBAL_OFFSET_TABLE_+0x88>
  403e96:	68 0e 00 00 00       	pushq  $0xe
  403e9b:	e9 00 ff ff ff       	jmpq   403da0 <_init+0x28>

0000000000403ea0 <_ZN5caffe4BlobIfE16mutable_cpu_diffEv@plt>:
  403ea0:	ff 25 ea c1 20 00    	jmpq   *0x20c1ea(%rip)        # 610090 <_GLOBAL_OFFSET_TABLE_+0x90>
  403ea6:	68 0f 00 00 00       	pushq  $0xf
  403eab:	e9 f0 fe ff ff       	jmpq   403da0 <_init+0x28>

0000000000403eb0 <__stack_chk_fail@plt>:
  403eb0:	ff 25 e2 c1 20 00    	jmpq   *0x20c1e2(%rip)        # 610098 <_GLOBAL_OFFSET_TABLE_+0x98>
  403eb6:	68 10 00 00 00       	pushq  $0x10
  403ebb:	e9 e0 fe ff ff       	jmpq   403da0 <_init+0x28>

0000000000403ec0 <_ZN6google4base21CheckOpMessageBuilderD1Ev@plt>:
  403ec0:	ff 25 da c1 20 00    	jmpq   *0x20c1da(%rip)        # 6100a0 <_GLOBAL_OFFSET_TABLE_+0xa0>
  403ec6:	68 11 00 00 00       	pushq  $0x11
  403ecb:	e9 d0 fe ff ff       	jmpq   403da0 <_init+0x28>

0000000000403ed0 <_ZNSolsEi@plt>:
  403ed0:	ff 25 d2 c1 20 00    	jmpq   *0x20c1d2(%rip)        # 6100a8 <_GLOBAL_OFFSET_TABLE_+0xa8>
  403ed6:	68 12 00 00 00       	pushq  $0x12
  403edb:	e9 c0 fe ff ff       	jmpq   403da0 <_init+0x28>

0000000000403ee0 <_ZN6google8protobuf5Arena11AddListNodeEPvPFvS2_E@plt>:
  403ee0:	ff 25 ca c1 20 00    	jmpq   *0x20c1ca(%rip)        # 6100b0 <_GLOBAL_OFFSET_TABLE_+0xb0>
  403ee6:	68 13 00 00 00       	pushq  $0x13
  403eeb:	e9 b0 fe ff ff       	jmpq   403da0 <_init+0x28>

0000000000403ef0 <atoi@plt>:
  403ef0:	ff 25 c2 c1 20 00    	jmpq   *0x20c1c2(%rip)        # 6100b8 <_GLOBAL_OFFSET_TABLE_+0xb8>
  403ef6:	68 14 00 00 00       	pushq  $0x14
  403efb:	e9 a0 fe ff ff       	jmpq   403da0 <_init+0x28>

0000000000403f00 <_ZdaPv@plt>:
  403f00:	ff 25 ba c1 20 00    	jmpq   *0x20c1ba(%rip)        # 6100c0 <_GLOBAL_OFFSET_TABLE_+0xc0>
  403f06:	68 15 00 00 00       	pushq  $0x15
  403f0b:	e9 90 fe ff ff       	jmpq   403da0 <_init+0x28>

0000000000403f10 <strlen@plt>:
  403f10:	ff 25 b2 c1 20 00    	jmpq   *0x20c1b2(%rip)        # 6100c8 <_GLOBAL_OFFSET_TABLE_+0xc8>
  403f16:	68 16 00 00 00       	pushq  $0x16
  403f1b:	e9 80 fe ff ff       	jmpq   403da0 <_init+0x28>

0000000000403f20 <_Znam@plt>:
  403f20:	ff 25 aa c1 20 00    	jmpq   *0x20c1aa(%rip)        # 6100d0 <_GLOBAL_OFFSET_TABLE_+0xd0>
  403f26:	68 17 00 00 00       	pushq  $0x17
  403f2b:	e9 70 fe ff ff       	jmpq   403da0 <_init+0x28>

0000000000403f30 <xopenme_add_var_i@plt>:
  403f30:	ff 25 a2 c1 20 00    	jmpq   *0x20c1a2(%rip)        # 6100d8 <_GLOBAL_OFFSET_TABLE_+0xd8>
  403f36:	68 18 00 00 00       	pushq  $0x18
  403f3b:	e9 60 fe ff ff       	jmpq   403da0 <_init+0x28>

0000000000403f40 <xopenme_get_timer@plt>:
  403f40:	ff 25 9a c1 20 00    	jmpq   *0x20c19a(%rip)        # 6100e0 <_GLOBAL_OFFSET_TABLE_+0xe0>
  403f46:	68 19 00 00 00       	pushq  $0x19
  403f4b:	e9 50 fe ff ff       	jmpq   403da0 <_init+0x28>

0000000000403f50 <xopenme_clock_end@plt>:
  403f50:	ff 25 92 c1 20 00    	jmpq   *0x20c192(%rip)        # 6100e8 <_GLOBAL_OFFSET_TABLE_+0xe8>
  403f56:	68 1a 00 00 00       	pushq  $0x1a
  403f5b:	e9 40 fe ff ff       	jmpq   403da0 <_init+0x28>

0000000000403f60 <_ZdlPv@plt>:
  403f60:	ff 25 8a c1 20 00    	jmpq   *0x20c18a(%rip)        # 6100f0 <_GLOBAL_OFFSET_TABLE_+0xf0>
  403f66:	68 1b 00 00 00       	pushq  $0x1b
  403f6b:	e9 30 fe ff ff       	jmpq   403da0 <_init+0x28>

0000000000403f70 <_ZN5caffe12SoftmaxLayerIfE11Forward_cpuERKSt6vectorIPNS_4BlobIfEESaIS5_EES9_@plt>:
  403f70:	ff 25 82 c1 20 00    	jmpq   *0x20c182(%rip)        # 6100f8 <_GLOBAL_OFFSET_TABLE_+0xf8>
  403f76:	68 1c 00 00 00       	pushq  $0x1c
  403f7b:	e9 20 fe ff ff       	jmpq   403da0 <_init+0x28>

0000000000403f80 <_ZStlsISt11char_traitsIcEERSt13basic_ostreamIcT_ES5_PKc@plt>:
  403f80:	ff 25 7a c1 20 00    	jmpq   *0x20c17a(%rip)        # 610100 <_GLOBAL_OFFSET_TABLE_+0x100>
  403f86:	68 1d 00 00 00       	pushq  $0x1d
  403f8b:	e9 10 fe ff ff       	jmpq   403da0 <_init+0x28>

0000000000403f90 <xopenme_clock_start@plt>:
  403f90:	ff 25 72 c1 20 00    	jmpq   *0x20c172(%rip)        # 610108 <_GLOBAL_OFFSET_TABLE_+0x108>
  403f96:	68 1e 00 00 00       	pushq  $0x1e
  403f9b:	e9 00 fe ff ff       	jmpq   403da0 <_init+0x28>

0000000000403fa0 <_ZN6google8protobuf8internal10LogMessageC1ENS0_8LogLevelEPKci@plt>:
  403fa0:	ff 25 6a c1 20 00    	jmpq   *0x20c16a(%rip)        # 610110 <_GLOBAL_OFFSET_TABLE_+0x110>
  403fa6:	68 1f 00 00 00       	pushq  $0x1f
  403fab:	e9 f0 fd ff ff       	jmpq   403da0 <_init+0x28>

0000000000403fb0 <__gxx_personality_v0@plt>:
  403fb0:	ff 25 62 c1 20 00    	jmpq   *0x20c162(%rip)        # 610118 <_GLOBAL_OFFSET_TABLE_+0x118>
  403fb6:	68 20 00 00 00       	pushq  $0x20
  403fbb:	e9 e0 fd ff ff       	jmpq   403da0 <_init+0x28>

0000000000403fc0 <_ZSt20__throw_length_errorPKc@plt>:
  403fc0:	ff 25 5a c1 20 00    	jmpq   *0x20c15a(%rip)        # 610120 <_GLOBAL_OFFSET_TABLE_+0x120>
  403fc6:	68 21 00 00 00       	pushq  $0x21
  403fcb:	e9 d0 fd ff ff       	jmpq   403da0 <_init+0x28>

0000000000403fd0 <_ZNK5caffe4BlobIfE8cpu_dataEv@plt>:
  403fd0:	ff 25 52 c1 20 00    	jmpq   *0x20c152(%rip)        # 610128 <_GLOBAL_OFFSET_TABLE_+0x128>
  403fd6:	68 22 00 00 00       	pushq  $0x22
  403fdb:	e9 c0 fd ff ff       	jmpq   403da0 <_init+0x28>

0000000000403fe0 <_ZN6google15LogMessageFatalC1EPKciRKNS_13CheckOpStringE@plt>:
  403fe0:	ff 25 4a c1 20 00    	jmpq   *0x20c14a(%rip)        # 610130 <_GLOBAL_OFFSET_TABLE_+0x130>
  403fe6:	68 23 00 00 00       	pushq  $0x23
  403feb:	e9 b0 fd ff ff       	jmpq   403da0 <_init+0x28>

0000000000403ff0 <_Unwind_Resume@plt>:
  403ff0:	ff 25 42 c1 20 00    	jmpq   *0x20c142(%rip)        # 610138 <_GLOBAL_OFFSET_TABLE_+0x138>
  403ff6:	68 24 00 00 00       	pushq  $0x24
  403ffb:	e9 a0 fd ff ff       	jmpq   403da0 <_init+0x28>

0000000000404000 <_ZNSt8ios_base4InitD1Ev@plt>:
  404000:	ff 25 3a c1 20 00    	jmpq   *0x20c13a(%rip)        # 610140 <_GLOBAL_OFFSET_TABLE_+0x140>
  404006:	68 25 00 00 00       	pushq  $0x25
  40400b:	e9 90 fd ff ff       	jmpq   403da0 <_init+0x28>

0000000000404010 <_ZN5caffe9BlobProtoC1Ev@plt>:
  404010:	ff 25 32 c1 20 00    	jmpq   *0x20c132(%rip)        # 610148 <_GLOBAL_OFFSET_TABLE_+0x148>
  404016:	68 26 00 00 00       	pushq  $0x26
  40401b:	e9 80 fd ff ff       	jmpq   403da0 <_init+0x28>

0000000000404020 <_ZN5caffe12SoftmaxLayerIfE12Backward_cpuERKSt6vectorIPNS_4BlobIfEESaIS5_EERKS2_IbSaIbEES9_@plt>:
  404020:	ff 25 2a c1 20 00    	jmpq   *0x20c12a(%rip)        # 610150 <_GLOBAL_OFFSET_TABLE_+0x150>
  404026:	68 27 00 00 00       	pushq  $0x27
  40402b:	e9 70 fd ff ff       	jmpq   403da0 <_init+0x28>

0000000000404030 <_ZNK5caffe4BlobIfE8cpu_diffEv@plt>:
  404030:	ff 25 22 c1 20 00    	jmpq   *0x20c122(%rip)        # 610158 <_GLOBAL_OFFSET_TABLE_+0x158>
  404036:	68 28 00 00 00       	pushq  $0x28
  40403b:	e9 60 fd ff ff       	jmpq   403da0 <_init+0x28>

0000000000404040 <_ZN5caffe9caffe_setIfEEviT_PS1_@plt>:
  404040:	ff 25 1a c1 20 00    	jmpq   *0x20c11a(%rip)        # 610160 <_GLOBAL_OFFSET_TABLE_+0x160>
  404046:	68 29 00 00 00       	pushq  $0x29
  40404b:	e9 50 fd ff ff       	jmpq   403da0 <_init+0x28>

0000000000404050 <getenv@plt>:
  404050:	ff 25 12 c1 20 00    	jmpq   *0x20c112(%rip)        # 610168 <_GLOBAL_OFFSET_TABLE_+0x168>
  404056:	68 2a 00 00 00       	pushq  $0x2a
  40405b:	e9 40 fd ff ff       	jmpq   403da0 <_init+0x28>

0000000000404060 <__cxa_end_catch@plt>:
  404060:	ff 25 0a c1 20 00    	jmpq   *0x20c10a(%rip)        # 610170 <_GLOBAL_OFFSET_TABLE_+0x170>
  404066:	68 2b 00 00 00       	pushq  $0x2b
  40406b:	e9 30 fd ff ff       	jmpq   403da0 <_init+0x28>

0000000000404070 <_ZN6google8protobuf5Arena15AllocateAlignedEPKSt9type_infom@plt>:
  404070:	ff 25 02 c1 20 00    	jmpq   *0x20c102(%rip)        # 610178 <_GLOBAL_OFFSET_TABLE_+0x178>
  404076:	68 2c 00 00 00       	pushq  $0x2c
  40407b:	e9 20 fd ff ff       	jmpq   403da0 <_init+0x28>

0000000000404080 <_ZN6google8protobuf8internal11LogFinisheraSERNS1_10LogMessageE@plt>:
  404080:	ff 25 fa c0 20 00    	jmpq   *0x20c0fa(%rip)        # 610180 <_GLOBAL_OFFSET_TABLE_+0x180>
  404086:	68 2d 00 00 00       	pushq  $0x2d
  40408b:	e9 10 fd ff ff       	jmpq   403da0 <_init+0x28>

0000000000404090 <__cxa_rethrow@plt>:
  404090:	ff 25 f2 c0 20 00    	jmpq   *0x20c0f2(%rip)        # 610188 <_GLOBAL_OFFSET_TABLE_+0x188>
  404096:	68 2e 00 00 00       	pushq  $0x2e
  40409b:	e9 00 fd ff ff       	jmpq   403da0 <_init+0x28>

00000000004040a0 <__cxa_throw_bad_array_new_length@plt>:
  4040a0:	ff 25 ea c0 20 00    	jmpq   *0x20c0ea(%rip)        # 610190 <_GLOBAL_OFFSET_TABLE_+0x190>
  4040a6:	68 2f 00 00 00       	pushq  $0x2f
  4040ab:	e9 f0 fc ff ff       	jmpq   403da0 <_init+0x28>

00000000004040b0 <_ZN5caffe5Caffe3GetEv@plt>:
  4040b0:	ff 25 e2 c0 20 00    	jmpq   *0x20c0e2(%rip)        # 610198 <_GLOBAL_OFFSET_TABLE_+0x198>
  4040b6:	68 30 00 00 00       	pushq  $0x30
  4040bb:	e9 e0 fc ff ff       	jmpq   403da0 <_init+0x28>

00000000004040c0 <_ZN5caffe12SyncedMemory8cpu_dataEv@plt>:
  4040c0:	ff 25 da c0 20 00    	jmpq   *0x20c0da(%rip)        # 6101a0 <_GLOBAL_OFFSET_TABLE_+0x1a0>
  4040c6:	68 31 00 00 00       	pushq  $0x31
  4040cb:	e9 d0 fc ff ff       	jmpq   403da0 <_init+0x28>

00000000004040d0 <__cxa_atexit@plt>:
  4040d0:	ff 25 d2 c0 20 00    	jmpq   *0x20c0d2(%rip)        # 6101a8 <_GLOBAL_OFFSET_TABLE_+0x1a8>
  4040d6:	68 32 00 00 00       	pushq  $0x32
  4040db:	e9 c0 fc ff ff       	jmpq   403da0 <_init+0x28>

00000000004040e0 <_ZN6google15LogMessageFatalD1Ev@plt>:
  4040e0:	ff 25 ca c0 20 00    	jmpq   *0x20c0ca(%rip)        # 6101b0 <_GLOBAL_OFFSET_TABLE_+0x1b0>
  4040e6:	68 33 00 00 00       	pushq  $0x33
  4040eb:	e9 b0 fc ff ff       	jmpq   403da0 <_init+0x28>

00000000004040f0 <_ZN6google8protobuf8internal10LogMessageD1Ev@plt>:
  4040f0:	ff 25 c2 c0 20 00    	jmpq   *0x20c0c2(%rip)        # 6101b8 <_GLOBAL_OFFSET_TABLE_+0x1b8>
  4040f6:	68 34 00 00 00       	pushq  $0x34
  4040fb:	e9 a0 fc ff ff       	jmpq   403da0 <_init+0x28>

0000000000404100 <__cxa_pure_virtual@plt>:
  404100:	ff 25 ba c0 20 00    	jmpq   *0x20c0ba(%rip)        # 6101c0 <_GLOBAL_OFFSET_TABLE_+0x1c0>
  404106:	68 35 00 00 00       	pushq  $0x35
  40410b:	e9 90 fc ff ff       	jmpq   403da0 <_init+0x28>

0000000000404110 <_ZN6google4base21CheckOpMessageBuilder9NewStringB5cxx11Ev@plt>:
  404110:	ff 25 b2 c0 20 00    	jmpq   *0x20c0b2(%rip)        # 6101c8 <_GLOBAL_OFFSET_TABLE_+0x1c8>
  404116:	68 36 00 00 00       	pushq  $0x36
  40411b:	e9 80 fc ff ff       	jmpq   403da0 <_init+0x28>

0000000000404120 <__libc_start_main@plt>:
  404120:	ff 25 aa c0 20 00    	jmpq   *0x20c0aa(%rip)        # 6101d0 <_GLOBAL_OFFSET_TABLE_+0x1d0>
  404126:	68 37 00 00 00       	pushq  $0x37
  40412b:	e9 70 fc ff ff       	jmpq   403da0 <_init+0x28>

0000000000404130 <rand@plt>:
  404130:	ff 25 a2 c0 20 00    	jmpq   *0x20c0a2(%rip)        # 6101d8 <_GLOBAL_OFFSET_TABLE_+0x1d8>
  404136:	68 38 00 00 00       	pushq  $0x38
  40413b:	e9 60 fc ff ff       	jmpq   403da0 <_init+0x28>

0000000000404140 <_ZN5caffe4BlobIfEC1Eiiii@plt>:
  404140:	ff 25 9a c0 20 00    	jmpq   *0x20c09a(%rip)        # 6101e0 <_GLOBAL_OFFSET_TABLE_+0x1e0>
  404146:	68 39 00 00 00       	pushq  $0x39
  40414b:	e9 50 fc ff ff       	jmpq   403da0 <_init+0x28>

0000000000404150 <_ZNSt8ios_base4InitC1Ev@plt>:
  404150:	ff 25 92 c0 20 00    	jmpq   *0x20c092(%rip)        # 6101e8 <_GLOBAL_OFFSET_TABLE_+0x1e8>
  404156:	68 3a 00 00 00       	pushq  $0x3a
  40415b:	e9 40 fc ff ff       	jmpq   403da0 <_init+0x28>

0000000000404160 <_ZN6google10LogMessage6streamEv@plt>:
  404160:	ff 25 8a c0 20 00    	jmpq   *0x20c08a(%rip)        # 6101f0 <_GLOBAL_OFFSET_TABLE_+0x1f0>
  404166:	68 3b 00 00 00       	pushq  $0x3b
  40416b:	e9 30 fc ff ff       	jmpq   403da0 <_init+0x28>

0000000000404170 <puts@plt>:
  404170:	ff 25 82 c0 20 00    	jmpq   *0x20c082(%rip)        # 6101f8 <_GLOBAL_OFFSET_TABLE_+0x1f8>
  404176:	68 3c 00 00 00       	pushq  $0x3c
  40417b:	e9 20 fc ff ff       	jmpq   403da0 <_init+0x28>

0000000000404180 <sprintf@plt>:
  404180:	ff 25 7a c0 20 00    	jmpq   *0x20c07a(%rip)        # 610200 <_GLOBAL_OFFSET_TABLE_+0x200>
  404186:	68 3d 00 00 00       	pushq  $0x3d
  40418b:	e9 10 fc ff ff       	jmpq   403da0 <_init+0x28>

0000000000404190 <_ZNSolsEm@plt>:
  404190:	ff 25 72 c0 20 00    	jmpq   *0x20c072(%rip)        # 610208 <_GLOBAL_OFFSET_TABLE_+0x208>
  404196:	68 3e 00 00 00       	pushq  $0x3e
  40419b:	e9 00 fc ff ff       	jmpq   403da0 <_init+0x28>

00000000004041a0 <_ZNK5caffe4BlobIfE7ToProtoEPNS_9BlobProtoEb@plt>:
  4041a0:	ff 25 6a c0 20 00    	jmpq   *0x20c06a(%rip)        # 610210 <_GLOBAL_OFFSET_TABLE_+0x210>
  4041a6:	68 3f 00 00 00       	pushq  $0x3f
  4041ab:	e9 f0 fb ff ff       	jmpq   403da0 <_init+0x28>

00000000004041b0 <_ZN5caffe12SoftmaxLayerIfE12Backward_gpuERKSt6vectorIPNS_4BlobIfEESaIS5_EERKS2_IbSaIbEES9_@plt>:
  4041b0:	ff 25 62 c0 20 00    	jmpq   *0x20c062(%rip)        # 610218 <_GLOBAL_OFFSET_TABLE_+0x218>
  4041b6:	68 40 00 00 00       	pushq  $0x40
  4041bb:	e9 e0 fb ff ff       	jmpq   403da0 <_init+0x28>

00000000004041c0 <_ZN5caffe12SoftmaxLayerIfE11Forward_gpuERKSt6vectorIPNS_4BlobIfEESaIS5_EES9_@plt>:
  4041c0:	ff 25 5a c0 20 00    	jmpq   *0x20c05a(%rip)        # 610220 <_GLOBAL_OFFSET_TABLE_+0x220>
  4041c6:	68 41 00 00 00       	pushq  $0x41
  4041cb:	e9 d0 fb ff ff       	jmpq   403da0 <_init+0x28>

00000000004041d0 <putchar@plt>:
  4041d0:	ff 25 52 c0 20 00    	jmpq   *0x20c052(%rip)        # 610228 <_GLOBAL_OFFSET_TABLE_+0x228>
  4041d6:	68 42 00 00 00       	pushq  $0x42
  4041db:	e9 c0 fb ff ff       	jmpq   403da0 <_init+0x28>

00000000004041e0 <_ZN5caffe12SoftmaxLayerIfE7ReshapeERKSt6vectorIPNS_4BlobIfEESaIS5_EES9_@plt>:
  4041e0:	ff 25 4a c0 20 00    	jmpq   *0x20c04a(%rip)        # 610230 <_GLOBAL_OFFSET_TABLE_+0x230>
  4041e6:	68 43 00 00 00       	pushq  $0x43
  4041eb:	e9 b0 fb ff ff       	jmpq   403da0 <_init+0x28>

00000000004041f0 <_ZN5caffe14LayerParameterC1ERKS0_@plt>:
  4041f0:	ff 25 42 c0 20 00    	jmpq   *0x20c042(%rip)        # 610238 <_GLOBAL_OFFSET_TABLE_+0x238>
  4041f6:	68 44 00 00 00       	pushq  $0x44
  4041fb:	e9 a0 fb ff ff       	jmpq   403da0 <_init+0x28>

0000000000404200 <xopenme_dump_state@plt>:
  404200:	ff 25 3a c0 20 00    	jmpq   *0x20c03a(%rip)        # 610240 <_GLOBAL_OFFSET_TABLE_+0x240>
  404206:	68 45 00 00 00       	pushq  $0x45
  40420b:	e9 90 fb ff ff       	jmpq   403da0 <_init+0x28>

0000000000404210 <_ZN5caffe13caffe_cpu_dotIfEET_iPKS1_S3_@plt>:
  404210:	ff 25 32 c0 20 00    	jmpq   *0x20c032(%rip)        # 610248 <_GLOBAL_OFFSET_TABLE_+0x248>
  404216:	68 46 00 00 00       	pushq  $0x46
  40421b:	e9 80 fb ff ff       	jmpq   403da0 <_init+0x28>

0000000000404220 <srand@plt>:
  404220:	ff 25 2a c0 20 00    	jmpq   *0x20c02a(%rip)        # 610250 <_GLOBAL_OFFSET_TABLE_+0x250>
  404226:	68 47 00 00 00       	pushq  $0x47
  40422b:	e9 70 fb ff ff       	jmpq   403da0 <_init+0x28>

0000000000404230 <_ZN6google8protobuf8internal20RepeatedPtrFieldBase7ReserveEi@plt>:
  404230:	ff 25 22 c0 20 00    	jmpq   *0x20c022(%rip)        # 610258 <_GLOBAL_OFFSET_TABLE_+0x258>
  404236:	68 48 00 00 00       	pushq  $0x48
  40423b:	e9 60 fb ff ff       	jmpq   403da0 <_init+0x28>

0000000000404240 <xopenme_finish@plt>:
  404240:	ff 25 1a c0 20 00    	jmpq   *0x20c01a(%rip)        # 610260 <_GLOBAL_OFFSET_TABLE_+0x260>
  404246:	68 49 00 00 00       	pushq  $0x49
  40424b:	e9 50 fb ff ff       	jmpq   403da0 <_init+0x28>

0000000000404250 <xopenme_dump_memory@plt>:
  404250:	ff 25 12 c0 20 00    	jmpq   *0x20c012(%rip)        # 610268 <_GLOBAL_OFFSET_TABLE_+0x268>
  404256:	68 4a 00 00 00       	pushq  $0x4a
  40425b:	e9 40 fb ff ff       	jmpq   403da0 <_init+0x28>

0000000000404260 <_ZN6google15LogMessageFatalC1EPKci@plt>:
  404260:	ff 25 0a c0 20 00    	jmpq   *0x20c00a(%rip)        # 610270 <_GLOBAL_OFFSET_TABLE_+0x270>
  404266:	68 4b 00 00 00       	pushq  $0x4b
  40426b:	e9 30 fb ff ff       	jmpq   403da0 <_init+0x28>

0000000000404270 <_ZN5caffe14LayerParameterD1Ev@plt>:
  404270:	ff 25 02 c0 20 00    	jmpq   *0x20c002(%rip)        # 610278 <_GLOBAL_OFFSET_TABLE_+0x278>
  404276:	68 4c 00 00 00       	pushq  $0x4c
  40427b:	e9 20 fb ff ff       	jmpq   403da0 <_init+0x28>

0000000000404280 <_ZN6google8protobuf8internal10LogMessagelsEPKc@plt>:
  404280:	ff 25 fa bf 20 00    	jmpq   *0x20bffa(%rip)        # 610280 <_GLOBAL_OFFSET_TABLE_+0x280>
  404286:	68 4d 00 00 00       	pushq  $0x4d
  40428b:	e9 10 fb ff ff       	jmpq   403da0 <_init+0x28>

0000000000404290 <_ZN5caffe4BlobIfE9FromProtoERKNS_9BlobProtoEb@plt>:
  404290:	ff 25 f2 bf 20 00    	jmpq   *0x20bff2(%rip)        # 610288 <_GLOBAL_OFFSET_TABLE_+0x288>
  404296:	68 4e 00 00 00       	pushq  $0x4e
  40429b:	e9 00 fb ff ff       	jmpq   403da0 <_init+0x28>

Disassembly of section .plt.got:

00000000004042a0 <.plt.got>:
  4042a0:	ff 25 52 bd 20 00    	jmpq   *0x20bd52(%rip)        # 60fff8 <_DYNAMIC+0x220>
  4042a6:	66 90                	xchg   %ax,%ax

Disassembly of section .text:

00000000004042b0 <_start>:
  4042b0:	31 ed                	xor    %ebp,%ebp
  4042b2:	49 89 d1             	mov    %rdx,%r9
  4042b5:	5e                   	pop    %rsi
  4042b6:	48 89 e2             	mov    %rsp,%rdx
  4042b9:	48 83 e4 f0          	and    $0xfffffffffffffff0,%rsp
  4042bd:	50                   	push   %rax
  4042be:	54                   	push   %rsp
  4042bf:	49 c7 c0 10 ab 40 00 	mov    $0x40ab10,%r8
  4042c6:	48 c7 c1 a0 aa 40 00 	mov    $0x40aaa0,%rcx
  4042cd:	48 c7 c7 fa 43 40 00 	mov    $0x4043fa,%rdi
  4042d4:	e8 47 fe ff ff       	callq  404120 <__libc_start_main@plt>
  4042d9:	f4                   	hlt    
  4042da:	66 0f 1f 44 00 00    	nopw   0x0(%rax,%rax,1)

00000000004042e0 <deregister_tm_clones>:
  4042e0:	b8 a7 02 61 00       	mov    $0x6102a7,%eax
  4042e5:	55                   	push   %rbp
  4042e6:	48 2d a0 02 61 00    	sub    $0x6102a0,%rax
  4042ec:	48 83 f8 0e          	cmp    $0xe,%rax
  4042f0:	48 89 e5             	mov    %rsp,%rbp
  4042f3:	76 1b                	jbe    404310 <deregister_tm_clones+0x30>
  4042f5:	b8 00 00 00 00       	mov    $0x0,%eax
  4042fa:	48 85 c0             	test   %rax,%rax
  4042fd:	74 11                	je     404310 <deregister_tm_clones+0x30>
  4042ff:	5d                   	pop    %rbp
  404300:	bf a0 02 61 00       	mov    $0x6102a0,%edi
  404305:	ff e0                	jmpq   *%rax
  404307:	66 0f 1f 84 00 00 00 	nopw   0x0(%rax,%rax,1)
  40430e:	00 00 
  404310:	5d                   	pop    %rbp
  404311:	c3                   	retq   
  404312:	0f 1f 40 00          	nopl   0x0(%rax)
  404316:	66 2e 0f 1f 84 00 00 	nopw   %cs:0x0(%rax,%rax,1)
  40431d:	00 00 00 

0000000000404320 <register_tm_clones>:
  404320:	be a0 02 61 00       	mov    $0x6102a0,%esi
  404325:	55                   	push   %rbp
  404326:	48 81 ee a0 02 61 00 	sub    $0x6102a0,%rsi
  40432d:	48 c1 fe 03          	sar    $0x3,%rsi
  404331:	48 89 e5             	mov    %rsp,%rbp
  404334:	48 89 f0             	mov    %rsi,%rax
  404337:	48 c1 e8 3f          	shr    $0x3f,%rax
  40433b:	48 01 c6             	add    %rax,%rsi
  40433e:	48 d1 fe             	sar    %rsi
  404341:	74 15                	je     404358 <register_tm_clones+0x38>
  404343:	b8 00 00 00 00       	mov    $0x0,%eax
  404348:	48 85 c0             	test   %rax,%rax
  40434b:	74 0b                	je     404358 <register_tm_clones+0x38>
  40434d:	5d                   	pop    %rbp
  40434e:	bf a0 02 61 00       	mov    $0x6102a0,%edi
  404353:	ff e0                	jmpq   *%rax
  404355:	0f 1f 00             	nopl   (%rax)
  404358:	5d                   	pop    %rbp
  404359:	c3                   	retq   
  40435a:	66 0f 1f 44 00 00    	nopw   0x0(%rax,%rax,1)

0000000000404360 <__do_global_dtors_aux>:
  404360:	80 3d 01 c0 20 00 00 	cmpb   $0x0,0x20c001(%rip)        # 610368 <completed.7583>
  404367:	75 11                	jne    40437a <__do_global_dtors_aux+0x1a>
  404369:	55                   	push   %rbp
  40436a:	48 89 e5             	mov    %rsp,%rbp
  40436d:	e8 6e ff ff ff       	callq  4042e0 <deregister_tm_clones>
  404372:	5d                   	pop    %rbp
  404373:	c6 05 ee bf 20 00 01 	movb   $0x1,0x20bfee(%rip)        # 610368 <completed.7583>
  40437a:	f3 c3                	repz retq 
  40437c:	0f 1f 40 00          	nopl   0x0(%rax)

0000000000404380 <frame_dummy>:
  404380:	bf d0 fd 60 00       	mov    $0x60fdd0,%edi
  404385:	48 83 3f 00          	cmpq   $0x0,(%rdi)
  404389:	75 05                	jne    404390 <frame_dummy+0x10>
  40438b:	eb 93                	jmp    404320 <register_tm_clones>
  40438d:	0f 1f 00             	nopl   (%rax)
  404390:	b8 00 00 00 00       	mov    $0x0,%eax
  404395:	48 85 c0             	test   %rax,%rax
  404398:	74 f1                	je     40438b <frame_dummy+0xb>
  40439a:	55                   	push   %rbp
  40439b:	48 89 e5             	mov    %rsp,%rbp
  40439e:	ff d0                	callq  *%rax
  4043a0:	5d                   	pop    %rbp
  4043a1:	e9 7a ff ff ff       	jmpq   404320 <register_tm_clones>

00000000004043a6 <_ZN2CK16store_setup_timeEf>:
  4043a6:	55                   	push   %rbp
  4043a7:	48 89 e5             	mov    %rsp,%rbp
  4043aa:	48 83 ec 10          	sub    $0x10,%rsp
  4043ae:	f3 0f 11 45 fc       	movss  %xmm0,-0x4(%rbp)
  4043b3:	8b 45 fc             	mov    -0x4(%rbp),%eax
  4043b6:	89 45 f8             	mov    %eax,-0x8(%rbp)
  4043b9:	f3 0f 10 45 f8       	movss  -0x8(%rbp),%xmm0
  4043be:	be c0 ad 40 00       	mov    $0x40adc0,%esi
  4043c3:	bf 0a 00 00 00       	mov    $0xa,%edi
  4043c8:	e8 dd 06 00 00       	callq  404aaa <_ZN2CK13store_value_fEiPKcf>
  4043cd:	90                   	nop
  4043ce:	c9                   	leaveq 
  4043cf:	c3                   	retq   

00000000004043d0 <_ZN2CK15store_test_timeEf>:
  4043d0:	55                   	push   %rbp
  4043d1:	48 89 e5             	mov    %rsp,%rbp
  4043d4:	48 83 ec 10          	sub    $0x10,%rsp
  4043d8:	f3 0f 11 45 fc       	movss  %xmm0,-0x4(%rbp)
  4043dd:	8b 45 fc             	mov    -0x4(%rbp),%eax
  4043e0:	89 45 f8             	mov    %eax,-0x8(%rbp)
  4043e3:	f3 0f 10 45 f8       	movss  -0x8(%rbp),%xmm0
  4043e8:	be cb ad 40 00       	mov    $0x40adcb,%esi
  4043ed:	bf 0b 00 00 00       	mov    $0xb,%edi
  4043f2:	e8 b3 06 00 00       	callq  404aaa <_ZN2CK13store_value_fEiPKcf>
  4043f7:	90                   	nop
  4043f8:	c9                   	leaveq 
  4043f9:	c3                   	retq   

00000000004043fa <main>:
  4043fa:	55                   	push   %rbp
  4043fb:	48 89 e5             	mov    %rsp,%rbp
  4043fe:	bf 00 00 00 00       	mov    $0x0,%edi
  404403:	e8 27 03 00 00       	callq  40472f <_ZN5caffe5Caffe8set_modeENS0_4BrewE>
  404408:	e8 94 09 00 00       	callq  404da1 <_ZN2CK5Caffe12test_softmaxEv>
  40440d:	b8 00 00 00 00       	mov    $0x0,%eax
  404412:	5d                   	pop    %rbp
  404413:	c3                   	retq   

0000000000404414 <_Z41__static_initialization_and_destruction_0ii>:
  404414:	55                   	push   %rbp
  404415:	48 89 e5             	mov    %rsp,%rbp
  404418:	48 83 ec 10          	sub    $0x10,%rsp
  40441c:	89 7d fc             	mov    %edi,-0x4(%rbp)
  40441f:	89 75 f8             	mov    %esi,-0x8(%rbp)
  404422:	83 7d fc 01          	cmpl   $0x1,-0x4(%rbp)
  404426:	75 27                	jne    40444f <_Z41__static_initialization_and_destruction_0ii+0x3b>
  404428:	81 7d f8 ff ff 00 00 	cmpl   $0xffff,-0x8(%rbp)
  40442f:	75 1e                	jne    40444f <_Z41__static_initialization_and_destruction_0ii+0x3b>
  404431:	bf 69 03 61 00       	mov    $0x610369,%edi
  404436:	e8 15 fd ff ff       	callq  404150 <_ZNSt8ios_base4InitC1Ev@plt>
  40443b:	ba 98 02 61 00       	mov    $0x610298,%edx
  404440:	be 69 03 61 00       	mov    $0x610369,%esi
  404445:	bf 00 40 40 00       	mov    $0x404000,%edi
  40444a:	e8 81 fc ff ff       	callq  4040d0 <__cxa_atexit@plt>
  40444f:	90                   	nop
  404450:	c9                   	leaveq 
  404451:	c3                   	retq   

0000000000404452 <_GLOBAL__sub_I__ZN2CK16store_setup_timeEf>:
  404452:	55                   	push   %rbp
  404453:	48 89 e5             	mov    %rsp,%rbp
  404456:	be ff ff 00 00       	mov    $0xffff,%esi
  40445b:	bf 01 00 00 00       	mov    $0x1,%edi
  404460:	e8 af ff ff ff       	callq  404414 <_Z41__static_initialization_and_destruction_0ii>
  404465:	5d                   	pop    %rbp
  404466:	c3                   	retq   

0000000000404467 <_ZnwmPv>:
  404467:	55                   	push   %rbp
  404468:	48 89 e5             	mov    %rsp,%rbp
  40446b:	48 89 7d f8          	mov    %rdi,-0x8(%rbp)
  40446f:	48 89 75 f0          	mov    %rsi,-0x10(%rbp)
  404473:	48 8b 45 f0          	mov    -0x10(%rbp),%rax
  404477:	5d                   	pop    %rbp
  404478:	c3                   	retq   

0000000000404479 <_ZdlPvS_>:
  404479:	55                   	push   %rbp
  40447a:	48 89 e5             	mov    %rsp,%rbp
  40447d:	48 89 7d f8          	mov    %rdi,-0x8(%rbp)
  404481:	48 89 75 f0          	mov    %rsi,-0x10(%rbp)
  404485:	90                   	nop
  404486:	5d                   	pop    %rbp
  404487:	c3                   	retq   

0000000000404488 <_ZNSt8iteratorISt26random_access_iterator_tagblPbRbEC1Ev>:
  404488:	55                   	push   %rbp
  404489:	48 89 e5             	mov    %rsp,%rbp
  40448c:	48 89 7d f8          	mov    %rdi,-0x8(%rbp)
  404490:	90                   	nop
  404491:	5d                   	pop    %rbp
  404492:	c3                   	retq   
  404493:	90                   	nop

0000000000404494 <_ZNSt18_Bit_iterator_baseC1EPmj>:
  404494:	55                   	push   %rbp
  404495:	48 89 e5             	mov    %rsp,%rbp
  404498:	48 83 ec 20          	sub    $0x20,%rsp
  40449c:	48 89 7d f8          	mov    %rdi,-0x8(%rbp)
  4044a0:	48 89 75 f0          	mov    %rsi,-0x10(%rbp)
  4044a4:	89 55 ec             	mov    %edx,-0x14(%rbp)
  4044a7:	48 8b 45 f8          	mov    -0x8(%rbp),%rax
  4044ab:	48 89 c7             	mov    %rax,%rdi
  4044ae:	e8 d5 ff ff ff       	callq  404488 <_ZNSt8iteratorISt26random_access_iterator_tagblPbRbEC1Ev>
  4044b3:	48 8b 45 f8          	mov    -0x8(%rbp),%rax
  4044b7:	48 8b 55 f0          	mov    -0x10(%rbp),%rdx
  4044bb:	48 89 10             	mov    %rdx,(%rax)
  4044be:	48 8b 45 f8          	mov    -0x8(%rbp),%rax
  4044c2:	8b 55 ec             	mov    -0x14(%rbp),%edx
  4044c5:	89 50 08             	mov    %edx,0x8(%rax)
  4044c8:	90                   	nop
  4044c9:	c9                   	leaveq 
  4044ca:	c3                   	retq   
  4044cb:	90                   	nop

00000000004044cc <_ZNSt13_Bit_iteratorC1Ev>:
  4044cc:	55                   	push   %rbp
  4044cd:	48 89 e5             	mov    %rsp,%rbp
  4044d0:	48 83 ec 10          	sub    $0x10,%rsp
  4044d4:	48 89 7d f8          	mov    %rdi,-0x8(%rbp)
  4044d8:	48 8b 45 f8          	mov    -0x8(%rbp),%rax
  4044dc:	ba 00 00 00 00       	mov    $0x0,%edx
  4044e1:	be 00 00 00 00       	mov    $0x0,%esi
  4044e6:	48 89 c7             	mov    %rax,%rdi
  4044e9:	e8 a6 ff ff ff       	callq  404494 <_ZNSt18_Bit_iterator_baseC1EPmj>
  4044ee:	90                   	nop
  4044ef:	c9                   	leaveq 
  4044f0:	c3                   	retq   

00000000004044f1 <_ZN5boost6detail23atomic_exchange_and_addEPii>:
  4044f1:	55                   	push   %rbp
  4044f2:	48 89 e5             	mov    %rsp,%rbp
  4044f5:	48 89 7d e8          	mov    %rdi,-0x18(%rbp)
  4044f9:	89 75 e4             	mov    %esi,-0x1c(%rbp)
  4044fc:	48 8b 55 e8          	mov    -0x18(%rbp),%rdx
  404500:	48 8b 4d e8          	mov    -0x18(%rbp),%rcx
  404504:	8b 45 e4             	mov    -0x1c(%rbp),%eax
  404507:	f0 0f c1 02          	lock xadd %eax,(%rdx)
  40450b:	89 45 fc             	mov    %eax,-0x4(%rbp)
  40450e:	8b 45 fc             	mov    -0x4(%rbp),%eax
  404511:	5d                   	pop    %rbp
  404512:	c3                   	retq   
  404513:	90                   	nop

0000000000404514 <_ZN5boost6detail15sp_counted_baseC1Ev>:
  404514:	55                   	push   %rbp
  404515:	48 89 e5             	mov    %rsp,%rbp
  404518:	48 89 7d f8          	mov    %rdi,-0x8(%rbp)
  40451c:	ba f8 b7 40 00       	mov    $0x40b7f8,%edx
  404521:	48 8b 45 f8          	mov    -0x8(%rbp),%rax
  404525:	48 89 10             	mov    %rdx,(%rax)
  404528:	48 8b 45 f8          	mov    -0x8(%rbp),%rax
  40452c:	c7 40 08 01 00 00 00 	movl   $0x1,0x8(%rax)
  404533:	48 8b 45 f8          	mov    -0x8(%rbp),%rax
  404537:	c7 40 0c 01 00 00 00 	movl   $0x1,0xc(%rax)
  40453e:	90                   	nop
  40453f:	5d                   	pop    %rbp
  404540:	c3                   	retq   
  404541:	90                   	nop

0000000000404542 <_ZN5boost6detail15sp_counted_baseD1Ev>:
  404542:	55                   	push   %rbp
  404543:	48 89 e5             	mov    %rsp,%rbp
  404546:	48 89 7d f8          	mov    %rdi,-0x8(%rbp)
  40454a:	ba f8 b7 40 00       	mov    $0x40b7f8,%edx
  40454f:	48 8b 45 f8          	mov    -0x8(%rbp),%rax
  404553:	48 89 10             	mov    %rdx,(%rax)
  404556:	90                   	nop
  404557:	5d                   	pop    %rbp
  404558:	c3                   	retq   
  404559:	90                   	nop

000000000040455a <_ZN5boost6detail15sp_counted_baseD0Ev>:
  40455a:	55                   	push   %rbp
  40455b:	48 89 e5             	mov    %rsp,%rbp
  40455e:	48 83 ec 10          	sub    $0x10,%rsp
  404562:	48 89 7d f8          	mov    %rdi,-0x8(%rbp)
  404566:	48 8b 45 f8          	mov    -0x8(%rbp),%rax
  40456a:	48 89 c7             	mov    %rax,%rdi
  40456d:	e8 d0 ff ff ff       	callq  404542 <_ZN5boost6detail15sp_counted_baseD1Ev>
  404572:	48 8b 45 f8          	mov    -0x8(%rbp),%rax
  404576:	48 89 c7             	mov    %rax,%rdi
  404579:	e8 e2 f9 ff ff       	callq  403f60 <_ZdlPv@plt>
  40457e:	c9                   	leaveq 
  40457f:	c3                   	retq   

0000000000404580 <_ZN5boost6detail15sp_counted_base7destroyEv>:
  404580:	55                   	push   %rbp
  404581:	48 89 e5             	mov    %rsp,%rbp
  404584:	48 83 ec 10          	sub    $0x10,%rsp
  404588:	48 89 7d f8          	mov    %rdi,-0x8(%rbp)
  40458c:	48 83 7d f8 00       	cmpq   $0x0,-0x8(%rbp)
  404591:	74 17                	je     4045aa <_ZN5boost6detail15sp_counted_base7destroyEv+0x2a>
  404593:	48 8b 45 f8          	mov    -0x8(%rbp),%rax
  404597:	48 8b 00             	mov    (%rax),%rax
  40459a:	48 83 c0 08          	add    $0x8,%rax
  40459e:	48 8b 00             	mov    (%rax),%rax
  4045a1:	48 8b 55 f8          	mov    -0x8(%rbp),%rdx
  4045a5:	48 89 d7             	mov    %rdx,%rdi
  4045a8:	ff d0                	callq  *%rax
  4045aa:	90                   	nop
  4045ab:	c9                   	leaveq 
  4045ac:	c3                   	retq   
  4045ad:	90                   	nop

00000000004045ae <_ZN5boost6detail15sp_counted_base7releaseEv>:
  4045ae:	55                   	push   %rbp
  4045af:	48 89 e5             	mov    %rsp,%rbp
  4045b2:	48 83 ec 10          	sub    $0x10,%rsp
  4045b6:	48 89 7d f8          	mov    %rdi,-0x8(%rbp)
  4045ba:	48 8b 45 f8          	mov    -0x8(%rbp),%rax
  4045be:	48 83 c0 08          	add    $0x8,%rax
  4045c2:	be ff ff ff ff       	mov    $0xffffffff,%esi
  4045c7:	48 89 c7             	mov    %rax,%rdi
  4045ca:	e8 22 ff ff ff       	callq  4044f1 <_ZN5boost6detail23atomic_exchange_and_addEPii>
  4045cf:	83 f8 01             	cmp    $0x1,%eax
  4045d2:	0f 94 c0             	sete   %al
  4045d5:	84 c0                	test   %al,%al
  4045d7:	74 23                	je     4045fc <_ZN5boost6detail15sp_counted_base7releaseEv+0x4e>
  4045d9:	48 8b 45 f8          	mov    -0x8(%rbp),%rax
  4045dd:	48 8b 00             	mov    (%rax),%rax
  4045e0:	48 83 c0 10          	add    $0x10,%rax
  4045e4:	48 8b 00             	mov    (%rax),%rax
  4045e7:	48 8b 55 f8          	mov    -0x8(%rbp),%rdx
  4045eb:	48 89 d7             	mov    %rdx,%rdi
  4045ee:	ff d0                	callq  *%rax
  4045f0:	48 8b 45 f8          	mov    -0x8(%rbp),%rax
  4045f4:	48 89 c7             	mov    %rax,%rdi
  4045f7:	e8 04 00 00 00       	callq  404600 <_ZN5boost6detail15sp_counted_base12weak_releaseEv>
  4045fc:	90                   	nop
  4045fd:	c9                   	leaveq 
  4045fe:	c3                   	retq   
  4045ff:	90                   	nop

0000000000404600 <_ZN5boost6detail15sp_counted_base12weak_releaseEv>:
  404600:	55                   	push   %rbp
  404601:	48 89 e5             	mov    %rsp,%rbp
  404604:	48 83 ec 10          	sub    $0x10,%rsp
  404608:	48 89 7d f8          	mov    %rdi,-0x8(%rbp)
  40460c:	48 8b 45 f8          	mov    -0x8(%rbp),%rax
  404610:	48 83 c0 0c          	add    $0xc,%rax
  404614:	be ff ff ff ff       	mov    $0xffffffff,%esi
  404619:	48 89 c7             	mov    %rax,%rdi
  40461c:	e8 d0 fe ff ff       	callq  4044f1 <_ZN5boost6detail23atomic_exchange_and_addEPii>
  404621:	83 f8 01             	cmp    $0x1,%eax
  404624:	0f 94 c0             	sete   %al
  404627:	84 c0                	test   %al,%al
  404629:	74 17                	je     404642 <_ZN5boost6detail15sp_counted_base12weak_releaseEv+0x42>
  40462b:	48 8b 45 f8          	mov    -0x8(%rbp),%rax
  40462f:	48 8b 00             	mov    (%rax),%rax
  404632:	48 83 c0 18          	add    $0x18,%rax
  404636:	48 8b 00             	mov    (%rax),%rax
  404639:	48 8b 55 f8          	mov    -0x8(%rbp),%rdx
  40463d:	48 89 d7             	mov    %rdx,%rdi
  404640:	ff d0                	callq  *%rax
  404642:	90                   	nop
  404643:	c9                   	leaveq 
  404644:	c3                   	retq   
  404645:	90                   	nop

0000000000404646 <_ZN5boost6detail12shared_countC1Ev>:
  404646:	55                   	push   %rbp
  404647:	48 89 e5             	mov    %rsp,%rbp
  40464a:	48 89 7d f8          	mov    %rdi,-0x8(%rbp)
  40464e:	48 8b 45 f8          	mov    -0x8(%rbp),%rax
  404652:	48 c7 00 00 00 00 00 	movq   $0x0,(%rax)
  404659:	90                   	nop
  40465a:	5d                   	pop    %rbp
  40465b:	c3                   	retq   

000000000040465c <_ZN5boost6detail12shared_countD1Ev>:
  40465c:	55                   	push   %rbp
  40465d:	48 89 e5             	mov    %rsp,%rbp
  404660:	48 83 ec 10          	sub    $0x10,%rsp
  404664:	48 89 7d f8          	mov    %rdi,-0x8(%rbp)
  404668:	48 8b 45 f8          	mov    -0x8(%rbp),%rax
  40466c:	48 8b 00             	mov    (%rax),%rax
  40466f:	48 85 c0             	test   %rax,%rax
  404672:	74 0f                	je     404683 <_ZN5boost6detail12shared_countD1Ev+0x27>
  404674:	48 8b 45 f8          	mov    -0x8(%rbp),%rax
  404678:	48 8b 00             	mov    (%rax),%rax
  40467b:	48 89 c7             	mov    %rax,%rdi
  40467e:	e8 2b ff ff ff       	callq  4045ae <_ZN5boost6detail15sp_counted_base7releaseEv>
  404683:	90                   	nop
  404684:	c9                   	leaveq 
  404685:	c3                   	retq   

0000000000404686 <_ZN5boost6detail12shared_count4swapERS1_>:
  404686:	55                   	push   %rbp
  404687:	48 89 e5             	mov    %rsp,%rbp
  40468a:	48 89 7d e8          	mov    %rdi,-0x18(%rbp)
  40468e:	48 89 75 e0          	mov    %rsi,-0x20(%rbp)
  404692:	48 8b 45 e0          	mov    -0x20(%rbp),%rax
  404696:	48 8b 00             	mov    (%rax),%rax
  404699:	48 89 45 f8          	mov    %rax,-0x8(%rbp)
  40469d:	48 8b 45 e8          	mov    -0x18(%rbp),%rax
  4046a1:	48 8b 10             	mov    (%rax),%rdx
  4046a4:	48 8b 45 e0          	mov    -0x20(%rbp),%rax
  4046a8:	48 89 10             	mov    %rdx,(%rax)
  4046ab:	48 8b 45 e8          	mov    -0x18(%rbp),%rax
  4046af:	48 8b 55 f8          	mov    -0x8(%rbp),%rdx
  4046b3:	48 89 10             	mov    %rdx,(%rax)
  4046b6:	90                   	nop
  4046b7:	5d                   	pop    %rbp
  4046b8:	c3                   	retq   

00000000004046b9 <_ZN5boost6detail26sp_enable_shared_from_thisEz>:
  4046b9:	55                   	push   %rbp
  4046ba:	48 89 e5             	mov    %rsp,%rbp
  4046bd:	90                   	nop
  4046be:	5d                   	pop    %rbp
  4046bf:	c3                   	retq   

00000000004046c0 <_ZN6google13CheckOpStringC1EPNSt7__cxx1112basic_stringIcSt11char_traitsIcESaIcEEE>:
  4046c0:	55                   	push   %rbp
  4046c1:	48 89 e5             	mov    %rsp,%rbp
  4046c4:	48 89 7d f8          	mov    %rdi,-0x8(%rbp)
  4046c8:	48 89 75 f0          	mov    %rsi,-0x10(%rbp)
  4046cc:	48 8b 45 f8          	mov    -0x8(%rbp),%rax
  4046d0:	48 8b 55 f0          	mov    -0x10(%rbp),%rdx
  4046d4:	48 89 10             	mov    %rdx,(%rax)
  4046d7:	90                   	nop
  4046d8:	5d                   	pop    %rbp
  4046d9:	c3                   	retq   

00000000004046da <_ZN6google21GetReferenceableValueEi>:
  4046da:	55                   	push   %rbp
  4046db:	48 89 e5             	mov    %rsp,%rbp
  4046de:	89 7d fc             	mov    %edi,-0x4(%rbp)
  4046e1:	8b 45 fc             	mov    -0x4(%rbp),%eax
  4046e4:	5d                   	pop    %rbp
  4046e5:	c3                   	retq   

00000000004046e6 <_ZN6google21GetReferenceableValueEm>:
  4046e6:	55                   	push   %rbp
  4046e7:	48 89 e5             	mov    %rsp,%rbp
  4046ea:	48 89 7d f8          	mov    %rdi,-0x8(%rbp)
  4046ee:	48 8b 45 f8          	mov    -0x8(%rbp),%rax
  4046f2:	5d                   	pop    %rbp
  4046f3:	c3                   	retq   

00000000004046f4 <_ZN6google4base21CheckOpMessageBuilder7ForVar1Ev>:
  4046f4:	55                   	push   %rbp
  4046f5:	48 89 e5             	mov    %rsp,%rbp
  4046f8:	48 89 7d f8          	mov    %rdi,-0x8(%rbp)
  4046fc:	48 8b 45 f8          	mov    -0x8(%rbp),%rax
  404700:	48 8b 00             	mov    (%rax),%rax
  404703:	5d                   	pop    %rbp
  404704:	c3                   	retq   
  404705:	90                   	nop

0000000000404706 <_ZN6google17LogMessageVoidifyC1Ev>:
  404706:	55                   	push   %rbp
  404707:	48 89 e5             	mov    %rsp,%rbp
  40470a:	48 89 7d f8          	mov    %rdi,-0x8(%rbp)
  40470e:	90                   	nop
  40470f:	5d                   	pop    %rbp
  404710:	c3                   	retq   
  404711:	90                   	nop

0000000000404712 <_ZN6google17LogMessageVoidifyanERSo>:
  404712:	55                   	push   %rbp
  404713:	48 89 e5             	mov    %rsp,%rbp
  404716:	48 89 7d f8          	mov    %rdi,-0x8(%rbp)
  40471a:	48 89 75 f0          	mov    %rsi,-0x10(%rbp)
  40471e:	90                   	nop
  40471f:	5d                   	pop    %rbp
  404720:	c3                   	retq   

0000000000404721 <_ZN5caffe5Caffe4modeEv>:
  404721:	55                   	push   %rbp
  404722:	48 89 e5             	mov    %rsp,%rbp
  404725:	e8 86 f9 ff ff       	callq  4040b0 <_ZN5caffe5Caffe3GetEv@plt>
  40472a:	8b 40 10             	mov    0x10(%rax),%eax
  40472d:	5d                   	pop    %rbp
  40472e:	c3                   	retq   

000000000040472f <_ZN5caffe5Caffe8set_modeENS0_4BrewE>:
  40472f:	55                   	push   %rbp
  404730:	48 89 e5             	mov    %rsp,%rbp
  404733:	48 83 ec 10          	sub    $0x10,%rsp
  404737:	89 7d fc             	mov    %edi,-0x4(%rbp)
  40473a:	e8 71 f9 ff ff       	callq  4040b0 <_ZN5caffe5Caffe3GetEv@plt>
  40473f:	48 89 c2             	mov    %rax,%rdx
  404742:	8b 45 fc             	mov    -0x4(%rbp),%eax
  404745:	89 42 10             	mov    %eax,0x10(%rdx)
  404748:	90                   	nop
  404749:	c9                   	leaveq 
  40474a:	c3                   	retq   
  40474b:	90                   	nop

000000000040474c <_ZNK6google8protobuf8internal20RepeatedPtrFieldBase4sizeEv>:
  40474c:	55                   	push   %rbp
  40474d:	48 89 e5             	mov    %rsp,%rbp
  404750:	48 89 7d f8          	mov    %rdi,-0x8(%rbp)
  404754:	48 8b 45 f8          	mov    -0x8(%rbp),%rax
  404758:	8b 40 08             	mov    0x8(%rax),%eax
  40475b:	5d                   	pop    %rbp
  40475c:	c3                   	retq   
  40475d:	90                   	nop

000000000040475e <_ZNK5caffe14LayerParameter5phaseEv>:
  40475e:	55                   	push   %rbp
  40475f:	48 89 e5             	mov    %rsp,%rbp
  404762:	48 89 7d f8          	mov    %rdi,-0x8(%rbp)
  404766:	48 8b 45 f8          	mov    -0x8(%rbp),%rax
  40476a:	8b 80 50 02 00 00    	mov    0x250(%rax),%eax
  404770:	5d                   	pop    %rbp
  404771:	c3                   	retq   

0000000000404772 <_ZNK5caffe14LayerParameter16loss_weight_sizeEv>:
  404772:	55                   	push   %rbp
  404773:	48 89 e5             	mov    %rsp,%rbp
  404776:	48 83 ec 10          	sub    $0x10,%rsp
  40477a:	48 89 7d f8          	mov    %rdi,-0x8(%rbp)
  40477e:	48 8b 45 f8          	mov    -0x8(%rbp),%rax
  404782:	48 83 c0 48          	add    $0x48,%rax
  404786:	48 89 c7             	mov    %rax,%rdi
  404789:	e8 4e 0a 00 00       	callq  4051dc <_ZNK6google8protobuf13RepeatedFieldIfE4sizeEv>
  40478e:	c9                   	leaveq 
  40478f:	c3                   	retq   

0000000000404790 <_ZNK5caffe14LayerParameter11loss_weightEi>:
  404790:	55                   	push   %rbp
  404791:	48 89 e5             	mov    %rsp,%rbp
  404794:	48 83 ec 10          	sub    $0x10,%rsp
  404798:	48 89 7d f8          	mov    %rdi,-0x8(%rbp)
  40479c:	89 75 f4             	mov    %esi,-0xc(%rbp)
  40479f:	48 8b 45 f8          	mov    -0x8(%rbp),%rax
  4047a3:	48 8d 50 48          	lea    0x48(%rax),%rdx
  4047a7:	8b 45 f4             	mov    -0xc(%rbp),%eax
  4047aa:	89 c6                	mov    %eax,%esi
  4047ac:	48 89 d7             	mov    %rdx,%rdi
  4047af:	e8 38 0a 00 00       	callq  4051ec <_ZNK6google8protobuf13RepeatedFieldIfE3GetEi>
  4047b4:	f3 0f 10 00          	movss  (%rax),%xmm0
  4047b8:	c9                   	leaveq 
  4047b9:	c3                   	retq   

00000000004047ba <_ZNK5caffe14LayerParameter10blobs_sizeEv>:
  4047ba:	55                   	push   %rbp
  4047bb:	48 89 e5             	mov    %rsp,%rbp
  4047be:	48 83 ec 10          	sub    $0x10,%rsp
  4047c2:	48 89 7d f8          	mov    %rdi,-0x8(%rbp)
  4047c6:	48 8b 45 f8          	mov    -0x8(%rbp),%rax
  4047ca:	48 83 c0 70          	add    $0x70,%rax
  4047ce:	48 89 c7             	mov    %rax,%rdi
  4047d1:	e8 ce 0b 00 00       	callq  4053a4 <_ZNK6google8protobuf16RepeatedPtrFieldIN5caffe9BlobProtoEE4sizeEv>
  4047d6:	c9                   	leaveq 
  4047d7:	c3                   	retq   

00000000004047d8 <_ZN5caffe14LayerParameter11clear_blobsEv>:
  4047d8:	55                   	push   %rbp
  4047d9:	48 89 e5             	mov    %rsp,%rbp
  4047dc:	48 83 ec 10          	sub    $0x10,%rsp
  4047e0:	48 89 7d f8          	mov    %rdi,-0x8(%rbp)
  4047e4:	48 8b 45 f8          	mov    -0x8(%rbp),%rax
  4047e8:	48 83 c0 70          	add    $0x70,%rax
  4047ec:	48 89 c7             	mov    %rax,%rdi
  4047ef:	e8 ca 0b 00 00       	callq  4053be <_ZN6google8protobuf16RepeatedPtrFieldIN5caffe9BlobProtoEE5ClearEv>
  4047f4:	90                   	nop
  4047f5:	c9                   	leaveq 
  4047f6:	c3                   	retq   
  4047f7:	90                   	nop

00000000004047f8 <_ZNK5caffe14LayerParameter5blobsEi>:
  4047f8:	55                   	push   %rbp
  4047f9:	48 89 e5             	mov    %rsp,%rbp
  4047fc:	48 83 ec 10          	sub    $0x10,%rsp
  404800:	48 89 7d f8          	mov    %rdi,-0x8(%rbp)
  404804:	89 75 f4             	mov    %esi,-0xc(%rbp)
  404807:	48 8b 45 f8          	mov    -0x8(%rbp),%rax
  40480b:	48 8d 50 70          	lea    0x70(%rax),%rdx
  40480f:	8b 45 f4             	mov    -0xc(%rbp),%eax
  404812:	89 c6                	mov    %eax,%esi
  404814:	48 89 d7             	mov    %rdx,%rdi
  404817:	e8 be 0b 00 00       	callq  4053da <_ZNK6google8protobuf16RepeatedPtrFieldIN5caffe9BlobProtoEE3GetEi>
  40481c:	c9                   	leaveq 
  40481d:	c3                   	retq   

000000000040481e <_ZN5caffe14LayerParameter9add_blobsEv>:
  40481e:	55                   	push   %rbp
  40481f:	48 89 e5             	mov    %rsp,%rbp
  404822:	48 83 ec 10          	sub    $0x10,%rsp
  404826:	48 89 7d f8          	mov    %rdi,-0x8(%rbp)
  40482a:	48 8b 45 f8          	mov    -0x8(%rbp),%rax
  40482e:	48 83 c0 70          	add    $0x70,%rax
  404832:	48 89 c7             	mov    %rax,%rdi
  404835:	e8 c2 0b 00 00       	callq  4053fc <_ZN6google8protobuf16RepeatedPtrFieldIN5caffe9BlobProtoEE3AddEv>
  40483a:	c9                   	leaveq 
  40483b:	c3                   	retq   

000000000040483c <_ZN5caffe14LayerParameter21set_has_softmax_paramEv>:
  40483c:	55                   	push   %rbp
  40483d:	48 89 e5             	mov    %rsp,%rbp
  404840:	48 89 7d e8          	mov    %rdi,-0x18(%rbp)
  404844:	48 8b 45 e8          	mov    -0x18(%rbp),%rax
  404848:	48 83 c0 10          	add    $0x10,%rax
  40484c:	48 89 45 f8          	mov    %rax,-0x8(%rbp)
  404850:	c7 45 f4 01 00 00 00 	movl   $0x1,-0xc(%rbp)
  404857:	8b 45 f4             	mov    -0xc(%rbp),%eax
  40485a:	48 98                	cltq   
  40485c:	48 8d 14 85 00 00 00 	lea    0x0(,%rax,4),%rdx
  404863:	00 
  404864:	48 8b 45 f8          	mov    -0x8(%rbp),%rax
  404868:	48 01 d0             	add    %rdx,%rax
  40486b:	8b 10                	mov    (%rax),%edx
  40486d:	81 ca 00 00 08 00    	or     $0x80000,%edx
  404873:	89 10                	mov    %edx,(%rax)
  404875:	90                   	nop
  404876:	5d                   	pop    %rbp
  404877:	c3                   	retq   

0000000000404878 <_ZN5caffe14LayerParameter21mutable_softmax_paramEv>:
  404878:	55                   	push   %rbp
  404879:	48 89 e5             	mov    %rsp,%rbp
  40487c:	41 54                	push   %r12
  40487e:	53                   	push   %rbx
  40487f:	48 83 ec 10          	sub    $0x10,%rsp
  404883:	48 89 7d e8          	mov    %rdi,-0x18(%rbp)
  404887:	48 8b 45 e8          	mov    -0x18(%rbp),%rax
  40488b:	48 89 c7             	mov    %rax,%rdi
  40488e:	e8 a9 ff ff ff       	callq  40483c <_ZN5caffe14LayerParameter21set_has_softmax_paramEv>
  404893:	48 8b 45 e8          	mov    -0x18(%rbp),%rax
  404897:	48 8b 80 18 02 00 00 	mov    0x218(%rax),%rax
  40489e:	48 85 c0             	test   %rax,%rax
  4048a1:	75 20                	jne    4048c3 <_ZN5caffe14LayerParameter21mutable_softmax_paramEv+0x4b>
  4048a3:	bf 20 00 00 00       	mov    $0x20,%edi
  4048a8:	e8 a3 f5 ff ff       	callq  403e50 <_Znwm@plt>
  4048ad:	48 89 c3             	mov    %rax,%rbx
  4048b0:	48 89 df             	mov    %rbx,%rdi
  4048b3:	e8 18 f5 ff ff       	callq  403dd0 <_ZN5caffe16SoftmaxParameterC1Ev@plt>
  4048b8:	48 8b 45 e8          	mov    -0x18(%rbp),%rax
  4048bc:	48 89 98 18 02 00 00 	mov    %rbx,0x218(%rax)
  4048c3:	48 8b 45 e8          	mov    -0x18(%rbp),%rax
  4048c7:	48 8b 80 18 02 00 00 	mov    0x218(%rax),%rax
  4048ce:	eb 16                	jmp    4048e6 <_ZN5caffe14LayerParameter21mutable_softmax_paramEv+0x6e>
  4048d0:	49 89 c4             	mov    %rax,%r12
  4048d3:	48 89 df             	mov    %rbx,%rdi
  4048d6:	e8 85 f6 ff ff       	callq  403f60 <_ZdlPv@plt>
  4048db:	4c 89 e0             	mov    %r12,%rax
  4048de:	48 89 c7             	mov    %rax,%rdi
  4048e1:	e8 0a f7 ff ff       	callq  403ff0 <_Unwind_Resume@plt>
  4048e6:	48 83 c4 10          	add    $0x10,%rsp
  4048ea:	5b                   	pop    %rbx
  4048eb:	41 5c                	pop    %r12
  4048ed:	5d                   	pop    %rbp
  4048ee:	c3                   	retq   
  4048ef:	90                   	nop

00000000004048f0 <_ZN5caffe16SoftmaxParameter12set_has_axisEv>:
  4048f0:	55                   	push   %rbp
  4048f1:	48 89 e5             	mov    %rsp,%rbp
  4048f4:	48 89 7d e8          	mov    %rdi,-0x18(%rbp)
  4048f8:	48 8b 45 e8          	mov    -0x18(%rbp),%rax
  4048fc:	48 83 c0 10          	add    $0x10,%rax
  404900:	48 89 45 f8          	mov    %rax,-0x8(%rbp)
  404904:	c7 45 f4 00 00 00 00 	movl   $0x0,-0xc(%rbp)
  40490b:	8b 45 f4             	mov    -0xc(%rbp),%eax
  40490e:	48 98                	cltq   
  404910:	48 8d 14 85 00 00 00 	lea    0x0(,%rax,4),%rdx
  404917:	00 
  404918:	48 8b 45 f8          	mov    -0x8(%rbp),%rax
  40491c:	48 01 d0             	add    %rdx,%rax
  40491f:	8b 10                	mov    (%rax),%edx
  404921:	83 ca 02             	or     $0x2,%edx
  404924:	89 10                	mov    %edx,(%rax)
  404926:	90                   	nop
  404927:	5d                   	pop    %rbp
  404928:	c3                   	retq   
  404929:	90                   	nop

000000000040492a <_ZN5caffe16SoftmaxParameter8set_axisEi>:
  40492a:	55                   	push   %rbp
  40492b:	48 89 e5             	mov    %rsp,%rbp
  40492e:	48 83 ec 10          	sub    $0x10,%rsp
  404932:	48 89 7d f8          	mov    %rdi,-0x8(%rbp)
  404936:	89 75 f4             	mov    %esi,-0xc(%rbp)
  404939:	48 8b 45 f8          	mov    -0x8(%rbp),%rax
  40493d:	48 89 c7             	mov    %rax,%rdi
  404940:	e8 ab ff ff ff       	callq  4048f0 <_ZN5caffe16SoftmaxParameter12set_has_axisEv>
  404945:	48 8b 45 f8          	mov    -0x8(%rbp),%rax
  404949:	8b 55 f4             	mov    -0xc(%rbp),%edx
  40494c:	89 50 1c             	mov    %edx,0x1c(%rax)
  40494f:	90                   	nop
  404950:	c9                   	leaveq 
  404951:	c3                   	retq   

0000000000404952 <_ZNK2CK5Shape10data_countEv>:
  404952:	55                   	push   %rbp
  404953:	48 89 e5             	mov    %rsp,%rbp
  404956:	48 89 7d f8          	mov    %rdi,-0x8(%rbp)
  40495a:	48 8b 45 f8          	mov    -0x8(%rbp),%rax
  40495e:	8b 10                	mov    (%rax),%edx
  404960:	48 8b 45 f8          	mov    -0x8(%rbp),%rax
  404964:	8b 40 04             	mov    0x4(%rax),%eax
  404967:	0f af d0             	imul   %eax,%edx
  40496a:	48 8b 45 f8          	mov    -0x8(%rbp),%rax
  40496e:	8b 40 08             	mov    0x8(%rax),%eax
  404971:	0f af d0             	imul   %eax,%edx
  404974:	48 8b 45 f8          	mov    -0x8(%rbp),%rax
  404978:	8b 40 0c             	mov    0xc(%rax),%eax
  40497b:	0f af c2             	imul   %edx,%eax
  40497e:	5d                   	pop    %rbp
  40497f:	c3                   	retq   

0000000000404980 <_ZNK2CK5Shape14get_flat_indexEiiii>:
  404980:	55                   	push   %rbp
  404981:	48 89 e5             	mov    %rsp,%rbp
  404984:	48 83 ec 20          	sub    $0x20,%rsp
  404988:	48 89 7d f8          	mov    %rdi,-0x8(%rbp)
  40498c:	89 75 f4             	mov    %esi,-0xc(%rbp)
  40498f:	89 55 f0             	mov    %edx,-0x10(%rbp)
  404992:	89 4d ec             	mov    %ecx,-0x14(%rbp)
  404995:	44 89 45 e8          	mov    %r8d,-0x18(%rbp)
  404999:	8b 7d e8             	mov    -0x18(%rbp),%edi
  40499c:	8b 4d ec             	mov    -0x14(%rbp),%ecx
  40499f:	8b 55 f0             	mov    -0x10(%rbp),%edx
  4049a2:	8b 75 f4             	mov    -0xc(%rbp),%esi
  4049a5:	48 8b 45 f8          	mov    -0x8(%rbp),%rax
  4049a9:	41 89 f8             	mov    %edi,%r8d
  4049ac:	48 89 c7             	mov    %rax,%rdi
  4049af:	e8 02 00 00 00       	callq  4049b6 <_ZNK2CK5Shape19get_flat_index_nchwEiiii>
  4049b4:	c9                   	leaveq 
  4049b5:	c3                   	retq   

00000000004049b6 <_ZNK2CK5Shape19get_flat_index_nchwEiiii>:
  4049b6:	55                   	push   %rbp
  4049b7:	48 89 e5             	mov    %rsp,%rbp
  4049ba:	48 89 7d f8          	mov    %rdi,-0x8(%rbp)
  4049be:	89 75 f4             	mov    %esi,-0xc(%rbp)
  4049c1:	89 55 f0             	mov    %edx,-0x10(%rbp)
  4049c4:	89 4d ec             	mov    %ecx,-0x14(%rbp)
  4049c7:	44 89 45 e8          	mov    %r8d,-0x18(%rbp)
  4049cb:	48 8b 45 f8          	mov    -0x8(%rbp),%rax
  4049cf:	8b 40 04             	mov    0x4(%rax),%eax
  4049d2:	0f af 45 f4          	imul   -0xc(%rbp),%eax
  4049d6:	89 c2                	mov    %eax,%edx
  4049d8:	8b 45 f0             	mov    -0x10(%rbp),%eax
  4049db:	01 c2                	add    %eax,%edx
  4049dd:	48 8b 45 f8          	mov    -0x8(%rbp),%rax
  4049e1:	8b 40 08             	mov    0x8(%rax),%eax
  4049e4:	0f af d0             	imul   %eax,%edx
  4049e7:	8b 45 ec             	mov    -0x14(%rbp),%eax
  4049ea:	01 c2                	add    %eax,%edx
  4049ec:	48 8b 45 f8          	mov    -0x8(%rbp),%rax
  4049f0:	8b 40 0c             	mov    0xc(%rax),%eax
  4049f3:	0f af d0             	imul   %eax,%edx
  4049f6:	8b 45 e8             	mov    -0x18(%rbp),%eax
  4049f9:	01 d0                	add    %edx,%eax
  4049fb:	5d                   	pop    %rbp
  4049fc:	c3                   	retq   

00000000004049fd <_ZN2CK8getenv_iEPKci>:
  4049fd:	55                   	push   %rbp
  4049fe:	48 89 e5             	mov    %rsp,%rbp
  404a01:	48 83 ec 10          	sub    $0x10,%rsp
  404a05:	48 89 7d f8          	mov    %rdi,-0x8(%rbp)
  404a09:	89 75 f4             	mov    %esi,-0xc(%rbp)
  404a0c:	48 8b 45 f8          	mov    -0x8(%rbp),%rax
  404a10:	48 89 c7             	mov    %rax,%rdi
  404a13:	e8 38 f6 ff ff       	callq  404050 <getenv@plt>
  404a18:	48 85 c0             	test   %rax,%rax
  404a1b:	74 16                	je     404a33 <_ZN2CK8getenv_iEPKci+0x36>
  404a1d:	48 8b 45 f8          	mov    -0x8(%rbp),%rax
  404a21:	48 89 c7             	mov    %rax,%rdi
  404a24:	e8 27 f6 ff ff       	callq  404050 <getenv@plt>
  404a29:	48 89 c7             	mov    %rax,%rdi
  404a2c:	e8 bf f4 ff ff       	callq  403ef0 <atoi@plt>
  404a31:	eb 03                	jmp    404a36 <_ZN2CK8getenv_iEPKci+0x39>
  404a33:	8b 45 f4             	mov    -0xc(%rbp),%eax
  404a36:	c9                   	leaveq 
  404a37:	c3                   	retq   

0000000000404a38 <_ZN2CK13store_value_iEiPKci>:
  404a38:	55                   	push   %rbp
  404a39:	48 89 e5             	mov    %rsp,%rbp
  404a3c:	48 83 ec 20          	sub    $0x20,%rsp
  404a40:	89 7d ec             	mov    %edi,-0x14(%rbp)
  404a43:	48 89 75 e0          	mov    %rsi,-0x20(%rbp)
  404a47:	89 55 e8             	mov    %edx,-0x18(%rbp)
  404a4a:	48 8b 45 e0          	mov    -0x20(%rbp),%rax
  404a4e:	48 89 c7             	mov    %rax,%rdi
  404a51:	e8 ba f4 ff ff       	callq  403f10 <strlen@plt>
  404a56:	48 83 c0 06          	add    $0x6,%rax
  404a5a:	48 89 c7             	mov    %rax,%rdi
  404a5d:	e8 be f4 ff ff       	callq  403f20 <_Znam@plt>
  404a62:	48 89 45 f8          	mov    %rax,-0x8(%rbp)
  404a66:	48 8b 55 e0          	mov    -0x20(%rbp),%rdx
  404a6a:	48 8b 45 f8          	mov    -0x8(%rbp),%rax
  404a6e:	be d4 ac 40 00       	mov    $0x40acd4,%esi
  404a73:	48 89 c7             	mov    %rax,%rdi
  404a76:	b8 00 00 00 00       	mov    $0x0,%eax
  404a7b:	e8 00 f7 ff ff       	callq  404180 <sprintf@plt>
  404a80:	8b 55 e8             	mov    -0x18(%rbp),%edx
  404a83:	48 8b 4d f8          	mov    -0x8(%rbp),%rcx
  404a87:	8b 45 ec             	mov    -0x14(%rbp),%eax
  404a8a:	48 89 ce             	mov    %rcx,%rsi
  404a8d:	89 c7                	mov    %eax,%edi
  404a8f:	e8 9c f4 ff ff       	callq  403f30 <xopenme_add_var_i@plt>
  404a94:	48 83 7d f8 00       	cmpq   $0x0,-0x8(%rbp)
  404a99:	74 0c                	je     404aa7 <_ZN2CK13store_value_iEiPKci+0x6f>
  404a9b:	48 8b 45 f8          	mov    -0x8(%rbp),%rax
  404a9f:	48 89 c7             	mov    %rax,%rdi
  404aa2:	e8 59 f4 ff ff       	callq  403f00 <_ZdaPv@plt>
  404aa7:	90                   	nop
  404aa8:	c9                   	leaveq 
  404aa9:	c3                   	retq   

0000000000404aaa <_ZN2CK13store_value_fEiPKcf>:
  404aaa:	55                   	push   %rbp
  404aab:	48 89 e5             	mov    %rsp,%rbp
  404aae:	48 83 ec 30          	sub    $0x30,%rsp
  404ab2:	89 7d ec             	mov    %edi,-0x14(%rbp)
  404ab5:	48 89 75 e0          	mov    %rsi,-0x20(%rbp)
  404ab9:	f3 0f 11 45 e8       	movss  %xmm0,-0x18(%rbp)
  404abe:	48 8b 45 e0          	mov    -0x20(%rbp),%rax
  404ac2:	48 89 c7             	mov    %rax,%rdi
  404ac5:	e8 46 f4 ff ff       	callq  403f10 <strlen@plt>
  404aca:	48 83 c0 06          	add    $0x6,%rax
  404ace:	48 89 c7             	mov    %rax,%rdi
  404ad1:	e8 4a f4 ff ff       	callq  403f20 <_Znam@plt>
  404ad6:	48 89 45 f8          	mov    %rax,-0x8(%rbp)
  404ada:	48 8b 55 e0          	mov    -0x20(%rbp),%rdx
  404ade:	48 8b 45 f8          	mov    -0x8(%rbp),%rax
  404ae2:	be dd ac 40 00       	mov    $0x40acdd,%esi
  404ae7:	48 89 c7             	mov    %rax,%rdi
  404aea:	b8 00 00 00 00       	mov    $0x0,%eax
  404aef:	e8 8c f6 ff ff       	callq  404180 <sprintf@plt>
  404af4:	8b 4d e8             	mov    -0x18(%rbp),%ecx
  404af7:	48 8b 55 f8          	mov    -0x8(%rbp),%rdx
  404afb:	8b 45 ec             	mov    -0x14(%rbp),%eax
  404afe:	89 4d dc             	mov    %ecx,-0x24(%rbp)
  404b01:	f3 0f 10 45 dc       	movss  -0x24(%rbp),%xmm0
  404b06:	48 89 d6             	mov    %rdx,%rsi
  404b09:	89 c7                	mov    %eax,%edi
  404b0b:	e8 b0 f2 ff ff       	callq  403dc0 <xopenme_add_var_f@plt>
  404b10:	48 83 7d f8 00       	cmpq   $0x0,-0x8(%rbp)
  404b15:	74 0c                	je     404b23 <_ZN2CK13store_value_fEiPKcf+0x79>
  404b17:	48 8b 45 f8          	mov    -0x8(%rbp),%rax
  404b1b:	48 89 c7             	mov    %rax,%rdi
  404b1e:	e8 dd f3 ff ff       	callq  403f00 <_ZdaPv@plt>
  404b23:	90                   	nop
  404b24:	c9                   	leaveq 
  404b25:	c3                   	retq   

0000000000404b26 <_ZN2CK24get_input_shape_from_envEiiii>:
  404b26:	55                   	push   %rbp
  404b27:	48 89 e5             	mov    %rsp,%rbp
  404b2a:	48 83 ec 30          	sub    $0x30,%rsp
  404b2e:	89 7d dc             	mov    %edi,-0x24(%rbp)
  404b31:	89 75 d8             	mov    %esi,-0x28(%rbp)
  404b34:	89 55 d4             	mov    %edx,-0x2c(%rbp)
  404b37:	89 4d d0             	mov    %ecx,-0x30(%rbp)
  404b3a:	64 48 8b 04 25 28 00 	mov    %fs:0x28,%rax
  404b41:	00 00 
  404b43:	48 89 45 f8          	mov    %rax,-0x8(%rbp)
  404b47:	31 c0                	xor    %eax,%eax
  404b49:	c7 45 e0 01 00 00 00 	movl   $0x1,-0x20(%rbp)
  404b50:	c7 45 e4 01 00 00 00 	movl   $0x1,-0x1c(%rbp)
  404b57:	c7 45 e8 01 00 00 00 	movl   $0x1,-0x18(%rbp)
  404b5e:	c7 45 ec 01 00 00 00 	movl   $0x1,-0x14(%rbp)
  404b65:	8b 45 dc             	mov    -0x24(%rbp),%eax
  404b68:	89 c6                	mov    %eax,%esi
  404b6a:	bf e6 ac 40 00       	mov    $0x40ace6,%edi
  404b6f:	e8 89 fe ff ff       	callq  4049fd <_ZN2CK8getenv_iEPKci>
  404b74:	89 45 e0             	mov    %eax,-0x20(%rbp)
  404b77:	8b 45 d8             	mov    -0x28(%rbp),%eax
  404b7a:	89 c6                	mov    %eax,%esi
  404b7c:	bf f4 ac 40 00       	mov    $0x40acf4,%edi
  404b81:	e8 77 fe ff ff       	callq  4049fd <_ZN2CK8getenv_iEPKci>
  404b86:	89 45 e4             	mov    %eax,-0x1c(%rbp)
  404b89:	8b 45 d4             	mov    -0x2c(%rbp),%eax
  404b8c:	89 c6                	mov    %eax,%esi
  404b8e:	bf 02 ad 40 00       	mov    $0x40ad02,%edi
  404b93:	e8 65 fe ff ff       	callq  4049fd <_ZN2CK8getenv_iEPKci>
  404b98:	89 45 e8             	mov    %eax,-0x18(%rbp)
  404b9b:	8b 45 d0             	mov    -0x30(%rbp),%eax
  404b9e:	89 c6                	mov    %eax,%esi
  404ba0:	bf 10 ad 40 00       	mov    $0x40ad10,%edi
  404ba5:	e8 53 fe ff ff       	callq  4049fd <_ZN2CK8getenv_iEPKci>
  404baa:	89 45 ec             	mov    %eax,-0x14(%rbp)
  404bad:	8b 45 e0             	mov    -0x20(%rbp),%eax
  404bb0:	89 c2                	mov    %eax,%edx
  404bb2:	be 1e ad 40 00       	mov    $0x40ad1e,%esi
  404bb7:	bf 04 00 00 00       	mov    $0x4,%edi
  404bbc:	e8 77 fe ff ff       	callq  404a38 <_ZN2CK13store_value_iEiPKci>
  404bc1:	8b 45 e4             	mov    -0x1c(%rbp),%eax
  404bc4:	89 c2                	mov    %eax,%edx
  404bc6:	be 29 ad 40 00       	mov    $0x40ad29,%esi
  404bcb:	bf 05 00 00 00       	mov    $0x5,%edi
  404bd0:	e8 63 fe ff ff       	callq  404a38 <_ZN2CK13store_value_iEiPKci>
  404bd5:	8b 45 e8             	mov    -0x18(%rbp),%eax
  404bd8:	89 c2                	mov    %eax,%edx
  404bda:	be 34 ad 40 00       	mov    $0x40ad34,%esi
  404bdf:	bf 06 00 00 00       	mov    $0x6,%edi
  404be4:	e8 4f fe ff ff       	callq  404a38 <_ZN2CK13store_value_iEiPKci>
  404be9:	8b 45 ec             	mov    -0x14(%rbp),%eax
  404bec:	89 c2                	mov    %eax,%edx
  404bee:	be 3f ad 40 00       	mov    $0x40ad3f,%esi
  404bf3:	bf 07 00 00 00       	mov    $0x7,%edi
  404bf8:	e8 3b fe ff ff       	callq  404a38 <_ZN2CK13store_value_iEiPKci>
  404bfd:	8b 75 ec             	mov    -0x14(%rbp),%esi
  404c00:	8b 4d e8             	mov    -0x18(%rbp),%ecx
  404c03:	8b 55 e4             	mov    -0x1c(%rbp),%edx
  404c06:	8b 45 e0             	mov    -0x20(%rbp),%eax
  404c09:	41 89 f0             	mov    %esi,%r8d
  404c0c:	89 c6                	mov    %eax,%esi
  404c0e:	bf 50 ad 40 00       	mov    $0x40ad50,%edi
  404c13:	b8 00 00 00 00       	mov    $0x0,%eax
  404c18:	e8 e3 f1 ff ff       	callq  403e00 <printf@plt>
  404c1d:	48 8b 45 e0          	mov    -0x20(%rbp),%rax
  404c21:	48 8b 55 e8          	mov    -0x18(%rbp),%rdx
  404c25:	48 8b 4d f8          	mov    -0x8(%rbp),%rcx
  404c29:	64 48 33 0c 25 28 00 	xor    %fs:0x28,%rcx
  404c30:	00 00 
  404c32:	74 05                	je     404c39 <_ZN2CK24get_input_shape_from_envEiiii+0x113>
  404c34:	e8 77 f2 ff ff       	callq  403eb0 <__stack_chk_fail@plt>
  404c39:	c9                   	leaveq 
  404c3a:	c3                   	retq   

0000000000404c3b <_ZN2CK9init_testEv>:
  404c3b:	55                   	push   %rbp
  404c3c:	48 89 e5             	mov    %rsp,%rbp
  404c3f:	48 83 ec 10          	sub    $0x10,%rsp
  404c43:	be 0c 00 00 00       	mov    $0xc,%esi
  404c48:	bf 02 00 00 00       	mov    $0x2,%edi
  404c4d:	e8 5e f1 ff ff       	callq  403db0 <xopenme_init@plt>
  404c52:	be 2a 00 00 00       	mov    $0x2a,%esi
  404c57:	bf 87 ad 40 00       	mov    $0x40ad87,%edi
  404c5c:	e8 9c fd ff ff       	callq  4049fd <_ZN2CK8getenv_iEPKci>
  404c61:	89 45 fc             	mov    %eax,-0x4(%rbp)
  404c64:	8b 45 fc             	mov    -0x4(%rbp),%eax
  404c67:	89 c2                	mov    %eax,%edx
  404c69:	be 8f ad 40 00       	mov    $0x40ad8f,%esi
  404c6e:	bf 08 00 00 00       	mov    $0x8,%edi
  404c73:	e8 c0 fd ff ff       	callq  404a38 <_ZN2CK13store_value_iEiPKci>
  404c78:	8b 45 fc             	mov    -0x4(%rbp),%eax
  404c7b:	89 c7                	mov    %eax,%edi
  404c7d:	e8 9e f5 ff ff       	callq  404220 <srand@plt>
  404c82:	90                   	nop
  404c83:	c9                   	leaveq 
  404c84:	c3                   	retq   

0000000000404c85 <_ZN2CK11finish_testEv>:
  404c85:	55                   	push   %rbp
  404c86:	48 89 e5             	mov    %rsp,%rbp
  404c89:	bf 00 00 00 00       	mov    $0x0,%edi
  404c8e:	e8 ad f2 ff ff       	callq  403f40 <xopenme_get_timer@plt>
  404c93:	be 00 00 00 00       	mov    $0x0,%esi
  404c98:	bf 98 ad 40 00       	mov    $0x40ad98,%edi
  404c9d:	b8 01 00 00 00       	mov    $0x1,%eax
  404ca2:	e8 59 f1 ff ff       	callq  403e00 <printf@plt>
  404ca7:	bf 01 00 00 00       	mov    $0x1,%edi
  404cac:	e8 8f f2 ff ff       	callq  403f40 <xopenme_get_timer@plt>
  404cb1:	be 01 00 00 00       	mov    $0x1,%esi
  404cb6:	bf ac ad 40 00       	mov    $0x40adac,%edi
  404cbb:	b8 01 00 00 00       	mov    $0x1,%eax
  404cc0:	e8 3b f1 ff ff       	callq  403e00 <printf@plt>
  404cc5:	e8 36 f5 ff ff       	callq  404200 <xopenme_dump_state@plt>
  404cca:	e8 71 f5 ff ff       	callq  404240 <xopenme_finish@plt>
  404ccf:	90                   	nop
  404cd0:	5d                   	pop    %rbp
  404cd1:	c3                   	retq   

0000000000404cd2 <_ZZN2CK5Caffe12test_softmaxEvENKUlvE_clEv>:
  404cd2:	55                   	push   %rbp
  404cd3:	48 89 e5             	mov    %rsp,%rbp
  404cd6:	48 83 ec 10          	sub    $0x10,%rsp
  404cda:	48 89 7d f8          	mov    %rdi,-0x8(%rbp)
  404cde:	48 8b 45 f8          	mov    -0x8(%rbp),%rax
  404ce2:	48 8b 50 10          	mov    0x10(%rax),%rdx
  404ce6:	48 8b 45 f8          	mov    -0x8(%rbp),%rax
  404cea:	48 8b 40 08          	mov    0x8(%rax),%rax
  404cee:	48 8b 4d f8          	mov    -0x8(%rbp),%rcx
  404cf2:	48 8b 09             	mov    (%rcx),%rcx
  404cf5:	48 89 c6             	mov    %rax,%rsi
  404cf8:	48 89 cf             	mov    %rcx,%rdi
  404cfb:	e8 a0 08 00 00       	callq  4055a0 <_ZN5caffe5LayerIfE5SetUpERKSt6vectorIPNS_4BlobIfEESaIS5_EES9_>
  404d00:	90                   	nop
  404d01:	c9                   	leaveq 
  404d02:	c3                   	retq   
  404d03:	90                   	nop

0000000000404d04 <_ZZN2CK5Caffe12test_softmaxEvENKUlvE0_clEv>:
  404d04:	55                   	push   %rbp
  404d05:	48 89 e5             	mov    %rsp,%rbp
  404d08:	48 83 ec 10          	sub    $0x10,%rsp
  404d0c:	48 89 7d f8          	mov    %rdi,-0x8(%rbp)
  404d10:	48 8b 45 f8          	mov    -0x8(%rbp),%rax
  404d14:	48 8b 50 10          	mov    0x10(%rax),%rdx
  404d18:	48 8b 45 f8          	mov    -0x8(%rbp),%rax
  404d1c:	48 8b 40 08          	mov    0x8(%rax),%rax
  404d20:	48 8b 4d f8          	mov    -0x8(%rbp),%rcx
  404d24:	48 8b 09             	mov    (%rcx),%rcx
  404d27:	48 89 c6             	mov    %rax,%rsi
  404d2a:	48 89 cf             	mov    %rcx,%rdi
  404d2d:	e8 3e 0a 00 00       	callq  405770 <_ZN5caffe5LayerIfE7ForwardERKSt6vectorIPNS_4BlobIfEESaIS5_EES9_>
  404d32:	90                   	nop
  404d33:	c9                   	leaveq 
  404d34:	c3                   	retq   
  404d35:	90                   	nop

0000000000404d36 <_ZN5boost10shared_ptrIN5caffe12SyncedMemoryEED1Ev>:
  404d36:	55                   	push   %rbp
  404d37:	48 89 e5             	mov    %rsp,%rbp
  404d3a:	48 83 ec 10          	sub    $0x10,%rsp
  404d3e:	48 89 7d f8          	mov    %rdi,-0x8(%rbp)
  404d42:	48 8b 45 f8          	mov    -0x8(%rbp),%rax
  404d46:	48 83 c0 08          	add    $0x8,%rax
  404d4a:	48 89 c7             	mov    %rax,%rdi
  404d4d:	e8 0a f9 ff ff       	callq  40465c <_ZN5boost6detail12shared_countD1Ev>
  404d52:	90                   	nop
  404d53:	c9                   	leaveq 
  404d54:	c3                   	retq   
  404d55:	90                   	nop

0000000000404d56 <_ZN5caffe4BlobIfED1Ev>:
  404d56:	55                   	push   %rbp
  404d57:	48 89 e5             	mov    %rsp,%rbp
  404d5a:	48 83 ec 10          	sub    $0x10,%rsp
  404d5e:	48 89 7d f8          	mov    %rdi,-0x8(%rbp)
  404d62:	48 8b 45 f8          	mov    -0x8(%rbp),%rax
  404d66:	48 83 c0 30          	add    $0x30,%rax
  404d6a:	48 89 c7             	mov    %rax,%rdi
  404d6d:	e8 3e 0e 00 00       	callq  405bb0 <_ZNSt6vectorIiSaIiEED1Ev>
  404d72:	48 8b 45 f8          	mov    -0x8(%rbp),%rax
  404d76:	48 83 c0 20          	add    $0x20,%rax
  404d7a:	48 89 c7             	mov    %rax,%rdi
  404d7d:	e8 b4 ff ff ff       	callq  404d36 <_ZN5boost10shared_ptrIN5caffe12SyncedMemoryEED1Ev>
  404d82:	48 8b 45 f8          	mov    -0x8(%rbp),%rax
  404d86:	48 83 c0 10          	add    $0x10,%rax
  404d8a:	48 89 c7             	mov    %rax,%rdi
  404d8d:	e8 a4 ff ff ff       	callq  404d36 <_ZN5boost10shared_ptrIN5caffe12SyncedMemoryEED1Ev>
  404d92:	48 8b 45 f8          	mov    -0x8(%rbp),%rax
  404d96:	48 89 c7             	mov    %rax,%rdi
  404d99:	e8 98 ff ff ff       	callq  404d36 <_ZN5boost10shared_ptrIN5caffe12SyncedMemoryEED1Ev>
  404d9e:	90                   	nop
  404d9f:	c9                   	leaveq 
  404da0:	c3                   	retq   

0000000000404da1 <_ZN2CK5Caffe12test_softmaxEv>:
  404da1:	55                   	push   %rbp
  404da2:	48 89 e5             	mov    %rsp,%rbp
  404da5:	41 54                	push   %r12
  404da7:	53                   	push   %rbx
  404da8:	48 81 ec 70 06 00 00 	sub    $0x670,%rsp
  404daf:	64 48 8b 04 25 28 00 	mov    %fs:0x28,%rax
  404db6:	00 00 
  404db8:	48 89 45 e8          	mov    %rax,-0x18(%rbp)
  404dbc:	31 c0                	xor    %eax,%eax
  404dbe:	e8 78 fe ff ff       	callq  404c3b <_ZN2CK9init_testEv>
  404dc3:	b9 01 00 00 00       	mov    $0x1,%ecx
  404dc8:	ba 01 00 00 00       	mov    $0x1,%edx
  404dcd:	be 03 00 00 00       	mov    $0x3,%esi
  404dd2:	bf 01 00 00 00       	mov    $0x1,%edi
  404dd7:	e8 4a fd ff ff       	callq  404b26 <_ZN2CK24get_input_shape_from_envEiiii>
  404ddc:	48 89 85 a0 f9 ff ff 	mov    %rax,-0x660(%rbp)
  404de3:	48 89 95 a8 f9 ff ff 	mov    %rdx,-0x658(%rbp)
  404dea:	8b 85 ac f9 ff ff    	mov    -0x654(%rbp),%eax
  404df0:	83 f8 01             	cmp    $0x1,%eax
  404df3:	75 0b                	jne    404e00 <_ZN2CK5Caffe12test_softmaxEv+0x5f>
  404df5:	8b 85 a8 f9 ff ff    	mov    -0x658(%rbp),%eax
  404dfb:	83 f8 01             	cmp    $0x1,%eax
  404dfe:	74 19                	je     404e19 <_ZN2CK5Caffe12test_softmaxEv+0x78>
  404e00:	b9 10 b4 40 00       	mov    $0x40b410,%ecx
  404e05:	ba 1a 00 00 00       	mov    $0x1a,%edx
  404e0a:	be d8 ad 40 00       	mov    $0x40add8,%esi
  404e0f:	bf 40 ae 40 00       	mov    $0x40ae40,%edi
  404e14:	e8 57 f0 ff ff       	callq  403e70 <__assert_fail@plt>
  404e19:	bf 50 00 00 00       	mov    $0x50,%edi
  404e1e:	e8 2d f0 ff ff       	callq  403e50 <_Znwm@plt>
  404e23:	48 89 c3             	mov    %rax,%rbx
  404e26:	8b b5 ac f9 ff ff    	mov    -0x654(%rbp),%esi
  404e2c:	8b 8d a8 f9 ff ff    	mov    -0x658(%rbp),%ecx
  404e32:	8b 95 a4 f9 ff ff    	mov    -0x65c(%rbp),%edx
  404e38:	8b 85 a0 f9 ff ff    	mov    -0x660(%rbp),%eax
  404e3e:	41 89 f0             	mov    %esi,%r8d
  404e41:	89 c6                	mov    %eax,%esi
  404e43:	48 89 df             	mov    %rbx,%rdi
  404e46:	e8 f5 f2 ff ff       	callq  404140 <_ZN5caffe4BlobIfEC1Eiiii@plt>
  404e4b:	48 89 9d 80 f9 ff ff 	mov    %rbx,-0x680(%rbp)
  404e52:	48 8d 85 b0 f9 ff ff 	lea    -0x650(%rbp),%rax
  404e59:	48 89 c7             	mov    %rax,%rdi
  404e5c:	e8 bb 05 00 00       	callq  40541c <_ZNSt6vectorIPN5caffe4BlobIfEESaIS3_EEC1Ev>
  404e61:	48 8d 95 80 f9 ff ff 	lea    -0x680(%rbp),%rdx
  404e68:	48 8d 85 b0 f9 ff ff 	lea    -0x650(%rbp),%rax
  404e6f:	48 89 d6             	mov    %rdx,%rsi
  404e72:	48 89 c7             	mov    %rax,%rdi
  404e75:	e8 02 06 00 00       	callq  40547c <_ZNSt6vectorIPN5caffe4BlobIfEESaIS3_EE9push_backERKS3_>
  404e7a:	bf 50 00 00 00       	mov    $0x50,%edi
  404e7f:	e8 cc ef ff ff       	callq  403e50 <_Znwm@plt>
  404e84:	48 89 c3             	mov    %rax,%rbx
  404e87:	48 89 df             	mov    %rbx,%rdi
  404e8a:	e8 59 06 00 00       	callq  4054e8 <_ZN5caffe4BlobIfEC1Ev>
  404e8f:	48 89 9d 88 f9 ff ff 	mov    %rbx,-0x678(%rbp)
  404e96:	48 8d 85 d0 f9 ff ff 	lea    -0x630(%rbp),%rax
  404e9d:	48 89 c7             	mov    %rax,%rdi
  404ea0:	e8 77 05 00 00       	callq  40541c <_ZNSt6vectorIPN5caffe4BlobIfEESaIS3_EEC1Ev>
  404ea5:	48 8d 95 88 f9 ff ff 	lea    -0x678(%rbp),%rdx
  404eac:	48 8d 85 d0 f9 ff ff 	lea    -0x630(%rbp),%rax
  404eb3:	48 89 d6             	mov    %rdx,%rsi
  404eb6:	48 89 c7             	mov    %rax,%rdi
  404eb9:	e8 be 05 00 00       	callq  40547c <_ZNSt6vectorIPN5caffe4BlobIfEESaIS3_EE9push_backERKS3_>
  404ebe:	48 8d 85 10 fa ff ff 	lea    -0x5f0(%rbp),%rax
  404ec5:	48 89 c7             	mov    %rax,%rdi
  404ec8:	e8 23 ef ff ff       	callq  403df0 <_ZN5caffe14LayerParameterC1Ev@plt>
  404ecd:	48 8d 85 10 fa ff ff 	lea    -0x5f0(%rbp),%rax
  404ed4:	48 89 c7             	mov    %rax,%rdi
  404ed7:	e8 9c f9 ff ff       	callq  404878 <_ZN5caffe14LayerParameter21mutable_softmax_paramEv>
  404edc:	be 01 00 00 00       	mov    $0x1,%esi
  404ee1:	48 89 c7             	mov    %rax,%rdi
  404ee4:	e8 41 fa ff ff       	callq  40492a <_ZN5caffe16SoftmaxParameter8set_axisEi>
  404ee9:	48 8d 95 10 fa ff ff 	lea    -0x5f0(%rbp),%rdx
  404ef0:	48 8d 85 70 fc ff ff 	lea    -0x390(%rbp),%rax
  404ef7:	48 89 d6             	mov    %rdx,%rsi
  404efa:	48 89 c7             	mov    %rax,%rdi
  404efd:	e8 48 06 00 00       	callq  40554a <_ZN5caffe12SoftmaxLayerIfEC1ERKNS_14LayerParameterE>
  404f02:	48 8d 85 70 fc ff ff 	lea    -0x390(%rbp),%rax
  404f09:	48 89 85 f0 f9 ff ff 	mov    %rax,-0x610(%rbp)
  404f10:	48 8d 85 b0 f9 ff ff 	lea    -0x650(%rbp),%rax
  404f17:	48 89 85 f8 f9 ff ff 	mov    %rax,-0x608(%rbp)
  404f1e:	48 8d 85 d0 f9 ff ff 	lea    -0x630(%rbp),%rax
  404f25:	48 89 85 00 fa ff ff 	mov    %rax,-0x600(%rbp)
  404f2c:	48 8d 85 f0 f9 ff ff 	lea    -0x610(%rbp),%rax
  404f33:	48 89 c7             	mov    %rax,%rdi
  404f36:	e8 ee 06 00 00       	callq  405629 <_ZN2CK13measure_setupIZNS_5Caffe12test_softmaxEvEUlvE_EEvOT_>
  404f3b:	48 8d 85 a0 f9 ff ff 	lea    -0x660(%rbp),%rax
  404f42:	48 89 c7             	mov    %rax,%rdi
  404f45:	e8 12 07 00 00       	callq  40565c <_ZN2CK19get_random_raw_dataIfEEPT_RKNS_5ShapeE>
  404f4a:	48 89 85 90 f9 ff ff 	mov    %rax,-0x670(%rbp)
  404f51:	48 8d 95 a0 f9 ff ff 	lea    -0x660(%rbp),%rdx
  404f58:	48 8b 85 90 f9 ff ff 	mov    -0x670(%rbp),%rax
  404f5f:	48 89 d6             	mov    %rdx,%rsi
  404f62:	48 89 c7             	mov    %rax,%rdi
  404f65:	e8 d9 07 00 00       	callq  405743 <_ZN2CK20print_input_raw_dataIfEEvPT_RKNS_5ShapeE>
  404f6a:	48 8d 85 a0 f9 ff ff 	lea    -0x660(%rbp),%rax
  404f71:	48 89 c7             	mov    %rax,%rdi
  404f74:	e8 d9 f9 ff ff       	callq  404952 <_ZNK2CK5Shape10data_countEv>
  404f79:	48 98                	cltq   
  404f7b:	48 8d 1c 85 00 00 00 	lea    0x0(,%rax,4),%rbx
  404f82:	00 
  404f83:	48 8b 85 80 f9 ff ff 	mov    -0x680(%rbp),%rax
  404f8a:	48 89 c7             	mov    %rax,%rdi
  404f8d:	e8 fe ee ff ff       	callq  403e90 <_ZN5caffe4BlobIfE16mutable_cpu_dataEv@plt>
  404f92:	48 89 c1             	mov    %rax,%rcx
  404f95:	48 8b 85 90 f9 ff ff 	mov    -0x670(%rbp),%rax
  404f9c:	48 89 da             	mov    %rbx,%rdx
  404f9f:	48 89 c6             	mov    %rax,%rsi
  404fa2:	48 89 cf             	mov    %rcx,%rdi
  404fa5:	e8 76 ee ff ff       	callq  403e20 <memcpy@plt>
  404faa:	48 83 bd 90 f9 ff ff 	cmpq   $0x0,-0x670(%rbp)
  404fb1:	00 
  404fb2:	74 0f                	je     404fc3 <_ZN2CK5Caffe12test_softmaxEv+0x222>
  404fb4:	48 8b 85 90 f9 ff ff 	mov    -0x670(%rbp),%rax
  404fbb:	48 89 c7             	mov    %rax,%rdi
  404fbe:	e8 3d ef ff ff       	callq  403f00 <_ZdaPv@plt>
  404fc3:	48 8d 85 70 fc ff ff 	lea    -0x390(%rbp),%rax
  404fca:	48 89 85 f0 f9 ff ff 	mov    %rax,-0x610(%rbp)
  404fd1:	48 8d 85 b0 f9 ff ff 	lea    -0x650(%rbp),%rax
  404fd8:	48 89 85 f8 f9 ff ff 	mov    %rax,-0x608(%rbp)
  404fdf:	48 8d 85 d0 f9 ff ff 	lea    -0x630(%rbp),%rax
  404fe6:	48 89 85 00 fa ff ff 	mov    %rax,-0x600(%rbp)
  404fed:	48 8d 85 f0 f9 ff ff 	lea    -0x610(%rbp),%rax
  404ff4:	48 89 c7             	mov    %rax,%rdi
  404ff7:	e8 77 09 00 00       	callq  405973 <_ZN2CK12measure_testIZNS_5Caffe12test_softmaxEvEUlvE0_EEvOT_>
  404ffc:	48 8d 85 a0 f9 ff ff 	lea    -0x660(%rbp),%rax
  405003:	48 89 c7             	mov    %rax,%rdi
  405006:	e8 47 f9 ff ff       	callq  404952 <_ZNK2CK5Shape10data_countEv>
  40500b:	48 98                	cltq   
  40500d:	48 ba fe ff ff ff ff 	movabs $0x1ffffffffffffffe,%rdx
  405014:	ff ff 1f 
  405017:	48 39 d0             	cmp    %rdx,%rax
  40501a:	77 0e                	ja     40502a <_ZN2CK5Caffe12test_softmaxEv+0x289>
  40501c:	48 c1 e0 02          	shl    $0x2,%rax
  405020:	48 89 c7             	mov    %rax,%rdi
  405023:	e8 f8 ee ff ff       	callq  403f20 <_Znam@plt>
  405028:	eb 05                	jmp    40502f <_ZN2CK5Caffe12test_softmaxEv+0x28e>
  40502a:	e8 71 f0 ff ff       	callq  4040a0 <__cxa_throw_bad_array_new_length@plt>
  40502f:	48 89 85 98 f9 ff ff 	mov    %rax,-0x668(%rbp)
  405036:	48 8d 85 a0 f9 ff ff 	lea    -0x660(%rbp),%rax
  40503d:	48 89 c7             	mov    %rax,%rdi
  405040:	e8 0d f9 ff ff       	callq  404952 <_ZNK2CK5Shape10data_countEv>
  405045:	48 98                	cltq   
  405047:	48 8d 1c 85 00 00 00 	lea    0x0(,%rax,4),%rbx
  40504e:	00 
  40504f:	48 8b 85 88 f9 ff ff 	mov    -0x678(%rbp),%rax
  405056:	48 89 c7             	mov    %rax,%rdi
  405059:	e8 48 09 00 00       	callq  4059a6 <_ZNK5caffe4BlobIfE4dataEv>
  40505e:	48 89 c7             	mov    %rax,%rdi
  405061:	e8 2e 0a 00 00       	callq  405a94 <_ZNK5boost10shared_ptrIN5caffe12SyncedMemoryEEptEv>
  405066:	48 89 c7             	mov    %rax,%rdi
  405069:	e8 52 f0 ff ff       	callq  4040c0 <_ZN5caffe12SyncedMemory8cpu_dataEv@plt>
  40506e:	48 89 c1             	mov    %rax,%rcx
  405071:	48 8b 85 98 f9 ff ff 	mov    -0x668(%rbp),%rax
  405078:	48 89 da             	mov    %rbx,%rdx
  40507b:	48 89 ce             	mov    %rcx,%rsi
  40507e:	48 89 c7             	mov    %rax,%rdi
  405081:	e8 9a ed ff ff       	callq  403e20 <memcpy@plt>
  405086:	48 8d 95 a0 f9 ff ff 	lea    -0x660(%rbp),%rdx
  40508d:	48 8b 85 98 f9 ff ff 	mov    -0x668(%rbp),%rax
  405094:	48 89 d6             	mov    %rdx,%rsi
  405097:	48 89 c7             	mov    %rax,%rdi
  40509a:	e8 2f 0a 00 00       	callq  405ace <_ZN2CK21print_output_raw_dataIfEEvPT_RKNS_5ShapeE>
  40509f:	48 8d 95 a0 f9 ff ff 	lea    -0x660(%rbp),%rdx
  4050a6:	48 8b 85 98 f9 ff ff 	mov    -0x668(%rbp),%rax
  4050ad:	48 89 d6             	mov    %rdx,%rsi
  4050b0:	48 89 c7             	mov    %rax,%rdi
  4050b3:	e8 43 0a 00 00       	callq  405afb <_ZN2CK20dump_output_raw_dataIfEEvPT_RKNS_5ShapeE>
  4050b8:	48 83 bd 98 f9 ff ff 	cmpq   $0x0,-0x668(%rbp)
  4050bf:	00 
  4050c0:	74 0f                	je     4050d1 <_ZN2CK5Caffe12test_softmaxEv+0x330>
  4050c2:	48 8b 85 98 f9 ff ff 	mov    -0x668(%rbp),%rax
  4050c9:	48 89 c7             	mov    %rax,%rdi
  4050cc:	e8 2f ee ff ff       	callq  403f00 <_ZdaPv@plt>
  4050d1:	48 8b 9d 80 f9 ff ff 	mov    -0x680(%rbp),%rbx
  4050d8:	48 85 db             	test   %rbx,%rbx
  4050db:	74 10                	je     4050ed <_ZN2CK5Caffe12test_softmaxEv+0x34c>
  4050dd:	48 89 df             	mov    %rbx,%rdi
  4050e0:	e8 71 fc ff ff       	callq  404d56 <_ZN5caffe4BlobIfED1Ev>
  4050e5:	48 89 df             	mov    %rbx,%rdi
  4050e8:	e8 73 ee ff ff       	callq  403f60 <_ZdlPv@plt>
  4050ed:	48 8b 9d 88 f9 ff ff 	mov    -0x678(%rbp),%rbx
  4050f4:	48 85 db             	test   %rbx,%rbx
  4050f7:	74 10                	je     405109 <_ZN2CK5Caffe12test_softmaxEv+0x368>
  4050f9:	48 89 df             	mov    %rbx,%rdi
  4050fc:	e8 55 fc ff ff       	callq  404d56 <_ZN5caffe4BlobIfED1Ev>
  405101:	48 89 df             	mov    %rbx,%rdi
  405104:	e8 57 ee ff ff       	callq  403f60 <_ZdlPv@plt>
  405109:	e8 77 fb ff ff       	callq  404c85 <_ZN2CK11finish_testEv>
  40510e:	48 8d 85 70 fc ff ff 	lea    -0x390(%rbp),%rax
  405115:	48 89 c7             	mov    %rax,%rdi
  405118:	e8 65 57 00 00       	callq  40a882 <_ZN5caffe12SoftmaxLayerIfED1Ev>
  40511d:	48 8d 85 10 fa ff ff 	lea    -0x5f0(%rbp),%rax
  405124:	48 89 c7             	mov    %rax,%rdi
  405127:	e8 44 f1 ff ff       	callq  404270 <_ZN5caffe14LayerParameterD1Ev@plt>
  40512c:	48 8d 85 d0 f9 ff ff 	lea    -0x630(%rbp),%rax
  405133:	48 89 c7             	mov    %rax,%rdi
  405136:	e8 fd 02 00 00       	callq  405438 <_ZNSt6vectorIPN5caffe4BlobIfEESaIS3_EED1Ev>
  40513b:	48 8d 85 b0 f9 ff ff 	lea    -0x650(%rbp),%rax
  405142:	48 89 c7             	mov    %rax,%rdi
  405145:	e8 ee 02 00 00       	callq  405438 <_ZNSt6vectorIPN5caffe4BlobIfEESaIS3_EED1Ev>
  40514a:	90                   	nop
  40514b:	48 8b 45 e8          	mov    -0x18(%rbp),%rax
  40514f:	64 48 33 04 25 28 00 	xor    %fs:0x28,%rax
  405156:	00 00 
  405158:	74 76                	je     4051d0 <_ZN2CK5Caffe12test_softmaxEv+0x42f>
  40515a:	eb 6f                	jmp    4051cb <_ZN2CK5Caffe12test_softmaxEv+0x42a>
  40515c:	49 89 c4             	mov    %rax,%r12
  40515f:	48 89 df             	mov    %rbx,%rdi
  405162:	e8 f9 ed ff ff       	callq  403f60 <_ZdlPv@plt>
  405167:	4c 89 e0             	mov    %r12,%rax
  40516a:	48 89 c7             	mov    %rax,%rdi
  40516d:	e8 7e ee ff ff       	callq  403ff0 <_Unwind_Resume@plt>
  405172:	48 89 c3             	mov    %rax,%rbx
  405175:	48 8d 85 70 fc ff ff 	lea    -0x390(%rbp),%rax
  40517c:	48 89 c7             	mov    %rax,%rdi
  40517f:	e8 fe 56 00 00       	callq  40a882 <_ZN5caffe12SoftmaxLayerIfED1Ev>
  405184:	eb 03                	jmp    405189 <_ZN2CK5Caffe12test_softmaxEv+0x3e8>
  405186:	48 89 c3             	mov    %rax,%rbx
  405189:	48 8d 85 10 fa ff ff 	lea    -0x5f0(%rbp),%rax
  405190:	48 89 c7             	mov    %rax,%rdi
  405193:	e8 d8 f0 ff ff       	callq  404270 <_ZN5caffe14LayerParameterD1Ev@plt>
  405198:	eb 03                	jmp    40519d <_ZN2CK5Caffe12test_softmaxEv+0x3fc>
  40519a:	48 89 c3             	mov    %rax,%rbx
  40519d:	48 8d 85 d0 f9 ff ff 	lea    -0x630(%rbp),%rax
  4051a4:	48 89 c7             	mov    %rax,%rdi
  4051a7:	e8 8c 02 00 00       	callq  405438 <_ZNSt6vectorIPN5caffe4BlobIfEESaIS3_EED1Ev>
  4051ac:	eb 03                	jmp    4051b1 <_ZN2CK5Caffe12test_softmaxEv+0x410>
  4051ae:	48 89 c3             	mov    %rax,%rbx
  4051b1:	48 8d 85 b0 f9 ff ff 	lea    -0x650(%rbp),%rax
  4051b8:	48 89 c7             	mov    %rax,%rdi
  4051bb:	e8 78 02 00 00       	callq  405438 <_ZNSt6vectorIPN5caffe4BlobIfEESaIS3_EED1Ev>
  4051c0:	48 89 d8             	mov    %rbx,%rax
  4051c3:	48 89 c7             	mov    %rax,%rdi
  4051c6:	e8 25 ee ff ff       	callq  403ff0 <_Unwind_Resume@plt>
  4051cb:	e8 e0 ec ff ff       	callq  403eb0 <__stack_chk_fail@plt>
  4051d0:	48 81 c4 70 06 00 00 	add    $0x670,%rsp
  4051d7:	5b                   	pop    %rbx
  4051d8:	41 5c                	pop    %r12
  4051da:	5d                   	pop    %rbp
  4051db:	c3                   	retq   

00000000004051dc <_ZNK6google8protobuf13RepeatedFieldIfE4sizeEv>:
  4051dc:	55                   	push   %rbp
  4051dd:	48 89 e5             	mov    %rsp,%rbp
  4051e0:	48 89 7d f8          	mov    %rdi,-0x8(%rbp)
  4051e4:	48 8b 45 f8          	mov    -0x8(%rbp),%rax
  4051e8:	8b 00                	mov    (%rax),%eax
  4051ea:	5d                   	pop    %rbp
  4051eb:	c3                   	retq   

00000000004051ec <_ZNK6google8protobuf13RepeatedFieldIfE3GetEi>:
  4051ec:	55                   	push   %rbp
  4051ed:	48 89 e5             	mov    %rsp,%rbp
  4051f0:	41 54                	push   %r12
  4051f2:	53                   	push   %rbx
  4051f3:	48 81 ec a0 00 00 00 	sub    $0xa0,%rsp
  4051fa:	48 89 bd 58 ff ff ff 	mov    %rdi,-0xa8(%rbp)
  405201:	89 b5 54 ff ff ff    	mov    %esi,-0xac(%rbp)
  405207:	64 48 8b 04 25 28 00 	mov    %fs:0x28,%rax
  40520e:	00 00 
  405210:	48 89 45 e8          	mov    %rax,-0x18(%rbp)
  405214:	31 c0                	xor    %eax,%eax
  405216:	bb 00 00 00 00       	mov    $0x0,%ebx
  40521b:	41 bc 00 00 00 00    	mov    $0x0,%r12d
  405221:	83 bd 54 ff ff ff 00 	cmpl   $0x0,-0xac(%rbp)
  405228:	79 52                	jns    40527c <_ZNK6google8protobuf13RepeatedFieldIfE3GetEi+0x90>
  40522a:	48 8d 85 70 ff ff ff 	lea    -0x90(%rbp),%rax
  405231:	b9 43 04 00 00       	mov    $0x443,%ecx
  405236:	ba 68 ae 40 00       	mov    $0x40ae68,%edx
  40523b:	be 03 00 00 00       	mov    $0x3,%esi
  405240:	48 89 c7             	mov    %rax,%rdi
  405243:	e8 58 ed ff ff       	callq  403fa0 <_ZN6google8protobuf8internal10LogMessageC1ENS0_8LogLevelEPKci@plt>
  405248:	bb 01 00 00 00       	mov    $0x1,%ebx
  40524d:	48 8d 85 70 ff ff ff 	lea    -0x90(%rbp),%rax
  405254:	be d8 ae 40 00       	mov    $0x40aed8,%esi
  405259:	48 89 c7             	mov    %rax,%rdi
  40525c:	e8 1f f0 ff ff       	callq  404280 <_ZN6google8protobuf8internal10LogMessagelsEPKc@plt>
  405261:	48 89 c2             	mov    %rax,%rdx
  405264:	41 bc 01 00 00 00    	mov    $0x1,%r12d
  40526a:	48 8d 85 6e ff ff ff 	lea    -0x92(%rbp),%rax
  405271:	48 89 d6             	mov    %rdx,%rsi
  405274:	48 89 c7             	mov    %rax,%rdi
  405277:	e8 04 ee ff ff       	callq  404080 <_ZN6google8protobuf8internal11LogFinisheraSERNS1_10LogMessageE@plt>
  40527c:	45 84 e4             	test   %r12b,%r12b
  40527f:	84 db                	test   %bl,%bl
  405281:	74 12                	je     405295 <_ZNK6google8protobuf13RepeatedFieldIfE3GetEi+0xa9>
  405283:	90                   	nop
  405284:	48 8d 85 70 ff ff ff 	lea    -0x90(%rbp),%rax
  40528b:	48 89 c7             	mov    %rax,%rdi
  40528e:	e8 5d ee ff ff       	callq  4040f0 <_ZN6google8protobuf8internal10LogMessageD1Ev@plt>
  405293:	eb 01                	jmp    405296 <_ZNK6google8protobuf13RepeatedFieldIfE3GetEi+0xaa>
  405295:	90                   	nop
  405296:	48 8b 85 58 ff ff ff 	mov    -0xa8(%rbp),%rax
  40529d:	8b 00                	mov    (%rax),%eax
  40529f:	bb 00 00 00 00       	mov    $0x0,%ebx
  4052a4:	41 bc 00 00 00 00    	mov    $0x0,%r12d
  4052aa:	3b 85 54 ff ff ff    	cmp    -0xac(%rbp),%eax
  4052b0:	7f 4c                	jg     4052fe <_ZNK6google8protobuf13RepeatedFieldIfE3GetEi+0x112>
  4052b2:	48 8d 45 b0          	lea    -0x50(%rbp),%rax
  4052b6:	b9 44 04 00 00       	mov    $0x444,%ecx
  4052bb:	ba 68 ae 40 00       	mov    $0x40ae68,%edx
  4052c0:	be 03 00 00 00       	mov    $0x3,%esi
  4052c5:	48 89 c7             	mov    %rax,%rdi
  4052c8:	e8 d3 ec ff ff       	callq  403fa0 <_ZN6google8protobuf8internal10LogMessageC1ENS0_8LogLevelEPKci@plt>
  4052cd:	bb 01 00 00 00       	mov    $0x1,%ebx
  4052d2:	48 8d 45 b0          	lea    -0x50(%rbp),%rax
  4052d6:	be f8 ae 40 00       	mov    $0x40aef8,%esi
  4052db:	48 89 c7             	mov    %rax,%rdi
  4052de:	e8 9d ef ff ff       	callq  404280 <_ZN6google8protobuf8internal10LogMessagelsEPKc@plt>
  4052e3:	48 89 c2             	mov    %rax,%rdx
  4052e6:	41 bc 01 00 00 00    	mov    $0x1,%r12d
  4052ec:	48 8d 85 6f ff ff ff 	lea    -0x91(%rbp),%rax
  4052f3:	48 89 d6             	mov    %rdx,%rsi
  4052f6:	48 89 c7             	mov    %rax,%rdi
  4052f9:	e8 82 ed ff ff       	callq  404080 <_ZN6google8protobuf8internal11LogFinisheraSERNS1_10LogMessageE@plt>
  4052fe:	45 84 e4             	test   %r12b,%r12b
  405301:	84 db                	test   %bl,%bl
  405303:	74 0f                	je     405314 <_ZNK6google8protobuf13RepeatedFieldIfE3GetEi+0x128>
  405305:	90                   	nop
  405306:	48 8d 45 b0          	lea    -0x50(%rbp),%rax
  40530a:	48 89 c7             	mov    %rax,%rdi
  40530d:	e8 de ed ff ff       	callq  4040f0 <_ZN6google8protobuf8internal10LogMessageD1Ev@plt>
  405312:	eb 01                	jmp    405315 <_ZNK6google8protobuf13RepeatedFieldIfE3GetEi+0x129>
  405314:	90                   	nop
  405315:	48 8b 85 58 ff ff ff 	mov    -0xa8(%rbp),%rax
  40531c:	48 8b 40 08          	mov    0x8(%rax),%rax
  405320:	8b 95 54 ff ff ff    	mov    -0xac(%rbp),%edx
  405326:	48 63 d2             	movslq %edx,%rdx
  405329:	48 c1 e2 02          	shl    $0x2,%rdx
  40532d:	48 01 d0             	add    %rdx,%rax
  405330:	48 83 c0 08          	add    $0x8,%rax
  405334:	48 8b 4d e8          	mov    -0x18(%rbp),%rcx
  405338:	64 48 33 0c 25 28 00 	xor    %fs:0x28,%rcx
  40533f:	00 00 
  405341:	74 54                	je     405397 <_ZNK6google8protobuf13RepeatedFieldIfE3GetEi+0x1ab>
  405343:	eb 4d                	jmp    405392 <_ZNK6google8protobuf13RepeatedFieldIfE3GetEi+0x1a6>
  405345:	45 84 e4             	test   %r12b,%r12b
  405348:	49 89 c4             	mov    %rax,%r12
  40534b:	84 db                	test   %bl,%bl
  40534d:	74 12                	je     405361 <_ZNK6google8protobuf13RepeatedFieldIfE3GetEi+0x175>
  40534f:	90                   	nop
  405350:	48 8d 85 70 ff ff ff 	lea    -0x90(%rbp),%rax
  405357:	48 89 c7             	mov    %rax,%rdi
  40535a:	e8 91 ed ff ff       	callq  4040f0 <_ZN6google8protobuf8internal10LogMessageD1Ev@plt>
  40535f:	eb 01                	jmp    405362 <_ZNK6google8protobuf13RepeatedFieldIfE3GetEi+0x176>
  405361:	90                   	nop
  405362:	4c 89 e0             	mov    %r12,%rax
  405365:	48 89 c7             	mov    %rax,%rdi
  405368:	e8 83 ec ff ff       	callq  403ff0 <_Unwind_Resume@plt>
  40536d:	45 84 e4             	test   %r12b,%r12b
  405370:	49 89 c4             	mov    %rax,%r12
  405373:	84 db                	test   %bl,%bl
  405375:	74 0f                	je     405386 <_ZNK6google8protobuf13RepeatedFieldIfE3GetEi+0x19a>
  405377:	90                   	nop
  405378:	48 8d 45 b0          	lea    -0x50(%rbp),%rax
  40537c:	48 89 c7             	mov    %rax,%rdi
  40537f:	e8 6c ed ff ff       	callq  4040f0 <_ZN6google8protobuf8internal10LogMessageD1Ev@plt>
  405384:	eb 01                	jmp    405387 <_ZNK6google8protobuf13RepeatedFieldIfE3GetEi+0x19b>
  405386:	90                   	nop
  405387:	4c 89 e0             	mov    %r12,%rax
  40538a:	48 89 c7             	mov    %rax,%rdi
  40538d:	e8 5e ec ff ff       	callq  403ff0 <_Unwind_Resume@plt>
  405392:	e8 19 eb ff ff       	callq  403eb0 <__stack_chk_fail@plt>
  405397:	48 81 c4 a0 00 00 00 	add    $0xa0,%rsp
  40539e:	5b                   	pop    %rbx
  40539f:	41 5c                	pop    %r12
  4053a1:	5d                   	pop    %rbp
  4053a2:	c3                   	retq   
  4053a3:	90                   	nop

00000000004053a4 <_ZNK6google8protobuf16RepeatedPtrFieldIN5caffe9BlobProtoEE4sizeEv>:
  4053a4:	55                   	push   %rbp
  4053a5:	48 89 e5             	mov    %rsp,%rbp
  4053a8:	48 83 ec 10          	sub    $0x10,%rsp
  4053ac:	48 89 7d f8          	mov    %rdi,-0x8(%rbp)
  4053b0:	48 8b 45 f8          	mov    -0x8(%rbp),%rax
  4053b4:	48 89 c7             	mov    %rax,%rdi
  4053b7:	e8 90 f3 ff ff       	callq  40474c <_ZNK6google8protobuf8internal20RepeatedPtrFieldBase4sizeEv>
  4053bc:	c9                   	leaveq 
  4053bd:	c3                   	retq   

00000000004053be <_ZN6google8protobuf16RepeatedPtrFieldIN5caffe9BlobProtoEE5ClearEv>:
  4053be:	55                   	push   %rbp
  4053bf:	48 89 e5             	mov    %rsp,%rbp
  4053c2:	48 83 ec 10          	sub    $0x10,%rsp
  4053c6:	48 89 7d f8          	mov    %rdi,-0x8(%rbp)
  4053ca:	48 8b 45 f8          	mov    -0x8(%rbp),%rax
  4053ce:	48 89 c7             	mov    %rax,%rdi
  4053d1:	e8 1e 08 00 00       	callq  405bf4 <_ZN6google8protobuf8internal20RepeatedPtrFieldBase5ClearINS0_16RepeatedPtrFieldIN5caffe9BlobProtoEE11TypeHandlerEEEvv>
  4053d6:	90                   	nop
  4053d7:	c9                   	leaveq 
  4053d8:	c3                   	retq   
  4053d9:	90                   	nop

00000000004053da <_ZNK6google8protobuf16RepeatedPtrFieldIN5caffe9BlobProtoEE3GetEi>:
  4053da:	55                   	push   %rbp
  4053db:	48 89 e5             	mov    %rsp,%rbp
  4053de:	48 83 ec 10          	sub    $0x10,%rsp
  4053e2:	48 89 7d f8          	mov    %rdi,-0x8(%rbp)
  4053e6:	89 75 f4             	mov    %esi,-0xc(%rbp)
  4053e9:	48 8b 45 f8          	mov    -0x8(%rbp),%rax
  4053ed:	8b 55 f4             	mov    -0xc(%rbp),%edx
  4053f0:	89 d6                	mov    %edx,%esi
  4053f2:	48 89 c7             	mov    %rax,%rdi
  4053f5:	e8 3c 09 00 00       	callq  405d36 <_ZNK6google8protobuf8internal20RepeatedPtrFieldBase3GetINS0_16RepeatedPtrFieldIN5caffe9BlobProtoEE11TypeHandlerEEERKNT_4TypeEi>
  4053fa:	c9                   	leaveq 
  4053fb:	c3                   	retq   

00000000004053fc <_ZN6google8protobuf16RepeatedPtrFieldIN5caffe9BlobProtoEE3AddEv>:
  4053fc:	55                   	push   %rbp
  4053fd:	48 89 e5             	mov    %rsp,%rbp
  405400:	48 83 ec 10          	sub    $0x10,%rsp
  405404:	48 89 7d f8          	mov    %rdi,-0x8(%rbp)
  405408:	48 8b 45 f8          	mov    -0x8(%rbp),%rax
  40540c:	be 00 00 00 00       	mov    $0x0,%esi
  405411:	48 89 c7             	mov    %rax,%rdi
  405414:	e8 d7 0a 00 00       	callq  405ef0 <_ZN6google8protobuf8internal20RepeatedPtrFieldBase3AddINS0_16RepeatedPtrFieldIN5caffe9BlobProtoEE11TypeHandlerEEEPNT_4TypeESB_>
  405419:	c9                   	leaveq 
  40541a:	c3                   	retq   
  40541b:	90                   	nop

000000000040541c <_ZNSt6vectorIPN5caffe4BlobIfEESaIS3_EEC1Ev>:
  40541c:	55                   	push   %rbp
  40541d:	48 89 e5             	mov    %rsp,%rbp
  405420:	48 83 ec 10          	sub    $0x10,%rsp
  405424:	48 89 7d f8          	mov    %rdi,-0x8(%rbp)
  405428:	48 8b 45 f8          	mov    -0x8(%rbp),%rax
  40542c:	48 89 c7             	mov    %rax,%rdi
  40542f:	e8 c4 0b 00 00       	callq  405ff8 <_ZNSt12_Vector_baseIPN5caffe4BlobIfEESaIS3_EEC1Ev>
  405434:	90                   	nop
  405435:	c9                   	leaveq 
  405436:	c3                   	retq   
  405437:	90                   	nop

0000000000405438 <_ZNSt6vectorIPN5caffe4BlobIfEESaIS3_EED1Ev>:
  405438:	55                   	push   %rbp
  405439:	48 89 e5             	mov    %rsp,%rbp
  40543c:	48 83 ec 10          	sub    $0x10,%rsp
  405440:	48 89 7d f8          	mov    %rdi,-0x8(%rbp)
  405444:	48 8b 45 f8          	mov    -0x8(%rbp),%rax
  405448:	48 89 c7             	mov    %rax,%rdi
  40544b:	e8 14 0c 00 00       	callq  406064 <_ZNSt12_Vector_baseIPN5caffe4BlobIfEESaIS3_EE19_M_get_Tp_allocatorEv>
  405450:	48 89 c2             	mov    %rax,%rdx
  405453:	48 8b 45 f8          	mov    -0x8(%rbp),%rax
  405457:	48 8b 48 08          	mov    0x8(%rax),%rcx
  40545b:	48 8b 45 f8          	mov    -0x8(%rbp),%rax
  40545f:	48 8b 00             	mov    (%rax),%rax
  405462:	48 89 ce             	mov    %rcx,%rsi
  405465:	48 89 c7             	mov    %rax,%rdi
  405468:	e8 05 0c 00 00       	callq  406072 <_ZSt8_DestroyIPPN5caffe4BlobIfEES3_EvT_S5_RSaIT0_E>
  40546d:	48 8b 45 f8          	mov    -0x8(%rbp),%rax
  405471:	48 89 c7             	mov    %rax,%rdi
  405474:	e8 9b 0b 00 00       	callq  406014 <_ZNSt12_Vector_baseIPN5caffe4BlobIfEESaIS3_EED1Ev>
  405479:	90                   	nop
  40547a:	c9                   	leaveq 
  40547b:	c3                   	retq   

000000000040547c <_ZNSt6vectorIPN5caffe4BlobIfEESaIS3_EE9push_backERKS3_>:
  40547c:	55                   	push   %rbp
  40547d:	48 89 e5             	mov    %rsp,%rbp
  405480:	48 83 ec 10          	sub    $0x10,%rsp
  405484:	48 89 7d f8          	mov    %rdi,-0x8(%rbp)
  405488:	48 89 75 f0          	mov    %rsi,-0x10(%rbp)
  40548c:	48 8b 45 f8          	mov    -0x8(%rbp),%rax
  405490:	48 8b 50 08          	mov    0x8(%rax),%rdx
  405494:	48 8b 45 f8          	mov    -0x8(%rbp),%rax
  405498:	48 8b 40 10          	mov    0x10(%rax),%rax
  40549c:	48 39 c2             	cmp    %rax,%rdx
  40549f:	74 31                	je     4054d2 <_ZNSt6vectorIPN5caffe4BlobIfEESaIS3_EE9push_backERKS3_+0x56>
  4054a1:	48 8b 45 f8          	mov    -0x8(%rbp),%rax
  4054a5:	48 8b 48 08          	mov    0x8(%rax),%rcx
  4054a9:	48 8b 45 f8          	mov    -0x8(%rbp),%rax
  4054ad:	48 8b 55 f0          	mov    -0x10(%rbp),%rdx
  4054b1:	48 89 ce             	mov    %rcx,%rsi
  4054b4:	48 89 c7             	mov    %rax,%rdi
  4054b7:	e8 ee 0b 00 00       	callq  4060aa <_ZNSt16allocator_traitsISaIPN5caffe4BlobIfEEEE9constructIS3_JRKS3_EEEvRS4_PT_DpOT0_>
  4054bc:	48 8b 45 f8          	mov    -0x8(%rbp),%rax
  4054c0:	48 8b 40 08          	mov    0x8(%rax),%rax
  4054c4:	48 8d 50 08          	lea    0x8(%rax),%rdx
  4054c8:	48 8b 45 f8          	mov    -0x8(%rbp),%rax
  4054cc:	48 89 50 08          	mov    %rdx,0x8(%rax)
  4054d0:	eb 13                	jmp    4054e5 <_ZNSt6vectorIPN5caffe4BlobIfEESaIS3_EE9push_backERKS3_+0x69>
  4054d2:	48 8b 55 f0          	mov    -0x10(%rbp),%rdx
  4054d6:	48 8b 45 f8          	mov    -0x8(%rbp),%rax
  4054da:	48 89 d6             	mov    %rdx,%rsi
  4054dd:	48 89 c7             	mov    %rax,%rdi
  4054e0:	e8 ff 0b 00 00       	callq  4060e4 <_ZNSt6vectorIPN5caffe4BlobIfEESaIS3_EE19_M_emplace_back_auxIJRKS3_EEEvDpOT_>
  4054e5:	90                   	nop
  4054e6:	c9                   	leaveq 
  4054e7:	c3                   	retq   

00000000004054e8 <_ZN5caffe4BlobIfEC1Ev>:
  4054e8:	55                   	push   %rbp
  4054e9:	48 89 e5             	mov    %rsp,%rbp
  4054ec:	48 83 ec 10          	sub    $0x10,%rsp
  4054f0:	48 89 7d f8          	mov    %rdi,-0x8(%rbp)
  4054f4:	48 8b 45 f8          	mov    -0x8(%rbp),%rax
  4054f8:	48 89 c7             	mov    %rax,%rdi
  4054fb:	e8 ce 0d 00 00       	callq  4062ce <_ZN5boost10shared_ptrIN5caffe12SyncedMemoryEEC1Ev>
  405500:	48 8b 45 f8          	mov    -0x8(%rbp),%rax
  405504:	48 83 c0 10          	add    $0x10,%rax
  405508:	48 89 c7             	mov    %rax,%rdi
  40550b:	e8 be 0d 00 00       	callq  4062ce <_ZN5boost10shared_ptrIN5caffe12SyncedMemoryEEC1Ev>
  405510:	48 8b 45 f8          	mov    -0x8(%rbp),%rax
  405514:	48 83 c0 20          	add    $0x20,%rax
  405518:	48 89 c7             	mov    %rax,%rdi
  40551b:	e8 ae 0d 00 00       	callq  4062ce <_ZN5boost10shared_ptrIN5caffe12SyncedMemoryEEC1Ev>
  405520:	48 8b 45 f8          	mov    -0x8(%rbp),%rax
  405524:	48 83 c0 30          	add    $0x30,%rax
  405528:	48 89 c7             	mov    %rax,%rdi
  40552b:	e8 c8 0d 00 00       	callq  4062f8 <_ZNSt6vectorIiSaIiEEC1Ev>
  405530:	48 8b 45 f8          	mov    -0x8(%rbp),%rax
  405534:	c7 40 48 00 00 00 00 	movl   $0x0,0x48(%rax)
  40553b:	48 8b 45 f8          	mov    -0x8(%rbp),%rax
  40553f:	c7 40 4c 00 00 00 00 	movl   $0x0,0x4c(%rax)
  405546:	90                   	nop
  405547:	c9                   	leaveq 
  405548:	c3                   	retq   
  405549:	90                   	nop

000000000040554a <_ZN5caffe12SoftmaxLayerIfEC1ERKNS_14LayerParameterE>:
  40554a:	55                   	push   %rbp
  40554b:	48 89 e5             	mov    %rsp,%rbp
  40554e:	48 83 ec 10          	sub    $0x10,%rsp
  405552:	48 89 7d f8          	mov    %rdi,-0x8(%rbp)
  405556:	48 89 75 f0          	mov    %rsi,-0x10(%rbp)
  40555a:	48 8b 45 f8          	mov    -0x8(%rbp),%rax
  40555e:	48 8b 55 f0          	mov    -0x10(%rbp),%rdx
  405562:	48 89 d6             	mov    %rdx,%rsi
  405565:	48 89 c7             	mov    %rax,%rdi
  405568:	e8 a7 0d 00 00       	callq  406314 <_ZN5caffe5LayerIfEC1ERKNS_14LayerParameterE>
  40556d:	ba 98 b6 40 00       	mov    $0x40b698,%edx
  405572:	48 8b 45 f8          	mov    -0x8(%rbp),%rax
  405576:	48 89 10             	mov    %rdx,(%rax)
  405579:	48 8b 45 f8          	mov    -0x8(%rbp),%rax
  40557d:	48 05 d0 02 00 00    	add    $0x2d0,%rax
  405583:	48 89 c7             	mov    %rax,%rdi
  405586:	e8 5d ff ff ff       	callq  4054e8 <_ZN5caffe4BlobIfEC1Ev>
  40558b:	48 8b 45 f8          	mov    -0x8(%rbp),%rax
  40558f:	48 05 20 03 00 00    	add    $0x320,%rax
  405595:	48 89 c7             	mov    %rax,%rdi
  405598:	e8 4b ff ff ff       	callq  4054e8 <_ZN5caffe4BlobIfEC1Ev>
  40559d:	90                   	nop
  40559e:	c9                   	leaveq 
  40559f:	c3                   	retq   

00000000004055a0 <_ZN5caffe5LayerIfE5SetUpERKSt6vectorIPNS_4BlobIfEESaIS5_EES9_>:
  4055a0:	55                   	push   %rbp
  4055a1:	48 89 e5             	mov    %rsp,%rbp
  4055a4:	48 83 ec 20          	sub    $0x20,%rsp
  4055a8:	48 89 7d f8          	mov    %rdi,-0x8(%rbp)
  4055ac:	48 89 75 f0          	mov    %rsi,-0x10(%rbp)
  4055b0:	48 89 55 e8          	mov    %rdx,-0x18(%rbp)
  4055b4:	48 8b 45 f8          	mov    -0x8(%rbp),%rax
  4055b8:	48 8b 00             	mov    (%rax),%rax
  4055bb:	48 05 98 00 00 00    	add    $0x98,%rax
  4055c1:	48 8b 00             	mov    (%rax),%rax
  4055c4:	48 8b 55 e8          	mov    -0x18(%rbp),%rdx
  4055c8:	48 8b 75 f0          	mov    -0x10(%rbp),%rsi
  4055cc:	48 8b 4d f8          	mov    -0x8(%rbp),%rcx
  4055d0:	48 89 cf             	mov    %rcx,%rdi
  4055d3:	ff d0                	callq  *%rax
  4055d5:	48 8b 45 f8          	mov    -0x8(%rbp),%rax
  4055d9:	48 8b 00             	mov    (%rax),%rax
  4055dc:	48 83 c0 10          	add    $0x10,%rax
  4055e0:	48 8b 00             	mov    (%rax),%rax
  4055e3:	48 8b 55 e8          	mov    -0x18(%rbp),%rdx
  4055e7:	48 8b 75 f0          	mov    -0x10(%rbp),%rsi
  4055eb:	48 8b 4d f8          	mov    -0x8(%rbp),%rcx
  4055ef:	48 89 cf             	mov    %rcx,%rdi
  4055f2:	ff d0                	callq  *%rax
  4055f4:	48 8b 45 f8          	mov    -0x8(%rbp),%rax
  4055f8:	48 8b 00             	mov    (%rax),%rax
  4055fb:	48 83 c0 18          	add    $0x18,%rax
  4055ff:	48 8b 00             	mov    (%rax),%rax
  405602:	48 8b 55 e8          	mov    -0x18(%rbp),%rdx
  405606:	48 8b 75 f0          	mov    -0x10(%rbp),%rsi
  40560a:	48 8b 4d f8          	mov    -0x8(%rbp),%rcx
  40560e:	48 89 cf             	mov    %rcx,%rdi
  405611:	ff d0                	callq  *%rax
  405613:	48 8b 55 e8          	mov    -0x18(%rbp),%rdx
  405617:	48 8b 45 f8          	mov    -0x8(%rbp),%rax
  40561b:	48 89 d6             	mov    %rdx,%rsi
  40561e:	48 89 c7             	mov    %rax,%rdi
  405621:	e8 1a 18 00 00       	callq  406e40 <_ZN5caffe5LayerIfE14SetLossWeightsERKSt6vectorIPNS_4BlobIfEESaIS5_EE>
  405626:	90                   	nop
  405627:	c9                   	leaveq 
  405628:	c3                   	retq   

0000000000405629 <_ZN2CK13measure_setupIZNS_5Caffe12test_softmaxEvEUlvE_EEvOT_>:
  405629:	55                   	push   %rbp
  40562a:	48 89 e5             	mov    %rsp,%rbp
  40562d:	48 83 ec 10          	sub    $0x10,%rsp
  405631:	48 89 7d f8          	mov    %rdi,-0x8(%rbp)
  405635:	48 8b 45 f8          	mov    -0x8(%rbp),%rax
  405639:	be 00 00 00 00       	mov    $0x0,%esi
  40563e:	48 89 c7             	mov    %rax,%rdi
  405641:	e8 e2 19 00 00       	callq  407028 <_ZN2CK11do_measuredIRZNS_5Caffe12test_softmaxEvEUlvE_EEvOT_i>
  405646:	bf 00 00 00 00       	mov    $0x0,%edi
  40564b:	e8 f0 e8 ff ff       	callq  403f40 <xopenme_get_timer@plt>
  405650:	f2 0f 5a c0          	cvtsd2ss %xmm0,%xmm0
  405654:	e8 4d ed ff ff       	callq  4043a6 <_ZN2CK16store_setup_timeEf>
  405659:	90                   	nop
  40565a:	c9                   	leaveq 
  40565b:	c3                   	retq   

000000000040565c <_ZN2CK19get_random_raw_dataIfEEPT_RKNS_5ShapeE>:
  40565c:	55                   	push   %rbp
  40565d:	48 89 e5             	mov    %rsp,%rbp
  405660:	53                   	push   %rbx
  405661:	48 83 ec 38          	sub    $0x38,%rsp
  405665:	48 89 7d c8          	mov    %rdi,-0x38(%rbp)
  405669:	ba 20 00 00 00       	mov    $0x20,%edx
  40566e:	be 22 af 40 00       	mov    $0x40af22,%esi
  405673:	bf 09 00 00 00       	mov    $0x9,%edi
  405678:	e8 bb f3 ff ff       	callq  404a38 <_ZN2CK13store_value_iEiPKci>
  40567d:	c7 45 dc 40 42 0f 00 	movl   $0xf4240,-0x24(%rbp)
  405684:	c7 45 e0 81 84 1e 00 	movl   $0x1e8481,-0x20(%rbp)
  40568b:	48 8b 45 c8          	mov    -0x38(%rbp),%rax
  40568f:	48 89 c7             	mov    %rax,%rdi
  405692:	e8 bb f2 ff ff       	callq  404952 <_ZNK2CK5Shape10data_countEv>
  405697:	89 45 e4             	mov    %eax,-0x1c(%rbp)
  40569a:	8b 45 e4             	mov    -0x1c(%rbp),%eax
  40569d:	48 63 d0             	movslq %eax,%rdx
  4056a0:	48 b8 fe ff ff ff ff 	movabs $0x1ffffffffffffffe,%rax
  4056a7:	ff ff 1f 
  4056aa:	48 39 c2             	cmp    %rax,%rdx
  4056ad:	77 1e                	ja     4056cd <_ZN2CK19get_random_raw_dataIfEEPT_RKNS_5ShapeE+0x71>
  4056af:	8b 45 e4             	mov    -0x1c(%rbp),%eax
  4056b2:	48 98                	cltq   
  4056b4:	48 c1 e0 02          	shl    $0x2,%rax
  4056b8:	48 89 c7             	mov    %rax,%rdi
  4056bb:	e8 60 e8 ff ff       	callq  403f20 <_Znam@plt>
  4056c0:	48 89 45 e8          	mov    %rax,-0x18(%rbp)
  4056c4:	c7 45 d8 00 00 00 00 	movl   $0x0,-0x28(%rbp)
  4056cb:	eb 05                	jmp    4056d2 <_ZN2CK19get_random_raw_dataIfEEPT_RKNS_5ShapeE+0x76>
  4056cd:	e8 ce e9 ff ff       	callq  4040a0 <__cxa_throw_bad_array_new_length@plt>
  4056d2:	8b 45 d8             	mov    -0x28(%rbp),%eax
  4056d5:	3b 45 e4             	cmp    -0x1c(%rbp),%eax
  4056d8:	7d 5e                	jge    405738 <_ZN2CK19get_random_raw_dataIfEEPT_RKNS_5ShapeE+0xdc>
  4056da:	8b 45 d8             	mov    -0x28(%rbp),%eax
  4056dd:	48 98                	cltq   
  4056df:	48 8d 14 85 00 00 00 	lea    0x0(,%rax,4),%rdx
  4056e6:	00 
  4056e7:	48 8b 45 e8          	mov    -0x18(%rbp),%rax
  4056eb:	48 8d 1c 02          	lea    (%rdx,%rax,1),%rbx
  4056ef:	e8 3c ea ff ff       	callq  404130 <rand@plt>
  4056f4:	89 c1                	mov    %eax,%ecx
  4056f6:	ba c5 bd 31 04       	mov    $0x431bdc5,%edx
  4056fb:	89 c8                	mov    %ecx,%eax
  4056fd:	f7 ea                	imul   %edx
  4056ff:	c1 fa 0f             	sar    $0xf,%edx
  405702:	89 c8                	mov    %ecx,%eax
  405704:	c1 f8 1f             	sar    $0x1f,%eax
  405707:	29 c2                	sub    %eax,%edx
  405709:	89 d0                	mov    %edx,%eax
  40570b:	69 c0 81 84 1e 00    	imul   $0x1e8481,%eax,%eax
  405711:	29 c1                	sub    %eax,%ecx
  405713:	89 c8                	mov    %ecx,%eax
  405715:	2d 40 42 0f 00       	sub    $0xf4240,%eax
  40571a:	66 0f ef c0          	pxor   %xmm0,%xmm0
  40571e:	f3 0f 2a c0          	cvtsi2ss %eax,%xmm0
  405722:	f3 0f 10 0d 1a 5f 00 	movss  0x5f1a(%rip),%xmm1        # 40b644 <_ZZNK5boost10shared_ptrIN5caffe12SyncedMemoryEEptEvE19__PRETTY_FUNCTION__+0xc4>
  405729:	00 
  40572a:	f3 0f 5e c1          	divss  %xmm1,%xmm0
  40572e:	f3 0f 11 03          	movss  %xmm0,(%rbx)
  405732:	83 45 d8 01          	addl   $0x1,-0x28(%rbp)
  405736:	eb 9a                	jmp    4056d2 <_ZN2CK19get_random_raw_dataIfEEPT_RKNS_5ShapeE+0x76>
  405738:	48 8b 45 e8          	mov    -0x18(%rbp),%rax
  40573c:	48 83 c4 38          	add    $0x38,%rsp
  405740:	5b                   	pop    %rbx
  405741:	5d                   	pop    %rbp
  405742:	c3                   	retq   

0000000000405743 <_ZN2CK20print_input_raw_dataIfEEvPT_RKNS_5ShapeE>:
  405743:	55                   	push   %rbp
  405744:	48 89 e5             	mov    %rsp,%rbp
  405747:	48 83 ec 10          	sub    $0x10,%rsp
  40574b:	48 89 7d f8          	mov    %rdi,-0x8(%rbp)
  40574f:	48 89 75 f0          	mov    %rsi,-0x10(%rbp)
  405753:	48 8b 75 f0          	mov    -0x10(%rbp),%rsi
  405757:	48 8b 45 f8          	mov    -0x8(%rbp),%rax
  40575b:	b9 2c af 40 00       	mov    $0x40af2c,%ecx
  405760:	ba 32 af 40 00       	mov    $0x40af32,%edx
  405765:	48 89 c7             	mov    %rax,%rdi
  405768:	e8 ed 18 00 00       	callq  40705a <_ZN2CK12log_raw_dataIfEEvPT_RKNS_5ShapeEPKcS7_>
  40576d:	90                   	nop
  40576e:	c9                   	leaveq 
  40576f:	c3                   	retq   

0000000000405770 <_ZN5caffe5LayerIfE7ForwardERKSt6vectorIPNS_4BlobIfEESaIS5_EES9_>:
  405770:	55                   	push   %rbp
  405771:	48 89 e5             	mov    %rsp,%rbp
  405774:	53                   	push   %rbx
  405775:	48 83 ec 68          	sub    $0x68,%rsp
  405779:	48 89 7d a8          	mov    %rdi,-0x58(%rbp)
  40577d:	48 89 75 a0          	mov    %rsi,-0x60(%rbp)
  405781:	48 89 55 98          	mov    %rdx,-0x68(%rbp)
  405785:	64 48 8b 04 25 28 00 	mov    %fs:0x28,%rax
  40578c:	00 00 
  40578e:	48 89 45 e8          	mov    %rax,-0x18(%rbp)
  405792:	31 c0                	xor    %eax,%eax
  405794:	66 0f ef c0          	pxor   %xmm0,%xmm0
  405798:	f3 0f 11 45 b4       	movss  %xmm0,-0x4c(%rbp)
  40579d:	48 8b 45 a8          	mov    -0x58(%rbp),%rax
  4057a1:	48 8b 00             	mov    (%rax),%rax
  4057a4:	48 83 c0 18          	add    $0x18,%rax
  4057a8:	48 8b 00             	mov    (%rax),%rax
  4057ab:	48 8b 55 98          	mov    -0x68(%rbp),%rdx
  4057af:	48 8b 75 a0          	mov    -0x60(%rbp),%rsi
  4057b3:	48 8b 4d a8          	mov    -0x58(%rbp),%rcx
  4057b7:	48 89 cf             	mov    %rcx,%rdi
  4057ba:	ff d0                	callq  *%rax
  4057bc:	e8 60 ef ff ff       	callq  404721 <_ZN5caffe5Caffe4modeEv>
  4057c1:	85 c0                	test   %eax,%eax
  4057c3:	74 0e                	je     4057d3 <_ZN5caffe5LayerIfE7ForwardERKSt6vectorIPNS_4BlobIfEESaIS5_EES9_+0x63>
  4057c5:	83 f8 01             	cmp    $0x1,%eax
  4057c8:	0f 84 1a 01 00 00    	je     4058e8 <_ZN5caffe5LayerIfE7ForwardERKSt6vectorIPNS_4BlobIfEESaIS5_EES9_+0x178>
  4057ce:	e9 36 01 00 00       	jmpq   405909 <_ZN5caffe5LayerIfE7ForwardERKSt6vectorIPNS_4BlobIfEESaIS5_EES9_+0x199>
  4057d3:	48 8b 45 a8          	mov    -0x58(%rbp),%rax
  4057d7:	48 8b 00             	mov    (%rax),%rax
  4057da:	48 83 c0 78          	add    $0x78,%rax
  4057de:	48 8b 00             	mov    (%rax),%rax
  4057e1:	48 8b 55 98          	mov    -0x68(%rbp),%rdx
  4057e5:	48 8b 75 a0          	mov    -0x60(%rbp),%rsi
  4057e9:	48 8b 4d a8          	mov    -0x58(%rbp),%rcx
  4057ed:	48 89 cf             	mov    %rcx,%rdi
  4057f0:	ff d0                	callq  *%rax
  4057f2:	c7 45 b8 00 00 00 00 	movl   $0x0,-0x48(%rbp)
  4057f9:	8b 45 b8             	mov    -0x48(%rbp),%eax
  4057fc:	48 63 d8             	movslq %eax,%rbx
  4057ff:	48 8b 45 98          	mov    -0x68(%rbp),%rax
  405803:	48 89 c7             	mov    %rax,%rdi
  405806:	e8 c7 18 00 00       	callq  4070d2 <_ZNKSt6vectorIPN5caffe4BlobIfEESaIS3_EE4sizeEv>
  40580b:	48 39 c3             	cmp    %rax,%rbx
  40580e:	0f 92 c0             	setb   %al
  405811:	84 c0                	test   %al,%al
  405813:	0f 84 2b 01 00 00    	je     405944 <_ZN5caffe5LayerIfE7ForwardERKSt6vectorIPNS_4BlobIfEESaIS5_EES9_+0x1d4>
  405819:	8b 55 b8             	mov    -0x48(%rbp),%edx
  40581c:	48 8b 45 a8          	mov    -0x58(%rbp),%rax
  405820:	89 d6                	mov    %edx,%esi
  405822:	48 89 c7             	mov    %rax,%rdi
  405825:	e8 ce 18 00 00       	callq  4070f8 <_ZNK5caffe5LayerIfE4lossEi>
  40582a:	66 0f ef c9          	pxor   %xmm1,%xmm1
  40582e:	0f 2e c1             	ucomiss %xmm1,%xmm0
  405831:	0f 9b c0             	setnp  %al
  405834:	ba 00 00 00 00       	mov    $0x0,%edx
  405839:	66 0f ef c9          	pxor   %xmm1,%xmm1
  40583d:	0f 2e c1             	ucomiss %xmm1,%xmm0
  405840:	0f 45 c2             	cmovne %edx,%eax
  405843:	84 c0                	test   %al,%al
  405845:	0f 85 93 00 00 00    	jne    4058de <_ZN5caffe5LayerIfE7ForwardERKSt6vectorIPNS_4BlobIfEESaIS5_EES9_+0x16e>
  40584b:	8b 45 b8             	mov    -0x48(%rbp),%eax
  40584e:	48 63 d0             	movslq %eax,%rdx
  405851:	48 8b 45 98          	mov    -0x68(%rbp),%rax
  405855:	48 89 d6             	mov    %rdx,%rsi
  405858:	48 89 c7             	mov    %rax,%rdi
  40585b:	e8 ee 18 00 00       	callq  40714e <_ZNKSt6vectorIPN5caffe4BlobIfEESaIS3_EEixEm>
  405860:	48 8b 00             	mov    (%rax),%rax
  405863:	48 89 c7             	mov    %rax,%rdi
  405866:	e8 03 19 00 00       	callq  40716e <_ZNK5caffe4BlobIfE5countEv>
  40586b:	89 45 bc             	mov    %eax,-0x44(%rbp)
  40586e:	8b 45 b8             	mov    -0x48(%rbp),%eax
  405871:	48 63 d0             	movslq %eax,%rdx
  405874:	48 8b 45 98          	mov    -0x68(%rbp),%rax
  405878:	48 89 d6             	mov    %rdx,%rsi
  40587b:	48 89 c7             	mov    %rax,%rdi
  40587e:	e8 cb 18 00 00       	callq  40714e <_ZNKSt6vectorIPN5caffe4BlobIfEESaIS3_EEixEm>
  405883:	48 8b 00             	mov    (%rax),%rax
  405886:	48 89 c7             	mov    %rax,%rdi
  405889:	e8 42 e7 ff ff       	callq  403fd0 <_ZNK5caffe4BlobIfE8cpu_dataEv@plt>
  40588e:	48 89 45 c0          	mov    %rax,-0x40(%rbp)
  405892:	8b 45 b8             	mov    -0x48(%rbp),%eax
  405895:	48 63 d0             	movslq %eax,%rdx
  405898:	48 8b 45 98          	mov    -0x68(%rbp),%rax
  40589c:	48 89 d6             	mov    %rdx,%rsi
  40589f:	48 89 c7             	mov    %rax,%rdi
  4058a2:	e8 a7 18 00 00       	callq  40714e <_ZNKSt6vectorIPN5caffe4BlobIfEESaIS3_EEixEm>
  4058a7:	48 8b 00             	mov    (%rax),%rax
  4058aa:	48 89 c7             	mov    %rax,%rdi
  4058ad:	e8 7e e7 ff ff       	callq  404030 <_ZNK5caffe4BlobIfE8cpu_diffEv@plt>
  4058b2:	48 89 45 c8          	mov    %rax,-0x38(%rbp)
  4058b6:	48 8b 55 c8          	mov    -0x38(%rbp),%rdx
  4058ba:	48 8b 4d c0          	mov    -0x40(%rbp),%rcx
  4058be:	8b 45 bc             	mov    -0x44(%rbp),%eax
  4058c1:	48 89 ce             	mov    %rcx,%rsi
  4058c4:	89 c7                	mov    %eax,%edi
  4058c6:	e8 45 e9 ff ff       	callq  404210 <_ZN5caffe13caffe_cpu_dotIfEET_iPKS1_S3_@plt>
  4058cb:	0f 28 c8             	movaps %xmm0,%xmm1
  4058ce:	f3 0f 10 45 b4       	movss  -0x4c(%rbp),%xmm0
  4058d3:	f3 0f 58 c1          	addss  %xmm1,%xmm0
  4058d7:	f3 0f 11 45 b4       	movss  %xmm0,-0x4c(%rbp)
  4058dc:	eb 01                	jmp    4058df <_ZN5caffe5LayerIfE7ForwardERKSt6vectorIPNS_4BlobIfEESaIS5_EES9_+0x16f>
  4058de:	90                   	nop
  4058df:	83 45 b8 01          	addl   $0x1,-0x48(%rbp)
  4058e3:	e9 11 ff ff ff       	jmpq   4057f9 <_ZN5caffe5LayerIfE7ForwardERKSt6vectorIPNS_4BlobIfEESaIS5_EES9_+0x89>
  4058e8:	48 8b 45 a8          	mov    -0x58(%rbp),%rax
  4058ec:	48 8b 00             	mov    (%rax),%rax
  4058ef:	48 83 e8 80          	sub    $0xffffffffffffff80,%rax
  4058f3:	48 8b 00             	mov    (%rax),%rax
  4058f6:	48 8b 55 98          	mov    -0x68(%rbp),%rdx
  4058fa:	48 8b 75 a0          	mov    -0x60(%rbp),%rsi
  4058fe:	48 8b 4d a8          	mov    -0x58(%rbp),%rcx
  405902:	48 89 cf             	mov    %rcx,%rdi
  405905:	ff d0                	callq  *%rax
  405907:	eb 3c                	jmp    405945 <_ZN5caffe5LayerIfE7ForwardERKSt6vectorIPNS_4BlobIfEESaIS5_EES9_+0x1d5>
  405909:	48 8d 45 d0          	lea    -0x30(%rbp),%rax
  40590d:	ba bb 01 00 00       	mov    $0x1bb,%edx
  405912:	be 48 af 40 00       	mov    $0x40af48,%esi
  405917:	48 89 c7             	mov    %rax,%rdi
  40591a:	e8 41 e9 ff ff       	callq  404260 <_ZN6google15LogMessageFatalC1EPKci@plt>
  40591f:	48 8d 45 d0          	lea    -0x30(%rbp),%rax
  405923:	48 89 c7             	mov    %rax,%rdi
  405926:	e8 35 e8 ff ff       	callq  404160 <_ZN6google10LogMessage6streamEv@plt>
  40592b:	be b5 af 40 00       	mov    $0x40afb5,%esi
  405930:	48 89 c7             	mov    %rax,%rdi
  405933:	e8 48 e6 ff ff       	callq  403f80 <_ZStlsISt11char_traitsIcEERSt13basic_ostreamIcT_ES5_PKc@plt>
  405938:	48 8d 45 d0          	lea    -0x30(%rbp),%rax
  40593c:	48 89 c7             	mov    %rax,%rdi
  40593f:	e8 9c e7 ff ff       	callq  4040e0 <_ZN6google15LogMessageFatalD1Ev@plt>
  405944:	90                   	nop
  405945:	f3 0f 10 45 b4       	movss  -0x4c(%rbp),%xmm0
  40594a:	48 8b 45 e8          	mov    -0x18(%rbp),%rax
  40594e:	64 48 33 04 25 28 00 	xor    %fs:0x28,%rax
  405955:	00 00 
  405957:	74 13                	je     40596c <_ZN5caffe5LayerIfE7ForwardERKSt6vectorIPNS_4BlobIfEESaIS5_EES9_+0x1fc>
  405959:	eb 0c                	jmp    405967 <_ZN5caffe5LayerIfE7ForwardERKSt6vectorIPNS_4BlobIfEESaIS5_EES9_+0x1f7>
  40595b:	48 8d 45 d0          	lea    -0x30(%rbp),%rax
  40595f:	48 89 c7             	mov    %rax,%rdi
  405962:	e8 79 e7 ff ff       	callq  4040e0 <_ZN6google15LogMessageFatalD1Ev@plt>
  405967:	e8 44 e5 ff ff       	callq  403eb0 <__stack_chk_fail@plt>
  40596c:	48 83 c4 68          	add    $0x68,%rsp
  405970:	5b                   	pop    %rbx
  405971:	5d                   	pop    %rbp
  405972:	c3                   	retq   

0000000000405973 <_ZN2CK12measure_testIZNS_5Caffe12test_softmaxEvEUlvE0_EEvOT_>:
  405973:	55                   	push   %rbp
  405974:	48 89 e5             	mov    %rsp,%rbp
  405977:	48 83 ec 10          	sub    $0x10,%rsp
  40597b:	48 89 7d f8          	mov    %rdi,-0x8(%rbp)
  40597f:	48 8b 45 f8          	mov    -0x8(%rbp),%rax
  405983:	be 01 00 00 00       	mov    $0x1,%esi
  405988:	48 89 c7             	mov    %rax,%rdi
  40598b:	e8 25 18 00 00       	callq  4071b5 <_ZN2CK11do_measuredIRZNS_5Caffe12test_softmaxEvEUlvE0_EEvOT_i>
  405990:	bf 01 00 00 00       	mov    $0x1,%edi
  405995:	e8 a6 e5 ff ff       	callq  403f40 <xopenme_get_timer@plt>
  40599a:	f2 0f 5a c0          	cvtsd2ss %xmm0,%xmm0
  40599e:	e8 2d ea ff ff       	callq  4043d0 <_ZN2CK15store_test_timeEf>
  4059a3:	90                   	nop
  4059a4:	c9                   	leaveq 
  4059a5:	c3                   	retq   

00000000004059a6 <_ZNK5caffe4BlobIfE4dataEv>:
  4059a6:	55                   	push   %rbp
  4059a7:	48 89 e5             	mov    %rsp,%rbp
  4059aa:	41 55                	push   %r13
  4059ac:	41 54                	push   %r12
  4059ae:	53                   	push   %rbx
  4059af:	48 83 ec 48          	sub    $0x48,%rsp
  4059b3:	48 89 7d a8          	mov    %rdi,-0x58(%rbp)
  4059b7:	64 48 8b 04 25 28 00 	mov    %fs:0x28,%rax
  4059be:	00 00 
  4059c0:	48 89 45 d8          	mov    %rax,-0x28(%rbp)
  4059c4:	31 c0                	xor    %eax,%eax
  4059c6:	48 8b 45 a8          	mov    -0x58(%rbp),%rax
  4059ca:	48 89 c7             	mov    %rax,%rdi
  4059cd:	e8 16 18 00 00       	callq  4071e8 <_ZNK5boost10shared_ptrIN5caffe12SyncedMemoryEEntEv>
  4059d2:	0f b6 c0             	movzbl %al,%eax
  4059d5:	bb 00 00 00 00       	mov    $0x0,%ebx
  4059da:	41 bc 00 00 00 00    	mov    $0x0,%r12d
  4059e0:	48 85 c0             	test   %rax,%rax
  4059e3:	74 58                	je     405a3d <_ZNK5caffe4BlobIfE4dataEv+0x97>
  4059e5:	48 8d 45 c0          	lea    -0x40(%rbp),%rax
  4059e9:	ba d2 00 00 00       	mov    $0xd2,%edx
  4059ee:	be d0 af 40 00       	mov    $0x40afd0,%esi
  4059f3:	48 89 c7             	mov    %rax,%rdi
  4059f6:	e8 65 e8 ff ff       	callq  404260 <_ZN6google15LogMessageFatalC1EPKci@plt>
  4059fb:	bb 01 00 00 00       	mov    $0x1,%ebx
  405a00:	48 8d 45 c0          	lea    -0x40(%rbp),%rax
  405a04:	48 89 c7             	mov    %rax,%rdi
  405a07:	e8 54 e7 ff ff       	callq  404160 <_ZN6google10LogMessage6streamEv@plt>
  405a0c:	be 3c b0 40 00       	mov    $0x40b03c,%esi
  405a11:	48 89 c7             	mov    %rax,%rdi
  405a14:	e8 67 e5 ff ff       	callq  403f80 <_ZStlsISt11char_traitsIcEERSt13basic_ostreamIcT_ES5_PKc@plt>
  405a19:	49 89 c5             	mov    %rax,%r13
  405a1c:	48 8d 45 bf          	lea    -0x41(%rbp),%rax
  405a20:	48 89 c7             	mov    %rax,%rdi
  405a23:	e8 de ec ff ff       	callq  404706 <_ZN6google17LogMessageVoidifyC1Ev>
  405a28:	41 bc 01 00 00 00    	mov    $0x1,%r12d
  405a2e:	48 8d 45 bf          	lea    -0x41(%rbp),%rax
  405a32:	4c 89 ee             	mov    %r13,%rsi
  405a35:	48 89 c7             	mov    %rax,%rdi
  405a38:	e8 d5 ec ff ff       	callq  404712 <_ZN6google17LogMessageVoidifyanERSo>
  405a3d:	45 84 e4             	test   %r12b,%r12b
  405a40:	84 db                	test   %bl,%bl
  405a42:	74 0d                	je     405a51 <_ZNK5caffe4BlobIfE4dataEv+0xab>
  405a44:	90                   	nop
  405a45:	48 8d 45 c0          	lea    -0x40(%rbp),%rax
  405a49:	48 89 c7             	mov    %rax,%rdi
  405a4c:	e8 8f e6 ff ff       	callq  4040e0 <_ZN6google15LogMessageFatalD1Ev@plt>
  405a51:	90                   	nop
  405a52:	48 8b 45 a8          	mov    -0x58(%rbp),%rax
  405a56:	48 8b 4d d8          	mov    -0x28(%rbp),%rcx
  405a5a:	64 48 33 0c 25 28 00 	xor    %fs:0x28,%rcx
  405a61:	00 00 
  405a63:	74 24                	je     405a89 <_ZNK5caffe4BlobIfE4dataEv+0xe3>
  405a65:	eb 1d                	jmp    405a84 <_ZNK5caffe4BlobIfE4dataEv+0xde>
  405a67:	45 84 e4             	test   %r12b,%r12b
  405a6a:	84 db                	test   %bl,%bl
  405a6c:	74 0d                	je     405a7b <_ZNK5caffe4BlobIfE4dataEv+0xd5>
  405a6e:	90                   	nop
  405a6f:	48 8d 45 c0          	lea    -0x40(%rbp),%rax
  405a73:	48 89 c7             	mov    %rax,%rdi
  405a76:	e8 65 e6 ff ff       	callq  4040e0 <_ZN6google15LogMessageFatalD1Ev@plt>
  405a7b:	90                   	nop
  405a7c:	48 89 c7             	mov    %rax,%rdi
  405a7f:	e8 6c e5 ff ff       	callq  403ff0 <_Unwind_Resume@plt>
  405a84:	e8 27 e4 ff ff       	callq  403eb0 <__stack_chk_fail@plt>
  405a89:	48 83 c4 48          	add    $0x48,%rsp
  405a8d:	5b                   	pop    %rbx
  405a8e:	41 5c                	pop    %r12
  405a90:	41 5d                	pop    %r13
  405a92:	5d                   	pop    %rbp
  405a93:	c3                   	retq   

0000000000405a94 <_ZNK5boost10shared_ptrIN5caffe12SyncedMemoryEEptEv>:
  405a94:	55                   	push   %rbp
  405a95:	48 89 e5             	mov    %rsp,%rbp
  405a98:	48 83 ec 10          	sub    $0x10,%rsp
  405a9c:	48 89 7d f8          	mov    %rdi,-0x8(%rbp)
  405aa0:	48 8b 45 f8          	mov    -0x8(%rbp),%rax
  405aa4:	48 8b 00             	mov    (%rax),%rax
  405aa7:	48 85 c0             	test   %rax,%rax
  405aaa:	75 19                	jne    405ac5 <_ZNK5boost10shared_ptrIN5caffe12SyncedMemoryEEptEv+0x31>
  405aac:	b9 80 b5 40 00       	mov    $0x40b580,%ecx
  405ab1:	ba 88 02 00 00       	mov    $0x288,%edx
  405ab6:	be 58 b0 40 00       	mov    $0x40b058,%esi
  405abb:	bf 84 b0 40 00       	mov    $0x40b084,%edi
  405ac0:	e8 ab e3 ff ff       	callq  403e70 <__assert_fail@plt>
  405ac5:	48 8b 45 f8          	mov    -0x8(%rbp),%rax
  405ac9:	48 8b 00             	mov    (%rax),%rax
  405acc:	c9                   	leaveq 
  405acd:	c3                   	retq   

0000000000405ace <_ZN2CK21print_output_raw_dataIfEEvPT_RKNS_5ShapeE>:
  405ace:	55                   	push   %rbp
  405acf:	48 89 e5             	mov    %rsp,%rbp
  405ad2:	48 83 ec 10          	sub    $0x10,%rsp
  405ad6:	48 89 7d f8          	mov    %rdi,-0x8(%rbp)
  405ada:	48 89 75 f0          	mov    %rsi,-0x10(%rbp)
  405ade:	48 8b 75 f0          	mov    -0x10(%rbp),%rsi
  405ae2:	48 8b 45 f8          	mov    -0x8(%rbp),%rax
  405ae6:	b9 8c b0 40 00       	mov    $0x40b08c,%ecx
  405aeb:	ba 93 b0 40 00       	mov    $0x40b093,%edx
  405af0:	48 89 c7             	mov    %rax,%rdi
  405af3:	e8 62 15 00 00       	callq  40705a <_ZN2CK12log_raw_dataIfEEvPT_RKNS_5ShapeEPKcS7_>
  405af8:	90                   	nop
  405af9:	c9                   	leaveq 
  405afa:	c3                   	retq   

0000000000405afb <_ZN2CK20dump_output_raw_dataIfEEvPT_RKNS_5ShapeE>:
  405afb:	55                   	push   %rbp
  405afc:	48 89 e5             	mov    %rsp,%rbp
  405aff:	48 83 ec 20          	sub    $0x20,%rsp
  405b03:	48 89 7d e8          	mov    %rdi,-0x18(%rbp)
  405b07:	48 89 75 e0          	mov    %rsi,-0x20(%rbp)
  405b0b:	bf a7 b0 40 00       	mov    $0x40b0a7,%edi
  405b10:	e8 3b e5 ff ff       	callq  404050 <getenv@plt>
  405b15:	48 89 45 f8          	mov    %rax,-0x8(%rbp)
  405b19:	48 83 7d f8 00       	cmpq   $0x0,-0x8(%rbp)
  405b1e:	0f 84 89 00 00 00    	je     405bad <_ZN2CK20dump_output_raw_dataIfEEvPT_RKNS_5ShapeE+0xb2>
  405b24:	48 8b 45 e0          	mov    -0x20(%rbp),%rax
  405b28:	48 89 c7             	mov    %rax,%rdi
  405b2b:	e8 22 ee ff ff       	callq  404952 <_ZNK2CK5Shape10data_countEv>
  405b30:	48 98                	cltq   
  405b32:	48 c1 e0 02          	shl    $0x2,%rax
  405b36:	48 89 c2             	mov    %rax,%rdx
  405b39:	48 8b 4d e8          	mov    -0x18(%rbp),%rcx
  405b3d:	48 8b 45 f8          	mov    -0x8(%rbp),%rax
  405b41:	48 89 ce             	mov    %rcx,%rsi
  405b44:	48 89 c7             	mov    %rax,%rdi
  405b47:	e8 04 e7 ff ff       	callq  404250 <xopenme_dump_memory@plt>
  405b4c:	48 8b 45 e0          	mov    -0x20(%rbp),%rax
  405b50:	8b 00                	mov    (%rax),%eax
  405b52:	89 c2                	mov    %eax,%edx
  405b54:	be b7 b0 40 00       	mov    $0x40b0b7,%esi
  405b59:	bf 00 00 00 00       	mov    $0x0,%edi
  405b5e:	e8 d5 ee ff ff       	callq  404a38 <_ZN2CK13store_value_iEiPKci>
  405b63:	48 8b 45 e0          	mov    -0x20(%rbp),%rax
  405b67:	8b 40 04             	mov    0x4(%rax),%eax
  405b6a:	89 c2                	mov    %eax,%edx
  405b6c:	be c3 b0 40 00       	mov    $0x40b0c3,%esi
  405b71:	bf 01 00 00 00       	mov    $0x1,%edi
  405b76:	e8 bd ee ff ff       	callq  404a38 <_ZN2CK13store_value_iEiPKci>
  405b7b:	48 8b 45 e0          	mov    -0x20(%rbp),%rax
  405b7f:	8b 40 08             	mov    0x8(%rax),%eax
  405b82:	89 c2                	mov    %eax,%edx
  405b84:	be cf b0 40 00       	mov    $0x40b0cf,%esi
  405b89:	bf 02 00 00 00       	mov    $0x2,%edi
  405b8e:	e8 a5 ee ff ff       	callq  404a38 <_ZN2CK13store_value_iEiPKci>
  405b93:	48 8b 45 e0          	mov    -0x20(%rbp),%rax
  405b97:	8b 40 0c             	mov    0xc(%rax),%eax
  405b9a:	89 c2                	mov    %eax,%edx
  405b9c:	be db b0 40 00       	mov    $0x40b0db,%esi
  405ba1:	bf 03 00 00 00       	mov    $0x3,%edi
  405ba6:	e8 8d ee ff ff       	callq  404a38 <_ZN2CK13store_value_iEiPKci>
  405bab:	eb 01                	jmp    405bae <_ZN2CK20dump_output_raw_dataIfEEvPT_RKNS_5ShapeE+0xb3>
  405bad:	90                   	nop
  405bae:	c9                   	leaveq 
  405baf:	c3                   	retq   

0000000000405bb0 <_ZNSt6vectorIiSaIiEED1Ev>:
  405bb0:	55                   	push   %rbp
  405bb1:	48 89 e5             	mov    %rsp,%rbp
  405bb4:	48 83 ec 10          	sub    $0x10,%rsp
  405bb8:	48 89 7d f8          	mov    %rdi,-0x8(%rbp)
  405bbc:	48 8b 45 f8          	mov    -0x8(%rbp),%rax
  405bc0:	48 89 c7             	mov    %rax,%rdi
  405bc3:	e8 a4 16 00 00       	callq  40726c <_ZNSt12_Vector_baseIiSaIiEE19_M_get_Tp_allocatorEv>
  405bc8:	48 89 c2             	mov    %rax,%rdx
  405bcb:	48 8b 45 f8          	mov    -0x8(%rbp),%rax
  405bcf:	48 8b 48 08          	mov    0x8(%rax),%rcx
  405bd3:	48 8b 45 f8          	mov    -0x8(%rbp),%rax
  405bd7:	48 8b 00             	mov    (%rax),%rax
  405bda:	48 89 ce             	mov    %rcx,%rsi
  405bdd:	48 89 c7             	mov    %rax,%rdi
  405be0:	e8 95 16 00 00       	callq  40727a <_ZSt8_DestroyIPiiEvT_S1_RSaIT0_E>
  405be5:	48 8b 45 f8          	mov    -0x8(%rbp),%rax
  405be9:	48 89 c7             	mov    %rax,%rdi
  405bec:	e8 2b 16 00 00       	callq  40721c <_ZNSt12_Vector_baseIiSaIiEED1Ev>
  405bf1:	90                   	nop
  405bf2:	c9                   	leaveq 
  405bf3:	c3                   	retq   

0000000000405bf4 <_ZN6google8protobuf8internal20RepeatedPtrFieldBase5ClearINS0_16RepeatedPtrFieldIN5caffe9BlobProtoEE11TypeHandlerEEEvv>:
  405bf4:	55                   	push   %rbp
  405bf5:	48 89 e5             	mov    %rsp,%rbp
  405bf8:	41 54                	push   %r12
  405bfa:	53                   	push   %rbx
  405bfb:	48 83 ec 70          	sub    $0x70,%rsp
  405bff:	48 89 7d 88          	mov    %rdi,-0x78(%rbp)
  405c03:	64 48 8b 04 25 28 00 	mov    %fs:0x28,%rax
  405c0a:	00 00 
  405c0c:	48 89 45 e8          	mov    %rax,-0x18(%rbp)
  405c10:	31 c0                	xor    %eax,%eax
  405c12:	48 8b 45 88          	mov    -0x78(%rbp),%rax
  405c16:	8b 40 08             	mov    0x8(%rax),%eax
  405c19:	89 45 a4             	mov    %eax,-0x5c(%rbp)
  405c1c:	bb 00 00 00 00       	mov    $0x0,%ebx
  405c21:	41 bc 00 00 00 00    	mov    $0x0,%r12d
  405c27:	83 7d a4 00          	cmpl   $0x0,-0x5c(%rbp)
  405c2b:	79 49                	jns    405c76 <_ZN6google8protobuf8internal20RepeatedPtrFieldBase5ClearINS0_16RepeatedPtrFieldIN5caffe9BlobProtoEE11TypeHandlerEEEvv+0x82>
  405c2d:	48 8d 45 b0          	lea    -0x50(%rbp),%rax
  405c31:	b9 c4 05 00 00       	mov    $0x5c4,%ecx
  405c36:	ba 68 ae 40 00       	mov    $0x40ae68,%edx
  405c3b:	be 03 00 00 00       	mov    $0x3,%esi
  405c40:	48 89 c7             	mov    %rax,%rdi
  405c43:	e8 58 e3 ff ff       	callq  403fa0 <_ZN6google8protobuf8internal10LogMessageC1ENS0_8LogLevelEPKci@plt>
  405c48:	bb 01 00 00 00       	mov    $0x1,%ebx
  405c4d:	48 8d 45 b0          	lea    -0x50(%rbp),%rax
  405c51:	be e7 b0 40 00       	mov    $0x40b0e7,%esi
  405c56:	48 89 c7             	mov    %rax,%rdi
  405c59:	e8 22 e6 ff ff       	callq  404280 <_ZN6google8protobuf8internal10LogMessagelsEPKc@plt>
  405c5e:	48 89 c2             	mov    %rax,%rdx
  405c61:	41 bc 01 00 00 00    	mov    $0x1,%r12d
  405c67:	48 8d 45 9f          	lea    -0x61(%rbp),%rax
  405c6b:	48 89 d6             	mov    %rdx,%rsi
  405c6e:	48 89 c7             	mov    %rax,%rdi
  405c71:	e8 0a e4 ff ff       	callq  404080 <_ZN6google8protobuf8internal11LogFinisheraSERNS1_10LogMessageE@plt>
  405c76:	45 84 e4             	test   %r12b,%r12b
  405c79:	84 db                	test   %bl,%bl
  405c7b:	74 0f                	je     405c8c <_ZN6google8protobuf8internal20RepeatedPtrFieldBase5ClearINS0_16RepeatedPtrFieldIN5caffe9BlobProtoEE11TypeHandlerEEEvv+0x98>
  405c7d:	90                   	nop
  405c7e:	48 8d 45 b0          	lea    -0x50(%rbp),%rax
  405c82:	48 89 c7             	mov    %rax,%rdi
  405c85:	e8 66 e4 ff ff       	callq  4040f0 <_ZN6google8protobuf8internal10LogMessageD1Ev@plt>
  405c8a:	eb 01                	jmp    405c8d <_ZN6google8protobuf8internal20RepeatedPtrFieldBase5ClearINS0_16RepeatedPtrFieldIN5caffe9BlobProtoEE11TypeHandlerEEEvv+0x99>
  405c8c:	90                   	nop
  405c8d:	83 7d a4 00          	cmpl   $0x0,-0x5c(%rbp)
  405c91:	0f 8e 80 00 00 00    	jle    405d17 <_ZN6google8protobuf8internal20RepeatedPtrFieldBase5ClearINS0_16RepeatedPtrFieldIN5caffe9BlobProtoEE11TypeHandlerEEEvv+0x123>
  405c97:	48 8b 45 88          	mov    -0x78(%rbp),%rax
  405c9b:	48 8b 40 10          	mov    0x10(%rax),%rax
  405c9f:	48 83 c0 08          	add    $0x8,%rax
  405ca3:	48 89 45 a8          	mov    %rax,-0x58(%rbp)
  405ca7:	c7 45 a0 00 00 00 00 	movl   $0x0,-0x60(%rbp)
  405cae:	8b 45 a0             	mov    -0x60(%rbp),%eax
  405cb1:	8d 50 01             	lea    0x1(%rax),%edx
  405cb4:	89 55 a0             	mov    %edx,-0x60(%rbp)
  405cb7:	48 98                	cltq   
  405cb9:	48 8d 14 c5 00 00 00 	lea    0x0(,%rax,8),%rdx
  405cc0:	00 
  405cc1:	48 8b 45 a8          	mov    -0x58(%rbp),%rax
  405cc5:	48 01 d0             	add    %rdx,%rax
  405cc8:	48 8b 00             	mov    (%rax),%rax
  405ccb:	48 89 c7             	mov    %rax,%rdi
  405cce:	e8 1e 16 00 00       	callq  4072f1 <_ZN6google8protobuf8internal20RepeatedPtrFieldBase4castINS0_16RepeatedPtrFieldIN5caffe9BlobProtoEE11TypeHandlerEEEPNT_4TypeEPv>
  405cd3:	48 89 c7             	mov    %rax,%rdi
  405cd6:	e8 f0 15 00 00       	callq  4072cb <_ZN6google8protobuf8internal18GenericTypeHandlerIN5caffe9BlobProtoEE5ClearEPS4_>
  405cdb:	8b 45 a0             	mov    -0x60(%rbp),%eax
  405cde:	3b 45 a4             	cmp    -0x5c(%rbp),%eax
  405ce1:	7d 02                	jge    405ce5 <_ZN6google8protobuf8internal20RepeatedPtrFieldBase5ClearINS0_16RepeatedPtrFieldIN5caffe9BlobProtoEE11TypeHandlerEEEvv+0xf1>
  405ce3:	eb c9                	jmp    405cae <_ZN6google8protobuf8internal20RepeatedPtrFieldBase5ClearINS0_16RepeatedPtrFieldIN5caffe9BlobProtoEE11TypeHandlerEEEvv+0xba>
  405ce5:	48 8b 45 88          	mov    -0x78(%rbp),%rax
  405ce9:	c7 40 08 00 00 00 00 	movl   $0x0,0x8(%rax)
  405cf0:	eb 25                	jmp    405d17 <_ZN6google8protobuf8internal20RepeatedPtrFieldBase5ClearINS0_16RepeatedPtrFieldIN5caffe9BlobProtoEE11TypeHandlerEEEvv+0x123>
  405cf2:	45 84 e4             	test   %r12b,%r12b
  405cf5:	49 89 c4             	mov    %rax,%r12
  405cf8:	84 db                	test   %bl,%bl
  405cfa:	74 0f                	je     405d0b <_ZN6google8protobuf8internal20RepeatedPtrFieldBase5ClearINS0_16RepeatedPtrFieldIN5caffe9BlobProtoEE11TypeHandlerEEEvv+0x117>
  405cfc:	90                   	nop
  405cfd:	48 8d 45 b0          	lea    -0x50(%rbp),%rax
  405d01:	48 89 c7             	mov    %rax,%rdi
  405d04:	e8 e7 e3 ff ff       	callq  4040f0 <_ZN6google8protobuf8internal10LogMessageD1Ev@plt>
  405d09:	eb 01                	jmp    405d0c <_ZN6google8protobuf8internal20RepeatedPtrFieldBase5ClearINS0_16RepeatedPtrFieldIN5caffe9BlobProtoEE11TypeHandlerEEEvv+0x118>
  405d0b:	90                   	nop
  405d0c:	4c 89 e0             	mov    %r12,%rax
  405d0f:	48 89 c7             	mov    %rax,%rdi
  405d12:	e8 d9 e2 ff ff       	callq  403ff0 <_Unwind_Resume@plt>
  405d17:	90                   	nop
  405d18:	48 8b 45 e8          	mov    -0x18(%rbp),%rax
  405d1c:	64 48 33 04 25 28 00 	xor    %fs:0x28,%rax
  405d23:	00 00 
  405d25:	74 05                	je     405d2c <_ZN6google8protobuf8internal20RepeatedPtrFieldBase5ClearINS0_16RepeatedPtrFieldIN5caffe9BlobProtoEE11TypeHandlerEEEvv+0x138>
  405d27:	e8 84 e1 ff ff       	callq  403eb0 <__stack_chk_fail@plt>
  405d2c:	48 83 c4 70          	add    $0x70,%rsp
  405d30:	5b                   	pop    %rbx
  405d31:	41 5c                	pop    %r12
  405d33:	5d                   	pop    %rbp
  405d34:	c3                   	retq   
  405d35:	90                   	nop

0000000000405d36 <_ZNK6google8protobuf8internal20RepeatedPtrFieldBase3GetINS0_16RepeatedPtrFieldIN5caffe9BlobProtoEE11TypeHandlerEEERKNT_4TypeEi>:
  405d36:	55                   	push   %rbp
  405d37:	48 89 e5             	mov    %rsp,%rbp
  405d3a:	41 54                	push   %r12
  405d3c:	53                   	push   %rbx
  405d3d:	48 81 ec a0 00 00 00 	sub    $0xa0,%rsp
  405d44:	48 89 bd 58 ff ff ff 	mov    %rdi,-0xa8(%rbp)
  405d4b:	89 b5 54 ff ff ff    	mov    %esi,-0xac(%rbp)
  405d51:	64 48 8b 04 25 28 00 	mov    %fs:0x28,%rax
  405d58:	00 00 
  405d5a:	48 89 45 e8          	mov    %rax,-0x18(%rbp)
  405d5e:	31 c0                	xor    %eax,%eax
  405d60:	bb 00 00 00 00       	mov    $0x0,%ebx
  405d65:	41 bc 00 00 00 00    	mov    $0x0,%r12d
  405d6b:	83 bd 54 ff ff ff 00 	cmpl   $0x0,-0xac(%rbp)
  405d72:	79 52                	jns    405dc6 <_ZNK6google8protobuf8internal20RepeatedPtrFieldBase3GetINS0_16RepeatedPtrFieldIN5caffe9BlobProtoEE11TypeHandlerEEERKNT_4TypeEi+0x90>
  405d74:	48 8d 85 70 ff ff ff 	lea    -0x90(%rbp),%rax
  405d7b:	b9 96 05 00 00       	mov    $0x596,%ecx
  405d80:	ba 68 ae 40 00       	mov    $0x40ae68,%edx
  405d85:	be 03 00 00 00       	mov    $0x3,%esi
  405d8a:	48 89 c7             	mov    %rax,%rdi
  405d8d:	e8 0e e2 ff ff       	callq  403fa0 <_ZN6google8protobuf8internal10LogMessageC1ENS0_8LogLevelEPKci@plt>
  405d92:	bb 01 00 00 00       	mov    $0x1,%ebx
  405d97:	48 8d 85 70 ff ff ff 	lea    -0x90(%rbp),%rax
  405d9e:	be d8 ae 40 00       	mov    $0x40aed8,%esi
  405da3:	48 89 c7             	mov    %rax,%rdi
  405da6:	e8 d5 e4 ff ff       	callq  404280 <_ZN6google8protobuf8internal10LogMessagelsEPKc@plt>
  405dab:	48 89 c2             	mov    %rax,%rdx
  405dae:	41 bc 01 00 00 00    	mov    $0x1,%r12d
  405db4:	48 8d 85 6e ff ff ff 	lea    -0x92(%rbp),%rax
  405dbb:	48 89 d6             	mov    %rdx,%rsi
  405dbe:	48 89 c7             	mov    %rax,%rdi
  405dc1:	e8 ba e2 ff ff       	callq  404080 <_ZN6google8protobuf8internal11LogFinisheraSERNS1_10LogMessageE@plt>
  405dc6:	45 84 e4             	test   %r12b,%r12b
  405dc9:	84 db                	test   %bl,%bl
  405dcb:	74 12                	je     405ddf <_ZNK6google8protobuf8internal20RepeatedPtrFieldBase3GetINS0_16RepeatedPtrFieldIN5caffe9BlobProtoEE11TypeHandlerEEERKNT_4TypeEi+0xa9>
  405dcd:	90                   	nop
  405dce:	48 8d 85 70 ff ff ff 	lea    -0x90(%rbp),%rax
  405dd5:	48 89 c7             	mov    %rax,%rdi
  405dd8:	e8 13 e3 ff ff       	callq  4040f0 <_ZN6google8protobuf8internal10LogMessageD1Ev@plt>
  405ddd:	eb 01                	jmp    405de0 <_ZNK6google8protobuf8internal20RepeatedPtrFieldBase3GetINS0_16RepeatedPtrFieldIN5caffe9BlobProtoEE11TypeHandlerEEERKNT_4TypeEi+0xaa>
  405ddf:	90                   	nop
  405de0:	48 8b 85 58 ff ff ff 	mov    -0xa8(%rbp),%rax
  405de7:	8b 40 08             	mov    0x8(%rax),%eax
  405dea:	bb 00 00 00 00       	mov    $0x0,%ebx
  405def:	41 bc 00 00 00 00    	mov    $0x0,%r12d
  405df5:	3b 85 54 ff ff ff    	cmp    -0xac(%rbp),%eax
  405dfb:	7f 4c                	jg     405e49 <_ZNK6google8protobuf8internal20RepeatedPtrFieldBase3GetINS0_16RepeatedPtrFieldIN5caffe9BlobProtoEE11TypeHandlerEEERKNT_4TypeEi+0x113>
  405dfd:	48 8d 45 b0          	lea    -0x50(%rbp),%rax
  405e01:	b9 97 05 00 00       	mov    $0x597,%ecx
  405e06:	ba 68 ae 40 00       	mov    $0x40ae68,%edx
  405e0b:	be 03 00 00 00       	mov    $0x3,%esi
  405e10:	48 89 c7             	mov    %rax,%rdi
  405e13:	e8 88 e1 ff ff       	callq  403fa0 <_ZN6google8protobuf8internal10LogMessageC1ENS0_8LogLevelEPKci@plt>
  405e18:	bb 01 00 00 00       	mov    $0x1,%ebx
  405e1d:	48 8d 45 b0          	lea    -0x50(%rbp),%rax
  405e21:	be f8 ae 40 00       	mov    $0x40aef8,%esi
  405e26:	48 89 c7             	mov    %rax,%rdi
  405e29:	e8 52 e4 ff ff       	callq  404280 <_ZN6google8protobuf8internal10LogMessagelsEPKc@plt>
  405e2e:	48 89 c2             	mov    %rax,%rdx
  405e31:	41 bc 01 00 00 00    	mov    $0x1,%r12d
  405e37:	48 8d 85 6f ff ff ff 	lea    -0x91(%rbp),%rax
  405e3e:	48 89 d6             	mov    %rdx,%rsi
  405e41:	48 89 c7             	mov    %rax,%rdi
  405e44:	e8 37 e2 ff ff       	callq  404080 <_ZN6google8protobuf8internal11LogFinisheraSERNS1_10LogMessageE@plt>
  405e49:	45 84 e4             	test   %r12b,%r12b
  405e4c:	84 db                	test   %bl,%bl
  405e4e:	74 0f                	je     405e5f <_ZNK6google8protobuf8internal20RepeatedPtrFieldBase3GetINS0_16RepeatedPtrFieldIN5caffe9BlobProtoEE11TypeHandlerEEERKNT_4TypeEi+0x129>
  405e50:	90                   	nop
  405e51:	48 8d 45 b0          	lea    -0x50(%rbp),%rax
  405e55:	48 89 c7             	mov    %rax,%rdi
  405e58:	e8 93 e2 ff ff       	callq  4040f0 <_ZN6google8protobuf8internal10LogMessageD1Ev@plt>
  405e5d:	eb 01                	jmp    405e60 <_ZNK6google8protobuf8internal20RepeatedPtrFieldBase3GetINS0_16RepeatedPtrFieldIN5caffe9BlobProtoEE11TypeHandlerEEERKNT_4TypeEi+0x12a>
  405e5f:	90                   	nop
  405e60:	48 8b 85 58 ff ff ff 	mov    -0xa8(%rbp),%rax
  405e67:	48 8b 40 10          	mov    0x10(%rax),%rax
  405e6b:	8b 95 54 ff ff ff    	mov    -0xac(%rbp),%edx
  405e71:	48 63 d2             	movslq %edx,%rdx
  405e74:	48 8b 44 d0 08       	mov    0x8(%rax,%rdx,8),%rax
  405e79:	48 89 c7             	mov    %rax,%rdi
  405e7c:	e8 70 14 00 00       	callq  4072f1 <_ZN6google8protobuf8internal20RepeatedPtrFieldBase4castINS0_16RepeatedPtrFieldIN5caffe9BlobProtoEE11TypeHandlerEEEPNT_4TypeEPv>
  405e81:	48 8b 4d e8          	mov    -0x18(%rbp),%rcx
  405e85:	64 48 33 0c 25 28 00 	xor    %fs:0x28,%rcx
  405e8c:	00 00 
  405e8e:	74 54                	je     405ee4 <_ZNK6google8protobuf8internal20RepeatedPtrFieldBase3GetINS0_16RepeatedPtrFieldIN5caffe9BlobProtoEE11TypeHandlerEEERKNT_4TypeEi+0x1ae>
  405e90:	eb 4d                	jmp    405edf <_ZNK6google8protobuf8internal20RepeatedPtrFieldBase3GetINS0_16RepeatedPtrFieldIN5caffe9BlobProtoEE11TypeHandlerEEERKNT_4TypeEi+0x1a9>
  405e92:	45 84 e4             	test   %r12b,%r12b
  405e95:	49 89 c4             	mov    %rax,%r12
  405e98:	84 db                	test   %bl,%bl
  405e9a:	74 12                	je     405eae <_ZNK6google8protobuf8internal20RepeatedPtrFieldBase3GetINS0_16RepeatedPtrFieldIN5caffe9BlobProtoEE11TypeHandlerEEERKNT_4TypeEi+0x178>
  405e9c:	90                   	nop
  405e9d:	48 8d 85 70 ff ff ff 	lea    -0x90(%rbp),%rax
  405ea4:	48 89 c7             	mov    %rax,%rdi
  405ea7:	e8 44 e2 ff ff       	callq  4040f0 <_ZN6google8protobuf8internal10LogMessageD1Ev@plt>
  405eac:	eb 01                	jmp    405eaf <_ZNK6google8protobuf8internal20RepeatedPtrFieldBase3GetINS0_16RepeatedPtrFieldIN5caffe9BlobProtoEE11TypeHandlerEEERKNT_4TypeEi+0x179>
  405eae:	90                   	nop
  405eaf:	4c 89 e0             	mov    %r12,%rax
  405eb2:	48 89 c7             	mov    %rax,%rdi
  405eb5:	e8 36 e1 ff ff       	callq  403ff0 <_Unwind_Resume@plt>
  405eba:	45 84 e4             	test   %r12b,%r12b
  405ebd:	49 89 c4             	mov    %rax,%r12
  405ec0:	84 db                	test   %bl,%bl
  405ec2:	74 0f                	je     405ed3 <_ZNK6google8protobuf8internal20RepeatedPtrFieldBase3GetINS0_16RepeatedPtrFieldIN5caffe9BlobProtoEE11TypeHandlerEEERKNT_4TypeEi+0x19d>
  405ec4:	90                   	nop
  405ec5:	48 8d 45 b0          	lea    -0x50(%rbp),%rax
  405ec9:	48 89 c7             	mov    %rax,%rdi
  405ecc:	e8 1f e2 ff ff       	callq  4040f0 <_ZN6google8protobuf8internal10LogMessageD1Ev@plt>
  405ed1:	eb 01                	jmp    405ed4 <_ZNK6google8protobuf8internal20RepeatedPtrFieldBase3GetINS0_16RepeatedPtrFieldIN5caffe9BlobProtoEE11TypeHandlerEEERKNT_4TypeEi+0x19e>
  405ed3:	90                   	nop
  405ed4:	4c 89 e0             	mov    %r12,%rax
  405ed7:	48 89 c7             	mov    %rax,%rdi
  405eda:	e8 11 e1 ff ff       	callq  403ff0 <_Unwind_Resume@plt>
  405edf:	e8 cc df ff ff       	callq  403eb0 <__stack_chk_fail@plt>
  405ee4:	48 81 c4 a0 00 00 00 	add    $0xa0,%rsp
  405eeb:	5b                   	pop    %rbx
  405eec:	41 5c                	pop    %r12
  405eee:	5d                   	pop    %rbp
  405eef:	c3                   	retq   

0000000000405ef0 <_ZN6google8protobuf8internal20RepeatedPtrFieldBase3AddINS0_16RepeatedPtrFieldIN5caffe9BlobProtoEE11TypeHandlerEEEPNT_4TypeESB_>:
  405ef0:	55                   	push   %rbp
  405ef1:	48 89 e5             	mov    %rsp,%rbp
  405ef4:	48 83 ec 20          	sub    $0x20,%rsp
  405ef8:	48 89 7d e8          	mov    %rdi,-0x18(%rbp)
  405efc:	48 89 75 e0          	mov    %rsi,-0x20(%rbp)
  405f00:	48 8b 45 e8          	mov    -0x18(%rbp),%rax
  405f04:	48 8b 40 10          	mov    0x10(%rax),%rax
  405f08:	48 85 c0             	test   %rax,%rax
  405f0b:	74 42                	je     405f4f <_ZN6google8protobuf8internal20RepeatedPtrFieldBase3AddINS0_16RepeatedPtrFieldIN5caffe9BlobProtoEE11TypeHandlerEEEPNT_4TypeESB_+0x5f>
  405f0d:	48 8b 45 e8          	mov    -0x18(%rbp),%rax
  405f11:	8b 50 08             	mov    0x8(%rax),%edx
  405f14:	48 8b 45 e8          	mov    -0x18(%rbp),%rax
  405f18:	48 8b 40 10          	mov    0x10(%rax),%rax
  405f1c:	8b 00                	mov    (%rax),%eax
  405f1e:	39 c2                	cmp    %eax,%edx
  405f20:	7d 2d                	jge    405f4f <_ZN6google8protobuf8internal20RepeatedPtrFieldBase3AddINS0_16RepeatedPtrFieldIN5caffe9BlobProtoEE11TypeHandlerEEEPNT_4TypeESB_+0x5f>
  405f22:	48 8b 45 e8          	mov    -0x18(%rbp),%rax
  405f26:	48 8b 50 10          	mov    0x10(%rax),%rdx
  405f2a:	48 8b 45 e8          	mov    -0x18(%rbp),%rax
  405f2e:	8b 40 08             	mov    0x8(%rax),%eax
  405f31:	8d 70 01             	lea    0x1(%rax),%esi
  405f34:	48 8b 4d e8          	mov    -0x18(%rbp),%rcx
  405f38:	89 71 08             	mov    %esi,0x8(%rcx)
  405f3b:	48 98                	cltq   
  405f3d:	48 8b 44 c2 08       	mov    0x8(%rdx,%rax,8),%rax
  405f42:	48 89 c7             	mov    %rax,%rdi
  405f45:	e8 a7 13 00 00       	callq  4072f1 <_ZN6google8protobuf8internal20RepeatedPtrFieldBase4castINS0_16RepeatedPtrFieldIN5caffe9BlobProtoEE11TypeHandlerEEEPNT_4TypeEPv>
  405f4a:	e9 8b 00 00 00       	jmpq   405fda <_ZN6google8protobuf8internal20RepeatedPtrFieldBase3AddINS0_16RepeatedPtrFieldIN5caffe9BlobProtoEE11TypeHandlerEEEPNT_4TypeESB_+0xea>
  405f4f:	48 8b 45 e8          	mov    -0x18(%rbp),%rax
  405f53:	48 8b 40 10          	mov    0x10(%rax),%rax
  405f57:	48 85 c0             	test   %rax,%rax
  405f5a:	74 15                	je     405f71 <_ZN6google8protobuf8internal20RepeatedPtrFieldBase3AddINS0_16RepeatedPtrFieldIN5caffe9BlobProtoEE11TypeHandlerEEEPNT_4TypeESB_+0x81>
  405f5c:	48 8b 45 e8          	mov    -0x18(%rbp),%rax
  405f60:	48 8b 40 10          	mov    0x10(%rax),%rax
  405f64:	8b 10                	mov    (%rax),%edx
  405f66:	48 8b 45 e8          	mov    -0x18(%rbp),%rax
  405f6a:	8b 40 0c             	mov    0xc(%rax),%eax
  405f6d:	39 c2                	cmp    %eax,%edx
  405f6f:	75 18                	jne    405f89 <_ZN6google8protobuf8internal20RepeatedPtrFieldBase3AddINS0_16RepeatedPtrFieldIN5caffe9BlobProtoEE11TypeHandlerEEEPNT_4TypeESB_+0x99>
  405f71:	48 8b 45 e8          	mov    -0x18(%rbp),%rax
  405f75:	8b 40 0c             	mov    0xc(%rax),%eax
  405f78:	8d 50 01             	lea    0x1(%rax),%edx
  405f7b:	48 8b 45 e8          	mov    -0x18(%rbp),%rax
  405f7f:	89 d6                	mov    %edx,%esi
  405f81:	48 89 c7             	mov    %rax,%rdi
  405f84:	e8 a7 e2 ff ff       	callq  404230 <_ZN6google8protobuf8internal20RepeatedPtrFieldBase7ReserveEi@plt>
  405f89:	48 8b 45 e8          	mov    -0x18(%rbp),%rax
  405f8d:	48 8b 40 10          	mov    0x10(%rax),%rax
  405f91:	8b 10                	mov    (%rax),%edx
  405f93:	83 c2 01             	add    $0x1,%edx
  405f96:	89 10                	mov    %edx,(%rax)
  405f98:	48 8b 45 e8          	mov    -0x18(%rbp),%rax
  405f9c:	48 8b 10             	mov    (%rax),%rdx
  405f9f:	48 8b 45 e0          	mov    -0x20(%rbp),%rax
  405fa3:	48 89 d6             	mov    %rdx,%rsi
  405fa6:	48 89 c7             	mov    %rax,%rdi
  405fa9:	e8 52 13 00 00       	callq  407300 <_ZN6google8protobuf8internal18GenericTypeHandlerIN5caffe9BlobProtoEE16NewFromPrototypeEPKS4_PNS0_5ArenaE>
  405fae:	48 89 45 f8          	mov    %rax,-0x8(%rbp)
  405fb2:	48 8b 45 e8          	mov    -0x18(%rbp),%rax
  405fb6:	48 8b 50 10          	mov    0x10(%rax),%rdx
  405fba:	48 8b 45 e8          	mov    -0x18(%rbp),%rax
  405fbe:	8b 40 08             	mov    0x8(%rax),%eax
  405fc1:	8d 70 01             	lea    0x1(%rax),%esi
  405fc4:	48 8b 4d e8          	mov    -0x18(%rbp),%rcx
  405fc8:	89 71 08             	mov    %esi,0x8(%rcx)
  405fcb:	48 98                	cltq   
  405fcd:	48 8b 4d f8          	mov    -0x8(%rbp),%rcx
  405fd1:	48 89 4c c2 08       	mov    %rcx,0x8(%rdx,%rax,8)
  405fd6:	48 8b 45 f8          	mov    -0x8(%rbp),%rax
  405fda:	c9                   	leaveq 
  405fdb:	c3                   	retq   

0000000000405fdc <_ZNSt12_Vector_baseIPN5caffe4BlobIfEESaIS3_EE12_Vector_implD1Ev>:
  405fdc:	55                   	push   %rbp
  405fdd:	48 89 e5             	mov    %rsp,%rbp
  405fe0:	48 83 ec 10          	sub    $0x10,%rsp
  405fe4:	48 89 7d f8          	mov    %rdi,-0x8(%rbp)
  405fe8:	48 8b 45 f8          	mov    -0x8(%rbp),%rax
  405fec:	48 89 c7             	mov    %rax,%rdi
  405fef:	e8 68 13 00 00       	callq  40735c <_ZNSaIPN5caffe4BlobIfEEED1Ev>
  405ff4:	90                   	nop
  405ff5:	c9                   	leaveq 
  405ff6:	c3                   	retq   
  405ff7:	90                   	nop

0000000000405ff8 <_ZNSt12_Vector_baseIPN5caffe4BlobIfEESaIS3_EEC1Ev>:
  405ff8:	55                   	push   %rbp
  405ff9:	48 89 e5             	mov    %rsp,%rbp
  405ffc:	48 83 ec 10          	sub    $0x10,%rsp
  406000:	48 89 7d f8          	mov    %rdi,-0x8(%rbp)
  406004:	48 8b 45 f8          	mov    -0x8(%rbp),%rax
  406008:	48 89 c7             	mov    %rax,%rdi
  40600b:	e8 0e 13 00 00       	callq  40731e <_ZNSt12_Vector_baseIPN5caffe4BlobIfEESaIS3_EE12_Vector_implC1Ev>
  406010:	90                   	nop
  406011:	c9                   	leaveq 
  406012:	c3                   	retq   
  406013:	90                   	nop

0000000000406014 <_ZNSt12_Vector_baseIPN5caffe4BlobIfEESaIS3_EED1Ev>:
  406014:	55                   	push   %rbp
  406015:	48 89 e5             	mov    %rsp,%rbp
  406018:	48 83 ec 10          	sub    $0x10,%rsp
  40601c:	48 89 7d f8          	mov    %rdi,-0x8(%rbp)
  406020:	48 8b 45 f8          	mov    -0x8(%rbp),%rax
  406024:	48 8b 40 10          	mov    0x10(%rax),%rax
  406028:	48 89 c2             	mov    %rax,%rdx
  40602b:	48 8b 45 f8          	mov    -0x8(%rbp),%rax
  40602f:	48 8b 00             	mov    (%rax),%rax
  406032:	48 29 c2             	sub    %rax,%rdx
  406035:	48 89 d0             	mov    %rdx,%rax
  406038:	48 c1 f8 03          	sar    $0x3,%rax
  40603c:	48 89 c2             	mov    %rax,%rdx
  40603f:	48 8b 45 f8          	mov    -0x8(%rbp),%rax
  406043:	48 8b 08             	mov    (%rax),%rcx
  406046:	48 8b 45 f8          	mov    -0x8(%rbp),%rax
  40604a:	48 89 ce             	mov    %rcx,%rsi
  40604d:	48 89 c7             	mov    %rax,%rdi
  406050:	e8 23 13 00 00       	callq  407378 <_ZNSt12_Vector_baseIPN5caffe4BlobIfEESaIS3_EE13_M_deallocateEPS3_m>
  406055:	48 8b 45 f8          	mov    -0x8(%rbp),%rax
  406059:	48 89 c7             	mov    %rax,%rdi
  40605c:	e8 7b ff ff ff       	callq  405fdc <_ZNSt12_Vector_baseIPN5caffe4BlobIfEESaIS3_EE12_Vector_implD1Ev>
  406061:	90                   	nop
  406062:	c9                   	leaveq 
  406063:	c3                   	retq   

0000000000406064 <_ZNSt12_Vector_baseIPN5caffe4BlobIfEESaIS3_EE19_M_get_Tp_allocatorEv>:
  406064:	55                   	push   %rbp
  406065:	48 89 e5             	mov    %rsp,%rbp
  406068:	48 89 7d f8          	mov    %rdi,-0x8(%rbp)
  40606c:	48 8b 45 f8          	mov    -0x8(%rbp),%rax
  406070:	5d                   	pop    %rbp
  406071:	c3                   	retq   

0000000000406072 <_ZSt8_DestroyIPPN5caffe4BlobIfEES3_EvT_S5_RSaIT0_E>:
  406072:	55                   	push   %rbp
  406073:	48 89 e5             	mov    %rsp,%rbp
  406076:	48 83 ec 20          	sub    $0x20,%rsp
  40607a:	48 89 7d f8          	mov    %rdi,-0x8(%rbp)
  40607e:	48 89 75 f0          	mov    %rsi,-0x10(%rbp)
  406082:	48 89 55 e8          	mov    %rdx,-0x18(%rbp)
  406086:	48 8b 55 f0          	mov    -0x10(%rbp),%rdx
  40608a:	48 8b 45 f8          	mov    -0x8(%rbp),%rax
  40608e:	48 89 d6             	mov    %rdx,%rsi
  406091:	48 89 c7             	mov    %rax,%rdi
  406094:	e8 14 13 00 00       	callq  4073ad <_ZSt8_DestroyIPPN5caffe4BlobIfEEEvT_S5_>
  406099:	90                   	nop
  40609a:	c9                   	leaveq 
  40609b:	c3                   	retq   

000000000040609c <_ZSt7forwardIRKPN5caffe4BlobIfEEEOT_RNSt16remove_referenceIS6_E4typeE>:
  40609c:	55                   	push   %rbp
  40609d:	48 89 e5             	mov    %rsp,%rbp
  4060a0:	48 89 7d f8          	mov    %rdi,-0x8(%rbp)
  4060a4:	48 8b 45 f8          	mov    -0x8(%rbp),%rax
  4060a8:	5d                   	pop    %rbp
  4060a9:	c3                   	retq   

00000000004060aa <_ZNSt16allocator_traitsISaIPN5caffe4BlobIfEEEE9constructIS3_JRKS3_EEEvRS4_PT_DpOT0_>:
  4060aa:	55                   	push   %rbp
  4060ab:	48 89 e5             	mov    %rsp,%rbp
  4060ae:	48 83 ec 20          	sub    $0x20,%rsp
  4060b2:	48 89 7d f8          	mov    %rdi,-0x8(%rbp)
  4060b6:	48 89 75 f0          	mov    %rsi,-0x10(%rbp)
  4060ba:	48 89 55 e8          	mov    %rdx,-0x18(%rbp)
  4060be:	48 8b 45 e8          	mov    -0x18(%rbp),%rax
  4060c2:	48 89 c7             	mov    %rax,%rdi
  4060c5:	e8 d2 ff ff ff       	callq  40609c <_ZSt7forwardIRKPN5caffe4BlobIfEEEOT_RNSt16remove_referenceIS6_E4typeE>
  4060ca:	48 89 c2             	mov    %rax,%rdx
  4060cd:	48 8b 4d f0          	mov    -0x10(%rbp),%rcx
  4060d1:	48 8b 45 f8          	mov    -0x8(%rbp),%rax
  4060d5:	48 89 ce             	mov    %rcx,%rsi
  4060d8:	48 89 c7             	mov    %rax,%rdi
  4060db:	e8 f4 12 00 00       	callq  4073d4 <_ZN9__gnu_cxx13new_allocatorIPN5caffe4BlobIfEEE9constructIS4_JRKS4_EEEvPT_DpOT0_>
  4060e0:	90                   	nop
  4060e1:	c9                   	leaveq 
  4060e2:	c3                   	retq   
  4060e3:	90                   	nop

00000000004060e4 <_ZNSt6vectorIPN5caffe4BlobIfEESaIS3_EE19_M_emplace_back_auxIJRKS3_EEEvDpOT_>:
  4060e4:	55                   	push   %rbp
  4060e5:	48 89 e5             	mov    %rsp,%rbp
  4060e8:	53                   	push   %rbx
  4060e9:	48 83 ec 38          	sub    $0x38,%rsp
  4060ed:	48 89 7d c8          	mov    %rdi,-0x38(%rbp)
  4060f1:	48 89 75 c0          	mov    %rsi,-0x40(%rbp)
  4060f5:	48 8b 45 c8          	mov    -0x38(%rbp),%rax
  4060f9:	ba 02 b1 40 00       	mov    $0x40b102,%edx
  4060fe:	be 01 00 00 00       	mov    $0x1,%esi
  406103:	48 89 c7             	mov    %rax,%rdi
  406106:	e8 0f 13 00 00       	callq  40741a <_ZNKSt6vectorIPN5caffe4BlobIfEESaIS3_EE12_M_check_lenEmPKc>
  40610b:	48 89 45 e0          	mov    %rax,-0x20(%rbp)
  40610f:	48 8b 45 c8          	mov    -0x38(%rbp),%rax
  406113:	48 8b 55 e0          	mov    -0x20(%rbp),%rdx
  406117:	48 89 d6             	mov    %rdx,%rsi
  40611a:	48 89 c7             	mov    %rax,%rdi
  40611d:	e8 e4 13 00 00       	callq  407506 <_ZNSt12_Vector_baseIPN5caffe4BlobIfEESaIS3_EE11_M_allocateEm>
  406122:	48 89 45 e8          	mov    %rax,-0x18(%rbp)
  406126:	48 8b 45 e8          	mov    -0x18(%rbp),%rax
  40612a:	48 89 45 d8          	mov    %rax,-0x28(%rbp)
  40612e:	48 8b 45 c0          	mov    -0x40(%rbp),%rax
  406132:	48 89 c7             	mov    %rax,%rdi
  406135:	e8 62 ff ff ff       	callq  40609c <_ZSt7forwardIRKPN5caffe4BlobIfEEEOT_RNSt16remove_referenceIS6_E4typeE>
  40613a:	48 89 c3             	mov    %rax,%rbx
  40613d:	48 8b 45 c8          	mov    -0x38(%rbp),%rax
  406141:	48 89 c7             	mov    %rax,%rdi
  406144:	e8 89 0f 00 00       	callq  4070d2 <_ZNKSt6vectorIPN5caffe4BlobIfEESaIS3_EE4sizeEv>
  406149:	48 8d 14 c5 00 00 00 	lea    0x0(,%rax,8),%rdx
  406150:	00 
  406151:	48 8b 45 e8          	mov    -0x18(%rbp),%rax
  406155:	48 8d 0c 02          	lea    (%rdx,%rax,1),%rcx
  406159:	48 8b 45 c8          	mov    -0x38(%rbp),%rax
  40615d:	48 89 da             	mov    %rbx,%rdx
  406160:	48 89 ce             	mov    %rcx,%rsi
  406163:	48 89 c7             	mov    %rax,%rdi
  406166:	e8 3f ff ff ff       	callq  4060aa <_ZNSt16allocator_traitsISaIPN5caffe4BlobIfEEEE9constructIS3_JRKS3_EEEvRS4_PT_DpOT0_>
  40616b:	48 c7 45 d8 00 00 00 	movq   $0x0,-0x28(%rbp)
  406172:	00 
  406173:	48 8b 45 c8          	mov    -0x38(%rbp),%rax
  406177:	48 89 c7             	mov    %rax,%rdi
  40617a:	e8 e5 fe ff ff       	callq  406064 <_ZNSt12_Vector_baseIPN5caffe4BlobIfEESaIS3_EE19_M_get_Tp_allocatorEv>
  40617f:	48 89 c1             	mov    %rax,%rcx
  406182:	48 8b 45 c8          	mov    -0x38(%rbp),%rax
  406186:	48 8b 70 08          	mov    0x8(%rax),%rsi
  40618a:	48 8b 45 c8          	mov    -0x38(%rbp),%rax
  40618e:	48 8b 00             	mov    (%rax),%rax
  406191:	48 8b 55 e8          	mov    -0x18(%rbp),%rdx
  406195:	48 89 c7             	mov    %rax,%rdi
  406198:	e8 9c 13 00 00       	callq  407539 <_ZSt34__uninitialized_move_if_noexcept_aIPPN5caffe4BlobIfEES4_SaIS3_EET0_T_S7_S6_RT1_>
  40619d:	48 89 45 d8          	mov    %rax,-0x28(%rbp)
  4061a1:	48 83 45 d8 08       	addq   $0x8,-0x28(%rbp)
  4061a6:	48 8b 45 c8          	mov    -0x38(%rbp),%rax
  4061aa:	48 89 c7             	mov    %rax,%rdi
  4061ad:	e8 b2 fe ff ff       	callq  406064 <_ZNSt12_Vector_baseIPN5caffe4BlobIfEESaIS3_EE19_M_get_Tp_allocatorEv>
  4061b2:	48 89 c2             	mov    %rax,%rdx
  4061b5:	48 8b 45 c8          	mov    -0x38(%rbp),%rax
  4061b9:	48 8b 48 08          	mov    0x8(%rax),%rcx
  4061bd:	48 8b 45 c8          	mov    -0x38(%rbp),%rax
  4061c1:	48 8b 00             	mov    (%rax),%rax
  4061c4:	48 89 ce             	mov    %rcx,%rsi
  4061c7:	48 89 c7             	mov    %rax,%rdi
  4061ca:	e8 a3 fe ff ff       	callq  406072 <_ZSt8_DestroyIPPN5caffe4BlobIfEES3_EvT_S5_RSaIT0_E>
  4061cf:	48 8b 45 c8          	mov    -0x38(%rbp),%rax
  4061d3:	48 8b 40 10          	mov    0x10(%rax),%rax
  4061d7:	48 89 c2             	mov    %rax,%rdx
  4061da:	48 8b 45 c8          	mov    -0x38(%rbp),%rax
  4061de:	48 8b 00             	mov    (%rax),%rax
  4061e1:	48 29 c2             	sub    %rax,%rdx
  4061e4:	48 89 d0             	mov    %rdx,%rax
  4061e7:	48 c1 f8 03          	sar    $0x3,%rax
  4061eb:	48 89 c2             	mov    %rax,%rdx
  4061ee:	48 8b 45 c8          	mov    -0x38(%rbp),%rax
  4061f2:	48 8b 08             	mov    (%rax),%rcx
  4061f5:	48 8b 45 c8          	mov    -0x38(%rbp),%rax
  4061f9:	48 89 ce             	mov    %rcx,%rsi
  4061fc:	48 89 c7             	mov    %rax,%rdi
  4061ff:	e8 74 11 00 00       	callq  407378 <_ZNSt12_Vector_baseIPN5caffe4BlobIfEESaIS3_EE13_M_deallocateEPS3_m>
  406204:	48 8b 45 c8          	mov    -0x38(%rbp),%rax
  406208:	48 8b 55 e8          	mov    -0x18(%rbp),%rdx
  40620c:	48 89 10             	mov    %rdx,(%rax)
  40620f:	48 8b 45 c8          	mov    -0x38(%rbp),%rax
  406213:	48 8b 55 d8          	mov    -0x28(%rbp),%rdx
  406217:	48 89 50 08          	mov    %rdx,0x8(%rax)
  40621b:	48 8b 45 e0          	mov    -0x20(%rbp),%rax
  40621f:	48 8d 14 c5 00 00 00 	lea    0x0(,%rax,8),%rdx
  406226:	00 
  406227:	48 8b 45 e8          	mov    -0x18(%rbp),%rax
  40622b:	48 01 c2             	add    %rax,%rdx
  40622e:	48 8b 45 c8          	mov    -0x38(%rbp),%rax
  406232:	48 89 50 10          	mov    %rdx,0x10(%rax)
  406236:	e9 8c 00 00 00       	jmpq   4062c7 <_ZNSt6vectorIPN5caffe4BlobIfEESaIS3_EE19_M_emplace_back_auxIJRKS3_EEEvDpOT_+0x1e3>
  40623b:	48 89 c7             	mov    %rax,%rdi
  40623e:	e8 9d db ff ff       	callq  403de0 <__cxa_begin_catch@plt>
  406243:	48 83 7d d8 00       	cmpq   $0x0,-0x28(%rbp)
  406248:	75 2c                	jne    406276 <_ZNSt6vectorIPN5caffe4BlobIfEESaIS3_EE19_M_emplace_back_auxIJRKS3_EEEvDpOT_+0x192>
  40624a:	48 8b 45 c8          	mov    -0x38(%rbp),%rax
  40624e:	48 89 c7             	mov    %rax,%rdi
  406251:	e8 7c 0e 00 00       	callq  4070d2 <_ZNKSt6vectorIPN5caffe4BlobIfEESaIS3_EE4sizeEv>
  406256:	48 8d 14 c5 00 00 00 	lea    0x0(,%rax,8),%rdx
  40625d:	00 
  40625e:	48 8b 45 e8          	mov    -0x18(%rbp),%rax
  406262:	48 01 c2             	add    %rax,%rdx
  406265:	48 8b 45 c8          	mov    -0x38(%rbp),%rax
  406269:	48 89 d6             	mov    %rdx,%rsi
  40626c:	48 89 c7             	mov    %rax,%rdi
  40626f:	e8 19 13 00 00       	callq  40758d <_ZNSt16allocator_traitsISaIPN5caffe4BlobIfEEEE7destroyIS3_EEvRS4_PT_>
  406274:	eb 22                	jmp    406298 <_ZNSt6vectorIPN5caffe4BlobIfEESaIS3_EE19_M_emplace_back_auxIJRKS3_EEEvDpOT_+0x1b4>
  406276:	48 8b 45 c8          	mov    -0x38(%rbp),%rax
  40627a:	48 89 c7             	mov    %rax,%rdi
  40627d:	e8 e2 fd ff ff       	callq  406064 <_ZNSt12_Vector_baseIPN5caffe4BlobIfEESaIS3_EE19_M_get_Tp_allocatorEv>
  406282:	48 89 c2             	mov    %rax,%rdx
  406285:	48 8b 4d d8          	mov    -0x28(%rbp),%rcx
  406289:	48 8b 45 e8          	mov    -0x18(%rbp),%rax
  40628d:	48 89 ce             	mov    %rcx,%rsi
  406290:	48 89 c7             	mov    %rax,%rdi
  406293:	e8 da fd ff ff       	callq  406072 <_ZSt8_DestroyIPPN5caffe4BlobIfEES3_EvT_S5_RSaIT0_E>
  406298:	48 8b 45 c8          	mov    -0x38(%rbp),%rax
  40629c:	48 8b 55 e0          	mov    -0x20(%rbp),%rdx
  4062a0:	48 8b 4d e8          	mov    -0x18(%rbp),%rcx
  4062a4:	48 89 ce             	mov    %rcx,%rsi
  4062a7:	48 89 c7             	mov    %rax,%rdi
  4062aa:	e8 c9 10 00 00       	callq  407378 <_ZNSt12_Vector_baseIPN5caffe4BlobIfEESaIS3_EE13_M_deallocateEPS3_m>
  4062af:	e8 dc dd ff ff       	callq  404090 <__cxa_rethrow@plt>
  4062b4:	48 89 c3             	mov    %rax,%rbx
  4062b7:	e8 a4 dd ff ff       	callq  404060 <__cxa_end_catch@plt>
  4062bc:	48 89 d8             	mov    %rbx,%rax
  4062bf:	48 89 c7             	mov    %rax,%rdi
  4062c2:	e8 29 dd ff ff       	callq  403ff0 <_Unwind_Resume@plt>
  4062c7:	48 83 c4 38          	add    $0x38,%rsp
  4062cb:	5b                   	pop    %rbx
  4062cc:	5d                   	pop    %rbp
  4062cd:	c3                   	retq   

00000000004062ce <_ZN5boost10shared_ptrIN5caffe12SyncedMemoryEEC1Ev>:
  4062ce:	55                   	push   %rbp
  4062cf:	48 89 e5             	mov    %rsp,%rbp
  4062d2:	48 83 ec 10          	sub    $0x10,%rsp
  4062d6:	48 89 7d f8          	mov    %rdi,-0x8(%rbp)
  4062da:	48 8b 45 f8          	mov    -0x8(%rbp),%rax
  4062de:	48 c7 00 00 00 00 00 	movq   $0x0,(%rax)
  4062e5:	48 8b 45 f8          	mov    -0x8(%rbp),%rax
  4062e9:	48 83 c0 08          	add    $0x8,%rax
  4062ed:	48 89 c7             	mov    %rax,%rdi
  4062f0:	e8 51 e3 ff ff       	callq  404646 <_ZN5boost6detail12shared_countC1Ev>
  4062f5:	90                   	nop
  4062f6:	c9                   	leaveq 
  4062f7:	c3                   	retq   

00000000004062f8 <_ZNSt6vectorIiSaIiEEC1Ev>:
  4062f8:	55                   	push   %rbp
  4062f9:	48 89 e5             	mov    %rsp,%rbp
  4062fc:	48 83 ec 10          	sub    $0x10,%rsp
  406300:	48 89 7d f8          	mov    %rdi,-0x8(%rbp)
  406304:	48 8b 45 f8          	mov    -0x8(%rbp),%rax
  406308:	48 89 c7             	mov    %rax,%rdi
  40630b:	e8 a4 12 00 00       	callq  4075b4 <_ZNSt12_Vector_baseIiSaIiEEC1Ev>
  406310:	90                   	nop
  406311:	c9                   	leaveq 
  406312:	c3                   	retq   
  406313:	90                   	nop

0000000000406314 <_ZN5caffe5LayerIfEC1ERKNS_14LayerParameterE>:
  406314:	55                   	push   %rbp
  406315:	48 89 e5             	mov    %rsp,%rbp
  406318:	53                   	push   %rbx
  406319:	48 83 ec 28          	sub    $0x28,%rsp
  40631d:	48 89 7d d8          	mov    %rdi,-0x28(%rbp)
  406321:	48 89 75 d0          	mov    %rsi,-0x30(%rbp)
  406325:	ba 48 b7 40 00       	mov    $0x40b748,%edx
  40632a:	48 8b 45 d8          	mov    -0x28(%rbp),%rax
  40632e:	48 89 10             	mov    %rdx,(%rax)
  406331:	48 8b 45 d8          	mov    -0x28(%rbp),%rax
  406335:	48 8d 50 08          	lea    0x8(%rax),%rdx
  406339:	48 8b 45 d0          	mov    -0x30(%rbp),%rax
  40633d:	48 89 c6             	mov    %rax,%rsi
  406340:	48 89 d7             	mov    %rdx,%rdi
  406343:	e8 a8 de ff ff       	callq  4041f0 <_ZN5caffe14LayerParameterC1ERKS0_@plt>
  406348:	48 8b 45 d8          	mov    -0x28(%rbp),%rax
  40634c:	48 05 68 02 00 00    	add    $0x268,%rax
  406352:	48 89 c7             	mov    %rax,%rdi
  406355:	e8 76 12 00 00       	callq  4075d0 <_ZNSt6vectorIN5boost10shared_ptrIN5caffe4BlobIfEEEESaIS5_EEC1Ev>
  40635a:	48 8b 45 d8          	mov    -0x28(%rbp),%rax
  40635e:	48 05 80 02 00 00    	add    $0x280,%rax
  406364:	48 89 c7             	mov    %rax,%rdi
  406367:	e8 c4 12 00 00       	callq  407630 <_ZNSt6vectorIbSaIbEEC1Ev>
  40636c:	48 8b 45 d8          	mov    -0x28(%rbp),%rax
  406370:	48 05 a8 02 00 00    	add    $0x2a8,%rax
  406376:	48 89 c7             	mov    %rax,%rdi
  406379:	e8 ea 12 00 00       	callq  407668 <_ZNSt6vectorIfSaIfEEC1Ev>
  40637e:	48 8b 45 d0          	mov    -0x30(%rbp),%rax
  406382:	48 89 c7             	mov    %rax,%rdi
  406385:	e8 d4 e3 ff ff       	callq  40475e <_ZNK5caffe14LayerParameter5phaseEv>
  40638a:	89 c2                	mov    %eax,%edx
  40638c:	48 8b 45 d8          	mov    -0x28(%rbp),%rax
  406390:	89 90 60 02 00 00    	mov    %edx,0x260(%rax)
  406396:	48 8b 45 d8          	mov    -0x28(%rbp),%rax
  40639a:	48 83 c0 08          	add    $0x8,%rax
  40639e:	48 89 c7             	mov    %rax,%rdi
  4063a1:	e8 14 e4 ff ff       	callq  4047ba <_ZNK5caffe14LayerParameter10blobs_sizeEv>
  4063a6:	85 c0                	test   %eax,%eax
  4063a8:	0f 9f c0             	setg   %al
  4063ab:	84 c0                	test   %al,%al
  4063ad:	0f 84 30 01 00 00    	je     4064e3 <_ZN5caffe5LayerIfEC1ERKNS_14LayerParameterE+0x1cf>
  4063b3:	48 8b 45 d8          	mov    -0x28(%rbp),%rax
  4063b7:	48 83 c0 08          	add    $0x8,%rax
  4063bb:	48 89 c7             	mov    %rax,%rdi
  4063be:	e8 f7 e3 ff ff       	callq  4047ba <_ZNK5caffe14LayerParameter10blobs_sizeEv>
  4063c3:	48 98                	cltq   
  4063c5:	48 8b 55 d8          	mov    -0x28(%rbp),%rdx
  4063c9:	48 81 c2 68 02 00 00 	add    $0x268,%rdx
  4063d0:	48 89 c6             	mov    %rax,%rsi
  4063d3:	48 89 d7             	mov    %rdx,%rdi
  4063d6:	e8 ed 12 00 00       	callq  4076c8 <_ZNSt6vectorIN5boost10shared_ptrIN5caffe4BlobIfEEEESaIS5_EE6resizeEm>
  4063db:	c7 45 ec 00 00 00 00 	movl   $0x0,-0x14(%rbp)
  4063e2:	48 8b 45 d8          	mov    -0x28(%rbp),%rax
  4063e6:	48 83 c0 08          	add    $0x8,%rax
  4063ea:	48 89 c7             	mov    %rax,%rdi
  4063ed:	e8 c8 e3 ff ff       	callq  4047ba <_ZNK5caffe14LayerParameter10blobs_sizeEv>
  4063f2:	3b 45 ec             	cmp    -0x14(%rbp),%eax
  4063f5:	0f 9f c0             	setg   %al
  4063f8:	84 c0                	test   %al,%al
  4063fa:	0f 84 e3 00 00 00    	je     4064e3 <_ZN5caffe5LayerIfEC1ERKNS_14LayerParameterE+0x1cf>
  406400:	bf 50 00 00 00       	mov    $0x50,%edi
  406405:	e8 46 da ff ff       	callq  403e50 <_Znwm@plt>
  40640a:	48 89 c3             	mov    %rax,%rbx
  40640d:	48 89 df             	mov    %rbx,%rdi
  406410:	e8 d3 f0 ff ff       	callq  4054e8 <_ZN5caffe4BlobIfEC1Ev>
  406415:	8b 45 ec             	mov    -0x14(%rbp),%eax
  406418:	48 98                	cltq   
  40641a:	48 8b 55 d8          	mov    -0x28(%rbp),%rdx
  40641e:	48 81 c2 68 02 00 00 	add    $0x268,%rdx
  406425:	48 89 c6             	mov    %rax,%rsi
  406428:	48 89 d7             	mov    %rdx,%rdi
  40642b:	e8 24 13 00 00       	callq  407754 <_ZNSt6vectorIN5boost10shared_ptrIN5caffe4BlobIfEEEESaIS5_EEixEm>
  406430:	48 89 de             	mov    %rbx,%rsi
  406433:	48 89 c7             	mov    %rax,%rdi
  406436:	e8 59 13 00 00       	callq  407794 <_ZN5boost10shared_ptrIN5caffe4BlobIfEEE5resetIS3_EEvPT_>
  40643b:	48 8b 45 d8          	mov    -0x28(%rbp),%rax
  40643f:	48 8d 50 08          	lea    0x8(%rax),%rdx
  406443:	8b 45 ec             	mov    -0x14(%rbp),%eax
  406446:	89 c6                	mov    %eax,%esi
  406448:	48 89 d7             	mov    %rdx,%rdi
  40644b:	e8 a8 e3 ff ff       	callq  4047f8 <_ZNK5caffe14LayerParameter5blobsEi>
  406450:	48 89 c3             	mov    %rax,%rbx
  406453:	8b 45 ec             	mov    -0x14(%rbp),%eax
  406456:	48 98                	cltq   
  406458:	48 8b 55 d8          	mov    -0x28(%rbp),%rdx
  40645c:	48 81 c2 68 02 00 00 	add    $0x268,%rdx
  406463:	48 89 c6             	mov    %rax,%rsi
  406466:	48 89 d7             	mov    %rdx,%rdi
  406469:	e8 e6 12 00 00       	callq  407754 <_ZNSt6vectorIN5boost10shared_ptrIN5caffe4BlobIfEEEESaIS5_EEixEm>
  40646e:	48 89 c7             	mov    %rax,%rdi
  406471:	e8 b4 13 00 00       	callq  40782a <_ZNK5boost10shared_ptrIN5caffe4BlobIfEEEptEv>
  406476:	ba 01 00 00 00       	mov    $0x1,%edx
  40647b:	48 89 de             	mov    %rbx,%rsi
  40647e:	48 89 c7             	mov    %rax,%rdi
  406481:	e8 0a de ff ff       	callq  404290 <_ZN5caffe4BlobIfE9FromProtoERKNS_9BlobProtoEb@plt>
  406486:	83 45 ec 01          	addl   $0x1,-0x14(%rbp)
  40648a:	e9 53 ff ff ff       	jmpq   4063e2 <_ZN5caffe5LayerIfEC1ERKNS_14LayerParameterE+0xce>
  40648f:	48 89 c3             	mov    %rax,%rbx
  406492:	48 8b 45 d8          	mov    -0x28(%rbp),%rax
  406496:	48 05 a8 02 00 00    	add    $0x2a8,%rax
  40649c:	48 89 c7             	mov    %rax,%rdi
  40649f:	e8 e0 11 00 00       	callq  407684 <_ZNSt6vectorIfSaIfEED1Ev>
  4064a4:	48 8b 45 d8          	mov    -0x28(%rbp),%rax
  4064a8:	48 05 80 02 00 00    	add    $0x280,%rax
  4064ae:	48 89 c7             	mov    %rax,%rdi
  4064b1:	e8 96 11 00 00       	callq  40764c <_ZNSt6vectorIbSaIbEED1Ev>
  4064b6:	48 8b 45 d8          	mov    -0x28(%rbp),%rax
  4064ba:	48 05 68 02 00 00    	add    $0x268,%rax
  4064c0:	48 89 c7             	mov    %rax,%rdi
  4064c3:	e8 24 11 00 00       	callq  4075ec <_ZNSt6vectorIN5boost10shared_ptrIN5caffe4BlobIfEEEESaIS5_EED1Ev>
  4064c8:	48 8b 45 d8          	mov    -0x28(%rbp),%rax
  4064cc:	48 83 c0 08          	add    $0x8,%rax
  4064d0:	48 89 c7             	mov    %rax,%rdi
  4064d3:	e8 98 dd ff ff       	callq  404270 <_ZN5caffe14LayerParameterD1Ev@plt>
  4064d8:	48 89 d8             	mov    %rbx,%rax
  4064db:	48 89 c7             	mov    %rax,%rdi
  4064de:	e8 0d db ff ff       	callq  403ff0 <_Unwind_Resume@plt>
  4064e3:	90                   	nop
  4064e4:	48 83 c4 28          	add    $0x28,%rsp
  4064e8:	5b                   	pop    %rbx
  4064e9:	5d                   	pop    %rbp
  4064ea:	c3                   	retq   
  4064eb:	90                   	nop

00000000004064ec <_ZN5caffe5LayerIfED1Ev>:
  4064ec:	55                   	push   %rbp
  4064ed:	48 89 e5             	mov    %rsp,%rbp
  4064f0:	48 83 ec 10          	sub    $0x10,%rsp
  4064f4:	48 89 7d f8          	mov    %rdi,-0x8(%rbp)
  4064f8:	ba 48 b7 40 00       	mov    $0x40b748,%edx
  4064fd:	48 8b 45 f8          	mov    -0x8(%rbp),%rax
  406501:	48 89 10             	mov    %rdx,(%rax)
  406504:	48 8b 45 f8          	mov    -0x8(%rbp),%rax
  406508:	48 05 a8 02 00 00    	add    $0x2a8,%rax
  40650e:	48 89 c7             	mov    %rax,%rdi
  406511:	e8 6e 11 00 00       	callq  407684 <_ZNSt6vectorIfSaIfEED1Ev>
  406516:	48 8b 45 f8          	mov    -0x8(%rbp),%rax
  40651a:	48 05 80 02 00 00    	add    $0x280,%rax
  406520:	48 89 c7             	mov    %rax,%rdi
  406523:	e8 24 11 00 00       	callq  40764c <_ZNSt6vectorIbSaIbEED1Ev>
  406528:	48 8b 45 f8          	mov    -0x8(%rbp),%rax
  40652c:	48 05 68 02 00 00    	add    $0x268,%rax
  406532:	48 89 c7             	mov    %rax,%rdi
  406535:	e8 b2 10 00 00       	callq  4075ec <_ZNSt6vectorIN5boost10shared_ptrIN5caffe4BlobIfEEEESaIS5_EED1Ev>
  40653a:	48 8b 45 f8          	mov    -0x8(%rbp),%rax
  40653e:	48 83 c0 08          	add    $0x8,%rax
  406542:	48 89 c7             	mov    %rax,%rdi
  406545:	e8 26 dd ff ff       	callq  404270 <_ZN5caffe14LayerParameterD1Ev@plt>
  40654a:	90                   	nop
  40654b:	c9                   	leaveq 
  40654c:	c3                   	retq   
  40654d:	90                   	nop

000000000040654e <_ZN5caffe5LayerIfED0Ev>:
  40654e:	55                   	push   %rbp
  40654f:	48 89 e5             	mov    %rsp,%rbp
  406552:	48 83 ec 10          	sub    $0x10,%rsp
  406556:	48 89 7d f8          	mov    %rdi,-0x8(%rbp)
  40655a:	48 8b 45 f8          	mov    -0x8(%rbp),%rax
  40655e:	48 89 c7             	mov    %rax,%rdi
  406561:	e8 86 ff ff ff       	callq  4064ec <_ZN5caffe5LayerIfED1Ev>
  406566:	48 8b 45 f8          	mov    -0x8(%rbp),%rax
  40656a:	48 89 c7             	mov    %rax,%rdi
  40656d:	e8 ee d9 ff ff       	callq  403f60 <_ZdlPv@plt>
  406572:	c9                   	leaveq 
  406573:	c3                   	retq   

0000000000406574 <_ZN5caffe5LayerIfE15CheckBlobCountsERKSt6vectorIPNS_4BlobIfEESaIS5_EES9_>:
  406574:	55                   	push   %rbp
  406575:	48 89 e5             	mov    %rsp,%rbp
  406578:	41 54                	push   %r12
  40657a:	53                   	push   %rbx
  40657b:	48 83 c4 80          	add    $0xffffffffffffff80,%rsp
  40657f:	48 89 7d 88          	mov    %rdi,-0x78(%rbp)
  406583:	48 89 75 80          	mov    %rsi,-0x80(%rbp)
  406587:	48 89 95 78 ff ff ff 	mov    %rdx,-0x88(%rbp)
  40658e:	64 48 8b 04 25 28 00 	mov    %fs:0x28,%rax
  406595:	00 00 
  406597:	48 89 45 e8          	mov    %rax,-0x18(%rbp)
  40659b:	31 c0                	xor    %eax,%eax
  40659d:	48 8b 45 88          	mov    -0x78(%rbp),%rax
  4065a1:	48 8b 00             	mov    (%rax),%rax
  4065a4:	48 83 c0 30          	add    $0x30,%rax
  4065a8:	48 8b 00             	mov    (%rax),%rax
  4065ab:	48 8b 55 88          	mov    -0x78(%rbp),%rdx
  4065af:	48 89 d7             	mov    %rdx,%rdi
  4065b2:	ff d0                	callq  *%rax
  4065b4:	f7 d0                	not    %eax
  4065b6:	c1 e8 1f             	shr    $0x1f,%eax
  4065b9:	84 c0                	test   %al,%al
  4065bb:	0f 84 0a 01 00 00    	je     4066cb <_ZN5caffe5LayerIfE15CheckBlobCountsERKSt6vectorIPNS_4BlobIfEESaIS5_EES9_+0x157>
  4065c1:	48 8b 45 80          	mov    -0x80(%rbp),%rax
  4065c5:	48 89 c7             	mov    %rax,%rdi
  4065c8:	e8 05 0b 00 00       	callq  4070d2 <_ZNKSt6vectorIPN5caffe4BlobIfEESaIS3_EE4sizeEv>
  4065cd:	48 89 c7             	mov    %rax,%rdi
  4065d0:	e8 11 e1 ff ff       	callq  4046e6 <_ZN6google21GetReferenceableValueEm>
  4065d5:	48 89 45 d0          	mov    %rax,-0x30(%rbp)
  4065d9:	48 8b 45 88          	mov    -0x78(%rbp),%rax
  4065dd:	48 8b 00             	mov    (%rax),%rax
  4065e0:	48 83 c0 30          	add    $0x30,%rax
  4065e4:	48 8b 00             	mov    (%rax),%rax
  4065e7:	48 8b 55 88          	mov    -0x78(%rbp),%rdx
  4065eb:	48 89 d7             	mov    %rdx,%rdi
  4065ee:	ff d0                	callq  *%rax
  4065f0:	89 c7                	mov    %eax,%edi
  4065f2:	e8 e3 e0 ff ff       	callq  4046da <_ZN6google21GetReferenceableValueEi>
  4065f7:	89 45 90             	mov    %eax,-0x70(%rbp)
  4065fa:	48 8d 4d d0          	lea    -0x30(%rbp),%rcx
  4065fe:	48 8d 45 90          	lea    -0x70(%rbp),%rax
  406602:	ba 20 b1 40 00       	mov    $0x40b120,%edx
  406607:	48 89 ce             	mov    %rcx,%rsi
  40660a:	48 89 c7             	mov    %rax,%rdi
  40660d:	e8 61 12 00 00       	callq  407873 <_ZN6google12Check_EQImplIimEEPNSt7__cxx1112basic_stringIcSt11char_traitsIcESaIcEEERKT_RKT0_PKc>
  406612:	48 89 45 98          	mov    %rax,-0x68(%rbp)
  406616:	48 83 7d 98 00       	cmpq   $0x0,-0x68(%rbp)
  40661b:	0f 84 aa 00 00 00    	je     4066cb <_ZN5caffe5LayerIfE15CheckBlobCountsERKSt6vectorIPNS_4BlobIfEESaIS5_EES9_+0x157>
  406621:	48 8b 45 88          	mov    -0x78(%rbp),%rax
  406625:	48 8b 00             	mov    (%rax),%rax
  406628:	48 83 c0 30          	add    $0x30,%rax
  40662c:	48 8b 00             	mov    (%rax),%rax
  40662f:	48 8b 55 88          	mov    -0x78(%rbp),%rdx
  406633:	48 89 d7             	mov    %rdx,%rdi
  406636:	ff d0                	callq  *%rax
  406638:	89 c3                	mov    %eax,%ebx
  40663a:	48 8b 45 88          	mov    -0x78(%rbp),%rax
  40663e:	48 8b 00             	mov    (%rax),%rax
  406641:	48 83 c0 28          	add    $0x28,%rax
  406645:	48 8b 00             	mov    (%rax),%rax
  406648:	48 8b 55 88          	mov    -0x78(%rbp),%rdx
  40664c:	48 89 d7             	mov    %rdx,%rdi
  40664f:	ff d0                	callq  *%rax
  406651:	49 89 c4             	mov    %rax,%r12
  406654:	48 8b 55 98          	mov    -0x68(%rbp),%rdx
  406658:	48 8d 45 90          	lea    -0x70(%rbp),%rax
  40665c:	48 89 d6             	mov    %rdx,%rsi
  40665f:	48 89 c7             	mov    %rax,%rdi
  406662:	e8 59 e0 ff ff       	callq  4046c0 <_ZN6google13CheckOpStringC1EPNSt7__cxx1112basic_stringIcSt11char_traitsIcESaIcEEE>
  406667:	48 8d 55 90          	lea    -0x70(%rbp),%rdx
  40666b:	48 8d 45 d0          	lea    -0x30(%rbp),%rax
  40666f:	48 89 d1             	mov    %rdx,%rcx
  406672:	ba 5d 01 00 00       	mov    $0x15d,%edx
  406677:	be 48 af 40 00       	mov    $0x40af48,%esi
  40667c:	48 89 c7             	mov    %rax,%rdi
  40667f:	e8 5c d9 ff ff       	callq  403fe0 <_ZN6google15LogMessageFatalC1EPKciRKNS_13CheckOpStringE@plt>
  406684:	48 8d 45 d0          	lea    -0x30(%rbp),%rax
  406688:	48 89 c7             	mov    %rax,%rdi
  40668b:	e8 d0 da ff ff       	callq  404160 <_ZN6google10LogMessage6streamEv@plt>
  406690:	4c 89 e6             	mov    %r12,%rsi
  406693:	48 89 c7             	mov    %rax,%rdi
  406696:	e8 e5 d8 ff ff       	callq  403f80 <_ZStlsISt11char_traitsIcEERSt13basic_ostreamIcT_ES5_PKc@plt>
  40669b:	be 47 b1 40 00       	mov    $0x40b147,%esi
  4066a0:	48 89 c7             	mov    %rax,%rdi
  4066a3:	e8 d8 d8 ff ff       	callq  403f80 <_ZStlsISt11char_traitsIcEERSt13basic_ostreamIcT_ES5_PKc@plt>
  4066a8:	89 de                	mov    %ebx,%esi
  4066aa:	48 89 c7             	mov    %rax,%rdi
  4066ad:	e8 1e d8 ff ff       	callq  403ed0 <_ZNSolsEi@plt>
  4066b2:	be 55 b1 40 00       	mov    $0x40b155,%esi
  4066b7:	48 89 c7             	mov    %rax,%rdi
  4066ba:	e8 c1 d8 ff ff       	callq  403f80 <_ZStlsISt11char_traitsIcEERSt13basic_ostreamIcT_ES5_PKc@plt>
  4066bf:	48 8d 45 d0          	lea    -0x30(%rbp),%rax
  4066c3:	48 89 c7             	mov    %rax,%rdi
  4066c6:	e8 15 da ff ff       	callq  4040e0 <_ZN6google15LogMessageFatalD1Ev@plt>
  4066cb:	48 8b 45 88          	mov    -0x78(%rbp),%rax
  4066cf:	48 8b 00             	mov    (%rax),%rax
  4066d2:	48 83 c0 38          	add    $0x38,%rax
  4066d6:	48 8b 00             	mov    (%rax),%rax
  4066d9:	48 8b 55 88          	mov    -0x78(%rbp),%rdx
  4066dd:	48 89 d7             	mov    %rdx,%rdi
  4066e0:	ff d0                	callq  *%rax
  4066e2:	f7 d0                	not    %eax
  4066e4:	c1 e8 1f             	shr    $0x1f,%eax
  4066e7:	84 c0                	test   %al,%al
  4066e9:	0f 84 0a 01 00 00    	je     4067f9 <_ZN5caffe5LayerIfE15CheckBlobCountsERKSt6vectorIPNS_4BlobIfEESaIS5_EES9_+0x285>
  4066ef:	48 8b 45 80          	mov    -0x80(%rbp),%rax
  4066f3:	48 89 c7             	mov    %rax,%rdi
  4066f6:	e8 d7 09 00 00       	callq  4070d2 <_ZNKSt6vectorIPN5caffe4BlobIfEESaIS3_EE4sizeEv>
  4066fb:	48 89 c7             	mov    %rax,%rdi
  4066fe:	e8 e3 df ff ff       	callq  4046e6 <_ZN6google21GetReferenceableValueEm>
  406703:	48 89 45 d0          	mov    %rax,-0x30(%rbp)
  406707:	48 8b 45 88          	mov    -0x78(%rbp),%rax
  40670b:	48 8b 00             	mov    (%rax),%rax
  40670e:	48 83 c0 38          	add    $0x38,%rax
  406712:	48 8b 00             	mov    (%rax),%rax
  406715:	48 8b 55 88          	mov    -0x78(%rbp),%rdx
  406719:	48 89 d7             	mov    %rdx,%rdi
  40671c:	ff d0                	callq  *%rax
  40671e:	89 c7                	mov    %eax,%edi
  406720:	e8 b5 df ff ff       	callq  4046da <_ZN6google21GetReferenceableValueEi>
  406725:	89 45 90             	mov    %eax,-0x70(%rbp)
  406728:	48 8d 4d d0          	lea    -0x30(%rbp),%rcx
  40672c:	48 8d 45 90          	lea    -0x70(%rbp),%rax
  406730:	ba 70 b1 40 00       	mov    $0x40b170,%edx
  406735:	48 89 ce             	mov    %rcx,%rsi
  406738:	48 89 c7             	mov    %rax,%rdi
  40673b:	e8 a5 11 00 00       	callq  4078e5 <_ZN6google12Check_LEImplIimEEPNSt7__cxx1112basic_stringIcSt11char_traitsIcESaIcEEERKT_RKT0_PKc>
  406740:	48 89 45 a0          	mov    %rax,-0x60(%rbp)
  406744:	48 83 7d a0 00       	cmpq   $0x0,-0x60(%rbp)
  406749:	0f 84 aa 00 00 00    	je     4067f9 <_ZN5caffe5LayerIfE15CheckBlobCountsERKSt6vectorIPNS_4BlobIfEESaIS5_EES9_+0x285>
  40674f:	48 8b 45 88          	mov    -0x78(%rbp),%rax
  406753:	48 8b 00             	mov    (%rax),%rax
  406756:	48 83 c0 38          	add    $0x38,%rax
  40675a:	48 8b 00             	mov    (%rax),%rax
  40675d:	48 8b 55 88          	mov    -0x78(%rbp),%rdx
  406761:	48 89 d7             	mov    %rdx,%rdi
  406764:	ff d0                	callq  *%rax
  406766:	89 c3                	mov    %eax,%ebx
  406768:	48 8b 45 88          	mov    -0x78(%rbp),%rax
  40676c:	48 8b 00             	mov    (%rax),%rax
  40676f:	48 83 c0 28          	add    $0x28,%rax
  406773:	48 8b 00             	mov    (%rax),%rax
  406776:	48 8b 55 88          	mov    -0x78(%rbp),%rdx
  40677a:	48 89 d7             	mov    %rdx,%rdi
  40677d:	ff d0                	callq  *%rax
  40677f:	49 89 c4             	mov    %rax,%r12
  406782:	48 8b 55 a0          	mov    -0x60(%rbp),%rdx
  406786:	48 8d 45 90          	lea    -0x70(%rbp),%rax
  40678a:	48 89 d6             	mov    %rdx,%rsi
  40678d:	48 89 c7             	mov    %rax,%rdi
  406790:	e8 2b df ff ff       	callq  4046c0 <_ZN6google13CheckOpStringC1EPNSt7__cxx1112basic_stringIcSt11char_traitsIcESaIcEEE>
  406795:	48 8d 55 90          	lea    -0x70(%rbp),%rdx
  406799:	48 8d 45 d0          	lea    -0x30(%rbp),%rax
  40679d:	48 89 d1             	mov    %rdx,%rcx
  4067a0:	ba 62 01 00 00       	mov    $0x162,%edx
  4067a5:	be 48 af 40 00       	mov    $0x40af48,%esi
  4067aa:	48 89 c7             	mov    %rax,%rdi
  4067ad:	e8 2e d8 ff ff       	callq  403fe0 <_ZN6google15LogMessageFatalC1EPKciRKNS_13CheckOpStringE@plt>
  4067b2:	48 8d 45 d0          	lea    -0x30(%rbp),%rax
  4067b6:	48 89 c7             	mov    %rax,%rdi
  4067b9:	e8 a2 d9 ff ff       	callq  404160 <_ZN6google10LogMessage6streamEv@plt>
  4067be:	4c 89 e6             	mov    %r12,%rsi
  4067c1:	48 89 c7             	mov    %rax,%rdi
  4067c4:	e8 b7 d7 ff ff       	callq  403f80 <_ZStlsISt11char_traitsIcEERSt13basic_ostreamIcT_ES5_PKc@plt>
  4067c9:	be 92 b1 40 00       	mov    $0x40b192,%esi
  4067ce:	48 89 c7             	mov    %rax,%rdi
  4067d1:	e8 aa d7 ff ff       	callq  403f80 <_ZStlsISt11char_traitsIcEERSt13basic_ostreamIcT_ES5_PKc@plt>
  4067d6:	89 de                	mov    %ebx,%esi
  4067d8:	48 89 c7             	mov    %rax,%rdi
  4067db:	e8 f0 d6 ff ff       	callq  403ed0 <_ZNSolsEi@plt>
  4067e0:	be 55 b1 40 00       	mov    $0x40b155,%esi
  4067e5:	48 89 c7             	mov    %rax,%rdi
  4067e8:	e8 93 d7 ff ff       	callq  403f80 <_ZStlsISt11char_traitsIcEERSt13basic_ostreamIcT_ES5_PKc@plt>
  4067ed:	48 8d 45 d0          	lea    -0x30(%rbp),%rax
  4067f1:	48 89 c7             	mov    %rax,%rdi
  4067f4:	e8 e7 d8 ff ff       	callq  4040e0 <_ZN6google15LogMessageFatalD1Ev@plt>
  4067f9:	48 8b 45 88          	mov    -0x78(%rbp),%rax
  4067fd:	48 8b 00             	mov    (%rax),%rax
  406800:	48 83 c0 40          	add    $0x40,%rax
  406804:	48 8b 00             	mov    (%rax),%rax
  406807:	48 8b 55 88          	mov    -0x78(%rbp),%rdx
  40680b:	48 89 d7             	mov    %rdx,%rdi
  40680e:	ff d0                	callq  *%rax
  406810:	f7 d0                	not    %eax
  406812:	c1 e8 1f             	shr    $0x1f,%eax
  406815:	84 c0                	test   %al,%al
  406817:	0f 84 0a 01 00 00    	je     406927 <_ZN5caffe5LayerIfE15CheckBlobCountsERKSt6vectorIPNS_4BlobIfEESaIS5_EES9_+0x3b3>
  40681d:	48 8b 45 80          	mov    -0x80(%rbp),%rax
  406821:	48 89 c7             	mov    %rax,%rdi
  406824:	e8 a9 08 00 00       	callq  4070d2 <_ZNKSt6vectorIPN5caffe4BlobIfEESaIS3_EE4sizeEv>
  406829:	48 89 c7             	mov    %rax,%rdi
  40682c:	e8 b5 de ff ff       	callq  4046e6 <_ZN6google21GetReferenceableValueEm>
  406831:	48 89 45 d0          	mov    %rax,-0x30(%rbp)
  406835:	48 8b 45 88          	mov    -0x78(%rbp),%rax
  406839:	48 8b 00             	mov    (%rax),%rax
  40683c:	48 83 c0 40          	add    $0x40,%rax
  406840:	48 8b 00             	mov    (%rax),%rax
  406843:	48 8b 55 88          	mov    -0x78(%rbp),%rdx
  406847:	48 89 d7             	mov    %rdx,%rdi
  40684a:	ff d0                	callq  *%rax
  40684c:	89 c7                	mov    %eax,%edi
  40684e:	e8 87 de ff ff       	callq  4046da <_ZN6google21GetReferenceableValueEi>
  406853:	89 45 90             	mov    %eax,-0x70(%rbp)
  406856:	48 8d 4d d0          	lea    -0x30(%rbp),%rcx
  40685a:	48 8d 45 90          	lea    -0x70(%rbp),%rax
  40685e:	ba b0 b1 40 00       	mov    $0x40b1b0,%edx
  406863:	48 89 ce             	mov    %rcx,%rsi
  406866:	48 89 c7             	mov    %rax,%rdi
  406869:	e8 d9 10 00 00       	callq  407947 <_ZN6google12Check_GEImplIimEEPNSt7__cxx1112basic_stringIcSt11char_traitsIcESaIcEEERKT_RKT0_PKc>
  40686e:	48 89 45 a8          	mov    %rax,-0x58(%rbp)
  406872:	48 83 7d a8 00       	cmpq   $0x0,-0x58(%rbp)
  406877:	0f 84 aa 00 00 00    	je     406927 <_ZN5caffe5LayerIfE15CheckBlobCountsERKSt6vectorIPNS_4BlobIfEESaIS5_EES9_+0x3b3>
  40687d:	48 8b 45 88          	mov    -0x78(%rbp),%rax
  406881:	48 8b 00             	mov    (%rax),%rax
  406884:	48 83 c0 40          	add    $0x40,%rax
  406888:	48 8b 00             	mov    (%rax),%rax
  40688b:	48 8b 55 88          	mov    -0x78(%rbp),%rdx
  40688f:	48 89 d7             	mov    %rdx,%rdi
  406892:	ff d0                	callq  *%rax
  406894:	89 c3                	mov    %eax,%ebx
  406896:	48 8b 45 88          	mov    -0x78(%rbp),%rax
  40689a:	48 8b 00             	mov    (%rax),%rax
  40689d:	48 83 c0 28          	add    $0x28,%rax
  4068a1:	48 8b 00             	mov    (%rax),%rax
  4068a4:	48 8b 55 88          	mov    -0x78(%rbp),%rdx
  4068a8:	48 89 d7             	mov    %rdx,%rdi
  4068ab:	ff d0                	callq  *%rax
  4068ad:	49 89 c4             	mov    %rax,%r12
  4068b0:	48 8b 55 a8          	mov    -0x58(%rbp),%rdx
  4068b4:	48 8d 45 90          	lea    -0x70(%rbp),%rax
  4068b8:	48 89 d6             	mov    %rdx,%rsi
  4068bb:	48 89 c7             	mov    %rax,%rdi
  4068be:	e8 fd dd ff ff       	callq  4046c0 <_ZN6google13CheckOpStringC1EPNSt7__cxx1112basic_stringIcSt11char_traitsIcESaIcEEE>
  4068c3:	48 8d 55 90          	lea    -0x70(%rbp),%rdx
  4068c7:	48 8d 45 d0          	lea    -0x30(%rbp),%rax
  4068cb:	48 89 d1             	mov    %rdx,%rcx
  4068ce:	ba 67 01 00 00       	mov    $0x167,%edx
  4068d3:	be 48 af 40 00       	mov    $0x40af48,%esi
  4068d8:	48 89 c7             	mov    %rax,%rdi
  4068db:	e8 00 d7 ff ff       	callq  403fe0 <_ZN6google15LogMessageFatalC1EPKciRKNS_13CheckOpStringE@plt>
  4068e0:	48 8d 45 d0          	lea    -0x30(%rbp),%rax
  4068e4:	48 89 c7             	mov    %rax,%rdi
  4068e7:	e8 74 d8 ff ff       	callq  404160 <_ZN6google10LogMessage6streamEv@plt>
  4068ec:	4c 89 e6             	mov    %r12,%rsi
  4068ef:	48 89 c7             	mov    %rax,%rdi
  4068f2:	e8 89 d6 ff ff       	callq  403f80 <_ZStlsISt11char_traitsIcEERSt13basic_ostreamIcT_ES5_PKc@plt>
  4068f7:	be d2 b1 40 00       	mov    $0x40b1d2,%esi
  4068fc:	48 89 c7             	mov    %rax,%rdi
  4068ff:	e8 7c d6 ff ff       	callq  403f80 <_ZStlsISt11char_traitsIcEERSt13basic_ostreamIcT_ES5_PKc@plt>
  406904:	89 de                	mov    %ebx,%esi
  406906:	48 89 c7             	mov    %rax,%rdi
  406909:	e8 c2 d5 ff ff       	callq  403ed0 <_ZNSolsEi@plt>
  40690e:	be 55 b1 40 00       	mov    $0x40b155,%esi
  406913:	48 89 c7             	mov    %rax,%rdi
  406916:	e8 65 d6 ff ff       	callq  403f80 <_ZStlsISt11char_traitsIcEERSt13basic_ostreamIcT_ES5_PKc@plt>
  40691b:	48 8d 45 d0          	lea    -0x30(%rbp),%rax
  40691f:	48 89 c7             	mov    %rax,%rdi
  406922:	e8 b9 d7 ff ff       	callq  4040e0 <_ZN6google15LogMessageFatalD1Ev@plt>
  406927:	48 8b 45 88          	mov    -0x78(%rbp),%rax
  40692b:	48 8b 00             	mov    (%rax),%rax
  40692e:	48 83 c0 48          	add    $0x48,%rax
  406932:	48 8b 00             	mov    (%rax),%rax
  406935:	48 8b 55 88          	mov    -0x78(%rbp),%rdx
  406939:	48 89 d7             	mov    %rdx,%rdi
  40693c:	ff d0                	callq  *%rax
  40693e:	f7 d0                	not    %eax
  406940:	c1 e8 1f             	shr    $0x1f,%eax
  406943:	84 c0                	test   %al,%al
  406945:	0f 84 0d 01 00 00    	je     406a58 <_ZN5caffe5LayerIfE15CheckBlobCountsERKSt6vectorIPNS_4BlobIfEESaIS5_EES9_+0x4e4>
  40694b:	48 8b 85 78 ff ff ff 	mov    -0x88(%rbp),%rax
  406952:	48 89 c7             	mov    %rax,%rdi
  406955:	e8 78 07 00 00       	callq  4070d2 <_ZNKSt6vectorIPN5caffe4BlobIfEESaIS3_EE4sizeEv>
  40695a:	48 89 c7             	mov    %rax,%rdi
  40695d:	e8 84 dd ff ff       	callq  4046e6 <_ZN6google21GetReferenceableValueEm>
  406962:	48 89 45 d0          	mov    %rax,-0x30(%rbp)
  406966:	48 8b 45 88          	mov    -0x78(%rbp),%rax
  40696a:	48 8b 00             	mov    (%rax),%rax
  40696d:	48 83 c0 48          	add    $0x48,%rax
  406971:	48 8b 00             	mov    (%rax),%rax
  406974:	48 8b 55 88          	mov    -0x78(%rbp),%rdx
  406978:	48 89 d7             	mov    %rdx,%rdi
  40697b:	ff d0                	callq  *%rax
  40697d:	89 c7                	mov    %eax,%edi
  40697f:	e8 56 dd ff ff       	callq  4046da <_ZN6google21GetReferenceableValueEi>
  406984:	89 45 90             	mov    %eax,-0x70(%rbp)
  406987:	48 8d 4d d0          	lea    -0x30(%rbp),%rcx
  40698b:	48 8d 45 90          	lea    -0x70(%rbp),%rax
  40698f:	ba e8 b1 40 00       	mov    $0x40b1e8,%edx
  406994:	48 89 ce             	mov    %rcx,%rsi
  406997:	48 89 c7             	mov    %rax,%rdi
  40699a:	e8 d4 0e 00 00       	callq  407873 <_ZN6google12Check_EQImplIimEEPNSt7__cxx1112basic_stringIcSt11char_traitsIcESaIcEEERKT_RKT0_PKc>
  40699f:	48 89 45 b0          	mov    %rax,-0x50(%rbp)
  4069a3:	48 83 7d b0 00       	cmpq   $0x0,-0x50(%rbp)
  4069a8:	0f 84 aa 00 00 00    	je     406a58 <_ZN5caffe5LayerIfE15CheckBlobCountsERKSt6vectorIPNS_4BlobIfEESaIS5_EES9_+0x4e4>
  4069ae:	48 8b 45 88          	mov    -0x78(%rbp),%rax
  4069b2:	48 8b 00             	mov    (%rax),%rax
  4069b5:	48 83 c0 48          	add    $0x48,%rax
  4069b9:	48 8b 00             	mov    (%rax),%rax
  4069bc:	48 8b 55 88          	mov    -0x78(%rbp),%rdx
  4069c0:	48 89 d7             	mov    %rdx,%rdi
  4069c3:	ff d0                	callq  *%rax
  4069c5:	89 c3                	mov    %eax,%ebx
  4069c7:	48 8b 45 88          	mov    -0x78(%rbp),%rax
  4069cb:	48 8b 00             	mov    (%rax),%rax
  4069ce:	48 83 c0 28          	add    $0x28,%rax
  4069d2:	48 8b 00             	mov    (%rax),%rax
  4069d5:	48 8b 55 88          	mov    -0x78(%rbp),%rdx
  4069d9:	48 89 d7             	mov    %rdx,%rdi
  4069dc:	ff d0                	callq  *%rax
  4069de:	49 89 c4             	mov    %rax,%r12
  4069e1:	48 8b 55 b0          	mov    -0x50(%rbp),%rdx
  4069e5:	48 8d 45 90          	lea    -0x70(%rbp),%rax
  4069e9:	48 89 d6             	mov    %rdx,%rsi
  4069ec:	48 89 c7             	mov    %rax,%rdi
  4069ef:	e8 cc dc ff ff       	callq  4046c0 <_ZN6google13CheckOpStringC1EPNSt7__cxx1112basic_stringIcSt11char_traitsIcESaIcEEE>
  4069f4:	48 8d 55 90          	lea    -0x70(%rbp),%rdx
  4069f8:	48 8d 45 d0          	lea    -0x30(%rbp),%rax
  4069fc:	48 89 d1             	mov    %rdx,%rcx
  4069ff:	ba 6c 01 00 00       	mov    $0x16c,%edx
  406a04:	be 48 af 40 00       	mov    $0x40af48,%esi
  406a09:	48 89 c7             	mov    %rax,%rdi
  406a0c:	e8 cf d5 ff ff       	callq  403fe0 <_ZN6google15LogMessageFatalC1EPKciRKNS_13CheckOpStringE@plt>
  406a11:	48 8d 45 d0          	lea    -0x30(%rbp),%rax
  406a15:	48 89 c7             	mov    %rax,%rdi
  406a18:	e8 43 d7 ff ff       	callq  404160 <_ZN6google10LogMessage6streamEv@plt>
  406a1d:	4c 89 e6             	mov    %r12,%rsi
  406a20:	48 89 c7             	mov    %rax,%rdi
  406a23:	e8 58 d5 ff ff       	callq  403f80 <_ZStlsISt11char_traitsIcEERSt13basic_ostreamIcT_ES5_PKc@plt>
  406a28:	be 09 b2 40 00       	mov    $0x40b209,%esi
  406a2d:	48 89 c7             	mov    %rax,%rdi
  406a30:	e8 4b d5 ff ff       	callq  403f80 <_ZStlsISt11char_traitsIcEERSt13basic_ostreamIcT_ES5_PKc@plt>
  406a35:	89 de                	mov    %ebx,%esi
  406a37:	48 89 c7             	mov    %rax,%rdi
  406a3a:	e8 91 d4 ff ff       	callq  403ed0 <_ZNSolsEi@plt>
  406a3f:	be 1a b2 40 00       	mov    $0x40b21a,%esi
  406a44:	48 89 c7             	mov    %rax,%rdi
  406a47:	e8 34 d5 ff ff       	callq  403f80 <_ZStlsISt11char_traitsIcEERSt13basic_ostreamIcT_ES5_PKc@plt>
  406a4c:	48 8d 45 d0          	lea    -0x30(%rbp),%rax
  406a50:	48 89 c7             	mov    %rax,%rdi
  406a53:	e8 88 d6 ff ff       	callq  4040e0 <_ZN6google15LogMessageFatalD1Ev@plt>
  406a58:	48 8b 45 88          	mov    -0x78(%rbp),%rax
  406a5c:	48 8b 00             	mov    (%rax),%rax
  406a5f:	48 83 c0 50          	add    $0x50,%rax
  406a63:	48 8b 00             	mov    (%rax),%rax
  406a66:	48 8b 55 88          	mov    -0x78(%rbp),%rdx
  406a6a:	48 89 d7             	mov    %rdx,%rdi
  406a6d:	ff d0                	callq  *%rax
  406a6f:	f7 d0                	not    %eax
  406a71:	c1 e8 1f             	shr    $0x1f,%eax
  406a74:	84 c0                	test   %al,%al
  406a76:	0f 84 0d 01 00 00    	je     406b89 <_ZN5caffe5LayerIfE15CheckBlobCountsERKSt6vectorIPNS_4BlobIfEESaIS5_EES9_+0x615>
  406a7c:	48 8b 85 78 ff ff ff 	mov    -0x88(%rbp),%rax
  406a83:	48 89 c7             	mov    %rax,%rdi
  406a86:	e8 47 06 00 00       	callq  4070d2 <_ZNKSt6vectorIPN5caffe4BlobIfEESaIS3_EE4sizeEv>
  406a8b:	48 89 c7             	mov    %rax,%rdi
  406a8e:	e8 53 dc ff ff       	callq  4046e6 <_ZN6google21GetReferenceableValueEm>
  406a93:	48 89 45 d0          	mov    %rax,-0x30(%rbp)
  406a97:	48 8b 45 88          	mov    -0x78(%rbp),%rax
  406a9b:	48 8b 00             	mov    (%rax),%rax
  406a9e:	48 83 c0 50          	add    $0x50,%rax
  406aa2:	48 8b 00             	mov    (%rax),%rax
  406aa5:	48 8b 55 88          	mov    -0x78(%rbp),%rdx
  406aa9:	48 89 d7             	mov    %rdx,%rdi
  406aac:	ff d0                	callq  *%rax
  406aae:	89 c7                	mov    %eax,%edi
  406ab0:	e8 25 dc ff ff       	callq  4046da <_ZN6google21GetReferenceableValueEi>
  406ab5:	89 45 90             	mov    %eax,-0x70(%rbp)
  406ab8:	48 8d 4d d0          	lea    -0x30(%rbp),%rcx
  406abc:	48 8d 45 90          	lea    -0x70(%rbp),%rax
  406ac0:	ba 32 b2 40 00       	mov    $0x40b232,%edx
  406ac5:	48 89 ce             	mov    %rcx,%rsi
  406ac8:	48 89 c7             	mov    %rax,%rdi
  406acb:	e8 15 0e 00 00       	callq  4078e5 <_ZN6google12Check_LEImplIimEEPNSt7__cxx1112basic_stringIcSt11char_traitsIcESaIcEEERKT_RKT0_PKc>
  406ad0:	48 89 45 b8          	mov    %rax,-0x48(%rbp)
  406ad4:	48 83 7d b8 00       	cmpq   $0x0,-0x48(%rbp)
  406ad9:	0f 84 aa 00 00 00    	je     406b89 <_ZN5caffe5LayerIfE15CheckBlobCountsERKSt6vectorIPNS_4BlobIfEESaIS5_EES9_+0x615>
  406adf:	48 8b 45 88          	mov    -0x78(%rbp),%rax
  406ae3:	48 8b 00             	mov    (%rax),%rax
  406ae6:	48 83 c0 50          	add    $0x50,%rax
  406aea:	48 8b 00             	mov    (%rax),%rax
  406aed:	48 8b 55 88          	mov    -0x78(%rbp),%rdx
  406af1:	48 89 d7             	mov    %rdx,%rdi
  406af4:	ff d0                	callq  *%rax
  406af6:	89 c3                	mov    %eax,%ebx
  406af8:	48 8b 45 88          	mov    -0x78(%rbp),%rax
  406afc:	48 8b 00             	mov    (%rax),%rax
  406aff:	48 83 c0 28          	add    $0x28,%rax
  406b03:	48 8b 00             	mov    (%rax),%rax
  406b06:	48 8b 55 88          	mov    -0x78(%rbp),%rdx
  406b0a:	48 89 d7             	mov    %rdx,%rdi
  406b0d:	ff d0                	callq  *%rax
  406b0f:	49 89 c4             	mov    %rax,%r12
  406b12:	48 8b 55 b8          	mov    -0x48(%rbp),%rdx
  406b16:	48 8d 45 90          	lea    -0x70(%rbp),%rax
  406b1a:	48 89 d6             	mov    %rdx,%rsi
  406b1d:	48 89 c7             	mov    %rax,%rdi
  406b20:	e8 9b db ff ff       	callq  4046c0 <_ZN6google13CheckOpStringC1EPNSt7__cxx1112basic_stringIcSt11char_traitsIcESaIcEEE>
  406b25:	48 8d 55 90          	lea    -0x70(%rbp),%rdx
  406b29:	48 8d 45 d0          	lea    -0x30(%rbp),%rax
  406b2d:	48 89 d1             	mov    %rdx,%rcx
  406b30:	ba 71 01 00 00       	mov    $0x171,%edx
  406b35:	be 48 af 40 00       	mov    $0x40af48,%esi
  406b3a:	48 89 c7             	mov    %rax,%rdi
  406b3d:	e8 9e d4 ff ff       	callq  403fe0 <_ZN6google15LogMessageFatalC1EPKciRKNS_13CheckOpStringE@plt>
  406b42:	48 8d 45 d0          	lea    -0x30(%rbp),%rax
  406b46:	48 89 c7             	mov    %rax,%rdi
  406b49:	e8 12 d6 ff ff       	callq  404160 <_ZN6google10LogMessage6streamEv@plt>
  406b4e:	4c 89 e6             	mov    %r12,%rsi
  406b51:	48 89 c7             	mov    %rax,%rdi
  406b54:	e8 27 d4 ff ff       	callq  403f80 <_ZStlsISt11char_traitsIcEERSt13basic_ostreamIcT_ES5_PKc@plt>
  406b59:	be 4e b2 40 00       	mov    $0x40b24e,%esi
  406b5e:	48 89 c7             	mov    %rax,%rdi
  406b61:	e8 1a d4 ff ff       	callq  403f80 <_ZStlsISt11char_traitsIcEERSt13basic_ostreamIcT_ES5_PKc@plt>
  406b66:	89 de                	mov    %ebx,%esi
  406b68:	48 89 c7             	mov    %rax,%rdi
  406b6b:	e8 60 d3 ff ff       	callq  403ed0 <_ZNSolsEi@plt>
  406b70:	be 1a b2 40 00       	mov    $0x40b21a,%esi
  406b75:	48 89 c7             	mov    %rax,%rdi
  406b78:	e8 03 d4 ff ff       	callq  403f80 <_ZStlsISt11char_traitsIcEERSt13basic_ostreamIcT_ES5_PKc@plt>
  406b7d:	48 8d 45 d0          	lea    -0x30(%rbp),%rax
  406b81:	48 89 c7             	mov    %rax,%rdi
  406b84:	e8 57 d5 ff ff       	callq  4040e0 <_ZN6google15LogMessageFatalD1Ev@plt>
  406b89:	48 8b 45 88          	mov    -0x78(%rbp),%rax
  406b8d:	48 8b 00             	mov    (%rax),%rax
  406b90:	48 83 c0 58          	add    $0x58,%rax
  406b94:	48 8b 00             	mov    (%rax),%rax
  406b97:	48 8b 55 88          	mov    -0x78(%rbp),%rdx
  406b9b:	48 89 d7             	mov    %rdx,%rdi
  406b9e:	ff d0                	callq  *%rax
  406ba0:	f7 d0                	not    %eax
  406ba2:	c1 e8 1f             	shr    $0x1f,%eax
  406ba5:	84 c0                	test   %al,%al
  406ba7:	0f 84 0d 01 00 00    	je     406cba <_ZN5caffe5LayerIfE15CheckBlobCountsERKSt6vectorIPNS_4BlobIfEESaIS5_EES9_+0x746>
  406bad:	48 8b 85 78 ff ff ff 	mov    -0x88(%rbp),%rax
  406bb4:	48 89 c7             	mov    %rax,%rdi
  406bb7:	e8 16 05 00 00       	callq  4070d2 <_ZNKSt6vectorIPN5caffe4BlobIfEESaIS3_EE4sizeEv>
  406bbc:	48 89 c7             	mov    %rax,%rdi
  406bbf:	e8 22 db ff ff       	callq  4046e6 <_ZN6google21GetReferenceableValueEm>
  406bc4:	48 89 45 d0          	mov    %rax,-0x30(%rbp)
  406bc8:	48 8b 45 88          	mov    -0x78(%rbp),%rax
  406bcc:	48 8b 00             	mov    (%rax),%rax
  406bcf:	48 83 c0 58          	add    $0x58,%rax
  406bd3:	48 8b 00             	mov    (%rax),%rax
  406bd6:	48 8b 55 88          	mov    -0x78(%rbp),%rdx
  406bda:	48 89 d7             	mov    %rdx,%rdi
  406bdd:	ff d0                	callq  *%rax
  406bdf:	89 c7                	mov    %eax,%edi
  406be1:	e8 f4 da ff ff       	callq  4046da <_ZN6google21GetReferenceableValueEi>
  406be6:	89 45 90             	mov    %eax,-0x70(%rbp)
  406be9:	48 8d 4d d0          	lea    -0x30(%rbp),%rcx
  406bed:	48 8d 45 90          	lea    -0x70(%rbp),%rax
  406bf1:	ba 68 b2 40 00       	mov    $0x40b268,%edx
  406bf6:	48 89 ce             	mov    %rcx,%rsi
  406bf9:	48 89 c7             	mov    %rax,%rdi
  406bfc:	e8 46 0d 00 00       	callq  407947 <_ZN6google12Check_GEImplIimEEPNSt7__cxx1112basic_stringIcSt11char_traitsIcESaIcEEERKT_RKT0_PKc>
  406c01:	48 89 45 c0          	mov    %rax,-0x40(%rbp)
  406c05:	48 83 7d c0 00       	cmpq   $0x0,-0x40(%rbp)
  406c0a:	0f 84 aa 00 00 00    	je     406cba <_ZN5caffe5LayerIfE15CheckBlobCountsERKSt6vectorIPNS_4BlobIfEESaIS5_EES9_+0x746>
  406c10:	48 8b 45 88          	mov    -0x78(%rbp),%rax
  406c14:	48 8b 00             	mov    (%rax),%rax
  406c17:	48 83 c0 58          	add    $0x58,%rax
  406c1b:	48 8b 00             	mov    (%rax),%rax
  406c1e:	48 8b 55 88          	mov    -0x78(%rbp),%rdx
  406c22:	48 89 d7             	mov    %rdx,%rdi
  406c25:	ff d0                	callq  *%rax
  406c27:	89 c3                	mov    %eax,%ebx
  406c29:	48 8b 45 88          	mov    -0x78(%rbp),%rax
  406c2d:	48 8b 00             	mov    (%rax),%rax
  406c30:	48 83 c0 28          	add    $0x28,%rax
  406c34:	48 8b 00             	mov    (%rax),%rax
  406c37:	48 8b 55 88          	mov    -0x78(%rbp),%rdx
  406c3b:	48 89 d7             	mov    %rdx,%rdi
  406c3e:	ff d0                	callq  *%rax
  406c40:	49 89 c4             	mov    %rax,%r12
  406c43:	48 8b 55 c0          	mov    -0x40(%rbp),%rdx
  406c47:	48 8d 45 90          	lea    -0x70(%rbp),%rax
  406c4b:	48 89 d6             	mov    %rdx,%rsi
  406c4e:	48 89 c7             	mov    %rax,%rdi
  406c51:	e8 6a da ff ff       	callq  4046c0 <_ZN6google13CheckOpStringC1EPNSt7__cxx1112basic_stringIcSt11char_traitsIcESaIcEEE>
  406c56:	48 8d 55 90          	lea    -0x70(%rbp),%rdx
  406c5a:	48 8d 45 d0          	lea    -0x30(%rbp),%rax
  406c5e:	48 89 d1             	mov    %rdx,%rcx
  406c61:	ba 76 01 00 00       	mov    $0x176,%edx
  406c66:	be 48 af 40 00       	mov    $0x40af48,%esi
  406c6b:	48 89 c7             	mov    %rax,%rdi
  406c6e:	e8 6d d3 ff ff       	callq  403fe0 <_ZN6google15LogMessageFatalC1EPKciRKNS_13CheckOpStringE@plt>
  406c73:	48 8d 45 d0          	lea    -0x30(%rbp),%rax
  406c77:	48 89 c7             	mov    %rax,%rdi
  406c7a:	e8 e1 d4 ff ff       	callq  404160 <_ZN6google10LogMessage6streamEv@plt>
  406c7f:	4c 89 e6             	mov    %r12,%rsi
  406c82:	48 89 c7             	mov    %rax,%rdi
  406c85:	e8 f6 d2 ff ff       	callq  403f80 <_ZStlsISt11char_traitsIcEERSt13basic_ostreamIcT_ES5_PKc@plt>
  406c8a:	be 84 b2 40 00       	mov    $0x40b284,%esi
  406c8f:	48 89 c7             	mov    %rax,%rdi
  406c92:	e8 e9 d2 ff ff       	callq  403f80 <_ZStlsISt11char_traitsIcEERSt13basic_ostreamIcT_ES5_PKc@plt>
  406c97:	89 de                	mov    %ebx,%esi
  406c99:	48 89 c7             	mov    %rax,%rdi
  406c9c:	e8 2f d2 ff ff       	callq  403ed0 <_ZNSolsEi@plt>
  406ca1:	be 1a b2 40 00       	mov    $0x40b21a,%esi
  406ca6:	48 89 c7             	mov    %rax,%rdi
  406ca9:	e8 d2 d2 ff ff       	callq  403f80 <_ZStlsISt11char_traitsIcEERSt13basic_ostreamIcT_ES5_PKc@plt>
  406cae:	48 8d 45 d0          	lea    -0x30(%rbp),%rax
  406cb2:	48 89 c7             	mov    %rax,%rdi
  406cb5:	e8 26 d4 ff ff       	callq  4040e0 <_ZN6google15LogMessageFatalD1Ev@plt>
  406cba:	48 8b 45 88          	mov    -0x78(%rbp),%rax
  406cbe:	48 8b 00             	mov    (%rax),%rax
  406cc1:	48 83 c0 60          	add    $0x60,%rax
  406cc5:	48 8b 00             	mov    (%rax),%rax
  406cc8:	48 8b 55 88          	mov    -0x78(%rbp),%rdx
  406ccc:	48 89 d7             	mov    %rdx,%rdi
  406ccf:	ff d0                	callq  *%rax
  406cd1:	84 c0                	test   %al,%al
  406cd3:	0f 84 35 01 00 00    	je     406e0e <_ZN5caffe5LayerIfE15CheckBlobCountsERKSt6vectorIPNS_4BlobIfEESaIS5_EES9_+0x89a>
  406cd9:	48 8b 85 78 ff ff ff 	mov    -0x88(%rbp),%rax
  406ce0:	48 89 c7             	mov    %rax,%rdi
  406ce3:	e8 ea 03 00 00       	callq  4070d2 <_ZNKSt6vectorIPN5caffe4BlobIfEESaIS3_EE4sizeEv>
  406ce8:	48 89 c7             	mov    %rax,%rdi
  406ceb:	e8 f6 d9 ff ff       	callq  4046e6 <_ZN6google21GetReferenceableValueEm>
  406cf0:	48 89 45 d0          	mov    %rax,-0x30(%rbp)
  406cf4:	48 8b 45 80          	mov    -0x80(%rbp),%rax
  406cf8:	48 89 c7             	mov    %rax,%rdi
  406cfb:	e8 d2 03 00 00       	callq  4070d2 <_ZNKSt6vectorIPN5caffe4BlobIfEESaIS3_EE4sizeEv>
  406d00:	48 89 c7             	mov    %rax,%rdi
  406d03:	e8 de d9 ff ff       	callq  4046e6 <_ZN6google21GetReferenceableValueEm>
  406d08:	48 89 45 90          	mov    %rax,-0x70(%rbp)
  406d0c:	48 8d 4d d0          	lea    -0x30(%rbp),%rcx
  406d10:	48 8d 45 90          	lea    -0x70(%rbp),%rax
  406d14:	ba 9d b2 40 00       	mov    $0x40b29d,%edx
  406d19:	48 89 ce             	mov    %rcx,%rsi
  406d1c:	48 89 c7             	mov    %rax,%rdi
  406d1f:	e8 b5 0c 00 00       	callq  4079d9 <_ZN6google12Check_EQImplImmEEPNSt7__cxx1112basic_stringIcSt11char_traitsIcESaIcEEERKT_RKT0_PKc>
  406d24:	48 89 45 c8          	mov    %rax,-0x38(%rbp)
  406d28:	48 83 7d c8 00       	cmpq   $0x0,-0x38(%rbp)
  406d2d:	0f 84 db 00 00 00    	je     406e0e <_ZN5caffe5LayerIfE15CheckBlobCountsERKSt6vectorIPNS_4BlobIfEESaIS5_EES9_+0x89a>
  406d33:	48 8b 45 88          	mov    -0x78(%rbp),%rax
  406d37:	48 8b 00             	mov    (%rax),%rax
  406d3a:	48 83 c0 28          	add    $0x28,%rax
  406d3e:	48 8b 00             	mov    (%rax),%rax
  406d41:	48 8b 55 88          	mov    -0x78(%rbp),%rdx
  406d45:	48 89 d7             	mov    %rdx,%rdi
  406d48:	ff d0                	callq  *%rax
  406d4a:	48 89 c3             	mov    %rax,%rbx
  406d4d:	48 8b 55 c8          	mov    -0x38(%rbp),%rdx
  406d51:	48 8d 45 90          	lea    -0x70(%rbp),%rax
  406d55:	48 89 d6             	mov    %rdx,%rsi
  406d58:	48 89 c7             	mov    %rax,%rdi
  406d5b:	e8 60 d9 ff ff       	callq  4046c0 <_ZN6google13CheckOpStringC1EPNSt7__cxx1112basic_stringIcSt11char_traitsIcESaIcEEE>
  406d60:	48 8d 55 90          	lea    -0x70(%rbp),%rdx
  406d64:	48 8d 45 d0          	lea    -0x30(%rbp),%rax
  406d68:	48 89 d1             	mov    %rdx,%rcx
  406d6b:	ba 7b 01 00 00       	mov    $0x17b,%edx
  406d70:	be 48 af 40 00       	mov    $0x40af48,%esi
  406d75:	48 89 c7             	mov    %rax,%rdi
  406d78:	e8 63 d2 ff ff       	callq  403fe0 <_ZN6google15LogMessageFatalC1EPKciRKNS_13CheckOpStringE@plt>
  406d7d:	48 8d 45 d0          	lea    -0x30(%rbp),%rax
  406d81:	48 89 c7             	mov    %rax,%rdi
  406d84:	e8 d7 d3 ff ff       	callq  404160 <_ZN6google10LogMessage6streamEv@plt>
  406d89:	48 89 de             	mov    %rbx,%rsi
  406d8c:	48 89 c7             	mov    %rax,%rdi
  406d8f:	e8 ec d1 ff ff       	callq  403f80 <_ZStlsISt11char_traitsIcEERSt13basic_ostreamIcT_ES5_PKc@plt>
  406d94:	be c0 b2 40 00       	mov    $0x40b2c0,%esi
  406d99:	48 89 c7             	mov    %rax,%rdi
  406d9c:	e8 df d1 ff ff       	callq  403f80 <_ZStlsISt11char_traitsIcEERSt13basic_ostreamIcT_ES5_PKc@plt>
  406da1:	be f1 b2 40 00       	mov    $0x40b2f1,%esi
  406da6:	48 89 c7             	mov    %rax,%rdi
  406da9:	e8 d2 d1 ff ff       	callq  403f80 <_ZStlsISt11char_traitsIcEERSt13basic_ostreamIcT_ES5_PKc@plt>
  406dae:	48 8d 45 d0          	lea    -0x30(%rbp),%rax
  406db2:	48 89 c7             	mov    %rax,%rdi
  406db5:	e8 26 d3 ff ff       	callq  4040e0 <_ZN6google15LogMessageFatalD1Ev@plt>
  406dba:	48 8d 45 d0          	lea    -0x30(%rbp),%rax
  406dbe:	48 89 c7             	mov    %rax,%rdi
  406dc1:	e8 1a d3 ff ff       	callq  4040e0 <_ZN6google15LogMessageFatalD1Ev@plt>
  406dc6:	48 8d 45 d0          	lea    -0x30(%rbp),%rax
  406dca:	48 89 c7             	mov    %rax,%rdi
  406dcd:	e8 0e d3 ff ff       	callq  4040e0 <_ZN6google15LogMessageFatalD1Ev@plt>
  406dd2:	48 8d 45 d0          	lea    -0x30(%rbp),%rax
  406dd6:	48 89 c7             	mov    %rax,%rdi
  406dd9:	e8 02 d3 ff ff       	callq  4040e0 <_ZN6google15LogMessageFatalD1Ev@plt>
  406dde:	48 8d 45 d0          	lea    -0x30(%rbp),%rax
  406de2:	48 89 c7             	mov    %rax,%rdi
  406de5:	e8 f6 d2 ff ff       	callq  4040e0 <_ZN6google15LogMessageFatalD1Ev@plt>
  406dea:	48 8d 45 d0          	lea    -0x30(%rbp),%rax
  406dee:	48 89 c7             	mov    %rax,%rdi
  406df1:	e8 ea d2 ff ff       	callq  4040e0 <_ZN6google15LogMessageFatalD1Ev@plt>
  406df6:	48 8d 45 d0          	lea    -0x30(%rbp),%rax
  406dfa:	48 89 c7             	mov    %rax,%rdi
  406dfd:	e8 de d2 ff ff       	callq  4040e0 <_ZN6google15LogMessageFatalD1Ev@plt>
  406e02:	48 8d 45 d0          	lea    -0x30(%rbp),%rax
  406e06:	48 89 c7             	mov    %rax,%rdi
  406e09:	e8 d2 d2 ff ff       	callq  4040e0 <_ZN6google15LogMessageFatalD1Ev@plt>
  406e0e:	90                   	nop
  406e0f:	48 8b 45 e8          	mov    -0x18(%rbp),%rax
  406e13:	64 48 33 04 25 28 00 	xor    %fs:0x28,%rax
  406e1a:	00 00 
  406e1c:	74 05                	je     406e23 <_ZN5caffe5LayerIfE15CheckBlobCountsERKSt6vectorIPNS_4BlobIfEESaIS5_EES9_+0x8af>
  406e1e:	e8 8d d0 ff ff       	callq  403eb0 <__stack_chk_fail@plt>
  406e23:	48 83 ec 80          	sub    $0xffffffffffffff80,%rsp
  406e27:	5b                   	pop    %rbx
  406e28:	41 5c                	pop    %r12
  406e2a:	5d                   	pop    %rbp
  406e2b:	c3                   	retq   

0000000000406e2c <_ZN5caffe5LayerIfE10LayerSetUpERKSt6vectorIPNS_4BlobIfEESaIS5_EES9_>:
  406e2c:	55                   	push   %rbp
  406e2d:	48 89 e5             	mov    %rsp,%rbp
  406e30:	48 89 7d f8          	mov    %rdi,-0x8(%rbp)
  406e34:	48 89 75 f0          	mov    %rsi,-0x10(%rbp)
  406e38:	48 89 55 e8          	mov    %rdx,-0x18(%rbp)
  406e3c:	90                   	nop
  406e3d:	5d                   	pop    %rbp
  406e3e:	c3                   	retq   
  406e3f:	90                   	nop

0000000000406e40 <_ZN5caffe5LayerIfE14SetLossWeightsERKSt6vectorIPNS_4BlobIfEESaIS5_EE>:
  406e40:	55                   	push   %rbp
  406e41:	48 89 e5             	mov    %rsp,%rbp
  406e44:	53                   	push   %rbx
  406e45:	48 83 ec 78          	sub    $0x78,%rsp
  406e49:	48 89 7d 98          	mov    %rdi,-0x68(%rbp)
  406e4d:	48 89 75 90          	mov    %rsi,-0x70(%rbp)
  406e51:	64 48 8b 04 25 28 00 	mov    %fs:0x28,%rax
  406e58:	00 00 
  406e5a:	48 89 45 e8          	mov    %rax,-0x18(%rbp)
  406e5e:	31 c0                	xor    %eax,%eax
  406e60:	48 8b 45 98          	mov    -0x68(%rbp),%rax
  406e64:	48 83 c0 08          	add    $0x8,%rax
  406e68:	48 89 c7             	mov    %rax,%rdi
  406e6b:	e8 02 d9 ff ff       	callq  404772 <_ZNK5caffe14LayerParameter16loss_weight_sizeEv>
  406e70:	89 45 ac             	mov    %eax,-0x54(%rbp)
  406e73:	83 7d ac 00          	cmpl   $0x0,-0x54(%rbp)
  406e77:	0f 84 8f 01 00 00    	je     40700c <_ZN5caffe5LayerIfE14SetLossWeightsERKSt6vectorIPNS_4BlobIfEESaIS5_EE+0x1cc>
  406e7d:	8b 45 ac             	mov    -0x54(%rbp),%eax
  406e80:	89 c7                	mov    %eax,%edi
  406e82:	e8 53 d8 ff ff       	callq  4046da <_ZN6google21GetReferenceableValueEi>
  406e87:	89 45 b8             	mov    %eax,-0x48(%rbp)
  406e8a:	48 8b 45 90          	mov    -0x70(%rbp),%rax
  406e8e:	48 89 c7             	mov    %rax,%rdi
  406e91:	e8 3c 02 00 00       	callq  4070d2 <_ZNKSt6vectorIPN5caffe4BlobIfEESaIS3_EE4sizeEv>
  406e96:	48 89 c7             	mov    %rax,%rdi
  406e99:	e8 48 d8 ff ff       	callq  4046e6 <_ZN6google21GetReferenceableValueEm>
  406e9e:	48 89 45 d0          	mov    %rax,-0x30(%rbp)
  406ea2:	48 8d 4d b8          	lea    -0x48(%rbp),%rcx
  406ea6:	48 8d 45 d0          	lea    -0x30(%rbp),%rax
  406eaa:	ba 08 b3 40 00       	mov    $0x40b308,%edx
  406eaf:	48 89 ce             	mov    %rcx,%rsi
  406eb2:	48 89 c7             	mov    %rax,%rdi
  406eb5:	e8 6f 0b 00 00       	callq  407a29 <_ZN6google12Check_EQImplImiEEPNSt7__cxx1112basic_stringIcSt11char_traitsIcESaIcEEERKT_RKT0_PKc>
  406eba:	48 89 45 c0          	mov    %rax,-0x40(%rbp)
  406ebe:	48 83 7d c0 00       	cmpq   $0x0,-0x40(%rbp)
  406ec3:	74 55                	je     406f1a <_ZN5caffe5LayerIfE14SetLossWeightsERKSt6vectorIPNS_4BlobIfEESaIS5_EE+0xda>
  406ec5:	48 8b 55 c0          	mov    -0x40(%rbp),%rdx
  406ec9:	48 8d 45 b8          	lea    -0x48(%rbp),%rax
  406ecd:	48 89 d6             	mov    %rdx,%rsi
  406ed0:	48 89 c7             	mov    %rax,%rdi
  406ed3:	e8 e8 d7 ff ff       	callq  4046c0 <_ZN6google13CheckOpStringC1EPNSt7__cxx1112basic_stringIcSt11char_traitsIcESaIcEEE>
  406ed8:	48 8d 55 b8          	lea    -0x48(%rbp),%rdx
  406edc:	48 8d 45 d0          	lea    -0x30(%rbp),%rax
  406ee0:	48 89 d1             	mov    %rdx,%rcx
  406ee3:	ba 88 01 00 00       	mov    $0x188,%edx
  406ee8:	be 48 af 40 00       	mov    $0x40af48,%esi
  406eed:	48 89 c7             	mov    %rax,%rdi
  406ef0:	e8 eb d0 ff ff       	callq  403fe0 <_ZN6google15LogMessageFatalC1EPKciRKNS_13CheckOpStringE@plt>
  406ef5:	48 8d 45 d0          	lea    -0x30(%rbp),%rax
  406ef9:	48 89 c7             	mov    %rax,%rdi
  406efc:	e8 5f d2 ff ff       	callq  404160 <_ZN6google10LogMessage6streamEv@plt>
  406f01:	be 28 b3 40 00       	mov    $0x40b328,%esi
  406f06:	48 89 c7             	mov    %rax,%rdi
  406f09:	e8 72 d0 ff ff       	callq  403f80 <_ZStlsISt11char_traitsIcEERSt13basic_ostreamIcT_ES5_PKc@plt>
  406f0e:	48 8d 45 d0          	lea    -0x30(%rbp),%rax
  406f12:	48 89 c7             	mov    %rax,%rdi
  406f15:	e8 c6 d1 ff ff       	callq  4040e0 <_ZN6google15LogMessageFatalD1Ev@plt>
  406f1a:	c7 45 a8 00 00 00 00 	movl   $0x0,-0x58(%rbp)
  406f21:	8b 45 a8             	mov    -0x58(%rbp),%eax
  406f24:	48 63 d8             	movslq %eax,%rbx
  406f27:	48 8b 45 90          	mov    -0x70(%rbp),%rax
  406f2b:	48 89 c7             	mov    %rax,%rdi
  406f2e:	e8 9f 01 00 00       	callq  4070d2 <_ZNKSt6vectorIPN5caffe4BlobIfEESaIS3_EE4sizeEv>
  406f33:	48 39 c3             	cmp    %rax,%rbx
  406f36:	0f 92 c0             	setb   %al
  406f39:	84 c0                	test   %al,%al
  406f3b:	0f 84 cb 00 00 00    	je     40700c <_ZN5caffe5LayerIfE14SetLossWeightsERKSt6vectorIPNS_4BlobIfEESaIS5_EE+0x1cc>
  406f41:	48 8b 45 98          	mov    -0x68(%rbp),%rax
  406f45:	48 8d 50 08          	lea    0x8(%rax),%rdx
  406f49:	8b 45 a8             	mov    -0x58(%rbp),%eax
  406f4c:	89 c6                	mov    %eax,%esi
  406f4e:	48 89 d7             	mov    %rdx,%rdi
  406f51:	e8 3a d8 ff ff       	callq  404790 <_ZNK5caffe14LayerParameter11loss_weightEi>
  406f56:	66 0f 7e c0          	movd   %xmm0,%eax
  406f5a:	89 45 b0             	mov    %eax,-0x50(%rbp)
  406f5d:	66 0f ef c0          	pxor   %xmm0,%xmm0
  406f61:	0f 2e 45 b0          	ucomiss -0x50(%rbp),%xmm0
  406f65:	7a 0e                	jp     406f75 <_ZN5caffe5LayerIfE14SetLossWeightsERKSt6vectorIPNS_4BlobIfEESaIS5_EE+0x135>
  406f67:	66 0f ef c0          	pxor   %xmm0,%xmm0
  406f6b:	0f 2e 45 b0          	ucomiss -0x50(%rbp),%xmm0
  406f6f:	0f 84 81 00 00 00    	je     406ff6 <_ZN5caffe5LayerIfE14SetLossWeightsERKSt6vectorIPNS_4BlobIfEESaIS5_EE+0x1b6>
  406f75:	8b 4d b0             	mov    -0x50(%rbp),%ecx
  406f78:	8b 55 a8             	mov    -0x58(%rbp),%edx
  406f7b:	48 8b 45 98          	mov    -0x68(%rbp),%rax
  406f7f:	89 4d 8c             	mov    %ecx,-0x74(%rbp)
  406f82:	f3 0f 10 45 8c       	movss  -0x74(%rbp),%xmm0
  406f87:	89 d6                	mov    %edx,%esi
  406f89:	48 89 c7             	mov    %rax,%rdi
  406f8c:	e8 e9 0a 00 00       	callq  407a7a <_ZN5caffe5LayerIfE8set_lossEif>
  406f91:	8b 45 a8             	mov    -0x58(%rbp),%eax
  406f94:	48 63 d0             	movslq %eax,%rdx
  406f97:	48 8b 45 90          	mov    -0x70(%rbp),%rax
  406f9b:	48 89 d6             	mov    %rdx,%rsi
  406f9e:	48 89 c7             	mov    %rax,%rdi
  406fa1:	e8 a8 01 00 00       	callq  40714e <_ZNKSt6vectorIPN5caffe4BlobIfEESaIS3_EEixEm>
  406fa6:	48 8b 00             	mov    (%rax),%rax
  406fa9:	48 89 c7             	mov    %rax,%rdi
  406fac:	e8 bd 01 00 00       	callq  40716e <_ZNK5caffe4BlobIfE5countEv>
  406fb1:	89 45 b4             	mov    %eax,-0x4c(%rbp)
  406fb4:	8b 45 a8             	mov    -0x58(%rbp),%eax
  406fb7:	48 63 d0             	movslq %eax,%rdx
  406fba:	48 8b 45 90          	mov    -0x70(%rbp),%rax
  406fbe:	48 89 d6             	mov    %rdx,%rsi
  406fc1:	48 89 c7             	mov    %rax,%rdi
  406fc4:	e8 85 01 00 00       	callq  40714e <_ZNKSt6vectorIPN5caffe4BlobIfEESaIS3_EEixEm>
  406fc9:	48 8b 00             	mov    (%rax),%rax
  406fcc:	48 89 c7             	mov    %rax,%rdi
  406fcf:	e8 cc ce ff ff       	callq  403ea0 <_ZN5caffe4BlobIfE16mutable_cpu_diffEv@plt>
  406fd4:	48 89 45 c8          	mov    %rax,-0x38(%rbp)
  406fd8:	48 8b 4d c8          	mov    -0x38(%rbp),%rcx
  406fdc:	8b 55 b0             	mov    -0x50(%rbp),%edx
  406fdf:	8b 45 b4             	mov    -0x4c(%rbp),%eax
  406fe2:	48 89 ce             	mov    %rcx,%rsi
  406fe5:	89 55 8c             	mov    %edx,-0x74(%rbp)
  406fe8:	f3 0f 10 45 8c       	movss  -0x74(%rbp),%xmm0
  406fed:	89 c7                	mov    %eax,%edi
  406fef:	e8 4c d0 ff ff       	callq  404040 <_ZN5caffe9caffe_setIfEEviT_PS1_@plt>
  406ff4:	eb 01                	jmp    406ff7 <_ZN5caffe5LayerIfE14SetLossWeightsERKSt6vectorIPNS_4BlobIfEESaIS5_EE+0x1b7>
  406ff6:	90                   	nop
  406ff7:	83 45 a8 01          	addl   $0x1,-0x58(%rbp)
  406ffb:	e9 21 ff ff ff       	jmpq   406f21 <_ZN5caffe5LayerIfE14SetLossWeightsERKSt6vectorIPNS_4BlobIfEESaIS5_EE+0xe1>
  407000:	48 8d 45 d0          	lea    -0x30(%rbp),%rax
  407004:	48 89 c7             	mov    %rax,%rdi
  407007:	e8 d4 d0 ff ff       	callq  4040e0 <_ZN6google15LogMessageFatalD1Ev@plt>
  40700c:	90                   	nop
  40700d:	48 8b 45 e8          	mov    -0x18(%rbp),%rax
  407011:	64 48 33 04 25 28 00 	xor    %fs:0x28,%rax
  407018:	00 00 
  40701a:	74 05                	je     407021 <_ZN5caffe5LayerIfE14SetLossWeightsERKSt6vectorIPNS_4BlobIfEESaIS5_EE+0x1e1>
  40701c:	e8 8f ce ff ff       	callq  403eb0 <__stack_chk_fail@plt>
  407021:	48 83 c4 78          	add    $0x78,%rsp
  407025:	5b                   	pop    %rbx
  407026:	5d                   	pop    %rbp
  407027:	c3                   	retq   

0000000000407028 <_ZN2CK11do_measuredIRZNS_5Caffe12test_softmaxEvEUlvE_EEvOT_i>:
  407028:	55                   	push   %rbp
  407029:	48 89 e5             	mov    %rsp,%rbp
  40702c:	48 83 ec 10          	sub    $0x10,%rsp
  407030:	48 89 7d f8          	mov    %rdi,-0x8(%rbp)
  407034:	89 75 f4             	mov    %esi,-0xc(%rbp)
  407037:	8b 45 f4             	mov    -0xc(%rbp),%eax
  40703a:	89 c7                	mov    %eax,%edi
  40703c:	e8 4f cf ff ff       	callq  403f90 <xopenme_clock_start@plt>
  407041:	48 8b 45 f8          	mov    -0x8(%rbp),%rax
  407045:	48 89 c7             	mov    %rax,%rdi
  407048:	e8 85 dc ff ff       	callq  404cd2 <_ZZN2CK5Caffe12test_softmaxEvENKUlvE_clEv>
  40704d:	8b 45 f4             	mov    -0xc(%rbp),%eax
  407050:	89 c7                	mov    %eax,%edi
  407052:	e8 f9 ce ff ff       	callq  403f50 <xopenme_clock_end@plt>
  407057:	90                   	nop
  407058:	c9                   	leaveq 
  407059:	c3                   	retq   

000000000040705a <_ZN2CK12log_raw_dataIfEEvPT_RKNS_5ShapeEPKcS7_>:
  40705a:	55                   	push   %rbp
  40705b:	48 89 e5             	mov    %rsp,%rbp
  40705e:	48 83 ec 20          	sub    $0x20,%rsp
  407062:	48 89 7d f8          	mov    %rdi,-0x8(%rbp)
  407066:	48 89 75 f0          	mov    %rsi,-0x10(%rbp)
  40706a:	48 89 55 e8          	mov    %rdx,-0x18(%rbp)
  40706e:	48 89 4d e0          	mov    %rcx,-0x20(%rbp)
  407072:	48 83 7d e8 00       	cmpq   $0x0,-0x18(%rbp)
  407077:	74 1c                	je     407095 <_ZN2CK12log_raw_dataIfEEvPT_RKNS_5ShapeEPKcS7_+0x3b>
  407079:	48 8b 45 e8          	mov    -0x18(%rbp),%rax
  40707d:	be 00 00 00 00       	mov    $0x0,%esi
  407082:	48 89 c7             	mov    %rax,%rdi
  407085:	e8 73 d9 ff ff       	callq  4049fd <_ZN2CK8getenv_iEPKci>
  40708a:	85 c0                	test   %eax,%eax
  40708c:	74 07                	je     407095 <_ZN2CK12log_raw_dataIfEEvPT_RKNS_5ShapeEPKcS7_+0x3b>
  40708e:	b8 01 00 00 00       	mov    $0x1,%eax
  407093:	eb 05                	jmp    40709a <_ZN2CK12log_raw_dataIfEEvPT_RKNS_5ShapeEPKcS7_+0x40>
  407095:	b8 00 00 00 00       	mov    $0x0,%eax
  40709a:	84 c0                	test   %al,%al
  40709c:	74 30                	je     4070ce <_ZN2CK12log_raw_dataIfEEvPT_RKNS_5ShapeEPKcS7_+0x74>
  40709e:	48 83 7d e0 00       	cmpq   $0x0,-0x20(%rbp)
  4070a3:	74 16                	je     4070bb <_ZN2CK12log_raw_dataIfEEvPT_RKNS_5ShapeEPKcS7_+0x61>
  4070a5:	48 8b 45 e0          	mov    -0x20(%rbp),%rax
  4070a9:	48 89 c6             	mov    %rax,%rsi
  4070ac:	bf 68 b3 40 00       	mov    $0x40b368,%edi
  4070b1:	b8 00 00 00 00       	mov    $0x0,%eax
  4070b6:	e8 45 cd ff ff       	callq  403e00 <printf@plt>
  4070bb:	48 8b 55 f0          	mov    -0x10(%rbp),%rdx
  4070bf:	48 8b 45 f8          	mov    -0x8(%rbp),%rax
  4070c3:	48 89 d6             	mov    %rdx,%rsi
  4070c6:	48 89 c7             	mov    %rax,%rdi
  4070c9:	e8 59 0a 00 00       	callq  407b27 <_ZN2CK14print_raw_dataIfEEvPT_RKNS_5ShapeE>
  4070ce:	90                   	nop
  4070cf:	c9                   	leaveq 
  4070d0:	c3                   	retq   
  4070d1:	90                   	nop

00000000004070d2 <_ZNKSt6vectorIPN5caffe4BlobIfEESaIS3_EE4sizeEv>:
  4070d2:	55                   	push   %rbp
  4070d3:	48 89 e5             	mov    %rsp,%rbp
  4070d6:	48 89 7d f8          	mov    %rdi,-0x8(%rbp)
  4070da:	48 8b 45 f8          	mov    -0x8(%rbp),%rax
  4070de:	48 8b 40 08          	mov    0x8(%rax),%rax
  4070e2:	48 89 c2             	mov    %rax,%rdx
  4070e5:	48 8b 45 f8          	mov    -0x8(%rbp),%rax
  4070e9:	48 8b 00             	mov    (%rax),%rax
  4070ec:	48 29 c2             	sub    %rax,%rdx
  4070ef:	48 89 d0             	mov    %rdx,%rax
  4070f2:	48 c1 f8 03          	sar    $0x3,%rax
  4070f6:	5d                   	pop    %rbp
  4070f7:	c3                   	retq   

00000000004070f8 <_ZNK5caffe5LayerIfE4lossEi>:
  4070f8:	55                   	push   %rbp
  4070f9:	48 89 e5             	mov    %rsp,%rbp
  4070fc:	48 83 ec 10          	sub    $0x10,%rsp
  407100:	48 89 7d f8          	mov    %rdi,-0x8(%rbp)
  407104:	89 75 f4             	mov    %esi,-0xc(%rbp)
  407107:	48 8b 45 f8          	mov    -0x8(%rbp),%rax
  40710b:	48 05 a8 02 00 00    	add    $0x2a8,%rax
  407111:	48 89 c7             	mov    %rax,%rdi
  407114:	e8 3f 0b 00 00       	callq  407c58 <_ZNKSt6vectorIfSaIfEE4sizeEv>
  407119:	48 89 c2             	mov    %rax,%rdx
  40711c:	8b 45 f4             	mov    -0xc(%rbp),%eax
  40711f:	48 98                	cltq   
  407121:	48 39 c2             	cmp    %rax,%rdx
  407124:	76 21                	jbe    407147 <_ZNK5caffe5LayerIfE4lossEi+0x4f>
  407126:	8b 45 f4             	mov    -0xc(%rbp),%eax
  407129:	48 98                	cltq   
  40712b:	48 8b 55 f8          	mov    -0x8(%rbp),%rdx
  40712f:	48 81 c2 a8 02 00 00 	add    $0x2a8,%rdx
  407136:	48 89 c6             	mov    %rax,%rsi
  407139:	48 89 d7             	mov    %rdx,%rdi
  40713c:	e8 3d 0b 00 00       	callq  407c7e <_ZNKSt6vectorIfSaIfEEixEm>
  407141:	f3 0f 10 00          	movss  (%rax),%xmm0
  407145:	eb 04                	jmp    40714b <_ZNK5caffe5LayerIfE4lossEi+0x53>
  407147:	66 0f ef c0          	pxor   %xmm0,%xmm0
  40714b:	c9                   	leaveq 
  40714c:	c3                   	retq   
  40714d:	90                   	nop

000000000040714e <_ZNKSt6vectorIPN5caffe4BlobIfEESaIS3_EEixEm>:
  40714e:	55                   	push   %rbp
  40714f:	48 89 e5             	mov    %rsp,%rbp
  407152:	48 89 7d f8          	mov    %rdi,-0x8(%rbp)
  407156:	48 89 75 f0          	mov    %rsi,-0x10(%rbp)
  40715a:	48 8b 45 f8          	mov    -0x8(%rbp),%rax
  40715e:	48 8b 00             	mov    (%rax),%rax
  407161:	48 8b 55 f0          	mov    -0x10(%rbp),%rdx
  407165:	48 c1 e2 03          	shl    $0x3,%rdx
  407169:	48 01 d0             	add    %rdx,%rax
  40716c:	5d                   	pop    %rbp
  40716d:	c3                   	retq   

000000000040716e <_ZNK5caffe4BlobIfE5countEv>:
  40716e:	55                   	push   %rbp
  40716f:	48 89 e5             	mov    %rsp,%rbp
  407172:	48 89 7d f8          	mov    %rdi,-0x8(%rbp)
  407176:	48 8b 45 f8          	mov    -0x8(%rbp),%rax
  40717a:	8b 40 48             	mov    0x48(%rax),%eax
  40717d:	5d                   	pop    %rbp
  40717e:	c3                   	retq   
  40717f:	90                   	nop

0000000000407180 <_ZN5caffe5LayerIfE11Forward_gpuERKSt6vectorIPNS_4BlobIfEESaIS5_EES9_>:
  407180:	55                   	push   %rbp
  407181:	48 89 e5             	mov    %rsp,%rbp
  407184:	48 83 ec 20          	sub    $0x20,%rsp
  407188:	48 89 7d f8          	mov    %rdi,-0x8(%rbp)
  40718c:	48 89 75 f0          	mov    %rsi,-0x10(%rbp)
  407190:	48 89 55 e8          	mov    %rdx,-0x18(%rbp)
  407194:	48 8b 45 f8          	mov    -0x8(%rbp),%rax
  407198:	48 8b 00             	mov    (%rax),%rax
  40719b:	48 83 c0 78          	add    $0x78,%rax
  40719f:	48 8b 00             	mov    (%rax),%rax
  4071a2:	48 8b 55 e8          	mov    -0x18(%rbp),%rdx
  4071a6:	48 8b 75 f0          	mov    -0x10(%rbp),%rsi
  4071aa:	48 8b 4d f8          	mov    -0x8(%rbp),%rcx
  4071ae:	48 89 cf             	mov    %rcx,%rdi
  4071b1:	ff d0                	callq  *%rax
  4071b3:	c9                   	leaveq 
  4071b4:	c3                   	retq   

00000000004071b5 <_ZN2CK11do_measuredIRZNS_5Caffe12test_softmaxEvEUlvE0_EEvOT_i>:
  4071b5:	55                   	push   %rbp
  4071b6:	48 89 e5             	mov    %rsp,%rbp
  4071b9:	48 83 ec 10          	sub    $0x10,%rsp
  4071bd:	48 89 7d f8          	mov    %rdi,-0x8(%rbp)
  4071c1:	89 75 f4             	mov    %esi,-0xc(%rbp)
  4071c4:	8b 45 f4             	mov    -0xc(%rbp),%eax
  4071c7:	89 c7                	mov    %eax,%edi
  4071c9:	e8 c2 cd ff ff       	callq  403f90 <xopenme_clock_start@plt>
  4071ce:	48 8b 45 f8          	mov    -0x8(%rbp),%rax
  4071d2:	48 89 c7             	mov    %rax,%rdi
  4071d5:	e8 2a db ff ff       	callq  404d04 <_ZZN2CK5Caffe12test_softmaxEvENKUlvE0_clEv>
  4071da:	8b 45 f4             	mov    -0xc(%rbp),%eax
  4071dd:	89 c7                	mov    %eax,%edi
  4071df:	e8 6c cd ff ff       	callq  403f50 <xopenme_clock_end@plt>
  4071e4:	90                   	nop
  4071e5:	c9                   	leaveq 
  4071e6:	c3                   	retq   
  4071e7:	90                   	nop

00000000004071e8 <_ZNK5boost10shared_ptrIN5caffe12SyncedMemoryEEntEv>:
  4071e8:	55                   	push   %rbp
  4071e9:	48 89 e5             	mov    %rsp,%rbp
  4071ec:	48 89 7d f8          	mov    %rdi,-0x8(%rbp)
  4071f0:	48 8b 45 f8          	mov    -0x8(%rbp),%rax
  4071f4:	48 8b 00             	mov    (%rax),%rax
  4071f7:	48 85 c0             	test   %rax,%rax
  4071fa:	0f 94 c0             	sete   %al
  4071fd:	5d                   	pop    %rbp
  4071fe:	c3                   	retq   
  4071ff:	90                   	nop

0000000000407200 <_ZNSt12_Vector_baseIiSaIiEE12_Vector_implD1Ev>:
  407200:	55                   	push   %rbp
  407201:	48 89 e5             	mov    %rsp,%rbp
  407204:	48 83 ec 10          	sub    $0x10,%rsp
  407208:	48 89 7d f8          	mov    %rdi,-0x8(%rbp)
  40720c:	48 8b 45 f8          	mov    -0x8(%rbp),%rax
  407210:	48 89 c7             	mov    %rax,%rdi
  407213:	e8 86 0a 00 00       	callq  407c9e <_ZNSaIiED1Ev>
  407218:	90                   	nop
  407219:	c9                   	leaveq 
  40721a:	c3                   	retq   
  40721b:	90                   	nop

000000000040721c <_ZNSt12_Vector_baseIiSaIiEED1Ev>:
  40721c:	55                   	push   %rbp
  40721d:	48 89 e5             	mov    %rsp,%rbp
  407220:	48 83 ec 10          	sub    $0x10,%rsp
  407224:	48 89 7d f8          	mov    %rdi,-0x8(%rbp)
  407228:	48 8b 45 f8          	mov    -0x8(%rbp),%rax
  40722c:	48 8b 40 10          	mov    0x10(%rax),%rax
  407230:	48 89 c2             	mov    %rax,%rdx
  407233:	48 8b 45 f8          	mov    -0x8(%rbp),%rax
  407237:	48 8b 00             	mov    (%rax),%rax
  40723a:	48 29 c2             	sub    %rax,%rdx
  40723d:	48 89 d0             	mov    %rdx,%rax
  407240:	48 c1 f8 02          	sar    $0x2,%rax
  407244:	48 89 c2             	mov    %rax,%rdx
  407247:	48 8b 45 f8          	mov    -0x8(%rbp),%rax
  40724b:	48 8b 08             	mov    (%rax),%rcx
  40724e:	48 8b 45 f8          	mov    -0x8(%rbp),%rax
  407252:	48 89 ce             	mov    %rcx,%rsi
  407255:	48 89 c7             	mov    %rax,%rdi
  407258:	e8 5d 0a 00 00       	callq  407cba <_ZNSt12_Vector_baseIiSaIiEE13_M_deallocateEPim>
  40725d:	48 8b 45 f8          	mov    -0x8(%rbp),%rax
  407261:	48 89 c7             	mov    %rax,%rdi
  407264:	e8 97 ff ff ff       	callq  407200 <_ZNSt12_Vector_baseIiSaIiEE12_Vector_implD1Ev>
  407269:	90                   	nop
  40726a:	c9                   	leaveq 
  40726b:	c3                   	retq   

000000000040726c <_ZNSt12_Vector_baseIiSaIiEE19_M_get_Tp_allocatorEv>:
  40726c:	55                   	push   %rbp
  40726d:	48 89 e5             	mov    %rsp,%rbp
  407270:	48 89 7d f8          	mov    %rdi,-0x8(%rbp)
  407274:	48 8b 45 f8          	mov    -0x8(%rbp),%rax
  407278:	5d                   	pop    %rbp
  407279:	c3                   	retq   

000000000040727a <_ZSt8_DestroyIPiiEvT_S1_RSaIT0_E>:
  40727a:	55                   	push   %rbp
  40727b:	48 89 e5             	mov    %rsp,%rbp
  40727e:	48 83 ec 20          	sub    $0x20,%rsp
  407282:	48 89 7d f8          	mov    %rdi,-0x8(%rbp)
  407286:	48 89 75 f0          	mov    %rsi,-0x10(%rbp)
  40728a:	48 89 55 e8          	mov    %rdx,-0x18(%rbp)
  40728e:	48 8b 55 f0          	mov    -0x10(%rbp),%rdx
  407292:	48 8b 45 f8          	mov    -0x8(%rbp),%rax
  407296:	48 89 d6             	mov    %rdx,%rsi
  407299:	48 89 c7             	mov    %rax,%rdi
  40729c:	e8 4e 0a 00 00       	callq  407cef <_ZSt8_DestroyIPiEvT_S1_>
  4072a1:	90                   	nop
  4072a2:	c9                   	leaveq 
  4072a3:	c3                   	retq   

00000000004072a4 <_ZN6google22MakeCheckOpValueStringIiEEvPSoRKT_>:
  4072a4:	55                   	push   %rbp
  4072a5:	48 89 e5             	mov    %rsp,%rbp
  4072a8:	48 83 ec 10          	sub    $0x10,%rsp
  4072ac:	48 89 7d f8          	mov    %rdi,-0x8(%rbp)
  4072b0:	48 89 75 f0          	mov    %rsi,-0x10(%rbp)
  4072b4:	48 8b 45 f0          	mov    -0x10(%rbp),%rax
  4072b8:	8b 10                	mov    (%rax),%edx
  4072ba:	48 8b 45 f8          	mov    -0x8(%rbp),%rax
  4072be:	89 d6                	mov    %edx,%esi
  4072c0:	48 89 c7             	mov    %rax,%rdi
  4072c3:	e8 08 cc ff ff       	callq  403ed0 <_ZNSolsEi@plt>
  4072c8:	90                   	nop
  4072c9:	c9                   	leaveq 
  4072ca:	c3                   	retq   

00000000004072cb <_ZN6google8protobuf8internal18GenericTypeHandlerIN5caffe9BlobProtoEE5ClearEPS4_>:
  4072cb:	55                   	push   %rbp
  4072cc:	48 89 e5             	mov    %rsp,%rbp
  4072cf:	48 83 ec 10          	sub    $0x10,%rsp
  4072d3:	48 89 7d f8          	mov    %rdi,-0x8(%rbp)
  4072d7:	48 8b 45 f8          	mov    -0x8(%rbp),%rax
  4072db:	48 8b 00             	mov    (%rax),%rax
  4072de:	48 83 c0 38          	add    $0x38,%rax
  4072e2:	48 8b 00             	mov    (%rax),%rax
  4072e5:	48 8b 55 f8          	mov    -0x8(%rbp),%rdx
  4072e9:	48 89 d7             	mov    %rdx,%rdi
  4072ec:	ff d0                	callq  *%rax
  4072ee:	90                   	nop
  4072ef:	c9                   	leaveq 
  4072f0:	c3                   	retq   

00000000004072f1 <_ZN6google8protobuf8internal20RepeatedPtrFieldBase4castINS0_16RepeatedPtrFieldIN5caffe9BlobProtoEE11TypeHandlerEEEPNT_4TypeEPv>:
  4072f1:	55                   	push   %rbp
  4072f2:	48 89 e5             	mov    %rsp,%rbp
  4072f5:	48 89 7d f8          	mov    %rdi,-0x8(%rbp)
  4072f9:	48 8b 45 f8          	mov    -0x8(%rbp),%rax
  4072fd:	5d                   	pop    %rbp
  4072fe:	c3                   	retq   
  4072ff:	90                   	nop

0000000000407300 <_ZN6google8protobuf8internal18GenericTypeHandlerIN5caffe9BlobProtoEE16NewFromPrototypeEPKS4_PNS0_5ArenaE>:
  407300:	55                   	push   %rbp
  407301:	48 89 e5             	mov    %rsp,%rbp
  407304:	48 83 ec 10          	sub    $0x10,%rsp
  407308:	48 89 7d f8          	mov    %rdi,-0x8(%rbp)
  40730c:	48 89 75 f0          	mov    %rsi,-0x10(%rbp)
  407310:	48 8b 45 f0          	mov    -0x10(%rbp),%rax
  407314:	48 89 c7             	mov    %rax,%rdi
  407317:	e8 f9 09 00 00       	callq  407d15 <_ZN6google8protobuf8internal18GenericTypeHandlerIN5caffe9BlobProtoEE3NewEPNS0_5ArenaE>
  40731c:	c9                   	leaveq 
  40731d:	c3                   	retq   

000000000040731e <_ZNSt12_Vector_baseIPN5caffe4BlobIfEESaIS3_EE12_Vector_implC1Ev>:
  40731e:	55                   	push   %rbp
  40731f:	48 89 e5             	mov    %rsp,%rbp
  407322:	48 83 ec 10          	sub    $0x10,%rsp
  407326:	48 89 7d f8          	mov    %rdi,-0x8(%rbp)
  40732a:	48 8b 45 f8          	mov    -0x8(%rbp),%rax
  40732e:	48 89 c7             	mov    %rax,%rdi
  407331:	e8 d6 0a 00 00       	callq  407e0c <_ZNSaIPN5caffe4BlobIfEEEC1Ev>
  407336:	48 8b 45 f8          	mov    -0x8(%rbp),%rax
  40733a:	48 c7 00 00 00 00 00 	movq   $0x0,(%rax)
  407341:	48 8b 45 f8          	mov    -0x8(%rbp),%rax
  407345:	48 c7 40 08 00 00 00 	movq   $0x0,0x8(%rax)
  40734c:	00 
  40734d:	48 8b 45 f8          	mov    -0x8(%rbp),%rax
  407351:	48 c7 40 10 00 00 00 	movq   $0x0,0x10(%rax)
  407358:	00 
  407359:	90                   	nop
  40735a:	c9                   	leaveq 
  40735b:	c3                   	retq   

000000000040735c <_ZNSaIPN5caffe4BlobIfEEED1Ev>:
  40735c:	55                   	push   %rbp
  40735d:	48 89 e5             	mov    %rsp,%rbp
  407360:	48 83 ec 10          	sub    $0x10,%rsp
  407364:	48 89 7d f8          	mov    %rdi,-0x8(%rbp)
  407368:	48 8b 45 f8          	mov    -0x8(%rbp),%rax
  40736c:	48 89 c7             	mov    %rax,%rdi
  40736f:	e8 b4 0a 00 00       	callq  407e28 <_ZN9__gnu_cxx13new_allocatorIPN5caffe4BlobIfEEED1Ev>
  407374:	90                   	nop
  407375:	c9                   	leaveq 
  407376:	c3                   	retq   
  407377:	90                   	nop

0000000000407378 <_ZNSt12_Vector_baseIPN5caffe4BlobIfEESaIS3_EE13_M_deallocateEPS3_m>:
  407378:	55                   	push   %rbp
  407379:	48 89 e5             	mov    %rsp,%rbp
  40737c:	48 83 ec 20          	sub    $0x20,%rsp
  407380:	48 89 7d f8          	mov    %rdi,-0x8(%rbp)
  407384:	48 89 75 f0          	mov    %rsi,-0x10(%rbp)
  407388:	48 89 55 e8          	mov    %rdx,-0x18(%rbp)
  40738c:	48 83 7d f0 00       	cmpq   $0x0,-0x10(%rbp)
  407391:	74 17                	je     4073aa <_ZNSt12_Vector_baseIPN5caffe4BlobIfEESaIS3_EE13_M_deallocateEPS3_m+0x32>
  407393:	48 8b 45 f8          	mov    -0x8(%rbp),%rax
  407397:	48 8b 55 e8          	mov    -0x18(%rbp),%rdx
  40739b:	48 8b 4d f0          	mov    -0x10(%rbp),%rcx
  40739f:	48 89 ce             	mov    %rcx,%rsi
  4073a2:	48 89 c7             	mov    %rax,%rdi
  4073a5:	e8 89 0a 00 00       	callq  407e33 <_ZNSt16allocator_traitsISaIPN5caffe4BlobIfEEEE10deallocateERS4_PS3_m>
  4073aa:	90                   	nop
  4073ab:	c9                   	leaveq 
  4073ac:	c3                   	retq   

00000000004073ad <_ZSt8_DestroyIPPN5caffe4BlobIfEEEvT_S5_>:
  4073ad:	55                   	push   %rbp
  4073ae:	48 89 e5             	mov    %rsp,%rbp
  4073b1:	48 83 ec 10          	sub    $0x10,%rsp
  4073b5:	48 89 7d f8          	mov    %rdi,-0x8(%rbp)
  4073b9:	48 89 75 f0          	mov    %rsi,-0x10(%rbp)
  4073bd:	48 8b 55 f0          	mov    -0x10(%rbp),%rdx
  4073c1:	48 8b 45 f8          	mov    -0x8(%rbp),%rax
  4073c5:	48 89 d6             	mov    %rdx,%rsi
  4073c8:	48 89 c7             	mov    %rax,%rdi
  4073cb:	e8 91 0a 00 00       	callq  407e61 <_ZNSt12_Destroy_auxILb1EE9__destroyIPPN5caffe4BlobIfEEEEvT_S7_>
  4073d0:	90                   	nop
  4073d1:	c9                   	leaveq 
  4073d2:	c3                   	retq   
  4073d3:	90                   	nop

00000000004073d4 <_ZN9__gnu_cxx13new_allocatorIPN5caffe4BlobIfEEE9constructIS4_JRKS4_EEEvPT_DpOT0_>:
  4073d4:	55                   	push   %rbp
  4073d5:	48 89 e5             	mov    %rsp,%rbp
  4073d8:	53                   	push   %rbx
  4073d9:	48 83 ec 28          	sub    $0x28,%rsp
  4073dd:	48 89 7d e8          	mov    %rdi,-0x18(%rbp)
  4073e1:	48 89 75 e0          	mov    %rsi,-0x20(%rbp)
  4073e5:	48 89 55 d8          	mov    %rdx,-0x28(%rbp)
  4073e9:	48 8b 45 d8          	mov    -0x28(%rbp),%rax
  4073ed:	48 89 c7             	mov    %rax,%rdi
  4073f0:	e8 a7 ec ff ff       	callq  40609c <_ZSt7forwardIRKPN5caffe4BlobIfEEEOT_RNSt16remove_referenceIS6_E4typeE>
  4073f5:	48 8b 18             	mov    (%rax),%rbx
  4073f8:	48 8b 45 e0          	mov    -0x20(%rbp),%rax
  4073fc:	48 89 c6             	mov    %rax,%rsi
  4073ff:	bf 08 00 00 00       	mov    $0x8,%edi
  407404:	e8 5e d0 ff ff       	callq  404467 <_ZnwmPv>
  407409:	48 85 c0             	test   %rax,%rax
  40740c:	74 03                	je     407411 <_ZN9__gnu_cxx13new_allocatorIPN5caffe4BlobIfEEE9constructIS4_JRKS4_EEEvPT_DpOT0_+0x3d>
  40740e:	48 89 18             	mov    %rbx,(%rax)
  407411:	90                   	nop
  407412:	48 83 c4 28          	add    $0x28,%rsp
  407416:	5b                   	pop    %rbx
  407417:	5d                   	pop    %rbp
  407418:	c3                   	retq   
  407419:	90                   	nop

000000000040741a <_ZNKSt6vectorIPN5caffe4BlobIfEESaIS3_EE12_M_check_lenEmPKc>:
  40741a:	55                   	push   %rbp
  40741b:	48 89 e5             	mov    %rsp,%rbp
  40741e:	53                   	push   %rbx
  40741f:	48 83 ec 48          	sub    $0x48,%rsp
  407423:	48 89 7d c8          	mov    %rdi,-0x38(%rbp)
  407427:	48 89 75 c0          	mov    %rsi,-0x40(%rbp)
  40742b:	48 89 55 b8          	mov    %rdx,-0x48(%rbp)
  40742f:	64 48 8b 04 25 28 00 	mov    %fs:0x28,%rax
  407436:	00 00 
  407438:	48 89 45 e8          	mov    %rax,-0x18(%rbp)
  40743c:	31 c0                	xor    %eax,%eax
  40743e:	48 8b 45 c8          	mov    -0x38(%rbp),%rax
  407442:	48 89 c7             	mov    %rax,%rdi
  407445:	e8 26 0a 00 00       	callq  407e70 <_ZNKSt6vectorIPN5caffe4BlobIfEESaIS3_EE8max_sizeEv>
  40744a:	48 89 c3             	mov    %rax,%rbx
  40744d:	48 8b 45 c8          	mov    -0x38(%rbp),%rax
  407451:	48 89 c7             	mov    %rax,%rdi
  407454:	e8 79 fc ff ff       	callq  4070d2 <_ZNKSt6vectorIPN5caffe4BlobIfEESaIS3_EE4sizeEv>
  407459:	48 29 c3             	sub    %rax,%rbx
  40745c:	48 89 da             	mov    %rbx,%rdx
  40745f:	48 8b 45 c0          	mov    -0x40(%rbp),%rax
  407463:	48 39 c2             	cmp    %rax,%rdx
  407466:	0f 92 c0             	setb   %al
  407469:	84 c0                	test   %al,%al
  40746b:	74 0c                	je     407479 <_ZNKSt6vectorIPN5caffe4BlobIfEESaIS3_EE12_M_check_lenEmPKc+0x5f>
  40746d:	48 8b 45 b8          	mov    -0x48(%rbp),%rax
  407471:	48 89 c7             	mov    %rax,%rdi
  407474:	e8 47 cb ff ff       	callq  403fc0 <_ZSt20__throw_length_errorPKc@plt>
  407479:	48 8b 45 c8          	mov    -0x38(%rbp),%rax
  40747d:	48 89 c7             	mov    %rax,%rdi
  407480:	e8 4d fc ff ff       	callq  4070d2 <_ZNKSt6vectorIPN5caffe4BlobIfEESaIS3_EE4sizeEv>
  407485:	48 89 c3             	mov    %rax,%rbx
  407488:	48 8b 45 c8          	mov    -0x38(%rbp),%rax
  40748c:	48 89 c7             	mov    %rax,%rdi
  40748f:	e8 3e fc ff ff       	callq  4070d2 <_ZNKSt6vectorIPN5caffe4BlobIfEESaIS3_EE4sizeEv>
  407494:	48 89 45 d8          	mov    %rax,-0x28(%rbp)
  407498:	48 8d 55 c0          	lea    -0x40(%rbp),%rdx
  40749c:	48 8d 45 d8          	lea    -0x28(%rbp),%rax
  4074a0:	48 89 d6             	mov    %rdx,%rsi
  4074a3:	48 89 c7             	mov    %rax,%rdi
  4074a6:	e8 e7 09 00 00       	callq  407e92 <_ZSt3maxImERKT_S2_S2_>
  4074ab:	48 8b 00             	mov    (%rax),%rax
  4074ae:	48 01 d8             	add    %rbx,%rax
  4074b1:	48 89 45 e0          	mov    %rax,-0x20(%rbp)
  4074b5:	48 8b 45 c8          	mov    -0x38(%rbp),%rax
  4074b9:	48 89 c7             	mov    %rax,%rdi
  4074bc:	e8 11 fc ff ff       	callq  4070d2 <_ZNKSt6vectorIPN5caffe4BlobIfEESaIS3_EE4sizeEv>
  4074c1:	48 3b 45 e0          	cmp    -0x20(%rbp),%rax
  4074c5:	77 12                	ja     4074d9 <_ZNKSt6vectorIPN5caffe4BlobIfEESaIS3_EE12_M_check_lenEmPKc+0xbf>
  4074c7:	48 8b 45 c8          	mov    -0x38(%rbp),%rax
  4074cb:	48 89 c7             	mov    %rax,%rdi
  4074ce:	e8 9d 09 00 00       	callq  407e70 <_ZNKSt6vectorIPN5caffe4BlobIfEESaIS3_EE8max_sizeEv>
  4074d3:	48 3b 45 e0          	cmp    -0x20(%rbp),%rax
  4074d7:	73 0e                	jae    4074e7 <_ZNKSt6vectorIPN5caffe4BlobIfEESaIS3_EE12_M_check_lenEmPKc+0xcd>
  4074d9:	48 8b 45 c8          	mov    -0x38(%rbp),%rax
  4074dd:	48 89 c7             	mov    %rax,%rdi
  4074e0:	e8 8b 09 00 00       	callq  407e70 <_ZNKSt6vectorIPN5caffe4BlobIfEESaIS3_EE8max_sizeEv>
  4074e5:	eb 04                	jmp    4074eb <_ZNKSt6vectorIPN5caffe4BlobIfEESaIS3_EE12_M_check_lenEmPKc+0xd1>
  4074e7:	48 8b 45 e0          	mov    -0x20(%rbp),%rax
  4074eb:	48 8b 4d e8          	mov    -0x18(%rbp),%rcx
  4074ef:	64 48 33 0c 25 28 00 	xor    %fs:0x28,%rcx
  4074f6:	00 00 
  4074f8:	74 05                	je     4074ff <_ZNKSt6vectorIPN5caffe4BlobIfEESaIS3_EE12_M_check_lenEmPKc+0xe5>
  4074fa:	e8 b1 c9 ff ff       	callq  403eb0 <__stack_chk_fail@plt>
  4074ff:	48 83 c4 48          	add    $0x48,%rsp
  407503:	5b                   	pop    %rbx
  407504:	5d                   	pop    %rbp
  407505:	c3                   	retq   

0000000000407506 <_ZNSt12_Vector_baseIPN5caffe4BlobIfEESaIS3_EE11_M_allocateEm>:
  407506:	55                   	push   %rbp
  407507:	48 89 e5             	mov    %rsp,%rbp
  40750a:	48 83 ec 10          	sub    $0x10,%rsp
  40750e:	48 89 7d f8          	mov    %rdi,-0x8(%rbp)
  407512:	48 89 75 f0          	mov    %rsi,-0x10(%rbp)
  407516:	48 83 7d f0 00       	cmpq   $0x0,-0x10(%rbp)
  40751b:	74 15                	je     407532 <_ZNSt12_Vector_baseIPN5caffe4BlobIfEESaIS3_EE11_M_allocateEm+0x2c>
  40751d:	48 8b 45 f8          	mov    -0x8(%rbp),%rax
  407521:	48 8b 55 f0          	mov    -0x10(%rbp),%rdx
  407525:	48 89 d6             	mov    %rdx,%rsi
  407528:	48 89 c7             	mov    %rax,%rdi
  40752b:	e8 8d 09 00 00       	callq  407ebd <_ZNSt16allocator_traitsISaIPN5caffe4BlobIfEEEE8allocateERS4_m>
  407530:	eb 05                	jmp    407537 <_ZNSt12_Vector_baseIPN5caffe4BlobIfEESaIS3_EE11_M_allocateEm+0x31>
  407532:	b8 00 00 00 00       	mov    $0x0,%eax
  407537:	c9                   	leaveq 
  407538:	c3                   	retq   

0000000000407539 <_ZSt34__uninitialized_move_if_noexcept_aIPPN5caffe4BlobIfEES4_SaIS3_EET0_T_S7_S6_RT1_>:
  407539:	55                   	push   %rbp
  40753a:	48 89 e5             	mov    %rsp,%rbp
  40753d:	53                   	push   %rbx
  40753e:	48 83 ec 28          	sub    $0x28,%rsp
  407542:	48 89 7d e8          	mov    %rdi,-0x18(%rbp)
  407546:	48 89 75 e0          	mov    %rsi,-0x20(%rbp)
  40754a:	48 89 55 d8          	mov    %rdx,-0x28(%rbp)
  40754e:	48 89 4d d0          	mov    %rcx,-0x30(%rbp)
  407552:	48 8b 45 e0          	mov    -0x20(%rbp),%rax
  407556:	48 89 c7             	mov    %rax,%rdi
  407559:	e8 89 09 00 00       	callq  407ee7 <_ZSt32__make_move_if_noexcept_iteratorIPN5caffe4BlobIfEESt13move_iteratorIPS3_EET0_PT_>
  40755e:	48 89 c3             	mov    %rax,%rbx
  407561:	48 8b 45 e8          	mov    -0x18(%rbp),%rax
  407565:	48 89 c7             	mov    %rax,%rdi
  407568:	e8 7a 09 00 00       	callq  407ee7 <_ZSt32__make_move_if_noexcept_iteratorIPN5caffe4BlobIfEESt13move_iteratorIPS3_EET0_PT_>
  40756d:	48 89 c7             	mov    %rax,%rdi
  407570:	48 8b 55 d0          	mov    -0x30(%rbp),%rdx
  407574:	48 8b 45 d8          	mov    -0x28(%rbp),%rax
  407578:	48 89 d1             	mov    %rdx,%rcx
  40757b:	48 89 c2             	mov    %rax,%rdx
  40757e:	48 89 de             	mov    %rbx,%rsi
  407581:	e8 a9 09 00 00       	callq  407f2f <_ZSt22__uninitialized_copy_aISt13move_iteratorIPPN5caffe4BlobIfEEES5_S4_ET0_T_S8_S7_RSaIT1_E>
  407586:	48 83 c4 28          	add    $0x28,%rsp
  40758a:	5b                   	pop    %rbx
  40758b:	5d                   	pop    %rbp
  40758c:	c3                   	retq   

000000000040758d <_ZNSt16allocator_traitsISaIPN5caffe4BlobIfEEEE7destroyIS3_EEvRS4_PT_>:
  40758d:	55                   	push   %rbp
  40758e:	48 89 e5             	mov    %rsp,%rbp
  407591:	48 83 ec 10          	sub    $0x10,%rsp
  407595:	48 89 7d f8          	mov    %rdi,-0x8(%rbp)
  407599:	48 89 75 f0          	mov    %rsi,-0x10(%rbp)
  40759d:	48 8b 55 f0          	mov    -0x10(%rbp),%rdx
  4075a1:	48 8b 45 f8          	mov    -0x8(%rbp),%rax
  4075a5:	48 89 d6             	mov    %rdx,%rsi
  4075a8:	48 89 c7             	mov    %rax,%rdi
  4075ab:	e8 b0 09 00 00       	callq  407f60 <_ZN9__gnu_cxx13new_allocatorIPN5caffe4BlobIfEEE7destroyIS4_EEvPT_>
  4075b0:	90                   	nop
  4075b1:	c9                   	leaveq 
  4075b2:	c3                   	retq   
  4075b3:	90                   	nop

00000000004075b4 <_ZNSt12_Vector_baseIiSaIiEEC1Ev>:
  4075b4:	55                   	push   %rbp
  4075b5:	48 89 e5             	mov    %rsp,%rbp
  4075b8:	48 83 ec 10          	sub    $0x10,%rsp
  4075bc:	48 89 7d f8          	mov    %rdi,-0x8(%rbp)
  4075c0:	48 8b 45 f8          	mov    -0x8(%rbp),%rax
  4075c4:	48 89 c7             	mov    %rax,%rdi
  4075c7:	e8 a4 09 00 00       	callq  407f70 <_ZNSt12_Vector_baseIiSaIiEE12_Vector_implC1Ev>
  4075cc:	90                   	nop
  4075cd:	c9                   	leaveq 
  4075ce:	c3                   	retq   
  4075cf:	90                   	nop

00000000004075d0 <_ZNSt6vectorIN5boost10shared_ptrIN5caffe4BlobIfEEEESaIS5_EEC1Ev>:
  4075d0:	55                   	push   %rbp
  4075d1:	48 89 e5             	mov    %rsp,%rbp
  4075d4:	48 83 ec 10          	sub    $0x10,%rsp
  4075d8:	48 89 7d f8          	mov    %rdi,-0x8(%rbp)
  4075dc:	48 8b 45 f8          	mov    -0x8(%rbp),%rax
  4075e0:	48 89 c7             	mov    %rax,%rdi
  4075e3:	e8 e2 09 00 00       	callq  407fca <_ZNSt12_Vector_baseIN5boost10shared_ptrIN5caffe4BlobIfEEEESaIS5_EEC1Ev>
  4075e8:	90                   	nop
  4075e9:	c9                   	leaveq 
  4075ea:	c3                   	retq   
  4075eb:	90                   	nop

00000000004075ec <_ZNSt6vectorIN5boost10shared_ptrIN5caffe4BlobIfEEEESaIS5_EED1Ev>:
  4075ec:	55                   	push   %rbp
  4075ed:	48 89 e5             	mov    %rsp,%rbp
  4075f0:	48 83 ec 10          	sub    $0x10,%rsp
  4075f4:	48 89 7d f8          	mov    %rdi,-0x8(%rbp)
  4075f8:	48 8b 45 f8          	mov    -0x8(%rbp),%rax
  4075fc:	48 89 c7             	mov    %rax,%rdi
  4075ff:	e8 32 0a 00 00       	callq  408036 <_ZNSt12_Vector_baseIN5boost10shared_ptrIN5caffe4BlobIfEEEESaIS5_EE19_M_get_Tp_allocatorEv>
  407604:	48 89 c2             	mov    %rax,%rdx
  407607:	48 8b 45 f8          	mov    -0x8(%rbp),%rax
  40760b:	48 8b 48 08          	mov    0x8(%rax),%rcx
  40760f:	48 8b 45 f8          	mov    -0x8(%rbp),%rax
  407613:	48 8b 00             	mov    (%rax),%rax
  407616:	48 89 ce             	mov    %rcx,%rsi
  407619:	48 89 c7             	mov    %rax,%rdi
  40761c:	e8 23 0a 00 00       	callq  408044 <_ZSt8_DestroyIPN5boost10shared_ptrIN5caffe4BlobIfEEEES5_EvT_S7_RSaIT0_E>
  407621:	48 8b 45 f8          	mov    -0x8(%rbp),%rax
  407625:	48 89 c7             	mov    %rax,%rdi
  407628:	e8 b9 09 00 00       	callq  407fe6 <_ZNSt12_Vector_baseIN5boost10shared_ptrIN5caffe4BlobIfEEEESaIS5_EED1Ev>
  40762d:	90                   	nop
  40762e:	c9                   	leaveq 
  40762f:	c3                   	retq   

0000000000407630 <_ZNSt6vectorIbSaIbEEC1Ev>:
  407630:	55                   	push   %rbp
  407631:	48 89 e5             	mov    %rsp,%rbp
  407634:	48 83 ec 10          	sub    $0x10,%rsp
  407638:	48 89 7d f8          	mov    %rdi,-0x8(%rbp)
  40763c:	48 8b 45 f8          	mov    -0x8(%rbp),%rax
  407640:	48 89 c7             	mov    %rax,%rdi
  407643:	e8 42 0a 00 00       	callq  40808a <_ZNSt13_Bvector_baseISaIbEEC1Ev>
  407648:	90                   	nop
  407649:	c9                   	leaveq 
  40764a:	c3                   	retq   
  40764b:	90                   	nop

000000000040764c <_ZNSt6vectorIbSaIbEED1Ev>:
  40764c:	55                   	push   %rbp
  40764d:	48 89 e5             	mov    %rsp,%rbp
  407650:	48 83 ec 10          	sub    $0x10,%rsp
  407654:	48 89 7d f8          	mov    %rdi,-0x8(%rbp)
  407658:	48 8b 45 f8          	mov    -0x8(%rbp),%rax
