
softmax:     file format elf64-x86-64


Disassembly of section .init:

0000000000403d78 <_init>:
  403d78:	48 83 ec 08          	sub    $0x8,%rsp
  403d7c:	48 8b 05 75 c2 20 00 	mov    0x20c275(%rip),%rax        # 60fff8 <_DYNAMIC+0x220>
  403d83:	48 85 c0             	test   %rax,%rax
  403d86:	74 05                	je     403d8d <_init+0x15>
  403d88:	e8 13 05 00 00       	callq  4042a0 <_ZN5caffe4BlobIfE9FromProtoERKNS_9BlobProtoEb@plt+0x10>
  403d8d:	48 83 c4 08          	add    $0x8,%rsp
  403d91:	c3                   	retq   

Disassembly of section .plt:

0000000000403da0 <xopenme_init@plt-0x10>:
  403da0:	ff 35 62 c2 20 00    	pushq  0x20c262(%rip)        # 610008 <_GLOBAL_OFFSET_TABLE_+0x8>
  403da6:	ff 25 64 c2 20 00    	jmpq   *0x20c264(%rip)        # 610010 <_GLOBAL_OFFSET_TABLE_+0x10>
  403dac:	0f 1f 40 00          	nopl   0x0(%rax)

0000000000403db0 <xopenme_init@plt>:
  403db0:	ff 25 62 c2 20 00    	jmpq   *0x20c262(%rip)        # 610018 <_GLOBAL_OFFSET_TABLE_+0x18>
  403db6:	68 00 00 00 00       	pushq  $0x0
  403dbb:	e9 e0 ff ff ff       	jmpq   403da0 <_init+0x28>

0000000000403dc0 <xopenme_add_var_f@plt>:
  403dc0:	ff 25 5a c2 20 00    	jmpq   *0x20c25a(%rip)        # 610020 <_GLOBAL_OFFSET_TABLE_+0x20>
  403dc6:	68 01 00 00 00       	pushq  $0x1
  403dcb:	e9 d0 ff ff ff       	jmpq   403da0 <_init+0x28>

0000000000403dd0 <_ZN5caffe16SoftmaxParameterC1Ev@plt>:
  403dd0:	ff 25 52 c2 20 00    	jmpq   *0x20c252(%rip)        # 610028 <_GLOBAL_OFFSET_TABLE_+0x28>
  403dd6:	68 02 00 00 00       	pushq  $0x2
  403ddb:	e9 c0 ff ff ff       	jmpq   403da0 <_init+0x28>

0000000000403de0 <__cxa_begin_catch@plt>:
  403de0:	ff 25 4a c2 20 00    	jmpq   *0x20c24a(%rip)        # 610030 <_GLOBAL_OFFSET_TABLE_+0x30>
  403de6:	68 03 00 00 00       	pushq  $0x3
  403deb:	e9 b0 ff ff ff       	jmpq   403da0 <_init+0x28>

0000000000403df0 <_ZN5caffe14LayerParameterC1Ev@plt>:
  403df0:	ff 25 42 c2 20 00    	jmpq   *0x20c242(%rip)        # 610038 <_GLOBAL_OFFSET_TABLE_+0x38>
  403df6:	68 04 00 00 00       	pushq  $0x4
  403dfb:	e9 a0 ff ff ff       	jmpq   403da0 <_init+0x28>

0000000000403e00 <printf@plt>:
  403e00:	ff 25 3a c2 20 00    	jmpq   *0x20c23a(%rip)        # 610040 <_GLOBAL_OFFSET_TABLE_+0x40>
  403e06:	68 05 00 00 00       	pushq  $0x5
  403e0b:	e9 90 ff ff ff       	jmpq   403da0 <_init+0x28>

0000000000403e10 <_ZN6google4base21CheckOpMessageBuilder7ForVar2Ev@plt>:
  403e10:	ff 25 32 c2 20 00    	jmpq   *0x20c232(%rip)        # 610048 <_GLOBAL_OFFSET_TABLE_+0x48>
  403e16:	68 06 00 00 00       	pushq  $0x6
  403e1b:	e9 80 ff ff ff       	jmpq   403da0 <_init+0x28>

0000000000403e20 <memcpy@plt>:
  403e20:	ff 25 2a c2 20 00    	jmpq   *0x20c22a(%rip)        # 610050 <_GLOBAL_OFFSET_TABLE_+0x50>
  403e26:	68 07 00 00 00       	pushq  $0x7
  403e2b:	e9 70 ff ff ff       	jmpq   403da0 <_init+0x28>

0000000000403e30 <_ZSt17__throw_bad_allocv@plt>:
  403e30:	ff 25 22 c2 20 00    	jmpq   *0x20c222(%rip)        # 610058 <_GLOBAL_OFFSET_TABLE_+0x58>
  403e36:	68 08 00 00 00       	pushq  $0x8
  403e3b:	e9 60 ff ff ff       	jmpq   403da0 <_init+0x28>

0000000000403e40 <_ZN6google4base21CheckOpMessageBuilderC1EPKc@plt>:
  403e40:	ff 25 1a c2 20 00    	jmpq   *0x20c21a(%rip)        # 610060 <_GLOBAL_OFFSET_TABLE_+0x60>
  403e46:	68 09 00 00 00       	pushq  $0x9
  403e4b:	e9 50 ff ff ff       	jmpq   403da0 <_init+0x28>

0000000000403e50 <_Znwm@plt>:
  403e50:	ff 25 12 c2 20 00    	jmpq   *0x20c212(%rip)        # 610068 <_GLOBAL_OFFSET_TABLE_+0x68>
  403e56:	68 0a 00 00 00       	pushq  $0xa
  403e5b:	e9 40 ff ff ff       	jmpq   403da0 <_init+0x28>

0000000000403e60 <memmove@plt>:
  403e60:	ff 25 0a c2 20 00    	jmpq   *0x20c20a(%rip)        # 610070 <_GLOBAL_OFFSET_TABLE_+0x70>
  403e66:	68 0b 00 00 00       	pushq  $0xb
  403e6b:	e9 30 ff ff ff       	jmpq   403da0 <_init+0x28>

0000000000403e70 <__assert_fail@plt>:
  403e70:	ff 25 02 c2 20 00    	jmpq   *0x20c202(%rip)        # 610078 <_GLOBAL_OFFSET_TABLE_+0x78>
  403e76:	68 0c 00 00 00       	pushq  $0xc
  403e7b:	e9 20 ff ff ff       	jmpq   403da0 <_init+0x28>

0000000000403e80 <_ZN5caffe14LayerParameter8CopyFromERKS0_@plt>:
  403e80:	ff 25 fa c1 20 00    	jmpq   *0x20c1fa(%rip)        # 610080 <_GLOBAL_OFFSET_TABLE_+0x80>
  403e86:	68 0d 00 00 00       	pushq  $0xd
  403e8b:	e9 10 ff ff ff       	jmpq   403da0 <_init+0x28>

0000000000403e90 <_ZN5caffe4BlobIfE16mutable_cpu_dataEv@plt>:
  403e90:	ff 25 f2 c1 20 00    	jmpq   *0x20c1f2(%rip)        # 610088 <_GLOBAL_OFFSET_TABLE_+0x88>
  403e96:	68 0e 00 00 00       	pushq  $0xe
  403e9b:	e9 00 ff ff ff       	jmpq   403da0 <_init+0x28>

0000000000403ea0 <_ZN5caffe4BlobIfE16mutable_cpu_diffEv@plt>:
  403ea0:	ff 25 ea c1 20 00    	jmpq   *0x20c1ea(%rip)        # 610090 <_GLOBAL_OFFSET_TABLE_+0x90>
  403ea6:	68 0f 00 00 00       	pushq  $0xf
  403eab:	e9 f0 fe ff ff       	jmpq   403da0 <_init+0x28>

0000000000403eb0 <__stack_chk_fail@plt>:
  403eb0:	ff 25 e2 c1 20 00    	jmpq   *0x20c1e2(%rip)        # 610098 <_GLOBAL_OFFSET_TABLE_+0x98>
  403eb6:	68 10 00 00 00       	pushq  $0x10
  403ebb:	e9 e0 fe ff ff       	jmpq   403da0 <_init+0x28>

0000000000403ec0 <_ZN6google4base21CheckOpMessageBuilderD1Ev@plt>:
  403ec0:	ff 25 da c1 20 00    	jmpq   *0x20c1da(%rip)        # 6100a0 <_GLOBAL_OFFSET_TABLE_+0xa0>
  403ec6:	68 11 00 00 00       	pushq  $0x11
  403ecb:	e9 d0 fe ff ff       	jmpq   403da0 <_init+0x28>

0000000000403ed0 <_ZNSolsEi@plt>:
  403ed0:	ff 25 d2 c1 20 00    	jmpq   *0x20c1d2(%rip)        # 6100a8 <_GLOBAL_OFFSET_TABLE_+0xa8>
  403ed6:	68 12 00 00 00       	pushq  $0x12
  403edb:	e9 c0 fe ff ff       	jmpq   403da0 <_init+0x28>

0000000000403ee0 <_ZN6google8protobuf5Arena11AddListNodeEPvPFvS2_E@plt>:
  403ee0:	ff 25 ca c1 20 00    	jmpq   *0x20c1ca(%rip)        # 6100b0 <_GLOBAL_OFFSET_TABLE_+0xb0>
  403ee6:	68 13 00 00 00       	pushq  $0x13
  403eeb:	e9 b0 fe ff ff       	jmpq   403da0 <_init+0x28>

0000000000403ef0 <atoi@plt>:
  403ef0:	ff 25 c2 c1 20 00    	jmpq   *0x20c1c2(%rip)        # 6100b8 <_GLOBAL_OFFSET_TABLE_+0xb8>
  403ef6:	68 14 00 00 00       	pushq  $0x14
  403efb:	e9 a0 fe ff ff       	jmpq   403da0 <_init+0x28>

0000000000403f00 <_ZdaPv@plt>:
  403f00:	ff 25 ba c1 20 00    	jmpq   *0x20c1ba(%rip)        # 6100c0 <_GLOBAL_OFFSET_TABLE_+0xc0>
  403f06:	68 15 00 00 00       	pushq  $0x15
  403f0b:	e9 90 fe ff ff       	jmpq   403da0 <_init+0x28>

0000000000403f10 <strlen@plt>:
  403f10:	ff 25 b2 c1 20 00    	jmpq   *0x20c1b2(%rip)        # 6100c8 <_GLOBAL_OFFSET_TABLE_+0xc8>
  403f16:	68 16 00 00 00       	pushq  $0x16
  403f1b:	e9 80 fe ff ff       	jmpq   403da0 <_init+0x28>

0000000000403f20 <_Znam@plt>:
  403f20:	ff 25 aa c1 20 00    	jmpq   *0x20c1aa(%rip)        # 6100d0 <_GLOBAL_OFFSET_TABLE_+0xd0>
  403f26:	68 17 00 00 00       	pushq  $0x17
  403f2b:	e9 70 fe ff ff       	jmpq   403da0 <_init+0x28>

0000000000403f30 <xopenme_add_var_i@plt>:
  403f30:	ff 25 a2 c1 20 00    	jmpq   *0x20c1a2(%rip)        # 6100d8 <_GLOBAL_OFFSET_TABLE_+0xd8>
  403f36:	68 18 00 00 00       	pushq  $0x18
  403f3b:	e9 60 fe ff ff       	jmpq   403da0 <_init+0x28>

0000000000403f40 <xopenme_get_timer@plt>:
  403f40:	ff 25 9a c1 20 00    	jmpq   *0x20c19a(%rip)        # 6100e0 <_GLOBAL_OFFSET_TABLE_+0xe0>
  403f46:	68 19 00 00 00       	pushq  $0x19
  403f4b:	e9 50 fe ff ff       	jmpq   403da0 <_init+0x28>

0000000000403f50 <xopenme_clock_end@plt>:
  403f50:	ff 25 92 c1 20 00    	jmpq   *0x20c192(%rip)        # 6100e8 <_GLOBAL_OFFSET_TABLE_+0xe8>
  403f56:	68 1a 00 00 00       	pushq  $0x1a
  403f5b:	e9 40 fe ff ff       	jmpq   403da0 <_init+0x28>

0000000000403f60 <_ZdlPv@plt>:
  403f60:	ff 25 8a c1 20 00    	jmpq   *0x20c18a(%rip)        # 6100f0 <_GLOBAL_OFFSET_TABLE_+0xf0>
  403f66:	68 1b 00 00 00       	pushq  $0x1b
  403f6b:	e9 30 fe ff ff       	jmpq   403da0 <_init+0x28>

0000000000403f70 <_ZN5caffe12SoftmaxLayerIfE11Forward_cpuERKSt6vectorIPNS_4BlobIfEESaIS5_EES9_@plt>:
  403f70:	ff 25 82 c1 20 00    	jmpq   *0x20c182(%rip)        # 6100f8 <_GLOBAL_OFFSET_TABLE_+0xf8>
  403f76:	68 1c 00 00 00       	pushq  $0x1c
  403f7b:	e9 20 fe ff ff       	jmpq   403da0 <_init+0x28>

0000000000403f80 <_ZStlsISt11char_traitsIcEERSt13basic_ostreamIcT_ES5_PKc@plt>:
  403f80:	ff 25 7a c1 20 00    	jmpq   *0x20c17a(%rip)        # 610100 <_GLOBAL_OFFSET_TABLE_+0x100>
  403f86:	68 1d 00 00 00       	pushq  $0x1d
  403f8b:	e9 10 fe ff ff       	jmpq   403da0 <_init+0x28>

0000000000403f90 <xopenme_clock_start@plt>:
  403f90:	ff 25 72 c1 20 00    	jmpq   *0x20c172(%rip)        # 610108 <_GLOBAL_OFFSET_TABLE_+0x108>
  403f96:	68 1e 00 00 00       	pushq  $0x1e
  403f9b:	e9 00 fe ff ff       	jmpq   403da0 <_init+0x28>

0000000000403fa0 <_ZN6google8protobuf8internal10LogMessageC1ENS0_8LogLevelEPKci@plt>:
  403fa0:	ff 25 6a c1 20 00    	jmpq   *0x20c16a(%rip)        # 610110 <_GLOBAL_OFFSET_TABLE_+0x110>
  403fa6:	68 1f 00 00 00       	pushq  $0x1f
  403fab:	e9 f0 fd ff ff       	jmpq   403da0 <_init+0x28>

0000000000403fb0 <__gxx_personality_v0@plt>:
  403fb0:	ff 25 62 c1 20 00    	jmpq   *0x20c162(%rip)        # 610118 <_GLOBAL_OFFSET_TABLE_+0x118>
  403fb6:	68 20 00 00 00       	pushq  $0x20
  403fbb:	e9 e0 fd ff ff       	jmpq   403da0 <_init+0x28>

0000000000403fc0 <_ZSt20__throw_length_errorPKc@plt>:
  403fc0:	ff 25 5a c1 20 00    	jmpq   *0x20c15a(%rip)        # 610120 <_GLOBAL_OFFSET_TABLE_+0x120>
  403fc6:	68 21 00 00 00       	pushq  $0x21
  403fcb:	e9 d0 fd ff ff       	jmpq   403da0 <_init+0x28>

0000000000403fd0 <_ZNK5caffe4BlobIfE8cpu_dataEv@plt>:
  403fd0:	ff 25 52 c1 20 00    	jmpq   *0x20c152(%rip)        # 610128 <_GLOBAL_OFFSET_TABLE_+0x128>
  403fd6:	68 22 00 00 00       	pushq  $0x22
  403fdb:	e9 c0 fd ff ff       	jmpq   403da0 <_init+0x28>

0000000000403fe0 <_ZN6google15LogMessageFatalC1EPKciRKNS_13CheckOpStringE@plt>:
  403fe0:	ff 25 4a c1 20 00    	jmpq   *0x20c14a(%rip)        # 610130 <_GLOBAL_OFFSET_TABLE_+0x130>
  403fe6:	68 23 00 00 00       	pushq  $0x23
  403feb:	e9 b0 fd ff ff       	jmpq   403da0 <_init+0x28>

0000000000403ff0 <_Unwind_Resume@plt>:
  403ff0:	ff 25 42 c1 20 00    	jmpq   *0x20c142(%rip)        # 610138 <_GLOBAL_OFFSET_TABLE_+0x138>
  403ff6:	68 24 00 00 00       	pushq  $0x24
  403ffb:	e9 a0 fd ff ff       	jmpq   403da0 <_init+0x28>

0000000000404000 <_ZNSt8ios_base4InitD1Ev@plt>:
  404000:	ff 25 3a c1 20 00    	jmpq   *0x20c13a(%rip)        # 610140 <_GLOBAL_OFFSET_TABLE_+0x140>
  404006:	68 25 00 00 00       	pushq  $0x25
  40400b:	e9 90 fd ff ff       	jmpq   403da0 <_init+0x28>

0000000000404010 <_ZN5caffe9BlobProtoC1Ev@plt>:
  404010:	ff 25 32 c1 20 00    	jmpq   *0x20c132(%rip)        # 610148 <_GLOBAL_OFFSET_TABLE_+0x148>
  404016:	68 26 00 00 00       	pushq  $0x26
  40401b:	e9 80 fd ff ff       	jmpq   403da0 <_init+0x28>

0000000000404020 <_ZN5caffe12SoftmaxLayerIfE12Backward_cpuERKSt6vectorIPNS_4BlobIfEESaIS5_EERKS2_IbSaIbEES9_@plt>:
  404020:	ff 25 2a c1 20 00    	jmpq   *0x20c12a(%rip)        # 610150 <_GLOBAL_OFFSET_TABLE_+0x150>
  404026:	68 27 00 00 00       	pushq  $0x27
  40402b:	e9 70 fd ff ff       	jmpq   403da0 <_init+0x28>

0000000000404030 <_ZNK5caffe4BlobIfE8cpu_diffEv@plt>:
  404030:	ff 25 22 c1 20 00    	jmpq   *0x20c122(%rip)        # 610158 <_GLOBAL_OFFSET_TABLE_+0x158>
  404036:	68 28 00 00 00       	pushq  $0x28
  40403b:	e9 60 fd ff ff       	jmpq   403da0 <_init+0x28>

0000000000404040 <_ZN5caffe9caffe_setIfEEviT_PS1_@plt>:
  404040:	ff 25 1a c1 20 00    	jmpq   *0x20c11a(%rip)        # 610160 <_GLOBAL_OFFSET_TABLE_+0x160>
  404046:	68 29 00 00 00       	pushq  $0x29
  40404b:	e9 50 fd ff ff       	jmpq   403da0 <_init+0x28>

0000000000404050 <getenv@plt>:
  404050:	ff 25 12 c1 20 00    	jmpq   *0x20c112(%rip)        # 610168 <_GLOBAL_OFFSET_TABLE_+0x168>
  404056:	68 2a 00 00 00       	pushq  $0x2a
  40405b:	e9 40 fd ff ff       	jmpq   403da0 <_init+0x28>

0000000000404060 <__cxa_end_catch@plt>:
  404060:	ff 25 0a c1 20 00    	jmpq   *0x20c10a(%rip)        # 610170 <_GLOBAL_OFFSET_TABLE_+0x170>
  404066:	68 2b 00 00 00       	pushq  $0x2b
  40406b:	e9 30 fd ff ff       	jmpq   403da0 <_init+0x28>

0000000000404070 <_ZN6google8protobuf5Arena15AllocateAlignedEPKSt9type_infom@plt>:
  404070:	ff 25 02 c1 20 00    	jmpq   *0x20c102(%rip)        # 610178 <_GLOBAL_OFFSET_TABLE_+0x178>
  404076:	68 2c 00 00 00       	pushq  $0x2c
  40407b:	e9 20 fd ff ff       	jmpq   403da0 <_init+0x28>

0000000000404080 <_ZN6google8protobuf8internal11LogFinisheraSERNS1_10LogMessageE@plt>:
  404080:	ff 25 fa c0 20 00    	jmpq   *0x20c0fa(%rip)        # 610180 <_GLOBAL_OFFSET_TABLE_+0x180>
  404086:	68 2d 00 00 00       	pushq  $0x2d
  40408b:	e9 10 fd ff ff       	jmpq   403da0 <_init+0x28>

0000000000404090 <__cxa_rethrow@plt>:
  404090:	ff 25 f2 c0 20 00    	jmpq   *0x20c0f2(%rip)        # 610188 <_GLOBAL_OFFSET_TABLE_+0x188>
  404096:	68 2e 00 00 00       	pushq  $0x2e
  40409b:	e9 00 fd ff ff       	jmpq   403da0 <_init+0x28>

00000000004040a0 <__cxa_throw_bad_array_new_length@plt>:
  4040a0:	ff 25 ea c0 20 00    	jmpq   *0x20c0ea(%rip)        # 610190 <_GLOBAL_OFFSET_TABLE_+0x190>
  4040a6:	68 2f 00 00 00       	pushq  $0x2f
  4040ab:	e9 f0 fc ff ff       	jmpq   403da0 <_init+0x28>

00000000004040b0 <_ZN5caffe5Caffe3GetEv@plt>:
  4040b0:	ff 25 e2 c0 20 00    	jmpq   *0x20c0e2(%rip)        # 610198 <_GLOBAL_OFFSET_TABLE_+0x198>
  4040b6:	68 30 00 00 00       	pushq  $0x30
  4040bb:	e9 e0 fc ff ff       	jmpq   403da0 <_init+0x28>

00000000004040c0 <_ZN5caffe12SyncedMemory8cpu_dataEv@plt>:
  4040c0:	ff 25 da c0 20 00    	jmpq   *0x20c0da(%rip)        # 6101a0 <_GLOBAL_OFFSET_TABLE_+0x1a0>
  4040c6:	68 31 00 00 00       	pushq  $0x31
  4040cb:	e9 d0 fc ff ff       	jmpq   403da0 <_init+0x28>

00000000004040d0 <__cxa_atexit@plt>:
  4040d0:	ff 25 d2 c0 20 00    	jmpq   *0x20c0d2(%rip)        # 6101a8 <_GLOBAL_OFFSET_TABLE_+0x1a8>
  4040d6:	68 32 00 00 00       	pushq  $0x32
  4040db:	e9 c0 fc ff ff       	jmpq   403da0 <_init+0x28>

00000000004040e0 <_ZN6google15LogMessageFatalD1Ev@plt>:
  4040e0:	ff 25 ca c0 20 00    	jmpq   *0x20c0ca(%rip)        # 6101b0 <_GLOBAL_OFFSET_TABLE_+0x1b0>
  4040e6:	68 33 00 00 00       	pushq  $0x33
  4040eb:	e9 b0 fc ff ff       	jmpq   403da0 <_init+0x28>

00000000004040f0 <_ZN6google8protobuf8internal10LogMessageD1Ev@plt>:
  4040f0:	ff 25 c2 c0 20 00    	jmpq   *0x20c0c2(%rip)        # 6101b8 <_GLOBAL_OFFSET_TABLE_+0x1b8>
  4040f6:	68 34 00 00 00       	pushq  $0x34
  4040fb:	e9 a0 fc ff ff       	jmpq   403da0 <_init+0x28>

0000000000404100 <__cxa_pure_virtual@plt>:
  404100:	ff 25 ba c0 20 00    	jmpq   *0x20c0ba(%rip)        # 6101c0 <_GLOBAL_OFFSET_TABLE_+0x1c0>
  404106:	68 35 00 00 00       	pushq  $0x35
  40410b:	e9 90 fc ff ff       	jmpq   403da0 <_init+0x28>

0000000000404110 <_ZN6google4base21CheckOpMessageBuilder9NewStringB5cxx11Ev@plt>:
  404110:	ff 25 b2 c0 20 00    	jmpq   *0x20c0b2(%rip)        # 6101c8 <_GLOBAL_OFFSET_TABLE_+0x1c8>
  404116:	68 36 00 00 00       	pushq  $0x36
  40411b:	e9 80 fc ff ff       	jmpq   403da0 <_init+0x28>

0000000000404120 <__libc_start_main@plt>:
  404120:	ff 25 aa c0 20 00    	jmpq   *0x20c0aa(%rip)        # 6101d0 <_GLOBAL_OFFSET_TABLE_+0x1d0>
  404126:	68 37 00 00 00       	pushq  $0x37
  40412b:	e9 70 fc ff ff       	jmpq   403da0 <_init+0x28>

0000000000404130 <rand@plt>:
  404130:	ff 25 a2 c0 20 00    	jmpq   *0x20c0a2(%rip)        # 6101d8 <_GLOBAL_OFFSET_TABLE_+0x1d8>
  404136:	68 38 00 00 00       	pushq  $0x38
  40413b:	e9 60 fc ff ff       	jmpq   403da0 <_init+0x28>

0000000000404140 <_ZN5caffe4BlobIfEC1Eiiii@plt>:
  404140:	ff 25 9a c0 20 00    	jmpq   *0x20c09a(%rip)        # 6101e0 <_GLOBAL_OFFSET_TABLE_+0x1e0>
  404146:	68 39 00 00 00       	pushq  $0x39
  40414b:	e9 50 fc ff ff       	jmpq   403da0 <_init+0x28>

0000000000404150 <_ZNSt8ios_base4InitC1Ev@plt>:
  404150:	ff 25 92 c0 20 00    	jmpq   *0x20c092(%rip)        # 6101e8 <_GLOBAL_OFFSET_TABLE_+0x1e8>
  404156:	68 3a 00 00 00       	pushq  $0x3a
  40415b:	e9 40 fc ff ff       	jmpq   403da0 <_init+0x28>

0000000000404160 <_ZN6google10LogMessage6streamEv@plt>:
  404160:	ff 25 8a c0 20 00    	jmpq   *0x20c08a(%rip)        # 6101f0 <_GLOBAL_OFFSET_TABLE_+0x1f0>
  404166:	68 3b 00 00 00       	pushq  $0x3b
  40416b:	e9 30 fc ff ff       	jmpq   403da0 <_init+0x28>

0000000000404170 <puts@plt>:
  404170:	ff 25 82 c0 20 00    	jmpq   *0x20c082(%rip)        # 6101f8 <_GLOBAL_OFFSET_TABLE_+0x1f8>
  404176:	68 3c 00 00 00       	pushq  $0x3c
  40417b:	e9 20 fc ff ff       	jmpq   403da0 <_init+0x28>

0000000000404180 <sprintf@plt>:
  404180:	ff 25 7a c0 20 00    	jmpq   *0x20c07a(%rip)        # 610200 <_GLOBAL_OFFSET_TABLE_+0x200>
  404186:	68 3d 00 00 00       	pushq  $0x3d
  40418b:	e9 10 fc ff ff       	jmpq   403da0 <_init+0x28>

0000000000404190 <_ZNSolsEm@plt>:
  404190:	ff 25 72 c0 20 00    	jmpq   *0x20c072(%rip)        # 610208 <_GLOBAL_OFFSET_TABLE_+0x208>
  404196:	68 3e 00 00 00       	pushq  $0x3e
  40419b:	e9 00 fc ff ff       	jmpq   403da0 <_init+0x28>

00000000004041a0 <_ZNK5caffe4BlobIfE7ToProtoEPNS_9BlobProtoEb@plt>:
  4041a0:	ff 25 6a c0 20 00    	jmpq   *0x20c06a(%rip)        # 610210 <_GLOBAL_OFFSET_TABLE_+0x210>
  4041a6:	68 3f 00 00 00       	pushq  $0x3f
  4041ab:	e9 f0 fb ff ff       	jmpq   403da0 <_init+0x28>

00000000004041b0 <_ZN5caffe12SoftmaxLayerIfE12Backward_gpuERKSt6vectorIPNS_4BlobIfEESaIS5_EERKS2_IbSaIbEES9_@plt>:
  4041b0:	ff 25 62 c0 20 00    	jmpq   *0x20c062(%rip)        # 610218 <_GLOBAL_OFFSET_TABLE_+0x218>
  4041b6:	68 40 00 00 00       	pushq  $0x40
  4041bb:	e9 e0 fb ff ff       	jmpq   403da0 <_init+0x28>

00000000004041c0 <_ZN5caffe12SoftmaxLayerIfE11Forward_gpuERKSt6vectorIPNS_4BlobIfEESaIS5_EES9_@plt>:
  4041c0:	ff 25 5a c0 20 00    	jmpq   *0x20c05a(%rip)        # 610220 <_GLOBAL_OFFSET_TABLE_+0x220>
  4041c6:	68 41 00 00 00       	pushq  $0x41
  4041cb:	e9 d0 fb ff ff       	jmpq   403da0 <_init+0x28>

00000000004041d0 <putchar@plt>:
  4041d0:	ff 25 52 c0 20 00    	jmpq   *0x20c052(%rip)        # 610228 <_GLOBAL_OFFSET_TABLE_+0x228>
  4041d6:	68 42 00 00 00       	pushq  $0x42
  4041db:	e9 c0 fb ff ff       	jmpq   403da0 <_init+0x28>

00000000004041e0 <_ZN5caffe12SoftmaxLayerIfE7ReshapeERKSt6vectorIPNS_4BlobIfEESaIS5_EES9_@plt>:
  4041e0:	ff 25 4a c0 20 00    	jmpq   *0x20c04a(%rip)        # 610230 <_GLOBAL_OFFSET_TABLE_+0x230>
  4041e6:	68 43 00 00 00       	pushq  $0x43
  4041eb:	e9 b0 fb ff ff       	jmpq   403da0 <_init+0x28>

00000000004041f0 <_ZN5caffe14LayerParameterC1ERKS0_@plt>:
  4041f0:	ff 25 42 c0 20 00    	jmpq   *0x20c042(%rip)        # 610238 <_GLOBAL_OFFSET_TABLE_+0x238>
  4041f6:	68 44 00 00 00       	pushq  $0x44
  4041fb:	e9 a0 fb ff ff       	jmpq   403da0 <_init+0x28>

0000000000404200 <xopenme_dump_state@plt>:
  404200:	ff 25 3a c0 20 00    	jmpq   *0x20c03a(%rip)        # 610240 <_GLOBAL_OFFSET_TABLE_+0x240>
  404206:	68 45 00 00 00       	pushq  $0x45
  40420b:	e9 90 fb ff ff       	jmpq   403da0 <_init+0x28>

0000000000404210 <_ZN5caffe13caffe_cpu_dotIfEET_iPKS1_S3_@plt>:
  404210:	ff 25 32 c0 20 00    	jmpq   *0x20c032(%rip)        # 610248 <_GLOBAL_OFFSET_TABLE_+0x248>
  404216:	68 46 00 00 00       	pushq  $0x46
  40421b:	e9 80 fb ff ff       	jmpq   403da0 <_init+0x28>

0000000000404220 <srand@plt>:
  404220:	ff 25 2a c0 20 00    	jmpq   *0x20c02a(%rip)        # 610250 <_GLOBAL_OFFSET_TABLE_+0x250>
  404226:	68 47 00 00 00       	pushq  $0x47
  40422b:	e9 70 fb ff ff       	jmpq   403da0 <_init+0x28>

0000000000404230 <_ZN6google8protobuf8internal20RepeatedPtrFieldBase7ReserveEi@plt>:
  404230:	ff 25 22 c0 20 00    	jmpq   *0x20c022(%rip)        # 610258 <_GLOBAL_OFFSET_TABLE_+0x258>
  404236:	68 48 00 00 00       	pushq  $0x48
  40423b:	e9 60 fb ff ff       	jmpq   403da0 <_init+0x28>

0000000000404240 <xopenme_finish@plt>:
  404240:	ff 25 1a c0 20 00    	jmpq   *0x20c01a(%rip)        # 610260 <_GLOBAL_OFFSET_TABLE_+0x260>
  404246:	68 49 00 00 00       	pushq  $0x49
  40424b:	e9 50 fb ff ff       	jmpq   403da0 <_init+0x28>

0000000000404250 <xopenme_dump_memory@plt>:
  404250:	ff 25 12 c0 20 00    	jmpq   *0x20c012(%rip)        # 610268 <_GLOBAL_OFFSET_TABLE_+0x268>
  404256:	68 4a 00 00 00       	pushq  $0x4a
  40425b:	e9 40 fb ff ff       	jmpq   403da0 <_init+0x28>

0000000000404260 <_ZN6google15LogMessageFatalC1EPKci@plt>:
  404260:	ff 25 0a c0 20 00    	jmpq   *0x20c00a(%rip)        # 610270 <_GLOBAL_OFFSET_TABLE_+0x270>
  404266:	68 4b 00 00 00       	pushq  $0x4b
  40426b:	e9 30 fb ff ff       	jmpq   403da0 <_init+0x28>

0000000000404270 <_ZN5caffe14LayerParameterD1Ev@plt>:
  404270:	ff 25 02 c0 20 00    	jmpq   *0x20c002(%rip)        # 610278 <_GLOBAL_OFFSET_TABLE_+0x278>
  404276:	68 4c 00 00 00       	pushq  $0x4c
  40427b:	e9 20 fb ff ff       	jmpq   403da0 <_init+0x28>

0000000000404280 <_ZN6google8protobuf8internal10LogMessagelsEPKc@plt>:
  404280:	ff 25 fa bf 20 00    	jmpq   *0x20bffa(%rip)        # 610280 <_GLOBAL_OFFSET_TABLE_+0x280>
  404286:	68 4d 00 00 00       	pushq  $0x4d
  40428b:	e9 10 fb ff ff       	jmpq   403da0 <_init+0x28>

0000000000404290 <_ZN5caffe4BlobIfE9FromProtoERKNS_9BlobProtoEb@plt>:
  404290:	ff 25 f2 bf 20 00    	jmpq   *0x20bff2(%rip)        # 610288 <_GLOBAL_OFFSET_TABLE_+0x288>
  404296:	68 4e 00 00 00       	pushq  $0x4e
  40429b:	e9 00 fb ff ff       	jmpq   403da0 <_init+0x28>

Disassembly of section .plt.got:

00000000004042a0 <.plt.got>:
  4042a0:	ff 25 52 bd 20 00    	jmpq   *0x20bd52(%rip)        # 60fff8 <_DYNAMIC+0x220>
  4042a6:	66 90                	xchg   %ax,%ax

Disassembly of section .text:

00000000004042b0 <_start>:
  4042b0:	31 ed                	xor    %ebp,%ebp
  4042b2:	49 89 d1             	mov    %rdx,%r9
  4042b5:	5e                   	pop    %rsi
  4042b6:	48 89 e2             	mov    %rsp,%rdx
  4042b9:	48 83 e4 f0          	and    $0xfffffffffffffff0,%rsp
  4042bd:	50                   	push   %rax
  4042be:	54                   	push   %rsp
  4042bf:	49 c7 c0 10 ab 40 00 	mov    $0x40ab10,%r8
  4042c6:	48 c7 c1 a0 aa 40 00 	mov    $0x40aaa0,%rcx
  4042cd:	48 c7 c7 fa 43 40 00 	mov    $0x4043fa,%rdi
  4042d4:	e8 47 fe ff ff       	callq  404120 <__libc_start_main@plt>
  4042d9:	f4                   	hlt    
  4042da:	66 0f 1f 44 00 00    	nopw   0x0(%rax,%rax,1)

00000000004042e0 <deregister_tm_clones>:
  4042e0:	b8 a7 02 61 00       	mov    $0x6102a7,%eax
  4042e5:	55                   	push   %rbp
  4042e6:	48 2d a0 02 61 00    	sub    $0x6102a0,%rax
  4042ec:	48 83 f8 0e          	cmp    $0xe,%rax
  4042f0:	48 89 e5             	mov    %rsp,%rbp
  4042f3:	76 1b                	jbe    404310 <deregister_tm_clones+0x30>
  4042f5:	b8 00 00 00 00       	mov    $0x0,%eax
  4042fa:	48 85 c0             	test   %rax,%rax
  4042fd:	74 11                	je     404310 <deregister_tm_clones+0x30>
  4042ff:	5d                   	pop    %rbp
  404300:	bf a0 02 61 00       	mov    $0x6102a0,%edi
  404305:	ff e0                	jmpq   *%rax
  404307:	66 0f 1f 84 00 00 00 	nopw   0x0(%rax,%rax,1)
  40430e:	00 00 
  404310:	5d                   	pop    %rbp
  404311:	c3                   	retq   
  404312:	0f 1f 40 00          	nopl   0x0(%rax)
  404316:	66 2e 0f 1f 84 00 00 	nopw   %cs:0x0(%rax,%rax,1)
  40431d:	00 00 00 

0000000000404320 <register_tm_clones>:
  404320:	be a0 02 61 00       	mov    $0x6102a0,%esi
  404325:	55                   	push   %rbp
  404326:	48 81 ee a0 02 61 00 	sub    $0x6102a0,%rsi
  40432d:	48 c1 fe 03          	sar    $0x3,%rsi
  404331:	48 89 e5             	mov    %rsp,%rbp
  404334:	48 89 f0             	mov    %rsi,%rax
  404337:	48 c1 e8 3f          	shr    $0x3f,%rax
  40433b:	48 01 c6             	add    %rax,%rsi
  40433e:	48 d1 fe             	sar    %rsi
  404341:	74 15                	je     404358 <register_tm_clones+0x38>
  404343:	b8 00 00 00 00       	mov    $0x0,%eax
  404348:	48 85 c0             	test   %rax,%rax
  40434b:	74 0b                	je     404358 <register_tm_clones+0x38>
  40434d:	5d                   	pop    %rbp
  40434e:	bf a0 02 61 00       	mov    $0x6102a0,%edi
  404353:	ff e0                	jmpq   *%rax
  404355:	0f 1f 00             	nopl   (%rax)
  404358:	5d                   	pop    %rbp
  404359:	c3                   	retq   
  40435a:	66 0f 1f 44 00 00    	nopw   0x0(%rax,%rax,1)

0000000000404360 <__do_global_dtors_aux>:
  404360:	80 3d 01 c0 20 00 00 	cmpb   $0x0,0x20c001(%rip)        # 610368 <completed.7583>
  404367:	75 11                	jne    40437a <__do_global_dtors_aux+0x1a>
  404369:	55                   	push   %rbp
  40436a:	48 89 e5             	mov    %rsp,%rbp
  40436d:	e8 6e ff ff ff       	callq  4042e0 <deregister_tm_clones>
  404372:	5d                   	pop    %rbp
  404373:	c6 05 ee bf 20 00 01 	movb   $0x1,0x20bfee(%rip)        # 610368 <completed.7583>
  40437a:	f3 c3                	repz retq 
  40437c:	0f 1f 40 00          	nopl   0x0(%rax)

0000000000404380 <frame_dummy>:
  404380:	bf d0 fd 60 00       	mov    $0x60fdd0,%edi
  404385:	48 83 3f 00          	cmpq   $0x0,(%rdi)
  404389:	75 05                	jne    404390 <frame_dummy+0x10>
  40438b:	eb 93                	jmp    404320 <register_tm_clones>
  40438d:	0f 1f 00             	nopl   (%rax)
  404390:	b8 00 00 00 00       	mov    $0x0,%eax
  404395:	48 85 c0             	test   %rax,%rax
  404398:	74 f1                	je     40438b <frame_dummy+0xb>
  40439a:	55                   	push   %rbp
  40439b:	48 89 e5             	mov    %rsp,%rbp
  40439e:	ff d0                	callq  *%rax
  4043a0:	5d                   	pop    %rbp
  4043a1:	e9 7a ff ff ff       	jmpq   404320 <register_tm_clones>

00000000004043a6 <_ZN2CK16store_setup_timeEf>:
  4043a6:	55                   	push   %rbp
  4043a7:	48 89 e5             	mov    %rsp,%rbp
  4043aa:	48 83 ec 10          	sub    $0x10,%rsp
  4043ae:	f3 0f 11 45 fc       	movss  %xmm0,-0x4(%rbp)
  4043b3:	8b 45 fc             	mov    -0x4(%rbp),%eax
  4043b6:	89 45 f8             	mov    %eax,-0x8(%rbp)
  4043b9:	f3 0f 10 45 f8       	movss  -0x8(%rbp),%xmm0
  4043be:	be c0 ad 40 00       	mov    $0x40adc0,%esi
  4043c3:	bf 0a 00 00 00       	mov    $0xa,%edi
  4043c8:	e8 dd 06 00 00       	callq  404aaa <_ZN2CK13store_value_fEiPKcf>
  4043cd:	90                   	nop
  4043ce:	c9                   	leaveq 
  4043cf:	c3                   	retq   

00000000004043d0 <_ZN2CK15store_test_timeEf>:
  4043d0:	55                   	push   %rbp
  4043d1:	48 89 e5             	mov    %rsp,%rbp
  4043d4:	48 83 ec 10          	sub    $0x10,%rsp
  4043d8:	f3 0f 11 45 fc       	movss  %xmm0,-0x4(%rbp)
  4043dd:	8b 45 fc             	mov    -0x4(%rbp),%eax
  4043e0:	89 45 f8             	mov    %eax,-0x8(%rbp)
  4043e3:	f3 0f 10 45 f8       	movss  -0x8(%rbp),%xmm0
  4043e8:	be cb ad 40 00       	mov    $0x40adcb,%esi
  4043ed:	bf 0b 00 00 00       	mov    $0xb,%edi
  4043f2:	e8 b3 06 00 00       	callq  404aaa <_ZN2CK13store_value_fEiPKcf>
  4043f7:	90                   	nop
  4043f8:	c9                   	leaveq 
  4043f9:	c3                   	retq   

00000000004043fa <main>:
  4043fa:	55                   	push   %rbp
  4043fb:	48 89 e5             	mov    %rsp,%rbp
  4043fe:	bf 00 00 00 00       	mov    $0x0,%edi
  404403:	e8 27 03 00 00       	callq  40472f <_ZN5caffe5Caffe8set_modeENS0_4BrewE>
  404408:	e8 94 09 00 00       	callq  404da1 <_ZN2CK5Caffe12test_softmaxEv>
  40440d:	b8 00 00 00 00       	mov    $0x0,%eax
  404412:	5d                   	pop    %rbp
  404413:	c3                   	retq   

0000000000404414 <_Z41__static_initialization_and_destruction_0ii>:
  404414:	55                   	push   %rbp
  404415:	48 89 e5             	mov    %rsp,%rbp
  404418:	48 83 ec 10          	sub    $0x10,%rsp
  40441c:	89 7d fc             	mov    %edi,-0x4(%rbp)
  40441f:	89 75 f8             	mov    %esi,-0x8(%rbp)
  404422:	83 7d fc 01          	cmpl   $0x1,-0x4(%rbp)
  404426:	75 27                	jne    40444f <_Z41__static_initialization_and_destruction_0ii+0x3b>
  404428:	81 7d f8 ff ff 00 00 	cmpl   $0xffff,-0x8(%rbp)
  40442f:	75 1e                	jne    40444f <_Z41__static_initialization_and_destruction_0ii+0x3b>
  404431:	bf 69 03 61 00       	mov    $0x610369,%edi
  404436:	e8 15 fd ff ff       	callq  404150 <_ZNSt8ios_base4InitC1Ev@plt>
  40443b:	ba 98 02 61 00       	mov    $0x610298,%edx
  404440:	be 69 03 61 00       	mov    $0x610369,%esi
  404445:	bf 00 40 40 00       	mov    $0x404000,%edi
  40444a:	e8 81 fc ff ff       	callq  4040d0 <__cxa_atexit@plt>
  40444f:	90                   	nop
  404450:	c9                   	leaveq 
  404451:	c3                   	retq   

0000000000404452 <_GLOBAL__sub_I__ZN2CK16store_setup_timeEf>:
  404452:	55                   	push   %rbp
  404453:	48 89 e5             	mov    %rsp,%rbp
  404456:	be ff ff 00 00       	mov    $0xffff,%esi
  40445b:	bf 01 00 00 00       	mov    $0x1,%edi
  404460:	e8 af ff ff ff       	callq  404414 <_Z41__static_initialization_and_destruction_0ii>
  404465:	5d                   	pop    %rbp
  404466:	c3                   	retq   

0000000000404467 <_ZnwmPv>:
  404467:	55                   	push   %rbp
  404468:	48 89 e5             	mov    %rsp,%rbp
  40446b:	48 89 7d f8          	mov    %rdi,-0x8(%rbp)
  40446f:	48 89 75 f0          	mov    %rsi,-0x10(%rbp)
  404473:	48 8b 45 f0          	mov    -0x10(%rbp),%rax
  404477:	5d                   	pop    %rbp
  404478:	c3                   	retq   

0000000000404479 <_ZdlPvS_>:
  404479:	55                   	push   %rbp
  40447a:	48 89 e5             	mov    %rsp,%rbp
  40447d:	48 89 7d f8          	mov    %rdi,-0x8(%rbp)
  404481:	48 89 75 f0          	mov    %rsi,-0x10(%rbp)
  404485:	90                   	nop
  404486:	5d                   	pop    %rbp
  404487:	c3                   	retq   

0000000000404488 <_ZNSt8iteratorISt26random_access_iterator_tagblPbRbEC1Ev>:
  404488:	55                   	push   %rbp
  404489:	48 89 e5             	mov    %rsp,%rbp
  40448c:	48 89 7d f8          	mov    %rdi,-0x8(%rbp)
  404490:	90                   	nop
  404491:	5d                   	pop    %rbp
  404492:	c3                   	retq   
  404493:	90                   	nop

0000000000404494 <_ZNSt18_Bit_iterator_baseC1EPmj>:
  404494:	55                   	push   %rbp
  404495:	48 89 e5             	mov    %rsp,%rbp
  404498:	48 83 ec 20          	sub    $0x20,%rsp
  40449c:	48 89 7d f8          	mov    %rdi,-0x8(%rbp)
  4044a0:	48 89 75 f0          	mov    %rsi,-0x10(%rbp)
  4044a4:	89 55 ec             	mov    %edx,-0x14(%rbp)
  4044a7:	48 8b 45 f8          	mov    -0x8(%rbp),%rax
  4044ab:	48 89 c7             	mov    %rax,%rdi
  4044ae:	e8 d5 ff ff ff       	callq  404488 <_ZNSt8iteratorISt26random_access_iterator_tagblPbRbEC1Ev>
  4044b3:	48 8b 45 f8          	mov    -0x8(%rbp),%rax
  4044b7:	48 8b 55 f0          	mov    -0x10(%rbp),%rdx
  4044bb:	48 89 10             	mov    %rdx,(%rax)
  4044be:	48 8b 45 f8          	mov    -0x8(%rbp),%rax
  4044c2:	8b 55 ec             	mov    -0x14(%rbp),%edx
  4044c5:	89 50 08             	mov    %edx,0x8(%rax)
  4044c8:	90                   	nop
  4044c9:	c9                   	leaveq 
  4044ca:	c3                   	retq   
  4044cb:	90                   	nop

00000000004044cc <_ZNSt13_Bit_iteratorC1Ev>:
  4044cc:	55                   	push   %rbp
  4044cd:	48 89 e5             	mov    %rsp,%rbp
  4044d0:	48 83 ec 10          	sub    $0x10,%rsp
  4044d4:	48 89 7d f8          	mov    %rdi,-0x8(%rbp)
  4044d8:	48 8b 45 f8          	mov    -0x8(%rbp),%rax
  4044dc:	ba 00 00 00 00       	mov    $0x0,%edx
  4044e1:	be 00 00 00 00       	mov    $0x0,%esi
  4044e6:	48 89 c7             	mov    %rax,%rdi
  4044e9:	e8 a6 ff ff ff       	callq  404494 <_ZNSt18_Bit_iterator_baseC1EPmj>
  4044ee:	90                   	nop
  4044ef:	c9                   	leaveq 
  4044f0:	c3                   	retq   

00000000004044f1 <_ZN5boost6detail23atomic_exchange_and_addEPii>:
  4044f1:	55                   	push   %rbp
  4044f2:	48 89 e5             	mov    %rsp,%rbp
  4044f5:	48 89 7d e8          	mov    %rdi,-0x18(%rbp)
  4044f9:	89 75 e4             	mov    %esi,-0x1c(%rbp)
  4044fc:	48 8b 55 e8          	mov    -0x18(%rbp),%rdx
  404500:	48 8b 4d e8          	mov    -0x18(%rbp),%rcx
  404504:	8b 45 e4             	mov    -0x1c(%rbp),%eax
  404507:	f0 0f c1 02          	lock xadd %eax,(%rdx)
  40450b:	89 45 fc             	mov    %eax,-0x4(%rbp)
  40450e:	8b 45 fc             	mov    -0x4(%rbp),%eax
  404511:	5d                   	pop    %rbp
  404512:	c3                   	retq   
  404513:	90                   	nop

0000000000404514 <_ZN5boost6detail15sp_counted_baseC1Ev>:
  404514:	55                   	push   %rbp
  404515:	48 89 e5             	mov    %rsp,%rbp
  404518:	48 89 7d f8          	mov    %rdi,-0x8(%rbp)
  40451c:	ba f8 b7 40 00       	mov    $0x40b7f8,%edx
  404521:	48 8b 45 f8          	mov    -0x8(%rbp),%rax
  404525:	48 89 10             	mov    %rdx,(%rax)
  404528:	48 8b 45 f8          	mov    -0x8(%rbp),%rax
  40452c:	c7 40 08 01 00 00 00 	movl   $0x1,0x8(%rax)
  404533:	48 8b 45 f8          	mov    -0x8(%rbp),%rax
  404537:	c7 40 0c 01 00 00 00 	movl   $0x1,0xc(%rax)
  40453e:	90                   	nop
  40453f:	5d                   	pop    %rbp
  404540:	c3                   	retq   
  404541:	90                   	nop

0000000000404542 <_ZN5boost6detail15sp_counted_baseD1Ev>:
  404542:	55                   	push   %rbp
  404543:	48 89 e5             	mov    %rsp,%rbp
  404546:	48 89 7d f8          	mov    %rdi,-0x8(%rbp)
  40454a:	ba f8 b7 40 00       	mov    $0x40b7f8,%edx
  40454f:	48 8b 45 f8          	mov    -0x8(%rbp),%rax
  404553:	48 89 10             	mov    %rdx,(%rax)
  404556:	90                   	nop
  404557:	5d                   	pop    %rbp
  404558:	c3                   	retq   
  404559:	90                   	nop

000000000040455a <_ZN5boost6detail15sp_counted_baseD0Ev>:
  40455a:	55                   	push   %rbp
  40455b:	48 89 e5             	mov    %rsp,%rbp
  40455e:	48 83 ec 10          	sub    $0x10,%rsp
  404562:	48 89 7d f8          	mov    %rdi,-0x8(%rbp)
  404566:	48 8b 45 f8          	mov    -0x8(%rbp),%rax
  40456a:	48 89 c7             	mov    %rax,%rdi
  40456d:	e8 d0 ff ff ff       	callq  404542 <_ZN5boost6detail15sp_counted_baseD1Ev>
  404572:	48 8b 45 f8          	mov    -0x8(%rbp),%rax
  404576:	48 89 c7             	mov    %rax,%rdi
  404579:	e8 e2 f9 ff ff       	callq  403f60 <_ZdlPv@plt>
  40457e:	c9                   	leaveq 
  40457f:	c3                   	retq   

0000000000404580 <_ZN5boost6detail15sp_counted_base7destroyEv>:
  404580:	55                   	push   %rbp
  404581:	48 89 e5             	mov    %rsp,%rbp
  404584:	48 83 ec 10          	sub    $0x10,%rsp
  404588:	48 89 7d f8          	mov    %rdi,-0x8(%rbp)
  40458c:	48 83 7d f8 00       	cmpq   $0x0,-0x8(%rbp)
  404591:	74 17                	je     4045aa <_ZN5boost6detail15sp_counted_base7destroyEv+0x2a>
  404593:	48 8b 45 f8          	mov    -0x8(%rbp),%rax
  404597:	48 8b 00             	mov    (%rax),%rax
  40459a:	48 83 c0 08          	add    $0x8,%rax
  40459e:	48 8b 00             	mov    (%rax),%rax
  4045a1:	48 8b 55 f8          	mov    -0x8(%rbp),%rdx
  4045a5:	48 89 d7             	mov    %rdx,%rdi
  4045a8:	ff d0                	callq  *%rax
  4045aa:	90                   	nop
  4045ab:	c9                   	leaveq 
  4045ac:	c3                   	retq   
  4045ad:	90                   	nop

00000000004045ae <_ZN5boost6detail15sp_counted_base7releaseEv>:
  4045ae:	55                   	push   %rbp
  4045af:	48 89 e5             	mov    %rsp,%rbp
  4045b2:	48 83 ec 10          	sub    $0x10,%rsp
  4045b6:	48 89 7d f8          	mov    %rdi,-0x8(%rbp)
  4045ba:	48 8b 45 f8          	mov    -0x8(%rbp),%rax
  4045be:	48 83 c0 08          	add    $0x8,%rax
  4045c2:	be ff ff ff ff       	mov    $0xffffffff,%esi
  4045c7:	48 89 c7             	mov    %rax,%rdi
  4045ca:	e8 22 ff ff ff       	callq  4044f1 <_ZN5boost6detail23atomic_exchange_and_addEPii>
  4045cf:	83 f8 01             	cmp    $0x1,%eax
  4045d2:	0f 94 c0             	sete   %al
  4045d5:	84 c0                	test   %al,%al
  4045d7:	74 23                	je     4045fc <_ZN5boost6detail15sp_counted_base7releaseEv+0x4e>
  4045d9:	48 8b 45 f8          	mov    -0x8(%rbp),%rax
  4045dd:	48 8b 00             	mov    (%rax),%rax
  4045e0:	48 83 c0 10          	add    $0x10,%rax
  4045e4:	48 8b 00             	mov    (%rax),%rax
  4045e7:	48 8b 55 f8          	mov    -0x8(%rbp),%rdx
  4045eb:	48 89 d7             	mov    %rdx,%rdi
  4045ee:	ff d0                	callq  *%rax
  4045f0:	48 8b 45 f8          	mov    -0x8(%rbp),%rax
  4045f4:	48 89 c7             	mov    %rax,%rdi
  4045f7:	e8 04 00 00 00       	callq  404600 <_ZN5boost6detail15sp_counted_base12weak_releaseEv>
  4045fc:	90                   	nop
  4045fd:	c9                   	leaveq 
  4045fe:	c3                   	retq   
  4045ff:	90                   	nop

0000000000404600 <_ZN5boost6detail15sp_counted_base12weak_releaseEv>:
  404600:	55                   	push   %rbp
  404601:	48 89 e5             	mov    %rsp,%rbp
  404604:	48 83 ec 10          	sub    $0x10,%rsp
  404608:	48 89 7d f8          	mov    %rdi,-0x8(%rbp)
  40460c:	48 8b 45 f8          	mov    -0x8(%rbp),%rax
  404610:	48 83 c0 0c          	add    $0xc,%rax
  404614:	be ff ff ff ff       	mov    $0xffffffff,%esi
  404619:	48 89 c7             	mov    %rax,%rdi
  40461c:	e8 d0 fe ff ff       	callq  4044f1 <_ZN5boost6detail23atomic_exchange_and_addEPii>
  404621:	83 f8 01             	cmp    $0x1,%eax
  404624:	0f 94 c0             	sete   %al
  404627:	84 c0                	test   %al,%al
  404629:	74 17                	je     404642 <_ZN5boost6detail15sp_counted_base12weak_releaseEv+0x42>
  40462b:	48 8b 45 f8          	mov    -0x8(%rbp),%rax
  40462f:	48 8b 00             	mov    (%rax),%rax
  404632:	48 83 c0 18          	add    $0x18,%rax
  404636:	48 8b 00             	mov    (%rax),%rax
  404639:	48 8b 55 f8          	mov    -0x8(%rbp),%rdx
  40463d:	48 89 d7             	mov    %rdx,%rdi
  404640:	ff d0                	callq  *%rax
  404642:	90                   	nop
  404643:	c9                   	leaveq 
  404644:	c3                   	retq   
  404645:	90                   	nop

0000000000404646 <_ZN5boost6detail12shared_countC1Ev>:
  404646:	55                   	push   %rbp
  404647:	48 89 e5             	mov    %rsp,%rbp
  40464a:	48 89 7d f8          	mov    %rdi,-0x8(%rbp)
  40464e:	48 8b 45 f8          	mov    -0x8(%rbp),%rax
  404652:	48 c7 00 00 00 00 00 	movq   $0x0,(%rax)
  404659:	90                   	nop
  40465a:	5d                   	pop    %rbp
  40465b:	c3                   	retq   

000000000040465c <_ZN5boost6detail12shared_countD1Ev>:
  40465c:	55                   	push   %rbp
  40465d:	48 89 e5             	mov    %rsp,%rbp
  404660:	48 83 ec 10          	sub    $0x10,%rsp
  404664:	48 89 7d f8          	mov    %rdi,-0x8(%rbp)
  404668:	48 8b 45 f8          	mov    -0x8(%rbp),%rax
  40466c:	48 8b 00             	mov    (%rax),%rax
  40466f:	48 85 c0             	test   %rax,%rax
  404672:	74 0f                	je     404683 <_ZN5boost6detail12shared_countD1Ev+0x27>
  404674:	48 8b 45 f8          	mov    -0x8(%rbp),%rax
  404678:	48 8b 00             	mov    (%rax),%rax
  40467b:	48 89 c7             	mov    %rax,%rdi
  40467e:	e8 2b ff ff ff       	callq  4045ae <_ZN5boost6detail15sp_counted_base7releaseEv>
  404683:	90                   	nop
  404684:	c9                   	leaveq 
  404685:	c3                   	retq   

0000000000404686 <_ZN5boost6detail12shared_count4swapERS1_>:
  404686:	55                   	push   %rbp
  404687:	48 89 e5             	mov    %rsp,%rbp
  40468a:	48 89 7d e8          	mov    %rdi,-0x18(%rbp)
  40468e:	48 89 75 e0          	mov    %rsi,-0x20(%rbp)
  404692:	48 8b 45 e0          	mov    -0x20(%rbp),%rax
  404696:	48 8b 00             	mov    (%rax),%rax
  404699:	48 89 45 f8          	mov    %rax,-0x8(%rbp)
  40469d:	48 8b 45 e8          	mov    -0x18(%rbp),%rax
  4046a1:	48 8b 10             	mov    (%rax),%rdx
  4046a4:	48 8b 45 e0          	mov    -0x20(%rbp),%rax
  4046a8:	48 89 10             	mov    %rdx,(%rax)
  4046ab:	48 8b 45 e8          	mov    -0x18(%rbp),%rax
  4046af:	48 8b 55 f8          	mov    -0x8(%rbp),%rdx
  4046b3:	48 89 10             	mov    %rdx,(%rax)
  4046b6:	90                   	nop
  4046b7:	5d                   	pop    %rbp
  4046b8:	c3                   	retq   

00000000004046b9 <_ZN5boost6detail26sp_enable_shared_from_thisEz>:
  4046b9:	55                   	push   %rbp
  4046ba:	48 89 e5             	mov    %rsp,%rbp
  4046bd:	90                   	nop
  4046be:	5d                   	pop    %rbp
  4046bf:	c3                   	retq   

00000000004046c0 <_ZN6google13CheckOpStringC1EPNSt7__cxx1112basic_stringIcSt11char_traitsIcESaIcEEE>:
  4046c0:	55                   	push   %rbp
  4046c1:	48 89 e5             	mov    %rsp,%rbp
  4046c4:	48 89 7d f8          	mov    %rdi,-0x8(%rbp)
  4046c8:	48 89 75 f0          	mov    %rsi,-0x10(%rbp)
  4046cc:	48 8b 45 f8          	mov    -0x8(%rbp),%rax
  4046d0:	48 8b 55 f0          	mov    -0x10(%rbp),%rdx
  4046d4:	48 89 10             	mov    %rdx,(%rax)
  4046d7:	90                   	nop
  4046d8:	5d                   	pop    %rbp
  4046d9:	c3                   	retq   

00000000004046da <_ZN6google21GetReferenceableValueEi>:
  4046da:	55                   	push   %rbp
  4046db:	48 89 e5             	mov    %rsp,%rbp
  4046de:	89 7d fc             	mov    %edi,-0x4(%rbp)
  4046e1:	8b 45 fc             	mov    -0x4(%rbp),%eax
  4046e4:	5d                   	pop    %rbp
  4046e5:	c3                   	retq   

00000000004046e6 <_ZN6google21GetReferenceableValueEm>:
  4046e6:	55                   	push   %rbp
  4046e7:	48 89 e5             	mov    %rsp,%rbp
  4046ea:	48 89 7d f8          	mov    %rdi,-0x8(%rbp)
  4046ee:	48 8b 45 f8          	mov    -0x8(%rbp),%rax
  4046f2:	5d                   	pop    %rbp
  4046f3:	c3                   	retq   

00000000004046f4 <_ZN6google4base21CheckOpMessageBuilder7ForVar1Ev>:
  4046f4:	55                   	push   %rbp
  4046f5:	48 89 e5             	mov    %rsp,%rbp
  4046f8:	48 89 7d f8          	mov    %rdi,-0x8(%rbp)
  4046fc:	48 8b 45 f8          	mov    -0x8(%rbp),%rax
  404700:	48 8b 00             	mov    (%rax),%rax
  404703:	5d                   	pop    %rbp
  404704:	c3                   	retq   
  404705:	90                   	nop

0000000000404706 <_ZN6google17LogMessageVoidifyC1Ev>:
  404706:	55                   	push   %rbp
  404707:	48 89 e5             	mov    %rsp,%rbp
  40470a:	48 89 7d f8          	mov    %rdi,-0x8(%rbp)
  40470e:	90                   	nop
  40470f:	5d                   	pop    %rbp
  404710:	c3                   	retq   
  404711:	90                   	nop

0000000000404712 <_ZN6google17LogMessageVoidifyanERSo>:
  404712:	55                   	push   %rbp
  404713:	48 89 e5             	mov    %rsp,%rbp
  404716:	48 89 7d f8          	mov    %rdi,-0x8(%rbp)
  40471a:	48 89 75 f0          	mov    %rsi,-0x10(%rbp)
  40471e:	90                   	nop
  40471f:	5d                   	pop    %rbp
  404720:	c3                   	retq   

0000000000404721 <_ZN5caffe5Caffe4modeEv>:
  404721:	55                   	push   %rbp
  404722:	48 89 e5             	mov    %rsp,%rbp
  404725:	e8 86 f9 ff ff       	callq  4040b0 <_ZN5caffe5Caffe3GetEv@plt>
  40472a:	8b 40 10             	mov    0x10(%rax),%eax
  40472d:	5d                   	pop    %rbp
  40472e:	c3                   	retq   

000000000040472f <_ZN5caffe5Caffe8set_modeENS0_4BrewE>:
  40472f:	55                   	push   %rbp
  404730:	48 89 e5             	mov    %rsp,%rbp
  404733:	48 83 ec 10          	sub    $0x10,%rsp
  404737:	89 7d fc             	mov    %edi,-0x4(%rbp)
  40473a:	e8 71 f9 ff ff       	callq  4040b0 <_ZN5caffe5Caffe3GetEv@plt>
  40473f:	48 89 c2             	mov    %rax,%rdx
  404742:	8b 45 fc             	mov    -0x4(%rbp),%eax
  404745:	89 42 10             	mov    %eax,0x10(%rdx)
  404748:	90                   	nop
  404749:	c9                   	leaveq 
  40474a:	c3                   	retq   
  40474b:	90                   	nop

000000000040474c <_ZNK6google8protobuf8internal20RepeatedPtrFieldBase4sizeEv>:
  40474c:	55                   	push   %rbp
  40474d:	48 89 e5             	mov    %rsp,%rbp
  404750:	48 89 7d f8          	mov    %rdi,-0x8(%rbp)
  404754:	48 8b 45 f8          	mov    -0x8(%rbp),%rax
  404758:	8b 40 08             	mov    0x8(%rax),%eax
  40475b:	5d                   	pop    %rbp
  40475c:	c3                   	retq   
  40475d:	90                   	nop

000000000040475e <_ZNK5caffe14LayerParameter5phaseEv>:
  40475e:	55                   	push   %rbp
  40475f:	48 89 e5             	mov    %rsp,%rbp
  404762:	48 89 7d f8          	mov    %rdi,-0x8(%rbp)
  404766:	48 8b 45 f8          	mov    -0x8(%rbp),%rax
  40476a:	8b 80 50 02 00 00    	mov    0x250(%rax),%eax
  404770:	5d                   	pop    %rbp
  404771:	c3                   	retq   

0000000000404772 <_ZNK5caffe14LayerParameter16loss_weight_sizeEv>:
  404772:	55                   	push   %rbp
  404773:	48 89 e5             	mov    %rsp,%rbp
  404776:	48 83 ec 10          	sub    $0x10,%rsp
  40477a:	48 89 7d f8          	mov    %rdi,-0x8(%rbp)
  40477e:	48 8b 45 f8          	mov    -0x8(%rbp),%rax
  404782:	48 83 c0 48          	add    $0x48,%rax
  404786:	48 89 c7             	mov    %rax,%rdi
  404789:	e8 4e 0a 00 00       	callq  4051dc <_ZNK6google8protobuf13RepeatedFieldIfE4sizeEv>
  40478e:	c9                   	leaveq 
  40478f:	c3                   	retq   

0000000000404790 <_ZNK5caffe14LayerParameter11loss_weightEi>:
  404790:	55                   	push   %rbp
  404791:	48 89 e5             	mov    %rsp,%rbp
  404794:	48 83 ec 10          	sub    $0x10,%rsp
  404798:	48 89 7d f8          	mov    %rdi,-0x8(%rbp)
  40479c:	89 75 f4             	mov    %esi,-0xc(%rbp)
  40479f:	48 8b 45 f8          	mov    -0x8(%rbp),%rax
  4047a3:	48 8d 50 48          	lea    0x48(%rax),%rdx
  4047a7:	8b 45 f4             	mov    -0xc(%rbp),%eax
  4047aa:	89 c6                	mov    %eax,%esi
  4047ac:	48 89 d7             	mov    %rdx,%rdi
  4047af:	e8 38 0a 00 00       	callq  4051ec <_ZNK6google8protobuf13RepeatedFieldIfE3GetEi>
  4047b4:	f3 0f 10 00          	movss  (%rax),%xmm0
  4047b8:	c9                   	leaveq 
  4047b9:	c3                   	retq   

00000000004047ba <_ZNK5caffe14LayerParameter10blobs_sizeEv>:
  4047ba:	55                   	push   %rbp
  4047bb:	48 89 e5             	mov    %rsp,%rbp
  4047be:	48 83 ec 10          	sub    $0x10,%rsp
  4047c2:	48 89 7d f8          	mov    %rdi,-0x8(%rbp)
  4047c6:	48 8b 45 f8          	mov    -0x8(%rbp),%rax
  4047ca:	48 83 c0 70          	add    $0x70,%rax
  4047ce:	48 89 c7             	mov    %rax,%rdi
  4047d1:	e8 ce 0b 00 00       	callq  4053a4 <_ZNK6google8protobuf16RepeatedPtrFieldIN5caffe9BlobProtoEE4sizeEv>
  4047d6:	c9                   	leaveq 
  4047d7:	c3                   	retq   

00000000004047d8 <_ZN5caffe14LayerParameter11clear_blobsEv>:
  4047d8:	55                   	push   %rbp
  4047d9:	48 89 e5             	mov    %rsp,%rbp
  4047dc:	48 83 ec 10          	sub    $0x10,%rsp
  4047e0:	48 89 7d f8          	mov    %rdi,-0x8(%rbp)
  4047e4:	48 8b 45 f8          	mov    -0x8(%rbp),%rax
  4047e8:	48 83 c0 70          	add    $0x70,%rax
  4047ec:	48 89 c7             	mov    %rax,%rdi
  4047ef:	e8 ca 0b 00 00       	callq  4053be <_ZN6google8protobuf16RepeatedPtrFieldIN5caffe9BlobProtoEE5ClearEv>
  4047f4:	90                   	nop
  4047f5:	c9                   	leaveq 
  4047f6:	c3                   	retq   
  4047f7:	90                   	nop

00000000004047f8 <_ZNK5caffe14LayerParameter5blobsEi>:
  4047f8:	55                   	push   %rbp
  4047f9:	48 89 e5             	mov    %rsp,%rbp
  4047fc:	48 83 ec 10          	sub    $0x10,%rsp
  404800:	48 89 7d f8          	mov    %rdi,-0x8(%rbp)
  404804:	89 75 f4             	mov    %esi,-0xc(%rbp)
  404807:	48 8b 45 f8          	mov    -0x8(%rbp),%rax
  40480b:	48 8d 50 70          	lea    0x70(%rax),%rdx
  40480f:	8b 45 f4             	mov    -0xc(%rbp),%eax
  404812:	89 c6                	mov    %eax,%esi
  404814:	48 89 d7             	mov    %rdx,%rdi
  404817:	e8 be 0b 00 00       	callq  4053da <_ZNK6google8protobuf16RepeatedPtrFieldIN5caffe9BlobProtoEE3GetEi>
  40481c:	c9                   	leaveq 
  40481d:	c3                   	retq   

000000000040481e <_ZN5caffe14LayerParameter9add_blobsEv>:
  40481e:	55                   	push   %rbp
  40481f:	48 89 e5             	mov    %rsp,%rbp
  404822:	48 83 ec 10          	sub    $0x10,%rsp
  404826:	48 89 7d f8          	mov    %rdi,-0x8(%rbp)
  40482a:	48 8b 45 f8          	mov    -0x8(%rbp),%rax
  40482e:	48 83 c0 70          	add    $0x70,%rax
  404832:	48 89 c7             	mov    %rax,%rdi
  404835:	e8 c2 0b 00 00       	callq  4053fc <_ZN6google8protobuf16RepeatedPtrFieldIN5caffe9BlobProtoEE3AddEv>
  40483a:	c9                   	leaveq 
  40483b:	c3                   	retq   

000000000040483c <_ZN5caffe14LayerParameter21set_has_softmax_paramEv>:
  40483c:	55                   	push   %rbp
  40483d:	48 89 e5             	mov    %rsp,%rbp
  404840:	48 89 7d e8          	mov    %rdi,-0x18(%rbp)
  404844:	48 8b 45 e8          	mov    -0x18(%rbp),%rax
  404848:	48 83 c0 10          	add    $0x10,%rax
  40484c:	48 89 45 f8          	mov    %rax,-0x8(%rbp)
  404850:	c7 45 f4 01 00 00 00 	movl   $0x1,-0xc(%rbp)
  404857:	8b 45 f4             	mov    -0xc(%rbp),%eax
  40485a:	48 98                	cltq   
  40485c:	48 8d 14 85 00 00 00 	lea    0x0(,%rax,4),%rdx
  404863:	00 
  404864:	48 8b 45 f8          	mov    -0x8(%rbp),%rax
  404868:	48 01 d0             	add    %rdx,%rax
  40486b:	8b 10                	mov    (%rax),%edx
  40486d:	81 ca 00 00 08 00    	or     $0x80000,%edx
  404873:	89 10                	mov    %edx,(%rax)
  404875:	90                   	nop
  404876:	5d                   	pop    %rbp
  404877:	c3                   	retq   

0000000000404878 <_ZN5caffe14LayerParameter21mutable_softmax_paramEv>:
  404878:	55                   	push   %rbp
  404879:	48 89 e5             	mov    %rsp,%rbp
  40487c:	41 54                	push   %r12
  40487e:	53                   	push   %rbx
  40487f:	48 83 ec 10          	sub    $0x10,%rsp
  404883:	48 89 7d e8          	mov    %rdi,-0x18(%rbp)
  404887:	48 8b 45 e8          	mov    -0x18(%rbp),%rax
  40488b:	48 89 c7             	mov    %rax,%rdi
  40488e:	e8 a9 ff ff ff       	callq  40483c <_ZN5caffe14LayerParameter21set_has_softmax_paramEv>
  404893:	48 8b 45 e8          	mov    -0x18(%rbp),%rax
  404897:	48 8b 80 18 02 00 00 	mov    0x218(%rax),%rax
  40489e:	48 85 c0             	test   %rax,%rax
  4048a1:	75 20                	jne    4048c3 <_ZN5caffe14LayerParameter21mutable_softmax_paramEv+0x4b>
  4048a3:	bf 20 00 00 00       	mov    $0x20,%edi
  4048a8:	e8 a3 f5 ff ff       	callq  403e50 <_Znwm@plt>
  4048ad:	48 89 c3             	mov    %rax,%rbx
  4048b0:	48 89 df             	mov    %rbx,%rdi
  4048b3:	e8 18 f5 ff ff       	callq  403dd0 <_ZN5caffe16SoftmaxParameterC1Ev@plt>
  4048b8:	48 8b 45 e8          	mov    -0x18(%rbp),%rax
  4048bc:	48 89 98 18 02 00 00 	mov    %rbx,0x218(%rax)
  4048c3:	48 8b 45 e8          	mov    -0x18(%rbp),%rax
  4048c7:	48 8b 80 18 02 00 00 	mov    0x218(%rax),%rax
  4048ce:	eb 16                	jmp    4048e6 <_ZN5caffe14LayerParameter21mutable_softmax_paramEv+0x6e>
  4048d0:	49 89 c4             	mov    %rax,%r12
  4048d3:	48 89 df             	mov    %rbx,%rdi
  4048d6:	e8 85 f6 ff ff       	callq  403f60 <_ZdlPv@plt>
  4048db:	4c 89 e0             	mov    %r12,%rax
  4048de:	48 89 c7             	mov    %rax,%rdi
  4048e1:	e8 0a f7 ff ff       	callq  403ff0 <_Unwind_Resume@plt>
  4048e6:	48 83 c4 10          	add    $0x10,%rsp
  4048ea:	5b                   	pop    %rbx
  4048eb:	41 5c                	pop    %r12
  4048ed:	5d                   	pop    %rbp
  4048ee:	c3                   	retq   
  4048ef:	90                   	nop

00000000004048f0 <_ZN5caffe16SoftmaxParameter12set_has_axisEv>:
  4048f0:	55                   	push   %rbp
  4048f1:	48 89 e5             	mov    %rsp,%rbp
  4048f4:	48 89 7d e8          	mov    %rdi,-0x18(%rbp)
  4048f8:	48 8b 45 e8          	mov    -0x18(%rbp),%rax
  4048fc:	48 83 c0 10          	add    $0x10,%rax
  404900:	48 89 45 f8          	mov    %rax,-0x8(%rbp)
  404904:	c7 45 f4 00 00 00 00 	movl   $0x0,-0xc(%rbp)
  40490b:	8b 45 f4             	mov    -0xc(%rbp),%eax
  40490e:	48 98                	cltq   
  404910:	48 8d 14 85 00 00 00 	lea    0x0(,%rax,4),%rdx
  404917:	00 
  404918:	48 8b 45 f8          	mov    -0x8(%rbp),%rax
  40491c:	48 01 d0             	add    %rdx,%rax
  40491f:	8b 10                	mov    (%rax),%edx
  404921:	83 ca 02             	or     $0x2,%edx
  404924:	89 10                	mov    %edx,(%rax)
  404926:	90                   	nop
  404927:	5d                   	pop    %rbp
  404928:	c3                   	retq   
  404929:	90                   	nop

000000000040492a <_ZN5caffe16SoftmaxParameter8set_axisEi>:
  40492a:	55                   	push   %rbp
  40492b:	48 89 e5             	mov    %rsp,%rbp
  40492e:	48 83 ec 10          	sub    $0x10,%rsp
  404932:	48 89 7d f8          	mov    %rdi,-0x8(%rbp)
  404936:	89 75 f4             	mov    %esi,-0xc(%rbp)
  404939:	48 8b 45 f8          	mov    -0x8(%rbp),%rax
  40493d:	48 89 c7             	mov    %rax,%rdi
  404940:	e8 ab ff ff ff       	callq  4048f0 <_ZN5caffe16SoftmaxParameter12set_has_axisEv>
  404945:	48 8b 45 f8          	mov    -0x8(%rbp),%rax
  404949:	8b 55 f4             	mov    -0xc(%rbp),%edx
  40494c:	89 50 1c             	mov    %edx,0x1c(%rax)
  40494f:	90                   	nop
  404950:	c9                   	leaveq 
  404951:	c3                   	retq   

0000000000404952 <_ZNK2CK5Shape10data_countEv>:
  404952:	55                   	push   %rbp
  404953:	48 89 e5             	mov    %rsp,%rbp
  404956:	48 89 7d f8          	mov    %rdi,-0x8(%rbp)
  40495a:	48 8b 45 f8          	mov    -0x8(%rbp),%rax
  40495e:	8b 10                	mov    (%rax),%edx
  404960:	48 8b 45 f8          	mov    -0x8(%rbp),%rax
  404964:	8b 40 04             	mov    0x4(%rax),%eax
  404967:	0f af d0             	imul   %eax,%edx
  40496a:	48 8b 45 f8          	mov    -0x8(%rbp),%rax
  40496e:	8b 40 08             	mov    0x8(%rax),%eax
  404971:	0f af d0             	imul   %eax,%edx
  404974:	48 8b 45 f8          	mov    -0x8(%rbp),%rax
  404978:	8b 40 0c             	mov    0xc(%rax),%eax
  40497b:	0f af c2             	imul   %edx,%eax
  40497e:	5d                   	pop    %rbp
  40497f:	c3                   	retq   

0000000000404980 <_ZNK2CK5Shape14get_flat_indexEiiii>:
  404980:	55                   	push   %rbp
  404981:	48 89 e5             	mov    %rsp,%rbp
  404984:	48 83 ec 20          	sub    $0x20,%rsp
  404988:	48 89 7d f8          	mov    %rdi,-0x8(%rbp)
  40498c:	89 75 f4             	mov    %esi,-0xc(%rbp)
  40498f:	89 55 f0             	mov    %edx,-0x10(%rbp)
  404992:	89 4d ec             	mov    %ecx,-0x14(%rbp)
  404995:	44 89 45 e8          	mov    %r8d,-0x18(%rbp)
  404999:	8b 7d e8             	mov    -0x18(%rbp),%edi
  40499c:	8b 4d ec             	mov    -0x14(%rbp),%ecx
  40499f:	8b 55 f0             	mov    -0x10(%rbp),%edx
  4049a2:	8b 75 f4             	mov    -0xc(%rbp),%esi
  4049a5:	48 8b 45 f8          	mov    -0x8(%rbp),%rax
  4049a9:	41 89 f8             	mov    %edi,%r8d
  4049ac:	48 89 c7             	mov    %rax,%rdi
  4049af:	e8 02 00 00 00       	callq  4049b6 <_ZNK2CK5Shape19get_flat_index_nchwEiiii>
  4049b4:	c9                   	leaveq 
  4049b5:	c3                   	retq   

00000000004049b6 <_ZNK2CK5Shape19get_flat_index_nchwEiiii>:
  4049b6:	55                   	push   %rbp
  4049b7:	48 89 e5             	mov    %rsp,%rbp
  4049ba:	48 89 7d f8          	mov    %rdi,-0x8(%rbp)
  4049be:	89 75 f4             	mov    %esi,-0xc(%rbp)
  4049c1:	89 55 f0             	mov    %edx,-0x10(%rbp)
  4049c4:	89 4d ec             	mov    %ecx,-0x14(%rbp)
  4049c7:	44 89 45 e8          	mov    %r8d,-0x18(%rbp)
  4049cb:	48 8b 45 f8          	mov    -0x8(%rbp),%rax
  4049cf:	8b 40 04             	mov    0x4(%rax),%eax
  4049d2:	0f af 45 f4          	imul   -0xc(%rbp),%eax
  4049d6:	89 c2                	mov    %eax,%edx
  4049d8:	8b 45 f0             	mov    -0x10(%rbp),%eax
  4049db:	01 c2                	add    %eax,%edx
  4049dd:	48 8b 45 f8          	mov    -0x8(%rbp),%rax
  4049e1:	8b 40 08             	mov    0x8(%rax),%eax
  4049e4:	0f af d0             	imul   %eax,%edx
  4049e7:	8b 45 ec             	mov    -0x14(%rbp),%eax
  4049ea:	01 c2                	add    %eax,%edx
  4049ec:	48 8b 45 f8          	mov    -0x8(%rbp),%rax
  4049f0:	8b 40 0c             	mov    0xc(%rax),%eax
  4049f3:	0f af d0             	imul   %eax,%edx
  4049f6:	8b 45 e8             	mov    -0x18(%rbp),%eax
  4049f9:	01 d0                	add    %edx,%eax
  4049fb:	5d                   	pop    %rbp
  4049fc:	c3                   	retq   

00000000004049fd <_ZN2CK8getenv_iEPKci>:
  4049fd:	55                   	push   %rbp
  4049fe:	48 89 e5             	mov    %rsp,%rbp
  404a01:	48 83 ec 10          	sub    $0x10,%rsp
  404a05:	48 89 7d f8          	mov    %rdi,-0x8(%rbp)
  404a09:	89 75 f4             	mov    %esi,-0xc(%rbp)
  404a0c:	48 8b 45 f8          	mov    -0x8(%rbp),%rax
  404a10:	48 89 c7             	mov    %rax,%rdi
  404a13:	e8 38 f6 ff ff       	callq  404050 <getenv@plt>
  404a18:	48 85 c0             	test   %rax,%rax
  404a1b:	74 16                	je     404a33 <_ZN2CK8getenv_iEPKci+0x36>
  404a1d:	48 8b 45 f8          	mov    -0x8(%rbp),%rax
  404a21:	48 89 c7             	mov    %rax,%rdi
  404a24:	e8 27 f6 ff ff       	callq  404050 <getenv@plt>
  404a29:	48 89 c7             	mov    %rax,%rdi
  404a2c:	e8 bf f4 ff ff       	callq  403ef0 <atoi@plt>
  404a31:	eb 03                	jmp    404a36 <_ZN2CK8getenv_iEPKci+0x39>
  404a33:	8b 45 f4             	mov    -0xc(%rbp),%eax
  404a36:	c9                   	leaveq 
  404a37:	c3                   	retq   

0000000000404a38 <_ZN2CK13store_value_iEiPKci>:
  404a38:	55                   	push   %rbp
  404a39:	48 89 e5             	mov    %rsp,%rbp
  404a3c:	48 83 ec 20          	sub    $0x20,%rsp
  404a40:	89 7d ec             	mov    %edi,-0x14(%rbp)
  404a43:	48 89 75 e0          	mov    %rsi,-0x20(%rbp)
  404a47:	89 55 e8             	mov    %edx,-0x18(%rbp)
  404a4a:	48 8b 45 e0          	mov    -0x20(%rbp),%rax
  404a4e:	48 89 c7             	mov    %rax,%rdi
  404a51:	e8 ba f4 ff ff       	callq  403f10 <strlen@plt>
  404a56:	48 83 c0 06          	add    $0x6,%rax
  404a5a:	48 89 c7             	mov    %rax,%rdi
  404a5d:	e8 be f4 ff ff       	callq  403f20 <_Znam@plt>
  404a62:	48 89 45 f8          	mov    %rax,-0x8(%rbp)
  404a66:	48 8b 55 e0          	mov    -0x20(%rbp),%rdx
  404a6a:	48 8b 45 f8          	mov    -0x8(%rbp),%rax
  404a6e:	be d4 ac 40 00       	mov    $0x40acd4,%esi
  404a73:	48 89 c7             	mov    %rax,%rdi
  404a76:	b8 00 00 00 00       	mov    $0x0,%eax
  404a7b:	e8 00 f7 ff ff       	callq  404180 <sprintf@plt>
  404a80:	8b 55 e8             	mov    -0x18(%rbp),%edx
  404a83:	48 8b 4d f8          	mov    -0x8(%rbp),%rcx
  404a87:	8b 45 ec             	mov    -0x14(%rbp),%eax
  404a8a:	48 89 ce             	mov    %rcx,%rsi
  404a8d:	89 c7                	mov    %eax,%edi
  404a8f:	e8 9c f4 ff ff       	callq  403f30 <xopenme_add_var_i@plt>
  404a94:	48 83 7d f8 00       	cmpq   $0x0,-0x8(%rbp)
  404a99:	74 0c                	je     404aa7 <_ZN2CK13store_value_iEiPKci+0x6f>
  404a9b:	48 8b 45 f8          	mov    -0x8(%rbp),%rax
  404a9f:	48 89 c7             	mov    %rax,%rdi
  404aa2:	e8 59 f4 ff ff       	callq  403f00 <_ZdaPv@plt>
  404aa7:	90                   	nop
  404aa8:	c9                   	leaveq 
  404aa9:	c3                   	retq   

0000000000404aaa <_ZN2CK13store_value_fEiPKcf>:
  404aaa:	55                   	push   %rbp
  404aab:	48 89 e5             	mov    %rsp,%rbp
  404aae:	48 83 ec 30          	sub    $0x30,%rsp
  404ab2:	89 7d ec             	mov    %edi,-0x14(%rbp)
  404ab5:	48 89 75 e0          	mov    %rsi,-0x20(%rbp)
  404ab9:	f3 0f 11 45 e8       	movss  %xmm0,-0x18(%rbp)
  404abe:	48 8b 45 e0          	mov    -0x20(%rbp),%rax
  404ac2:	48 89 c7             	mov    %rax,%rdi
  404ac5:	e8 46 f4 ff ff       	callq  403f10 <strlen@plt>
  404aca:	48 83 c0 06          	add    $0x6,%rax
  404ace:	48 89 c7             	mov    %rax,%rdi
  404ad1:	e8 4a f4 ff ff       	callq  403f20 <_Znam@plt>
  404ad6:	48 89 45 f8          	mov    %rax,-0x8(%rbp)
  404ada:	48 8b 55 e0          	mov    -0x20(%rbp),%rdx
  404ade:	48 8b 45 f8          	mov    -0x8(%rbp),%rax
  404ae2:	be dd ac 40 00       	mov    $0x40acdd,%esi
  404ae7:	48 89 c7             	mov    %rax,%rdi
  404aea:	b8 00 00 00 00       	mov    $0x0,%eax
  404aef:	e8 8c f6 ff ff       	callq  404180 <sprintf@plt>
  404af4:	8b 4d e8             	mov    -0x18(%rbp),%ecx
  404af7:	48 8b 55 f8          	mov    -0x8(%rbp),%rdx
  404afb:	8b 45 ec             	mov    -0x14(%rbp),%eax
  404afe:	89 4d dc             	mov    %ecx,-0x24(%rbp)
  404b01:	f3 0f 10 45 dc       	movss  -0x24(%rbp),%xmm0
  404b06:	48 89 d6             	mov    %rdx,%rsi
  404b09:	89 c7                	mov    %eax,%edi
  404b0b:	e8 b0 f2 ff ff       	callq  403dc0 <xopenme_add_var_f@plt>
  404b10:	48 83 7d f8 00       	cmpq   $0x0,-0x8(%rbp)
  404b15:	74 0c                	je     404b23 <_ZN2CK13store_value_fEiPKcf+0x79>
  404b17:	48 8b 45 f8          	mov    -0x8(%rbp),%rax
  404b1b:	48 89 c7             	mov    %rax,%rdi
  404b1e:	e8 dd f3 ff ff       	callq  403f00 <_ZdaPv@plt>
  404b23:	90                   	nop
  404b24:	c9                   	leaveq 
  404b25:	c3                   	retq   

0000000000404b26 <_ZN2CK24get_input_shape_from_envEiiii>:
  404b26:	55                   	push   %rbp
  404b27:	48 89 e5             	mov    %rsp,%rbp
  404b2a:	48 83 ec 30          	sub    $0x30,%rsp
  404b2e:	89 7d dc             	mov    %edi,-0x24(%rbp)
  404b31:	89 75 d8             	mov    %esi,-0x28(%rbp)
  404b34:	89 55 d4             	mov    %edx,-0x2c(%rbp)
  404b37:	89 4d d0             	mov    %ecx,-0x30(%rbp)
  404b3a:	64 48 8b 04 25 28 00 	mov    %fs:0x28,%rax
  404b41:	00 00 
  404b43:	48 89 45 f8          	mov    %rax,-0x8(%rbp)
  404b47:	31 c0                	xor    %eax,%eax
  404b49:	c7 45 e0 01 00 00 00 	movl   $0x1,-0x20(%rbp)
  404b50:	c7 45 e4 01 00 00 00 	movl   $0x1,-0x1c(%rbp)
  404b57:	c7 45 e8 01 00 00 00 	movl   $0x1,-0x18(%rbp)
  404b5e:	c7 45 ec 01 00 00 00 	movl   $0x1,-0x14(%rbp)
  404b65:	8b 45 dc             	mov    -0x24(%rbp),%eax
  404b68:	89 c6                	mov    %eax,%esi
  404b6a:	bf e6 ac 40 00       	mov    $0x40ace6,%edi
  404b6f:	e8 89 fe ff ff       	callq  4049fd <_ZN2CK8getenv_iEPKci>
  404b74:	89 45 e0             	mov    %eax,-0x20(%rbp)
  404b77:	8b 45 d8             	mov    -0x28(%rbp),%eax
  404b7a:	89 c6                	mov    %eax,%esi
  404b7c:	bf f4 ac 40 00       	mov    $0x40acf4,%edi
  404b81:	e8 77 fe ff ff       	callq  4049fd <_ZN2CK8getenv_iEPKci>
  404b86:	89 45 e4             	mov    %eax,-0x1c(%rbp)
  404b89:	8b 45 d4             	mov    -0x2c(%rbp),%eax
  404b8c:	89 c6                	mov    %eax,%esi
  404b8e:	bf 02 ad 40 00       	mov    $0x40ad02,%edi
  404b93:	e8 65 fe ff ff       	callq  4049fd <_ZN2CK8getenv_iEPKci>
  404b98:	89 45 e8             	mov    %eax,-0x18(%rbp)
  404b9b:	8b 45 d0             	mov    -0x30(%rbp),%eax
  404b9e:	89 c6                	mov    %eax,%esi
  404ba0:	bf 10 ad 40 00       	mov    $0x40ad10,%edi
  404ba5:	e8 53 fe ff ff       	callq  4049fd <_ZN2CK8getenv_iEPKci>
  404baa:	89 45 ec             	mov    %eax,-0x14(%rbp)
  404bad:	8b 45 e0             	mov    -0x20(%rbp),%eax
  404bb0:	89 c2                	mov    %eax,%edx
  404bb2:	be 1e ad 40 00       	mov    $0x40ad1e,%esi
  404bb7:	bf 04 00 00 00       	mov    $0x4,%edi
  404bbc:	e8 77 fe ff ff       	callq  404a38 <_ZN2CK13store_value_iEiPKci>
  404bc1:	8b 45 e4             	mov    -0x1c(%rbp),%eax
  404bc4:	89 c2                	mov    %eax,%edx
  404bc6:	be 29 ad 40 00       	mov    $0x40ad29,%esi
  404bcb:	bf 05 00 00 00       	mov    $0x5,%edi
  404bd0:	e8 63 fe ff ff       	callq  404a38 <_ZN2CK13store_value_iEiPKci>
  404bd5:	8b 45 e8             	mov    -0x18(%rbp),%eax
  404bd8:	89 c2                	mov    %eax,%edx
  404bda:	be 34 ad 40 00       	mov    $0x40ad34,%esi
  404bdf:	bf 06 00 00 00       	mov    $0x6,%edi
  404be4:	e8 4f fe ff ff       	callq  404a38 <_ZN2CK13store_value_iEiPKci>
  404be9:	8b 45 ec             	mov    -0x14(%rbp),%eax
  404bec:	89 c2                	mov    %eax,%edx
  404bee:	be 3f ad 40 00       	mov    $0x40ad3f,%esi
  404bf3:	bf 07 00 00 00       	mov    $0x7,%edi
  404bf8:	e8 3b fe ff ff       	callq  404a38 <_ZN2CK13store_value_iEiPKci>
  404bfd:	8b 75 ec             	mov    -0x14(%rbp),%esi
  404c00:	8b 4d e8             	mov    -0x18(%rbp),%ecx
  404c03:	8b 55 e4             	mov    -0x1c(%rbp),%edx
  404c06:	8b 45 e0             	mov    -0x20(%rbp),%eax
  404c09:	41 89 f0             	mov    %esi,%r8d
  404c0c:	89 c6                	mov    %eax,%esi
  404c0e:	bf 50 ad 40 00       	mov    $0x40ad50,%edi
  404c13:	b8 00 00 00 00       	mov    $0x0,%eax
  404c18:	e8 e3 f1 ff ff       	callq  403e00 <printf@plt>
  404c1d:	48 8b 45 e0          	mov    -0x20(%rbp),%rax
  404c21:	48 8b 55 e8          	mov    -0x18(%rbp),%rdx
  404c25:	48 8b 4d f8          	mov    -0x8(%rbp),%rcx
  404c29:	64 48 33 0c 25 28 00 	xor    %fs:0x28,%rcx
  404c30:	00 00 
  404c32:	74 05                	je     404c39 <_ZN2CK24get_input_shape_from_envEiiii+0x113>
  404c34:	e8 77 f2 ff ff       	callq  403eb0 <__stack_chk_fail@plt>
  404c39:	c9                   	leaveq 
  404c3a:	c3                   	retq   

0000000000404c3b <_ZN2CK9init_testEv>:
  404c3b:	55                   	push   %rbp
  404c3c:	48 89 e5             	mov    %rsp,%rbp
  404c3f:	48 83 ec 10          	sub    $0x10,%rsp
  404c43:	be 0c 00 00 00       	mov    $0xc,%esi
  404c48:	bf 02 00 00 00       	mov    $0x2,%edi
  404c4d:	e8 5e f1 ff ff       	callq  403db0 <xopenme_init@plt>
  404c52:	be 2a 00 00 00       	mov    $0x2a,%esi
  404c57:	bf 87 ad 40 00       	mov    $0x40ad87,%edi
  404c5c:	e8 9c fd ff ff       	callq  4049fd <_ZN2CK8getenv_iEPKci>
  404c61:	89 45 fc             	mov    %eax,-0x4(%rbp)
  404c64:	8b 45 fc             	mov    -0x4(%rbp),%eax
  404c67:	89 c2                	mov    %eax,%edx
  404c69:	be 8f ad 40 00       	mov    $0x40ad8f,%esi
  404c6e:	bf 08 00 00 00       	mov    $0x8,%edi
  404c73:	e8 c0 fd ff ff       	callq  404a38 <_ZN2CK13store_value_iEiPKci>
  404c78:	8b 45 fc             	mov    -0x4(%rbp),%eax
  404c7b:	89 c7                	mov    %eax,%edi
  404c7d:	e8 9e f5 ff ff       	callq  404220 <srand@plt>
  404c82:	90                   	nop
  404c83:	c9                   	leaveq 
  404c84:	c3                   	retq   

0000000000404c85 <_ZN2CK11finish_testEv>:
  404c85:	55                   	push   %rbp
  404c86:	48 89 e5             	mov    %rsp,%rbp
  404c89:	bf 00 00 00 00       	mov    $0x0,%edi
  404c8e:	e8 ad f2 ff ff       	callq  403f40 <xopenme_get_timer@plt>
  404c93:	be 00 00 00 00       	mov    $0x0,%esi
  404c98:	bf 98 ad 40 00       	mov    $0x40ad98,%edi
  404c9d:	b8 01 00 00 00       	mov    $0x1,%eax
  404ca2:	e8 59 f1 ff ff       	callq  403e00 <printf@plt>
  404ca7:	bf 01 00 00 00       	mov    $0x1,%edi
  404cac:	e8 8f f2 ff ff       	callq  403f40 <xopenme_get_timer@plt>
  404cb1:	be 01 00 00 00       	mov    $0x1,%esi
  404cb6:	bf ac ad 40 00       	mov    $0x40adac,%edi
  404cbb:	b8 01 00 00 00       	mov    $0x1,%eax
  404cc0:	e8 3b f1 ff ff       	callq  403e00 <printf@plt>
  404cc5:	e8 36 f5 ff ff       	callq  404200 <xopenme_dump_state@plt>
  404cca:	e8 71 f5 ff ff       	callq  404240 <xopenme_finish@plt>
  404ccf:	90                   	nop
  404cd0:	5d                   	pop    %rbp
  404cd1:	c3                   	retq   

0000000000404cd2 <_ZZN2CK5Caffe12test_softmaxEvENKUlvE_clEv>:
  404cd2:	55                   	push   %rbp
  404cd3:	48 89 e5             	mov    %rsp,%rbp
  404cd6:	48 83 ec 10          	sub    $0x10,%rsp
  404cda:	48 89 7d f8          	mov    %rdi,-0x8(%rbp)
  404cde:	48 8b 45 f8          	mov    -0x8(%rbp),%rax
  404ce2:	48 8b 50 10          	mov    0x10(%rax),%rdx
  404ce6:	48 8b 45 f8          	mov    -0x8(%rbp),%rax
  404cea:	48 8b 40 08          	mov    0x8(%rax),%rax
  404cee:	48 8b 4d f8          	mov    -0x8(%rbp),%rcx
  404cf2:	48 8b 09             	mov    (%rcx),%rcx
  404cf5:	48 89 c6             	mov    %rax,%rsi
  404cf8:	48 89 cf             	mov    %rcx,%rdi
  404cfb:	e8 a0 08 00 00       	callq  4055a0 <_ZN5caffe5LayerIfE5SetUpERKSt6vectorIPNS_4BlobIfEESaIS5_EES9_>
  404d00:	90                   	nop
  404d01:	c9                   	leaveq 
  404d02:	c3                   	retq   
  404d03:	90                   	nop

0000000000404d04 <_ZZN2CK5Caffe12test_softmaxEvENKUlvE0_clEv>:
  404d04:	55                   	push   %rbp
  404d05:	48 89 e5             	mov    %rsp,%rbp
  404d08:	48 83 ec 10          	sub    $0x10,%rsp
  404d0c:	48 89 7d f8          	mov    %rdi,-0x8(%rbp)
  404d10:	48 8b 45 f8          	mov    -0x8(%rbp),%rax
  404d14:	48 8b 50 10          	mov    0x10(%rax),%rdx
  404d18:	48 8b 45 f8          	mov    -0x8(%rbp),%rax
  404d1c:	48 8b 40 08          	mov    0x8(%rax),%rax
  404d20:	48 8b 4d f8          	mov    -0x8(%rbp),%rcx
  404d24:	48 8b 09             	mov    (%rcx),%rcx
  404d27:	48 89 c6             	mov    %rax,%rsi
  404d2a:	48 89 cf             	mov    %rcx,%rdi
  404d2d:	e8 3e 0a 00 00       	callq  405770 <_ZN5caffe5LayerIfE7ForwardERKSt6vectorIPNS_4BlobIfEESaIS5_EES9_>
  404d32:	90                   	nop
  404d33:	c9                   	leaveq 
  404d34:	c3                   	retq   
  404d35:	90                   	nop

0000000000404d36 <_ZN5boost10shared_ptrIN5caffe12SyncedMemoryEED1Ev>:
  404d36:	55                   	push   %rbp
  404d37:	48 89 e5             	mov    %rsp,%rbp
  404d3a:	48 83 ec 10          	sub    $0x10,%rsp
  404d3e:	48 89 7d f8          	mov    %rdi,-0x8(%rbp)
  404d42:	48 8b 45 f8          	mov    -0x8(%rbp),%rax
  404d46:	48 83 c0 08          	add    $0x8,%rax
  404d4a:	48 89 c7             	mov    %rax,%rdi
  404d4d:	e8 0a f9 ff ff       	callq  40465c <_ZN5boost6detail12shared_countD1Ev>
  404d52:	90                   	nop
  404d53:	c9                   	leaveq 
  404d54:	c3                   	retq   
  404d55:	90                   	nop

0000000000404d56 <_ZN5caffe4BlobIfED1Ev>:
  404d56:	55                   	push   %rbp
  404d57:	48 89 e5             	mov    %rsp,%rbp
  404d5a:	48 83 ec 10          	sub    $0x10,%rsp
  404d5e:	48 89 7d f8          	mov    %rdi,-0x8(%rbp)
  404d62:	48 8b 45 f8          	mov    -0x8(%rbp),%rax
  404d66:	48 83 c0 30          	add    $0x30,%rax
  404d6a:	48 89 c7             	mov    %rax,%rdi
  404d6d:	e8 3e 0e 00 00       	callq  405bb0 <_ZNSt6vectorIiSaIiEED1Ev>
  404d72:	48 8b 45 f8          	mov    -0x8(%rbp),%rax
  404d76:	48 83 c0 20          	add    $0x20,%rax
  404d7a:	48 89 c7             	mov    %rax,%rdi
  404d7d:	e8 b4 ff ff ff       	callq  404d36 <_ZN5boost10shared_ptrIN5caffe12SyncedMemoryEED1Ev>
  404d82:	48 8b 45 f8          	mov    -0x8(%rbp),%rax
  404d86:	48 83 c0 10          	add    $0x10,%rax
  404d8a:	48 89 c7             	mov    %rax,%rdi
  404d8d:	e8 a4 ff ff ff       	callq  404d36 <_ZN5boost10shared_ptrIN5caffe12SyncedMemoryEED1Ev>
  404d92:	48 8b 45 f8          	mov    -0x8(%rbp),%rax
  404d96:	48 89 c7             	mov    %rax,%rdi
  404d99:	e8 98 ff ff ff       	callq  404d36 <_ZN5boost10shared_ptrIN5caffe12SyncedMemoryEED1Ev>
  404d9e:	90                   	nop
  404d9f:	c9                   	leaveq 
  404da0:	c3                   	retq   

0000000000404da1 <_ZN2CK5Caffe12test_softmaxEv>:
  404da1:	55                   	push   %rbp
  404da2:	48 89 e5             	mov    %rsp,%rbp
  404da5:	41 54                	push   %r12
  404da7:	53                   	push   %rbx
  404da8:	48 81 ec 70 06 00 00 	sub    $0x670,%rsp
  404daf:	64 48 8b 04 25 28 00 	mov    %fs:0x28,%rax
  404db6:	00 00 
  404db8:	48 89 45 e8          	mov    %rax,-0x18(%rbp)
  404dbc:	31 c0                	xor    %eax,%eax
  404dbe:	e8 78 fe ff ff       	callq  404c3b <_ZN2CK9init_testEv>
  404dc3:	b9 01 00 00 00       	mov    $0x1,%ecx
  404dc8:	ba 01 00 00 00       	mov    $0x1,%edx
  404dcd:	be 03 00 00 00       	mov    $0x3,%esi
  404dd2:	bf 01 00 00 00       	mov    $0x1,%edi
  404dd7:	e8 4a fd ff ff       	callq  404b26 <_ZN2CK24get_input_shape_from_envEiiii>
  404ddc:	48 89 85 a0 f9 ff ff 	mov    %rax,-0x660(%rbp)
  404de3:	48 89 95 a8 f9 ff ff 	mov    %rdx,-0x658(%rbp)
  404dea:	8b 85 ac f9 ff ff    	mov    -0x654(%rbp),%eax
  404df0:	83 f8 01             	cmp    $0x1,%eax
  404df3:	75 0b                	jne    404e00 <_ZN2CK5Caffe12test_softmaxEv+0x5f>
  404df5:	8b 85 a8 f9 ff ff    	mov    -0x658(%rbp),%eax
  404dfb:	83 f8 01             	cmp    $0x1,%eax
  404dfe:	74 19                	je     404e19 <_ZN2CK5Caffe12test_softmaxEv+0x78>
  404e00:	b9 10 b4 40 00       	mov    $0x40b410,%ecx
  404e05:	ba 1a 00 00 00       	mov    $0x1a,%edx
  404e0a:	be d8 ad 40 00       	mov    $0x40add8,%esi
  404e0f:	bf 40 ae 40 00       	mov    $0x40ae40,%edi
  404e14:	e8 57 f0 ff ff       	callq  403e70 <__assert_fail@plt>
  404e19:	bf 50 00 00 00       	mov    $0x50,%edi
  404e1e:	e8 2d f0 ff ff       	callq  403e50 <_Znwm@plt>
  404e23:	48 89 c3             	mov    %rax,%rbx
  404e26:	8b b5 ac f9 ff ff    	mov    -0x654(%rbp),%esi
  404e2c:	8b 8d a8 f9 ff ff    	mov    -0x658(%rbp),%ecx
  404e32:	8b 95 a4 f9 ff ff    	mov    -0x65c(%rbp),%edx
  404e38:	8b 85 a0 f9 ff ff    	mov    -0x660(%rbp),%eax
  404e3e:	41 89 f0             	mov    %esi,%r8d
  404e41:	89 c6                	mov    %eax,%esi
  404e43:	48 89 df             	mov    %rbx,%rdi
  404e46:	e8 f5 f2 ff ff       	callq  404140 <_ZN5caffe4BlobIfEC1Eiiii@plt>
  404e4b:	48 89 9d 80 f9 ff ff 	mov    %rbx,-0x680(%rbp)
  404e52:	48 8d 85 b0 f9 ff ff 	lea    -0x650(%rbp),%rax
  404e59:	48 89 c7             	mov    %rax,%rdi
  404e5c:	e8 bb 05 00 00       	callq  40541c <_ZNSt6vectorIPN5caffe4BlobIfEESaIS3_EEC1Ev>
  404e61:	48 8d 95 80 f9 ff ff 	lea    -0x680(%rbp),%rdx
  404e68:	48 8d 85 b0 f9 ff ff 	lea    -0x650(%rbp),%rax
  404e6f:	48 89 d6             	mov    %rdx,%rsi
  404e72:	48 89 c7             	mov    %rax,%rdi
  404e75:	e8 02 06 00 00       	callq  40547c <_ZNSt6vectorIPN5caffe4BlobIfEESaIS3_EE9push_backERKS3_>
  404e7a:	bf 50 00 00 00       	mov    $0x50,%edi
  404e7f:	e8 cc ef ff ff       	callq  403e50 <_Znwm@plt>
  404e84:	48 89 c3             	mov    %rax,%rbx
  404e87:	48 89 df             	mov    %rbx,%rdi
  404e8a:	e8 59 06 00 00       	callq  4054e8 <_ZN5caffe4BlobIfEC1Ev>
  404e8f:	48 89 9d 88 f9 ff ff 	mov    %rbx,-0x678(%rbp)
  404e96:	48 8d 85 d0 f9 ff ff 	lea    -0x630(%rbp),%rax
  404e9d:	48 89 c7             	mov    %rax,%rdi
  404ea0:	e8 77 05 00 00       	callq  40541c <_ZNSt6vectorIPN5caffe4BlobIfEESaIS3_EEC1Ev>
  404ea5:	48 8d 95 88 f9 ff ff 	lea    -0x678(%rbp),%rdx
  404eac:	48 8d 85 d0 f9 ff ff 	lea    -0x630(%rbp),%rax
  404eb3:	48 89 d6             	mov    %rdx,%rsi
  404eb6:	48 89 c7             	mov    %rax,%rdi
  404eb9:	e8 be 05 00 00       	callq  40547c <_ZNSt6vectorIPN5caffe4BlobIfEESaIS3_EE9push_backERKS3_>
  404ebe:	48 8d 85 10 fa ff ff 	lea    -0x5f0(%rbp),%rax
  404ec5:	48 89 c7             	mov    %rax,%rdi
  404ec8:	e8 23 ef ff ff       	callq  403df0 <_ZN5caffe14LayerParameterC1Ev@plt>
  404ecd:	48 8d 85 10 fa ff ff 	lea    -0x5f0(%rbp),%rax
  404ed4:	48 89 c7             	mov    %rax,%rdi
  404ed7:	e8 9c f9 ff ff       	callq  404878 <_ZN5caffe14LayerParameter21mutable_softmax_paramEv>
  404edc:	be 01 00 00 00       	mov    $0x1,%esi
  404ee1:	48 89 c7             	mov    %rax,%rdi
  404ee4:	e8 41 fa ff ff       	callq  40492a <_ZN5caffe16SoftmaxParameter8set_axisEi>
  404ee9:	48 8d 95 10 fa ff ff 	lea    -0x5f0(%rbp),%rdx
  404ef0:	48 8d 85 70 fc ff ff 	lea    -0x390(%rbp),%rax
  404ef7:	48 89 d6             	mov    %rdx,%rsi
  404efa:	48 89 c7             	mov    %rax,%rdi
  404efd:	e8 48 06 00 00       	callq  40554a <_ZN5caffe12SoftmaxLayerIfEC1ERKNS_14LayerParameterE>
  404f02:	48 8d 85 70 fc ff ff 	lea    -0x390(%rbp),%rax
  404f09:	48 89 85 f0 f9 ff ff 	mov    %rax,-0x610(%rbp)
  404f10:	48 8d 85 b0 f9 ff ff 	lea    -0x650(%rbp),%rax
  404f17:	48 89 85 f8 f9 ff ff 	mov    %rax,-0x608(%rbp)
  404f1e:	48 8d 85 d0 f9 ff ff 	lea    -0x630(%rbp),%rax
  404f25:	48 89 85 00 fa ff ff 	mov    %rax,-0x600(%rbp)
  404f2c:	48 8d 85 f0 f9 ff ff 	lea    -0x610(%rbp),%rax
  404f33:	48 89 c7             	mov    %rax,%rdi
  404f36:	e8 ee 06 00 00       	callq  405629 <_ZN2CK13measure_setupIZNS_5Caffe12test_softmaxEvEUlvE_EEvOT_>
  404f3b:	48 8d 85 a0 f9 ff ff 	lea    -0x660(%rbp),%rax
  404f42:	48 89 c7             	mov    %rax,%rdi
  404f45:	e8 12 07 00 00       	callq  40565c <_ZN2CK19get_random_raw_dataIfEEPT_RKNS_5ShapeE>
  404f4a:	48 89 85 90 f9 ff ff 	mov    %rax,-0x670(%rbp)
  404f51:	48 8d 95 a0 f9 ff ff 	lea    -0x660(%rbp),%rdx
  404f58:	48 8b 85 90 f9 ff ff 	mov    -0x670(%rbp),%rax
  404f5f:	48 89 d6             	mov    %rdx,%rsi
  404f62:	48 89 c7             	mov    %rax,%rdi
  404f65:	e8 d9 07 00 00       	callq  405743 <_ZN2CK20print_input_raw_dataIfEEvPT_RKNS_5ShapeE>
  404f6a:	48 8d 85 a0 f9 ff ff 	lea    -0x660(%rbp),%rax
  404f71:	48 89 c7             	mov    %rax,%rdi
  404f74:	e8 d9 f9 ff ff       	callq  404952 <_ZNK2CK5Shape10data_countEv>
  404f79:	48 98                	cltq   
  404f7b:	48 8d 1c 85 00 00 00 	lea    0x0(,%rax,4),%rbx
  404f82:	00 
  404f83:	48 8b 85 80 f9 ff ff 	mov    -0x680(%rbp),%rax
  404f8a:	48 89 c7             	mov    %rax,%rdi
  404f8d:	e8 fe ee ff ff       	callq  403e90 <_ZN5caffe4BlobIfE16mutable_cpu_dataEv@plt>
  404f92:	48 89 c1             	mov    %rax,%rcx
  404f95:	48 8b 85 90 f9 ff ff 	mov    -0x670(%rbp),%rax
  404f9c:	48 89 da             	mov    %rbx,%rdx
  404f9f:	48 89 c6             	mov    %rax,%rsi
  404fa2:	48 89 cf             	mov    %rcx,%rdi
  404fa5:	e8 76 ee ff ff       	callq  403e20 <memcpy@plt>
  404faa:	48 83 bd 90 f9 ff ff 	cmpq   $0x0,-0x670(%rbp)
  404fb1:	00 
  404fb2:	74 0f                	je     404fc3 <_ZN2CK5Caffe12test_softmaxEv+0x222>
  404fb4:	48 8b 85 90 f9 ff ff 	mov    -0x670(%rbp),%rax
  404fbb:	48 89 c7             	mov    %rax,%rdi
  404fbe:	e8 3d ef ff ff       	callq  403f00 <_ZdaPv@plt>
  404fc3:	48 8d 85 70 fc ff ff 	lea    -0x390(%rbp),%rax
  404fca:	48 89 85 f0 f9 ff ff 	mov    %rax,-0x610(%rbp)
  404fd1:	48 8d 85 b0 f9 ff ff 	lea    -0x650(%rbp),%rax
  404fd8:	48 89 85 f8 f9 ff ff 	mov    %rax,-0x608(%rbp)
  404fdf:	48 8d 85 d0 f9 ff ff 	lea    -0x630(%rbp),%rax
  404fe6:	48 89 85 00 fa ff ff 	mov    %rax,-0x600(%rbp)
  404fed:	48 8d 85 f0 f9 ff ff 	lea    -0x610(%rbp),%rax
  404ff4:	48 89 c7             	mov    %rax,%rdi
  404ff7:	e8 77 09 00 00       	callq  405973 <_ZN2CK12measure_testIZNS_5Caffe12test_softmaxEvEUlvE0_EEvOT_>
  404ffc:	48 8d 85 a0 f9 ff ff 	lea    -0x660(%rbp),%rax
  405003:	48 89 c7             	mov    %rax,%rdi
  405006:	e8 47 f9 ff ff       	callq  404952 <_ZNK2CK5Shape10data_countEv>
  40500b:	48 98                	cltq   
  40500d:	48 ba fe ff ff ff ff 	movabs $0x1ffffffffffffffe,%rdx
  405014:	ff ff 1f 
  405017:	48 39 d0             	cmp    %rdx,%rax
  40501a:	77 0e                	ja     40502a <_ZN2CK5Caffe12test_softmaxEv+0x289>
  40501c:	48 c1 e0 02          	shl    $0x2,%rax
  405020:	48 89 c7             	mov    %rax,%rdi
  405023:	e8 f8 ee ff ff       	callq  403f20 <_Znam@plt>
  405028:	eb 05                	jmp    40502f <_ZN2CK5Caffe12test_softmaxEv+0x28e>
  40502a:	e8 71 f0 ff ff       	callq  4040a0 <__cxa_throw_bad_array_new_length@plt>
  40502f:	48 89 85 98 f9 ff ff 	mov    %rax,-0x668(%rbp)
  405036:	48 8d 85 a0 f9 ff ff 	lea    -0x660(%rbp),%rax
  40503d:	48 89 c7             	mov    %rax,%rdi
  405040:	e8 0d f9 ff ff       	callq  404952 <_ZNK2CK5Shape10data_countEv>
  405045:	48 98                	cltq   
  405047:	48 8d 1c 85 00 00 00 	lea    0x0(,%rax,4),%rbx
  40504e:	00 
  40504f:	48 8b 85 88 f9 ff ff 	mov    -0x678(%rbp),%rax
  405056:	48 89 c7             	mov    %rax,%rdi
  405059:	e8 48 09 00 00       	callq  4059a6 <_ZNK5caffe4BlobIfE4dataEv>
  40505e:	48 89 c7             	mov    %rax,%rdi
  405061:	e8 2e 0a 00 00       	callq  405a94 <_ZNK5boost10shared_ptrIN5caffe12SyncedMemoryEEptEv>
  405066:	48 89 c7             	mov    %rax,%rdi
  405069:	e8 52 f0 ff ff       	callq  4040c0 <_ZN5caffe12SyncedMemory8cpu_dataEv@plt>
  40506e:	48 89 c1             	mov    %rax,%rcx
  405071:	48 8b 85 98 f9 ff ff 	mov    -0x668(%rbp),%rax
  405078:	48 89 da             	mov    %rbx,%rdx
  40507b:	48 89 ce             	mov    %rcx,%rsi
  40507e:	48 89 c7             	mov    %rax,%rdi
  405081:	e8 9a ed ff ff       	callq  403e20 <memcpy@plt>
  405086:	48 8d 95 a0 f9 ff ff 	lea    -0x660(%rbp),%rdx
  40508d:	48 8b 85 98 f9 ff ff 	mov    -0x668(%rbp),%rax
  405094:	48 89 d6             	mov    %rdx,%rsi
  405097:	48 89 c7             	mov    %rax,%rdi
  40509a:	e8 2f 0a 00 00       	callq  405ace <_ZN2CK21print_output_raw_dataIfEEvPT_RKNS_5ShapeE>
  40509f:	48 8d 95 a0 f9 ff ff 	lea    -0x660(%rbp),%rdx
  4050a6:	48 8b 85 98 f9 ff ff 	mov    -0x668(%rbp),%rax
  4050ad:	48 89 d6             	mov    %rdx,%rsi
  4050b0:	48 89 c7             	mov    %rax,%rdi
  4050b3:	e8 43 0a 00 00       	callq  405afb <_ZN2CK20dump_output_raw_dataIfEEvPT_RKNS_5ShapeE>
  4050b8:	48 83 bd 98 f9 ff ff 	cmpq   $0x0,-0x668(%rbp)
  4050bf:	00 
  4050c0:	74 0f                	je     4050d1 <_ZN2CK5Caffe12test_softmaxEv+0x330>
  4050c2:	48 8b 85 98 f9 ff ff 	mov    -0x668(%rbp),%rax
  4050c9:	48 89 c7             	mov    %rax,%rdi
  4050cc:	e8 2f ee ff ff       	callq  403f00 <_ZdaPv@plt>
  4050d1:	48 8b 9d 80 f9 ff ff 	mov    -0x680(%rbp),%rbx
  4050d8:	48 85 db             	test   %rbx,%rbx
  4050db:	74 10                	je     4050ed <_ZN2CK5Caffe12test_softmaxEv+0x34c>
  4050dd:	48 89 df             	mov    %rbx,%rdi
  4050e0:	e8 71 fc ff ff       	callq  404d56 <_ZN5caffe4BlobIfED1Ev>
  4050e5:	48 89 df             	mov    %rbx,%rdi
  4050e8:	e8 73 ee ff ff       	callq  403f60 <_ZdlPv@plt>
  4050ed:	48 8b 9d 88 f9 ff ff 	mov    -0x678(%rbp),%rbx
  4050f4:	48 85 db             	test   %rbx,%rbx
  4050f7:	74 10                	je     405109 <_ZN2CK5Caffe12test_softmaxEv+0x368>
  4050f9:	48 89 df             	mov    %rbx,%rdi
  4050fc:	e8 55 fc ff ff       	callq  404d56 <_ZN5caffe4BlobIfED1Ev>
  405101:	48 89 df             	mov    %rbx,%rdi
  405104:	e8 57 ee ff ff       	callq  403f60 <_ZdlPv@plt>
  405109:	e8 77 fb ff ff       	callq  404c85 <_ZN2CK11finish_testEv>
  40510e:	48 8d 85 70 fc ff ff 	lea    -0x390(%rbp),%rax
  405115:	48 89 c7             	mov    %rax,%rdi
  405118:	e8 65 57 00 00       	callq  40a882 <_ZN5caffe12SoftmaxLayerIfED1Ev>
  40511d:	48 8d 85 10 fa ff ff 	lea    -0x5f0(%rbp),%rax
  405124:	48 89 c7             	mov    %rax,%rdi
  405127:	e8 44 f1 ff ff       	callq  404270 <_ZN5caffe14LayerParameterD1Ev@plt>
  40512c:	48 8d 85 d0 f9 ff ff 	lea    -0x630(%rbp),%rax
  405133:	48 89 c7             	mov    %rax,%rdi
  405136:	e8 fd 02 00 00       	callq  405438 <_ZNSt6vectorIPN5caffe4BlobIfEESaIS3_EED1Ev>
  40513b:	48 8d 85 b0 f9 ff ff 	lea    -0x650(%rbp),%rax
  405142:	48 89 c7             	mov    %rax,%rdi
  405145:	e8 ee 02 00 00       	callq  405438 <_ZNSt6vectorIPN5caffe4BlobIfEESaIS3_EED1Ev>
  40514a:	90                   	nop
  40514b:	48 8b 45 e8          	mov    -0x18(%rbp),%rax
  40514f:	64 48 33 04 25 28 00 	xor    %fs:0x28,%rax
  405156:	00 00 
  405158:	74 76                	je     4051d0 <_ZN2CK5Caffe12test_softmaxEv+0x42f>
  40515a:	eb 6f                	jmp    4051cb <_ZN2CK5Caffe12test_softmaxEv+0x42a>
  40515c:	49 89 c4             	mov    %rax,%r12
  40515f:	48 89 df             	mov    %rbx,%rdi
  405162:	e8 f9 ed ff ff       	callq  403f60 <_ZdlPv@plt>
  405167:	4c 89 e0             	mov    %r12,%rax
  40516a:	48 89 c7             	mov    %rax,%rdi
  40516d:	e8 7e ee ff ff       	callq  403ff0 <_Unwind_Resume@plt>
  405172:	48 89 c3             	mov    %rax,%rbx
  405175:	48 8d 85 70 fc ff ff 	lea    -0x390(%rbp),%rax
  40517c:	48 89 c7             	mov    %rax,%rdi
  40517f:	e8 fe 56 00 00       	callq  40a882 <_ZN5caffe12SoftmaxLayerIfED1Ev>
  405184:	eb 03                	jmp    405189 <_ZN2CK5Caffe12test_softmaxEv+0x3e8>
  405186:	48 89 c3             	mov    %rax,%rbx
  405189:	48 8d 85 10 fa ff ff 	lea    -0x5f0(%rbp),%rax
  405190:	48 89 c7             	mov    %rax,%rdi
  405193:	e8 d8 f0 ff ff       	callq  404270 <_ZN5caffe14LayerParameterD1Ev@plt>
  405198:	eb 03                	jmp    40519d <_ZN2CK5Caffe12test_softmaxEv+0x3fc>
  40519a:	48 89 c3             	mov    %rax,%rbx
  40519d:	48 8d 85 d0 f9 ff ff 	lea    -0x630(%rbp),%rax
  4051a4:	48 89 c7             	mov    %rax,%rdi
  4051a7:	e8 8c 02 00 00       	callq  405438 <_ZNSt6vectorIPN5caffe4BlobIfEESaIS3_EED1Ev>
  4051ac:	eb 03                	jmp    4051b1 <_ZN2CK5Caffe12test_softmaxEv+0x410>
  4051ae:	48 89 c3             	mov    %rax,%rbx
  4051b1:	48 8d 85 b0 f9 ff ff 	lea    -0x650(%rbp),%rax
  4051b8:	48 89 c7             	mov    %rax,%rdi
  4051bb:	e8 78 02 00 00       	callq  405438 <_ZNSt6vectorIPN5caffe4BlobIfEESaIS3_EED1Ev>
  4051c0:	48 89 d8             	mov    %rbx,%rax
  4051c3:	48 89 c7             	mov    %rax,%rdi
  4051c6:	e8 25 ee ff ff       	callq  403ff0 <_Unwind_Resume@plt>
  4051cb:	e8 e0 ec ff ff       	callq  403eb0 <__stack_chk_fail@plt>
  4051d0:	48 81 c4 70 06 00 00 	add    $0x670,%rsp
  4051d7:	5b                   	pop    %rbx
  4051d8:	41 5c                	pop    %r12
  4051da:	5d                   	pop    %rbp
  4051db:	c3                   	retq   

00000000004051dc <_ZNK6google8protobuf13RepeatedFieldIfE4sizeEv>:
  4051dc:	55                   	push   %rbp
  4051dd:	48 89 e5             	mov    %rsp,%rbp
  4051e0:	48 89 7d f8          	mov    %rdi,-0x8(%rbp)
  4051e4:	48 8b 45 f8          	mov    -0x8(%rbp),%rax
  4051e8:	8b 00                	mov    (%rax),%eax
  4051ea:	5d                   	pop    %rbp
  4051eb:	c3                   	retq   

00000000004051ec <_ZNK6google8protobuf13RepeatedFieldIfE3GetEi>:
  4051ec:	55                   	push   %rbp
  4051ed:	48 89 e5             	mov    %rsp,%rbp
  4051f0:	41 54                	push   %r12
  4051f2:	53                   	push   %rbx
  4051f3:	48 81 ec a0 00 00 00 	sub    $0xa0,%rsp
  4051fa:	48 89 bd 58 ff ff ff 	mov    %rdi,-0xa8(%rbp)
  405201:	89 b5 54 ff ff ff    	mov    %esi,-0xac(%rbp)
  405207:	64 48 8b 04 25 28 00 	mov    %fs:0x28,%rax
  40520e:	00 00 
  405210:	48 89 45 e8          	mov    %rax,-0x18(%rbp)
  405214:	31 c0                	xor    %eax,%eax
  405216:	bb 00 00 00 00       	mov    $0x0,%ebx
  40521b:	41 bc 00 00 00 00    	mov    $0x0,%r12d
  405221:	83 bd 54 ff ff ff 00 	cmpl   $0x0,-0xac(%rbp)
  405228:	79 52                	jns    40527c <_ZNK6google8protobuf13RepeatedFieldIfE3GetEi+0x90>
  40522a:	48 8d 85 70 ff ff ff 	lea    -0x90(%rbp),%rax
  405231:	b9 43 04 00 00       	mov    $0x443,%ecx
  405236:	ba 68 ae 40 00       	mov    $0x40ae68,%edx
  40523b:	be 03 00 00 00       	mov    $0x3,%esi
  405240:	48 89 c7             	mov    %rax,%rdi
  405243:	e8 58 ed ff ff       	callq  403fa0 <_ZN6google8protobuf8internal10LogMessageC1ENS0_8LogLevelEPKci@plt>
  405248:	bb 01 00 00 00       	mov    $0x1,%ebx
  40524d:	48 8d 85 70 ff ff ff 	lea    -0x90(%rbp),%rax
  405254:	be d8 ae 40 00       	mov    $0x40aed8,%esi
  405259:	48 89 c7             	mov    %rax,%rdi
  40525c:	e8 1f f0 ff ff       	callq  404280 <_ZN6google8protobuf8internal10LogMessagelsEPKc@plt>
  405261:	48 89 c2             	mov    %rax,%rdx
  405264:	41 bc 01 00 00 00    	mov    $0x1,%r12d
  40526a:	48 8d 85 6e ff ff ff 	lea    -0x92(%rbp),%rax
  405271:	48 89 d6             	mov    %rdx,%rsi
  405274:	48 89 c7             	mov    %rax,%rdi
  405277:	e8 04 ee ff ff       	callq  404080 <_ZN6google8protobuf8internal11LogFinisheraSERNS1_10LogMessageE@plt>
  40527c:	45 84 e4             	test   %r12b,%r12b
  40527f:	84 db                	test   %bl,%bl
  405281:	74 12                	je     405295 <_ZNK6google8protobuf13RepeatedFieldIfE3GetEi+0xa9>
  405283:	90                   	nop
  405284:	48 8d 85 70 ff ff ff 	lea    -0x90(%rbp),%rax
  40528b:	48 89 c7             	mov    %rax,%rdi
  40528e:	e8 5d ee ff ff       	callq  4040f0 <_ZN6google8protobuf8internal10LogMessageD1Ev@plt>
  405293:	eb 01                	jmp    405296 <_ZNK6google8protobuf13RepeatedFieldIfE3GetEi+0xaa>
  405295:	90                   	nop
  405296:	48 8b 85 58 ff ff ff 	mov    -0xa8(%rbp),%rax
  40529d:	8b 00                	mov    (%rax),%eax
  40529f:	bb 00 00 00 00       	mov    $0x0,%ebx
  4052a4:	41 bc 00 00 00 00    	mov    $0x0,%r12d
  4052aa:	3b 85 54 ff ff ff    	cmp    -0xac(%rbp),%eax
  4052b0:	7f 4c                	jg     4052fe <_ZNK6google8protobuf13RepeatedFieldIfE3GetEi+0x112>
  4052b2:	48 8d 45 b0          	lea    -0x50(%rbp),%rax
  4052b6:	b9 44 04 00 00       	mov    $0x444,%ecx
  4052bb:	ba 68 ae 40 00       	mov    $0x40ae68,%edx
  4052c0:	be 03 00 00 00       	mov    $0x3,%esi
  4052c5:	48 89 c7             	mov    %rax,%rdi
  4052c8:	e8 d3 ec ff ff       	callq  403fa0 <_ZN6google8protobuf8internal10LogMessageC1ENS0_8LogLevelEPKci@plt>
  4052cd:	bb 01 00 00 00       	mov    $0x1,%ebx
  4052d2:	48 8d 45 b0          	lea    -0x50(%rbp),%rax
  4052d6:	be f8 ae 40 00       	mov    $0x40aef8,%esi
  4052db:	48 89 c7             	mov    %rax,%rdi
  4052de:	e8 9d ef ff ff       	callq  404280 <_ZN6google8protobuf8internal10LogMessagelsEPKc@plt>
  4052e3:	48 89 c2             	mov    %rax,%rdx
  4052e6:	41 bc 01 00 00 00    	mov    $0x1,%r12d
  4052ec:	48 8d 85 6f ff ff ff 	lea    -0x91(%rbp),%rax
  4052f3:	48 89 d6             	mov    %rdx,%rsi
  4052f6:	48 89 c7             	mov    %rax,%rdi
  4052f9:	e8 82 ed ff ff       	callq  404080 <_ZN6google8protobuf8internal11LogFinisheraSERNS1_10LogMessageE@plt>
  4052fe:	45 84 e4             	test   %r12b,%r12b
  405301:	84 db                	test   %bl,%bl
  405303:	74 0f                	je     405314 <_ZNK6google8protobuf13RepeatedFieldIfE3GetEi+0x128>
  405305:	90                   	nop
  405306:	48 8d 45 b0          	lea    -0x50(%rbp),%rax
  40530a:	48 89 c7             	mov    %rax,%rdi
  40530d:	e8 de ed ff ff       	callq  4040f0 <_ZN6google8protobuf8internal10LogMessageD1Ev@plt>
  405312:	eb 01                	jmp    405315 <_ZNK6google8protobuf13RepeatedFieldIfE3GetEi+0x129>
  405314:	90                   	nop
  405315:	48 8b 85 58 ff ff ff 	mov    -0xa8(%rbp),%rax
  40531c:	48 8b 40 08          	mov    0x8(%rax),%rax
  405320:	8b 95 54 ff ff ff    	mov    -0xac(%rbp),%edx
  405326:	48 63 d2             	movslq %edx,%rdx
  405329:	48 c1 e2 02          	shl    $0x2,%rdx
  40532d:	48 01 d0             	add    %rdx,%rax
  405330:	48 83 c0 08          	add    $0x8,%rax
  405334:	48 8b 4d e8          	mov    -0x18(%rbp),%rcx
  405338:	64 48 33 0c 25 28 00 	xor    %fs:0x28,%rcx
  40533f:	00 00 
  405341:	74 54                	je     405397 <_ZNK6google8protobuf13RepeatedFieldIfE3GetEi+0x1ab>
  405343:	eb 4d                	jmp    405392 <_ZNK6google8protobuf13RepeatedFieldIfE3GetEi+0x1a6>
  405345:	45 84 e4             	test   %r12b,%r12b
  405348:	49 89 c4             	mov    %rax,%r12
  40534b:	84 db                	test   %bl,%bl
  40534d:	74 12                	je     405361 <_ZNK6google8protobuf13RepeatedFieldIfE3GetEi+0x175>
  40534f:	90                   	nop
  405350:	48 8d 85 70 ff ff ff 	lea    -0x90(%rbp),%rax
  405357:	48 89 c7             	mov    %rax,%rdi
  40535a:	e8 91 ed ff ff       	callq  4040f0 <_ZN6google8protobuf8internal10LogMessageD1Ev@plt>
  40535f:	eb 01                	jmp    405362 <_ZNK6google8protobuf13RepeatedFieldIfE3GetEi+0x176>
  405361:	90                   	nop
  405362:	4c 89 e0             	mov    %r12,%rax
  405365:	48 89 c7             	mov    %rax,%rdi
  405368:	e8 83 ec ff ff       	callq  403ff0 <_Unwind_Resume@plt>
  40536d:	45 84 e4             	test   %r12b,%r12b
  405370:	49 89 c4             	mov    %rax,%r12
  405373:	84 db                	test   %bl,%bl
  405375:	74 0f                	je     405386 <_ZNK6google8protobuf13RepeatedFieldIfE3GetEi+0x19a>
  405377:	90                   	nop
  405378:	48 8d 45 b0          	lea    -0x50(%rbp),%rax
  40537c:	48 89 c7             	mov    %rax,%rdi
  40537f:	e8 6c ed ff ff       	callq  4040f0 <_ZN6google8protobuf8internal10LogMessageD1Ev@plt>
  405384:	eb 01                	jmp    405387 <_ZNK6google8protobuf13RepeatedFieldIfE3GetEi+0x19b>
  405386:	90                   	nop
  405387:	4c 89 e0             	mov    %r12,%rax
  40538a:	48 89 c7             	mov    %rax,%rdi
  40538d:	e8 5e ec ff ff       	callq  403ff0 <_Unwind_Resume@plt>
  405392:	e8 19 eb ff ff       	callq  403eb0 <__stack_chk_fail@plt>
  405397:	48 81 c4 a0 00 00 00 	add    $0xa0,%rsp
  40539e:	5b                   	pop    %rbx
  40539f:	41 5c                	pop    %r12
  4053a1:	5d                   	pop    %rbp
  4053a2:	c3                   	retq   
  4053a3:	90                   	nop

00000000004053a4 <_ZNK6google8protobuf16RepeatedPtrFieldIN5caffe9BlobProtoEE4sizeEv>:
  4053a4:	55                   	push   %rbp
  4053a5:	48 89 e5             	mov    %rsp,%rbp
  4053a8:	48 83 ec 10          	sub    $0x10,%rsp
  4053ac:	48 89 7d f8          	mov    %rdi,-0x8(%rbp)
  4053b0:	48 8b 45 f8          	mov    -0x8(%rbp),%rax
  4053b4:	48 89 c7             	mov    %rax,%rdi
  4053b7:	e8 90 f3 ff ff       	callq  40474c <_ZNK6google8protobuf8internal20RepeatedPtrFieldBase4sizeEv>
  4053bc:	c9                   	leaveq 
  4053bd:	c3                   	retq   

00000000004053be <_ZN6google8protobuf16RepeatedPtrFieldIN5caffe9BlobProtoEE5ClearEv>:
  4053be:	55                   	push   %rbp
  4053bf:	48 89 e5             	mov    %rsp,%rbp
  4053c2:	48 83 ec 10          	sub    $0x10,%rsp
  4053c6:	48 89 7d f8          	mov    %rdi,-0x8(%rbp)
  4053ca:	48 8b 45 f8          	mov    -0x8(%rbp),%rax
  4053ce:	48 89 c7             	mov    %rax,%rdi
  4053d1:	e8 1e 08 00 00       	callq  405bf4 <_ZN6google8protobuf8internal20RepeatedPtrFieldBase5ClearINS0_16RepeatedPtrFieldIN5caffe9BlobProtoEE11TypeHandlerEEEvv>
  4053d6:	90                   	nop
  4053d7:	c9                   	leaveq 
  4053d8:	c3                   	retq   
  4053d9:	90                   	nop

00000000004053da <_ZNK6google8protobuf16RepeatedPtrFieldIN5caffe9BlobProtoEE3GetEi>:
  4053da:	55                   	push   %rbp
  4053db:	48 89 e5             	mov    %rsp,%rbp
  4053de:	48 83 ec 10          	sub    $0x10,%rsp
  4053e2:	48 89 7d f8          	mov    %rdi,-0x8(%rbp)
  4053e6:	89 75 f4             	mov    %esi,-0xc(%rbp)
  4053e9:	48 8b 45 f8          	mov    -0x8(%rbp),%rax
  4053ed:	8b 55 f4             	mov    -0xc(%rbp),%edx
  4053f0:	89 d6                	mov    %edx,%esi
  4053f2:	48 89 c7             	mov    %rax,%rdi
  4053f5:	e8 3c 09 00 00       	callq  405d36 <_ZNK6google8protobuf8internal20RepeatedPtrFieldBase3GetINS0_16RepeatedPtrFieldIN5caffe9BlobProtoEE11TypeHandlerEEERKNT_4TypeEi>
  4053fa:	c9                   	leaveq 
  4053fb:	c3                   	retq   

00000000004053fc <_ZN6google8protobuf16RepeatedPtrFieldIN5caffe9BlobProtoEE3AddEv>:
  4053fc:	55                   	push   %rbp
  4053fd:	48 89 e5             	mov    %rsp,%rbp
  405400:	48 83 ec 10          	sub    $0x10,%rsp
  405404:	48 89 7d f8          	mov    %rdi,-0x8(%rbp)
  405408:	48 8b 45 f8          	mov    -0x8(%rbp),%rax
  40540c:	be 00 00 00 00       	mov    $0x0,%esi
  405411:	48 89 c7             	mov    %rax,%rdi
  405414:	e8 d7 0a 00 00       	callq  405ef0 <_ZN6google8protobuf8internal20RepeatedPtrFieldBase3AddINS0_16RepeatedPtrFieldIN5caffe9BlobProtoEE11TypeHandlerEEEPNT_4TypeESB_>
  405419:	c9                   	leaveq 
  40541a:	c3                   	retq   
  40541b:	90                   	nop

000000000040541c <_ZNSt6vectorIPN5caffe4BlobIfEESaIS3_EEC1Ev>:
  40541c:	55                   	push   %rbp
  40541d:	48 89 e5             	mov    %rsp,%rbp
  405420:	48 83 ec 10          	sub    $0x10,%rsp
  405424:	48 89 7d f8          	mov    %rdi,-0x8(%rbp)
  405428:	48 8b 45 f8          	mov    -0x8(%rbp),%rax
  40542c:	48 89 c7             	mov    %rax,%rdi
  40542f:	e8 c4 0b 00 00       	callq  405ff8 <_ZNSt12_Vector_baseIPN5caffe4BlobIfEESaIS3_EEC1Ev>
  405434:	90                   	nop
  405435:	c9                   	leaveq 
  405436:	c3                   	retq   
  405437:	90                   	nop

0000000000405438 <_ZNSt6vectorIPN5caffe4BlobIfEESaIS3_EED1Ev>:
  405438:	55                   	push   %rbp
  405439:	48 89 e5             	mov    %rsp,%rbp
  40543c:	48 83 ec 10          	sub    $0x10,%rsp
  405440:	48 89 7d f8          	mov    %rdi,-0x8(%rbp)
  405444:	48 8b 45 f8          	mov    -0x8(%rbp),%rax
  405448:	48 89 c7             	mov    %rax,%rdi
  40544b:	e8 14 0c 00 00       	callq  406064 <_ZNSt12_Vector_baseIPN5caffe4BlobIfEESaIS3_EE19_M_get_Tp_allocatorEv>
  405450:	48 89 c2             	mov    %rax,%rdx
  405453:	48 8b 45 f8          	mov    -0x8(%rbp),%rax
  405457:	48 8b 48 08          	mov    0x8(%rax),%rcx
  40545b:	48 8b 45 f8          	mov    -0x8(%rbp),%rax
  40545f:	48 8b 00             	mov    (%rax),%rax
  405462:	48 89 ce             	mov    %rcx,%rsi
  405465:	48 89 c7             	mov    %rax,%rdi
  405468:	e8 05 0c 00 00       	callq  406072 <_ZSt8_DestroyIPPN5caffe4BlobIfEES3_EvT_S5_RSaIT0_E>
  40546d:	48 8b 45 f8          	mov    -0x8(%rbp),%rax
  405471:	48 89 c7             	mov    %rax,%rdi
  405474:	e8 9b 0b 00 00       	callq  406014 <_ZNSt12_Vector_baseIPN5caffe4BlobIfEESaIS3_EED1Ev>
  405479:	90                   	nop
  40547a:	c9                   	leaveq 
  40547b:	c3                   	retq   

000000000040547c <_ZNSt6vectorIPN5caffe4BlobIfEESaIS3_EE9push_backERKS3_>:
  40547c:	55                   	push   %rbp
  40547d:	48 89 e5             	mov    %rsp,%rbp
  405480:	48 83 ec 10          	sub    $0x10,%rsp
  405484:	48 89 7d f8          	mov    %rdi,-0x8(%rbp)
  405488:	48 89 75 f0          	mov    %rsi,-0x10(%rbp)
  40548c:	48 8b 45 f8          	mov    -0x8(%rbp),%rax
  405490:	48 8b 50 08          	mov    0x8(%rax),%rdx
  405494:	48 8b 45 f8          	mov    -0x8(%rbp),%rax
  405498:	48 8b 40 10          	mov    0x10(%rax),%rax
  40549c:	48 39 c2             	cmp    %rax,%rdx
  40549f:	74 31                	je     4054d2 <_ZNSt6vectorIPN5caffe4BlobIfEESaIS3_EE9push_backERKS3_+0x56>
  4054a1:	48 8b 45 f8          	mov    -0x8(%rbp),%rax
  4054a5:	48 8b 48 08          	mov    0x8(%rax),%rcx
  4054a9:	48 8b 45 f8          	mov    -0x8(%rbp),%rax
  4054ad:	48 8b 55 f0          	mov    -0x10(%rbp),%rdx
  4054b1:	48 89 ce             	mov    %rcx,%rsi
  4054b4:	48 89 c7             	mov    %rax,%rdi
  4054b7:	e8 ee 0b 00 00       	callq  4060aa <_ZNSt16allocator_traitsISaIPN5caffe4BlobIfEEEE9constructIS3_JRKS3_EEEvRS4_PT_DpOT0_>
  4054bc:	48 8b 45 f8          	mov    -0x8(%rbp),%rax
  4054c0:	48 8b 40 08          	mov    0x8(%rax),%rax
  4054c4:	48 8d 50 08          	lea    0x8(%rax),%rdx
  4054c8:	48 8b 45 f8          	mov    -0x8(%rbp),%rax
  4054cc:	48 89 50 08          	mov    %rdx,0x8(%rax)
  4054d0:	eb 13                	jmp    4054e5 <_ZNSt6vectorIPN5caffe4BlobIfEESaIS3_EE9push_backERKS3_+0x69>
  4054d2:	48 8b 55 f0          	mov    -0x10(%rbp),%rdx
  4054d6:	48 8b 45 f8          	mov    -0x8(%rbp),%rax
  4054da:	48 89 d6             	mov    %rdx,%rsi
  4054dd:	48 89 c7             	mov    %rax,%rdi
  4054e0:	e8 ff 0b 00 00       	callq  4060e4 <_ZNSt6vectorIPN5caffe4BlobIfEESaIS3_EE19_M_emplace_back_auxIJRKS3_EEEvDpOT_>
  4054e5:	90                   	nop
  4054e6:	c9                   	leaveq 
  4054e7:	c3                   	retq   

00000000004054e8 <_ZN5caffe4BlobIfEC1Ev>:
  4054e8:	55                   	push   %rbp
  4054e9:	48 89 e5             	mov    %rsp,%rbp
  4054ec:	48 83 ec 10          	sub    $0x10,%rsp
  4054f0:	48 89 7d f8          	mov    %rdi,-0x8(%rbp)
  4054f4:	48 8b 45 f8          	mov    -0x8(%rbp),%rax
  4054f8:	48 89 c7             	mov    %rax,%rdi
  4054fb:	e8 ce 0d 00 00       	callq  4062ce <_ZN5boost10shared_ptrIN5caffe12SyncedMemoryEEC1Ev>
  405500:	48 8b 45 f8          	mov    -0x8(%rbp),%rax
  405504:	48 83 c0 10          	add    $0x10,%rax
  405508:	48 89 c7             	mov    %rax,%rdi
  40550b:	e8 be 0d 00 00       	callq  4062ce <_ZN5boost10shared_ptrIN5caffe12SyncedMemoryEEC1Ev>
  405510:	48 8b 45 f8          	mov    -0x8(%rbp),%rax
  405514:	48 83 c0 20          	add    $0x20,%rax
  405518:	48 89 c7             	mov    %rax,%rdi
  40551b:	e8 ae 0d 00 00       	callq  4062ce <_ZN5boost10shared_ptrIN5caffe12SyncedMemoryEEC1Ev>
  405520:	48 8b 45 f8          	mov    -0x8(%rbp),%rax
  405524:	48 83 c0 30          	add    $0x30,%rax
  405528:	48 89 c7             	mov    %rax,%rdi
  40552b:	e8 c8 0d 00 00       	callq  4062f8 <_ZNSt6vectorIiSaIiEEC1Ev>
  405530:	48 8b 45 f8          	mov    -0x8(%rbp),%rax
  405534:	c7 40 48 00 00 00 00 	movl   $0x0,0x48(%rax)
  40553b:	48 8b 45 f8          	mov    -0x8(%rbp),%rax
  40553f:	c7 40 4c 00 00 00 00 	movl   $0x0,0x4c(%rax)
  405546:	90                   	nop
  405547:	c9                   	leaveq 
  405548:	c3                   	retq   
  405549:	90                   	nop

000000000040554a <_ZN5caffe12SoftmaxLayerIfEC1ERKNS_14LayerParameterE>:
  40554a:	55                   	push   %rbp
  40554b:	48 89 e5             	mov    %rsp,%rbp
  40554e:	48 83 ec 10          	sub    $0x10,%rsp
  405552:	48 89 7d f8          	mov    %rdi,-0x8(%rbp)
  405556:	48 89 75 f0          	mov    %rsi,-0x10(%rbp)
  40555a:	48 8b 45 f8          	mov    -0x8(%rbp),%rax
  40555e:	48 8b 55 f0          	mov    -0x10(%rbp),%rdx
  405562:	48 89 d6             	mov    %rdx,%rsi
  405565:	48 89 c7             	mov    %rax,%rdi
  405568:	e8 a7 0d 00 00       	callq  406314 <_ZN5caffe5LayerIfEC1ERKNS_14LayerParameterE>
  40556d:	ba 98 b6 40 00       	mov    $0x40b698,%edx
  405572:	48 8b 45 f8          	mov    -0x8(%rbp),%rax
  405576:	48 89 10             	mov    %rdx,(%rax)
  405579:	48 8b 45 f8          	mov    -0x8(%rbp),%rax
  40557d:	48 05 d0 02 00 00    	add    $0x2d0,%rax
  405583:	48 89 c7             	mov    %rax,%rdi
  405586:	e8 5d ff ff ff       	callq  4054e8 <_ZN5caffe4BlobIfEC1Ev>
  40558b:	48 8b 45 f8          	mov    -0x8(%rbp),%rax
  40558f:	48 05 20 03 00 00    	add    $0x320,%rax
  405595:	48 89 c7             	mov    %rax,%rdi
  405598:	e8 4b ff ff ff       	callq  4054e8 <_ZN5caffe4BlobIfEC1Ev>
  40559d:	90                   	nop
  40559e:	c9                   	leaveq 
  40559f:	c3                   	retq   

00000000004055a0 <_ZN5caffe5LayerIfE5SetUpERKSt6vectorIPNS_4BlobIfEESaIS5_EES9_>:
  4055a0:	55                   	push   %rbp
  4055a1:	48 89 e5             	mov    %rsp,%rbp
  4055a4:	48 83 ec 20          	sub    $0x20,%rsp
  4055a8:	48 89 7d f8          	mov    %rdi,-0x8(%rbp)
  4055ac:	48 89 75 f0          	mov    %rsi,-0x10(%rbp)
  4055b0:	48 89 55 e8          	mov    %rdx,-0x18(%rbp)
  4055b4:	48 8b 45 f8          	mov    -0x8(%rbp),%rax
  4055b8:	48 8b 00             	mov    (%rax),%rax
  4055bb:	48 05 98 00 00 00    	add    $0x98,%rax
  4055c1:	48 8b 00             	mov    (%rax),%rax
  4055c4:	48 8b 55 e8          	mov    -0x18(%rbp),%rdx
  4055c8:	48 8b 75 f0          	mov    -0x10(%rbp),%rsi
  4055cc:	48 8b 4d f8          	mov    -0x8(%rbp),%rcx
  4055d0:	48 89 cf             	mov    %rcx,%rdi
  4055d3:	ff d0                	callq  *%rax
  4055d5:	48 8b 45 f8          	mov    -0x8(%rbp),%rax
  4055d9:	48 8b 00             	mov    (%rax),%rax
  4055dc:	48 83 c0 10          	add    $0x10,%rax
  4055e0:	48 8b 00             	mov    (%rax),%rax
  4055e3:	48 8b 55 e8          	mov    -0x18(%rbp),%rdx
  4055e7:	48 8b 75 f0          	mov    -0x10(%rbp),%rsi
  4055eb:	48 8b 4d f8          	mov    -0x8(%rbp),%rcx
  4055ef:	48 89 cf             	mov    %rcx,%rdi
  4055f2:	ff d0                	callq  *%rax
  4055f4:	48 8b 45 f8          	mov    -0x8(%rbp),%rax
  4055f8:	48 8b 00             	mov    (%rax),%rax
  4055fb:	48 83 c0 18          	add    $0x18,%rax
  4055ff:	48 8b 00             	mov    (%rax),%rax
  405602:	48 8b 55 e8          	mov    -0x18(%rbp),%rdx
  405606:	48 8b 75 f0          	mov    -0x10(%rbp),%rsi
  40560a:	48 8b 4d f8          	mov    -0x8(%rbp),%rcx
  40560e:	48 89 cf             	mov    %rcx,%rdi
  405611:	ff d0                	callq  *%rax
  405613:	48 8b 55 e8          	mov    -0x18(%rbp),%rdx
  405617:	48 8b 45 f8          	mov    -0x8(%rbp),%rax
  40561b:	48 89 d6             	mov    %rdx,%rsi
  40561e:	48 89 c7             	mov    %rax,%rdi
  405621:	e8 1a 18 00 00       	callq  406e40 <_ZN5caffe5LayerIfE14SetLossWeightsERKSt6vectorIPNS_4BlobIfEESaIS5_EE>
  405626:	90                   	nop
  405627:	c9                   	leaveq 
  405628:	c3                   	retq   

0000000000405629 <_ZN2CK13measure_setupIZNS_5Caffe12test_softmaxEvEUlvE_EEvOT_>:
  405629:	55                   	push   %rbp
  40562a:	48 89 e5             	mov    %rsp,%rbp
  40562d:	48 83 ec 10          	sub    $0x10,%rsp
  405631:	48 89 7d f8          	mov    %rdi,-0x8(%rbp)
  405635:	48 8b 45 f8          	mov    -0x8(%rbp),%rax
  405639:	be 00 00 00 00       	mov    $0x0,%esi
  40563e:	48 89 c7             	mov    %rax,%rdi
  405641:	e8 e2 19 00 00       	callq  407028 <_ZN2CK11do_measuredIRZNS_5Caffe12test_softmaxEvEUlvE_EEvOT_i>
  405646:	bf 00 00 00 00       	mov    $0x0,%edi
  40564b:	e8 f0 e8 ff ff       	callq  403f40 <xopenme_get_timer@plt>
  405650:	f2 0f 5a c0          	cvtsd2ss %xmm0,%xmm0
  405654:	e8 4d ed ff ff       	callq  4043a6 <_ZN2CK16store_setup_timeEf>
  405659:	90                   	nop
  40565a:	c9                   	leaveq 
  40565b:	c3                   	retq   

000000000040565c <_ZN2CK19get_random_raw_dataIfEEPT_RKNS_5ShapeE>:
  40565c:	55                   	push   %rbp
  40565d:	48 89 e5             	mov    %rsp,%rbp
  405660:	53                   	push   %rbx
  405661:	48 83 ec 38          	sub    $0x38,%rsp
  405665:	48 89 7d c8          	mov    %rdi,-0x38(%rbp)
  405669:	ba 20 00 00 00       	mov    $0x20,%edx
  40566e:	be 22 af 40 00       	mov    $0x40af22,%esi
  405673:	bf 09 00 00 00       	mov    $0x9,%edi
  405678:	e8 bb f3 ff ff       	callq  404a38 <_ZN2CK13store_value_iEiPKci>
  40567d:	c7 45 dc 40 42 0f 00 	movl   $0xf4240,-0x24(%rbp)
  405684:	c7 45 e0 81 84 1e 00 	movl   $0x1e8481,-0x20(%rbp)
  40568b:	48 8b 45 c8          	mov    -0x38(%rbp),%rax
  40568f:	48 89 c7             	mov    %rax,%rdi
  405692:	e8 bb f2 ff ff       	callq  404952 <_ZNK2CK5Shape10data_countEv>
  405697:	89 45 e4             	mov    %eax,-0x1c(%rbp)
  40569a:	8b 45 e4             	mov    -0x1c(%rbp),%eax
  40569d:	48 63 d0             	movslq %eax,%rdx
  4056a0:	48 b8 fe ff ff ff ff 	movabs $0x1ffffffffffffffe,%rax
  4056a7:	ff ff 1f 
  4056aa:	48 39 c2             	cmp    %rax,%rdx
  4056ad:	77 1e                	ja     4056cd <_ZN2CK19get_random_raw_dataIfEEPT_RKNS_5ShapeE+0x71>
  4056af:	8b 45 e4             	mov    -0x1c(%rbp),%eax
  4056b2:	48 98                	cltq   
  4056b4:	48 c1 e0 02          	shl    $0x2,%rax
  4056b8:	48 89 c7             	mov    %rax,%rdi
  4056bb:	e8 60 e8 ff ff       	callq  403f20 <_Znam@plt>
  4056c0:	48 89 45 e8          	mov    %rax,-0x18(%rbp)
  4056c4:	c7 45 d8 00 00 00 00 	movl   $0x0,-0x28(%rbp)
  4056cb:	eb 05                	jmp    4056d2 <_ZN2CK19get_random_raw_dataIfEEPT_RKNS_5ShapeE+0x76>
  4056cd:	e8 ce e9 ff ff       	callq  4040a0 <__cxa_throw_bad_array_new_length@plt>
  4056d2:	8b 45 d8             	mov    -0x28(%rbp),%eax
  4056d5:	3b 45 e4             	cmp    -0x1c(%rbp),%eax
  4056d8:	7d 5e                	jge    405738 <_ZN2CK19get_random_raw_dataIfEEPT_RKNS_5ShapeE+0xdc>
  4056da:	8b 45 d8             	mov    -0x28(%rbp),%eax
  4056dd:	48 98                	cltq   
  4056df:	48 8d 14 85 00 00 00 	lea    0x0(,%rax,4),%rdx
  4056e6:	00 
  4056e7:	48 8b 45 e8          	mov    -0x18(%rbp),%rax
  4056eb:	48 8d 1c 02          	lea    (%rdx,%rax,1),%rbx
  4056ef:	e8 3c ea ff ff       	callq  404130 <rand@plt>
  4056f4:	89 c1                	mov    %eax,%ecx
  4056f6:	ba c5 bd 31 04       	mov    $0x431bdc5,%edx
  4056fb:	89 c8                	mov    %ecx,%eax
  4056fd:	f7 ea                	imul   %edx
  4056ff:	c1 fa 0f             	sar    $0xf,%edx
  405702:	89 c8                	mov    %ecx,%eax
  405704:	c1 f8 1f             	sar    $0x1f,%eax
  405707:	29 c2                	sub    %eax,%edx
  405709:	89 d0                	mov    %edx,%eax
  40570b:	69 c0 81 84 1e 00    	imul   $0x1e8481,%eax,%eax
  405711:	29 c1                	sub    %eax,%ecx
  405713:	89 c8                	mov    %ecx,%eax
  405715:	2d 40 42 0f 00       	sub    $0xf4240,%eax
  40571a:	66 0f ef c0          	pxor   %xmm0,%xmm0
  40571e:	f3 0f 2a c0          	cvtsi2ss %eax,%xmm0
  405722:	f3 0f 10 0d 1a 5f 00 	movss  0x5f1a(%rip),%xmm1        # 40b644 <_ZZNK5boost10shared_ptrIN5caffe12SyncedMemoryEEptEvE19__PRETTY_FUNCTION__+0xc4>
  405729:	00 
  40572a:	f3 0f 5e c1          	divss  %xmm1,%xmm0
  40572e:	f3 0f 11 03          	movss  %xmm0,(%rbx)
  405732:	83 45 d8 01          	addl   $0x1,-0x28(%rbp)
  405736:	eb 9a                	jmp    4056d2 <_ZN2CK19get_random_raw_dataIfEEPT_RKNS_5ShapeE+0x76>
  405738:	48 8b 45 e8          	mov    -0x18(%rbp),%rax
  40573c:	48 83 c4 38          	add    $0x38,%rsp
  405740:	5b                   	pop    %rbx
  405741:	5d                   	pop    %rbp
  405742:	c3                   	retq   

0000000000405743 <_ZN2CK20print_input_raw_dataIfEEvPT_RKNS_5ShapeE>:
  405743:	55                   	push   %rbp
  405744:	48 89 e5             	mov    %rsp,%rbp
  405747:	48 83 ec 10          	sub    $0x10,%rsp
  40574b:	48 89 7d f8          	mov    %rdi,-0x8(%rbp)
  40574f:	48 89 75 f0          	mov    %rsi,-0x10(%rbp)
  405753:	48 8b 75 f0          	mov    -0x10(%rbp),%rsi
  405757:	48 8b 45 f8          	mov    -0x8(%rbp),%rax
  40575b:	b9 2c af 40 00       	mov    $0x40af2c,%ecx
  405760:	ba 32 af 40 00       	mov    $0x40af32,%edx
  405765:	48 89 c7             	mov    %rax,%rdi
  405768:	e8 ed 18 00 00       	callq  40705a <_ZN2CK12log_raw_dataIfEEvPT_RKNS_5ShapeEPKcS7_>
  40576d:	90                   	nop
  40576e:	c9                   	leaveq 
  40576f:	c3                   	retq   

0000000000405770 <_ZN5caffe5LayerIfE7ForwardERKSt6vectorIPNS_4BlobIfEESaIS5_EES9_>:
  405770:	55                   	push   %rbp
  405771:	48 89 e5             	mov    %rsp,%rbp
  405774:	53                   	push   %rbx
  405775:	48 83 ec 68          	sub    $0x68,%rsp
  405779:	48 89 7d a8          	mov    %rdi,-0x58(%rbp)
  40577d:	48 89 75 a0          	mov    %rsi,-0x60(%rbp)
  405781:	48 89 55 98          	mov    %rdx,-0x68(%rbp)
  405785:	64 48 8b 04 25 28 00 	mov    %fs:0x28,%rax
  40578c:	00 00 
  40578e:	48 89 45 e8          	mov    %rax,-0x18(%rbp)
  405792:	31 c0                	xor    %eax,%eax
  405794:	66 0f ef c0          	pxor   %xmm0,%xmm0
  405798:	f3 0f 11 45 b4       	movss  %xmm0,-0x4c(%rbp)
  40579d:	48 8b 45 a8          	mov    -0x58(%rbp),%rax
  4057a1:	48 8b 00             	mov    (%rax),%rax
  4057a4:	48 83 c0 18          	add    $0x18,%rax
  4057a8:	48 8b 00             	mov    (%rax),%rax
  4057ab:	48 8b 55 98          	mov    -0x68(%rbp),%rdx
  4057af:	48 8b 75 a0          	mov    -0x60(%rbp),%rsi
  4057b3:	48 8b 4d a8          	mov    -0x58(%rbp),%rcx
  4057b7:	48 89 cf             	mov    %rcx,%rdi
  4057ba:	ff d0                	callq  *%rax
  4057bc:	e8 60 ef ff ff       	callq  404721 <_ZN5caffe5Caffe4modeEv>
  4057c1:	85 c0                	test   %eax,%eax
  4057c3:	74 0e                	je     4057d3 <_ZN5caffe5LayerIfE7ForwardERKSt6vectorIPNS_4BlobIfEESaIS5_EES9_+0x63>
  4057c5:	83 f8 01             	cmp    $0x1,%eax
  4057c8:	0f 84 1a 01 00 00    	je     4058e8 <_ZN5caffe5LayerIfE7ForwardERKSt6vectorIPNS_4BlobIfEESaIS5_EES9_+0x178>
  4057ce:	e9 36 01 00 00       	jmpq   405909 <_ZN5caffe5LayerIfE7ForwardERKSt6vectorIPNS_4BlobIfEESaIS5_EES9_+0x199>
  4057d3:	48 8b 45 a8          	mov    -0x58(%rbp),%rax
  4057d7:	48 8b 00             	mov    (%rax),%rax
  4057da:	48 83 c0 78          	add    $0x78,%rax
  4057de:	48 8b 00             	mov    (%rax),%rax
  4057e1:	48 8b 55 98          	mov    -0x68(%rbp),%rdx
  4057e5:	48 8b 75 a0          	mov    -0x60(%rbp),%rsi
  4057e9:	48 8b 4d a8          	mov    -0x58(%rbp),%rcx
  4057ed:	48 89 cf             	mov    %rcx,%rdi
  4057f0:	ff d0                	callq  *%rax
  4057f2:	c7 45 b8 00 00 00 00 	movl   $0x0,-0x48(%rbp)
  4057f9:	8b 45 b8             	mov    -0x48(%rbp),%eax
  4057fc:	48 63 d8             	movslq %eax,%rbx
  4057ff:	48 8b 45 98          	mov    -0x68(%rbp),%rax
  405803:	48 89 c7             	mov    %rax,%rdi
  405806:	e8 c7 18 00 00       	callq  4070d2 <_ZNKSt6vectorIPN5caffe4BlobIfEESaIS3_EE4sizeEv>
  40580b:	48 39 c3             	cmp    %rax,%rbx
  40580e:	0f 92 c0             	setb   %al
  405811:	84 c0                	test   %al,%al
  405813:	0f 84 2b 01 00 00    	je     405944 <_ZN5caffe5LayerIfE7ForwardERKSt6vectorIPNS_4BlobIfEESaIS5_EES9_+0x1d4>
  405819:	8b 55 b8             	mov    -0x48(%rbp),%edx
  40581c:	48 8b 45 a8          	mov    -0x58(%rbp),%rax
  405820:	89 d6                	mov    %edx,%esi
  405822:	48 89 c7             	mov    %rax,%rdi
  405825:	e8 ce 18 00 00       	callq  4070f8 <_ZNK5caffe5LayerIfE4lossEi>
  40582a:	66 0f ef c9          	pxor   %xmm1,%xmm1
  40582e:	0f 2e c1             	ucomiss %xmm1,%xmm0
  405831:	0f 9b c0             	setnp  %al
  405834:	ba 00 00 00 00       	mov    $0x0,%edx
  405839:	66 0f ef c9          	pxor   %xmm1,%xmm1
  40583d:	0f 2e c1             	ucomiss %xmm1,%xmm0
  405840:	0f 45 c2             	cmovne %edx,%eax
  405843:	84 c0                	test   %al,%al
  405845:	0f 85 93 00 00 00    	jne    4058de <_ZN5caffe5LayerIfE7ForwardERKSt6vectorIPNS_4BlobIfEESaIS5_EES9_+0x16e>
  40584b:	8b 45 b8             	mov    -0x48(%rbp),%eax
  40584e:	48 63 d0             	movslq %eax,%rdx
  405851:	48 8b 45 98          	mov    -0x68(%rbp),%rax
  405855:	48 89 d6             	mov    %rdx,%rsi
  405858:	48 89 c7             	mov    %rax,%rdi
  40585b:	e8 ee 18 00 00       	callq  40714e <_ZNKSt6vectorIPN5caffe4BlobIfEESaIS3_EEixEm>
  405860:	48 8b 00             	mov    (%rax),%rax
  405863:	48 89 c7             	mov    %rax,%rdi
  405866:	e8 03 19 00 00       	callq  40716e <_ZNK5caffe4BlobIfE5countEv>
  40586b:	89 45 bc             	mov    %eax,-0x44(%rbp)
  40586e:	8b 45 b8             	mov    -0x48(%rbp),%eax
  405871:	48 63 d0             	movslq %eax,%rdx
  405874:	48 8b 45 98          	mov    -0x68(%rbp),%rax
  405878:	48 89 d6             	mov    %rdx,%rsi
  40587b:	48 89 c7             	mov    %rax,%rdi
  40587e:	e8 cb 18 00 00       	callq  40714e <_ZNKSt6vectorIPN5caffe4BlobIfEESaIS3_EEixEm>
  405883:	48 8b 00             	mov    (%rax),%rax
  405886:	48 89 c7             	mov    %rax,%rdi
  405889:	e8 42 e7 ff ff       	callq  403fd0 <_ZNK5caffe4BlobIfE8cpu_dataEv@plt>
  40588e:	48 89 45 c0          	mov    %rax,-0x40(%rbp)
  405892:	8b 45 b8             	mov    -0x48(%rbp),%eax
  405895:	48 63 d0             	movslq %eax,%rdx
  405898:	48 8b 45 98          	mov    -0x68(%rbp),%rax
  40589c:	48 89 d6             	mov    %rdx,%rsi
  40589f:	48 89 c7             	mov    %rax,%rdi
  4058a2:	e8 a7 18 00 00       	callq  40714e <_ZNKSt6vectorIPN5caffe4BlobIfEESaIS3_EEixEm>
  4058a7:	48 8b 00             	mov    (%rax),%rax
  4058aa:	48 89 c7             	mov    %rax,%rdi
  4058ad:	e8 7e e7 ff ff       	callq  404030 <_ZNK5caffe4BlobIfE8cpu_diffEv@plt>
  4058b2:	48 89 45 c8          	mov    %rax,-0x38(%rbp)
  4058b6:	48 8b 55 c8          	mov    -0x38(%rbp),%rdx
  4058ba:	48 8b 4d c0          	mov    -0x40(%rbp),%rcx
  4058be:	8b 45 bc             	mov    -0x44(%rbp),%eax
  4058c1:	48 89 ce             	mov    %rcx,%rsi
  4058c4:	89 c7                	mov    %eax,%edi
  4058c6:	e8 45 e9 ff ff       	callq  404210 <_ZN5caffe13caffe_cpu_dotIfEET_iPKS1_S3_@plt>
  4058cb:	0f 28 c8             	movaps %xmm0,%xmm1
  4058ce:	f3 0f 10 45 b4       	movss  -0x4c(%rbp),%xmm0
  4058d3:	f3 0f 58 c1          	addss  %xmm1,%xmm0
  4058d7:	f3 0f 11 45 b4       	movss  %xmm0,-0x4c(%rbp)
  4058dc:	eb 01                	jmp    4058df <_ZN5caffe5LayerIfE7ForwardERKSt6vectorIPNS_4BlobIfEESaIS5_EES9_+0x16f>
  4058de:	90                   	nop
  4058df:	83 45 b8 01          	addl   $0x1,-0x48(%rbp)
  4058e3:	e9 11 ff ff ff       	jmpq   4057f9 <_ZN5caffe5LayerIfE7ForwardERKSt6vectorIPNS_4BlobIfEESaIS5_EES9_+0x89>
  4058e8:	48 8b 45 a8          	mov    -0x58(%rbp),%rax
  4058ec:	48 8b 00             	mov    (%rax),%rax
  4058ef:	48 83 e8 80          	sub    $0xffffffffffffff80,%rax
  4058f3:	48 8b 00             	mov    (%rax),%rax
  4058f6:	48 8b 55 98          	mov    -0x68(%rbp),%rdx
  4058fa:	48 8b 75 a0          	mov    -0x60(%rbp),%rsi
  4058fe:	48 8b 4d a8          	mov    -0x58(%rbp),%rcx
  405902:	48 89 cf             	mov    %rcx,%rdi
  405905:	ff d0                	callq  *%rax
  405907:	eb 3c                	jmp    405945 <_ZN5caffe5LayerIfE7ForwardERKSt6vectorIPNS_4BlobIfEESaIS5_EES9_+0x1d5>
  405909:	48 8d 45 d0          	lea    -0x30(%rbp),%rax
  40590d:	ba bb 01 00 00       	mov    $0x1bb,%edx
  405912:	be 48 af 40 00       	mov    $0x40af48,%esi
  405917:	48 89 c7             	mov    %rax,%rdi
  40591a:	e8 41 e9 ff ff       	callq  404260 <_ZN6google15LogMessageFatalC1EPKci@plt>
  40591f:	48 8d 45 d0          	lea    -0x30(%rbp),%rax
  405923:	48 89 c7             	mov    %rax,%rdi
  405926:	e8 35 e8 ff ff       	callq  404160 <_ZN6google10LogMessage6streamEv@plt>
  40592b:	be b5 af 40 00       	mov    $0x40afb5,%esi
  405930:	48 89 c7             	mov    %rax,%rdi
  405933:	e8 48 e6 ff ff       	callq  403f80 <_ZStlsISt11char_traitsIcEERSt13basic_ostreamIcT_ES5_PKc@plt>
  405938:	48 8d 45 d0          	lea    -0x30(%rbp),%rax
  40593c:	48 89 c7             	mov    %rax,%rdi
  40593f:	e8 9c e7 ff ff       	callq  4040e0 <_ZN6google15LogMessageFatalD1Ev@plt>
  405944:	90                   	nop
  405945:	f3 0f 10 45 b4       	movss  -0x4c(%rbp),%xmm0
  40594a:	48 8b 45 e8          	mov    -0x18(%rbp),%rax
  40594e:	64 48 33 04 25 28 00 	xor    %fs:0x28,%rax
  405955:	00 00 
  405957:	74 13                	je     40596c <_ZN5caffe5LayerIfE7ForwardERKSt6vectorIPNS_4BlobIfEESaIS5_EES9_+0x1fc>
  405959:	eb 0c                	jmp    405967 <_ZN5caffe5LayerIfE7ForwardERKSt6vectorIPNS_4BlobIfEESaIS5_EES9_+0x1f7>
  40595b:	48 8d 45 d0          	lea    -0x30(%rbp),%rax
  40595f:	48 89 c7             	mov    %rax,%rdi
  405962:	e8 79 e7 ff ff       	callq  4040e0 <_ZN6google15LogMessageFatalD1Ev@plt>
  405967:	e8 44 e5 ff ff       	callq  403eb0 <__stack_chk_fail@plt>
  40596c:	48 83 c4 68          	add    $0x68,%rsp
  405970:	5b                   	pop    %rbx
  405971:	5d                   	pop    %rbp
  405972:	c3                   	retq   

0000000000405973 <_ZN2CK12measure_testIZNS_5Caffe12test_softmaxEvEUlvE0_EEvOT_>:
  405973:	55                   	push   %rbp
  405974:	48 89 e5             	mov    %rsp,%rbp
  405977:	48 83 ec 10          	sub    $0x10,%rsp
  40597b:	48 89 7d f8          	mov    %rdi,-0x8(%rbp)
  40597f:	48 8b 45 f8          	mov    -0x8(%rbp),%rax
  405983:	be 01 00 00 00       	mov    $0x1,%esi
  405988:	48 89 c7             	mov    %rax,%rdi
  40598b:	e8 25 18 00 00       	callq  4071b5 <_ZN2CK11do_measuredIRZNS_5Caffe12test_softmaxEvEUlvE0_EEvOT_i>
  405990:	bf 01 00 00 00       	mov    $0x1,%edi
  405995:	e8 a6 e5 ff ff       	callq  403f40 <xopenme_get_timer@plt>
  40599a:	f2 0f 5a c0          	cvtsd2ss %xmm0,%xmm0
  40599e:	e8 2d ea ff ff       	callq  4043d0 <_ZN2CK15store_test_timeEf>
  4059a3:	90                   	nop
  4059a4:	c9                   	leaveq 
  4059a5:	c3                   	retq   

00000000004059a6 <_ZNK5caffe4BlobIfE4dataEv>:
  4059a6:	55                   	push   %rbp
  4059a7:	48 89 e5             	mov    %rsp,%rbp
  4059aa:	41 55                	push   %r13
  4059ac:	41 54                	push   %r12
  4059ae:	53                   	push   %rbx
  4059af:	48 83 ec 48          	sub    $0x48,%rsp
  4059b3:	48 89 7d a8          	mov    %rdi,-0x58(%rbp)
  4059b7:	64 48 8b 04 25 28 00 	mov    %fs:0x28,%rax
  4059be:	00 00 
  4059c0:	48 89 45 d8          	mov    %rax,-0x28(%rbp)
  4059c4:	31 c0                	xor    %eax,%eax
  4059c6:	48 8b 45 a8          	mov    -0x58(%rbp),%rax
  4059ca:	48 89 c7             	mov    %rax,%rdi
  4059cd:	e8 16 18 00 00       	callq  4071e8 <_ZNK5boost10shared_ptrIN5caffe12SyncedMemoryEEntEv>
  4059d2:	0f b6 c0             	movzbl %al,%eax
  4059d5:	bb 00 00 00 00       	mov    $0x0,%ebx
  4059da:	41 bc 00 00 00 00    	mov    $0x0,%r12d
  4059e0:	48 85 c0             	test   %rax,%rax
  4059e3:	74 58                	je     405a3d <_ZNK5caffe4BlobIfE4dataEv+0x97>
  4059e5:	48 8d 45 c0          	lea    -0x40(%rbp),%rax
  4059e9:	ba d2 00 00 00       	mov    $0xd2,%edx
  4059ee:	be d0 af 40 00       	mov    $0x40afd0,%esi
  4059f3:	48 89 c7             	mov    %rax,%rdi
  4059f6:	e8 65 e8 ff ff       	callq  404260 <_ZN6google15LogMessageFatalC1EPKci@plt>
  4059fb:	bb 01 00 00 00       	mov    $0x1,%ebx
  405a00:	48 8d 45 c0          	lea    -0x40(%rbp),%rax
  405a04:	48 89 c7             	mov    %rax,%rdi
  405a07:	e8 54 e7 ff ff       	callq  404160 <_ZN6google10LogMessage6streamEv@plt>
  405a0c:	be 3c b0 40 00       	mov    $0x40b03c,%esi
  405a11:	48 89 c7             	mov    %rax,%rdi
  405a14:	e8 67 e5 ff ff       	callq  403f80 <_ZStlsISt11char_traitsIcEERSt13basic_ostreamIcT_ES5_PKc@plt>
  405a19:	49 89 c5             	mov    %rax,%r13
  405a1c:	48 8d 45 bf          	lea    -0x41(%rbp),%rax
  405a20:	48 89 c7             	mov    %rax,%rdi
  405a23:	e8 de ec ff ff       	callq  404706 <_ZN6google17LogMessageVoidifyC1Ev>
  405a28:	41 bc 01 00 00 00    	mov    $0x1,%r12d
  405a2e:	48 8d 45 bf          	lea    -0x41(%rbp),%rax
  405a32:	4c 89 ee             	mov    %r13,%rsi
  405a35:	48 89 c7             	mov    %rax,%rdi
  405a38:	e8 d5 ec ff ff       	callq  404712 <_ZN6google17LogMessageVoidifyanERSo>
  405a3d:	45 84 e4             	test   %r12b,%r12b
  405a40:	84 db                	test   %bl,%bl
  405a42:	74 0d                	je     405a51 <_ZNK5caffe4BlobIfE4dataEv+0xab>
  405a44:	90                   	nop
  405a45:	48 8d 45 c0          	lea    -0x40(%rbp),%rax
  405a49:	48 89 c7             	mov    %rax,%rdi
  405a4c:	e8 8f e6 ff ff       	callq  4040e0 <_ZN6google15LogMessageFatalD1Ev@plt>
  405a51:	90                   	nop
  405a52:	48 8b 45 a8          	mov    -0x58(%rbp),%rax
  405a56:	48 8b 4d d8          	mov    -0x28(%rbp),%rcx
  405a5a:	64 48 33 0c 25 28 00 	xor    %fs:0x28,%rcx
  405a61:	00 00 
  405a63:	74 24                	je     405a89 <_ZNK5caffe4BlobIfE4dataEv+0xe3>
  405a65:	eb 1d                	jmp    405a84 <_ZNK5caffe4BlobIfE4dataEv+0xde>
  405a67:	45 84 e4             	test   %r12b,%r12b
  405a6a:	84 db                	test   %bl,%bl
  405a6c:	74 0d                	je     405a7b <_ZNK5caffe4BlobIfE4dataEv+0xd5>
  405a6e:	90                   	nop
  405a6f:	48 8d 45 c0          	lea    -0x40(%rbp),%rax
  405a73:	48 89 c7             	mov    %rax,%rdi
  405a76:	e8 65 e6 ff ff       	callq  4040e0 <_ZN6google15LogMessageFatalD1Ev@plt>
  405a7b:	90                   	nop
  405a7c:	48 89 c7             	mov    %rax,%rdi
  405a7f:	e8 6c e5 ff ff       	callq  403ff0 <_Unwind_Resume@plt>
  405a84:	e8 27 e4 ff ff       	callq  403eb0 <__stack_chk_fail@plt>
  405a89:	48 83 c4 48          	add    $0x48,%rsp
  405a8d:	5b                   	pop    %rbx
  405a8e:	41 5c                	pop    %r12
  405a90:	41 5d                	pop    %r13
  405a92:	5d                   	pop    %rbp
  405a93:	c3                   	retq   

0000000000405a94 <_ZNK5boost10shared_ptrIN5caffe12SyncedMemoryEEptEv>:
  405a94:	55                   	push   %rbp
  405a95:	48 89 e5             	mov    %rsp,%rbp
  405a98:	48 83 ec 10          	sub    $0x10,%rsp
  405a9c:	48 89 7d f8          	mov    %rdi,-0x8(%rbp)
  405aa0:	48 8b 45 f8          	mov    -0x8(%rbp),%rax
  405aa4:	48 8b 00             	mov    (%rax),%rax
  405aa7:	48 85 c0             	test   %rax,%rax
  405aaa:	75 19                	jne    405ac5 <_ZNK5boost10shared_ptrIN5caffe12SyncedMemoryEEptEv+0x31>
  405aac:	b9 80 b5 40 00       	mov    $0x40b580,%ecx
  405ab1:	ba 88 02 00 00       	mov    $0x288,%edx
  405ab6:	be 58 b0 40 00       	mov    $0x40b058,%esi
  405abb:	bf 84 b0 40 00       	mov    $0x40b084,%edi
  405ac0:	e8 ab e3 ff ff       	callq  403e70 <__assert_fail@plt>
  405ac5:	48 8b 45 f8          	mov    -0x8(%rbp),%rax
  405ac9:	48 8b 00             	mov    (%rax),%rax
  405acc:	c9                   	leaveq 
  405acd:	c3                   	retq   

0000000000405ace <_ZN2CK21print_output_raw_dataIfEEvPT_RKNS_5ShapeE>:
  405ace:	55                   	push   %rbp
  405acf:	48 89 e5             	mov    %rsp,%rbp
  405ad2:	48 83 ec 10          	sub    $0x10,%rsp
  405ad6:	48 89 7d f8          	mov    %rdi,-0x8(%rbp)
  405ada:	48 89 75 f0          	mov    %rsi,-0x10(%rbp)
  405ade:	48 8b 75 f0          	mov    -0x10(%rbp),%rsi
  405ae2:	48 8b 45 f8          	mov    -0x8(%rbp),%rax
  405ae6:	b9 8c b0 40 00       	mov    $0x40b08c,%ecx
  405aeb:	ba 93 b0 40 00       	mov    $0x40b093,%edx
  405af0:	48 89 c7             	mov    %rax,%rdi
  405af3:	e8 62 15 00 00       	callq  40705a <_ZN2CK12log_raw_dataIfEEvPT_RKNS_5ShapeEPKcS7_>
  405af8:	90                   	nop
  405af9:	c9                   	leaveq 
  405afa:	c3                   	retq   

0000000000405afb <_ZN2CK20dump_output_raw_dataIfEEvPT_RKNS_5ShapeE>:
  405afb:	55                   	push   %rbp
  405afc:	48 89 e5             	mov    %rsp,%rbp
  405aff:	48 83 ec 20          	sub    $0x20,%rsp
  405b03:	48 89 7d e8          	mov    %rdi,-0x18(%rbp)
  405b07:	48 89 75 e0          	mov    %rsi,-0x20(%rbp)
  405b0b:	bf a7 b0 40 00       	mov    $0x40b0a7,%edi
  405b10:	e8 3b e5 ff ff       	callq  404050 <getenv@plt>
  405b15:	48 89 45 f8          	mov    %rax,-0x8(%rbp)
  405b19:	48 83 7d f8 00       	cmpq   $0x0,-0x8(%rbp)
  405b1e:	0f 84 89 00 00 00    	je     405bad <_ZN2CK20dump_output_raw_dataIfEEvPT_RKNS_5ShapeE+0xb2>
  405b24:	48 8b 45 e0          	mov    -0x20(%rbp),%rax
  405b28:	48 89 c7             	mov    %rax,%rdi
  405b2b:	e8 22 ee ff ff       	callq  404952 <_ZNK2CK5Shape10data_countEv>
  405b30:	48 98                	cltq   
  405b32:	48 c1 e0 02          	shl    $0x2,%rax
  405b36:	48 89 c2             	mov    %rax,%rdx
  405b39:	48 8b 4d e8          	mov    -0x18(%rbp),%rcx
  405b3d:	48 8b 45 f8          	mov    -0x8(%rbp),%rax
  405b41:	48 89 ce             	mov    %rcx,%rsi
  405b44:	48 89 c7             	mov    %rax,%rdi
  405b47:	e8 04 e7 ff ff       	callq  404250 <xopenme_dump_memory@plt>
  405b4c:	48 8b 45 e0          	mov    -0x20(%rbp),%rax
  405b50:	8b 00                	mov    (%rax),%eax
  405b52:	89 c2                	mov    %eax,%edx
  405b54:	be b7 b0 40 00       	mov    $0x40b0b7,%esi
  405b59:	bf 00 00 00 00       	mov    $0x0,%edi
  405b5e:	e8 d5 ee ff ff       	callq  404a38 <_ZN2CK13store_value_iEiPKci>
  405b63:	48 8b 45 e0          	mov    -0x20(%rbp),%rax
  405b67:	8b 40 04             	mov    0x4(%rax),%eax
  405b6a:	89 c2                	mov    %eax,%edx
  405b6c:	be c3 b0 40 00       	mov    $0x40b0c3,%esi
  405b71:	bf 01 00 00 00       	mov    $0x1,%edi
  405b76:	e8 bd ee ff ff       	callq  404a38 <_ZN2CK13store_value_iEiPKci>
  405b7b:	48 8b 45 e0          	mov    -0x20(%rbp),%rax
  405b7f:	8b 40 08             	mov    0x8(%rax),%eax
  405b82:	89 c2                	mov    %eax,%edx
  405b84:	be cf b0 40 00       	mov    $0x40b0cf,%esi
  405b89:	bf 02 00 00 00       	mov    $0x2,%edi
  405b8e:	e8 a5 ee ff ff       	callq  404a38 <_ZN2CK13store_value_iEiPKci>
  405b93:	48 8b 45 e0          	mov    -0x20(%rbp),%rax
  405b97:	8b 40 0c             	mov    0xc(%rax),%eax
  405b9a:	89 c2                	mov    %eax,%edx
  405b9c:	be db b0 40 00       	mov    $0x40b0db,%esi
  405ba1:	bf 03 00 00 00       	mov    $0x3,%edi
  405ba6:	e8 8d ee ff ff       	callq  404a38 <_ZN2CK13store_value_iEiPKci>
  405bab:	eb 01                	jmp    405bae <_ZN2CK20dump_output_raw_dataIfEEvPT_RKNS_5ShapeE+0xb3>
  405bad:	90                   	nop
  405bae:	c9                   	leaveq 
  405baf:	c3                   	retq   

0000000000405bb0 <_ZNSt6vectorIiSaIiEED1Ev>:
  405bb0:	55                   	push   %rbp
  405bb1:	48 89 e5             	mov    %rsp,%rbp
  405bb4:	48 83 ec 10          	sub    $0x10,%rsp
  405bb8:	48 89 7d f8          	mov    %rdi,-0x8(%rbp)
  405bbc:	48 8b 45 f8          	mov    -0x8(%rbp),%rax
  405bc0:	48 89 c7             	mov    %rax,%rdi
  405bc3:	e8 a4 16 00 00       	callq  40726c <_ZNSt12_Vector_baseIiSaIiEE19_M_get_Tp_allocatorEv>
  405bc8:	48 89 c2             	mov    %rax,%rdx
  405bcb:	48 8b 45 f8          	mov    -0x8(%rbp),%rax
  405bcf:	48 8b 48 08          	mov    0x8(%rax),%rcx
  405bd3:	48 8b 45 f8          	mov    -0x8(%rbp),%rax
  405bd7:	48 8b 00             	mov    (%rax),%rax
  405bda:	48 89 ce             	mov    %rcx,%rsi
  405bdd:	48 89 c7             	mov    %rax,%rdi
  405be0:	e8 95 16 00 00       	callq  40727a <_ZSt8_DestroyIPiiEvT_S1_RSaIT0_E>
  405be5:	48 8b 45 f8          	mov    -0x8(%rbp),%rax
  405be9:	48 89 c7             	mov    %rax,%rdi
  405bec:	e8 2b 16 00 00       	callq  40721c <_ZNSt12_Vector_baseIiSaIiEED1Ev>
  405bf1:	90                   	nop
  405bf2:	c9                   	leaveq 
  405bf3:	c3                   	retq   

0000000000405bf4 <_ZN6google8protobuf8internal20RepeatedPtrFieldBase5ClearINS0_16RepeatedPtrFieldIN5caffe9BlobProtoEE11TypeHandlerEEEvv>:
  405bf4:	55                   	push   %rbp
  405bf5:	48 89 e5             	mov    %rsp,%rbp
  405bf8:	41 54                	push   %r12
  405bfa:	53                   	push   %rbx
  405bfb:	48 83 ec 70          	sub    $0x70,%rsp
  405bff:	48 89 7d 88          	mov    %rdi,-0x78(%rbp)
  405c03:	64 48 8b 04 25 28 00 	mov    %fs:0x28,%rax
  405c0a:	00 00 
  405c0c:	48 89 45 e8          	mov    %rax,-0x18(%rbp)
  405c10:	31 c0                	xor    %eax,%eax
  405c12:	48 8b 45 88          	mov    -0x78(%rbp),%rax
  405c16:	8b 40 08             	mov    0x8(%rax),%eax
  405c19:	89 45 a4             	mov    %eax,-0x5c(%rbp)
  405c1c:	bb 00 00 00 00       	mov    $0x0,%ebx
  405c21:	41 bc 00 00 00 00    	mov    $0x0,%r12d
  405c27:	83 7d a4 00          	cmpl   $0x0,-0x5c(%rbp)
  405c2b:	79 49                	jns    405c76 <_ZN6google8protobuf8internal20RepeatedPtrFieldBase5ClearINS0_16RepeatedPtrFieldIN5caffe9BlobProtoEE11TypeHandlerEEEvv+0x82>
  405c2d:	48 8d 45 b0          	lea    -0x50(%rbp),%rax
  405c31:	b9 c4 05 00 00       	mov    $0x5c4,%ecx
  405c36:	ba 68 ae 40 00       	mov    $0x40ae68,%edx
  405c3b:	be 03 00 00 00       	mov    $0x3,%esi
  405c40:	48 89 c7             	mov    %rax,%rdi
  405c43:	e8 58 e3 ff ff       	callq  403fa0 <_ZN6google8protobuf8internal10LogMessageC1ENS0_8LogLevelEPKci@plt>
  405c48:	bb 01 00 00 00       	mov    $0x1,%ebx
  405c4d:	48 8d 45 b0          	lea    -0x50(%rbp),%rax
  405c51:	be e7 b0 40 00       	mov    $0x40b0e7,%esi
  405c56:	48 89 c7             	mov    %rax,%rdi
  405c59:	e8 22 e6 ff ff       	callq  404280 <_ZN6google8protobuf8internal10LogMessagelsEPKc@plt>
  405c5e:	48 89 c2             	mov    %rax,%rdx
  405c61:	41 bc 01 00 00 00    	mov    $0x1,%r12d
  405c67:	48 8d 45 9f          	lea    -0x61(%rbp),%rax
  405c6b:	48 89 d6             	mov    %rdx,%rsi
  405c6e:	48 89 c7             	mov    %rax,%rdi
  405c71:	e8 0a e4 ff ff       	callq  404080 <_ZN6google8protobuf8internal11LogFinisheraSERNS1_10LogMessageE@plt>
  405c76:	45 84 e4             	test   %r12b,%r12b
  405c79:	84 db                	test   %bl,%bl
  405c7b:	74 0f                	je     405c8c <_ZN6google8protobuf8internal20RepeatedPtrFieldBase5ClearINS0_16RepeatedPtrFieldIN5caffe9BlobProtoEE11TypeHandlerEEEvv+0x98>
  405c7d:	90                   	nop
  405c7e:	48 8d 45 b0          	lea    -0x50(%rbp),%rax
  405c82:	48 89 c7             	mov    %rax,%rdi
  405c85:	e8 66 e4 ff ff       	callq  4040f0 <_ZN6google8protobuf8internal10LogMessageD1Ev@plt>
  405c8a:	eb 01                	jmp    405c8d <_ZN6google8protobuf8internal20RepeatedPtrFieldBase5ClearINS0_16RepeatedPtrFieldIN5caffe9BlobProtoEE11TypeHandlerEEEvv+0x99>
  405c8c:	90                   	nop
  405c8d:	83 7d a4 00          	cmpl   $0x0,-0x5c(%rbp)
  405c91:	0f 8e 80 00 00 00    	jle    405d17 <_ZN6google8protobuf8internal20RepeatedPtrFieldBase5ClearINS0_16RepeatedPtrFieldIN5caffe9BlobProtoEE11TypeHandlerEEEvv+0x123>
  405c97:	48 8b 45 88          	mov    -0x78(%rbp),%rax
  405c9b:	48 8b 40 10          	mov    0x10(%rax),%rax
  405c9f:	48 83 c0 08          	add    $0x8,%rax
  405ca3:	48 89 45 a8          	mov    %rax,-0x58(%rbp)
  405ca7:	c7 45 a0 00 00 00 00 	movl   $0x0,-0x60(%rbp)
  405cae:	8b 45 a0             	mov    -0x60(%rbp),%eax
  405cb1:	8d 50 01             	lea    0x1(%rax),%edx
  405cb4:	89 55 a0             	mov    %edx,-0x60(%rbp)
  405cb7:	48 98                	cltq   
  405cb9:	48 8d 14 c5 00 00 00 	lea    0x0(,%rax,8),%rdx
  405cc0:	00 
  405cc1:	48 8b 45 a8          	mov    -0x58(%rbp),%rax
  405cc5:	48 01 d0             	add    %rdx,%rax
  405cc8:	48 8b 00             	mov    (%rax),%rax
  405ccb:	48 89 c7             	mov    %rax,%rdi
  405cce:	e8 1e 16 00 00       	callq  4072f1 <_ZN6google8protobuf8internal20RepeatedPtrFieldBase4castINS0_16RepeatedPtrFieldIN5caffe9BlobProtoEE11TypeHandlerEEEPNT_4TypeEPv>
  405cd3:	48 89 c7             	mov    %rax,%rdi
  405cd6:	e8 f0 15 00 00       	callq  4072cb <_ZN6google8protobuf8internal18GenericTypeHandlerIN5caffe9BlobProtoEE5ClearEPS4_>
  405cdb:	8b 45 a0             	mov    -0x60(%rbp),%eax
  405cde:	3b 45 a4             	cmp    -0x5c(%rbp),%eax
  405ce1:	7d 02                	jge    405ce5 <_ZN6google8protobuf8internal20RepeatedPtrFieldBase5ClearINS0_16RepeatedPtrFieldIN5caffe9BlobProtoEE11TypeHandlerEEEvv+0xf1>
  405ce3:	eb c9                	jmp    405cae <_ZN6google8protobuf8internal20RepeatedPtrFieldBase5ClearINS0_16RepeatedPtrFieldIN5caffe9BlobProtoEE11TypeHandlerEEEvv+0xba>
  405ce5:	48 8b 45 88          	mov    -0x78(%rbp),%rax
  405ce9:	c7 40 08 00 00 00 00 	movl   $0x0,0x8(%rax)
  405cf0:	eb 25                	jmp    405d17 <_ZN6google8protobuf8internal20RepeatedPtrFieldBase5ClearINS0_16RepeatedPtrFieldIN5caffe9BlobProtoEE11TypeHandlerEEEvv+0x123>
  405cf2:	45 84 e4             	test   %r12b,%r12b
  405cf5:	49 89 c4             	mov    %rax,%r12
  405cf8:	84 db                	test   %bl,%bl
  405cfa:	74 0f                	je     405d0b <_ZN6google8protobuf8internal20RepeatedPtrFieldBase5ClearINS0_16RepeatedPtrFieldIN5caffe9BlobProtoEE11TypeHandlerEEEvv+0x117>
  405cfc:	90                   	nop
  405cfd:	48 8d 45 b0          	lea    -0x50(%rbp),%rax
  405d01:	48 89 c7             	mov    %rax,%rdi
  405d04:	e8 e7 e3 ff ff       	callq  4040f0 <_ZN6google8protobuf8internal10LogMessageD1Ev@plt>
  405d09:	eb 01                	jmp    405d0c <_ZN6google8protobuf8internal20RepeatedPtrFieldBase5ClearINS0_16RepeatedPtrFieldIN5caffe9BlobProtoEE11TypeHandlerEEEvv+0x118>
  405d0b:	90                   	nop
  405d0c:	4c 89 e0             	mov    %r12,%rax
  405d0f:	48 89 c7             	mov    %rax,%rdi
  405d12:	e8 d9 e2 ff ff       	callq  403ff0 <_Unwind_Resume@plt>
  405d17:	90                   	nop
  405d18:	48 8b 45 e8          	mov    -0x18(%rbp),%rax
  405d1c:	64 48 33 04 25 28 00 	xor    %fs:0x28,%rax
  405d23:	00 00 
  405d25:	74 05                	je     405d2c <_ZN6google8protobuf8internal20RepeatedPtrFieldBase5ClearINS0_16RepeatedPtrFieldIN5caffe9BlobProtoEE11TypeHandlerEEEvv+0x138>
  405d27:	e8 84 e1 ff ff       	callq  403eb0 <__stack_chk_fail@plt>
  405d2c:	48 83 c4 70          	add    $0x70,%rsp
  405d30:	5b                   	pop    %rbx
  405d31:	41 5c                	pop    %r12
  405d33:	5d                   	pop    %rbp
  405d34:	c3                   	retq   
  405d35:	90                   	nop

0000000000405d36 <_ZNK6google8protobuf8internal20RepeatedPtrFieldBase3GetINS0_16RepeatedPtrFieldIN5caffe9BlobProtoEE11TypeHandlerEEERKNT_4TypeEi>:
  405d36:	55                   	push   %rbp
  405d37:	48 89 e5             	mov    %rsp,%rbp
  405d3a:	41 54                	push   %r12
  405d3c:	53                   	push   %rbx
  405d3d:	48 81 ec a0 00 00 00 	sub    $0xa0,%rsp
  405d44:	48 89 bd 58 ff ff ff 	mov    %rdi,-0xa8(%rbp)
  405d4b:	89 b5 54 ff ff ff    	mov    %esi,-0xac(%rbp)
  405d51:	64 48 8b 04 25 28 00 	mov    %fs:0x28,%rax
  405d58:	00 00 
  405d5a:	48 89 45 e8          	mov    %rax,-0x18(%rbp)
  405d5e:	31 c0                	xor    %eax,%eax
  405d60:	bb 00 00 00 00       	mov    $0x0,%ebx
  405d65:	41 bc 00 00 00 00    	mov    $0x0,%r12d
  405d6b:	83 bd 54 ff ff ff 00 	cmpl   $0x0,-0xac(%rbp)
  405d72:	79 52                	jns    405dc6 <_ZNK6google8protobuf8internal20RepeatedPtrFieldBase3GetINS0_16RepeatedPtrFieldIN5caffe9BlobProtoEE11TypeHandlerEEERKNT_4TypeEi+0x90>
  405d74:	48 8d 85 70 ff ff ff 	lea    -0x90(%rbp),%rax
  405d7b:	b9 96 05 00 00       	mov    $0x596,%ecx
  405d80:	ba 68 ae 40 00       	mov    $0x40ae68,%edx
  405d85:	be 03 00 00 00       	mov    $0x3,%esi
  405d8a:	48 89 c7             	mov    %rax,%rdi
  405d8d:	e8 0e e2 ff ff       	callq  403fa0 <_ZN6google8protobuf8internal10LogMessageC1ENS0_8LogLevelEPKci@plt>
  405d92:	bb 01 00 00 00       	mov    $0x1,%ebx
  405d97:	48 8d 85 70 ff ff ff 	lea    -0x90(%rbp),%rax
  405d9e:	be d8 ae 40 00       	mov    $0x40aed8,%esi
  405da3:	48 89 c7             	mov    %rax,%rdi
  405da6:	e8 d5 e4 ff ff       	callq  404280 <_ZN6google8protobuf8internal10LogMessagelsEPKc@plt>
  405dab:	48 89 c2             	mov    %rax,%rdx
  405dae:	41 bc 01 00 00 00    	mov    $0x1,%r12d
  405db4:	48 8d 85 6e ff ff ff 	lea    -0x92(%rbp),%rax
  405dbb:	48 89 d6             	mov    %rdx,%rsi
  405dbe:	48 89 c7             	mov    %rax,%rdi
  405dc1:	e8 ba e2 ff ff       	callq  404080 <_ZN6google8protobuf8internal11LogFinisheraSERNS1_10LogMessageE@plt>
  405dc6:	45 84 e4             	test   %r12b,%r12b
  405dc9:	84 db                	test   %bl,%bl
  405dcb:	74 12                	je     405ddf <_ZNK6google8protobuf8internal20RepeatedPtrFieldBase3GetINS0_16RepeatedPtrFieldIN5caffe9BlobProtoEE11TypeHandlerEEERKNT_4TypeEi+0xa9>
  405dcd:	90                   	nop
  405dce:	48 8d 85 70 ff ff ff 	lea    -0x90(%rbp),%rax
  405dd5:	48 89 c7             	mov    %rax,%rdi
  405dd8:	e8 13 e3 ff ff       	callq  4040f0 <_ZN6google8protobuf8internal10LogMessageD1Ev@plt>
  405ddd:	eb 01                	jmp    405de0 <_ZNK6google8protobuf8internal20RepeatedPtrFieldBase3GetINS0_16RepeatedPtrFieldIN5caffe9BlobProtoEE11TypeHandlerEEERKNT_4TypeEi+0xaa>
  405ddf:	90                   	nop
  405de0:	48 8b 85 58 ff ff ff 	mov    -0xa8(%rbp),%rax
  405de7:	8b 40 08             	mov    0x8(%rax),%eax
  405dea:	bb 00 00 00 00       	mov    $0x0,%ebx
  405def:	41 bc 00 00 00 00    	mov    $0x0,%r12d
  405df5:	3b 85 54 ff ff ff    	cmp    -0xac(%rbp),%eax
  405dfb:	7f 4c                	jg     405e49 <_ZNK6google8protobuf8internal20RepeatedPtrFieldBase3GetINS0_16RepeatedPtrFieldIN5caffe9BlobProtoEE11TypeHandlerEEERKNT_4TypeEi+0x113>
  405dfd:	48 8d 45 b0          	lea    -0x50(%rbp),%rax
  405e01:	b9 97 05 00 00       	mov    $0x597,%ecx
  405e06:	ba 68 ae 40 00       	mov    $0x40ae68,%edx
  405e0b:	be 03 00 00 00       	mov    $0x3,%esi
  405e10:	48 89 c7             	mov    %rax,%rdi
  405e13:	e8 88 e1 ff ff       	callq  403fa0 <_ZN6google8protobuf8internal10LogMessageC1ENS0_8LogLevelEPKci@plt>
  405e18:	bb 01 00 00 00       	mov    $0x1,%ebx
  405e1d:	48 8d 45 b0          	lea    -0x50(%rbp),%rax
  405e21:	be f8 ae 40 00       	mov    $0x40aef8,%esi
  405e26:	48 89 c7             	mov    %rax,%rdi
  405e29:	e8 52 e4 ff ff       	callq  404280 <_ZN6google8protobuf8internal10LogMessagelsEPKc@plt>
  405e2e:	48 89 c2             	mov    %rax,%rdx
  405e31:	41 bc 01 00 00 00    	mov    $0x1,%r12d
  405e37:	48 8d 85 6f ff ff ff 	lea    -0x91(%rbp),%rax
  405e3e:	48 89 d6             	mov    %rdx,%rsi
  405e41:	48 89 c7             	mov    %rax,%rdi
  405e44:	e8 37 e2 ff ff       	callq  404080 <_ZN6google8protobuf8internal11LogFinisheraSERNS1_10LogMessageE@plt>
  405e49:	45 84 e4             	test   %r12b,%r12b
  405e4c:	84 db                	test   %bl,%bl
  405e4e:	74 0f                	je     405e5f <_ZNK6google8protobuf8internal20RepeatedPtrFieldBase3GetINS0_16RepeatedPtrFieldIN5caffe9BlobProtoEE11TypeHandlerEEERKNT_4TypeEi+0x129>
  405e50:	90                   	nop
  405e51:	48 8d 45 b0          	lea    -0x50(%rbp),%rax
  405e55:	48 89 c7             	mov    %rax,%rdi
  405e58:	e8 93 e2 ff ff       	callq  4040f0 <_ZN6google8protobuf8internal10LogMessageD1Ev@plt>
  405e5d:	eb 01                	jmp    405e60 <_ZNK6google8protobuf8internal20RepeatedPtrFieldBase3GetINS0_16RepeatedPtrFieldIN5caffe9BlobProtoEE11TypeHandlerEEERKNT_4TypeEi+0x12a>
  405e5f:	90                   	nop
  405e60:	48 8b 85 58 ff ff ff 	mov    -0xa8(%rbp),%rax
  405e67:	48 8b 40 10          	mov    0x10(%rax),%rax
  405e6b:	8b 95 54 ff ff ff    	mov    -0xac(%rbp),%edx
  405e71:	48 63 d2             	movslq %edx,%rdx
  405e74:	48 8b 44 d0 08       	mov    0x8(%rax,%rdx,8),%rax
  405e79:	48 89 c7             	mov    %rax,%rdi
  405e7c:	e8 70 14 00 00       	callq  4072f1 <_ZN6google8protobuf8internal20RepeatedPtrFieldBase4castINS0_16RepeatedPtrFieldIN5caffe9BlobProtoEE11TypeHandlerEEEPNT_4TypeEPv>
  405e81:	48 8b 4d e8          	mov    -0x18(%rbp),%rcx
  405e85:	64 48 33 0c 25 28 00 	xor    %fs:0x28,%rcx
  405e8c:	00 00 
  405e8e:	74 54                	je     405ee4 <_ZNK6google8protobuf8internal20RepeatedPtrFieldBase3GetINS0_16RepeatedPtrFieldIN5caffe9BlobProtoEE11TypeHandlerEEERKNT_4TypeEi+0x1ae>
  405e90:	eb 4d                	jmp    405edf <_ZNK6google8protobuf8internal20RepeatedPtrFieldBase3GetINS0_16RepeatedPtrFieldIN5caffe9BlobProtoEE11TypeHandlerEEERKNT_4TypeEi+0x1a9>
  405e92:	45 84 e4             	test   %r12b,%r12b
  405e95:	49 89 c4             	mov    %rax,%r12
  405e98:	84 db                	test   %bl,%bl
  405e9a:	74 12                	je     405eae <_ZNK6google8protobuf8internal20RepeatedPtrFieldBase3GetINS0_16RepeatedPtrFieldIN5caffe9BlobProtoEE11TypeHandlerEEERKNT_4TypeEi+0x178>
  405e9c:	90                   	nop
  405e9d:	48 8d 85 70 ff ff ff 	lea    -0x90(%rbp),%rax
  405ea4:	48 89 c7             	mov    %rax,%rdi
  405ea7:	e8 44 e2 ff ff       	callq  4040f0 <_ZN6google8protobuf8internal10LogMessageD1Ev@plt>
  405eac:	eb 01                	jmp    405eaf <_ZNK6google8protobuf8internal20RepeatedPtrFieldBase3GetINS0_16RepeatedPtrFieldIN5caffe9BlobProtoEE11TypeHandlerEEERKNT_4TypeEi+0x179>
  405eae:	90                   	nop
  405eaf:	4c 89 e0             	mov    %r12,%rax
  405eb2:	48 89 c7             	mov    %rax,%rdi
  405eb5:	e8 36 e1 ff ff       	callq  403ff0 <_Unwind_Resume@plt>
  405eba:	45 84 e4             	test   %r12b,%r12b
  405ebd:	49 89 c4             	mov    %rax,%r12
  405ec0:	84 db                	test   %bl,%bl
  405ec2:	74 0f                	je     405ed3 <_ZNK6google8protobuf8internal20RepeatedPtrFieldBase3GetINS0_16RepeatedPtrFieldIN5caffe9BlobProtoEE11TypeHandlerEEERKNT_4TypeEi+0x19d>
  405ec4:	90                   	nop
  405ec5:	48 8d 45 b0          	lea    -0x50(%rbp),%rax
  405ec9:	48 89 c7             	mov    %rax,%rdi
  405ecc:	e8 1f e2 ff ff       	callq  4040f0 <_ZN6google8protobuf8internal10LogMessageD1Ev@plt>
  405ed1:	eb 01                	jmp    405ed4 <_ZNK6google8protobuf8internal20RepeatedPtrFieldBase3GetINS0_16RepeatedPtrFieldIN5caffe9BlobProtoEE11TypeHandlerEEERKNT_4TypeEi+0x19e>
  405ed3:	90                   	nop
  405ed4:	4c 89 e0             	mov    %r12,%rax
  405ed7:	48 89 c7             	mov    %rax,%rdi
  405eda:	e8 11 e1 ff ff       	callq  403ff0 <_Unwind_Resume@plt>
  405edf:	e8 cc df ff ff       	callq  403eb0 <__stack_chk_fail@plt>
  405ee4:	48 81 c4 a0 00 00 00 	add    $0xa0,%rsp
  405eeb:	5b                   	pop    %rbx
  405eec:	41 5c                	pop    %r12
  405eee:	5d                   	pop    %rbp
  405eef:	c3                   	retq   

0000000000405ef0 <_ZN6google8protobuf8internal20RepeatedPtrFieldBase3AddINS0_16RepeatedPtrFieldIN5caffe9BlobProtoEE11TypeHandlerEEEPNT_4TypeESB_>:
  405ef0:	55                   	push   %rbp
  405ef1:	48 89 e5             	mov    %rsp,%rbp
  405ef4:	48 83 ec 20          	sub    $0x20,%rsp
  405ef8:	48 89 7d e8          	mov    %rdi,-0x18(%rbp)
  405efc:	48 89 75 e0          	mov    %rsi,-0x20(%rbp)
  405f00:	48 8b 45 e8          	mov    -0x18(%rbp),%rax
  405f04:	48 8b 40 10          	mov    0x10(%rax),%rax
  405f08:	48 85 c0             	test   %rax,%rax
  405f0b:	74 42                	je     405f4f <_ZN6google8protobuf8internal20RepeatedPtrFieldBase3AddINS0_16RepeatedPtrFieldIN5caffe9BlobProtoEE11TypeHandlerEEEPNT_4TypeESB_+0x5f>
  405f0d:	48 8b 45 e8          	mov    -0x18(%rbp),%rax
  405f11:	8b 50 08             	mov    0x8(%rax),%edx
  405f14:	48 8b 45 e8          	mov    -0x18(%rbp),%rax
  405f18:	48 8b 40 10          	mov    0x10(%rax),%rax
  405f1c:	8b 00                	mov    (%rax),%eax
  405f1e:	39 c2                	cmp    %eax,%edx
  405f20:	7d 2d                	jge    405f4f <_ZN6google8protobuf8internal20RepeatedPtrFieldBase3AddINS0_16RepeatedPtrFieldIN5caffe9BlobProtoEE11TypeHandlerEEEPNT_4TypeESB_+0x5f>
  405f22:	48 8b 45 e8          	mov    -0x18(%rbp),%rax
  405f26:	48 8b 50 10          	mov    0x10(%rax),%rdx
  405f2a:	48 8b 45 e8          	mov    -0x18(%rbp),%rax
  405f2e:	8b 40 08             	mov    0x8(%rax),%eax
  405f31:	8d 70 01             	lea    0x1(%rax),%esi
  405f34:	48 8b 4d e8          	mov    -0x18(%rbp),%rcx
  405f38:	89 71 08             	mov    %esi,0x8(%rcx)
  405f3b:	48 98                	cltq   
  405f3d:	48 8b 44 c2 08       	mov    0x8(%rdx,%rax,8),%rax
  405f42:	48 89 c7             	mov    %rax,%rdi
  405f45:	e8 a7 13 00 00       	callq  4072f1 <_ZN6google8protobuf8internal20RepeatedPtrFieldBase4castINS0_16RepeatedPtrFieldIN5caffe9BlobProtoEE11TypeHandlerEEEPNT_4TypeEPv>
  405f4a:	e9 8b 00 00 00       	jmpq   405fda <_ZN6google8protobuf8internal20RepeatedPtrFieldBase3AddINS0_16RepeatedPtrFieldIN5caffe9BlobProtoEE11TypeHandlerEEEPNT_4TypeESB_+0xea>
  405f4f:	48 8b 45 e8          	mov    -0x18(%rbp),%rax
  405f53:	48 8b 40 10          	mov    0x10(%rax),%rax
  405f57:	48 85 c0             	test   %rax,%rax
  405f5a:	74 15                	je     405f71 <_ZN6google8protobuf8internal20RepeatedPtrFieldBase3AddINS0_16RepeatedPtrFieldIN5caffe9BlobProtoEE11TypeHandlerEEEPNT_4TypeESB_+0x81>
  405f5c:	48 8b 45 e8          	mov    -0x18(%rbp),%rax
  405f60:	48 8b 40 10          	mov    0x10(%rax),%rax
  405f64:	8b 10                	mov    (%rax),%edx
  405f66:	48 8b 45 e8          	mov    -0x18(%rbp),%rax
  405f6a:	8b 40 0c             	mov    0xc(%rax),%eax
  405f6d:	39 c2                	cmp    %eax,%edx
  405f6f:	75 18                	jne    405f89 <_ZN6google8protobuf8internal20RepeatedPtrFieldBase3AddINS0_16RepeatedPtrFieldIN5caffe9BlobProtoEE11TypeHandlerEEEPNT_4TypeESB_+0x99>
  405f71:	48 8b 45 e8          	mov    -0x18(%rbp),%rax
  405f75:	8b 40 0c             	mov    0xc(%rax),%eax
  405f78:	8d 50 01             	lea    0x1(%rax),%edx
  405f7b:	48 8b 45 e8          	mov    -0x18(%rbp),%rax
  405f7f:	89 d6                	mov    %edx,%esi
  405f81:	48 89 c7             	mov    %rax,%rdi
  405f84:	e8 a7 e2 ff ff       	callq  404230 <_ZN6google8protobuf8internal20RepeatedPtrFieldBase7ReserveEi@plt>
  405f89:	48 8b 45 e8          	mov    -0x18(%rbp),%rax
  405f8d:	48 8b 40 10          	mov    0x10(%rax),%rax
  405f91:	8b 10                	mov    (%rax),%edx
  405f93:	83 c2 01             	add    $0x1,%edx
  405f96:	89 10                	mov    %edx,(%rax)
  405f98:	48 8b 45 e8          	mov    -0x18(%rbp),%rax
  405f9c:	48 8b 10             	mov    (%rax),%rdx
  405f9f:	48 8b 45 e0          	mov    -0x20(%rbp),%rax
  405fa3:	48 89 d6             	mov    %rdx,%rsi
  405fa6:	48 89 c7             	mov    %rax,%rdi
  405fa9:	e8 52 13 00 00       	callq  407300 <_ZN6google8protobuf8internal18GenericTypeHandlerIN5caffe9BlobProtoEE16NewFromPrototypeEPKS4_PNS0_5ArenaE>
  405fae:	48 89 45 f8          	mov    %rax,-0x8(%rbp)
  405fb2:	48 8b 45 e8          	mov    -0x18(%rbp),%rax
  405fb6:	48 8b 50 10          	mov    0x10(%rax),%rdx
  405fba:	48 8b 45 e8          	mov    -0x18(%rbp),%rax
  405fbe:	8b 40 08             	mov    0x8(%rax),%eax
  405fc1:	8d 70 01             	lea    0x1(%rax),%esi
  405fc4:	48 8b 4d e8          	mov    -0x18(%rbp),%rcx
  405fc8:	89 71 08             	mov    %esi,0x8(%rcx)
  405fcb:	48 98                	cltq   
  405fcd:	48 8b 4d f8          	mov    -0x8(%rbp),%rcx
  405fd1:	48 89 4c c2 08       	mov    %rcx,0x8(%rdx,%rax,8)
  405fd6:	48 8b 45 f8          	mov    -0x8(%rbp),%rax
  405fda:	c9                   	leaveq 
  405fdb:	c3                   	retq   

0000000000405fdc <_ZNSt12_Vector_baseIPN5caffe4BlobIfEESaIS3_EE12_Vector_implD1Ev>:
  405fdc:	55                   	push   %rbp
  405fdd:	48 89 e5             	mov    %rsp,%rbp
  405fe0:	48 83 ec 10          	sub    $0x10,%rsp
  405fe4:	48 89 7d f8          	mov    %rdi,-0x8(%rbp)
  405fe8:	48 8b 45 f8          	mov    -0x8(%rbp),%rax
  405fec:	48 89 c7             	mov    %rax,%rdi
  405fef:	e8 68 13 00 00       	callq  40735c <_ZNSaIPN5caffe4BlobIfEEED1Ev>
  405ff4:	90                   	nop
  405ff5:	c9                   	leaveq 
  405ff6:	c3                   	retq   
  405ff7:	90                   	nop

0000000000405ff8 <_ZNSt12_Vector_baseIPN5caffe4BlobIfEESaIS3_EEC1Ev>:
  405ff8:	55                   	push   %rbp
  405ff9:	48 89 e5             	mov    %rsp,%rbp
  405ffc:	48 83 ec 10          	sub    $0x10,%rsp
  406000:	48 89 7d f8          	mov    %rdi,-0x8(%rbp)
  406004:	48 8b 45 f8          	mov    -0x8(%rbp),%rax
  406008:	48 89 c7             	mov    %rax,%rdi
  40600b:	e8 0e 13 00 00       	callq  40731e <_ZNSt12_Vector_baseIPN5caffe4BlobIfEESaIS3_EE12_Vector_implC1Ev>
  406010:	90                   	nop
  406011:	c9                   	leaveq 
  406012:	c3                   	retq   
  406013:	90                   	nop

0000000000406014 <_ZNSt12_Vector_baseIPN5caffe4BlobIfEESaIS3_EED1Ev>:
  406014:	55                   	push   %rbp
  406015:	48 89 e5             	mov    %rsp,%rbp
  406018:	48 83 ec 10          	sub    $0x10,%rsp
  40601c:	48 89 7d f8          	mov    %rdi,-0x8(%rbp)
  406020:	48 8b 45 f8          	mov    -0x8(%rbp),%rax
  406024:	48 8b 40 10          	mov    0x10(%rax),%rax
  406028:	48 89 c2             	mov    %rax,%rdx
  40602b:	48 8b 45 f8          	mov    -0x8(%rbp),%rax
  40602f:	48 8b 00             	mov    (%rax),%rax
  406032:	48 29 c2             	sub    %rax,%rdx
  406035:	48 89 d0             	mov    %rdx,%rax
  406038:	48 c1 f8 03          	sar    $0x3,%rax
  40603c:	48 89 c2             	mov    %rax,%rdx
  40603f:	48 8b 45 f8          	mov    -0x8(%rbp),%rax
  406043:	48 8b 08             	mov    (%rax),%rcx
  406046:	48 8b 45 f8          	mov    -0x8(%rbp),%rax
  40604a:	48 89 ce             	mov    %rcx,%rsi
  40604d:	48 89 c7             	mov    %rax,%rdi
  406050:	e8 23 13 00 00       	callq  407378 <_ZNSt12_Vector_baseIPN5caffe4BlobIfEESaIS3_EE13_M_deallocateEPS3_m>
  406055:	48 8b 45 f8          	mov    -0x8(%rbp),%rax
  406059:	48 89 c7             	mov    %rax,%rdi
  40605c:	e8 7b ff ff ff       	callq  405fdc <_ZNSt12_Vector_baseIPN5caffe4BlobIfEESaIS3_EE12_Vector_implD1Ev>
  406061:	90                   	nop
  406062:	c9                   	leaveq 
  406063:	c3                   	retq   

0000000000406064 <_ZNSt12_Vector_baseIPN5caffe4BlobIfEESaIS3_EE19_M_get_Tp_allocatorEv>:
  406064:	55                   	push   %rbp
  406065:	48 89 e5             	mov    %rsp,%rbp
  406068:	48 89 7d f8          	mov    %rdi,-0x8(%rbp)
  40606c:	48 8b 45 f8          	mov    -0x8(%rbp),%rax
  406070:	5d                   	pop    %rbp
  406071:	c3                   	retq   

0000000000406072 <_ZSt8_DestroyIPPN5caffe4BlobIfEES3_EvT_S5_RSaIT0_E>:
  406072:	55                   	push   %rbp
  406073:	48 89 e5             	mov    %rsp,%rbp
  406076:	48 83 ec 20          	sub    $0x20,%rsp
  40607a:	48 89 7d f8          	mov    %rdi,-0x8(%rbp)
  40607e:	48 89 75 f0          	mov    %rsi,-0x10(%rbp)
  406082:	48 89 55 e8          	mov    %rdx,-0x18(%rbp)
  406086:	48 8b 55 f0          	mov    -0x10(%rbp),%rdx
  40608a:	48 8b 45 f8          	mov    -0x8(%rbp),%rax
  40608e:	48 89 d6             	mov    %rdx,%rsi
  406091:	48 89 c7             	mov    %rax,%rdi
  406094:	e8 14 13 00 00       	callq  4073ad <_ZSt8_DestroyIPPN5caffe4BlobIfEEEvT_S5_>
  406099:	90                   	nop
  40609a:	c9                   	leaveq 
  40609b:	c3                   	retq   

000000000040609c <_ZSt7forwardIRKPN5caffe4BlobIfEEEOT_RNSt16remove_referenceIS6_E4typeE>:
  40609c:	55                   	push   %rbp
  40609d:	48 89 e5             	mov    %rsp,%rbp
  4060a0:	48 89 7d f8          	mov    %rdi,-0x8(%rbp)
  4060a4:	48 8b 45 f8          	mov    -0x8(%rbp),%rax
  4060a8:	5d                   	pop    %rbp
  4060a9:	c3                   	retq   

00000000004060aa <_ZNSt16allocator_traitsISaIPN5caffe4BlobIfEEEE9constructIS3_JRKS3_EEEvRS4_PT_DpOT0_>:
  4060aa:	55                   	push   %rbp
  4060ab:	48 89 e5             	mov    %rsp,%rbp
  4060ae:	48 83 ec 20          	sub    $0x20,%rsp
  4060b2:	48 89 7d f8          	mov    %rdi,-0x8(%rbp)
  4060b6:	48 89 75 f0          	mov    %rsi,-0x10(%rbp)
  4060ba:	48 89 55 e8          	mov    %rdx,-0x18(%rbp)
  4060be:	48 8b 45 e8          	mov    -0x18(%rbp),%rax
  4060c2:	48 89 c7             	mov    %rax,%rdi
  4060c5:	e8 d2 ff ff ff       	callq  40609c <_ZSt7forwardIRKPN5caffe4BlobIfEEEOT_RNSt16remove_referenceIS6_E4typeE>
  4060ca:	48 89 c2             	mov    %rax,%rdx
  4060cd:	48 8b 4d f0          	mov    -0x10(%rbp),%rcx
  4060d1:	48 8b 45 f8          	mov    -0x8(%rbp),%rax
  4060d5:	48 89 ce             	mov    %rcx,%rsi
  4060d8:	48 89 c7             	mov    %rax,%rdi
  4060db:	e8 f4 12 00 00       	callq  4073d4 <_ZN9__gnu_cxx13new_allocatorIPN5caffe4BlobIfEEE9constructIS4_JRKS4_EEEvPT_DpOT0_>
  4060e0:	90                   	nop
  4060e1:	c9                   	leaveq 
  4060e2:	c3                   	retq   
  4060e3:	90                   	nop

00000000004060e4 <_ZNSt6vectorIPN5caffe4BlobIfEESaIS3_EE19_M_emplace_back_auxIJRKS3_EEEvDpOT_>:
  4060e4:	55                   	push   %rbp
  4060e5:	48 89 e5             	mov    %rsp,%rbp
  4060e8:	53                   	push   %rbx
  4060e9:	48 83 ec 38          	sub    $0x38,%rsp
  4060ed:	48 89 7d c8          	mov    %rdi,-0x38(%rbp)
  4060f1:	48 89 75 c0          	mov    %rsi,-0x40(%rbp)
  4060f5:	48 8b 45 c8          	mov    -0x38(%rbp),%rax
  4060f9:	ba 02 b1 40 00       	mov    $0x40b102,%edx
  4060fe:	be 01 00 00 00       	mov    $0x1,%esi
  406103:	48 89 c7             	mov    %rax,%rdi
  406106:	e8 0f 13 00 00       	callq  40741a <_ZNKSt6vectorIPN5caffe4BlobIfEESaIS3_EE12_M_check_lenEmPKc>
  40610b:	48 89 45 e0          	mov    %rax,-0x20(%rbp)
  40610f:	48 8b 45 c8          	mov    -0x38(%rbp),%rax
  406113:	48 8b 55 e0          	mov    -0x20(%rbp),%rdx
  406117:	48 89 d6             	mov    %rdx,%rsi
  40611a:	48 89 c7             	mov    %rax,%rdi
  40611d:	e8 e4 13 00 00       	callq  407506 <_ZNSt12_Vector_baseIPN5caffe4BlobIfEESaIS3_EE11_M_allocateEm>
  406122:	48 89 45 e8          	mov    %rax,-0x18(%rbp)
  406126:	48 8b 45 e8          	mov    -0x18(%rbp),%rax
  40612a:	48 89 45 d8          	mov    %rax,-0x28(%rbp)
  40612e:	48 8b 45 c0          	mov    -0x40(%rbp),%rax
  406132:	48 89 c7             	mov    %rax,%rdi
  406135:	e8 62 ff ff ff       	callq  40609c <_ZSt7forwardIRKPN5caffe4BlobIfEEEOT_RNSt16remove_referenceIS6_E4typeE>
  40613a:	48 89 c3             	mov    %rax,%rbx
  40613d:	48 8b 45 c8          	mov    -0x38(%rbp),%rax
  406141:	48 89 c7             	mov    %rax,%rdi
  406144:	e8 89 0f 00 00       	callq  4070d2 <_ZNKSt6vectorIPN5caffe4BlobIfEESaIS3_EE4sizeEv>
  406149:	48 8d 14 c5 00 00 00 	lea    0x0(,%rax,8),%rdx
  406150:	00 
  406151:	48 8b 45 e8          	mov    -0x18(%rbp),%rax
  406155:	48 8d 0c 02          	lea    (%rdx,%rax,1),%rcx
  406159:	48 8b 45 c8          	mov    -0x38(%rbp),%rax
  40615d:	48 89 da             	mov    %rbx,%rdx
  406160:	48 89 ce             	mov    %rcx,%rsi
  406163:	48 89 c7             	mov    %rax,%rdi
  406166:	e8 3f ff ff ff       	callq  4060aa <_ZNSt16allocator_traitsISaIPN5caffe4BlobIfEEEE9constructIS3_JRKS3_EEEvRS4_PT_DpOT0_>
  40616b:	48 c7 45 d8 00 00 00 	movq   $0x0,-0x28(%rbp)
  406172:	00 
  406173:	48 8b 45 c8          	mov    -0x38(%rbp),%rax
  406177:	48 89 c7             	mov    %rax,%rdi
  40617a:	e8 e5 fe ff ff       	callq  406064 <_ZNSt12_Vector_baseIPN5caffe4BlobIfEESaIS3_EE19_M_get_Tp_allocatorEv>
  40617f:	48 89 c1             	mov    %rax,%rcx
  406182:	48 8b 45 c8          	mov    -0x38(%rbp),%rax
  406186:	48 8b 70 08          	mov    0x8(%rax),%rsi
  40618a:	48 8b 45 c8          	mov    -0x38(%rbp),%rax
  40618e:	48 8b 00             	mov    (%rax),%rax
  406191:	48 8b 55 e8          	mov    -0x18(%rbp),%rdx
  406195:	48 89 c7             	mov    %rax,%rdi
  406198:	e8 9c 13 00 00       	callq  407539 <_ZSt34__uninitialized_move_if_noexcept_aIPPN5caffe4BlobIfEES4_SaIS3_EET0_T_S7_S6_RT1_>
  40619d:	48 89 45 d8          	mov    %rax,-0x28(%rbp)
  4061a1:	48 83 45 d8 08       	addq   $0x8,-0x28(%rbp)
  4061a6:	48 8b 45 c8          	mov    -0x38(%rbp),%rax
  4061aa:	48 89 c7             	mov    %rax,%rdi
  4061ad:	e8 b2 fe ff ff       	callq  406064 <_ZNSt12_Vector_baseIPN5caffe4BlobIfEESaIS3_EE19_M_get_Tp_allocatorEv>
  4061b2:	48 89 c2             	mov    %rax,%rdx
  4061b5:	48 8b 45 c8          	mov    -0x38(%rbp),%rax
  4061b9:	48 8b 48 08          	mov    0x8(%rax),%rcx
  4061bd:	48 8b 45 c8          	mov    -0x38(%rbp),%rax
  4061c1:	48 8b 00             	mov    (%rax),%rax
  4061c4:	48 89 ce             	mov    %rcx,%rsi
  4061c7:	48 89 c7             	mov    %rax,%rdi
  4061ca:	e8 a3 fe ff ff       	callq  406072 <_ZSt8_DestroyIPPN5caffe4BlobIfEES3_EvT_S5_RSaIT0_E>
  4061cf:	48 8b 45 c8          	mov    -0x38(%rbp),%rax
  4061d3:	48 8b 40 10          	mov    0x10(%rax),%rax
  4061d7:	48 89 c2             	mov    %rax,%rdx
  4061da:	48 8b 45 c8          	mov    -0x38(%rbp),%rax
  4061de:	48 8b 00             	mov    (%rax),%rax
  4061e1:	48 29 c2             	sub    %rax,%rdx
  4061e4:	48 89 d0             	mov    %rdx,%rax
  4061e7:	48 c1 f8 03          	sar    $0x3,%rax
  4061eb:	48 89 c2             	mov    %rax,%rdx
  4061ee:	48 8b 45 c8          	mov    -0x38(%rbp),%rax
  4061f2:	48 8b 08             	mov    (%rax),%rcx
  4061f5:	48 8b 45 c8          	mov    -0x38(%rbp),%rax
  4061f9:	48 89 ce             	mov    %rcx,%rsi
  4061fc:	48 89 c7             	mov    %rax,%rdi
  4061ff:	e8 74 11 00 00       	callq  407378 <_ZNSt12_Vector_baseIPN5caffe4BlobIfEESaIS3_EE13_M_deallocateEPS3_m>
  406204:	48 8b 45 c8          	mov    -0x38(%rbp),%rax
  406208:	48 8b 55 e8          	mov    -0x18(%rbp),%rdx
  40620c:	48 89 10             	mov    %rdx,(%rax)
  40620f:	48 8b 45 c8          	mov    -0x38(%rbp),%rax
  406213:	48 8b 55 d8          	mov    -0x28(%rbp),%rdx
  406217:	48 89 50 08          	mov    %rdx,0x8(%rax)
  40621b:	48 8b 45 e0          	mov    -0x20(%rbp),%rax
  40621f:	48 8d 14 c5 00 00 00 	lea    0x0(,%rax,8),%rdx
  406226:	00 
  406227:	48 8b 45 e8          	mov    -0x18(%rbp),%rax
  40622b:	48 01 c2             	add    %rax,%rdx
  40622e:	48 8b 45 c8          	mov    -0x38(%rbp),%rax
  406232:	48 89 50 10          	mov    %rdx,0x10(%rax)
  406236:	e9 8c 00 00 00       	jmpq   4062c7 <_ZNSt6vectorIPN5caffe4BlobIfEESaIS3_EE19_M_emplace_back_auxIJRKS3_EEEvDpOT_+0x1e3>
  40623b:	48 89 c7             	mov    %rax,%rdi
  40623e:	e8 9d db ff ff       	callq  403de0 <__cxa_begin_catch@plt>
  406243:	48 83 7d d8 00       	cmpq   $0x0,-0x28(%rbp)
  406248:	75 2c                	jne    406276 <_ZNSt6vectorIPN5caffe4BlobIfEESaIS3_EE19_M_emplace_back_auxIJRKS3_EEEvDpOT_+0x192>
  40624a:	48 8b 45 c8          	mov    -0x38(%rbp),%rax
  40624e:	48 89 c7             	mov    %rax,%rdi
  406251:	e8 7c 0e 00 00       	callq  4070d2 <_ZNKSt6vectorIPN5caffe4BlobIfEESaIS3_EE4sizeEv>
  406256:	48 8d 14 c5 00 00 00 	lea    0x0(,%rax,8),%rdx
  40625d:	00 
  40625e:	48 8b 45 e8          	mov    -0x18(%rbp),%rax
  406262:	48 01 c2             	add    %rax,%rdx
  406265:	48 8b 45 c8          	mov    -0x38(%rbp),%rax
  406269:	48 89 d6             	mov    %rdx,%rsi
  40626c:	48 89 c7             	mov    %rax,%rdi
  40626f:	e8 19 13 00 00       	callq  40758d <_ZNSt16allocator_traitsISaIPN5caffe4BlobIfEEEE7destroyIS3_EEvRS4_PT_>
  406274:	eb 22                	jmp    406298 <_ZNSt6vectorIPN5caffe4BlobIfEESaIS3_EE19_M_emplace_back_auxIJRKS3_EEEvDpOT_+0x1b4>
  406276:	48 8b 45 c8          	mov    -0x38(%rbp),%rax
  40627a:	48 89 c7             	mov    %rax,%rdi
  40627d:	e8 e2 fd ff ff       	callq  406064 <_ZNSt12_Vector_baseIPN5caffe4BlobIfEESaIS3_EE19_M_get_Tp_allocatorEv>
  406282:	48 89 c2             	mov    %rax,%rdx
  406285:	48 8b 4d d8          	mov    -0x28(%rbp),%rcx
  406289:	48 8b 45 e8          	mov    -0x18(%rbp),%rax
  40628d:	48 89 ce             	mov    %rcx,%rsi
  406290:	48 89 c7             	mov    %rax,%rdi
  406293:	e8 da fd ff ff       	callq  406072 <_ZSt8_DestroyIPPN5caffe4BlobIfEES3_EvT_S5_RSaIT0_E>
  406298:	48 8b 45 c8          	mov    -0x38(%rbp),%rax
  40629c:	48 8b 55 e0          	mov    -0x20(%rbp),%rdx
  4062a0:	48 8b 4d e8          	mov    -0x18(%rbp),%rcx
  4062a4:	48 89 ce             	mov    %rcx,%rsi
  4062a7:	48 89 c7             	mov    %rax,%rdi
  4062aa:	e8 c9 10 00 00       	callq  407378 <_ZNSt12_Vector_baseIPN5caffe4BlobIfEESaIS3_EE13_M_deallocateEPS3_m>
  4062af:	e8 dc dd ff ff       	callq  404090 <__cxa_rethrow@plt>
  4062b4:	48 89 c3             	mov    %rax,%rbx
  4062b7:	e8 a4 dd ff ff       	callq  404060 <__cxa_end_catch@plt>
  4062bc:	48 89 d8             	mov    %rbx,%rax
  4062bf:	48 89 c7             	mov    %rax,%rdi
  4062c2:	e8 29 dd ff ff       	callq  403ff0 <_Unwind_Resume@plt>
  4062c7:	48 83 c4 38          	add    $0x38,%rsp
  4062cb:	5b                   	pop    %rbx
  4062cc:	5d                   	pop    %rbp
  4062cd:	c3                   	retq   

00000000004062ce <_ZN5boost10shared_ptrIN5caffe12SyncedMemoryEEC1Ev>:
  4062ce:	55                   	push   %rbp
  4062cf:	48 89 e5             	mov    %rsp,%rbp
  4062d2:	48 83 ec 10          	sub    $0x10,%rsp
  4062d6:	48 89 7d f8          	mov    %rdi,-0x8(%rbp)
  4062da:	48 8b 45 f8          	mov    -0x8(%rbp),%rax
  4062de:	48 c7 00 00 00 00 00 	movq   $0x0,(%rax)
  4062e5:	48 8b 45 f8          	mov    -0x8(%rbp),%rax
  4062e9:	48 83 c0 08          	add    $0x8,%rax
  4062ed:	48 89 c7             	mov    %rax,%rdi
  4062f0:	e8 51 e3 ff ff       	callq  404646 <_ZN5boost6detail12shared_countC1Ev>
  4062f5:	90                   	nop
  4062f6:	c9                   	leaveq 
  4062f7:	c3                   	retq   

00000000004062f8 <_ZNSt6vectorIiSaIiEEC1Ev>:
  4062f8:	55                   	push   %rbp
  4062f9:	48 89 e5             	mov    %rsp,%rbp
  4062fc:	48 83 ec 10          	sub    $0x10,%rsp
  406300:	48 89 7d f8          	mov    %rdi,-0x8(%rbp)
  406304:	48 8b 45 f8          	mov    -0x8(%rbp),%rax
  406308:	48 89 c7             	mov    %rax,%rdi
  40630b:	e8 a4 12 00 00       	callq  4075b4 <_ZNSt12_Vector_baseIiSaIiEEC1Ev>
  406310:	90                   	nop
  406311:	c9                   	leaveq 
  406312:	c3                   	retq   
  406313:	90                   	nop

0000000000406314 <_ZN5caffe5LayerIfEC1ERKNS_14LayerParameterE>:
  406314:	55                   	push   %rbp
  406315:	48 89 e5             	mov    %rsp,%rbp
  406318:	53                   	push   %rbx
  406319:	48 83 ec 28          	sub    $0x28,%rsp
  40631d:	48 89 7d d8          	mov    %rdi,-0x28(%rbp)
  406321:	48 89 75 d0          	mov    %rsi,-0x30(%rbp)
  406325:	ba 48 b7 40 00       	mov    $0x40b748,%edx
  40632a:	48 8b 45 d8          	mov    -0x28(%rbp),%rax
  40632e:	48 89 10             	mov    %rdx,(%rax)
  406331:	48 8b 45 d8          	mov    -0x28(%rbp),%rax
  406335:	48 8d 50 08          	lea    0x8(%rax),%rdx
  406339:	48 8b 45 d0          	mov    -0x30(%rbp),%rax
  40633d:	48 89 c6             	mov    %rax,%rsi
  406340:	48 89 d7             	mov    %rdx,%rdi
  406343:	e8 a8 de ff ff       	callq  4041f0 <_ZN5caffe14LayerParameterC1ERKS0_@plt>
  406348:	48 8b 45 d8          	mov    -0x28(%rbp),%rax
  40634c:	48 05 68 02 00 00    	add    $0x268,%rax
  406352:	48 89 c7             	mov    %rax,%rdi
  406355:	e8 76 12 00 00       	callq  4075d0 <_ZNSt6vectorIN5boost10shared_ptrIN5caffe4BlobIfEEEESaIS5_EEC1Ev>
  40635a:	48 8b 45 d8          	mov    -0x28(%rbp),%rax
  40635e:	48 05 80 02 00 00    	add    $0x280,%rax
  406364:	48 89 c7             	mov    %rax,%rdi
  406367:	e8 c4 12 00 00       	callq  407630 <_ZNSt6vectorIbSaIbEEC1Ev>
  40636c:	48 8b 45 d8          	mov    -0x28(%rbp),%rax
  406370:	48 05 a8 02 00 00    	add    $0x2a8,%rax
  406376:	48 89 c7             	mov    %rax,%rdi
  406379:	e8 ea 12 00 00       	callq  407668 <_ZNSt6vectorIfSaIfEEC1Ev>
  40637e:	48 8b 45 d0          	mov    -0x30(%rbp),%rax
  406382:	48 89 c7             	mov    %rax,%rdi
  406385:	e8 d4 e3 ff ff       	callq  40475e <_ZNK5caffe14LayerParameter5phaseEv>
  40638a:	89 c2                	mov    %eax,%edx
  40638c:	48 8b 45 d8          	mov    -0x28(%rbp),%rax
  406390:	89 90 60 02 00 00    	mov    %edx,0x260(%rax)
  406396:	48 8b 45 d8          	mov    -0x28(%rbp),%rax
  40639a:	48 83 c0 08          	add    $0x8,%rax
  40639e:	48 89 c7             	mov    %rax,%rdi
  4063a1:	e8 14 e4 ff ff       	callq  4047ba <_ZNK5caffe14LayerParameter10blobs_sizeEv>
  4063a6:	85 c0                	test   %eax,%eax
  4063a8:	0f 9f c0             	setg   %al
  4063ab:	84 c0                	test   %al,%al
  4063ad:	0f 84 30 01 00 00    	je     4064e3 <_ZN5caffe5LayerIfEC1ERKNS_14LayerParameterE+0x1cf>
  4063b3:	48 8b 45 d8          	mov    -0x28(%rbp),%rax
  4063b7:	48 83 c0 08          	add    $0x8,%rax
  4063bb:	48 89 c7             	mov    %rax,%rdi
  4063be:	e8 f7 e3 ff ff       	callq  4047ba <_ZNK5caffe14LayerParameter10blobs_sizeEv>
  4063c3:	48 98                	cltq   
  4063c5:	48 8b 55 d8          	mov    -0x28(%rbp),%rdx
  4063c9:	48 81 c2 68 02 00 00 	add    $0x268,%rdx
  4063d0:	48 89 c6             	mov    %rax,%rsi
  4063d3:	48 89 d7             	mov    %rdx,%rdi
  4063d6:	e8 ed 12 00 00       	callq  4076c8 <_ZNSt6vectorIN5boost10shared_ptrIN5caffe4BlobIfEEEESaIS5_EE6resizeEm>
  4063db:	c7 45 ec 00 00 00 00 	movl   $0x0,-0x14(%rbp)
  4063e2:	48 8b 45 d8          	mov    -0x28(%rbp),%rax
  4063e6:	48 83 c0 08          	add    $0x8,%rax
  4063ea:	48 89 c7             	mov    %rax,%rdi
  4063ed:	e8 c8 e3 ff ff       	callq  4047ba <_ZNK5caffe14LayerParameter10blobs_sizeEv>
  4063f2:	3b 45 ec             	cmp    -0x14(%rbp),%eax
  4063f5:	0f 9f c0             	setg   %al
  4063f8:	84 c0                	test   %al,%al
  4063fa:	0f 84 e3 00 00 00    	je     4064e3 <_ZN5caffe5LayerIfEC1ERKNS_14LayerParameterE+0x1cf>
  406400:	bf 50 00 00 00       	mov    $0x50,%edi
  406405:	e8 46 da ff ff       	callq  403e50 <_Znwm@plt>
  40640a:	48 89 c3             	mov    %rax,%rbx
  40640d:	48 89 df             	mov    %rbx,%rdi
  406410:	e8 d3 f0 ff ff       	callq  4054e8 <_ZN5caffe4BlobIfEC1Ev>
  406415:	8b 45 ec             	mov    -0x14(%rbp),%eax
  406418:	48 98                	cltq   
  40641a:	48 8b 55 d8          	mov    -0x28(%rbp),%rdx
  40641e:	48 81 c2 68 02 00 00 	add    $0x268,%rdx
  406425:	48 89 c6             	mov    %rax,%rsi
  406428:	48 89 d7             	mov    %rdx,%rdi
  40642b:	e8 24 13 00 00       	callq  407754 <_ZNSt6vectorIN5boost10shared_ptrIN5caffe4BlobIfEEEESaIS5_EEixEm>
  406430:	48 89 de             	mov    %rbx,%rsi
  406433:	48 89 c7             	mov    %rax,%rdi
  406436:	e8 59 13 00 00       	callq  407794 <_ZN5boost10shared_ptrIN5caffe4BlobIfEEE5resetIS3_EEvPT_>
  40643b:	48 8b 45 d8          	mov    -0x28(%rbp),%rax
  40643f:	48 8d 50 08          	lea    0x8(%rax),%rdx
  406443:	8b 45 ec             	mov    -0x14(%rbp),%eax
  406446:	89 c6                	mov    %eax,%esi
  406448:	48 89 d7             	mov    %rdx,%rdi
  40644b:	e8 a8 e3 ff ff       	callq  4047f8 <_ZNK5caffe14LayerParameter5blobsEi>
  406450:	48 89 c3             	mov    %rax,%rbx
  406453:	8b 45 ec             	mov    -0x14(%rbp),%eax
  406456:	48 98                	cltq   
  406458:	48 8b 55 d8          	mov    -0x28(%rbp),%rdx
  40645c:	48 81 c2 68 02 00 00 	add    $0x268,%rdx
  406463:	48 89 c6             	mov    %rax,%rsi
  406466:	48 89 d7             	mov    %rdx,%rdi
  406469:	e8 e6 12 00 00       	callq  407754 <_ZNSt6vectorIN5boost10shared_ptrIN5caffe4BlobIfEEEESaIS5_EEixEm>
  40646e:	48 89 c7             	mov    %rax,%rdi
  406471:	e8 b4 13 00 00       	callq  40782a <_ZNK5boost10shared_ptrIN5caffe4BlobIfEEEptEv>
  406476:	ba 01 00 00 00       	mov    $0x1,%edx
  40647b:	48 89 de             	mov    %rbx,%rsi
  40647e:	48 89 c7             	mov    %rax,%rdi
  406481:	e8 0a de ff ff       	callq  404290 <_ZN5caffe4BlobIfE9FromProtoERKNS_9BlobProtoEb@plt>
  406486:	83 45 ec 01          	addl   $0x1,-0x14(%rbp)
  40648a:	e9 53 ff ff ff       	jmpq   4063e2 <_ZN5caffe5LayerIfEC1ERKNS_14LayerParameterE+0xce>
  40648f:	48 89 c3             	mov    %rax,%rbx
  406492:	48 8b 45 d8          	mov    -0x28(%rbp),%rax
  406496:	48 05 a8 02 00 00    	add    $0x2a8,%rax
  40649c:	48 89 c7             	mov    %rax,%rdi
  40649f:	e8 e0 11 00 00       	callq  407684 <_ZNSt6vectorIfSaIfEED1Ev>
  4064a4:	48 8b 45 d8          	mov    -0x28(%rbp),%rax
  4064a8:	48 05 80 02 00 00    	add    $0x280,%rax
  4064ae:	48 89 c7             	mov    %rax,%rdi
  4064b1:	e8 96 11 00 00       	callq  40764c <_ZNSt6vectorIbSaIbEED1Ev>
  4064b6:	48 8b 45 d8          	mov    -0x28(%rbp),%rax
  4064ba:	48 05 68 02 00 00    	add    $0x268,%rax
  4064c0:	48 89 c7             	mov    %rax,%rdi
  4064c3:	e8 24 11 00 00       	callq  4075ec <_ZNSt6vectorIN5boost10shared_ptrIN5caffe4BlobIfEEEESaIS5_EED1Ev>
  4064c8:	48 8b 45 d8          	mov    -0x28(%rbp),%rax
  4064cc:	48 83 c0 08          	add    $0x8,%rax
  4064d0:	48 89 c7             	mov    %rax,%rdi
  4064d3:	e8 98 dd ff ff       	callq  404270 <_ZN5caffe14LayerParameterD1Ev@plt>
  4064d8:	48 89 d8             	mov    %rbx,%rax
  4064db:	48 89 c7             	mov    %rax,%rdi
  4064de:	e8 0d db ff ff       	callq  403ff0 <_Unwind_Resume@plt>
  4064e3:	90                   	nop
  4064e4:	48 83 c4 28          	add    $0x28,%rsp
  4064e8:	5b                   	pop    %rbx
  4064e9:	5d                   	pop    %rbp
  4064ea:	c3                   	retq   
  4064eb:	90                   	nop

00000000004064ec <_ZN5caffe5LayerIfED1Ev>:
  4064ec:	55                   	push   %rbp
  4064ed:	48 89 e5             	mov    %rsp,%rbp
  4064f0:	48 83 ec 10          	sub    $0x10,%rsp
  4064f4:	48 89 7d f8          	mov    %rdi,-0x8(%rbp)
  4064f8:	ba 48 b7 40 00       	mov    $0x40b748,%edx
  4064fd:	48 8b 45 f8          	mov    -0x8(%rbp),%rax
  406501:	48 89 10             	mov    %rdx,(%rax)
  406504:	48 8b 45 f8          	mov    -0x8(%rbp),%rax
  406508:	48 05 a8 02 00 00    	add    $0x2a8,%rax
  40650e:	48 89 c7             	mov    %rax,%rdi
  406511:	e8 6e 11 00 00       	callq  407684 <_ZNSt6vectorIfSaIfEED1Ev>
  406516:	48 8b 45 f8          	mov    -0x8(%rbp),%rax
  40651a:	48 05 80 02 00 00    	add    $0x280,%rax
  406520:	48 89 c7             	mov    %rax,%rdi
  406523:	e8 24 11 00 00       	callq  40764c <_ZNSt6vectorIbSaIbEED1Ev>
  406528:	48 8b 45 f8          	mov    -0x8(%rbp),%rax
  40652c:	48 05 68 02 00 00    	add    $0x268,%rax
  406532:	48 89 c7             	mov    %rax,%rdi
  406535:	e8 b2 10 00 00       	callq  4075ec <_ZNSt6vectorIN5boost10shared_ptrIN5caffe4BlobIfEEEESaIS5_EED1Ev>
  40653a:	48 8b 45 f8          	mov    -0x8(%rbp),%rax
  40653e:	48 83 c0 08          	add    $0x8,%rax
  406542:	48 89 c7             	mov    %rax,%rdi
  406545:	e8 26 dd ff ff       	callq  404270 <_ZN5caffe14LayerParameterD1Ev@plt>
  40654a:	90                   	nop
  40654b:	c9                   	leaveq 
  40654c:	c3                   	retq   
  40654d:	90                   	nop

000000000040654e <_ZN5caffe5LayerIfED0Ev>:
  40654e:	55                   	push   %rbp
  40654f:	48 89 e5             	mov    %rsp,%rbp
  406552:	48 83 ec 10          	sub    $0x10,%rsp
  406556:	48 89 7d f8          	mov    %rdi,-0x8(%rbp)
  40655a:	48 8b 45 f8          	mov    -0x8(%rbp),%rax
  40655e:	48 89 c7             	mov    %rax,%rdi
  406561:	e8 86 ff ff ff       	callq  4064ec <_ZN5caffe5LayerIfED1Ev>
  406566:	48 8b 45 f8          	mov    -0x8(%rbp),%rax
  40656a:	48 89 c7             	mov    %rax,%rdi
  40656d:	e8 ee d9 ff ff       	callq  403f60 <_ZdlPv@plt>
  406572:	c9                   	leaveq 
  406573:	c3                   	retq   

0000000000406574 <_ZN5caffe5LayerIfE15CheckBlobCountsERKSt6vectorIPNS_4BlobIfEESaIS5_EES9_>:
  406574:	55                   	push   %rbp
  406575:	48 89 e5             	mov    %rsp,%rbp
  406578:	41 54                	push   %r12
  40657a:	53                   	push   %rbx
  40657b:	48 83 c4 80          	add    $0xffffffffffffff80,%rsp
  40657f:	48 89 7d 88          	mov    %rdi,-0x78(%rbp)
  406583:	48 89 75 80          	mov    %rsi,-0x80(%rbp)
  406587:	48 89 95 78 ff ff ff 	mov    %rdx,-0x88(%rbp)
  40658e:	64 48 8b 04 25 28 00 	mov    %fs:0x28,%rax
  406595:	00 00 
  406597:	48 89 45 e8          	mov    %rax,-0x18(%rbp)
  40659b:	31 c0                	xor    %eax,%eax
  40659d:	48 8b 45 88          	mov    -0x78(%rbp),%rax
  4065a1:	48 8b 00             	mov    (%rax),%rax
  4065a4:	48 83 c0 30          	add    $0x30,%rax
  4065a8:	48 8b 00             	mov    (%rax),%rax
  4065ab:	48 8b 55 88          	mov    -0x78(%rbp),%rdx
  4065af:	48 89 d7             	mov    %rdx,%rdi
  4065b2:	ff d0                	callq  *%rax
  4065b4:	f7 d0                	not    %eax
  4065b6:	c1 e8 1f             	shr    $0x1f,%eax
  4065b9:	84 c0                	test   %al,%al
  4065bb:	0f 84 0a 01 00 00    	je     4066cb <_ZN5caffe5LayerIfE15CheckBlobCountsERKSt6vectorIPNS_4BlobIfEESaIS5_EES9_+0x157>
  4065c1:	48 8b 45 80          	mov    -0x80(%rbp),%rax
  4065c5:	48 89 c7             	mov    %rax,%rdi
  4065c8:	e8 05 0b 00 00       	callq  4070d2 <_ZNKSt6vectorIPN5caffe4BlobIfEESaIS3_EE4sizeEv>
  4065cd:	48 89 c7             	mov    %rax,%rdi
  4065d0:	e8 11 e1 ff ff       	callq  4046e6 <_ZN6google21GetReferenceableValueEm>
  4065d5:	48 89 45 d0          	mov    %rax,-0x30(%rbp)
  4065d9:	48 8b 45 88          	mov    -0x78(%rbp),%rax
  4065dd:	48 8b 00             	mov    (%rax),%rax
  4065e0:	48 83 c0 30          	add    $0x30,%rax
  4065e4:	48 8b 00             	mov    (%rax),%rax
  4065e7:	48 8b 55 88          	mov    -0x78(%rbp),%rdx
  4065eb:	48 89 d7             	mov    %rdx,%rdi
  4065ee:	ff d0                	callq  *%rax
  4065f0:	89 c7                	mov    %eax,%edi
  4065f2:	e8 e3 e0 ff ff       	callq  4046da <_ZN6google21GetReferenceableValueEi>
  4065f7:	89 45 90             	mov    %eax,-0x70(%rbp)
  4065fa:	48 8d 4d d0          	lea    -0x30(%rbp),%rcx
  4065fe:	48 8d 45 90          	lea    -0x70(%rbp),%rax
  406602:	ba 20 b1 40 00       	mov    $0x40b120,%edx
  406607:	48 89 ce             	mov    %rcx,%rsi
  40660a:	48 89 c7             	mov    %rax,%rdi
  40660d:	e8 61 12 00 00       	callq  407873 <_ZN6google12Check_EQImplIimEEPNSt7__cxx1112basic_stringIcSt11char_traitsIcESaIcEEERKT_RKT0_PKc>
  406612:	48 89 45 98          	mov    %rax,-0x68(%rbp)
  406616:	48 83 7d 98 00       	cmpq   $0x0,-0x68(%rbp)
  40661b:	0f 84 aa 00 00 00    	je     4066cb <_ZN5caffe5LayerIfE15CheckBlobCountsERKSt6vectorIPNS_4BlobIfEESaIS5_EES9_+0x157>
  406621:	48 8b 45 88          	mov    -0x78(%rbp),%rax
  406625:	48 8b 00             	mov    (%rax),%rax
  406628:	48 83 c0 30          	add    $0x30,%rax
  40662c:	48 8b 00             	mov    (%rax),%rax
  40662f:	48 8b 55 88          	mov    -0x78(%rbp),%rdx
  406633:	48 89 d7             	mov    %rdx,%rdi
  406636:	ff d0                	callq  *%rax
  406638:	89 c3                	mov    %eax,%ebx
  40663a:	48 8b 45 88          	mov    -0x78(%rbp),%rax
  40663e:	48 8b 00             	mov    (%rax),%rax
  406641:	48 83 c0 28          	add    $0x28,%rax
  406645:	48 8b 00             	mov    (%rax),%rax
  406648:	48 8b 55 88          	mov    -0x78(%rbp),%rdx
  40664c:	48 89 d7             	mov    %rdx,%rdi
  40664f:	ff d0                	callq  *%rax
  406651:	49 89 c4             	mov    %rax,%r12
  406654:	48 8b 55 98          	mov    -0x68(%rbp),%rdx
  406658:	48 8d 45 90          	lea    -0x70(%rbp),%rax
  40665c:	48 89 d6             	mov    %rdx,%rsi
  40665f:	48 89 c7             	mov    %rax,%rdi
  406662:	e8 59 e0 ff ff       	callq  4046c0 <_ZN6google13CheckOpStringC1EPNSt7__cxx1112basic_stringIcSt11char_traitsIcESaIcEEE>
  406667:	48 8d 55 90          	lea    -0x70(%rbp),%rdx
  40666b:	48 8d 45 d0          	lea    -0x30(%rbp),%rax
  40666f:	48 89 d1             	mov    %rdx,%rcx
  406672:	ba 5d 01 00 00       	mov    $0x15d,%edx
  406677:	be 48 af 40 00       	mov    $0x40af48,%esi
  40667c:	48 89 c7             	mov    %rax,%rdi
  40667f:	e8 5c d9 ff ff       	callq  403fe0 <_ZN6google15LogMessageFatalC1EPKciRKNS_13CheckOpStringE@plt>
  406684:	48 8d 45 d0          	lea    -0x30(%rbp),%rax
  406688:	48 89 c7             	mov    %rax,%rdi
  40668b:	e8 d0 da ff ff       	callq  404160 <_ZN6google10LogMessage6streamEv@plt>
  406690:	4c 89 e6             	mov    %r12,%rsi
  406693:	48 89 c7             	mov    %rax,%rdi
  406696:	e8 e5 d8 ff ff       	callq  403f80 <_ZStlsISt11char_traitsIcEERSt13basic_ostreamIcT_ES5_PKc@plt>
  40669b:	be 47 b1 40 00       	mov    $0x40b147,%esi
  4066a0:	48 89 c7             	mov    %rax,%rdi
  4066a3:	e8 d8 d8 ff ff       	callq  403f80 <_ZStlsISt11char_traitsIcEERSt13basic_ostreamIcT_ES5_PKc@plt>
  4066a8:	89 de                	mov    %ebx,%esi
  4066aa:	48 89 c7             	mov    %rax,%rdi
  4066ad:	e8 1e d8 ff ff       	callq  403ed0 <_ZNSolsEi@plt>
  4066b2:	be 55 b1 40 00       	mov    $0x40b155,%esi
  4066b7:	48 89 c7             	mov    %rax,%rdi
  4066ba:	e8 c1 d8 ff ff       	callq  403f80 <_ZStlsISt11char_traitsIcEERSt13basic_ostreamIcT_ES5_PKc@plt>
  4066bf:	48 8d 45 d0          	lea    -0x30(%rbp),%rax
  4066c3:	48 89 c7             	mov    %rax,%rdi
  4066c6:	e8 15 da ff ff       	callq  4040e0 <_ZN6google15LogMessageFatalD1Ev@plt>
  4066cb:	48 8b 45 88          	mov    -0x78(%rbp),%rax
  4066cf:	48 8b 00             	mov    (%rax),%rax
  4066d2:	48 83 c0 38          	add    $0x38,%rax
  4066d6:	48 8b 00             	mov    (%rax),%rax
  4066d9:	48 8b 55 88          	mov    -0x78(%rbp),%rdx
  4066dd:	48 89 d7             	mov    %rdx,%rdi
  4066e0:	ff d0                	callq  *%rax
  4066e2:	f7 d0                	not    %eax
  4066e4:	c1 e8 1f             	shr    $0x1f,%eax
  4066e7:	84 c0                	test   %al,%al
  4066e9:	0f 84 0a 01 00 00    	je     4067f9 <_ZN5caffe5LayerIfE15CheckBlobCountsERKSt6vectorIPNS_4BlobIfEESaIS5_EES9_+0x285>
  4066ef:	48 8b 45 80          	mov    -0x80(%rbp),%rax
  4066f3:	48 89 c7             	mov    %rax,%rdi
  4066f6:	e8 d7 09 00 00       	callq  4070d2 <_ZNKSt6vectorIPN5caffe4BlobIfEESaIS3_EE4sizeEv>
  4066fb:	48 89 c7             	mov    %rax,%rdi
  4066fe:	e8 e3 df ff ff       	callq  4046e6 <_ZN6google21GetReferenceableValueEm>
  406703:	48 89 45 d0          	mov    %rax,-0x30(%rbp)
  406707:	48 8b 45 88          	mov    -0x78(%rbp),%rax
  40670b:	48 8b 00             	mov    (%rax),%rax
  40670e:	48 83 c0 38          	add    $0x38,%rax
  406712:	48 8b 00             	mov    (%rax),%rax
  406715:	48 8b 55 88          	mov    -0x78(%rbp),%rdx
  406719:	48 89 d7             	mov    %rdx,%rdi
  40671c:	ff d0                	callq  *%rax
  40671e:	89 c7                	mov    %eax,%edi
  406720:	e8 b5 df ff ff       	callq  4046da <_ZN6google21GetReferenceableValueEi>
  406725:	89 45 90             	mov    %eax,-0x70(%rbp)
  406728:	48 8d 4d d0          	lea    -0x30(%rbp),%rcx
  40672c:	48 8d 45 90          	lea    -0x70(%rbp),%rax
  406730:	ba 70 b1 40 00       	mov    $0x40b170,%edx
  406735:	48 89 ce             	mov    %rcx,%rsi
  406738:	48 89 c7             	mov    %rax,%rdi
  40673b:	e8 a5 11 00 00       	callq  4078e5 <_ZN6google12Check_LEImplIimEEPNSt7__cxx1112basic_stringIcSt11char_traitsIcESaIcEEERKT_RKT0_PKc>
  406740:	48 89 45 a0          	mov    %rax,-0x60(%rbp)
  406744:	48 83 7d a0 00       	cmpq   $0x0,-0x60(%rbp)
  406749:	0f 84 aa 00 00 00    	je     4067f9 <_ZN5caffe5LayerIfE15CheckBlobCountsERKSt6vectorIPNS_4BlobIfEESaIS5_EES9_+0x285>
  40674f:	48 8b 45 88          	mov    -0x78(%rbp),%rax
  406753:	48 8b 00             	mov    (%rax),%rax
  406756:	48 83 c0 38          	add    $0x38,%rax
  40675a:	48 8b 00             	mov    (%rax),%rax
  40675d:	48 8b 55 88          	mov    -0x78(%rbp),%rdx
  406761:	48 89 d7             	mov    %rdx,%rdi
  406764:	ff d0                	callq  *%rax
  406766:	89 c3                	mov    %eax,%ebx
  406768:	48 8b 45 88          	mov    -0x78(%rbp),%rax
  40676c:	48 8b 00             	mov    (%rax),%rax
  40676f:	48 83 c0 28          	add    $0x28,%rax
  406773:	48 8b 00             	mov    (%rax),%rax
  406776:	48 8b 55 88          	mov    -0x78(%rbp),%rdx
  40677a:	48 89 d7             	mov    %rdx,%rdi
  40677d:	ff d0                	callq  *%rax
  40677f:	49 89 c4             	mov    %rax,%r12
  406782:	48 8b 55 a0          	mov    -0x60(%rbp),%rdx
  406786:	48 8d 45 90          	lea    -0x70(%rbp),%rax
  40678a:	48 89 d6             	mov    %rdx,%rsi
  40678d:	48 89 c7             	mov    %rax,%rdi
  406790:	e8 2b df ff ff       	callq  4046c0 <_ZN6google13CheckOpStringC1EPNSt7__cxx1112basic_stringIcSt11char_traitsIcESaIcEEE>
  406795:	48 8d 55 90          	lea    -0x70(%rbp),%rdx
  406799:	48 8d 45 d0          	lea    -0x30(%rbp),%rax
  40679d:	48 89 d1             	mov    %rdx,%rcx
  4067a0:	ba 62 01 00 00       	mov    $0x162,%edx
  4067a5:	be 48 af 40 00       	mov    $0x40af48,%esi
  4067aa:	48 89 c7             	mov    %rax,%rdi
  4067ad:	e8 2e d8 ff ff       	callq  403fe0 <_ZN6google15LogMessageFatalC1EPKciRKNS_13CheckOpStringE@plt>
  4067b2:	48 8d 45 d0          	lea    -0x30(%rbp),%rax
  4067b6:	48 89 c7             	mov    %rax,%rdi
  4067b9:	e8 a2 d9 ff ff       	callq  404160 <_ZN6google10LogMessage6streamEv@plt>
  4067be:	4c 89 e6             	mov    %r12,%rsi
  4067c1:	48 89 c7             	mov    %rax,%rdi
  4067c4:	e8 b7 d7 ff ff       	callq  403f80 <_ZStlsISt11char_traitsIcEERSt13basic_ostreamIcT_ES5_PKc@plt>
  4067c9:	be 92 b1 40 00       	mov    $0x40b192,%esi
  4067ce:	48 89 c7             	mov    %rax,%rdi
  4067d1:	e8 aa d7 ff ff       	callq  403f80 <_ZStlsISt11char_traitsIcEERSt13basic_ostreamIcT_ES5_PKc@plt>
  4067d6:	89 de                	mov    %ebx,%esi
  4067d8:	48 89 c7             	mov    %rax,%rdi
  4067db:	e8 f0 d6 ff ff       	callq  403ed0 <_ZNSolsEi@plt>
  4067e0:	be 55 b1 40 00       	mov    $0x40b155,%esi
  4067e5:	48 89 c7             	mov    %rax,%rdi
  4067e8:	e8 93 d7 ff ff       	callq  403f80 <_ZStlsISt11char_traitsIcEERSt13basic_ostreamIcT_ES5_PKc@plt>
  4067ed:	48 8d 45 d0          	lea    -0x30(%rbp),%rax
  4067f1:	48 89 c7             	mov    %rax,%rdi
  4067f4:	e8 e7 d8 ff ff       	callq  4040e0 <_ZN6google15LogMessageFatalD1Ev@plt>
  4067f9:	48 8b 45 88          	mov    -0x78(%rbp),%rax
  4067fd:	48 8b 00             	mov    (%rax),%rax
  406800:	48 83 c0 40          	add    $0x40,%rax
  406804:	48 8b 00             	mov    (%rax),%rax
  406807:	48 8b 55 88          	mov    -0x78(%rbp),%rdx
  40680b:	48 89 d7             	mov    %rdx,%rdi
  40680e:	ff d0                	callq  *%rax
  406810:	f7 d0                	not    %eax
  406812:	c1 e8 1f             	shr    $0x1f,%eax
  406815:	84 c0                	test   %al,%al
  406817:	0f 84 0a 01 00 00    	je     406927 <_ZN5caffe5LayerIfE15CheckBlobCountsERKSt6vectorIPNS_4BlobIfEESaIS5_EES9_+0x3b3>
  40681d:	48 8b 45 80          	mov    -0x80(%rbp),%rax
  406821:	48 89 c7             	mov    %rax,%rdi
  406824:	e8 a9 08 00 00       	callq  4070d2 <_ZNKSt6vectorIPN5caffe4BlobIfEESaIS3_EE4sizeEv>
  406829:	48 89 c7             	mov    %rax,%rdi
  40682c:	e8 b5 de ff ff       	callq  4046e6 <_ZN6google21GetReferenceableValueEm>
  406831:	48 89 45 d0          	mov    %rax,-0x30(%rbp)
  406835:	48 8b 45 88          	mov    -0x78(%rbp),%rax
  406839:	48 8b 00             	mov    (%rax),%rax
  40683c:	48 83 c0 40          	add    $0x40,%rax
  406840:	48 8b 00             	mov    (%rax),%rax
  406843:	48 8b 55 88          	mov    -0x78(%rbp),%rdx
  406847:	48 89 d7             	mov    %rdx,%rdi
  40684a:	ff d0                	callq  *%rax
  40684c:	89 c7                	mov    %eax,%edi
  40684e:	e8 87 de ff ff       	callq  4046da <_ZN6google21GetReferenceableValueEi>
  406853:	89 45 90             	mov    %eax,-0x70(%rbp)
  406856:	48 8d 4d d0          	lea    -0x30(%rbp),%rcx
  40685a:	48 8d 45 90          	lea    -0x70(%rbp),%rax
  40685e:	ba b0 b1 40 00       	mov    $0x40b1b0,%edx
  406863:	48 89 ce             	mov    %rcx,%rsi
  406866:	48 89 c7             	mov    %rax,%rdi
  406869:	e8 d9 10 00 00       	callq  407947 <_ZN6google12Check_GEImplIimEEPNSt7__cxx1112basic_stringIcSt11char_traitsIcESaIcEEERKT_RKT0_PKc>
  40686e:	48 89 45 a8          	mov    %rax,-0x58(%rbp)
  406872:	48 83 7d a8 00       	cmpq   $0x0,-0x58(%rbp)
  406877:	0f 84 aa 00 00 00    	je     406927 <_ZN5caffe5LayerIfE15CheckBlobCountsERKSt6vectorIPNS_4BlobIfEESaIS5_EES9_+0x3b3>
  40687d:	48 8b 45 88          	mov    -0x78(%rbp),%rax
  406881:	48 8b 00             	mov    (%rax),%rax
  406884:	48 83 c0 40          	add    $0x40,%rax
  406888:	48 8b 00             	mov    (%rax),%rax
  40688b:	48 8b 55 88          	mov    -0x78(%rbp),%rdx
  40688f:	48 89 d7             	mov    %rdx,%rdi
  406892:	ff d0                	callq  *%rax
  406894:	89 c3                	mov    %eax,%ebx
  406896:	48 8b 45 88          	mov    -0x78(%rbp),%rax
  40689a:	48 8b 00             	mov    (%rax),%rax
  40689d:	48 83 c0 28          	add    $0x28,%rax
  4068a1:	48 8b 00             	mov    (%rax),%rax
  4068a4:	48 8b 55 88          	mov    -0x78(%rbp),%rdx
  4068a8:	48 89 d7             	mov    %rdx,%rdi
  4068ab:	ff d0                	callq  *%rax
  4068ad:	49 89 c4             	mov    %rax,%r12
  4068b0:	48 8b 55 a8          	mov    -0x58(%rbp),%rdx
  4068b4:	48 8d 45 90          	lea    -0x70(%rbp),%rax
  4068b8:	48 89 d6             	mov    %rdx,%rsi
  4068bb:	48 89 c7             	mov    %rax,%rdi
  4068be:	e8 fd dd ff ff       	callq  4046c0 <_ZN6google13CheckOpStringC1EPNSt7__cxx1112basic_stringIcSt11char_traitsIcESaIcEEE>
  4068c3:	48 8d 55 90          	lea    -0x70(%rbp),%rdx
  4068c7:	48 8d 45 d0          	lea    -0x30(%rbp),%rax
  4068cb:	48 89 d1             	mov    %rdx,%rcx
  4068ce:	ba 67 01 00 00       	mov    $0x167,%edx
  4068d3:	be 48 af 40 00       	mov    $0x40af48,%esi
  4068d8:	48 89 c7             	mov    %rax,%rdi
  4068db:	e8 00 d7 ff ff       	callq  403fe0 <_ZN6google15LogMessageFatalC1EPKciRKNS_13CheckOpStringE@plt>
  4068e0:	48 8d 45 d0          	lea    -0x30(%rbp),%rax
  4068e4:	48 89 c7             	mov    %rax,%rdi
  4068e7:	e8 74 d8 ff ff       	callq  404160 <_ZN6google10LogMessage6streamEv@plt>
  4068ec:	4c 89 e6             	mov    %r12,%rsi
  4068ef:	48 89 c7             	mov    %rax,%rdi
  4068f2:	e8 89 d6 ff ff       	callq  403f80 <_ZStlsISt11char_traitsIcEERSt13basic_ostreamIcT_ES5_PKc@plt>
  4068f7:	be d2 b1 40 00       	mov    $0x40b1d2,%esi
  4068fc:	48 89 c7             	mov    %rax,%rdi
  4068ff:	e8 7c d6 ff ff       	callq  403f80 <_ZStlsISt11char_traitsIcEERSt13basic_ostreamIcT_ES5_PKc@plt>
  406904:	89 de                	mov    %ebx,%esi
  406906:	48 89 c7             	mov    %rax,%rdi
  406909:	e8 c2 d5 ff ff       	callq  403ed0 <_ZNSolsEi@plt>
  40690e:	be 55 b1 40 00       	mov    $0x40b155,%esi
  406913:	48 89 c7             	mov    %rax,%rdi
  406916:	e8 65 d6 ff ff       	callq  403f80 <_ZStlsISt11char_traitsIcEERSt13basic_ostreamIcT_ES5_PKc@plt>
  40691b:	48 8d 45 d0          	lea    -0x30(%rbp),%rax
  40691f:	48 89 c7             	mov    %rax,%rdi
  406922:	e8 b9 d7 ff ff       	callq  4040e0 <_ZN6google15LogMessageFatalD1Ev@plt>
  406927:	48 8b 45 88          	mov    -0x78(%rbp),%rax
  40692b:	48 8b 00             	mov    (%rax),%rax
  40692e:	48 83 c0 48          	add    $0x48,%rax
  406932:	48 8b 00             	mov    (%rax),%rax
  406935:	48 8b 55 88          	mov    -0x78(%rbp),%rdx
  406939:	48 89 d7             	mov    %rdx,%rdi
  40693c:	ff d0                	callq  *%rax
  40693e:	f7 d0                	not    %eax
  406940:	c1 e8 1f             	shr    $0x1f,%eax
  406943:	84 c0                	test   %al,%al
  406945:	0f 84 0d 01 00 00    	je     406a58 <_ZN5caffe5LayerIfE15CheckBlobCountsERKSt6vectorIPNS_4BlobIfEESaIS5_EES9_+0x4e4>
  40694b:	48 8b 85 78 ff ff ff 	mov    -0x88(%rbp),%rax
  406952:	48 89 c7             	mov    %rax,%rdi
  406955:	e8 78 07 00 00       	callq  4070d2 <_ZNKSt6vectorIPN5caffe4BlobIfEESaIS3_EE4sizeEv>
  40695a:	48 89 c7             	mov    %rax,%rdi
  40695d:	e8 84 dd ff ff       	callq  4046e6 <_ZN6google21GetReferenceableValueEm>
  406962:	48 89 45 d0          	mov    %rax,-0x30(%rbp)
  406966:	48 8b 45 88          	mov    -0x78(%rbp),%rax
  40696a:	48 8b 00             	mov    (%rax),%rax
  40696d:	48 83 c0 48          	add    $0x48,%rax
  406971:	48 8b 00             	mov    (%rax),%rax
  406974:	48 8b 55 88          	mov    -0x78(%rbp),%rdx
  406978:	48 89 d7             	mov    %rdx,%rdi
  40697b:	ff d0                	callq  *%rax
  40697d:	89 c7                	mov    %eax,%edi
  40697f:	e8 56 dd ff ff       	callq  4046da <_ZN6google21GetReferenceableValueEi>
  406984:	89 45 90             	mov    %eax,-0x70(%rbp)
  406987:	48 8d 4d d0          	lea    -0x30(%rbp),%rcx
  40698b:	48 8d 45 90          	lea    -0x70(%rbp),%rax
  40698f:	ba e8 b1 40 00       	mov    $0x40b1e8,%edx
  406994:	48 89 ce             	mov    %rcx,%rsi
  406997:	48 89 c7             	mov    %rax,%rdi
  40699a:	e8 d4 0e 00 00       	callq  407873 <_ZN6google12Check_EQImplIimEEPNSt7__cxx1112basic_stringIcSt11char_traitsIcESaIcEEERKT_RKT0_PKc>
  40699f:	48 89 45 b0          	mov    %rax,-0x50(%rbp)
  4069a3:	48 83 7d b0 00       	cmpq   $0x0,-0x50(%rbp)
  4069a8:	0f 84 aa 00 00 00    	je     406a58 <_ZN5caffe5LayerIfE15CheckBlobCountsERKSt6vectorIPNS_4BlobIfEESaIS5_EES9_+0x4e4>
  4069ae:	48 8b 45 88          	mov    -0x78(%rbp),%rax
  4069b2:	48 8b 00             	mov    (%rax),%rax
  4069b5:	48 83 c0 48          	add    $0x48,%rax
  4069b9:	48 8b 00             	mov    (%rax),%rax
  4069bc:	48 8b 55 88          	mov    -0x78(%rbp),%rdx
  4069c0:	48 89 d7             	mov    %rdx,%rdi
  4069c3:	ff d0                	callq  *%rax
  4069c5:	89 c3                	mov    %eax,%ebx
  4069c7:	48 8b 45 88          	mov    -0x78(%rbp),%rax
  4069cb:	48 8b 00             	mov    (%rax),%rax
  4069ce:	48 83 c0 28          	add    $0x28,%rax
  4069d2:	48 8b 00             	mov    (%rax),%rax
  4069d5:	48 8b 55 88          	mov    -0x78(%rbp),%rdx
  4069d9:	48 89 d7             	mov    %rdx,%rdi
  4069dc:	ff d0                	callq  *%rax
  4069de:	49 89 c4             	mov    %rax,%r12
  4069e1:	48 8b 55 b0          	mov    -0x50(%rbp),%rdx
  4069e5:	48 8d 45 90          	lea    -0x70(%rbp),%rax
  4069e9:	48 89 d6             	mov    %rdx,%rsi
  4069ec:	48 89 c7             	mov    %rax,%rdi
  4069ef:	e8 cc dc ff ff       	callq  4046c0 <_ZN6google13CheckOpStringC1EPNSt7__cxx1112basic_stringIcSt11char_traitsIcESaIcEEE>
  4069f4:	48 8d 55 90          	lea    -0x70(%rbp),%rdx
  4069f8:	48 8d 45 d0          	lea    -0x30(%rbp),%rax
  4069fc:	48 89 d1             	mov    %rdx,%rcx
  4069ff:	ba 6c 01 00 00       	mov    $0x16c,%edx
  406a04:	be 48 af 40 00       	mov    $0x40af48,%esi
  406a09:	48 89 c7             	mov    %rax,%rdi
  406a0c:	e8 cf d5 ff ff       	callq  403fe0 <_ZN6google15LogMessageFatalC1EPKciRKNS_13CheckOpStringE@plt>
  406a11:	48 8d 45 d0          	lea    -0x30(%rbp),%rax
  406a15:	48 89 c7             	mov    %rax,%rdi
  406a18:	e8 43 d7 ff ff       	callq  404160 <_ZN6google10LogMessage6streamEv@plt>
  406a1d:	4c 89 e6             	mov    %r12,%rsi
  406a20:	48 89 c7             	mov    %rax,%rdi
  406a23:	e8 58 d5 ff ff       	callq  403f80 <_ZStlsISt11char_traitsIcEERSt13basic_ostreamIcT_ES5_PKc@plt>
  406a28:	be 09 b2 40 00       	mov    $0x40b209,%esi
  406a2d:	48 89 c7             	mov    %rax,%rdi
  406a30:	e8 4b d5 ff ff       	callq  403f80 <_ZStlsISt11char_traitsIcEERSt13basic_ostreamIcT_ES5_PKc@plt>
  406a35:	89 de                	mov    %ebx,%esi
  406a37:	48 89 c7             	mov    %rax,%rdi
  406a3a:	e8 91 d4 ff ff       	callq  403ed0 <_ZNSolsEi@plt>
  406a3f:	be 1a b2 40 00       	mov    $0x40b21a,%esi
  406a44:	48 89 c7             	mov    %rax,%rdi
  406a47:	e8 34 d5 ff ff       	callq  403f80 <_ZStlsISt11char_traitsIcEERSt13basic_ostreamIcT_ES5_PKc@plt>
  406a4c:	48 8d 45 d0          	lea    -0x30(%rbp),%rax
  406a50:	48 89 c7             	mov    %rax,%rdi
  406a53:	e8 88 d6 ff ff       	callq  4040e0 <_ZN6google15LogMessageFatalD1Ev@plt>
  406a58:	48 8b 45 88          	mov    -0x78(%rbp),%rax
  406a5c:	48 8b 00             	mov    (%rax),%rax
  406a5f:	48 83 c0 50          	add    $0x50,%rax
  406a63:	48 8b 00             	mov    (%rax),%rax
  406a66:	48 8b 55 88          	mov    -0x78(%rbp),%rdx
  406a6a:	48 89 d7             	mov    %rdx,%rdi
  406a6d:	ff d0                	callq  *%rax
  406a6f:	f7 d0                	not    %eax
  406a71:	c1 e8 1f             	shr    $0x1f,%eax
  406a74:	84 c0                	test   %al,%al
  406a76:	0f 84 0d 01 00 00    	je     406b89 <_ZN5caffe5LayerIfE15CheckBlobCountsERKSt6vectorIPNS_4BlobIfEESaIS5_EES9_+0x615>
  406a7c:	48 8b 85 78 ff ff ff 	mov    -0x88(%rbp),%rax
  406a83:	48 89 c7             	mov    %rax,%rdi
  406a86:	e8 47 06 00 00       	callq  4070d2 <_ZNKSt6vectorIPN5caffe4BlobIfEESaIS3_EE4sizeEv>
  406a8b:	48 89 c7             	mov    %rax,%rdi
  406a8e:	e8 53 dc ff ff       	callq  4046e6 <_ZN6google21GetReferenceableValueEm>
  406a93:	48 89 45 d0          	mov    %rax,-0x30(%rbp)
  406a97:	48 8b 45 88          	mov    -0x78(%rbp),%rax
  406a9b:	48 8b 00             	mov    (%rax),%rax
  406a9e:	48 83 c0 50          	add    $0x50,%rax
  406aa2:	48 8b 00             	mov    (%rax),%rax
  406aa5:	48 8b 55 88          	mov    -0x78(%rbp),%rdx
  406aa9:	48 89 d7             	mov    %rdx,%rdi
  406aac:	ff d0                	callq  *%rax
  406aae:	89 c7                	mov    %eax,%edi
  406ab0:	e8 25 dc ff ff       	callq  4046da <_ZN6google21GetReferenceableValueEi>
  406ab5:	89 45 90             	mov    %eax,-0x70(%rbp)
  406ab8:	48 8d 4d d0          	lea    -0x30(%rbp),%rcx
  406abc:	48 8d 45 90          	lea    -0x70(%rbp),%rax
  406ac0:	ba 32 b2 40 00       	mov    $0x40b232,%edx
  406ac5:	48 89 ce             	mov    %rcx,%rsi
  406ac8:	48 89 c7             	mov    %rax,%rdi
  406acb:	e8 15 0e 00 00       	callq  4078e5 <_ZN6google12Check_LEImplIimEEPNSt7__cxx1112basic_stringIcSt11char_traitsIcESaIcEEERKT_RKT0_PKc>
  406ad0:	48 89 45 b8          	mov    %rax,-0x48(%rbp)
  406ad4:	48 83 7d b8 00       	cmpq   $0x0,-0x48(%rbp)
  406ad9:	0f 84 aa 00 00 00    	je     406b89 <_ZN5caffe5LayerIfE15CheckBlobCountsERKSt6vectorIPNS_4BlobIfEESaIS5_EES9_+0x615>
  406adf:	48 8b 45 88          	mov    -0x78(%rbp),%rax
  406ae3:	48 8b 00             	mov    (%rax),%rax
  406ae6:	48 83 c0 50          	add    $0x50,%rax
  406aea:	48 8b 00             	mov    (%rax),%rax
  406aed:	48 8b 55 88          	mov    -0x78(%rbp),%rdx
  406af1:	48 89 d7             	mov    %rdx,%rdi
  406af4:	ff d0                	callq  *%rax
  406af6:	89 c3                	mov    %eax,%ebx
  406af8:	48 8b 45 88          	mov    -0x78(%rbp),%rax
  406afc:	48 8b 00             	mov    (%rax),%rax
  406aff:	48 83 c0 28          	add    $0x28,%rax
  406b03:	48 8b 00             	mov    (%rax),%rax
  406b06:	48 8b 55 88          	mov    -0x78(%rbp),%rdx
  406b0a:	48 89 d7             	mov    %rdx,%rdi
  406b0d:	ff d0                	callq  *%rax
  406b0f:	49 89 c4             	mov    %rax,%r12
  406b12:	48 8b 55 b8          	mov    -0x48(%rbp),%rdx
  406b16:	48 8d 45 90          	lea    -0x70(%rbp),%rax
  406b1a:	48 89 d6             	mov    %rdx,%rsi
  406b1d:	48 89 c7             	mov    %rax,%rdi
  406b20:	e8 9b db ff ff       	callq  4046c0 <_ZN6google13CheckOpStringC1EPNSt7__cxx1112basic_stringIcSt11char_traitsIcESaIcEEE>
  406b25:	48 8d 55 90          	lea    -0x70(%rbp),%rdx
  406b29:	48 8d 45 d0          	lea    -0x30(%rbp),%rax
  406b2d:	48 89 d1             	mov    %rdx,%rcx
  406b30:	ba 71 01 00 00       	mov    $0x171,%edx
  406b35:	be 48 af 40 00       	mov    $0x40af48,%esi
  406b3a:	48 89 c7             	mov    %rax,%rdi
  406b3d:	e8 9e d4 ff ff       	callq  403fe0 <_ZN6google15LogMessageFatalC1EPKciRKNS_13CheckOpStringE@plt>
  406b42:	48 8d 45 d0          	lea    -0x30(%rbp),%rax
  406b46:	48 89 c7             	mov    %rax,%rdi
  406b49:	e8 12 d6 ff ff       	callq  404160 <_ZN6google10LogMessage6streamEv@plt>
  406b4e:	4c 89 e6             	mov    %r12,%rsi
  406b51:	48 89 c7             	mov    %rax,%rdi
  406b54:	e8 27 d4 ff ff       	callq  403f80 <_ZStlsISt11char_traitsIcEERSt13basic_ostreamIcT_ES5_PKc@plt>
  406b59:	be 4e b2 40 00       	mov    $0x40b24e,%esi
  406b5e:	48 89 c7             	mov    %rax,%rdi
  406b61:	e8 1a d4 ff ff       	callq  403f80 <_ZStlsISt11char_traitsIcEERSt13basic_ostreamIcT_ES5_PKc@plt>
  406b66:	89 de                	mov    %ebx,%esi
  406b68:	48 89 c7             	mov    %rax,%rdi
  406b6b:	e8 60 d3 ff ff       	callq  403ed0 <_ZNSolsEi@plt>
  406b70:	be 1a b2 40 00       	mov    $0x40b21a,%esi
  406b75:	48 89 c7             	mov    %rax,%rdi
  406b78:	e8 03 d4 ff ff       	callq  403f80 <_ZStlsISt11char_traitsIcEERSt13basic_ostreamIcT_ES5_PKc@plt>
  406b7d:	48 8d 45 d0          	lea    -0x30(%rbp),%rax
  406b81:	48 89 c7             	mov    %rax,%rdi
  406b84:	e8 57 d5 ff ff       	callq  4040e0 <_ZN6google15LogMessageFatalD1Ev@plt>
  406b89:	48 8b 45 88          	mov    -0x78(%rbp),%rax
  406b8d:	48 8b 00             	mov    (%rax),%rax
  406b90:	48 83 c0 58          	add    $0x58,%rax
  406b94:	48 8b 00             	mov    (%rax),%rax
  406b97:	48 8b 55 88          	mov    -0x78(%rbp),%rdx
  406b9b:	48 89 d7             	mov    %rdx,%rdi
  406b9e:	ff d0                	callq  *%rax
  406ba0:	f7 d0                	not    %eax
  406ba2:	c1 e8 1f             	shr    $0x1f,%eax
  406ba5:	84 c0                	test   %al,%al
  406ba7:	0f 84 0d 01 00 00    	je     406cba <_ZN5caffe5LayerIfE15CheckBlobCountsERKSt6vectorIPNS_4BlobIfEESaIS5_EES9_+0x746>
  406bad:	48 8b 85 78 ff ff ff 	mov    -0x88(%rbp),%rax
  406bb4:	48 89 c7             	mov    %rax,%rdi
  406bb7:	e8 16 05 00 00       	callq  4070d2 <_ZNKSt6vectorIPN5caffe4BlobIfEESaIS3_EE4sizeEv>
  406bbc:	48 89 c7             	mov    %rax,%rdi
  406bbf:	e8 22 db ff ff       	callq  4046e6 <_ZN6google21GetReferenceableValueEm>
  406bc4:	48 89 45 d0          	mov    %rax,-0x30(%rbp)
  406bc8:	48 8b 45 88          	mov    -0x78(%rbp),%rax
  406bcc:	48 8b 00             	mov    (%rax),%rax
  406bcf:	48 83 c0 58          	add    $0x58,%rax
  406bd3:	48 8b 00             	mov    (%rax),%rax
  406bd6:	48 8b 55 88          	mov    -0x78(%rbp),%rdx
  406bda:	48 89 d7             	mov    %rdx,%rdi
  406bdd:	ff d0                	callq  *%rax
  406bdf:	89 c7                	mov    %eax,%edi
  406be1:	e8 f4 da ff ff       	callq  4046da <_ZN6google21GetReferenceableValueEi>
  406be6:	89 45 90             	mov    %eax,-0x70(%rbp)
  406be9:	48 8d 4d d0          	lea    -0x30(%rbp),%rcx
  406bed:	48 8d 45 90          	lea    -0x70(%rbp),%rax
  406bf1:	ba 68 b2 40 00       	mov    $0x40b268,%edx
  406bf6:	48 89 ce             	mov    %rcx,%rsi
  406bf9:	48 89 c7             	mov    %rax,%rdi
  406bfc:	e8 46 0d 00 00       	callq  407947 <_ZN6google12Check_GEImplIimEEPNSt7__cxx1112basic_stringIcSt11char_traitsIcESaIcEEERKT_RKT0_PKc>
  406c01:	48 89 45 c0          	mov    %rax,-0x40(%rbp)
  406c05:	48 83 7d c0 00       	cmpq   $0x0,-0x40(%rbp)
  406c0a:	0f 84 aa 00 00 00    	je     406cba <_ZN5caffe5LayerIfE15CheckBlobCountsERKSt6vectorIPNS_4BlobIfEESaIS5_EES9_+0x746>
  406c10:	48 8b 45 88          	mov    -0x78(%rbp),%rax
  406c14:	48 8b 00             	mov    (%rax),%rax
  406c17:	48 83 c0 58          	add    $0x58,%rax
  406c1b:	48 8b 00             	mov    (%rax),%rax
  406c1e:	48 8b 55 88          	mov    -0x78(%rbp),%rdx
  406c22:	48 89 d7             	mov    %rdx,%rdi
  406c25:	ff d0                	callq  *%rax
  406c27:	89 c3                	mov    %eax,%ebx
  406c29:	48 8b 45 88          	mov    -0x78(%rbp),%rax
  406c2d:	48 8b 00             	mov    (%rax),%rax
  406c30:	48 83 c0 28          	add    $0x28,%rax
  406c34:	48 8b 00             	mov    (%rax),%rax
  406c37:	48 8b 55 88          	mov    -0x78(%rbp),%rdx
  406c3b:	48 89 d7             	mov    %rdx,%rdi
  406c3e:	ff d0                	callq  *%rax
  406c40:	49 89 c4             	mov    %rax,%r12
  406c43:	48 8b 55 c0          	mov    -0x40(%rbp),%rdx
  406c47:	48 8d 45 90          	lea    -0x70(%rbp),%rax
  406c4b:	48 89 d6             	mov    %rdx,%rsi
  406c4e:	48 89 c7             	mov    %rax,%rdi
  406c51:	e8 6a da ff ff       	callq  4046c0 <_ZN6google13CheckOpStringC1EPNSt7__cxx1112basic_stringIcSt11char_traitsIcESaIcEEE>
  406c56:	48 8d 55 90          	lea    -0x70(%rbp),%rdx
  406c5a:	48 8d 45 d0          	lea    -0x30(%rbp),%rax
  406c5e:	48 89 d1             	mov    %rdx,%rcx
  406c61:	ba 76 01 00 00       	mov    $0x176,%edx
  406c66:	be 48 af 40 00       	mov    $0x40af48,%esi
  406c6b:	48 89 c7             	mov    %rax,%rdi
  406c6e:	e8 6d d3 ff ff       	callq  403fe0 <_ZN6google15LogMessageFatalC1EPKciRKNS_13CheckOpStringE@plt>
  406c73:	48 8d 45 d0          	lea    -0x30(%rbp),%rax
  406c77:	48 89 c7             	mov    %rax,%rdi
  406c7a:	e8 e1 d4 ff ff       	callq  404160 <_ZN6google10LogMessage6streamEv@plt>
  406c7f:	4c 89 e6             	mov    %r12,%rsi
  406c82:	48 89 c7             	mov    %rax,%rdi
  406c85:	e8 f6 d2 ff ff       	callq  403f80 <_ZStlsISt11char_traitsIcEERSt13basic_ostreamIcT_ES5_PKc@plt>
  406c8a:	be 84 b2 40 00       	mov    $0x40b284,%esi
  406c8f:	48 89 c7             	mov    %rax,%rdi
  406c92:	e8 e9 d2 ff ff       	callq  403f80 <_ZStlsISt11char_traitsIcEERSt13basic_ostreamIcT_ES5_PKc@plt>
  406c97:	89 de                	mov    %ebx,%esi
  406c99:	48 89 c7             	mov    %rax,%rdi
  406c9c:	e8 2f d2 ff ff       	callq  403ed0 <_ZNSolsEi@plt>
  406ca1:	be 1a b2 40 00       	mov    $0x40b21a,%esi
  406ca6:	48 89 c7             	mov    %rax,%rdi
  406ca9:	e8 d2 d2 ff ff       	callq  403f80 <_ZStlsISt11char_traitsIcEERSt13basic_ostreamIcT_ES5_PKc@plt>
  406cae:	48 8d 45 d0          	lea    -0x30(%rbp),%rax
  406cb2:	48 89 c7             	mov    %rax,%rdi
  406cb5:	e8 26 d4 ff ff       	callq  4040e0 <_ZN6google15LogMessageFatalD1Ev@plt>
  406cba:	48 8b 45 88          	mov    -0x78(%rbp),%rax
  406cbe:	48 8b 00             	mov    (%rax),%rax
  406cc1:	48 83 c0 60          	add    $0x60,%rax
  406cc5:	48 8b 00             	mov    (%rax),%rax
  406cc8:	48 8b 55 88          	mov    -0x78(%rbp),%rdx
  406ccc:	48 89 d7             	mov    %rdx,%rdi
  406ccf:	ff d0                	callq  *%rax
  406cd1:	84 c0                	test   %al,%al
  406cd3:	0f 84 35 01 00 00    	je     406e0e <_ZN5caffe5LayerIfE15CheckBlobCountsERKSt6vectorIPNS_4BlobIfEESaIS5_EES9_+0x89a>
  406cd9:	48 8b 85 78 ff ff ff 	mov    -0x88(%rbp),%rax
  406ce0:	48 89 c7             	mov    %rax,%rdi
  406ce3:	e8 ea 03 00 00       	callq  4070d2 <_ZNKSt6vectorIPN5caffe4BlobIfEESaIS3_EE4sizeEv>
  406ce8:	48 89 c7             	mov    %rax,%rdi
  406ceb:	e8 f6 d9 ff ff       	callq  4046e6 <_ZN6google21GetReferenceableValueEm>
  406cf0:	48 89 45 d0          	mov    %rax,-0x30(%rbp)
  406cf4:	48 8b 45 80          	mov    -0x80(%rbp),%rax
  406cf8:	48 89 c7             	mov    %rax,%rdi
  406cfb:	e8 d2 03 00 00       	callq  4070d2 <_ZNKSt6vectorIPN5caffe4BlobIfEESaIS3_EE4sizeEv>
  406d00:	48 89 c7             	mov    %rax,%rdi
  406d03:	e8 de d9 ff ff       	callq  4046e6 <_ZN6google21GetReferenceableValueEm>
  406d08:	48 89 45 90          	mov    %rax,-0x70(%rbp)
  406d0c:	48 8d 4d d0          	lea    -0x30(%rbp),%rcx
  406d10:	48 8d 45 90          	lea    -0x70(%rbp),%rax
  406d14:	ba 9d b2 40 00       	mov    $0x40b29d,%edx
  406d19:	48 89 ce             	mov    %rcx,%rsi
  406d1c:	48 89 c7             	mov    %rax,%rdi
  406d1f:	e8 b5 0c 00 00       	callq  4079d9 <_ZN6google12Check_EQImplImmEEPNSt7__cxx1112basic_stringIcSt11char_traitsIcESaIcEEERKT_RKT0_PKc>
  406d24:	48 89 45 c8          	mov    %rax,-0x38(%rbp)
  406d28:	48 83 7d c8 00       	cmpq   $0x0,-0x38(%rbp)
  406d2d:	0f 84 db 00 00 00    	je     406e0e <_ZN5caffe5LayerIfE15CheckBlobCountsERKSt6vectorIPNS_4BlobIfEESaIS5_EES9_+0x89a>
  406d33:	48 8b 45 88          	mov    -0x78(%rbp),%rax
  406d37:	48 8b 00             	mov    (%rax),%rax
  406d3a:	48 83 c0 28          	add    $0x28,%rax
  406d3e:	48 8b 00             	mov    (%rax),%rax
  406d41:	48 8b 55 88          	mov    -0x78(%rbp),%rdx
  406d45:	48 89 d7             	mov    %rdx,%rdi
  406d48:	ff d0                	callq  *%rax
  406d4a:	48 89 c3             	mov    %rax,%rbx
  406d4d:	48 8b 55 c8          	mov    -0x38(%rbp),%rdx
  406d51:	48 8d 45 90          	lea    -0x70(%rbp),%rax
  406d55:	48 89 d6             	mov    %rdx,%rsi
  406d58:	48 89 c7             	mov    %rax,%rdi
  406d5b:	e8 60 d9 ff ff       	callq  4046c0 <_ZN6google13CheckOpStringC1EPNSt7__cxx1112basic_stringIcSt11char_traitsIcESaIcEEE>
  406d60:	48 8d 55 90          	lea    -0x70(%rbp),%rdx
  406d64:	48 8d 45 d0          	lea    -0x30(%rbp),%rax
  406d68:	48 89 d1             	mov    %rdx,%rcx
  406d6b:	ba 7b 01 00 00       	mov    $0x17b,%edx
  406d70:	be 48 af 40 00       	mov    $0x40af48,%esi
  406d75:	48 89 c7             	mov    %rax,%rdi
  406d78:	e8 63 d2 ff ff       	callq  403fe0 <_ZN6google15LogMessageFatalC1EPKciRKNS_13CheckOpStringE@plt>
  406d7d:	48 8d 45 d0          	lea    -0x30(%rbp),%rax
  406d81:	48 89 c7             	mov    %rax,%rdi
  406d84:	e8 d7 d3 ff ff       	callq  404160 <_ZN6google10LogMessage6streamEv@plt>
  406d89:	48 89 de             	mov    %rbx,%rsi
  406d8c:	48 89 c7             	mov    %rax,%rdi
  406d8f:	e8 ec d1 ff ff       	callq  403f80 <_ZStlsISt11char_traitsIcEERSt13basic_ostreamIcT_ES5_PKc@plt>
  406d94:	be c0 b2 40 00       	mov    $0x40b2c0,%esi
  406d99:	48 89 c7             	mov    %rax,%rdi
  406d9c:	e8 df d1 ff ff       	callq  403f80 <_ZStlsISt11char_traitsIcEERSt13basic_ostreamIcT_ES5_PKc@plt>
  406da1:	be f1 b2 40 00       	mov    $0x40b2f1,%esi
  406da6:	48 89 c7             	mov    %rax,%rdi
  406da9:	e8 d2 d1 ff ff       	callq  403f80 <_ZStlsISt11char_traitsIcEERSt13basic_ostreamIcT_ES5_PKc@plt>
  406dae:	48 8d 45 d0          	lea    -0x30(%rbp),%rax
  406db2:	48 89 c7             	mov    %rax,%rdi
  406db5:	e8 26 d3 ff ff       	callq  4040e0 <_ZN6google15LogMessageFatalD1Ev@plt>
  406dba:	48 8d 45 d0          	lea    -0x30(%rbp),%rax
  406dbe:	48 89 c7             	mov    %rax,%rdi
  406dc1:	e8 1a d3 ff ff       	callq  4040e0 <_ZN6google15LogMessageFatalD1Ev@plt>
  406dc6:	48 8d 45 d0          	lea    -0x30(%rbp),%rax
  406dca:	48 89 c7             	mov    %rax,%rdi
  406dcd:	e8 0e d3 ff ff       	callq  4040e0 <_ZN6google15LogMessageFatalD1Ev@plt>
  406dd2:	48 8d 45 d0          	lea    -0x30(%rbp),%rax
  406dd6:	48 89 c7             	mov    %rax,%rdi
  406dd9:	e8 02 d3 ff ff       	callq  4040e0 <_ZN6google15LogMessageFatalD1Ev@plt>
  406dde:	48 8d 45 d0          	lea    -0x30(%rbp),%rax
  406de2:	48 89 c7             	mov    %rax,%rdi
  406de5:	e8 f6 d2 ff ff       	callq  4040e0 <_ZN6google15LogMessageFatalD1Ev@plt>
  406dea:	48 8d 45 d0          	lea    -0x30(%rbp),%rax
  406dee:	48 89 c7             	mov    %rax,%rdi
  406df1:	e8 ea d2 ff ff       	callq  4040e0 <_ZN6google15LogMessageFatalD1Ev@plt>
  406df6:	48 8d 45 d0          	lea    -0x30(%rbp),%rax
  406dfa:	48 89 c7             	mov    %rax,%rdi
  406dfd:	e8 de d2 ff ff       	callq  4040e0 <_ZN6google15LogMessageFatalD1Ev@plt>
  406e02:	48 8d 45 d0          	lea    -0x30(%rbp),%rax
  406e06:	48 89 c7             	mov    %rax,%rdi
  406e09:	e8 d2 d2 ff ff       	callq  4040e0 <_ZN6google15LogMessageFatalD1Ev@plt>
  406e0e:	90                   	nop
  406e0f:	48 8b 45 e8          	mov    -0x18(%rbp),%rax
  406e13:	64 48 33 04 25 28 00 	xor    %fs:0x28,%rax
  406e1a:	00 00 
  406e1c:	74 05                	je     406e23 <_ZN5caffe5LayerIfE15CheckBlobCountsERKSt6vectorIPNS_4BlobIfEESaIS5_EES9_+0x8af>
  406e1e:	e8 8d d0 ff ff       	callq  403eb0 <__stack_chk_fail@plt>
  406e23:	48 83 ec 80          	sub    $0xffffffffffffff80,%rsp
  406e27:	5b                   	pop    %rbx
  406e28:	41 5c                	pop    %r12
  406e2a:	5d                   	pop    %rbp
  406e2b:	c3                   	retq   

0000000000406e2c <_ZN5caffe5LayerIfE10LayerSetUpERKSt6vectorIPNS_4BlobIfEESaIS5_EES9_>:
  406e2c:	55                   	push   %rbp
  406e2d:	48 89 e5             	mov    %rsp,%rbp
  406e30:	48 89 7d f8          	mov    %rdi,-0x8(%rbp)
  406e34:	48 89 75 f0          	mov    %rsi,-0x10(%rbp)
  406e38:	48 89 55 e8          	mov    %rdx,-0x18(%rbp)
  406e3c:	90                   	nop
  406e3d:	5d                   	pop    %rbp
  406e3e:	c3                   	retq   
  406e3f:	90                   	nop

0000000000406e40 <_ZN5caffe5LayerIfE14SetLossWeightsERKSt6vectorIPNS_4BlobIfEESaIS5_EE>:
  406e40:	55                   	push   %rbp
  406e41:	48 89 e5             	mov    %rsp,%rbp
  406e44:	53                   	push   %rbx
  406e45:	48 83 ec 78          	sub    $0x78,%rsp
  406e49:	48 89 7d 98          	mov    %rdi,-0x68(%rbp)
  406e4d:	48 89 75 90          	mov    %rsi,-0x70(%rbp)
  406e51:	64 48 8b 04 25 28 00 	mov    %fs:0x28,%rax
  406e58:	00 00 
  406e5a:	48 89 45 e8          	mov    %rax,-0x18(%rbp)
  406e5e:	31 c0                	xor    %eax,%eax
  406e60:	48 8b 45 98          	mov    -0x68(%rbp),%rax
  406e64:	48 83 c0 08          	add    $0x8,%rax
  406e68:	48 89 c7             	mov    %rax,%rdi
  406e6b:	e8 02 d9 ff ff       	callq  404772 <_ZNK5caffe14LayerParameter16loss_weight_sizeEv>
  406e70:	89 45 ac             	mov    %eax,-0x54(%rbp)
  406e73:	83 7d ac 00          	cmpl   $0x0,-0x54(%rbp)
  406e77:	0f 84 8f 01 00 00    	je     40700c <_ZN5caffe5LayerIfE14SetLossWeightsERKSt6vectorIPNS_4BlobIfEESaIS5_EE+0x1cc>
  406e7d:	8b 45 ac             	mov    -0x54(%rbp),%eax
  406e80:	89 c7                	mov    %eax,%edi
  406e82:	e8 53 d8 ff ff       	callq  4046da <_ZN6google21GetReferenceableValueEi>
  406e87:	89 45 b8             	mov    %eax,-0x48(%rbp)
  406e8a:	48 8b 45 90          	mov    -0x70(%rbp),%rax
  406e8e:	48 89 c7             	mov    %rax,%rdi
  406e91:	e8 3c 02 00 00       	callq  4070d2 <_ZNKSt6vectorIPN5caffe4BlobIfEESaIS3_EE4sizeEv>
  406e96:	48 89 c7             	mov    %rax,%rdi
  406e99:	e8 48 d8 ff ff       	callq  4046e6 <_ZN6google21GetReferenceableValueEm>
  406e9e:	48 89 45 d0          	mov    %rax,-0x30(%rbp)
  406ea2:	48 8d 4d b8          	lea    -0x48(%rbp),%rcx
  406ea6:	48 8d 45 d0          	lea    -0x30(%rbp),%rax
  406eaa:	ba 08 b3 40 00       	mov    $0x40b308,%edx
  406eaf:	48 89 ce             	mov    %rcx,%rsi
  406eb2:	48 89 c7             	mov    %rax,%rdi
  406eb5:	e8 6f 0b 00 00       	callq  407a29 <_ZN6google12Check_EQImplImiEEPNSt7__cxx1112basic_stringIcSt11char_traitsIcESaIcEEERKT_RKT0_PKc>
  406eba:	48 89 45 c0          	mov    %rax,-0x40(%rbp)
  406ebe:	48 83 7d c0 00       	cmpq   $0x0,-0x40(%rbp)
  406ec3:	74 55                	je     406f1a <_ZN5caffe5LayerIfE14SetLossWeightsERKSt6vectorIPNS_4BlobIfEESaIS5_EE+0xda>
  406ec5:	48 8b 55 c0          	mov    -0x40(%rbp),%rdx
  406ec9:	48 8d 45 b8          	lea    -0x48(%rbp),%rax
  406ecd:	48 89 d6             	mov    %rdx,%rsi
  406ed0:	48 89 c7             	mov    %rax,%rdi
  406ed3:	e8 e8 d7 ff ff       	callq  4046c0 <_ZN6google13CheckOpStringC1EPNSt7__cxx1112basic_stringIcSt11char_traitsIcESaIcEEE>
  406ed8:	48 8d 55 b8          	lea    -0x48(%rbp),%rdx
  406edc:	48 8d 45 d0          	lea    -0x30(%rbp),%rax
  406ee0:	48 89 d1             	mov    %rdx,%rcx
  406ee3:	ba 88 01 00 00       	mov    $0x188,%edx
  406ee8:	be 48 af 40 00       	mov    $0x40af48,%esi
  406eed:	48 89 c7             	mov    %rax,%rdi
  406ef0:	e8 eb d0 ff ff       	callq  403fe0 <_ZN6google15LogMessageFatalC1EPKciRKNS_13CheckOpStringE@plt>
  406ef5:	48 8d 45 d0          	lea    -0x30(%rbp),%rax
  406ef9:	48 89 c7             	mov    %rax,%rdi
  406efc:	e8 5f d2 ff ff       	callq  404160 <_ZN6google10LogMessage6streamEv@plt>
  406f01:	be 28 b3 40 00       	mov    $0x40b328,%esi
  406f06:	48 89 c7             	mov    %rax,%rdi
  406f09:	e8 72 d0 ff ff       	callq  403f80 <_ZStlsISt11char_traitsIcEERSt13basic_ostreamIcT_ES5_PKc@plt>
  406f0e:	48 8d 45 d0          	lea    -0x30(%rbp),%rax
  406f12:	48 89 c7             	mov    %rax,%rdi
  406f15:	e8 c6 d1 ff ff       	callq  4040e0 <_ZN6google15LogMessageFatalD1Ev@plt>
  406f1a:	c7 45 a8 00 00 00 00 	movl   $0x0,-0x58(%rbp)
  406f21:	8b 45 a8             	mov    -0x58(%rbp),%eax
  406f24:	48 63 d8             	movslq %eax,%rbx
  406f27:	48 8b 45 90          	mov    -0x70(%rbp),%rax
  406f2b:	48 89 c7             	mov    %rax,%rdi
  406f2e:	e8 9f 01 00 00       	callq  4070d2 <_ZNKSt6vectorIPN5caffe4BlobIfEESaIS3_EE4sizeEv>
  406f33:	48 39 c3             	cmp    %rax,%rbx
  406f36:	0f 92 c0             	setb   %al
  406f39:	84 c0                	test   %al,%al
  406f3b:	0f 84 cb 00 00 00    	je     40700c <_ZN5caffe5LayerIfE14SetLossWeightsERKSt6vectorIPNS_4BlobIfEESaIS5_EE+0x1cc>
  406f41:	48 8b 45 98          	mov    -0x68(%rbp),%rax
  406f45:	48 8d 50 08          	lea    0x8(%rax),%rdx
  406f49:	8b 45 a8             	mov    -0x58(%rbp),%eax
  406f4c:	89 c6                	mov    %eax,%esi
  406f4e:	48 89 d7             	mov    %rdx,%rdi
  406f51:	e8 3a d8 ff ff       	callq  404790 <_ZNK5caffe14LayerParameter11loss_weightEi>
  406f56:	66 0f 7e c0          	movd   %xmm0,%eax
  406f5a:	89 45 b0             	mov    %eax,-0x50(%rbp)
  406f5d:	66 0f ef c0          	pxor   %xmm0,%xmm0
  406f61:	0f 2e 45 b0          	ucomiss -0x50(%rbp),%xmm0
  406f65:	7a 0e                	jp     406f75 <_ZN5caffe5LayerIfE14SetLossWeightsERKSt6vectorIPNS_4BlobIfEESaIS5_EE+0x135>
  406f67:	66 0f ef c0          	pxor   %xmm0,%xmm0
  406f6b:	0f 2e 45 b0          	ucomiss -0x50(%rbp),%xmm0
  406f6f:	0f 84 81 00 00 00    	je     406ff6 <_ZN5caffe5LayerIfE14SetLossWeightsERKSt6vectorIPNS_4BlobIfEESaIS5_EE+0x1b6>
  406f75:	8b 4d b0             	mov    -0x50(%rbp),%ecx
  406f78:	8b 55 a8             	mov    -0x58(%rbp),%edx
  406f7b:	48 8b 45 98          	mov    -0x68(%rbp),%rax
  406f7f:	89 4d 8c             	mov    %ecx,-0x74(%rbp)
  406f82:	f3 0f 10 45 8c       	movss  -0x74(%rbp),%xmm0
  406f87:	89 d6                	mov    %edx,%esi
  406f89:	48 89 c7             	mov    %rax,%rdi
  406f8c:	e8 e9 0a 00 00       	callq  407a7a <_ZN5caffe5LayerIfE8set_lossEif>
  406f91:	8b 45 a8             	mov    -0x58(%rbp),%eax
  406f94:	48 63 d0             	movslq %eax,%rdx
  406f97:	48 8b 45 90          	mov    -0x70(%rbp),%rax
  406f9b:	48 89 d6             	mov    %rdx,%rsi
  406f9e:	48 89 c7             	mov    %rax,%rdi
  406fa1:	e8 a8 01 00 00       	callq  40714e <_ZNKSt6vectorIPN5caffe4BlobIfEESaIS3_EEixEm>
  406fa6:	48 8b 00             	mov    (%rax),%rax
  406fa9:	48 89 c7             	mov    %rax,%rdi
  406fac:	e8 bd 01 00 00       	callq  40716e <_ZNK5caffe4BlobIfE5countEv>
  406fb1:	89 45 b4             	mov    %eax,-0x4c(%rbp)
  406fb4:	8b 45 a8             	mov    -0x58(%rbp),%eax
  406fb7:	48 63 d0             	movslq %eax,%rdx
  406fba:	48 8b 45 90          	mov    -0x70(%rbp),%rax
  406fbe:	48 89 d6             	mov    %rdx,%rsi
  406fc1:	48 89 c7             	mov    %rax,%rdi
  406fc4:	e8 85 01 00 00       	callq  40714e <_ZNKSt6vectorIPN5caffe4BlobIfEESaIS3_EEixEm>
  406fc9:	48 8b 00             	mov    (%rax),%rax
  406fcc:	48 89 c7             	mov    %rax,%rdi
  406fcf:	e8 cc ce ff ff       	callq  403ea0 <_ZN5caffe4BlobIfE16mutable_cpu_diffEv@plt>
  406fd4:	48 89 45 c8          	mov    %rax,-0x38(%rbp)
  406fd8:	48 8b 4d c8          	mov    -0x38(%rbp),%rcx
  406fdc:	8b 55 b0             	mov    -0x50(%rbp),%edx
  406fdf:	8b 45 b4             	mov    -0x4c(%rbp),%eax
  406fe2:	48 89 ce             	mov    %rcx,%rsi
  406fe5:	89 55 8c             	mov    %edx,-0x74(%rbp)
  406fe8:	f3 0f 10 45 8c       	movss  -0x74(%rbp),%xmm0
  406fed:	89 c7                	mov    %eax,%edi
  406fef:	e8 4c d0 ff ff       	callq  404040 <_ZN5caffe9caffe_setIfEEviT_PS1_@plt>
  406ff4:	eb 01                	jmp    406ff7 <_ZN5caffe5LayerIfE14SetLossWeightsERKSt6vectorIPNS_4BlobIfEESaIS5_EE+0x1b7>
  406ff6:	90                   	nop
  406ff7:	83 45 a8 01          	addl   $0x1,-0x58(%rbp)
  406ffb:	e9 21 ff ff ff       	jmpq   406f21 <_ZN5caffe5LayerIfE14SetLossWeightsERKSt6vectorIPNS_4BlobIfEESaIS5_EE+0xe1>
  407000:	48 8d 45 d0          	lea    -0x30(%rbp),%rax
  407004:	48 89 c7             	mov    %rax,%rdi
  407007:	e8 d4 d0 ff ff       	callq  4040e0 <_ZN6google15LogMessageFatalD1Ev@plt>
  40700c:	90                   	nop
  40700d:	48 8b 45 e8          	mov    -0x18(%rbp),%rax
  407011:	64 48 33 04 25 28 00 	xor    %fs:0x28,%rax
  407018:	00 00 
  40701a:	74 05                	je     407021 <_ZN5caffe5LayerIfE14SetLossWeightsERKSt6vectorIPNS_4BlobIfEESaIS5_EE+0x1e1>
  40701c:	e8 8f ce ff ff       	callq  403eb0 <__stack_chk_fail@plt>
  407021:	48 83 c4 78          	add    $0x78,%rsp
  407025:	5b                   	pop    %rbx
  407026:	5d                   	pop    %rbp
  407027:	c3                   	retq   

0000000000407028 <_ZN2CK11do_measuredIRZNS_5Caffe12test_softmaxEvEUlvE_EEvOT_i>:
  407028:	55                   	push   %rbp
  407029:	48 89 e5             	mov    %rsp,%rbp
  40702c:	48 83 ec 10          	sub    $0x10,%rsp
  407030:	48 89 7d f8          	mov    %rdi,-0x8(%rbp)
  407034:	89 75 f4             	mov    %esi,-0xc(%rbp)
  407037:	8b 45 f4             	mov    -0xc(%rbp),%eax
  40703a:	89 c7                	mov    %eax,%edi
  40703c:	e8 4f cf ff ff       	callq  403f90 <xopenme_clock_start@plt>
  407041:	48 8b 45 f8          	mov    -0x8(%rbp),%rax
  407045:	48 89 c7             	mov    %rax,%rdi
  407048:	e8 85 dc ff ff       	callq  404cd2 <_ZZN2CK5Caffe12test_softmaxEvENKUlvE_clEv>
  40704d:	8b 45 f4             	mov    -0xc(%rbp),%eax
  407050:	89 c7                	mov    %eax,%edi
  407052:	e8 f9 ce ff ff       	callq  403f50 <xopenme_clock_end@plt>
  407057:	90                   	nop
  407058:	c9                   	leaveq 
  407059:	c3                   	retq   

000000000040705a <_ZN2CK12log_raw_dataIfEEvPT_RKNS_5ShapeEPKcS7_>:
  40705a:	55                   	push   %rbp
  40705b:	48 89 e5             	mov    %rsp,%rbp
  40705e:	48 83 ec 20          	sub    $0x20,%rsp
  407062:	48 89 7d f8          	mov    %rdi,-0x8(%rbp)
  407066:	48 89 75 f0          	mov    %rsi,-0x10(%rbp)
  40706a:	48 89 55 e8          	mov    %rdx,-0x18(%rbp)
  40706e:	48 89 4d e0          	mov    %rcx,-0x20(%rbp)
  407072:	48 83 7d e8 00       	cmpq   $0x0,-0x18(%rbp)
  407077:	74 1c                	je     407095 <_ZN2CK12log_raw_dataIfEEvPT_RKNS_5ShapeEPKcS7_+0x3b>
  407079:	48 8b 45 e8          	mov    -0x18(%rbp),%rax
  40707d:	be 00 00 00 00       	mov    $0x0,%esi
  407082:	48 89 c7             	mov    %rax,%rdi
  407085:	e8 73 d9 ff ff       	callq  4049fd <_ZN2CK8getenv_iEPKci>
  40708a:	85 c0                	test   %eax,%eax
  40708c:	74 07                	je     407095 <_ZN2CK12log_raw_dataIfEEvPT_RKNS_5ShapeEPKcS7_+0x3b>
  40708e:	b8 01 00 00 00       	mov    $0x1,%eax
  407093:	eb 05                	jmp    40709a <_ZN2CK12log_raw_dataIfEEvPT_RKNS_5ShapeEPKcS7_+0x40>
  407095:	b8 00 00 00 00       	mov    $0x0,%eax
  40709a:	84 c0                	test   %al,%al
  40709c:	74 30                	je     4070ce <_ZN2CK12log_raw_dataIfEEvPT_RKNS_5ShapeEPKcS7_+0x74>
  40709e:	48 83 7d e0 00       	cmpq   $0x0,-0x20(%rbp)
  4070a3:	74 16                	je     4070bb <_ZN2CK12log_raw_dataIfEEvPT_RKNS_5ShapeEPKcS7_+0x61>
  4070a5:	48 8b 45 e0          	mov    -0x20(%rbp),%rax
  4070a9:	48 89 c6             	mov    %rax,%rsi
  4070ac:	bf 68 b3 40 00       	mov    $0x40b368,%edi
  4070b1:	b8 00 00 00 00       	mov    $0x0,%eax
  4070b6:	e8 45 cd ff ff       	callq  403e00 <printf@plt>
  4070bb:	48 8b 55 f0          	mov    -0x10(%rbp),%rdx
  4070bf:	48 8b 45 f8          	mov    -0x8(%rbp),%rax
  4070c3:	48 89 d6             	mov    %rdx,%rsi
  4070c6:	48 89 c7             	mov    %rax,%rdi
  4070c9:	e8 59 0a 00 00       	callq  407b27 <_ZN2CK14print_raw_dataIfEEvPT_RKNS_5ShapeE>
  4070ce:	90                   	nop
  4070cf:	c9                   	leaveq 
  4070d0:	c3                   	retq   
  4070d1:	90                   	nop

00000000004070d2 <_ZNKSt6vectorIPN5caffe4BlobIfEESaIS3_EE4sizeEv>:
  4070d2:	55                   	push   %rbp
  4070d3:	48 89 e5             	mov    %rsp,%rbp
  4070d6:	48 89 7d f8          	mov    %rdi,-0x8(%rbp)
  4070da:	48 8b 45 f8          	mov    -0x8(%rbp),%rax
  4070de:	48 8b 40 08          	mov    0x8(%rax),%rax
  4070e2:	48 89 c2             	mov    %rax,%rdx
  4070e5:	48 8b 45 f8          	mov    -0x8(%rbp),%rax
  4070e9:	48 8b 00             	mov    (%rax),%rax
  4070ec:	48 29 c2             	sub    %rax,%rdx
  4070ef:	48 89 d0             	mov    %rdx,%rax
  4070f2:	48 c1 f8 03          	sar    $0x3,%rax
  4070f6:	5d                   	pop    %rbp
  4070f7:	c3                   	retq   

00000000004070f8 <_ZNK5caffe5LayerIfE4lossEi>:
  4070f8:	55                   	push   %rbp
  4070f9:	48 89 e5             	mov    %rsp,%rbp
  4070fc:	48 83 ec 10          	sub    $0x10,%rsp
  407100:	48 89 7d f8          	mov    %rdi,-0x8(%rbp)
  407104:	89 75 f4             	mov    %esi,-0xc(%rbp)
  407107:	48 8b 45 f8          	mov    -0x8(%rbp),%rax
  40710b:	48 05 a8 02 00 00    	add    $0x2a8,%rax
  407111:	48 89 c7             	mov    %rax,%rdi
  407114:	e8 3f 0b 00 00       	callq  407c58 <_ZNKSt6vectorIfSaIfEE4sizeEv>
  407119:	48 89 c2             	mov    %rax,%rdx
  40711c:	8b 45 f4             	mov    -0xc(%rbp),%eax
  40711f:	48 98                	cltq   
  407121:	48 39 c2             	cmp    %rax,%rdx
  407124:	76 21                	jbe    407147 <_ZNK5caffe5LayerIfE4lossEi+0x4f>
  407126:	8b 45 f4             	mov    -0xc(%rbp),%eax
  407129:	48 98                	cltq   
  40712b:	48 8b 55 f8          	mov    -0x8(%rbp),%rdx
  40712f:	48 81 c2 a8 02 00 00 	add    $0x2a8,%rdx
  407136:	48 89 c6             	mov    %rax,%rsi
  407139:	48 89 d7             	mov    %rdx,%rdi
  40713c:	e8 3d 0b 00 00       	callq  407c7e <_ZNKSt6vectorIfSaIfEEixEm>
  407141:	f3 0f 10 00          	movss  (%rax),%xmm0
  407145:	eb 04                	jmp    40714b <_ZNK5caffe5LayerIfE4lossEi+0x53>
  407147:	66 0f ef c0          	pxor   %xmm0,%xmm0
  40714b:	c9                   	leaveq 
  40714c:	c3                   	retq   
  40714d:	90                   	nop

000000000040714e <_ZNKSt6vectorIPN5caffe4BlobIfEESaIS3_EEixEm>:
  40714e:	55                   	push   %rbp
  40714f:	48 89 e5             	mov    %rsp,%rbp
  407152:	48 89 7d f8          	mov    %rdi,-0x8(%rbp)
  407156:	48 89 75 f0          	mov    %rsi,-0x10(%rbp)
  40715a:	48 8b 45 f8          	mov    -0x8(%rbp),%rax
  40715e:	48 8b 00             	mov    (%rax),%rax
  407161:	48 8b 55 f0          	mov    -0x10(%rbp),%rdx
  407165:	48 c1 e2 03          	shl    $0x3,%rdx
  407169:	48 01 d0             	add    %rdx,%rax
  40716c:	5d                   	pop    %rbp
  40716d:	c3                   	retq   

000000000040716e <_ZNK5caffe4BlobIfE5countEv>:
  40716e:	55                   	push   %rbp
  40716f:	48 89 e5             	mov    %rsp,%rbp
  407172:	48 89 7d f8          	mov    %rdi,-0x8(%rbp)
  407176:	48 8b 45 f8          	mov    -0x8(%rbp),%rax
  40717a:	8b 40 48             	mov    0x48(%rax),%eax
  40717d:	5d                   	pop    %rbp
  40717e:	c3                   	retq   
  40717f:	90                   	nop

0000000000407180 <_ZN5caffe5LayerIfE11Forward_gpuERKSt6vectorIPNS_4BlobIfEESaIS5_EES9_>:
  407180:	55                   	push   %rbp
  407181:	48 89 e5             	mov    %rsp,%rbp
  407184:	48 83 ec 20          	sub    $0x20,%rsp
  407188:	48 89 7d f8          	mov    %rdi,-0x8(%rbp)
  40718c:	48 89 75 f0          	mov    %rsi,-0x10(%rbp)
  407190:	48 89 55 e8          	mov    %rdx,-0x18(%rbp)
  407194:	48 8b 45 f8          	mov    -0x8(%rbp),%rax
  407198:	48 8b 00             	mov    (%rax),%rax
  40719b:	48 83 c0 78          	add    $0x78,%rax
  40719f:	48 8b 00             	mov    (%rax),%rax
  4071a2:	48 8b 55 e8          	mov    -0x18(%rbp),%rdx
  4071a6:	48 8b 75 f0          	mov    -0x10(%rbp),%rsi
  4071aa:	48 8b 4d f8          	mov    -0x8(%rbp),%rcx
  4071ae:	48 89 cf             	mov    %rcx,%rdi
  4071b1:	ff d0                	callq  *%rax
  4071b3:	c9                   	leaveq 
  4071b4:	c3                   	retq   

00000000004071b5 <_ZN2CK11do_measuredIRZNS_5Caffe12test_softmaxEvEUlvE0_EEvOT_i>:
  4071b5:	55                   	push   %rbp
  4071b6:	48 89 e5             	mov    %rsp,%rbp
  4071b9:	48 83 ec 10          	sub    $0x10,%rsp
  4071bd:	48 89 7d f8          	mov    %rdi,-0x8(%rbp)
  4071c1:	89 75 f4             	mov    %esi,-0xc(%rbp)
  4071c4:	8b 45 f4             	mov    -0xc(%rbp),%eax
  4071c7:	89 c7                	mov    %eax,%edi
  4071c9:	e8 c2 cd ff ff       	callq  403f90 <xopenme_clock_start@plt>
  4071ce:	48 8b 45 f8          	mov    -0x8(%rbp),%rax
  4071d2:	48 89 c7             	mov    %rax,%rdi
  4071d5:	e8 2a db ff ff       	callq  404d04 <_ZZN2CK5Caffe12test_softmaxEvENKUlvE0_clEv>
  4071da:	8b 45 f4             	mov    -0xc(%rbp),%eax
  4071dd:	89 c7                	mov    %eax,%edi
  4071df:	e8 6c cd ff ff       	callq  403f50 <xopenme_clock_end@plt>
  4071e4:	90                   	nop
  4071e5:	c9                   	leaveq 
  4071e6:	c3                   	retq   
  4071e7:	90                   	nop

00000000004071e8 <_ZNK5boost10shared_ptrIN5caffe12SyncedMemoryEEntEv>:
  4071e8:	55                   	push   %rbp
  4071e9:	48 89 e5             	mov    %rsp,%rbp
  4071ec:	48 89 7d f8          	mov    %rdi,-0x8(%rbp)
  4071f0:	48 8b 45 f8          	mov    -0x8(%rbp),%rax
  4071f4:	48 8b 00             	mov    (%rax),%rax
  4071f7:	48 85 c0             	test   %rax,%rax
  4071fa:	0f 94 c0             	sete   %al
  4071fd:	5d                   	pop    %rbp
  4071fe:	c3                   	retq   
  4071ff:	90                   	nop

0000000000407200 <_ZNSt12_Vector_baseIiSaIiEE12_Vector_implD1Ev>:
  407200:	55                   	push   %rbp
  407201:	48 89 e5             	mov    %rsp,%rbp
  407204:	48 83 ec 10          	sub    $0x10,%rsp
  407208:	48 89 7d f8          	mov    %rdi,-0x8(%rbp)
  40720c:	48 8b 45 f8          	mov    -0x8(%rbp),%rax
  407210:	48 89 c7             	mov    %rax,%rdi
  407213:	e8 86 0a 00 00       	callq  407c9e <_ZNSaIiED1Ev>
  407218:	90                   	nop
  407219:	c9                   	leaveq 
  40721a:	c3                   	retq   
  40721b:	90                   	nop

000000000040721c <_ZNSt12_Vector_baseIiSaIiEED1Ev>:
  40721c:	55                   	push   %rbp
  40721d:	48 89 e5             	mov    %rsp,%rbp
  407220:	48 83 ec 10          	sub    $0x10,%rsp
  407224:	48 89 7d f8          	mov    %rdi,-0x8(%rbp)
  407228:	48 8b 45 f8          	mov    -0x8(%rbp),%rax
  40722c:	48 8b 40 10          	mov    0x10(%rax),%rax
  407230:	48 89 c2             	mov    %rax,%rdx
  407233:	48 8b 45 f8          	mov    -0x8(%rbp),%rax
  407237:	48 8b 00             	mov    (%rax),%rax
  40723a:	48 29 c2             	sub    %rax,%rdx
  40723d:	48 89 d0             	mov    %rdx,%rax
  407240:	48 c1 f8 02          	sar    $0x2,%rax
  407244:	48 89 c2             	mov    %rax,%rdx
  407247:	48 8b 45 f8          	mov    -0x8(%rbp),%rax
  40724b:	48 8b 08             	mov    (%rax),%rcx
  40724e:	48 8b 45 f8          	mov    -0x8(%rbp),%rax
  407252:	48 89 ce             	mov    %rcx,%rsi
  407255:	48 89 c7             	mov    %rax,%rdi
  407258:	e8 5d 0a 00 00       	callq  407cba <_ZNSt12_Vector_baseIiSaIiEE13_M_deallocateEPim>
  40725d:	48 8b 45 f8          	mov    -0x8(%rbp),%rax
  407261:	48 89 c7             	mov    %rax,%rdi
  407264:	e8 97 ff ff ff       	callq  407200 <_ZNSt12_Vector_baseIiSaIiEE12_Vector_implD1Ev>
  407269:	90                   	nop
  40726a:	c9                   	leaveq 
  40726b:	c3                   	retq   

000000000040726c <_ZNSt12_Vector_baseIiSaIiEE19_M_get_Tp_allocatorEv>:
  40726c:	55                   	push   %rbp
  40726d:	48 89 e5             	mov    %rsp,%rbp
  407270:	48 89 7d f8          	mov    %rdi,-0x8(%rbp)
  407274:	48 8b 45 f8          	mov    -0x8(%rbp),%rax
  407278:	5d                   	pop    %rbp
  407279:	c3                   	retq   

000000000040727a <_ZSt8_DestroyIPiiEvT_S1_RSaIT0_E>:
  40727a:	55                   	push   %rbp
  40727b:	48 89 e5             	mov    %rsp,%rbp
  40727e:	48 83 ec 20          	sub    $0x20,%rsp
  407282:	48 89 7d f8          	mov    %rdi,-0x8(%rbp)
  407286:	48 89 75 f0          	mov    %rsi,-0x10(%rbp)
  40728a:	48 89 55 e8          	mov    %rdx,-0x18(%rbp)
  40728e:	48 8b 55 f0          	mov    -0x10(%rbp),%rdx
  407292:	48 8b 45 f8          	mov    -0x8(%rbp),%rax
  407296:	48 89 d6             	mov    %rdx,%rsi
  407299:	48 89 c7             	mov    %rax,%rdi
  40729c:	e8 4e 0a 00 00       	callq  407cef <_ZSt8_DestroyIPiEvT_S1_>
  4072a1:	90                   	nop
  4072a2:	c9                   	leaveq 
  4072a3:	c3                   	retq   

00000000004072a4 <_ZN6google22MakeCheckOpValueStringIiEEvPSoRKT_>:
  4072a4:	55                   	push   %rbp
  4072a5:	48 89 e5             	mov    %rsp,%rbp
  4072a8:	48 83 ec 10          	sub    $0x10,%rsp
  4072ac:	48 89 7d f8          	mov    %rdi,-0x8(%rbp)
  4072b0:	48 89 75 f0          	mov    %rsi,-0x10(%rbp)
  4072b4:	48 8b 45 f0          	mov    -0x10(%rbp),%rax
  4072b8:	8b 10                	mov    (%rax),%edx
  4072ba:	48 8b 45 f8          	mov    -0x8(%rbp),%rax
  4072be:	89 d6                	mov    %edx,%esi
  4072c0:	48 89 c7             	mov    %rax,%rdi
  4072c3:	e8 08 cc ff ff       	callq  403ed0 <_ZNSolsEi@plt>
  4072c8:	90                   	nop
  4072c9:	c9                   	leaveq 
  4072ca:	c3                   	retq   

00000000004072cb <_ZN6google8protobuf8internal18GenericTypeHandlerIN5caffe9BlobProtoEE5ClearEPS4_>:
  4072cb:	55                   	push   %rbp
  4072cc:	48 89 e5             	mov    %rsp,%rbp
  4072cf:	48 83 ec 10          	sub    $0x10,%rsp
  4072d3:	48 89 7d f8          	mov    %rdi,-0x8(%rbp)
  4072d7:	48 8b 45 f8          	mov    -0x8(%rbp),%rax
  4072db:	48 8b 00             	mov    (%rax),%rax
  4072de:	48 83 c0 38          	add    $0x38,%rax
  4072e2:	48 8b 00             	mov    (%rax),%rax
  4072e5:	48 8b 55 f8          	mov    -0x8(%rbp),%rdx
  4072e9:	48 89 d7             	mov    %rdx,%rdi
  4072ec:	ff d0                	callq  *%rax
  4072ee:	90                   	nop
  4072ef:	c9                   	leaveq 
  4072f0:	c3                   	retq   

00000000004072f1 <_ZN6google8protobuf8internal20RepeatedPtrFieldBase4castINS0_16RepeatedPtrFieldIN5caffe9BlobProtoEE11TypeHandlerEEEPNT_4TypeEPv>:
  4072f1:	55                   	push   %rbp
  4072f2:	48 89 e5             	mov    %rsp,%rbp
  4072f5:	48 89 7d f8          	mov    %rdi,-0x8(%rbp)
  4072f9:	48 8b 45 f8          	mov    -0x8(%rbp),%rax
  4072fd:	5d                   	pop    %rbp
  4072fe:	c3                   	retq   
  4072ff:	90                   	nop

0000000000407300 <_ZN6google8protobuf8internal18GenericTypeHandlerIN5caffe9BlobProtoEE16NewFromPrototypeEPKS4_PNS0_5ArenaE>:
  407300:	55                   	push   %rbp
  407301:	48 89 e5             	mov    %rsp,%rbp
  407304:	48 83 ec 10          	sub    $0x10,%rsp
  407308:	48 89 7d f8          	mov    %rdi,-0x8(%rbp)
  40730c:	48 89 75 f0          	mov    %rsi,-0x10(%rbp)
  407310:	48 8b 45 f0          	mov    -0x10(%rbp),%rax
  407314:	48 89 c7             	mov    %rax,%rdi
  407317:	e8 f9 09 00 00       	callq  407d15 <_ZN6google8protobuf8internal18GenericTypeHandlerIN5caffe9BlobProtoEE3NewEPNS0_5ArenaE>
  40731c:	c9                   	leaveq 
  40731d:	c3                   	retq   

000000000040731e <_ZNSt12_Vector_baseIPN5caffe4BlobIfEESaIS3_EE12_Vector_implC1Ev>:
  40731e:	55                   	push   %rbp
  40731f:	48 89 e5             	mov    %rsp,%rbp
  407322:	48 83 ec 10          	sub    $0x10,%rsp
  407326:	48 89 7d f8          	mov    %rdi,-0x8(%rbp)
  40732a:	48 8b 45 f8          	mov    -0x8(%rbp),%rax
  40732e:	48 89 c7             	mov    %rax,%rdi
  407331:	e8 d6 0a 00 00       	callq  407e0c <_ZNSaIPN5caffe4BlobIfEEEC1Ev>
  407336:	48 8b 45 f8          	mov    -0x8(%rbp),%rax
  40733a:	48 c7 00 00 00 00 00 	movq   $0x0,(%rax)
  407341:	48 8b 45 f8          	mov    -0x8(%rbp),%rax
  407345:	48 c7 40 08 00 00 00 	movq   $0x0,0x8(%rax)
  40734c:	00 
  40734d:	48 8b 45 f8          	mov    -0x8(%rbp),%rax
  407351:	48 c7 40 10 00 00 00 	movq   $0x0,0x10(%rax)
  407358:	00 
  407359:	90                   	nop
  40735a:	c9                   	leaveq 
  40735b:	c3                   	retq   

000000000040735c <_ZNSaIPN5caffe4BlobIfEEED1Ev>:
  40735c:	55                   	push   %rbp
  40735d:	48 89 e5             	mov    %rsp,%rbp
  407360:	48 83 ec 10          	sub    $0x10,%rsp
  407364:	48 89 7d f8          	mov    %rdi,-0x8(%rbp)
  407368:	48 8b 45 f8          	mov    -0x8(%rbp),%rax
  40736c:	48 89 c7             	mov    %rax,%rdi
  40736f:	e8 b4 0a 00 00       	callq  407e28 <_ZN9__gnu_cxx13new_allocatorIPN5caffe4BlobIfEEED1Ev>
  407374:	90                   	nop
  407375:	c9                   	leaveq 
  407376:	c3                   	retq   
  407377:	90                   	nop

0000000000407378 <_ZNSt12_Vector_baseIPN5caffe4BlobIfEESaIS3_EE13_M_deallocateEPS3_m>:
  407378:	55                   	push   %rbp
  407379:	48 89 e5             	mov    %rsp,%rbp
  40737c:	48 83 ec 20          	sub    $0x20,%rsp
  407380:	48 89 7d f8          	mov    %rdi,-0x8(%rbp)
  407384:	48 89 75 f0          	mov    %rsi,-0x10(%rbp)
  407388:	48 89 55 e8          	mov    %rdx,-0x18(%rbp)
  40738c:	48 83 7d f0 00       	cmpq   $0x0,-0x10(%rbp)
  407391:	74 17                	je     4073aa <_ZNSt12_Vector_baseIPN5caffe4BlobIfEESaIS3_EE13_M_deallocateEPS3_m+0x32>
  407393:	48 8b 45 f8          	mov    -0x8(%rbp),%rax
  407397:	48 8b 55 e8          	mov    -0x18(%rbp),%rdx
  40739b:	48 8b 4d f0          	mov    -0x10(%rbp),%rcx
  40739f:	48 89 ce             	mov    %rcx,%rsi
  4073a2:	48 89 c7             	mov    %rax,%rdi
  4073a5:	e8 89 0a 00 00       	callq  407e33 <_ZNSt16allocator_traitsISaIPN5caffe4BlobIfEEEE10deallocateERS4_PS3_m>
  4073aa:	90                   	nop
  4073ab:	c9                   	leaveq 
  4073ac:	c3                   	retq   

00000000004073ad <_ZSt8_DestroyIPPN5caffe4BlobIfEEEvT_S5_>:
  4073ad:	55                   	push   %rbp
  4073ae:	48 89 e5             	mov    %rsp,%rbp
  4073b1:	48 83 ec 10          	sub    $0x10,%rsp
  4073b5:	48 89 7d f8          	mov    %rdi,-0x8(%rbp)
  4073b9:	48 89 75 f0          	mov    %rsi,-0x10(%rbp)
  4073bd:	48 8b 55 f0          	mov    -0x10(%rbp),%rdx
  4073c1:	48 8b 45 f8          	mov    -0x8(%rbp),%rax
  4073c5:	48 89 d6             	mov    %rdx,%rsi
  4073c8:	48 89 c7             	mov    %rax,%rdi
  4073cb:	e8 91 0a 00 00       	callq  407e61 <_ZNSt12_Destroy_auxILb1EE9__destroyIPPN5caffe4BlobIfEEEEvT_S7_>
  4073d0:	90                   	nop
  4073d1:	c9                   	leaveq 
  4073d2:	c3                   	retq   
  4073d3:	90                   	nop

00000000004073d4 <_ZN9__gnu_cxx13new_allocatorIPN5caffe4BlobIfEEE9constructIS4_JRKS4_EEEvPT_DpOT0_>:
  4073d4:	55                   	push   %rbp
  4073d5:	48 89 e5             	mov    %rsp,%rbp
  4073d8:	53                   	push   %rbx
  4073d9:	48 83 ec 28          	sub    $0x28,%rsp
  4073dd:	48 89 7d e8          	mov    %rdi,-0x18(%rbp)
  4073e1:	48 89 75 e0          	mov    %rsi,-0x20(%rbp)
  4073e5:	48 89 55 d8          	mov    %rdx,-0x28(%rbp)
  4073e9:	48 8b 45 d8          	mov    -0x28(%rbp),%rax
  4073ed:	48 89 c7             	mov    %rax,%rdi
  4073f0:	e8 a7 ec ff ff       	callq  40609c <_ZSt7forwardIRKPN5caffe4BlobIfEEEOT_RNSt16remove_referenceIS6_E4typeE>
  4073f5:	48 8b 18             	mov    (%rax),%rbx
  4073f8:	48 8b 45 e0          	mov    -0x20(%rbp),%rax
  4073fc:	48 89 c6             	mov    %rax,%rsi
  4073ff:	bf 08 00 00 00       	mov    $0x8,%edi
  407404:	e8 5e d0 ff ff       	callq  404467 <_ZnwmPv>
  407409:	48 85 c0             	test   %rax,%rax
  40740c:	74 03                	je     407411 <_ZN9__gnu_cxx13new_allocatorIPN5caffe4BlobIfEEE9constructIS4_JRKS4_EEEvPT_DpOT0_+0x3d>
  40740e:	48 89 18             	mov    %rbx,(%rax)
  407411:	90                   	nop
  407412:	48 83 c4 28          	add    $0x28,%rsp
  407416:	5b                   	pop    %rbx
  407417:	5d                   	pop    %rbp
  407418:	c3                   	retq   
  407419:	90                   	nop

000000000040741a <_ZNKSt6vectorIPN5caffe4BlobIfEESaIS3_EE12_M_check_lenEmPKc>:
  40741a:	55                   	push   %rbp
  40741b:	48 89 e5             	mov    %rsp,%rbp
  40741e:	53                   	push   %rbx
  40741f:	48 83 ec 48          	sub    $0x48,%rsp
  407423:	48 89 7d c8          	mov    %rdi,-0x38(%rbp)
  407427:	48 89 75 c0          	mov    %rsi,-0x40(%rbp)
  40742b:	48 89 55 b8          	mov    %rdx,-0x48(%rbp)
  40742f:	64 48 8b 04 25 28 00 	mov    %fs:0x28,%rax
  407436:	00 00 
  407438:	48 89 45 e8          	mov    %rax,-0x18(%rbp)
  40743c:	31 c0                	xor    %eax,%eax
  40743e:	48 8b 45 c8          	mov    -0x38(%rbp),%rax
  407442:	48 89 c7             	mov    %rax,%rdi
  407445:	e8 26 0a 00 00       	callq  407e70 <_ZNKSt6vectorIPN5caffe4BlobIfEESaIS3_EE8max_sizeEv>
  40744a:	48 89 c3             	mov    %rax,%rbx
  40744d:	48 8b 45 c8          	mov    -0x38(%rbp),%rax
  407451:	48 89 c7             	mov    %rax,%rdi
  407454:	e8 79 fc ff ff       	callq  4070d2 <_ZNKSt6vectorIPN5caffe4BlobIfEESaIS3_EE4sizeEv>
  407459:	48 29 c3             	sub    %rax,%rbx
  40745c:	48 89 da             	mov    %rbx,%rdx
  40745f:	48 8b 45 c0          	mov    -0x40(%rbp),%rax
  407463:	48 39 c2             	cmp    %rax,%rdx
  407466:	0f 92 c0             	setb   %al
  407469:	84 c0                	test   %al,%al
  40746b:	74 0c                	je     407479 <_ZNKSt6vectorIPN5caffe4BlobIfEESaIS3_EE12_M_check_lenEmPKc+0x5f>
  40746d:	48 8b 45 b8          	mov    -0x48(%rbp),%rax
  407471:	48 89 c7             	mov    %rax,%rdi
  407474:	e8 47 cb ff ff       	callq  403fc0 <_ZSt20__throw_length_errorPKc@plt>
  407479:	48 8b 45 c8          	mov    -0x38(%rbp),%rax
  40747d:	48 89 c7             	mov    %rax,%rdi
  407480:	e8 4d fc ff ff       	callq  4070d2 <_ZNKSt6vectorIPN5caffe4BlobIfEESaIS3_EE4sizeEv>
  407485:	48 89 c3             	mov    %rax,%rbx
  407488:	48 8b 45 c8          	mov    -0x38(%rbp),%rax
  40748c:	48 89 c7             	mov    %rax,%rdi
  40748f:	e8 3e fc ff ff       	callq  4070d2 <_ZNKSt6vectorIPN5caffe4BlobIfEESaIS3_EE4sizeEv>
  407494:	48 89 45 d8          	mov    %rax,-0x28(%rbp)
  407498:	48 8d 55 c0          	lea    -0x40(%rbp),%rdx
  40749c:	48 8d 45 d8          	lea    -0x28(%rbp),%rax
  4074a0:	48 89 d6             	mov    %rdx,%rsi
  4074a3:	48 89 c7             	mov    %rax,%rdi
  4074a6:	e8 e7 09 00 00       	callq  407e92 <_ZSt3maxImERKT_S2_S2_>
  4074ab:	48 8b 00             	mov    (%rax),%rax
  4074ae:	48 01 d8             	add    %rbx,%rax
  4074b1:	48 89 45 e0          	mov    %rax,-0x20(%rbp)
  4074b5:	48 8b 45 c8          	mov    -0x38(%rbp),%rax
  4074b9:	48 89 c7             	mov    %rax,%rdi
  4074bc:	e8 11 fc ff ff       	callq  4070d2 <_ZNKSt6vectorIPN5caffe4BlobIfEESaIS3_EE4sizeEv>
  4074c1:	48 3b 45 e0          	cmp    -0x20(%rbp),%rax
  4074c5:	77 12                	ja     4074d9 <_ZNKSt6vectorIPN5caffe4BlobIfEESaIS3_EE12_M_check_lenEmPKc+0xbf>
  4074c7:	48 8b 45 c8          	mov    -0x38(%rbp),%rax
  4074cb:	48 89 c7             	mov    %rax,%rdi
  4074ce:	e8 9d 09 00 00       	callq  407e70 <_ZNKSt6vectorIPN5caffe4BlobIfEESaIS3_EE8max_sizeEv>
  4074d3:	48 3b 45 e0          	cmp    -0x20(%rbp),%rax
  4074d7:	73 0e                	jae    4074e7 <_ZNKSt6vectorIPN5caffe4BlobIfEESaIS3_EE12_M_check_lenEmPKc+0xcd>
  4074d9:	48 8b 45 c8          	mov    -0x38(%rbp),%rax
  4074dd:	48 89 c7             	mov    %rax,%rdi
  4074e0:	e8 8b 09 00 00       	callq  407e70 <_ZNKSt6vectorIPN5caffe4BlobIfEESaIS3_EE8max_sizeEv>
  4074e5:	eb 04                	jmp    4074eb <_ZNKSt6vectorIPN5caffe4BlobIfEESaIS3_EE12_M_check_lenEmPKc+0xd1>
  4074e7:	48 8b 45 e0          	mov    -0x20(%rbp),%rax
  4074eb:	48 8b 4d e8          	mov    -0x18(%rbp),%rcx
  4074ef:	64 48 33 0c 25 28 00 	xor    %fs:0x28,%rcx
  4074f6:	00 00 
  4074f8:	74 05                	je     4074ff <_ZNKSt6vectorIPN5caffe4BlobIfEESaIS3_EE12_M_check_lenEmPKc+0xe5>
  4074fa:	e8 b1 c9 ff ff       	callq  403eb0 <__stack_chk_fail@plt>
  4074ff:	48 83 c4 48          	add    $0x48,%rsp
  407503:	5b                   	pop    %rbx
  407504:	5d                   	pop    %rbp
  407505:	c3                   	retq   

0000000000407506 <_ZNSt12_Vector_baseIPN5caffe4BlobIfEESaIS3_EE11_M_allocateEm>:
  407506:	55                   	push   %rbp
  407507:	48 89 e5             	mov    %rsp,%rbp
  40750a:	48 83 ec 10          	sub    $0x10,%rsp
  40750e:	48 89 7d f8          	mov    %rdi,-0x8(%rbp)
  407512:	48 89 75 f0          	mov    %rsi,-0x10(%rbp)
  407516:	48 83 7d f0 00       	cmpq   $0x0,-0x10(%rbp)
  40751b:	74 15                	je     407532 <_ZNSt12_Vector_baseIPN5caffe4BlobIfEESaIS3_EE11_M_allocateEm+0x2c>
  40751d:	48 8b 45 f8          	mov    -0x8(%rbp),%rax
  407521:	48 8b 55 f0          	mov    -0x10(%rbp),%rdx
  407525:	48 89 d6             	mov    %rdx,%rsi
  407528:	48 89 c7             	mov    %rax,%rdi
  40752b:	e8 8d 09 00 00       	callq  407ebd <_ZNSt16allocator_traitsISaIPN5caffe4BlobIfEEEE8allocateERS4_m>
  407530:	eb 05                	jmp    407537 <_ZNSt12_Vector_baseIPN5caffe4BlobIfEESaIS3_EE11_M_allocateEm+0x31>
  407532:	b8 00 00 00 00       	mov    $0x0,%eax
  407537:	c9                   	leaveq 
  407538:	c3                   	retq   

0000000000407539 <_ZSt34__uninitialized_move_if_noexcept_aIPPN5caffe4BlobIfEES4_SaIS3_EET0_T_S7_S6_RT1_>:
  407539:	55                   	push   %rbp
  40753a:	48 89 e5             	mov    %rsp,%rbp
  40753d:	53                   	push   %rbx
  40753e:	48 83 ec 28          	sub    $0x28,%rsp
  407542:	48 89 7d e8          	mov    %rdi,-0x18(%rbp)
  407546:	48 89 75 e0          	mov    %rsi,-0x20(%rbp)
  40754a:	48 89 55 d8          	mov    %rdx,-0x28(%rbp)
  40754e:	48 89 4d d0          	mov    %rcx,-0x30(%rbp)
  407552:	48 8b 45 e0          	mov    -0x20(%rbp),%rax
  407556:	48 89 c7             	mov    %rax,%rdi
  407559:	e8 89 09 00 00       	callq  407ee7 <_ZSt32__make_move_if_noexcept_iteratorIPN5caffe4BlobIfEESt13move_iteratorIPS3_EET0_PT_>
  40755e:	48 89 c3             	mov    %rax,%rbx
  407561:	48 8b 45 e8          	mov    -0x18(%rbp),%rax
  407565:	48 89 c7             	mov    %rax,%rdi
  407568:	e8 7a 09 00 00       	callq  407ee7 <_ZSt32__make_move_if_noexcept_iteratorIPN5caffe4BlobIfEESt13move_iteratorIPS3_EET0_PT_>
  40756d:	48 89 c7             	mov    %rax,%rdi
  407570:	48 8b 55 d0          	mov    -0x30(%rbp),%rdx
  407574:	48 8b 45 d8          	mov    -0x28(%rbp),%rax
  407578:	48 89 d1             	mov    %rdx,%rcx
  40757b:	48 89 c2             	mov    %rax,%rdx
  40757e:	48 89 de             	mov    %rbx,%rsi
  407581:	e8 a9 09 00 00       	callq  407f2f <_ZSt22__uninitialized_copy_aISt13move_iteratorIPPN5caffe4BlobIfEEES5_S4_ET0_T_S8_S7_RSaIT1_E>
  407586:	48 83 c4 28          	add    $0x28,%rsp
  40758a:	5b                   	pop    %rbx
  40758b:	5d                   	pop    %rbp
  40758c:	c3                   	retq   

000000000040758d <_ZNSt16allocator_traitsISaIPN5caffe4BlobIfEEEE7destroyIS3_EEvRS4_PT_>:
  40758d:	55                   	push   %rbp
  40758e:	48 89 e5             	mov    %rsp,%rbp
  407591:	48 83 ec 10          	sub    $0x10,%rsp
  407595:	48 89 7d f8          	mov    %rdi,-0x8(%rbp)
  407599:	48 89 75 f0          	mov    %rsi,-0x10(%rbp)
  40759d:	48 8b 55 f0          	mov    -0x10(%rbp),%rdx
  4075a1:	48 8b 45 f8          	mov    -0x8(%rbp),%rax
  4075a5:	48 89 d6             	mov    %rdx,%rsi
  4075a8:	48 89 c7             	mov    %rax,%rdi
  4075ab:	e8 b0 09 00 00       	callq  407f60 <_ZN9__gnu_cxx13new_allocatorIPN5caffe4BlobIfEEE7destroyIS4_EEvPT_>
  4075b0:	90                   	nop
  4075b1:	c9                   	leaveq 
  4075b2:	c3                   	retq   
  4075b3:	90                   	nop

00000000004075b4 <_ZNSt12_Vector_baseIiSaIiEEC1Ev>:
  4075b4:	55                   	push   %rbp
  4075b5:	48 89 e5             	mov    %rsp,%rbp
  4075b8:	48 83 ec 10          	sub    $0x10,%rsp
  4075bc:	48 89 7d f8          	mov    %rdi,-0x8(%rbp)
  4075c0:	48 8b 45 f8          	mov    -0x8(%rbp),%rax
  4075c4:	48 89 c7             	mov    %rax,%rdi
  4075c7:	e8 a4 09 00 00       	callq  407f70 <_ZNSt12_Vector_baseIiSaIiEE12_Vector_implC1Ev>
  4075cc:	90                   	nop
  4075cd:	c9                   	leaveq 
  4075ce:	c3                   	retq   
  4075cf:	90                   	nop

00000000004075d0 <_ZNSt6vectorIN5boost10shared_ptrIN5caffe4BlobIfEEEESaIS5_EEC1Ev>:
  4075d0:	55                   	push   %rbp
  4075d1:	48 89 e5             	mov    %rsp,%rbp
  4075d4:	48 83 ec 10          	sub    $0x10,%rsp
  4075d8:	48 89 7d f8          	mov    %rdi,-0x8(%rbp)
  4075dc:	48 8b 45 f8          	mov    -0x8(%rbp),%rax
  4075e0:	48 89 c7             	mov    %rax,%rdi
  4075e3:	e8 e2 09 00 00       	callq  407fca <_ZNSt12_Vector_baseIN5boost10shared_ptrIN5caffe4BlobIfEEEESaIS5_EEC1Ev>
  4075e8:	90                   	nop
  4075e9:	c9                   	leaveq 
  4075ea:	c3                   	retq   
  4075eb:	90                   	nop

00000000004075ec <_ZNSt6vectorIN5boost10shared_ptrIN5caffe4BlobIfEEEESaIS5_EED1Ev>:
  4075ec:	55                   	push   %rbp
  4075ed:	48 89 e5             	mov    %rsp,%rbp
  4075f0:	48 83 ec 10          	sub    $0x10,%rsp
  4075f4:	48 89 7d f8          	mov    %rdi,-0x8(%rbp)
  4075f8:	48 8b 45 f8          	mov    -0x8(%rbp),%rax
  4075fc:	48 89 c7             	mov    %rax,%rdi
  4075ff:	e8 32 0a 00 00       	callq  408036 <_ZNSt12_Vector_baseIN5boost10shared_ptrIN5caffe4BlobIfEEEESaIS5_EE19_M_get_Tp_allocatorEv>
  407604:	48 89 c2             	mov    %rax,%rdx
  407607:	48 8b 45 f8          	mov    -0x8(%rbp),%rax
  40760b:	48 8b 48 08          	mov    0x8(%rax),%rcx
  40760f:	48 8b 45 f8          	mov    -0x8(%rbp),%rax
  407613:	48 8b 00             	mov    (%rax),%rax
  407616:	48 89 ce             	mov    %rcx,%rsi
  407619:	48 89 c7             	mov    %rax,%rdi
  40761c:	e8 23 0a 00 00       	callq  408044 <_ZSt8_DestroyIPN5boost10shared_ptrIN5caffe4BlobIfEEEES5_EvT_S7_RSaIT0_E>
  407621:	48 8b 45 f8          	mov    -0x8(%rbp),%rax
  407625:	48 89 c7             	mov    %rax,%rdi
  407628:	e8 b9 09 00 00       	callq  407fe6 <_ZNSt12_Vector_baseIN5boost10shared_ptrIN5caffe4BlobIfEEEESaIS5_EED1Ev>
  40762d:	90                   	nop
  40762e:	c9                   	leaveq 
  40762f:	c3                   	retq   

0000000000407630 <_ZNSt6vectorIbSaIbEEC1Ev>:
  407630:	55                   	push   %rbp
  407631:	48 89 e5             	mov    %rsp,%rbp
  407634:	48 83 ec 10          	sub    $0x10,%rsp
  407638:	48 89 7d f8          	mov    %rdi,-0x8(%rbp)
  40763c:	48 8b 45 f8          	mov    -0x8(%rbp),%rax
  407640:	48 89 c7             	mov    %rax,%rdi
  407643:	e8 42 0a 00 00       	callq  40808a <_ZNSt13_Bvector_baseISaIbEEC1Ev>
  407648:	90                   	nop
  407649:	c9                   	leaveq 
  40764a:	c3                   	retq   
  40764b:	90                   	nop

000000000040764c <_ZNSt6vectorIbSaIbEED1Ev>:
  40764c:	55                   	push   %rbp
  40764d:	48 89 e5             	mov    %rsp,%rbp
  407650:	48 83 ec 10          	sub    $0x10,%rsp
  407654:	48 89 7d f8          	mov    %rdi,-0x8(%rbp)
  407658:	48 8b 45 f8          	mov    -0x8(%rbp),%rax
  40765c:	48 89 c7             	mov    %rax,%rdi
  40765f:	e8 42 0a 00 00       	callq  4080a6 <_ZNSt13_Bvector_baseISaIbEED1Ev>
  407664:	90                   	nop
  407665:	c9                   	leaveq 
  407666:	c3                   	retq   
  407667:	90                   	nop

0000000000407668 <_ZNSt6vectorIfSaIfEEC1Ev>:
  407668:	55                   	push   %rbp
  407669:	48 89 e5             	mov    %rsp,%rbp
  40766c:	48 83 ec 10          	sub    $0x10,%rsp
  407670:	48 89 7d f8          	mov    %rdi,-0x8(%rbp)
  407674:	48 8b 45 f8          	mov    -0x8(%rbp),%rax
  407678:	48 89 c7             	mov    %rax,%rdi
  40767b:	e8 6a 0a 00 00       	callq  4080ea <_ZNSt12_Vector_baseIfSaIfEEC1Ev>
  407680:	90                   	nop
  407681:	c9                   	leaveq 
  407682:	c3                   	retq   
  407683:	90                   	nop

0000000000407684 <_ZNSt6vectorIfSaIfEED1Ev>:
  407684:	55                   	push   %rbp
  407685:	48 89 e5             	mov    %rsp,%rbp
  407688:	48 83 ec 10          	sub    $0x10,%rsp
  40768c:	48 89 7d f8          	mov    %rdi,-0x8(%rbp)
  407690:	48 8b 45 f8          	mov    -0x8(%rbp),%rax
  407694:	48 89 c7             	mov    %rax,%rdi
  407697:	e8 ba 0a 00 00       	callq  408156 <_ZNSt12_Vector_baseIfSaIfEE19_M_get_Tp_allocatorEv>
  40769c:	48 89 c2             	mov    %rax,%rdx
  40769f:	48 8b 45 f8          	mov    -0x8(%rbp),%rax
  4076a3:	48 8b 48 08          	mov    0x8(%rax),%rcx
  4076a7:	48 8b 45 f8          	mov    -0x8(%rbp),%rax
  4076ab:	48 8b 00             	mov    (%rax),%rax
  4076ae:	48 89 ce             	mov    %rcx,%rsi
  4076b1:	48 89 c7             	mov    %rax,%rdi
  4076b4:	e8 ab 0a 00 00       	callq  408164 <_ZSt8_DestroyIPffEvT_S1_RSaIT0_E>
  4076b9:	48 8b 45 f8          	mov    -0x8(%rbp),%rax
  4076bd:	48 89 c7             	mov    %rax,%rdi
  4076c0:	e8 41 0a 00 00       	callq  408106 <_ZNSt12_Vector_baseIfSaIfEED1Ev>
  4076c5:	90                   	nop
  4076c6:	c9                   	leaveq 
  4076c7:	c3                   	retq   

00000000004076c8 <_ZNSt6vectorIN5boost10shared_ptrIN5caffe4BlobIfEEEESaIS5_EE6resizeEm>:
  4076c8:	55                   	push   %rbp
  4076c9:	48 89 e5             	mov    %rsp,%rbp
  4076cc:	48 83 ec 10          	sub    $0x10,%rsp
  4076d0:	48 89 7d f8          	mov    %rdi,-0x8(%rbp)
  4076d4:	48 89 75 f0          	mov    %rsi,-0x10(%rbp)
  4076d8:	48 8b 45 f8          	mov    -0x8(%rbp),%rax
  4076dc:	48 89 c7             	mov    %rax,%rdi
  4076df:	e8 aa 0a 00 00       	callq  40818e <_ZNKSt6vectorIN5boost10shared_ptrIN5caffe4BlobIfEEEESaIS5_EE4sizeEv>
  4076e4:	48 3b 45 f0          	cmp    -0x10(%rbp),%rax
  4076e8:	0f 92 c0             	setb   %al
  4076eb:	84 c0                	test   %al,%al
  4076ed:	74 2a                	je     407719 <_ZNSt6vectorIN5boost10shared_ptrIN5caffe4BlobIfEEEESaIS5_EE6resizeEm+0x51>
  4076ef:	48 8b 45 f8          	mov    -0x8(%rbp),%rax
  4076f3:	48 89 c7             	mov    %rax,%rdi
  4076f6:	e8 93 0a 00 00       	callq  40818e <_ZNKSt6vectorIN5boost10shared_ptrIN5caffe4BlobIfEEEESaIS5_EE4sizeEv>
  4076fb:	48 89 c2             	mov    %rax,%rdx
  4076fe:	48 8b 45 f0          	mov    -0x10(%rbp),%rax
  407702:	48 29 d0             	sub    %rdx,%rax
  407705:	48 89 c2             	mov    %rax,%rdx
  407708:	48 8b 45 f8          	mov    -0x8(%rbp),%rax
  40770c:	48 89 d6             	mov    %rdx,%rsi
  40770f:	48 89 c7             	mov    %rax,%rdi
  407712:	e8 9d 0a 00 00       	callq  4081b4 <_ZNSt6vectorIN5boost10shared_ptrIN5caffe4BlobIfEEEESaIS5_EE17_M_default_appendEm>
  407717:	eb 38                	jmp    407751 <_ZNSt6vectorIN5boost10shared_ptrIN5caffe4BlobIfEEEESaIS5_EE6resizeEm+0x89>
  407719:	48 8b 45 f8          	mov    -0x8(%rbp),%rax
  40771d:	48 89 c7             	mov    %rax,%rdi
  407720:	e8 69 0a 00 00       	callq  40818e <_ZNKSt6vectorIN5boost10shared_ptrIN5caffe4BlobIfEEEESaIS5_EE4sizeEv>
  407725:	48 3b 45 f0          	cmp    -0x10(%rbp),%rax
  407729:	0f 97 c0             	seta   %al
  40772c:	84 c0                	test   %al,%al
  40772e:	74 21                	je     407751 <_ZNSt6vectorIN5boost10shared_ptrIN5caffe4BlobIfEEEESaIS5_EE6resizeEm+0x89>
  407730:	48 8b 45 f8          	mov    -0x8(%rbp),%rax
  407734:	48 8b 00             	mov    (%rax),%rax
  407737:	48 8b 55 f0          	mov    -0x10(%rbp),%rdx
  40773b:	48 c1 e2 04          	shl    $0x4,%rdx
  40773f:	48 01 c2             	add    %rax,%rdx
  407742:	48 8b 45 f8          	mov    -0x8(%rbp),%rax
  407746:	48 89 d6             	mov    %rdx,%rsi
  407749:	48 89 c7             	mov    %rax,%rdi
  40774c:	e8 69 0c 00 00       	callq  4083ba <_ZNSt6vectorIN5boost10shared_ptrIN5caffe4BlobIfEEEESaIS5_EE15_M_erase_at_endEPS5_>
  407751:	90                   	nop
  407752:	c9                   	leaveq 
  407753:	c3                   	retq   

0000000000407754 <_ZNSt6vectorIN5boost10shared_ptrIN5caffe4BlobIfEEEESaIS5_EEixEm>:
  407754:	55                   	push   %rbp
  407755:	48 89 e5             	mov    %rsp,%rbp
  407758:	48 89 7d f8          	mov    %rdi,-0x8(%rbp)
  40775c:	48 89 75 f0          	mov    %rsi,-0x10(%rbp)
  407760:	48 8b 45 f8          	mov    -0x8(%rbp),%rax
  407764:	48 8b 00             	mov    (%rax),%rax
  407767:	48 8b 55 f0          	mov    -0x10(%rbp),%rdx
  40776b:	48 c1 e2 04          	shl    $0x4,%rdx
  40776f:	48 01 d0             	add    %rdx,%rax
  407772:	5d                   	pop    %rbp
  407773:	c3                   	retq   

0000000000407774 <_ZN5boost10shared_ptrIN5caffe4BlobIfEEED1Ev>:
  407774:	55                   	push   %rbp
  407775:	48 89 e5             	mov    %rsp,%rbp
  407778:	48 83 ec 10          	sub    $0x10,%rsp
  40777c:	48 89 7d f8          	mov    %rdi,-0x8(%rbp)
  407780:	48 8b 45 f8          	mov    -0x8(%rbp),%rax
  407784:	48 83 c0 08          	add    $0x8,%rax
  407788:	48 89 c7             	mov    %rax,%rdi
  40778b:	e8 cc ce ff ff       	callq  40465c <_ZN5boost6detail12shared_countD1Ev>
  407790:	90                   	nop
  407791:	c9                   	leaveq 
  407792:	c3                   	retq   
  407793:	90                   	nop

0000000000407794 <_ZN5boost10shared_ptrIN5caffe4BlobIfEEE5resetIS3_EEvPT_>:
  407794:	55                   	push   %rbp
  407795:	48 89 e5             	mov    %rsp,%rbp
  407798:	48 83 ec 30          	sub    $0x30,%rsp
  40779c:	48 89 7d d8          	mov    %rdi,-0x28(%rbp)
  4077a0:	48 89 75 d0          	mov    %rsi,-0x30(%rbp)
  4077a4:	64 48 8b 04 25 28 00 	mov    %fs:0x28,%rax
  4077ab:	00 00 
  4077ad:	48 89 45 f8          	mov    %rax,-0x8(%rbp)
  4077b1:	31 c0                	xor    %eax,%eax
  4077b3:	48 83 7d d0 00       	cmpq   $0x0,-0x30(%rbp)
  4077b8:	74 26                	je     4077e0 <_ZN5boost10shared_ptrIN5caffe4BlobIfEEE5resetIS3_EEvPT_+0x4c>
  4077ba:	48 8b 45 d8          	mov    -0x28(%rbp),%rax
  4077be:	48 8b 00             	mov    (%rax),%rax
  4077c1:	48 3b 45 d0          	cmp    -0x30(%rbp),%rax
  4077c5:	75 19                	jne    4077e0 <_ZN5boost10shared_ptrIN5caffe4BlobIfEEE5resetIS3_EEvPT_+0x4c>
  4077c7:	b9 20 b5 40 00       	mov    $0x40b520,%ecx
  4077cc:	ba 6b 02 00 00       	mov    $0x26b,%edx
  4077d1:	be 58 b0 40 00       	mov    $0x40b058,%esi
  4077d6:	bf 6d b3 40 00       	mov    $0x40b36d,%edi
  4077db:	e8 90 c6 ff ff       	callq  403e70 <__assert_fail@plt>
  4077e0:	48 8b 55 d0          	mov    -0x30(%rbp),%rdx
  4077e4:	48 8d 45 e0          	lea    -0x20(%rbp),%rax
  4077e8:	48 89 d6             	mov    %rdx,%rsi
  4077eb:	48 89 c7             	mov    %rax,%rdi
  4077ee:	e8 0d 0c 00 00       	callq  408400 <_ZN5boost10shared_ptrIN5caffe4BlobIfEEEC1IS3_EEPT_>
  4077f3:	48 8b 55 d8          	mov    -0x28(%rbp),%rdx
  4077f7:	48 8d 45 e0          	lea    -0x20(%rbp),%rax
  4077fb:	48 89 d6             	mov    %rdx,%rsi
  4077fe:	48 89 c7             	mov    %rax,%rdi
  407801:	e8 68 0c 00 00       	callq  40846e <_ZN5boost10shared_ptrIN5caffe4BlobIfEEE4swapERS4_>
  407806:	48 8d 45 e0          	lea    -0x20(%rbp),%rax
  40780a:	48 89 c7             	mov    %rax,%rdi
  40780d:	e8 62 ff ff ff       	callq  407774 <_ZN5boost10shared_ptrIN5caffe4BlobIfEEED1Ev>
  407812:	90                   	nop
  407813:	48 8b 45 f8          	mov    -0x8(%rbp),%rax
  407817:	64 48 33 04 25 28 00 	xor    %fs:0x28,%rax
  40781e:	00 00 
  407820:	74 05                	je     407827 <_ZN5boost10shared_ptrIN5caffe4BlobIfEEE5resetIS3_EEvPT_+0x93>
  407822:	e8 89 c6 ff ff       	callq  403eb0 <__stack_chk_fail@plt>
  407827:	c9                   	leaveq 
  407828:	c3                   	retq   
  407829:	90                   	nop

000000000040782a <_ZNK5boost10shared_ptrIN5caffe4BlobIfEEEptEv>:
  40782a:	55                   	push   %rbp
  40782b:	48 89 e5             	mov    %rsp,%rbp
  40782e:	48 83 ec 10          	sub    $0x10,%rsp
  407832:	48 89 7d f8          	mov    %rdi,-0x8(%rbp)
  407836:	48 8b 45 f8          	mov    -0x8(%rbp),%rax
  40783a:	48 8b 00             	mov    (%rax),%rax
  40783d:	48 85 c0             	test   %rax,%rax
  407840:	75 19                	jne    40785b <_ZNK5boost10shared_ptrIN5caffe4BlobIfEEEptEv+0x31>
  407842:	b9 40 b4 40 00       	mov    $0x40b440,%ecx
  407847:	ba 88 02 00 00       	mov    $0x288,%edx
  40784c:	be 58 b0 40 00       	mov    $0x40b058,%esi
  407851:	bf 84 b0 40 00       	mov    $0x40b084,%edi
  407856:	e8 15 c6 ff ff       	callq  403e70 <__assert_fail@plt>
  40785b:	48 8b 45 f8          	mov    -0x8(%rbp),%rax
  40785f:	48 8b 00             	mov    (%rax),%rax
  407862:	c9                   	leaveq 
  407863:	c3                   	retq   

0000000000407864 <_ZNK5caffe5LayerIfE19ExactNumBottomBlobsEv>:
  407864:	55                   	push   %rbp
  407865:	48 89 e5             	mov    %rsp,%rbp
  407868:	48 89 7d f8          	mov    %rdi,-0x8(%rbp)
  40786c:	b8 ff ff ff ff       	mov    $0xffffffff,%eax
  407871:	5d                   	pop    %rbp
  407872:	c3                   	retq   

0000000000407873 <_ZN6google12Check_EQImplIimEEPNSt7__cxx1112basic_stringIcSt11char_traitsIcESaIcEEERKT_RKT0_PKc>:
  407873:	55                   	push   %rbp
  407874:	48 89 e5             	mov    %rsp,%rbp
  407877:	48 83 ec 20          	sub    $0x20,%rsp
  40787b:	48 89 7d f8          	mov    %rdi,-0x8(%rbp)
  40787f:	48 89 75 f0          	mov    %rsi,-0x10(%rbp)
  407883:	48 89 55 e8          	mov    %rdx,-0x18(%rbp)
  407887:	48 8b 45 f8          	mov    -0x8(%rbp),%rax
  40788b:	8b 00                	mov    (%rax),%eax
  40788d:	48 63 d0             	movslq %eax,%rdx
  407890:	48 8b 45 f0          	mov    -0x10(%rbp),%rax
  407894:	48 8b 00             	mov    (%rax),%rax
  407897:	48 39 c2             	cmp    %rax,%rdx
  40789a:	0f 94 c0             	sete   %al
  40789d:	0f b6 c0             	movzbl %al,%eax
  4078a0:	48 85 c0             	test   %rax,%rax
  4078a3:	74 07                	je     4078ac <_ZN6google12Check_EQImplIimEEPNSt7__cxx1112basic_stringIcSt11char_traitsIcESaIcEEERKT_RKT0_PKc+0x39>
  4078a5:	b8 00 00 00 00       	mov    $0x0,%eax
  4078aa:	eb 17                	jmp    4078c3 <_ZN6google12Check_EQImplIimEEPNSt7__cxx1112basic_stringIcSt11char_traitsIcESaIcEEERKT_RKT0_PKc+0x50>
  4078ac:	48 8b 55 e8          	mov    -0x18(%rbp),%rdx
  4078b0:	48 8b 4d f0          	mov    -0x10(%rbp),%rcx
  4078b4:	48 8b 45 f8          	mov    -0x8(%rbp),%rax
  4078b8:	48 89 ce             	mov    %rcx,%rsi
  4078bb:	48 89 c7             	mov    %rax,%rdi
  4078be:	e8 ec 0b 00 00       	callq  4084af <_ZN6google17MakeCheckOpStringIimEEPNSt7__cxx1112basic_stringIcSt11char_traitsIcESaIcEEERKT_RKT0_PKc>
  4078c3:	c9                   	leaveq 
  4078c4:	c3                   	retq   
  4078c5:	90                   	nop

00000000004078c6 <_ZNK5caffe5LayerIfE4typeEv>:
  4078c6:	55                   	push   %rbp
  4078c7:	48 89 e5             	mov    %rsp,%rbp
  4078ca:	48 89 7d f8          	mov    %rdi,-0x8(%rbp)
  4078ce:	b8 7f b3 40 00       	mov    $0x40b37f,%eax
  4078d3:	5d                   	pop    %rbp
  4078d4:	c3                   	retq   
  4078d5:	90                   	nop

00000000004078d6 <_ZNK5caffe5LayerIfE14MinBottomBlobsEv>:
  4078d6:	55                   	push   %rbp
  4078d7:	48 89 e5             	mov    %rsp,%rbp
  4078da:	48 89 7d f8          	mov    %rdi,-0x8(%rbp)
  4078de:	b8 ff ff ff ff       	mov    $0xffffffff,%eax
  4078e3:	5d                   	pop    %rbp
  4078e4:	c3                   	retq   

00000000004078e5 <_ZN6google12Check_LEImplIimEEPNSt7__cxx1112basic_stringIcSt11char_traitsIcESaIcEEERKT_RKT0_PKc>:
  4078e5:	55                   	push   %rbp
  4078e6:	48 89 e5             	mov    %rsp,%rbp
  4078e9:	48 83 ec 20          	sub    $0x20,%rsp
  4078ed:	48 89 7d f8          	mov    %rdi,-0x8(%rbp)
  4078f1:	48 89 75 f0          	mov    %rsi,-0x10(%rbp)
  4078f5:	48 89 55 e8          	mov    %rdx,-0x18(%rbp)
  4078f9:	48 8b 45 f8          	mov    -0x8(%rbp),%rax
  4078fd:	8b 00                	mov    (%rax),%eax
  4078ff:	48 63 d0             	movslq %eax,%rdx
  407902:	48 8b 45 f0          	mov    -0x10(%rbp),%rax
  407906:	48 8b 00             	mov    (%rax),%rax
  407909:	48 39 c2             	cmp    %rax,%rdx
  40790c:	0f 96 c0             	setbe  %al
  40790f:	0f b6 c0             	movzbl %al,%eax
  407912:	48 85 c0             	test   %rax,%rax
  407915:	74 07                	je     40791e <_ZN6google12Check_LEImplIimEEPNSt7__cxx1112basic_stringIcSt11char_traitsIcESaIcEEERKT_RKT0_PKc+0x39>
  407917:	b8 00 00 00 00       	mov    $0x0,%eax
  40791c:	eb 17                	jmp    407935 <_ZN6google12Check_LEImplIimEEPNSt7__cxx1112basic_stringIcSt11char_traitsIcESaIcEEERKT_RKT0_PKc+0x50>
  40791e:	48 8b 55 e8          	mov    -0x18(%rbp),%rdx
  407922:	48 8b 4d f0          	mov    -0x10(%rbp),%rcx
  407926:	48 8b 45 f8          	mov    -0x8(%rbp),%rax
  40792a:	48 89 ce             	mov    %rcx,%rsi
  40792d:	48 89 c7             	mov    %rax,%rdi
  407930:	e8 7a 0b 00 00       	callq  4084af <_ZN6google17MakeCheckOpStringIimEEPNSt7__cxx1112basic_stringIcSt11char_traitsIcESaIcEEERKT_RKT0_PKc>
  407935:	c9                   	leaveq 
  407936:	c3                   	retq   
  407937:	90                   	nop

0000000000407938 <_ZNK5caffe5LayerIfE14MaxBottomBlobsEv>:
  407938:	55                   	push   %rbp
  407939:	48 89 e5             	mov    %rsp,%rbp
  40793c:	48 89 7d f8          	mov    %rdi,-0x8(%rbp)
  407940:	b8 ff ff ff ff       	mov    $0xffffffff,%eax
  407945:	5d                   	pop    %rbp
  407946:	c3                   	retq   

0000000000407947 <_ZN6google12Check_GEImplIimEEPNSt7__cxx1112basic_stringIcSt11char_traitsIcESaIcEEERKT_RKT0_PKc>:
  407947:	55                   	push   %rbp
  407948:	48 89 e5             	mov    %rsp,%rbp
  40794b:	48 83 ec 20          	sub    $0x20,%rsp
  40794f:	48 89 7d f8          	mov    %rdi,-0x8(%rbp)
  407953:	48 89 75 f0          	mov    %rsi,-0x10(%rbp)
  407957:	48 89 55 e8          	mov    %rdx,-0x18(%rbp)
  40795b:	48 8b 45 f8          	mov    -0x8(%rbp),%rax
  40795f:	8b 00                	mov    (%rax),%eax
  407961:	48 63 d0             	movslq %eax,%rdx
  407964:	48 8b 45 f0          	mov    -0x10(%rbp),%rax
  407968:	48 8b 00             	mov    (%rax),%rax
  40796b:	48 39 c2             	cmp    %rax,%rdx
  40796e:	0f 93 c0             	setae  %al
  407971:	0f b6 c0             	movzbl %al,%eax
  407974:	48 85 c0             	test   %rax,%rax
  407977:	74 07                	je     407980 <_ZN6google12Check_GEImplIimEEPNSt7__cxx1112basic_stringIcSt11char_traitsIcESaIcEEERKT_RKT0_PKc+0x39>
  407979:	b8 00 00 00 00       	mov    $0x0,%eax
  40797e:	eb 17                	jmp    407997 <_ZN6google12Check_GEImplIimEEPNSt7__cxx1112basic_stringIcSt11char_traitsIcESaIcEEERKT_RKT0_PKc+0x50>
  407980:	48 8b 55 e8          	mov    -0x18(%rbp),%rdx
  407984:	48 8b 4d f0          	mov    -0x10(%rbp),%rcx
  407988:	48 8b 45 f8          	mov    -0x8(%rbp),%rax
  40798c:	48 89 ce             	mov    %rcx,%rsi
  40798f:	48 89 c7             	mov    %rax,%rdi
  407992:	e8 18 0b 00 00       	callq  4084af <_ZN6google17MakeCheckOpStringIimEEPNSt7__cxx1112basic_stringIcSt11char_traitsIcESaIcEEERKT_RKT0_PKc>
  407997:	c9                   	leaveq 
  407998:	c3                   	retq   
  407999:	90                   	nop

000000000040799a <_ZNK5caffe5LayerIfE16ExactNumTopBlobsEv>:
  40799a:	55                   	push   %rbp
  40799b:	48 89 e5             	mov    %rsp,%rbp
  40799e:	48 89 7d f8          	mov    %rdi,-0x8(%rbp)
  4079a2:	b8 ff ff ff ff       	mov    $0xffffffff,%eax
  4079a7:	5d                   	pop    %rbp
  4079a8:	c3                   	retq   
  4079a9:	90                   	nop

00000000004079aa <_ZNK5caffe5LayerIfE11MinTopBlobsEv>:
  4079aa:	55                   	push   %rbp
  4079ab:	48 89 e5             	mov    %rsp,%rbp
  4079ae:	48 89 7d f8          	mov    %rdi,-0x8(%rbp)
  4079b2:	b8 ff ff ff ff       	mov    $0xffffffff,%eax
  4079b7:	5d                   	pop    %rbp
  4079b8:	c3                   	retq   
  4079b9:	90                   	nop

00000000004079ba <_ZNK5caffe5LayerIfE11MaxTopBlobsEv>:
  4079ba:	55                   	push   %rbp
  4079bb:	48 89 e5             	mov    %rsp,%rbp
  4079be:	48 89 7d f8          	mov    %rdi,-0x8(%rbp)
  4079c2:	b8 ff ff ff ff       	mov    $0xffffffff,%eax
  4079c7:	5d                   	pop    %rbp
  4079c8:	c3                   	retq   
  4079c9:	90                   	nop

00000000004079ca <_ZNK5caffe5LayerIfE22EqualNumBottomTopBlobsEv>:
  4079ca:	55                   	push   %rbp
  4079cb:	48 89 e5             	mov    %rsp,%rbp
  4079ce:	48 89 7d f8          	mov    %rdi,-0x8(%rbp)
  4079d2:	b8 00 00 00 00       	mov    $0x0,%eax
  4079d7:	5d                   	pop    %rbp
  4079d8:	c3                   	retq   

00000000004079d9 <_ZN6google12Check_EQImplImmEEPNSt7__cxx1112basic_stringIcSt11char_traitsIcESaIcEEERKT_RKT0_PKc>:
  4079d9:	55                   	push   %rbp
  4079da:	48 89 e5             	mov    %rsp,%rbp
  4079dd:	48 83 ec 20          	sub    $0x20,%rsp
  4079e1:	48 89 7d f8          	mov    %rdi,-0x8(%rbp)
  4079e5:	48 89 75 f0          	mov    %rsi,-0x10(%rbp)
  4079e9:	48 89 55 e8          	mov    %rdx,-0x18(%rbp)
  4079ed:	48 8b 45 f8          	mov    -0x8(%rbp),%rax
  4079f1:	48 8b 10             	mov    (%rax),%rdx
  4079f4:	48 8b 45 f0          	mov    -0x10(%rbp),%rax
  4079f8:	48 8b 00             	mov    (%rax),%rax
  4079fb:	48 39 c2             	cmp    %rax,%rdx
  4079fe:	0f 94 c0             	sete   %al
  407a01:	0f b6 c0             	movzbl %al,%eax
  407a04:	48 85 c0             	test   %rax,%rax
  407a07:	74 07                	je     407a10 <_ZN6google12Check_EQImplImmEEPNSt7__cxx1112basic_stringIcSt11char_traitsIcESaIcEEERKT_RKT0_PKc+0x37>
  407a09:	b8 00 00 00 00       	mov    $0x0,%eax
  407a0e:	eb 17                	jmp    407a27 <_ZN6google12Check_EQImplImmEEPNSt7__cxx1112basic_stringIcSt11char_traitsIcESaIcEEERKT_RKT0_PKc+0x4e>
  407a10:	48 8b 55 e8          	mov    -0x18(%rbp),%rdx
  407a14:	48 8b 4d f0          	mov    -0x10(%rbp),%rcx
  407a18:	48 8b 45 f8          	mov    -0x8(%rbp),%rax
  407a1c:	48 89 ce             	mov    %rcx,%rsi
  407a1f:	48 89 c7             	mov    %rax,%rdi
  407a22:	e8 50 0b 00 00       	callq  408577 <_ZN6google17MakeCheckOpStringImmEEPNSt7__cxx1112basic_stringIcSt11char_traitsIcESaIcEEERKT_RKT0_PKc>
  407a27:	c9                   	leaveq 
  407a28:	c3                   	retq   

0000000000407a29 <_ZN6google12Check_EQImplImiEEPNSt7__cxx1112basic_stringIcSt11char_traitsIcESaIcEEERKT_RKT0_PKc>:
  407a29:	55                   	push   %rbp
  407a2a:	48 89 e5             	mov    %rsp,%rbp
  407a2d:	48 83 ec 20          	sub    $0x20,%rsp
  407a31:	48 89 7d f8          	mov    %rdi,-0x8(%rbp)
  407a35:	48 89 75 f0          	mov    %rsi,-0x10(%rbp)
  407a39:	48 89 55 e8          	mov    %rdx,-0x18(%rbp)
  407a3d:	48 8b 45 f8          	mov    -0x8(%rbp),%rax
  407a41:	48 8b 10             	mov    (%rax),%rdx
  407a44:	48 8b 45 f0          	mov    -0x10(%rbp),%rax
  407a48:	8b 00                	mov    (%rax),%eax
  407a4a:	48 98                	cltq   
  407a4c:	48 39 c2             	cmp    %rax,%rdx
  407a4f:	0f 94 c0             	sete   %al
  407a52:	0f b6 c0             	movzbl %al,%eax
  407a55:	48 85 c0             	test   %rax,%rax
  407a58:	74 07                	je     407a61 <_ZN6google12Check_EQImplImiEEPNSt7__cxx1112basic_stringIcSt11char_traitsIcESaIcEEERKT_RKT0_PKc+0x38>
  407a5a:	b8 00 00 00 00       	mov    $0x0,%eax
  407a5f:	eb 17                	jmp    407a78 <_ZN6google12Check_EQImplImiEEPNSt7__cxx1112basic_stringIcSt11char_traitsIcESaIcEEERKT_RKT0_PKc+0x4f>
  407a61:	48 8b 55 e8          	mov    -0x18(%rbp),%rdx
  407a65:	48 8b 4d f0          	mov    -0x10(%rbp),%rcx
  407a69:	48 8b 45 f8          	mov    -0x8(%rbp),%rax
  407a6d:	48 89 ce             	mov    %rcx,%rsi
  407a70:	48 89 c7             	mov    %rax,%rdi
  407a73:	e8 c7 0b 00 00       	callq  40863f <_ZN6google17MakeCheckOpStringImiEEPNSt7__cxx1112basic_stringIcSt11char_traitsIcESaIcEEERKT_RKT0_PKc>
  407a78:	c9                   	leaveq 
  407a79:	c3                   	retq   

0000000000407a7a <_ZN5caffe5LayerIfE8set_lossEif>:
  407a7a:	55                   	push   %rbp
  407a7b:	48 89 e5             	mov    %rsp,%rbp
  407a7e:	48 83 ec 20          	sub    $0x20,%rsp
  407a82:	48 89 7d e8          	mov    %rdi,-0x18(%rbp)
  407a86:	89 75 e4             	mov    %esi,-0x1c(%rbp)
  407a89:	f3 0f 11 45 e0       	movss  %xmm0,-0x20(%rbp)
  407a8e:	64 48 8b 04 25 28 00 	mov    %fs:0x28,%rax
  407a95:	00 00 
  407a97:	48 89 45 f8          	mov    %rax,-0x8(%rbp)
  407a9b:	31 c0                	xor    %eax,%eax
  407a9d:	48 8b 45 e8          	mov    -0x18(%rbp),%rax
  407aa1:	48 05 a8 02 00 00    	add    $0x2a8,%rax
  407aa7:	48 89 c7             	mov    %rax,%rdi
  407aaa:	e8 a9 01 00 00       	callq  407c58 <_ZNKSt6vectorIfSaIfEE4sizeEv>
  407aaf:	48 89 c2             	mov    %rax,%rdx
  407ab2:	8b 45 e4             	mov    -0x1c(%rbp),%eax
  407ab5:	48 98                	cltq   
  407ab7:	48 39 c2             	cmp    %rax,%rdx
  407aba:	0f 96 c0             	setbe  %al
  407abd:	84 c0                	test   %al,%al
  407abf:	74 2b                	je     407aec <_ZN5caffe5LayerIfE8set_lossEif+0x72>
  407ac1:	66 0f ef c0          	pxor   %xmm0,%xmm0
  407ac5:	f3 0f 11 45 f4       	movss  %xmm0,-0xc(%rbp)
  407aca:	8b 45 e4             	mov    -0x1c(%rbp),%eax
  407acd:	83 c0 01             	add    $0x1,%eax
  407ad0:	48 98                	cltq   
  407ad2:	48 8b 55 e8          	mov    -0x18(%rbp),%rdx
  407ad6:	48 8d 8a a8 02 00 00 	lea    0x2a8(%rdx),%rcx
  407add:	48 8d 55 f4          	lea    -0xc(%rbp),%rdx
  407ae1:	48 89 c6             	mov    %rax,%rsi
  407ae4:	48 89 cf             	mov    %rcx,%rdi
  407ae7:	e8 1c 0c 00 00       	callq  408708 <_ZNSt6vectorIfSaIfEE6resizeEmRKf>
  407aec:	8b 45 e4             	mov    -0x1c(%rbp),%eax
  407aef:	48 98                	cltq   
  407af1:	48 8b 55 e8          	mov    -0x18(%rbp),%rdx
  407af5:	48 81 c2 a8 02 00 00 	add    $0x2a8,%rdx
  407afc:	48 89 c6             	mov    %rax,%rsi
  407aff:	48 89 d7             	mov    %rdx,%rdi
  407b02:	e8 e9 0c 00 00       	callq  4087f0 <_ZNSt6vectorIfSaIfEEixEm>
  407b07:	f3 0f 10 45 e0       	movss  -0x20(%rbp),%xmm0
  407b0c:	f3 0f 11 00          	movss  %xmm0,(%rax)
  407b10:	90                   	nop
  407b11:	48 8b 45 f8          	mov    -0x8(%rbp),%rax
  407b15:	64 48 33 04 25 28 00 	xor    %fs:0x28,%rax
  407b1c:	00 00 
  407b1e:	74 05                	je     407b25 <_ZN5caffe5LayerIfE8set_lossEif+0xab>
  407b20:	e8 8b c3 ff ff       	callq  403eb0 <__stack_chk_fail@plt>
  407b25:	c9                   	leaveq 
  407b26:	c3                   	retq   

0000000000407b27 <_ZN2CK14print_raw_dataIfEEvPT_RKNS_5ShapeE>:
  407b27:	55                   	push   %rbp
  407b28:	48 89 e5             	mov    %rsp,%rbp
  407b2b:	48 83 ec 30          	sub    $0x30,%rsp
  407b2f:	48 89 7d d8          	mov    %rdi,-0x28(%rbp)
  407b33:	48 89 75 d0          	mov    %rsi,-0x30(%rbp)
  407b37:	bf 80 b3 40 00       	mov    $0x40b380,%edi
  407b3c:	e8 2f c6 ff ff       	callq  404170 <puts@plt>
  407b41:	48 8b 45 d0          	mov    -0x30(%rbp),%rax
  407b45:	8b 70 0c             	mov    0xc(%rax),%esi
  407b48:	48 8b 45 d0          	mov    -0x30(%rbp),%rax
  407b4c:	8b 48 08             	mov    0x8(%rax),%ecx
  407b4f:	48 8b 45 d0          	mov    -0x30(%rbp),%rax
  407b53:	8b 50 04             	mov    0x4(%rax),%edx
  407b56:	48 8b 45 d0          	mov    -0x30(%rbp),%rax
  407b5a:	8b 00                	mov    (%rax),%eax
  407b5c:	41 89 f0             	mov    %esi,%r8d
  407b5f:	89 c6                	mov    %eax,%esi
  407b61:	bf a4 b3 40 00       	mov    $0x40b3a4,%edi
  407b66:	b8 00 00 00 00       	mov    $0x0,%eax
  407b6b:	e8 90 c2 ff ff       	callq  403e00 <printf@plt>
  407b70:	c7 45 ec 00 00 00 00 	movl   $0x0,-0x14(%rbp)
  407b77:	48 8b 45 d0          	mov    -0x30(%rbp),%rax
  407b7b:	8b 00                	mov    (%rax),%eax
  407b7d:	3b 45 ec             	cmp    -0x14(%rbp),%eax
  407b80:	0f 8e c5 00 00 00    	jle    407c4b <_ZN2CK14print_raw_dataIfEEvPT_RKNS_5ShapeE+0x124>
  407b86:	c7 45 f0 00 00 00 00 	movl   $0x0,-0x10(%rbp)
  407b8d:	48 8b 45 d0          	mov    -0x30(%rbp),%rax
  407b91:	8b 40 04             	mov    0x4(%rax),%eax
  407b94:	3b 45 f0             	cmp    -0x10(%rbp),%eax
  407b97:	0f 8e a5 00 00 00    	jle    407c42 <_ZN2CK14print_raw_dataIfEEvPT_RKNS_5ShapeE+0x11b>
  407b9d:	8b 55 f0             	mov    -0x10(%rbp),%edx
  407ba0:	8b 45 ec             	mov    -0x14(%rbp),%eax
  407ba3:	89 c6                	mov    %eax,%esi
  407ba5:	bf c2 b3 40 00       	mov    $0x40b3c2,%edi
  407baa:	b8 00 00 00 00       	mov    $0x0,%eax
  407baf:	e8 4c c2 ff ff       	callq  403e00 <printf@plt>
  407bb4:	c7 45 f4 00 00 00 00 	movl   $0x0,-0xc(%rbp)
  407bbb:	48 8b 45 d0          	mov    -0x30(%rbp),%rax
  407bbf:	8b 40 08             	mov    0x8(%rax),%eax
  407bc2:	3b 45 f4             	cmp    -0xc(%rbp),%eax
  407bc5:	7e 72                	jle    407c39 <_ZN2CK14print_raw_dataIfEEvPT_RKNS_5ShapeE+0x112>
  407bc7:	c7 45 f8 00 00 00 00 	movl   $0x0,-0x8(%rbp)
  407bce:	48 8b 45 d0          	mov    -0x30(%rbp),%rax
  407bd2:	8b 40 0c             	mov    0xc(%rax),%eax
  407bd5:	3b 45 f8             	cmp    -0x8(%rbp),%eax
  407bd8:	7e 4f                	jle    407c29 <_ZN2CK14print_raw_dataIfEEvPT_RKNS_5ShapeE+0x102>
  407bda:	8b 7d f8             	mov    -0x8(%rbp),%edi
  407bdd:	8b 4d f4             	mov    -0xc(%rbp),%ecx
  407be0:	8b 55 f0             	mov    -0x10(%rbp),%edx
  407be3:	8b 75 ec             	mov    -0x14(%rbp),%esi
  407be6:	48 8b 45 d0          	mov    -0x30(%rbp),%rax
  407bea:	41 89 f8             	mov    %edi,%r8d
  407bed:	48 89 c7             	mov    %rax,%rdi
  407bf0:	e8 8b cd ff ff       	callq  404980 <_ZNK2CK5Shape14get_flat_indexEiiii>
  407bf5:	89 45 fc             	mov    %eax,-0x4(%rbp)
  407bf8:	8b 45 fc             	mov    -0x4(%rbp),%eax
  407bfb:	48 98                	cltq   
  407bfd:	48 8d 14 85 00 00 00 	lea    0x0(,%rax,4),%rdx
  407c04:	00 
  407c05:	48 8b 45 d8          	mov    -0x28(%rbp),%rax
  407c09:	48 01 d0             	add    %rdx,%rax
  407c0c:	f3 0f 10 00          	movss  (%rax),%xmm0
  407c10:	f3 0f 5a c0          	cvtss2sd %xmm0,%xmm0
  407c14:	bf cf b3 40 00       	mov    $0x40b3cf,%edi
  407c19:	b8 01 00 00 00       	mov    $0x1,%eax
  407c1e:	e8 dd c1 ff ff       	callq  403e00 <printf@plt>
  407c23:	83 45 f8 01          	addl   $0x1,-0x8(%rbp)
  407c27:	eb a5                	jmp    407bce <_ZN2CK14print_raw_dataIfEEvPT_RKNS_5ShapeE+0xa7>
  407c29:	bf 0a 00 00 00       	mov    $0xa,%edi
  407c2e:	e8 9d c5 ff ff       	callq  4041d0 <putchar@plt>
  407c33:	83 45 f4 01          	addl   $0x1,-0xc(%rbp)
  407c37:	eb 82                	jmp    407bbb <_ZN2CK14print_raw_dataIfEEvPT_RKNS_5ShapeE+0x94>
  407c39:	83 45 f0 01          	addl   $0x1,-0x10(%rbp)
  407c3d:	e9 4b ff ff ff       	jmpq   407b8d <_ZN2CK14print_raw_dataIfEEvPT_RKNS_5ShapeE+0x66>
  407c42:	83 45 ec 01          	addl   $0x1,-0x14(%rbp)
  407c46:	e9 2c ff ff ff       	jmpq   407b77 <_ZN2CK14print_raw_dataIfEEvPT_RKNS_5ShapeE+0x50>
  407c4b:	bf 80 b3 40 00       	mov    $0x40b380,%edi
  407c50:	e8 1b c5 ff ff       	callq  404170 <puts@plt>
  407c55:	90                   	nop
  407c56:	c9                   	leaveq 
  407c57:	c3                   	retq   

0000000000407c58 <_ZNKSt6vectorIfSaIfEE4sizeEv>:
  407c58:	55                   	push   %rbp
  407c59:	48 89 e5             	mov    %rsp,%rbp
  407c5c:	48 89 7d f8          	mov    %rdi,-0x8(%rbp)
  407c60:	48 8b 45 f8          	mov    -0x8(%rbp),%rax
  407c64:	48 8b 40 08          	mov    0x8(%rax),%rax
  407c68:	48 89 c2             	mov    %rax,%rdx
  407c6b:	48 8b 45 f8          	mov    -0x8(%rbp),%rax
  407c6f:	48 8b 00             	mov    (%rax),%rax
  407c72:	48 29 c2             	sub    %rax,%rdx
  407c75:	48 89 d0             	mov    %rdx,%rax
  407c78:	48 c1 f8 02          	sar    $0x2,%rax
  407c7c:	5d                   	pop    %rbp
  407c7d:	c3                   	retq   

0000000000407c7e <_ZNKSt6vectorIfSaIfEEixEm>:
  407c7e:	55                   	push   %rbp
  407c7f:	48 89 e5             	mov    %rsp,%rbp
  407c82:	48 89 7d f8          	mov    %rdi,-0x8(%rbp)
  407c86:	48 89 75 f0          	mov    %rsi,-0x10(%rbp)
  407c8a:	48 8b 45 f8          	mov    -0x8(%rbp),%rax
  407c8e:	48 8b 00             	mov    (%rax),%rax
  407c91:	48 8b 55 f0          	mov    -0x10(%rbp),%rdx
  407c95:	48 c1 e2 02          	shl    $0x2,%rdx
  407c99:	48 01 d0             	add    %rdx,%rax
  407c9c:	5d                   	pop    %rbp
  407c9d:	c3                   	retq   

0000000000407c9e <_ZNSaIiED1Ev>:
  407c9e:	55                   	push   %rbp
  407c9f:	48 89 e5             	mov    %rsp,%rbp
  407ca2:	48 83 ec 10          	sub    $0x10,%rsp
  407ca6:	48 89 7d f8          	mov    %rdi,-0x8(%rbp)
  407caa:	48 8b 45 f8          	mov    -0x8(%rbp),%rax
  407cae:	48 89 c7             	mov    %rax,%rdi
  407cb1:	e8 5a 0b 00 00       	callq  408810 <_ZN9__gnu_cxx13new_allocatorIiED1Ev>
  407cb6:	90                   	nop
  407cb7:	c9                   	leaveq 
  407cb8:	c3                   	retq   
  407cb9:	90                   	nop

0000000000407cba <_ZNSt12_Vector_baseIiSaIiEE13_M_deallocateEPim>:
  407cba:	55                   	push   %rbp
  407cbb:	48 89 e5             	mov    %rsp,%rbp
  407cbe:	48 83 ec 20          	sub    $0x20,%rsp
  407cc2:	48 89 7d f8          	mov    %rdi,-0x8(%rbp)
  407cc6:	48 89 75 f0          	mov    %rsi,-0x10(%rbp)
  407cca:	48 89 55 e8          	mov    %rdx,-0x18(%rbp)
  407cce:	48 83 7d f0 00       	cmpq   $0x0,-0x10(%rbp)
  407cd3:	74 17                	je     407cec <_ZNSt12_Vector_baseIiSaIiEE13_M_deallocateEPim+0x32>
  407cd5:	48 8b 45 f8          	mov    -0x8(%rbp),%rax
  407cd9:	48 8b 55 e8          	mov    -0x18(%rbp),%rdx
  407cdd:	48 8b 4d f0          	mov    -0x10(%rbp),%rcx
  407ce1:	48 89 ce             	mov    %rcx,%rsi
  407ce4:	48 89 c7             	mov    %rax,%rdi
  407ce7:	e8 2f 0b 00 00       	callq  40881b <_ZNSt16allocator_traitsISaIiEE10deallocateERS0_Pim>
  407cec:	90                   	nop
  407ced:	c9                   	leaveq 
  407cee:	c3                   	retq   

0000000000407cef <_ZSt8_DestroyIPiEvT_S1_>:
  407cef:	55                   	push   %rbp
  407cf0:	48 89 e5             	mov    %rsp,%rbp
  407cf3:	48 83 ec 10          	sub    $0x10,%rsp
  407cf7:	48 89 7d f8          	mov    %rdi,-0x8(%rbp)
  407cfb:	48 89 75 f0          	mov    %rsi,-0x10(%rbp)
  407cff:	48 8b 55 f0          	mov    -0x10(%rbp),%rdx
  407d03:	48 8b 45 f8          	mov    -0x8(%rbp),%rax
  407d07:	48 89 d6             	mov    %rdx,%rsi
  407d0a:	48 89 c7             	mov    %rax,%rdi
  407d0d:	e8 37 0b 00 00       	callq  408849 <_ZNSt12_Destroy_auxILb1EE9__destroyIPiEEvT_S3_>
  407d12:	90                   	nop
  407d13:	c9                   	leaveq 
  407d14:	c3                   	retq   

0000000000407d15 <_ZN6google8protobuf8internal18GenericTypeHandlerIN5caffe9BlobProtoEE3NewEPNS0_5ArenaE>:
  407d15:	55                   	push   %rbp
  407d16:	48 89 e5             	mov    %rsp,%rbp
  407d19:	41 55                	push   %r13
  407d1b:	41 54                	push   %r12
  407d1d:	53                   	push   %rbx
  407d1e:	48 83 ec 48          	sub    $0x48,%rsp
  407d22:	48 89 7d a8          	mov    %rdi,-0x58(%rbp)
  407d26:	48 8b 45 a8          	mov    -0x58(%rbp),%rax
  407d2a:	48 89 45 c0          	mov    %rax,-0x40(%rbp)
  407d2e:	48 8b 45 c0          	mov    -0x40(%rbp),%rax
  407d32:	48 89 45 c8          	mov    %rax,-0x38(%rbp)
  407d36:	48 83 7d c8 00       	cmpq   $0x0,-0x38(%rbp)
  407d3b:	75 1d                	jne    407d5a <_ZN6google8protobuf8internal18GenericTypeHandlerIN5caffe9BlobProtoEE3NewEPNS0_5ArenaE+0x45>
  407d3d:	bf 90 00 00 00       	mov    $0x90,%edi
  407d42:	e8 09 c1 ff ff       	callq  403e50 <_Znwm@plt>
  407d47:	48 89 c3             	mov    %rax,%rbx
  407d4a:	48 89 df             	mov    %rbx,%rdi
  407d4d:	e8 be c2 ff ff       	callq  404010 <_ZN5caffe9BlobProtoC1Ev@plt>
  407d52:	48 89 d8             	mov    %rbx,%rax
  407d55:	e9 a6 00 00 00       	jmpq   407e00 <_ZN6google8protobuf8internal18GenericTypeHandlerIN5caffe9BlobProtoEE3NewEPNS0_5ArenaE+0xeb>
  407d5a:	48 8b 45 c8          	mov    -0x38(%rbp),%rax
  407d5e:	48 89 45 d0          	mov    %rax,-0x30(%rbp)
  407d62:	c6 45 bf 00          	movb   $0x0,-0x41(%rbp)
  407d66:	48 8b 45 d0          	mov    -0x30(%rbp),%rax
  407d6a:	ba 90 00 00 00       	mov    $0x90,%edx
  407d6f:	be 50 03 61 00       	mov    $0x610350,%esi
  407d74:	48 89 c7             	mov    %rax,%rdi
  407d77:	e8 f4 c2 ff ff       	callq  404070 <_ZN6google8protobuf5Arena15AllocateAlignedEPKSt9type_infom@plt>
  407d7c:	49 89 c4             	mov    %rax,%r12
  407d7f:	4c 89 e6             	mov    %r12,%rsi
  407d82:	bf 90 00 00 00       	mov    $0x90,%edi
  407d87:	e8 db c6 ff ff       	callq  404467 <_ZnwmPv>
  407d8c:	48 89 c3             	mov    %rax,%rbx
  407d8f:	48 85 db             	test   %rbx,%rbx
  407d92:	74 0d                	je     407da1 <_ZN6google8protobuf8internal18GenericTypeHandlerIN5caffe9BlobProtoEE3NewEPNS0_5ArenaE+0x8c>
  407d94:	48 89 df             	mov    %rbx,%rdi
  407d97:	e8 74 c2 ff ff       	callq  404010 <_ZN5caffe9BlobProtoC1Ev@plt>
  407d9c:	48 89 d8             	mov    %rbx,%rax
  407d9f:	eb 03                	jmp    407da4 <_ZN6google8protobuf8internal18GenericTypeHandlerIN5caffe9BlobProtoEE3NewEPNS0_5ArenaE+0x8f>
  407da1:	48 89 d8             	mov    %rbx,%rax
  407da4:	48 89 45 d8          	mov    %rax,-0x28(%rbp)
  407da8:	0f b6 45 bf          	movzbl -0x41(%rbp),%eax
  407dac:	83 f0 01             	xor    $0x1,%eax
  407daf:	84 c0                	test   %al,%al
  407db1:	74 18                	je     407dcb <_ZN6google8protobuf8internal18GenericTypeHandlerIN5caffe9BlobProtoEE3NewEPNS0_5ArenaE+0xb6>
  407db3:	48 8b 4d d8          	mov    -0x28(%rbp),%rcx
  407db7:	48 8b 45 d0          	mov    -0x30(%rbp),%rax
  407dbb:	ba bd 9e 40 00       	mov    $0x409ebd,%edx
  407dc0:	48 89 ce             	mov    %rcx,%rsi
  407dc3:	48 89 c7             	mov    %rax,%rdi
  407dc6:	e8 15 c1 ff ff       	callq  403ee0 <_ZN6google8protobuf5Arena11AddListNodeEPvPFvS2_E@plt>
  407dcb:	48 8b 45 d8          	mov    -0x28(%rbp),%rax
  407dcf:	eb 2f                	jmp    407e00 <_ZN6google8protobuf8internal18GenericTypeHandlerIN5caffe9BlobProtoEE3NewEPNS0_5ArenaE+0xeb>
  407dd1:	49 89 c5             	mov    %rax,%r13
  407dd4:	4c 89 e6             	mov    %r12,%rsi
  407dd7:	48 89 df             	mov    %rbx,%rdi
  407dda:	e8 9a c6 ff ff       	callq  404479 <_ZdlPvS_>
  407ddf:	4c 89 e8             	mov    %r13,%rax
  407de2:	48 89 c7             	mov    %rax,%rdi
  407de5:	e8 06 c2 ff ff       	callq  403ff0 <_Unwind_Resume@plt>
  407dea:	49 89 c4             	mov    %rax,%r12
  407ded:	48 89 df             	mov    %rbx,%rdi
  407df0:	e8 6b c1 ff ff       	callq  403f60 <_ZdlPv@plt>
  407df5:	4c 89 e0             	mov    %r12,%rax
  407df8:	48 89 c7             	mov    %rax,%rdi
  407dfb:	e8 f0 c1 ff ff       	callq  403ff0 <_Unwind_Resume@plt>
  407e00:	48 83 c4 48          	add    $0x48,%rsp
  407e04:	5b                   	pop    %rbx
  407e05:	41 5c                	pop    %r12
  407e07:	41 5d                	pop    %r13
  407e09:	5d                   	pop    %rbp
  407e0a:	c3                   	retq   
  407e0b:	90                   	nop

0000000000407e0c <_ZNSaIPN5caffe4BlobIfEEEC1Ev>:
  407e0c:	55                   	push   %rbp
  407e0d:	48 89 e5             	mov    %rsp,%rbp
  407e10:	48 83 ec 10          	sub    $0x10,%rsp
  407e14:	48 89 7d f8          	mov    %rdi,-0x8(%rbp)
  407e18:	48 8b 45 f8          	mov    -0x8(%rbp),%rax
  407e1c:	48 89 c7             	mov    %rax,%rdi
  407e1f:	e8 34 0a 00 00       	callq  408858 <_ZN9__gnu_cxx13new_allocatorIPN5caffe4BlobIfEEEC1Ev>
  407e24:	90                   	nop
  407e25:	c9                   	leaveq 
  407e26:	c3                   	retq   
  407e27:	90                   	nop

0000000000407e28 <_ZN9__gnu_cxx13new_allocatorIPN5caffe4BlobIfEEED1Ev>:
  407e28:	55                   	push   %rbp
  407e29:	48 89 e5             	mov    %rsp,%rbp
  407e2c:	48 89 7d f8          	mov    %rdi,-0x8(%rbp)
  407e30:	90                   	nop
  407e31:	5d                   	pop    %rbp
  407e32:	c3                   	retq   

0000000000407e33 <_ZNSt16allocator_traitsISaIPN5caffe4BlobIfEEEE10deallocateERS4_PS3_m>:
  407e33:	55                   	push   %rbp
  407e34:	48 89 e5             	mov    %rsp,%rbp
  407e37:	48 83 ec 20          	sub    $0x20,%rsp
  407e3b:	48 89 7d f8          	mov    %rdi,-0x8(%rbp)
  407e3f:	48 89 75 f0          	mov    %rsi,-0x10(%rbp)
  407e43:	48 89 55 e8          	mov    %rdx,-0x18(%rbp)
  407e47:	48 8b 55 e8          	mov    -0x18(%rbp),%rdx
  407e4b:	48 8b 4d f0          	mov    -0x10(%rbp),%rcx
  407e4f:	48 8b 45 f8          	mov    -0x8(%rbp),%rax
  407e53:	48 89 ce             	mov    %rcx,%rsi
  407e56:	48 89 c7             	mov    %rax,%rdi
  407e59:	e8 06 0a 00 00       	callq  408864 <_ZN9__gnu_cxx13new_allocatorIPN5caffe4BlobIfEEE10deallocateEPS4_m>
  407e5e:	90                   	nop
  407e5f:	c9                   	leaveq 
  407e60:	c3                   	retq   

0000000000407e61 <_ZNSt12_Destroy_auxILb1EE9__destroyIPPN5caffe4BlobIfEEEEvT_S7_>:
  407e61:	55                   	push   %rbp
  407e62:	48 89 e5             	mov    %rsp,%rbp
  407e65:	48 89 7d f8          	mov    %rdi,-0x8(%rbp)
  407e69:	48 89 75 f0          	mov    %rsi,-0x10(%rbp)
  407e6d:	90                   	nop
  407e6e:	5d                   	pop    %rbp
  407e6f:	c3                   	retq   

0000000000407e70 <_ZNKSt6vectorIPN5caffe4BlobIfEESaIS3_EE8max_sizeEv>:
  407e70:	55                   	push   %rbp
  407e71:	48 89 e5             	mov    %rsp,%rbp
  407e74:	48 83 ec 10          	sub    $0x10,%rsp
  407e78:	48 89 7d f8          	mov    %rdi,-0x8(%rbp)
  407e7c:	48 8b 45 f8          	mov    -0x8(%rbp),%rax
  407e80:	48 89 c7             	mov    %rax,%rdi
  407e83:	e8 1a 0a 00 00       	callq  4088a2 <_ZNKSt12_Vector_baseIPN5caffe4BlobIfEESaIS3_EE19_M_get_Tp_allocatorEv>
  407e88:	48 89 c7             	mov    %rax,%rdi
  407e8b:	e8 f7 09 00 00       	callq  408887 <_ZNSt16allocator_traitsISaIPN5caffe4BlobIfEEEE8max_sizeERKS4_>
  407e90:	c9                   	leaveq 
  407e91:	c3                   	retq   

0000000000407e92 <_ZSt3maxImERKT_S2_S2_>:
  407e92:	55                   	push   %rbp
  407e93:	48 89 e5             	mov    %rsp,%rbp
  407e96:	48 89 7d f8          	mov    %rdi,-0x8(%rbp)
  407e9a:	48 89 75 f0          	mov    %rsi,-0x10(%rbp)
  407e9e:	48 8b 45 f8          	mov    -0x8(%rbp),%rax
  407ea2:	48 8b 10             	mov    (%rax),%rdx
  407ea5:	48 8b 45 f0          	mov    -0x10(%rbp),%rax
  407ea9:	48 8b 00             	mov    (%rax),%rax
  407eac:	48 39 c2             	cmp    %rax,%rdx
  407eaf:	73 06                	jae    407eb7 <_ZSt3maxImERKT_S2_S2_+0x25>
  407eb1:	48 8b 45 f0          	mov    -0x10(%rbp),%rax
  407eb5:	eb 04                	jmp    407ebb <_ZSt3maxImERKT_S2_S2_+0x29>
  407eb7:	48 8b 45 f8          	mov    -0x8(%rbp),%rax
  407ebb:	5d                   	pop    %rbp
  407ebc:	c3                   	retq   

0000000000407ebd <_ZNSt16allocator_traitsISaIPN5caffe4BlobIfEEEE8allocateERS4_m>:
  407ebd:	55                   	push   %rbp
  407ebe:	48 89 e5             	mov    %rsp,%rbp
  407ec1:	48 83 ec 10          	sub    $0x10,%rsp
  407ec5:	48 89 7d f8          	mov    %rdi,-0x8(%rbp)
  407ec9:	48 89 75 f0          	mov    %rsi,-0x10(%rbp)
  407ecd:	48 8b 4d f0          	mov    -0x10(%rbp),%rcx
  407ed1:	48 8b 45 f8          	mov    -0x8(%rbp),%rax
  407ed5:	ba 00 00 00 00       	mov    $0x0,%edx
  407eda:	48 89 ce             	mov    %rcx,%rsi
  407edd:	48 89 c7             	mov    %rax,%rdi
  407ee0:	e8 cb 09 00 00       	callq  4088b0 <_ZN9__gnu_cxx13new_allocatorIPN5caffe4BlobIfEEE8allocateEmPKv>
  407ee5:	c9                   	leaveq 
  407ee6:	c3                   	retq   

0000000000407ee7 <_ZSt32__make_move_if_noexcept_iteratorIPN5caffe4BlobIfEESt13move_iteratorIPS3_EET0_PT_>:
  407ee7:	55                   	push   %rbp
  407ee8:	48 89 e5             	mov    %rsp,%rbp
  407eeb:	48 83 ec 20          	sub    $0x20,%rsp
  407eef:	48 89 7d e8          	mov    %rdi,-0x18(%rbp)
  407ef3:	64 48 8b 04 25 28 00 	mov    %fs:0x28,%rax
  407efa:	00 00 
  407efc:	48 89 45 f8          	mov    %rax,-0x8(%rbp)
  407f00:	31 c0                	xor    %eax,%eax
  407f02:	48 8b 55 e8          	mov    -0x18(%rbp),%rdx
  407f06:	48 8d 45 f0          	lea    -0x10(%rbp),%rax
  407f0a:	48 89 d6             	mov    %rdx,%rsi
  407f0d:	48 89 c7             	mov    %rax,%rdi
  407f10:	e8 dd 09 00 00       	callq  4088f2 <_ZNSt13move_iteratorIPPN5caffe4BlobIfEEEC1ES4_>
  407f15:	48 8b 45 f0          	mov    -0x10(%rbp),%rax
  407f19:	48 8b 4d f8          	mov    -0x8(%rbp),%rcx
  407f1d:	64 48 33 0c 25 28 00 	xor    %fs:0x28,%rcx
  407f24:	00 00 
  407f26:	74 05                	je     407f2d <_ZSt32__make_move_if_noexcept_iteratorIPN5caffe4BlobIfEESt13move_iteratorIPS3_EET0_PT_+0x46>
  407f28:	e8 83 bf ff ff       	callq  403eb0 <__stack_chk_fail@plt>
  407f2d:	c9                   	leaveq 
  407f2e:	c3                   	retq   

0000000000407f2f <_ZSt22__uninitialized_copy_aISt13move_iteratorIPPN5caffe4BlobIfEEES5_S4_ET0_T_S8_S7_RSaIT1_E>:
  407f2f:	55                   	push   %rbp
  407f30:	48 89 e5             	mov    %rsp,%rbp
  407f33:	48 83 ec 20          	sub    $0x20,%rsp
  407f37:	48 89 7d f8          	mov    %rdi,-0x8(%rbp)
  407f3b:	48 89 75 f0          	mov    %rsi,-0x10(%rbp)
  407f3f:	48 89 55 e8          	mov    %rdx,-0x18(%rbp)
  407f43:	48 89 4d e0          	mov    %rcx,-0x20(%rbp)
  407f47:	48 8b 55 e8          	mov    -0x18(%rbp),%rdx
  407f4b:	48 8b 4d f0          	mov    -0x10(%rbp),%rcx
  407f4f:	48 8b 45 f8          	mov    -0x8(%rbp),%rax
  407f53:	48 89 ce             	mov    %rcx,%rsi
  407f56:	48 89 c7             	mov    %rax,%rdi
  407f59:	e8 ae 09 00 00       	callq  40890c <_ZSt18uninitialized_copyISt13move_iteratorIPPN5caffe4BlobIfEEES5_ET0_T_S8_S7_>
  407f5e:	c9                   	leaveq 
  407f5f:	c3                   	retq   

0000000000407f60 <_ZN9__gnu_cxx13new_allocatorIPN5caffe4BlobIfEEE7destroyIS4_EEvPT_>:
  407f60:	55                   	push   %rbp
  407f61:	48 89 e5             	mov    %rsp,%rbp
  407f64:	48 89 7d f8          	mov    %rdi,-0x8(%rbp)
  407f68:	48 89 75 f0          	mov    %rsi,-0x10(%rbp)
  407f6c:	90                   	nop
  407f6d:	5d                   	pop    %rbp
  407f6e:	c3                   	retq   
  407f6f:	90                   	nop

0000000000407f70 <_ZNSt12_Vector_baseIiSaIiEE12_Vector_implC1Ev>:
  407f70:	55                   	push   %rbp
  407f71:	48 89 e5             	mov    %rsp,%rbp
  407f74:	48 83 ec 10          	sub    $0x10,%rsp
  407f78:	48 89 7d f8          	mov    %rdi,-0x8(%rbp)
  407f7c:	48 8b 45 f8          	mov    -0x8(%rbp),%rax
  407f80:	48 89 c7             	mov    %rax,%rdi
  407f83:	e8 b6 09 00 00       	callq  40893e <_ZNSaIiEC1Ev>
  407f88:	48 8b 45 f8          	mov    -0x8(%rbp),%rax
  407f8c:	48 c7 00 00 00 00 00 	movq   $0x0,(%rax)
  407f93:	48 8b 45 f8          	mov    -0x8(%rbp),%rax
  407f97:	48 c7 40 08 00 00 00 	movq   $0x0,0x8(%rax)
  407f9e:	00 
  407f9f:	48 8b 45 f8          	mov    -0x8(%rbp),%rax
  407fa3:	48 c7 40 10 00 00 00 	movq   $0x0,0x10(%rax)
  407faa:	00 
  407fab:	90                   	nop
  407fac:	c9                   	leaveq 
  407fad:	c3                   	retq   

0000000000407fae <_ZNSt12_Vector_baseIN5boost10shared_ptrIN5caffe4BlobIfEEEESaIS5_EE12_Vector_implD1Ev>:
  407fae:	55                   	push   %rbp
  407faf:	48 89 e5             	mov    %rsp,%rbp
  407fb2:	48 83 ec 10          	sub    $0x10,%rsp
  407fb6:	48 89 7d f8          	mov    %rdi,-0x8(%rbp)
  407fba:	48 8b 45 f8          	mov    -0x8(%rbp),%rax
  407fbe:	48 89 c7             	mov    %rax,%rdi
  407fc1:	e8 d2 09 00 00       	callq  408998 <_ZNSaIN5boost10shared_ptrIN5caffe4BlobIfEEEEED1Ev>
  407fc6:	90                   	nop
  407fc7:	c9                   	leaveq 
  407fc8:	c3                   	retq   
  407fc9:	90                   	nop

0000000000407fca <_ZNSt12_Vector_baseIN5boost10shared_ptrIN5caffe4BlobIfEEEESaIS5_EEC1Ev>:
  407fca:	55                   	push   %rbp
  407fcb:	48 89 e5             	mov    %rsp,%rbp
  407fce:	48 83 ec 10          	sub    $0x10,%rsp
  407fd2:	48 89 7d f8          	mov    %rdi,-0x8(%rbp)
  407fd6:	48 8b 45 f8          	mov    -0x8(%rbp),%rax
  407fda:	48 89 c7             	mov    %rax,%rdi
  407fdd:	e8 78 09 00 00       	callq  40895a <_ZNSt12_Vector_baseIN5boost10shared_ptrIN5caffe4BlobIfEEEESaIS5_EE12_Vector_implC1Ev>
  407fe2:	90                   	nop
  407fe3:	c9                   	leaveq 
  407fe4:	c3                   	retq   
  407fe5:	90                   	nop

0000000000407fe6 <_ZNSt12_Vector_baseIN5boost10shared_ptrIN5caffe4BlobIfEEEESaIS5_EED1Ev>:
  407fe6:	55                   	push   %rbp
  407fe7:	48 89 e5             	mov    %rsp,%rbp
  407fea:	48 83 ec 10          	sub    $0x10,%rsp
  407fee:	48 89 7d f8          	mov    %rdi,-0x8(%rbp)
  407ff2:	48 8b 45 f8          	mov    -0x8(%rbp),%rax
  407ff6:	48 8b 40 10          	mov    0x10(%rax),%rax
  407ffa:	48 89 c2             	mov    %rax,%rdx
  407ffd:	48 8b 45 f8          	mov    -0x8(%rbp),%rax
  408001:	48 8b 00             	mov    (%rax),%rax
  408004:	48 29 c2             	sub    %rax,%rdx
  408007:	48 89 d0             	mov    %rdx,%rax
  40800a:	48 c1 f8 04          	sar    $0x4,%rax
  40800e:	48 89 c2             	mov    %rax,%rdx
  408011:	48 8b 45 f8          	mov    -0x8(%rbp),%rax
  408015:	48 8b 08             	mov    (%rax),%rcx
  408018:	48 8b 45 f8          	mov    -0x8(%rbp),%rax
  40801c:	48 89 ce             	mov    %rcx,%rsi
  40801f:	48 89 c7             	mov    %rax,%rdi
  408022:	e8 8d 09 00 00       	callq  4089b4 <_ZNSt12_Vector_baseIN5boost10shared_ptrIN5caffe4BlobIfEEEESaIS5_EE13_M_deallocateEPS5_m>
  408027:	48 8b 45 f8          	mov    -0x8(%rbp),%rax
  40802b:	48 89 c7             	mov    %rax,%rdi
  40802e:	e8 7b ff ff ff       	callq  407fae <_ZNSt12_Vector_baseIN5boost10shared_ptrIN5caffe4BlobIfEEEESaIS5_EE12_Vector_implD1Ev>
  408033:	90                   	nop
  408034:	c9                   	leaveq 
  408035:	c3                   	retq   

0000000000408036 <_ZNSt12_Vector_baseIN5boost10shared_ptrIN5caffe4BlobIfEEEESaIS5_EE19_M_get_Tp_allocatorEv>:
  408036:	55                   	push   %rbp
  408037:	48 89 e5             	mov    %rsp,%rbp
  40803a:	48 89 7d f8          	mov    %rdi,-0x8(%rbp)
  40803e:	48 8b 45 f8          	mov    -0x8(%rbp),%rax
  408042:	5d                   	pop    %rbp
  408043:	c3                   	retq   

0000000000408044 <_ZSt8_DestroyIPN5boost10shared_ptrIN5caffe4BlobIfEEEES5_EvT_S7_RSaIT0_E>:
  408044:	55                   	push   %rbp
  408045:	48 89 e5             	mov    %rsp,%rbp
  408048:	48 83 ec 20          	sub    $0x20,%rsp
  40804c:	48 89 7d f8          	mov    %rdi,-0x8(%rbp)
  408050:	48 89 75 f0          	mov    %rsi,-0x10(%rbp)
  408054:	48 89 55 e8          	mov    %rdx,-0x18(%rbp)
  408058:	48 8b 55 f0          	mov    -0x10(%rbp),%rdx
  40805c:	48 8b 45 f8          	mov    -0x8(%rbp),%rax
  408060:	48 89 d6             	mov    %rdx,%rsi
  408063:	48 89 c7             	mov    %rax,%rdi
  408066:	e8 7e 09 00 00       	callq  4089e9 <_ZSt8_DestroyIPN5boost10shared_ptrIN5caffe4BlobIfEEEEEvT_S7_>
  40806b:	90                   	nop
  40806c:	c9                   	leaveq 
  40806d:	c3                   	retq   

000000000040806e <_ZNSt13_Bvector_baseISaIbEE13_Bvector_implD1Ev>:
  40806e:	55                   	push   %rbp
  40806f:	48 89 e5             	mov    %rsp,%rbp
  408072:	48 83 ec 10          	sub    $0x10,%rsp
  408076:	48 89 7d f8          	mov    %rdi,-0x8(%rbp)
  40807a:	48 8b 45 f8          	mov    -0x8(%rbp),%rax
  40807e:	48 89 c7             	mov    %rax,%rdi
  408081:	e8 ce 09 00 00       	callq  408a54 <_ZNSaImED1Ev>
  408086:	90                   	nop
  408087:	c9                   	leaveq 
  408088:	c3                   	retq   
  408089:	90                   	nop

000000000040808a <_ZNSt13_Bvector_baseISaIbEEC1Ev>:
  40808a:	55                   	push   %rbp
  40808b:	48 89 e5             	mov    %rsp,%rbp
  40808e:	48 83 ec 10          	sub    $0x10,%rsp
  408092:	48 89 7d f8          	mov    %rdi,-0x8(%rbp)
  408096:	48 8b 45 f8          	mov    -0x8(%rbp),%rax
  40809a:	48 89 c7             	mov    %rax,%rdi
  40809d:	e8 6e 09 00 00       	callq  408a10 <_ZNSt13_Bvector_baseISaIbEE13_Bvector_implC1Ev>
  4080a2:	90                   	nop
  4080a3:	c9                   	leaveq 
  4080a4:	c3                   	retq   
  4080a5:	90                   	nop

00000000004080a6 <_ZNSt13_Bvector_baseISaIbEED1Ev>:
  4080a6:	55                   	push   %rbp
  4080a7:	48 89 e5             	mov    %rsp,%rbp
  4080aa:	48 83 ec 10          	sub    $0x10,%rsp
  4080ae:	48 89 7d f8          	mov    %rdi,-0x8(%rbp)
  4080b2:	48 8b 45 f8          	mov    -0x8(%rbp),%rax
  4080b6:	48 89 c7             	mov    %rax,%rdi
  4080b9:	e8 b2 09 00 00       	callq  408a70 <_ZNSt13_Bvector_baseISaIbEE13_M_deallocateEv>
  4080be:	48 8b 45 f8          	mov    -0x8(%rbp),%rax
  4080c2:	48 89 c7             	mov    %rax,%rdi
  4080c5:	e8 a4 ff ff ff       	callq  40806e <_ZNSt13_Bvector_baseISaIbEE13_Bvector_implD1Ev>
  4080ca:	90                   	nop
  4080cb:	c9                   	leaveq 
  4080cc:	c3                   	retq   
  4080cd:	90                   	nop

00000000004080ce <_ZNSt12_Vector_baseIfSaIfEE12_Vector_implD1Ev>:
  4080ce:	55                   	push   %rbp
  4080cf:	48 89 e5             	mov    %rsp,%rbp
  4080d2:	48 83 ec 10          	sub    $0x10,%rsp
  4080d6:	48 89 7d f8          	mov    %rdi,-0x8(%rbp)
  4080da:	48 8b 45 f8          	mov    -0x8(%rbp),%rax
  4080de:	48 89 c7             	mov    %rax,%rdi
  4080e1:	e8 32 0a 00 00       	callq  408b18 <_ZNSaIfED1Ev>
  4080e6:	90                   	nop
  4080e7:	c9                   	leaveq 
  4080e8:	c3                   	retq   
  4080e9:	90                   	nop

00000000004080ea <_ZNSt12_Vector_baseIfSaIfEEC1Ev>:
  4080ea:	55                   	push   %rbp
  4080eb:	48 89 e5             	mov    %rsp,%rbp
  4080ee:	48 83 ec 10          	sub    $0x10,%rsp
  4080f2:	48 89 7d f8          	mov    %rdi,-0x8(%rbp)
  4080f6:	48 8b 45 f8          	mov    -0x8(%rbp),%rax
  4080fa:	48 89 c7             	mov    %rax,%rdi
  4080fd:	e8 d8 09 00 00       	callq  408ada <_ZNSt12_Vector_baseIfSaIfEE12_Vector_implC1Ev>
  408102:	90                   	nop
  408103:	c9                   	leaveq 
  408104:	c3                   	retq   
  408105:	90                   	nop

0000000000408106 <_ZNSt12_Vector_baseIfSaIfEED1Ev>:
  408106:	55                   	push   %rbp
  408107:	48 89 e5             	mov    %rsp,%rbp
  40810a:	48 83 ec 10          	sub    $0x10,%rsp
  40810e:	48 89 7d f8          	mov    %rdi,-0x8(%rbp)
  408112:	48 8b 45 f8          	mov    -0x8(%rbp),%rax
  408116:	48 8b 40 10          	mov    0x10(%rax),%rax
  40811a:	48 89 c2             	mov    %rax,%rdx
  40811d:	48 8b 45 f8          	mov    -0x8(%rbp),%rax
  408121:	48 8b 00             	mov    (%rax),%rax
  408124:	48 29 c2             	sub    %rax,%rdx
  408127:	48 89 d0             	mov    %rdx,%rax
  40812a:	48 c1 f8 02          	sar    $0x2,%rax
  40812e:	48 89 c2             	mov    %rax,%rdx
  408131:	48 8b 45 f8          	mov    -0x8(%rbp),%rax
  408135:	48 8b 08             	mov    (%rax),%rcx
  408138:	48 8b 45 f8          	mov    -0x8(%rbp),%rax
  40813c:	48 89 ce             	mov    %rcx,%rsi
  40813f:	48 89 c7             	mov    %rax,%rdi
  408142:	e8 ed 09 00 00       	callq  408b34 <_ZNSt12_Vector_baseIfSaIfEE13_M_deallocateEPfm>
  408147:	48 8b 45 f8          	mov    -0x8(%rbp),%rax
  40814b:	48 89 c7             	mov    %rax,%rdi
  40814e:	e8 7b ff ff ff       	callq  4080ce <_ZNSt12_Vector_baseIfSaIfEE12_Vector_implD1Ev>
  408153:	90                   	nop
  408154:	c9                   	leaveq 
  408155:	c3                   	retq   

0000000000408156 <_ZNSt12_Vector_baseIfSaIfEE19_M_get_Tp_allocatorEv>:
  408156:	55                   	push   %rbp
  408157:	48 89 e5             	mov    %rsp,%rbp
  40815a:	48 89 7d f8          	mov    %rdi,-0x8(%rbp)
  40815e:	48 8b 45 f8          	mov    -0x8(%rbp),%rax
  408162:	5d                   	pop    %rbp
  408163:	c3                   	retq   

0000000000408164 <_ZSt8_DestroyIPffEvT_S1_RSaIT0_E>:
  408164:	55                   	push   %rbp
  408165:	48 89 e5             	mov    %rsp,%rbp
  408168:	48 83 ec 20          	sub    $0x20,%rsp
  40816c:	48 89 7d f8          	mov    %rdi,-0x8(%rbp)
  408170:	48 89 75 f0          	mov    %rsi,-0x10(%rbp)
  408174:	48 89 55 e8          	mov    %rdx,-0x18(%rbp)
  408178:	48 8b 55 f0          	mov    -0x10(%rbp),%rdx
  40817c:	48 8b 45 f8          	mov    -0x8(%rbp),%rax
  408180:	48 89 d6             	mov    %rdx,%rsi
  408183:	48 89 c7             	mov    %rax,%rdi
  408186:	e8 de 09 00 00       	callq  408b69 <_ZSt8_DestroyIPfEvT_S1_>
  40818b:	90                   	nop
  40818c:	c9                   	leaveq 
  40818d:	c3                   	retq   

000000000040818e <_ZNKSt6vectorIN5boost10shared_ptrIN5caffe4BlobIfEEEESaIS5_EE4sizeEv>:
  40818e:	55                   	push   %rbp
  40818f:	48 89 e5             	mov    %rsp,%rbp
  408192:	48 89 7d f8          	mov    %rdi,-0x8(%rbp)
  408196:	48 8b 45 f8          	mov    -0x8(%rbp),%rax
  40819a:	48 8b 40 08          	mov    0x8(%rax),%rax
  40819e:	48 89 c2             	mov    %rax,%rdx
  4081a1:	48 8b 45 f8          	mov    -0x8(%rbp),%rax
  4081a5:	48 8b 00             	mov    (%rax),%rax
  4081a8:	48 29 c2             	sub    %rax,%rdx
  4081ab:	48 89 d0             	mov    %rdx,%rax
  4081ae:	48 c1 f8 04          	sar    $0x4,%rax
  4081b2:	5d                   	pop    %rbp
  4081b3:	c3                   	retq   

00000000004081b4 <_ZNSt6vectorIN5boost10shared_ptrIN5caffe4BlobIfEEEESaIS5_EE17_M_default_appendEm>:
  4081b4:	55                   	push   %rbp
  4081b5:	48 89 e5             	mov    %rsp,%rbp
  4081b8:	53                   	push   %rbx
  4081b9:	48 83 ec 38          	sub    $0x38,%rsp
  4081bd:	48 89 7d c8          	mov    %rdi,-0x38(%rbp)
  4081c1:	48 89 75 c0          	mov    %rsi,-0x40(%rbp)
  4081c5:	48 83 7d c0 00       	cmpq   $0x0,-0x40(%rbp)
  4081ca:	0f 84 e2 01 00 00    	je     4083b2 <_ZNSt6vectorIN5boost10shared_ptrIN5caffe4BlobIfEEEESaIS5_EE17_M_default_appendEm+0x1fe>
  4081d0:	48 8b 45 c8          	mov    -0x38(%rbp),%rax
  4081d4:	48 8b 40 10          	mov    0x10(%rax),%rax
  4081d8:	48 89 c2             	mov    %rax,%rdx
  4081db:	48 8b 45 c8          	mov    -0x38(%rbp),%rax
  4081df:	48 8b 40 08          	mov    0x8(%rax),%rax
  4081e3:	48 29 c2             	sub    %rax,%rdx
  4081e6:	48 89 d0             	mov    %rdx,%rax
  4081e9:	48 c1 f8 04          	sar    $0x4,%rax
  4081ed:	48 3b 45 c0          	cmp    -0x40(%rbp),%rax
  4081f1:	72 36                	jb     408229 <_ZNSt6vectorIN5boost10shared_ptrIN5caffe4BlobIfEEEESaIS5_EE17_M_default_appendEm+0x75>
  4081f3:	48 8b 45 c8          	mov    -0x38(%rbp),%rax
  4081f7:	48 89 c7             	mov    %rax,%rdi
  4081fa:	e8 37 fe ff ff       	callq  408036 <_ZNSt12_Vector_baseIN5boost10shared_ptrIN5caffe4BlobIfEEEESaIS5_EE19_M_get_Tp_allocatorEv>
  4081ff:	48 89 c2             	mov    %rax,%rdx
  408202:	48 8b 45 c8          	mov    -0x38(%rbp),%rax
  408206:	48 8b 40 08          	mov    0x8(%rax),%rax
  40820a:	48 8b 4d c0          	mov    -0x40(%rbp),%rcx
  40820e:	48 89 ce             	mov    %rcx,%rsi
  408211:	48 89 c7             	mov    %rax,%rdi
  408214:	e8 76 09 00 00       	callq  408b8f <_ZSt27__uninitialized_default_n_aIPN5boost10shared_ptrIN5caffe4BlobIfEEEEmS5_ET_S7_T0_RSaIT1_E>
  408219:	48 89 c2             	mov    %rax,%rdx
  40821c:	48 8b 45 c8          	mov    -0x38(%rbp),%rax
  408220:	48 89 50 08          	mov    %rdx,0x8(%rax)
  408224:	e9 89 01 00 00       	jmpq   4083b2 <_ZNSt6vectorIN5boost10shared_ptrIN5caffe4BlobIfEEEESaIS5_EE17_M_default_appendEm+0x1fe>
  408229:	48 8b 4d c0          	mov    -0x40(%rbp),%rcx
  40822d:	48 8b 45 c8          	mov    -0x38(%rbp),%rax
  408231:	ba d5 b3 40 00       	mov    $0x40b3d5,%edx
  408236:	48 89 ce             	mov    %rcx,%rsi
  408239:	48 89 c7             	mov    %rax,%rdi
  40823c:	e8 77 09 00 00       	callq  408bb8 <_ZNKSt6vectorIN5boost10shared_ptrIN5caffe4BlobIfEEEESaIS5_EE12_M_check_lenEmPKc>
  408241:	48 89 45 d8          	mov    %rax,-0x28(%rbp)
  408245:	48 8b 45 c8          	mov    -0x38(%rbp),%rax
  408249:	48 89 c7             	mov    %rax,%rdi
  40824c:	e8 3d ff ff ff       	callq  40818e <_ZNKSt6vectorIN5boost10shared_ptrIN5caffe4BlobIfEEEESaIS5_EE4sizeEv>
  408251:	48 89 45 e0          	mov    %rax,-0x20(%rbp)
  408255:	48 8b 45 c8          	mov    -0x38(%rbp),%rax
  408259:	48 8b 55 d8          	mov    -0x28(%rbp),%rdx
  40825d:	48 89 d6             	mov    %rdx,%rsi
  408260:	48 89 c7             	mov    %rax,%rdi
  408263:	e8 3c 0a 00 00       	callq  408ca4 <_ZNSt12_Vector_baseIN5boost10shared_ptrIN5caffe4BlobIfEEEESaIS5_EE11_M_allocateEm>
  408268:	48 89 45 e8          	mov    %rax,-0x18(%rbp)
  40826c:	48 8b 45 e8          	mov    -0x18(%rbp),%rax
  408270:	48 89 45 d0          	mov    %rax,-0x30(%rbp)
  408274:	48 8b 45 c8          	mov    -0x38(%rbp),%rax
  408278:	48 89 c7             	mov    %rax,%rdi
  40827b:	e8 b6 fd ff ff       	callq  408036 <_ZNSt12_Vector_baseIN5boost10shared_ptrIN5caffe4BlobIfEEEESaIS5_EE19_M_get_Tp_allocatorEv>
  408280:	48 89 c1             	mov    %rax,%rcx
  408283:	48 8b 45 c8          	mov    -0x38(%rbp),%rax
  408287:	48 8b 70 08          	mov    0x8(%rax),%rsi
  40828b:	48 8b 45 c8          	mov    -0x38(%rbp),%rax
  40828f:	48 8b 00             	mov    (%rax),%rax
  408292:	48 8b 55 e8          	mov    -0x18(%rbp),%rdx
  408296:	48 89 c7             	mov    %rax,%rdi
  408299:	e8 39 0a 00 00       	callq  408cd7 <_ZSt34__uninitialized_move_if_noexcept_aIPN5boost10shared_ptrIN5caffe4BlobIfEEEES6_SaIS5_EET0_T_S9_S8_RT1_>
  40829e:	48 89 45 d0          	mov    %rax,-0x30(%rbp)
  4082a2:	48 8b 45 c8          	mov    -0x38(%rbp),%rax
  4082a6:	48 89 c7             	mov    %rax,%rdi
  4082a9:	e8 88 fd ff ff       	callq  408036 <_ZNSt12_Vector_baseIN5boost10shared_ptrIN5caffe4BlobIfEEEESaIS5_EE19_M_get_Tp_allocatorEv>
  4082ae:	48 89 c2             	mov    %rax,%rdx
  4082b1:	48 8b 4d c0          	mov    -0x40(%rbp),%rcx
  4082b5:	48 8b 45 d0          	mov    -0x30(%rbp),%rax
  4082b9:	48 89 ce             	mov    %rcx,%rsi
  4082bc:	48 89 c7             	mov    %rax,%rdi
  4082bf:	e8 cb 08 00 00       	callq  408b8f <_ZSt27__uninitialized_default_n_aIPN5boost10shared_ptrIN5caffe4BlobIfEEEEmS5_ET_S7_T0_RSaIT1_E>
  4082c4:	48 89 45 d0          	mov    %rax,-0x30(%rbp)
  4082c8:	48 8b 45 c8          	mov    -0x38(%rbp),%rax
  4082cc:	48 89 c7             	mov    %rax,%rdi
  4082cf:	e8 62 fd ff ff       	callq  408036 <_ZNSt12_Vector_baseIN5boost10shared_ptrIN5caffe4BlobIfEEEESaIS5_EE19_M_get_Tp_allocatorEv>
  4082d4:	48 89 c2             	mov    %rax,%rdx
  4082d7:	48 8b 45 c8          	mov    -0x38(%rbp),%rax
  4082db:	48 8b 48 08          	mov    0x8(%rax),%rcx
  4082df:	48 8b 45 c8          	mov    -0x38(%rbp),%rax
  4082e3:	48 8b 00             	mov    (%rax),%rax
  4082e6:	48 89 ce             	mov    %rcx,%rsi
  4082e9:	48 89 c7             	mov    %rax,%rdi
  4082ec:	e8 53 fd ff ff       	callq  408044 <_ZSt8_DestroyIPN5boost10shared_ptrIN5caffe4BlobIfEEEES5_EvT_S7_RSaIT0_E>
  4082f1:	48 8b 45 c8          	mov    -0x38(%rbp),%rax
  4082f5:	48 8b 40 10          	mov    0x10(%rax),%rax
  4082f9:	48 89 c2             	mov    %rax,%rdx
  4082fc:	48 8b 45 c8          	mov    -0x38(%rbp),%rax
  408300:	48 8b 00             	mov    (%rax),%rax
  408303:	48 29 c2             	sub    %rax,%rdx
  408306:	48 89 d0             	mov    %rdx,%rax
  408309:	48 c1 f8 04          	sar    $0x4,%rax
  40830d:	48 89 c2             	mov    %rax,%rdx
  408310:	48 8b 45 c8          	mov    -0x38(%rbp),%rax
  408314:	48 8b 08             	mov    (%rax),%rcx
  408317:	48 8b 45 c8          	mov    -0x38(%rbp),%rax
  40831b:	48 89 ce             	mov    %rcx,%rsi
  40831e:	48 89 c7             	mov    %rax,%rdi
  408321:	e8 8e 06 00 00       	callq  4089b4 <_ZNSt12_Vector_baseIN5boost10shared_ptrIN5caffe4BlobIfEEEESaIS5_EE13_M_deallocateEPS5_m>
  408326:	48 8b 45 c8          	mov    -0x38(%rbp),%rax
  40832a:	48 8b 55 e8          	mov    -0x18(%rbp),%rdx
  40832e:	48 89 10             	mov    %rdx,(%rax)
  408331:	48 8b 45 c8          	mov    -0x38(%rbp),%rax
  408335:	48 8b 55 d0          	mov    -0x30(%rbp),%rdx
  408339:	48 89 50 08          	mov    %rdx,0x8(%rax)
  40833d:	48 8b 45 d8          	mov    -0x28(%rbp),%rax
  408341:	48 c1 e0 04          	shl    $0x4,%rax
  408345:	48 89 c2             	mov    %rax,%rdx
  408348:	48 8b 45 e8          	mov    -0x18(%rbp),%rax
  40834c:	48 01 c2             	add    %rax,%rdx
  40834f:	48 8b 45 c8          	mov    -0x38(%rbp),%rax
  408353:	48 89 50 10          	mov    %rdx,0x10(%rax)
  408357:	eb 59                	jmp    4083b2 <_ZNSt6vectorIN5boost10shared_ptrIN5caffe4BlobIfEEEESaIS5_EE17_M_default_appendEm+0x1fe>
  408359:	48 89 c7             	mov    %rax,%rdi
  40835c:	e8 7f ba ff ff       	callq  403de0 <__cxa_begin_catch@plt>
  408361:	48 8b 45 c8          	mov    -0x38(%rbp),%rax
  408365:	48 89 c7             	mov    %rax,%rdi
  408368:	e8 c9 fc ff ff       	callq  408036 <_ZNSt12_Vector_baseIN5boost10shared_ptrIN5caffe4BlobIfEEEESaIS5_EE19_M_get_Tp_allocatorEv>
  40836d:	48 89 c2             	mov    %rax,%rdx
  408370:	48 8b 4d d0          	mov    -0x30(%rbp),%rcx
  408374:	48 8b 45 e8          	mov    -0x18(%rbp),%rax
  408378:	48 89 ce             	mov    %rcx,%rsi
  40837b:	48 89 c7             	mov    %rax,%rdi
  40837e:	e8 c1 fc ff ff       	callq  408044 <_ZSt8_DestroyIPN5boost10shared_ptrIN5caffe4BlobIfEEEES5_EvT_S7_RSaIT0_E>
  408383:	48 8b 45 c8          	mov    -0x38(%rbp),%rax
  408387:	48 8b 55 d8          	mov    -0x28(%rbp),%rdx
  40838b:	48 8b 4d e8          	mov    -0x18(%rbp),%rcx
  40838f:	48 89 ce             	mov    %rcx,%rsi
  408392:	48 89 c7             	mov    %rax,%rdi
  408395:	e8 1a 06 00 00       	callq  4089b4 <_ZNSt12_Vector_baseIN5boost10shared_ptrIN5caffe4BlobIfEEEESaIS5_EE13_M_deallocateEPS5_m>
  40839a:	e8 f1 bc ff ff       	callq  404090 <__cxa_rethrow@plt>
  40839f:	48 89 c3             	mov    %rax,%rbx
  4083a2:	e8 b9 bc ff ff       	callq  404060 <__cxa_end_catch@plt>
  4083a7:	48 89 d8             	mov    %rbx,%rax
  4083aa:	48 89 c7             	mov    %rax,%rdi
  4083ad:	e8 3e bc ff ff       	callq  403ff0 <_Unwind_Resume@plt>
  4083b2:	90                   	nop
  4083b3:	48 83 c4 38          	add    $0x38,%rsp
  4083b7:	5b                   	pop    %rbx
  4083b8:	5d                   	pop    %rbp
  4083b9:	c3                   	retq   

00000000004083ba <_ZNSt6vectorIN5boost10shared_ptrIN5caffe4BlobIfEEEESaIS5_EE15_M_erase_at_endEPS5_>:
  4083ba:	55                   	push   %rbp
  4083bb:	48 89 e5             	mov    %rsp,%rbp
  4083be:	48 83 ec 10          	sub    $0x10,%rsp
  4083c2:	48 89 7d f8          	mov    %rdi,-0x8(%rbp)
  4083c6:	48 89 75 f0          	mov    %rsi,-0x10(%rbp)
  4083ca:	48 8b 45 f8          	mov    -0x8(%rbp),%rax
  4083ce:	48 89 c7             	mov    %rax,%rdi
  4083d1:	e8 60 fc ff ff       	callq  408036 <_ZNSt12_Vector_baseIN5boost10shared_ptrIN5caffe4BlobIfEEEESaIS5_EE19_M_get_Tp_allocatorEv>
  4083d6:	48 89 c2             	mov    %rax,%rdx
  4083d9:	48 8b 45 f8          	mov    -0x8(%rbp),%rax
  4083dd:	48 8b 48 08          	mov    0x8(%rax),%rcx
  4083e1:	48 8b 45 f0          	mov    -0x10(%rbp),%rax
  4083e5:	48 89 ce             	mov    %rcx,%rsi
  4083e8:	48 89 c7             	mov    %rax,%rdi
  4083eb:	e8 54 fc ff ff       	callq  408044 <_ZSt8_DestroyIPN5boost10shared_ptrIN5caffe4BlobIfEEEES5_EvT_S7_RSaIT0_E>
  4083f0:	48 8b 45 f8          	mov    -0x8(%rbp),%rax
  4083f4:	48 8b 55 f0          	mov    -0x10(%rbp),%rdx
  4083f8:	48 89 50 08          	mov    %rdx,0x8(%rax)
  4083fc:	90                   	nop
  4083fd:	c9                   	leaveq 
  4083fe:	c3                   	retq   
  4083ff:	90                   	nop

0000000000408400 <_ZN5boost10shared_ptrIN5caffe4BlobIfEEEC1IS3_EEPT_>:
  408400:	55                   	push   %rbp
  408401:	48 89 e5             	mov    %rsp,%rbp
  408404:	53                   	push   %rbx
  408405:	48 83 ec 18          	sub    $0x18,%rsp
  408409:	48 89 7d e8          	mov    %rdi,-0x18(%rbp)
  40840d:	48 89 75 e0          	mov    %rsi,-0x20(%rbp)
  408411:	48 8b 45 e8          	mov    -0x18(%rbp),%rax
  408415:	48 8b 55 e0          	mov    -0x20(%rbp),%rdx
  408419:	48 89 10             	mov    %rdx,(%rax)
  40841c:	48 8b 45 e8          	mov    -0x18(%rbp),%rax
  408420:	48 83 c0 08          	add    $0x8,%rax
  408424:	48 89 c7             	mov    %rax,%rdi
  408427:	e8 1a c2 ff ff       	callq  404646 <_ZN5boost6detail12shared_countC1Ev>
  40842c:	48 8b 45 e8          	mov    -0x18(%rbp),%rax
  408430:	48 8d 50 08          	lea    0x8(%rax),%rdx
  408434:	48 8b 4d e0          	mov    -0x20(%rbp),%rcx
  408438:	48 8b 45 e8          	mov    -0x18(%rbp),%rax
  40843c:	48 89 ce             	mov    %rcx,%rsi
  40843f:	48 89 c7             	mov    %rax,%rdi
  408442:	e8 e4 08 00 00       	callq  408d2b <_ZN5boost6detail20sp_pointer_constructIN5caffe4BlobIfEES4_EEvPNS_10shared_ptrIT_EEPT0_RNS0_12shared_countE>
  408447:	eb 1e                	jmp    408467 <_ZN5boost10shared_ptrIN5caffe4BlobIfEEEC1IS3_EEPT_+0x67>
  408449:	48 89 c3             	mov    %rax,%rbx
  40844c:	48 8b 45 e8          	mov    -0x18(%rbp),%rax
  408450:	48 83 c0 08          	add    $0x8,%rax
  408454:	48 89 c7             	mov    %rax,%rdi
  408457:	e8 00 c2 ff ff       	callq  40465c <_ZN5boost6detail12shared_countD1Ev>
  40845c:	48 89 d8             	mov    %rbx,%rax
  40845f:	48 89 c7             	mov    %rax,%rdi
  408462:	e8 89 bb ff ff       	callq  403ff0 <_Unwind_Resume@plt>
  408467:	48 83 c4 18          	add    $0x18,%rsp
  40846b:	5b                   	pop    %rbx
  40846c:	5d                   	pop    %rbp
  40846d:	c3                   	retq   

000000000040846e <_ZN5boost10shared_ptrIN5caffe4BlobIfEEE4swapERS4_>:
  40846e:	55                   	push   %rbp
  40846f:	48 89 e5             	mov    %rsp,%rbp
  408472:	48 83 ec 10          	sub    $0x10,%rsp
  408476:	48 89 7d f8          	mov    %rdi,-0x8(%rbp)
  40847a:	48 89 75 f0          	mov    %rsi,-0x10(%rbp)
  40847e:	48 8b 55 f0          	mov    -0x10(%rbp),%rdx
  408482:	48 8b 45 f8          	mov    -0x8(%rbp),%rax
  408486:	48 89 d6             	mov    %rdx,%rsi
  408489:	48 89 c7             	mov    %rax,%rdi
  40848c:	e8 30 09 00 00       	callq  408dc1 <_ZSt4swapIPN5caffe4BlobIfEEENSt9enable_ifIXsrSt6__and_IJSt21is_move_constructibleIT_ESt18is_move_assignableIS7_EEE5valueEvE4typeERS7_SE_>
  408491:	48 8b 45 f0          	mov    -0x10(%rbp),%rax
  408495:	48 8d 50 08          	lea    0x8(%rax),%rdx
  408499:	48 8b 45 f8          	mov    -0x8(%rbp),%rax
  40849d:	48 83 c0 08          	add    $0x8,%rax
  4084a1:	48 89 d6             	mov    %rdx,%rsi
  4084a4:	48 89 c7             	mov    %rax,%rdi
  4084a7:	e8 da c1 ff ff       	callq  404686 <_ZN5boost6detail12shared_count4swapERS1_>
  4084ac:	90                   	nop
  4084ad:	c9                   	leaveq 
  4084ae:	c3                   	retq   

00000000004084af <_ZN6google17MakeCheckOpStringIimEEPNSt7__cxx1112basic_stringIcSt11char_traitsIcESaIcEEERKT_RKT0_PKc>:
  4084af:	55                   	push   %rbp
  4084b0:	48 89 e5             	mov    %rsp,%rbp
  4084b3:	53                   	push   %rbx
  4084b4:	48 83 ec 38          	sub    $0x38,%rsp
  4084b8:	48 89 7d d8          	mov    %rdi,-0x28(%rbp)
  4084bc:	48 89 75 d0          	mov    %rsi,-0x30(%rbp)
  4084c0:	48 89 55 c8          	mov    %rdx,-0x38(%rbp)
  4084c4:	64 48 8b 04 25 28 00 	mov    %fs:0x28,%rax
  4084cb:	00 00 
  4084cd:	48 89 45 e8          	mov    %rax,-0x18(%rbp)
  4084d1:	31 c0                	xor    %eax,%eax
  4084d3:	48 8b 55 c8          	mov    -0x38(%rbp),%rdx
  4084d7:	48 8d 45 e0          	lea    -0x20(%rbp),%rax
  4084db:	48 89 d6             	mov    %rdx,%rsi
  4084de:	48 89 c7             	mov    %rax,%rdi
  4084e1:	e8 5a b9 ff ff       	callq  403e40 <_ZN6google4base21CheckOpMessageBuilderC1EPKc@plt>
  4084e6:	48 8d 45 e0          	lea    -0x20(%rbp),%rax
  4084ea:	48 89 c7             	mov    %rax,%rdi
  4084ed:	e8 02 c2 ff ff       	callq  4046f4 <_ZN6google4base21CheckOpMessageBuilder7ForVar1Ev>
  4084f2:	48 89 c2             	mov    %rax,%rdx
  4084f5:	48 8b 45 d8          	mov    -0x28(%rbp),%rax
  4084f9:	48 89 c6             	mov    %rax,%rsi
  4084fc:	48 89 d7             	mov    %rdx,%rdi
  4084ff:	e8 a0 ed ff ff       	callq  4072a4 <_ZN6google22MakeCheckOpValueStringIiEEvPSoRKT_>
  408504:	48 8d 45 e0          	lea    -0x20(%rbp),%rax
  408508:	48 89 c7             	mov    %rax,%rdi
  40850b:	e8 00 b9 ff ff       	callq  403e10 <_ZN6google4base21CheckOpMessageBuilder7ForVar2Ev@plt>
  408510:	48 89 c2             	mov    %rax,%rdx
  408513:	48 8b 45 d0          	mov    -0x30(%rbp),%rax
  408517:	48 89 c6             	mov    %rax,%rsi
  40851a:	48 89 d7             	mov    %rdx,%rdi
  40851d:	e8 14 09 00 00       	callq  408e36 <_ZN6google22MakeCheckOpValueStringImEEvPSoRKT_>
  408522:	48 8d 45 e0          	lea    -0x20(%rbp),%rax
  408526:	48 89 c7             	mov    %rax,%rdi
  408529:	e8 e2 bb ff ff       	callq  404110 <_ZN6google4base21CheckOpMessageBuilder9NewStringB5cxx11Ev@plt>
  40852e:	48 89 c3             	mov    %rax,%rbx
  408531:	48 8d 45 e0          	lea    -0x20(%rbp),%rax
  408535:	48 89 c7             	mov    %rax,%rdi
  408538:	e8 83 b9 ff ff       	callq  403ec0 <_ZN6google4base21CheckOpMessageBuilderD1Ev@plt>
  40853d:	48 89 d8             	mov    %rbx,%rax
  408540:	48 8b 4d e8          	mov    -0x18(%rbp),%rcx
  408544:	64 48 33 0c 25 28 00 	xor    %fs:0x28,%rcx
  40854b:	00 00 
  40854d:	74 21                	je     408570 <_ZN6google17MakeCheckOpStringIimEEPNSt7__cxx1112basic_stringIcSt11char_traitsIcESaIcEEERKT_RKT0_PKc+0xc1>
  40854f:	eb 1a                	jmp    40856b <_ZN6google17MakeCheckOpStringIimEEPNSt7__cxx1112basic_stringIcSt11char_traitsIcESaIcEEERKT_RKT0_PKc+0xbc>
  408551:	48 89 c3             	mov    %rax,%rbx
  408554:	48 8d 45 e0          	lea    -0x20(%rbp),%rax
  408558:	48 89 c7             	mov    %rax,%rdi
  40855b:	e8 60 b9 ff ff       	callq  403ec0 <_ZN6google4base21CheckOpMessageBuilderD1Ev@plt>
  408560:	48 89 d8             	mov    %rbx,%rax
  408563:	48 89 c7             	mov    %rax,%rdi
  408566:	e8 85 ba ff ff       	callq  403ff0 <_Unwind_Resume@plt>
  40856b:	e8 40 b9 ff ff       	callq  403eb0 <__stack_chk_fail@plt>
  408570:	48 83 c4 38          	add    $0x38,%rsp
  408574:	5b                   	pop    %rbx
  408575:	5d                   	pop    %rbp
  408576:	c3                   	retq   

0000000000408577 <_ZN6google17MakeCheckOpStringImmEEPNSt7__cxx1112basic_stringIcSt11char_traitsIcESaIcEEERKT_RKT0_PKc>:
  408577:	55                   	push   %rbp
  408578:	48 89 e5             	mov    %rsp,%rbp
  40857b:	53                   	push   %rbx
  40857c:	48 83 ec 38          	sub    $0x38,%rsp
  408580:	48 89 7d d8          	mov    %rdi,-0x28(%rbp)
  408584:	48 89 75 d0          	mov    %rsi,-0x30(%rbp)
  408588:	48 89 55 c8          	mov    %rdx,-0x38(%rbp)
  40858c:	64 48 8b 04 25 28 00 	mov    %fs:0x28,%rax
  408593:	00 00 
  408595:	48 89 45 e8          	mov    %rax,-0x18(%rbp)
  408599:	31 c0                	xor    %eax,%eax
  40859b:	48 8b 55 c8          	mov    -0x38(%rbp),%rdx
  40859f:	48 8d 45 e0          	lea    -0x20(%rbp),%rax
  4085a3:	48 89 d6             	mov    %rdx,%rsi
  4085a6:	48 89 c7             	mov    %rax,%rdi
  4085a9:	e8 92 b8 ff ff       	callq  403e40 <_ZN6google4base21CheckOpMessageBuilderC1EPKc@plt>
  4085ae:	48 8d 45 e0          	lea    -0x20(%rbp),%rax
  4085b2:	48 89 c7             	mov    %rax,%rdi
  4085b5:	e8 3a c1 ff ff       	callq  4046f4 <_ZN6google4base21CheckOpMessageBuilder7ForVar1Ev>
  4085ba:	48 89 c2             	mov    %rax,%rdx
  4085bd:	48 8b 45 d8          	mov    -0x28(%rbp),%rax
  4085c1:	48 89 c6             	mov    %rax,%rsi
  4085c4:	48 89 d7             	mov    %rdx,%rdi
  4085c7:	e8 6a 08 00 00       	callq  408e36 <_ZN6google22MakeCheckOpValueStringImEEvPSoRKT_>
  4085cc:	48 8d 45 e0          	lea    -0x20(%rbp),%rax
  4085d0:	48 89 c7             	mov    %rax,%rdi
  4085d3:	e8 38 b8 ff ff       	callq  403e10 <_ZN6google4base21CheckOpMessageBuilder7ForVar2Ev@plt>
  4085d8:	48 89 c2             	mov    %rax,%rdx
  4085db:	48 8b 45 d0          	mov    -0x30(%rbp),%rax
  4085df:	48 89 c6             	mov    %rax,%rsi
  4085e2:	48 89 d7             	mov    %rdx,%rdi
  4085e5:	e8 4c 08 00 00       	callq  408e36 <_ZN6google22MakeCheckOpValueStringImEEvPSoRKT_>
  4085ea:	48 8d 45 e0          	lea    -0x20(%rbp),%rax
  4085ee:	48 89 c7             	mov    %rax,%rdi
  4085f1:	e8 1a bb ff ff       	callq  404110 <_ZN6google4base21CheckOpMessageBuilder9NewStringB5cxx11Ev@plt>
  4085f6:	48 89 c3             	mov    %rax,%rbx
  4085f9:	48 8d 45 e0          	lea    -0x20(%rbp),%rax
  4085fd:	48 89 c7             	mov    %rax,%rdi
  408600:	e8 bb b8 ff ff       	callq  403ec0 <_ZN6google4base21CheckOpMessageBuilderD1Ev@plt>
  408605:	48 89 d8             	mov    %rbx,%rax
  408608:	48 8b 4d e8          	mov    -0x18(%rbp),%rcx
  40860c:	64 48 33 0c 25 28 00 	xor    %fs:0x28,%rcx
  408613:	00 00 
  408615:	74 21                	je     408638 <_ZN6google17MakeCheckOpStringImmEEPNSt7__cxx1112basic_stringIcSt11char_traitsIcESaIcEEERKT_RKT0_PKc+0xc1>
  408617:	eb 1a                	jmp    408633 <_ZN6google17MakeCheckOpStringImmEEPNSt7__cxx1112basic_stringIcSt11char_traitsIcESaIcEEERKT_RKT0_PKc+0xbc>
  408619:	48 89 c3             	mov    %rax,%rbx
  40861c:	48 8d 45 e0          	lea    -0x20(%rbp),%rax
  408620:	48 89 c7             	mov    %rax,%rdi
  408623:	e8 98 b8 ff ff       	callq  403ec0 <_ZN6google4base21CheckOpMessageBuilderD1Ev@plt>
  408628:	48 89 d8             	mov    %rbx,%rax
  40862b:	48 89 c7             	mov    %rax,%rdi
  40862e:	e8 bd b9 ff ff       	callq  403ff0 <_Unwind_Resume@plt>
  408633:	e8 78 b8 ff ff       	callq  403eb0 <__stack_chk_fail@plt>
  408638:	48 83 c4 38          	add    $0x38,%rsp
  40863c:	5b                   	pop    %rbx
  40863d:	5d                   	pop    %rbp
  40863e:	c3                   	retq   

000000000040863f <_ZN6google17MakeCheckOpStringImiEEPNSt7__cxx1112basic_stringIcSt11char_traitsIcESaIcEEERKT_RKT0_PKc>:
  40863f:	55                   	push   %rbp
  408640:	48 89 e5             	mov    %rsp,%rbp
  408643:	53                   	push   %rbx
  408644:	48 83 ec 38          	sub    $0x38,%rsp
  408648:	48 89 7d d8          	mov    %rdi,-0x28(%rbp)
  40864c:	48 89 75 d0          	mov    %rsi,-0x30(%rbp)
  408650:	48 89 55 c8          	mov    %rdx,-0x38(%rbp)
  408654:	64 48 8b 04 25 28 00 	mov    %fs:0x28,%rax
  40865b:	00 00 
  40865d:	48 89 45 e8          	mov    %rax,-0x18(%rbp)
  408661:	31 c0                	xor    %eax,%eax
  408663:	48 8b 55 c8          	mov    -0x38(%rbp),%rdx
  408667:	48 8d 45 e0          	lea    -0x20(%rbp),%rax
  40866b:	48 89 d6             	mov    %rdx,%rsi
  40866e:	48 89 c7             	mov    %rax,%rdi
  408671:	e8 ca b7 ff ff       	callq  403e40 <_ZN6google4base21CheckOpMessageBuilderC1EPKc@plt>
  408676:	48 8d 45 e0          	lea    -0x20(%rbp),%rax
  40867a:	48 89 c7             	mov    %rax,%rdi
  40867d:	e8 72 c0 ff ff       	callq  4046f4 <_ZN6google4base21CheckOpMessageBuilder7ForVar1Ev>
  408682:	48 89 c2             	mov    %rax,%rdx
  408685:	48 8b 45 d8          	mov    -0x28(%rbp),%rax
  408689:	48 89 c6             	mov    %rax,%rsi
  40868c:	48 89 d7             	mov    %rdx,%rdi
  40868f:	e8 a2 07 00 00       	callq  408e36 <_ZN6google22MakeCheckOpValueStringImEEvPSoRKT_>
  408694:	48 8d 45 e0          	lea    -0x20(%rbp),%rax
  408698:	48 89 c7             	mov    %rax,%rdi
  40869b:	e8 70 b7 ff ff       	callq  403e10 <_ZN6google4base21CheckOpMessageBuilder7ForVar2Ev@plt>
  4086a0:	48 89 c2             	mov    %rax,%rdx
  4086a3:	48 8b 45 d0          	mov    -0x30(%rbp),%rax
  4086a7:	48 89 c6             	mov    %rax,%rsi
  4086aa:	48 89 d7             	mov    %rdx,%rdi
  4086ad:	e8 f2 eb ff ff       	callq  4072a4 <_ZN6google22MakeCheckOpValueStringIiEEvPSoRKT_>
  4086b2:	48 8d 45 e0          	lea    -0x20(%rbp),%rax
  4086b6:	48 89 c7             	mov    %rax,%rdi
  4086b9:	e8 52 ba ff ff       	callq  404110 <_ZN6google4base21CheckOpMessageBuilder9NewStringB5cxx11Ev@plt>
  4086be:	48 89 c3             	mov    %rax,%rbx
  4086c1:	48 8d 45 e0          	lea    -0x20(%rbp),%rax
  4086c5:	48 89 c7             	mov    %rax,%rdi
  4086c8:	e8 f3 b7 ff ff       	callq  403ec0 <_ZN6google4base21CheckOpMessageBuilderD1Ev@plt>
  4086cd:	48 89 d8             	mov    %rbx,%rax
  4086d0:	48 8b 4d e8          	mov    -0x18(%rbp),%rcx
  4086d4:	64 48 33 0c 25 28 00 	xor    %fs:0x28,%rcx
  4086db:	00 00 
  4086dd:	74 21                	je     408700 <_ZN6google17MakeCheckOpStringImiEEPNSt7__cxx1112basic_stringIcSt11char_traitsIcESaIcEEERKT_RKT0_PKc+0xc1>
  4086df:	eb 1a                	jmp    4086fb <_ZN6google17MakeCheckOpStringImiEEPNSt7__cxx1112basic_stringIcSt11char_traitsIcESaIcEEERKT_RKT0_PKc+0xbc>
  4086e1:	48 89 c3             	mov    %rax,%rbx
  4086e4:	48 8d 45 e0          	lea    -0x20(%rbp),%rax
  4086e8:	48 89 c7             	mov    %rax,%rdi
  4086eb:	e8 d0 b7 ff ff       	callq  403ec0 <_ZN6google4base21CheckOpMessageBuilderD1Ev@plt>
  4086f0:	48 89 d8             	mov    %rbx,%rax
  4086f3:	48 89 c7             	mov    %rax,%rdi
  4086f6:	e8 f5 b8 ff ff       	callq  403ff0 <_Unwind_Resume@plt>
  4086fb:	e8 b0 b7 ff ff       	callq  403eb0 <__stack_chk_fail@plt>
  408700:	48 83 c4 38          	add    $0x38,%rsp
  408704:	5b                   	pop    %rbx
  408705:	5d                   	pop    %rbp
  408706:	c3                   	retq   
  408707:	90                   	nop

0000000000408708 <_ZNSt6vectorIfSaIfEE6resizeEmRKf>:
  408708:	55                   	push   %rbp
  408709:	48 89 e5             	mov    %rsp,%rbp
  40870c:	53                   	push   %rbx
  40870d:	48 83 ec 48          	sub    $0x48,%rsp
  408711:	48 89 7d c8          	mov    %rdi,-0x38(%rbp)
  408715:	48 89 75 c0          	mov    %rsi,-0x40(%rbp)
  408719:	48 89 55 b8          	mov    %rdx,-0x48(%rbp)
  40871d:	64 48 8b 04 25 28 00 	mov    %fs:0x28,%rax
  408724:	00 00 
  408726:	48 89 45 e8          	mov    %rax,-0x18(%rbp)
  40872a:	31 c0                	xor    %eax,%eax
  40872c:	48 8b 45 c8          	mov    -0x38(%rbp),%rax
  408730:	48 89 c7             	mov    %rax,%rdi
  408733:	e8 20 f5 ff ff       	callq  407c58 <_ZNKSt6vectorIfSaIfEE4sizeEv>
  408738:	48 3b 45 c0          	cmp    -0x40(%rbp),%rax
  40873c:	0f 92 c0             	setb   %al
  40873f:	84 c0                	test   %al,%al
  408741:	74 58                	je     40879b <_ZNSt6vectorIfSaIfEE6resizeEmRKf+0x93>
  408743:	48 8b 45 c8          	mov    -0x38(%rbp),%rax
  408747:	48 89 c7             	mov    %rax,%rdi
  40874a:	e8 09 f5 ff ff       	callq  407c58 <_ZNKSt6vectorIfSaIfEE4sizeEv>
  40874f:	48 89 c2             	mov    %rax,%rdx
  408752:	48 8b 45 c0          	mov    -0x40(%rbp),%rax
  408756:	48 29 d0             	sub    %rdx,%rax
  408759:	48 89 c3             	mov    %rax,%rbx
  40875c:	48 8b 45 c8          	mov    -0x38(%rbp),%rax
  408760:	48 89 c7             	mov    %rax,%rdi
  408763:	e8 f8 06 00 00       	callq  408e60 <_ZNSt6vectorIfSaIfEE3endEv>
  408768:	48 89 45 d8          	mov    %rax,-0x28(%rbp)
  40876c:	48 8d 55 d8          	lea    -0x28(%rbp),%rdx
  408770:	48 8d 45 e0          	lea    -0x20(%rbp),%rax
  408774:	48 89 d6             	mov    %rdx,%rsi
  408777:	48 89 c7             	mov    %rax,%rdi
  40877a:	e8 2d 07 00 00       	callq  408eac <_ZN9__gnu_cxx17__normal_iteratorIPKfSt6vectorIfSaIfEEEC1IPfEERKNS0_IT_NS_11__enable_ifIXsrSt10__are_sameIS9_S8_E7__valueES5_E6__typeEEE>
  40877f:	48 8b 55 b8          	mov    -0x48(%rbp),%rdx
  408783:	48 8b 75 e0          	mov    -0x20(%rbp),%rsi
  408787:	48 8b 45 c8          	mov    -0x38(%rbp),%rax
  40878b:	48 89 d1             	mov    %rdx,%rcx
  40878e:	48 89 da             	mov    %rbx,%rdx
  408791:	48 89 c7             	mov    %rax,%rdi
  408794:	e8 3d 07 00 00       	callq  408ed6 <_ZNSt6vectorIfSaIfEE6insertEN9__gnu_cxx17__normal_iteratorIPKfS1_EEmRS4_>
  408799:	eb 38                	jmp    4087d3 <_ZNSt6vectorIfSaIfEE6resizeEmRKf+0xcb>
  40879b:	48 8b 45 c8          	mov    -0x38(%rbp),%rax
  40879f:	48 89 c7             	mov    %rax,%rdi
  4087a2:	e8 b1 f4 ff ff       	callq  407c58 <_ZNKSt6vectorIfSaIfEE4sizeEv>
  4087a7:	48 3b 45 c0          	cmp    -0x40(%rbp),%rax
  4087ab:	0f 97 c0             	seta   %al
  4087ae:	84 c0                	test   %al,%al
  4087b0:	74 21                	je     4087d3 <_ZNSt6vectorIfSaIfEE6resizeEmRKf+0xcb>
  4087b2:	48 8b 45 c8          	mov    -0x38(%rbp),%rax
  4087b6:	48 8b 00             	mov    (%rax),%rax
  4087b9:	48 8b 55 c0          	mov    -0x40(%rbp),%rdx
  4087bd:	48 c1 e2 02          	shl    $0x2,%rdx
  4087c1:	48 01 c2             	add    %rax,%rdx
  4087c4:	48 8b 45 c8          	mov    -0x38(%rbp),%rax
  4087c8:	48 89 d6             	mov    %rdx,%rsi
  4087cb:	48 89 c7             	mov    %rax,%rdi
  4087ce:	e8 c5 07 00 00       	callq  408f98 <_ZNSt6vectorIfSaIfEE15_M_erase_at_endEPf>
  4087d3:	90                   	nop
  4087d4:	48 8b 45 e8          	mov    -0x18(%rbp),%rax
  4087d8:	64 48 33 04 25 28 00 	xor    %fs:0x28,%rax
  4087df:	00 00 
  4087e1:	74 05                	je     4087e8 <_ZNSt6vectorIfSaIfEE6resizeEmRKf+0xe0>
  4087e3:	e8 c8 b6 ff ff       	callq  403eb0 <__stack_chk_fail@plt>
  4087e8:	48 83 c4 48          	add    $0x48,%rsp
  4087ec:	5b                   	pop    %rbx
  4087ed:	5d                   	pop    %rbp
  4087ee:	c3                   	retq   
  4087ef:	90                   	nop

00000000004087f0 <_ZNSt6vectorIfSaIfEEixEm>:
  4087f0:	55                   	push   %rbp
  4087f1:	48 89 e5             	mov    %rsp,%rbp
  4087f4:	48 89 7d f8          	mov    %rdi,-0x8(%rbp)
  4087f8:	48 89 75 f0          	mov    %rsi,-0x10(%rbp)
  4087fc:	48 8b 45 f8          	mov    -0x8(%rbp),%rax
  408800:	48 8b 00             	mov    (%rax),%rax
  408803:	48 8b 55 f0          	mov    -0x10(%rbp),%rdx
  408807:	48 c1 e2 02          	shl    $0x2,%rdx
  40880b:	48 01 d0             	add    %rdx,%rax
  40880e:	5d                   	pop    %rbp
  40880f:	c3                   	retq   

0000000000408810 <_ZN9__gnu_cxx13new_allocatorIiED1Ev>:
  408810:	55                   	push   %rbp
  408811:	48 89 e5             	mov    %rsp,%rbp
  408814:	48 89 7d f8          	mov    %rdi,-0x8(%rbp)
  408818:	90                   	nop
  408819:	5d                   	pop    %rbp
  40881a:	c3                   	retq   

000000000040881b <_ZNSt16allocator_traitsISaIiEE10deallocateERS0_Pim>:
  40881b:	55                   	push   %rbp
  40881c:	48 89 e5             	mov    %rsp,%rbp
  40881f:	48 83 ec 20          	sub    $0x20,%rsp
  408823:	48 89 7d f8          	mov    %rdi,-0x8(%rbp)
  408827:	48 89 75 f0          	mov    %rsi,-0x10(%rbp)
  40882b:	48 89 55 e8          	mov    %rdx,-0x18(%rbp)
  40882f:	48 8b 55 e8          	mov    -0x18(%rbp),%rdx
  408833:	48 8b 4d f0          	mov    -0x10(%rbp),%rcx
  408837:	48 8b 45 f8          	mov    -0x8(%rbp),%rax
  40883b:	48 89 ce             	mov    %rcx,%rsi
  40883e:	48 89 c7             	mov    %rax,%rdi
  408841:	e8 98 07 00 00       	callq  408fde <_ZN9__gnu_cxx13new_allocatorIiE10deallocateEPim>
  408846:	90                   	nop
  408847:	c9                   	leaveq 
  408848:	c3                   	retq   

0000000000408849 <_ZNSt12_Destroy_auxILb1EE9__destroyIPiEEvT_S3_>:
  408849:	55                   	push   %rbp
  40884a:	48 89 e5             	mov    %rsp,%rbp
  40884d:	48 89 7d f8          	mov    %rdi,-0x8(%rbp)
  408851:	48 89 75 f0          	mov    %rsi,-0x10(%rbp)
  408855:	90                   	nop
  408856:	5d                   	pop    %rbp
  408857:	c3                   	retq   

0000000000408858 <_ZN9__gnu_cxx13new_allocatorIPN5caffe4BlobIfEEEC1Ev>:
  408858:	55                   	push   %rbp
  408859:	48 89 e5             	mov    %rsp,%rbp
  40885c:	48 89 7d f8          	mov    %rdi,-0x8(%rbp)
  408860:	90                   	nop
  408861:	5d                   	pop    %rbp
  408862:	c3                   	retq   
  408863:	90                   	nop

0000000000408864 <_ZN9__gnu_cxx13new_allocatorIPN5caffe4BlobIfEEE10deallocateEPS4_m>:
  408864:	55                   	push   %rbp
  408865:	48 89 e5             	mov    %rsp,%rbp
  408868:	48 83 ec 20          	sub    $0x20,%rsp
  40886c:	48 89 7d f8          	mov    %rdi,-0x8(%rbp)
  408870:	48 89 75 f0          	mov    %rsi,-0x10(%rbp)
  408874:	48 89 55 e8          	mov    %rdx,-0x18(%rbp)
  408878:	48 8b 45 f0          	mov    -0x10(%rbp),%rax
  40887c:	48 89 c7             	mov    %rax,%rdi
  40887f:	e8 dc b6 ff ff       	callq  403f60 <_ZdlPv@plt>
  408884:	90                   	nop
  408885:	c9                   	leaveq 
  408886:	c3                   	retq   

0000000000408887 <_ZNSt16allocator_traitsISaIPN5caffe4BlobIfEEEE8max_sizeERKS4_>:
  408887:	55                   	push   %rbp
  408888:	48 89 e5             	mov    %rsp,%rbp
  40888b:	48 83 ec 10          	sub    $0x10,%rsp
  40888f:	48 89 7d f8          	mov    %rdi,-0x8(%rbp)
  408893:	48 8b 45 f8          	mov    -0x8(%rbp),%rax
  408897:	48 89 c7             	mov    %rax,%rdi
  40889a:	e8 63 07 00 00       	callq  409002 <_ZNK9__gnu_cxx13new_allocatorIPN5caffe4BlobIfEEE8max_sizeEv>
  40889f:	c9                   	leaveq 
  4088a0:	c3                   	retq   
  4088a1:	90                   	nop

00000000004088a2 <_ZNKSt12_Vector_baseIPN5caffe4BlobIfEESaIS3_EE19_M_get_Tp_allocatorEv>:
  4088a2:	55                   	push   %rbp
  4088a3:	48 89 e5             	mov    %rsp,%rbp
  4088a6:	48 89 7d f8          	mov    %rdi,-0x8(%rbp)
  4088aa:	48 8b 45 f8          	mov    -0x8(%rbp),%rax
  4088ae:	5d                   	pop    %rbp
  4088af:	c3                   	retq   

00000000004088b0 <_ZN9__gnu_cxx13new_allocatorIPN5caffe4BlobIfEEE8allocateEmPKv>:
  4088b0:	55                   	push   %rbp
  4088b1:	48 89 e5             	mov    %rsp,%rbp
  4088b4:	48 83 ec 20          	sub    $0x20,%rsp
  4088b8:	48 89 7d f8          	mov    %rdi,-0x8(%rbp)
  4088bc:	48 89 75 f0          	mov    %rsi,-0x10(%rbp)
  4088c0:	48 89 55 e8          	mov    %rdx,-0x18(%rbp)
  4088c4:	48 8b 45 f8          	mov    -0x8(%rbp),%rax
  4088c8:	48 89 c7             	mov    %rax,%rdi
  4088cb:	e8 32 07 00 00       	callq  409002 <_ZNK9__gnu_cxx13new_allocatorIPN5caffe4BlobIfEEE8max_sizeEv>
  4088d0:	48 3b 45 f0          	cmp    -0x10(%rbp),%rax
  4088d4:	0f 92 c0             	setb   %al
  4088d7:	84 c0                	test   %al,%al
  4088d9:	74 05                	je     4088e0 <_ZN9__gnu_cxx13new_allocatorIPN5caffe4BlobIfEEE8allocateEmPKv+0x30>
  4088db:	e8 50 b5 ff ff       	callq  403e30 <_ZSt17__throw_bad_allocv@plt>
  4088e0:	48 8b 45 f0          	mov    -0x10(%rbp),%rax
  4088e4:	48 c1 e0 03          	shl    $0x3,%rax
  4088e8:	48 89 c7             	mov    %rax,%rdi
  4088eb:	e8 60 b5 ff ff       	callq  403e50 <_Znwm@plt>
  4088f0:	c9                   	leaveq 
  4088f1:	c3                   	retq   

00000000004088f2 <_ZNSt13move_iteratorIPPN5caffe4BlobIfEEEC1ES4_>:
  4088f2:	55                   	push   %rbp
  4088f3:	48 89 e5             	mov    %rsp,%rbp
  4088f6:	48 89 7d f8          	mov    %rdi,-0x8(%rbp)
  4088fa:	48 89 75 f0          	mov    %rsi,-0x10(%rbp)
  4088fe:	48 8b 45 f8          	mov    -0x8(%rbp),%rax
  408902:	48 8b 55 f0          	mov    -0x10(%rbp),%rdx
  408906:	48 89 10             	mov    %rdx,(%rax)
  408909:	90                   	nop
  40890a:	5d                   	pop    %rbp
  40890b:	c3                   	retq   

000000000040890c <_ZSt18uninitialized_copyISt13move_iteratorIPPN5caffe4BlobIfEEES5_ET0_T_S8_S7_>:
  40890c:	55                   	push   %rbp
  40890d:	48 89 e5             	mov    %rsp,%rbp
  408910:	48 83 ec 30          	sub    $0x30,%rsp
  408914:	48 89 7d e8          	mov    %rdi,-0x18(%rbp)
  408918:	48 89 75 e0          	mov    %rsi,-0x20(%rbp)
  40891c:	48 89 55 d8          	mov    %rdx,-0x28(%rbp)
  408920:	c6 45 ff 01          	movb   $0x1,-0x1(%rbp)
  408924:	48 8b 55 d8          	mov    -0x28(%rbp),%rdx
  408928:	48 8b 4d e0          	mov    -0x20(%rbp),%rcx
  40892c:	48 8b 45 e8          	mov    -0x18(%rbp),%rax
  408930:	48 89 ce             	mov    %rcx,%rsi
  408933:	48 89 c7             	mov    %rax,%rdi
  408936:	e8 db 06 00 00       	callq  409016 <_ZNSt20__uninitialized_copyILb1EE13__uninit_copyISt13move_iteratorIPPN5caffe4BlobIfEEES7_EET0_T_SA_S9_>
  40893b:	c9                   	leaveq 
  40893c:	c3                   	retq   
  40893d:	90                   	nop

000000000040893e <_ZNSaIiEC1Ev>:
  40893e:	55                   	push   %rbp
  40893f:	48 89 e5             	mov    %rsp,%rbp
  408942:	48 83 ec 10          	sub    $0x10,%rsp
  408946:	48 89 7d f8          	mov    %rdi,-0x8(%rbp)
  40894a:	48 8b 45 f8          	mov    -0x8(%rbp),%rax
  40894e:	48 89 c7             	mov    %rax,%rdi
  408951:	e8 ee 06 00 00       	callq  409044 <_ZN9__gnu_cxx13new_allocatorIiEC1Ev>
  408956:	90                   	nop
  408957:	c9                   	leaveq 
  408958:	c3                   	retq   
  408959:	90                   	nop

000000000040895a <_ZNSt12_Vector_baseIN5boost10shared_ptrIN5caffe4BlobIfEEEESaIS5_EE12_Vector_implC1Ev>:
  40895a:	55                   	push   %rbp
  40895b:	48 89 e5             	mov    %rsp,%rbp
  40895e:	48 83 ec 10          	sub    $0x10,%rsp
  408962:	48 89 7d f8          	mov    %rdi,-0x8(%rbp)
  408966:	48 8b 45 f8          	mov    -0x8(%rbp),%rax
  40896a:	48 89 c7             	mov    %rax,%rdi
  40896d:	e8 de 06 00 00       	callq  409050 <_ZNSaIN5boost10shared_ptrIN5caffe4BlobIfEEEEEC1Ev>
  408972:	48 8b 45 f8          	mov    -0x8(%rbp),%rax
  408976:	48 c7 00 00 00 00 00 	movq   $0x0,(%rax)
  40897d:	48 8b 45 f8          	mov    -0x8(%rbp),%rax
  408981:	48 c7 40 08 00 00 00 	movq   $0x0,0x8(%rax)
  408988:	00 
  408989:	48 8b 45 f8          	mov    -0x8(%rbp),%rax
  40898d:	48 c7 40 10 00 00 00 	movq   $0x0,0x10(%rax)
  408994:	00 
  408995:	90                   	nop
  408996:	c9                   	leaveq 
  408997:	c3                   	retq   

0000000000408998 <_ZNSaIN5boost10shared_ptrIN5caffe4BlobIfEEEEED1Ev>:
  408998:	55                   	push   %rbp
  408999:	48 89 e5             	mov    %rsp,%rbp
  40899c:	48 83 ec 10          	sub    $0x10,%rsp
  4089a0:	48 89 7d f8          	mov    %rdi,-0x8(%rbp)
  4089a4:	48 8b 45 f8          	mov    -0x8(%rbp),%rax
  4089a8:	48 89 c7             	mov    %rax,%rdi
  4089ab:	e8 bc 06 00 00       	callq  40906c <_ZN9__gnu_cxx13new_allocatorIN5boost10shared_ptrIN5caffe4BlobIfEEEEED1Ev>
  4089b0:	90                   	nop
  4089b1:	c9                   	leaveq 
  4089b2:	c3                   	retq   
  4089b3:	90                   	nop

00000000004089b4 <_ZNSt12_Vector_baseIN5boost10shared_ptrIN5caffe4BlobIfEEEESaIS5_EE13_M_deallocateEPS5_m>:
  4089b4:	55                   	push   %rbp
  4089b5:	48 89 e5             	mov    %rsp,%rbp
  4089b8:	48 83 ec 20          	sub    $0x20,%rsp
  4089bc:	48 89 7d f8          	mov    %rdi,-0x8(%rbp)
  4089c0:	48 89 75 f0          	mov    %rsi,-0x10(%rbp)
  4089c4:	48 89 55 e8          	mov    %rdx,-0x18(%rbp)
  4089c8:	48 83 7d f0 00       	cmpq   $0x0,-0x10(%rbp)
  4089cd:	74 17                	je     4089e6 <_ZNSt12_Vector_baseIN5boost10shared_ptrIN5caffe4BlobIfEEEESaIS5_EE13_M_deallocateEPS5_m+0x32>
  4089cf:	48 8b 45 f8          	mov    -0x8(%rbp),%rax
  4089d3:	48 8b 55 e8          	mov    -0x18(%rbp),%rdx
  4089d7:	48 8b 4d f0          	mov    -0x10(%rbp),%rcx
  4089db:	48 89 ce             	mov    %rcx,%rsi
  4089de:	48 89 c7             	mov    %rax,%rdi
  4089e1:	e8 91 06 00 00       	callq  409077 <_ZNSt16allocator_traitsISaIN5boost10shared_ptrIN5caffe4BlobIfEEEEEE10deallocateERS6_PS5_m>
  4089e6:	90                   	nop
  4089e7:	c9                   	leaveq 
  4089e8:	c3                   	retq   

00000000004089e9 <_ZSt8_DestroyIPN5boost10shared_ptrIN5caffe4BlobIfEEEEEvT_S7_>:
  4089e9:	55                   	push   %rbp
  4089ea:	48 89 e5             	mov    %rsp,%rbp
  4089ed:	48 83 ec 10          	sub    $0x10,%rsp
  4089f1:	48 89 7d f8          	mov    %rdi,-0x8(%rbp)
  4089f5:	48 89 75 f0          	mov    %rsi,-0x10(%rbp)
  4089f9:	48 8b 55 f0          	mov    -0x10(%rbp),%rdx
  4089fd:	48 8b 45 f8          	mov    -0x8(%rbp),%rax
  408a01:	48 89 d6             	mov    %rdx,%rsi
  408a04:	48 89 c7             	mov    %rax,%rdi
  408a07:	e8 99 06 00 00       	callq  4090a5 <_ZNSt12_Destroy_auxILb0EE9__destroyIPN5boost10shared_ptrIN5caffe4BlobIfEEEEEEvT_S9_>
  408a0c:	90                   	nop
  408a0d:	c9                   	leaveq 
  408a0e:	c3                   	retq   
  408a0f:	90                   	nop

0000000000408a10 <_ZNSt13_Bvector_baseISaIbEE13_Bvector_implC1Ev>:
  408a10:	55                   	push   %rbp
  408a11:	48 89 e5             	mov    %rsp,%rbp
  408a14:	48 83 ec 10          	sub    $0x10,%rsp
  408a18:	48 89 7d f8          	mov    %rdi,-0x8(%rbp)
  408a1c:	48 8b 45 f8          	mov    -0x8(%rbp),%rax
  408a20:	48 89 c7             	mov    %rax,%rdi
  408a23:	e8 b6 06 00 00       	callq  4090de <_ZNSaImEC1Ev>
  408a28:	48 8b 45 f8          	mov    -0x8(%rbp),%rax
  408a2c:	48 89 c7             	mov    %rax,%rdi
  408a2f:	e8 98 ba ff ff       	callq  4044cc <_ZNSt13_Bit_iteratorC1Ev>
  408a34:	48 8b 45 f8          	mov    -0x8(%rbp),%rax
  408a38:	48 83 c0 10          	add    $0x10,%rax
  408a3c:	48 89 c7             	mov    %rax,%rdi
  408a3f:	e8 88 ba ff ff       	callq  4044cc <_ZNSt13_Bit_iteratorC1Ev>
  408a44:	48 8b 45 f8          	mov    -0x8(%rbp),%rax
  408a48:	48 c7 40 20 00 00 00 	movq   $0x0,0x20(%rax)
  408a4f:	00 
  408a50:	90                   	nop
  408a51:	c9                   	leaveq 
  408a52:	c3                   	retq   
  408a53:	90                   	nop

0000000000408a54 <_ZNSaImED1Ev>:
  408a54:	55                   	push   %rbp
  408a55:	48 89 e5             	mov    %rsp,%rbp
  408a58:	48 83 ec 10          	sub    $0x10,%rsp
  408a5c:	48 89 7d f8          	mov    %rdi,-0x8(%rbp)
  408a60:	48 8b 45 f8          	mov    -0x8(%rbp),%rax
  408a64:	48 89 c7             	mov    %rax,%rdi
  408a67:	e8 8e 06 00 00       	callq  4090fa <_ZN9__gnu_cxx13new_allocatorImED1Ev>
  408a6c:	90                   	nop
  408a6d:	c9                   	leaveq 
  408a6e:	c3                   	retq   
  408a6f:	90                   	nop

0000000000408a70 <_ZNSt13_Bvector_baseISaIbEE13_M_deallocateEv>:
  408a70:	55                   	push   %rbp
  408a71:	48 89 e5             	mov    %rsp,%rbp
  408a74:	48 83 ec 20          	sub    $0x20,%rsp
  408a78:	48 89 7d e8          	mov    %rdi,-0x18(%rbp)
  408a7c:	48 8b 45 e8          	mov    -0x18(%rbp),%rax
  408a80:	48 8b 00             	mov    (%rax),%rax
  408a83:	48 85 c0             	test   %rax,%rax
  408a86:	74 4e                	je     408ad6 <_ZNSt13_Bvector_baseISaIbEE13_M_deallocateEv+0x66>
  408a88:	48 8b 45 e8          	mov    -0x18(%rbp),%rax
  408a8c:	48 89 c7             	mov    %rax,%rdi
  408a8f:	e8 72 06 00 00       	callq  409106 <_ZNKSt13_Bvector_baseISaIbEE13_Bvector_impl11_M_end_addrEv>
  408a94:	48 89 c2             	mov    %rax,%rdx
  408a97:	48 8b 45 e8          	mov    -0x18(%rbp),%rax
  408a9b:	48 8b 00             	mov    (%rax),%rax
  408a9e:	48 29 c2             	sub    %rax,%rdx
  408aa1:	48 89 d0             	mov    %rdx,%rax
  408aa4:	48 c1 f8 03          	sar    $0x3,%rax
  408aa8:	48 89 45 f8          	mov    %rax,-0x8(%rbp)
  408aac:	48 8b 45 e8          	mov    -0x18(%rbp),%rax
  408ab0:	48 8b 40 20          	mov    0x20(%rax),%rax
  408ab4:	48 8b 55 f8          	mov    -0x8(%rbp),%rdx
  408ab8:	48 c1 e2 03          	shl    $0x3,%rdx
  408abc:	48 f7 da             	neg    %rdx
  408abf:	48 8d 0c 10          	lea    (%rax,%rdx,1),%rcx
  408ac3:	48 8b 45 e8          	mov    -0x18(%rbp),%rax
  408ac7:	48 8b 55 f8          	mov    -0x8(%rbp),%rdx
  408acb:	48 89 ce             	mov    %rcx,%rsi
  408ace:	48 89 c7             	mov    %rax,%rdi
  408ad1:	e8 6a 06 00 00       	callq  409140 <_ZNSt16allocator_traitsISaImEE10deallocateERS0_Pmm>
  408ad6:	90                   	nop
  408ad7:	c9                   	leaveq 
  408ad8:	c3                   	retq   
  408ad9:	90                   	nop

0000000000408ada <_ZNSt12_Vector_baseIfSaIfEE12_Vector_implC1Ev>:
  408ada:	55                   	push   %rbp
  408adb:	48 89 e5             	mov    %rsp,%rbp
  408ade:	48 83 ec 10          	sub    $0x10,%rsp
  408ae2:	48 89 7d f8          	mov    %rdi,-0x8(%rbp)
  408ae6:	48 8b 45 f8          	mov    -0x8(%rbp),%rax
  408aea:	48 89 c7             	mov    %rax,%rdi
  408aed:	e8 7c 06 00 00       	callq  40916e <_ZNSaIfEC1Ev>
  408af2:	48 8b 45 f8          	mov    -0x8(%rbp),%rax
  408af6:	48 c7 00 00 00 00 00 	movq   $0x0,(%rax)
  408afd:	48 8b 45 f8          	mov    -0x8(%rbp),%rax
  408b01:	48 c7 40 08 00 00 00 	movq   $0x0,0x8(%rax)
  408b08:	00 
  408b09:	48 8b 45 f8          	mov    -0x8(%rbp),%rax
  408b0d:	48 c7 40 10 00 00 00 	movq   $0x0,0x10(%rax)
  408b14:	00 
  408b15:	90                   	nop
  408b16:	c9                   	leaveq 
  408b17:	c3                   	retq   

0000000000408b18 <_ZNSaIfED1Ev>:
  408b18:	55                   	push   %rbp
  408b19:	48 89 e5             	mov    %rsp,%rbp
  408b1c:	48 83 ec 10          	sub    $0x10,%rsp
  408b20:	48 89 7d f8          	mov    %rdi,-0x8(%rbp)
  408b24:	48 8b 45 f8          	mov    -0x8(%rbp),%rax
  408b28:	48 89 c7             	mov    %rax,%rdi
  408b2b:	e8 5a 06 00 00       	callq  40918a <_ZN9__gnu_cxx13new_allocatorIfED1Ev>
  408b30:	90                   	nop
  408b31:	c9                   	leaveq 
  408b32:	c3                   	retq   
  408b33:	90                   	nop

0000000000408b34 <_ZNSt12_Vector_baseIfSaIfEE13_M_deallocateEPfm>:
  408b34:	55                   	push   %rbp
  408b35:	48 89 e5             	mov    %rsp,%rbp
  408b38:	48 83 ec 20          	sub    $0x20,%rsp
  408b3c:	48 89 7d f8          	mov    %rdi,-0x8(%rbp)
  408b40:	48 89 75 f0          	mov    %rsi,-0x10(%rbp)
  408b44:	48 89 55 e8          	mov    %rdx,-0x18(%rbp)
  408b48:	48 83 7d f0 00       	cmpq   $0x0,-0x10(%rbp)
  408b4d:	74 17                	je     408b66 <_ZNSt12_Vector_baseIfSaIfEE13_M_deallocateEPfm+0x32>
  408b4f:	48 8b 45 f8          	mov    -0x8(%rbp),%rax
  408b53:	48 8b 55 e8          	mov    -0x18(%rbp),%rdx
  408b57:	48 8b 4d f0          	mov    -0x10(%rbp),%rcx
  408b5b:	48 89 ce             	mov    %rcx,%rsi
  408b5e:	48 89 c7             	mov    %rax,%rdi
  408b61:	e8 2f 06 00 00       	callq  409195 <_ZNSt16allocator_traitsISaIfEE10deallocateERS0_Pfm>
  408b66:	90                   	nop
  408b67:	c9                   	leaveq 
  408b68:	c3                   	retq   

0000000000408b69 <_ZSt8_DestroyIPfEvT_S1_>:
  408b69:	55                   	push   %rbp
  408b6a:	48 89 e5             	mov    %rsp,%rbp
  408b6d:	48 83 ec 10          	sub    $0x10,%rsp
  408b71:	48 89 7d f8          	mov    %rdi,-0x8(%rbp)
  408b75:	48 89 75 f0          	mov    %rsi,-0x10(%rbp)
  408b79:	48 8b 55 f0          	mov    -0x10(%rbp),%rdx
  408b7d:	48 8b 45 f8          	mov    -0x8(%rbp),%rax
  408b81:	48 89 d6             	mov    %rdx,%rsi
  408b84:	48 89 c7             	mov    %rax,%rdi
  408b87:	e8 37 06 00 00       	callq  4091c3 <_ZNSt12_Destroy_auxILb1EE9__destroyIPfEEvT_S3_>
  408b8c:	90                   	nop
  408b8d:	c9                   	leaveq 
  408b8e:	c3                   	retq   

0000000000408b8f <_ZSt27__uninitialized_default_n_aIPN5boost10shared_ptrIN5caffe4BlobIfEEEEmS5_ET_S7_T0_RSaIT1_E>:
  408b8f:	55                   	push   %rbp
  408b90:	48 89 e5             	mov    %rsp,%rbp
  408b93:	48 83 ec 20          	sub    $0x20,%rsp
  408b97:	48 89 7d f8          	mov    %rdi,-0x8(%rbp)
  408b9b:	48 89 75 f0          	mov    %rsi,-0x10(%rbp)
  408b9f:	48 89 55 e8          	mov    %rdx,-0x18(%rbp)
  408ba3:	48 8b 55 f0          	mov    -0x10(%rbp),%rdx
  408ba7:	48 8b 45 f8          	mov    -0x8(%rbp),%rax
  408bab:	48 89 d6             	mov    %rdx,%rsi
  408bae:	48 89 c7             	mov    %rax,%rdi
  408bb1:	e8 1c 06 00 00       	callq  4091d2 <_ZSt25__uninitialized_default_nIPN5boost10shared_ptrIN5caffe4BlobIfEEEEmET_S7_T0_>
  408bb6:	c9                   	leaveq 
  408bb7:	c3                   	retq   

0000000000408bb8 <_ZNKSt6vectorIN5boost10shared_ptrIN5caffe4BlobIfEEEESaIS5_EE12_M_check_lenEmPKc>:
  408bb8:	55                   	push   %rbp
  408bb9:	48 89 e5             	mov    %rsp,%rbp
  408bbc:	53                   	push   %rbx
  408bbd:	48 83 ec 48          	sub    $0x48,%rsp
  408bc1:	48 89 7d c8          	mov    %rdi,-0x38(%rbp)
  408bc5:	48 89 75 c0          	mov    %rsi,-0x40(%rbp)
  408bc9:	48 89 55 b8          	mov    %rdx,-0x48(%rbp)
  408bcd:	64 48 8b 04 25 28 00 	mov    %fs:0x28,%rax
  408bd4:	00 00 
  408bd6:	48 89 45 e8          	mov    %rax,-0x18(%rbp)
  408bda:	31 c0                	xor    %eax,%eax
  408bdc:	48 8b 45 c8          	mov    -0x38(%rbp),%rax
  408be0:	48 89 c7             	mov    %rax,%rdi
  408be3:	e8 14 06 00 00       	callq  4091fc <_ZNKSt6vectorIN5boost10shared_ptrIN5caffe4BlobIfEEEESaIS5_EE8max_sizeEv>
  408be8:	48 89 c3             	mov    %rax,%rbx
  408beb:	48 8b 45 c8          	mov    -0x38(%rbp),%rax
  408bef:	48 89 c7             	mov    %rax,%rdi
  408bf2:	e8 97 f5 ff ff       	callq  40818e <_ZNKSt6vectorIN5boost10shared_ptrIN5caffe4BlobIfEEEESaIS5_EE4sizeEv>
  408bf7:	48 29 c3             	sub    %rax,%rbx
  408bfa:	48 89 da             	mov    %rbx,%rdx
  408bfd:	48 8b 45 c0          	mov    -0x40(%rbp),%rax
  408c01:	48 39 c2             	cmp    %rax,%rdx
  408c04:	0f 92 c0             	setb   %al
  408c07:	84 c0                	test   %al,%al
  408c09:	74 0c                	je     408c17 <_ZNKSt6vectorIN5boost10shared_ptrIN5caffe4BlobIfEEEESaIS5_EE12_M_check_lenEmPKc+0x5f>
  408c0b:	48 8b 45 b8          	mov    -0x48(%rbp),%rax
  408c0f:	48 89 c7             	mov    %rax,%rdi
  408c12:	e8 a9 b3 ff ff       	callq  403fc0 <_ZSt20__throw_length_errorPKc@plt>
  408c17:	48 8b 45 c8          	mov    -0x38(%rbp),%rax
  408c1b:	48 89 c7             	mov    %rax,%rdi
  408c1e:	e8 6b f5 ff ff       	callq  40818e <_ZNKSt6vectorIN5boost10shared_ptrIN5caffe4BlobIfEEEESaIS5_EE4sizeEv>
  408c23:	48 89 c3             	mov    %rax,%rbx
  408c26:	48 8b 45 c8          	mov    -0x38(%rbp),%rax
  408c2a:	48 89 c7             	mov    %rax,%rdi
  408c2d:	e8 5c f5 ff ff       	callq  40818e <_ZNKSt6vectorIN5boost10shared_ptrIN5caffe4BlobIfEEEESaIS5_EE4sizeEv>
  408c32:	48 89 45 d8          	mov    %rax,-0x28(%rbp)
  408c36:	48 8d 55 c0          	lea    -0x40(%rbp),%rdx
  408c3a:	48 8d 45 d8          	lea    -0x28(%rbp),%rax
  408c3e:	48 89 d6             	mov    %rdx,%rsi
  408c41:	48 89 c7             	mov    %rax,%rdi
  408c44:	e8 49 f2 ff ff       	callq  407e92 <_ZSt3maxImERKT_S2_S2_>
  408c49:	48 8b 00             	mov    (%rax),%rax
  408c4c:	48 01 d8             	add    %rbx,%rax
  408c4f:	48 89 45 e0          	mov    %rax,-0x20(%rbp)
  408c53:	48 8b 45 c8          	mov    -0x38(%rbp),%rax
  408c57:	48 89 c7             	mov    %rax,%rdi
  408c5a:	e8 2f f5 ff ff       	callq  40818e <_ZNKSt6vectorIN5boost10shared_ptrIN5caffe4BlobIfEEEESaIS5_EE4sizeEv>
  408c5f:	48 3b 45 e0          	cmp    -0x20(%rbp),%rax
  408c63:	77 12                	ja     408c77 <_ZNKSt6vectorIN5boost10shared_ptrIN5caffe4BlobIfEEEESaIS5_EE12_M_check_lenEmPKc+0xbf>
  408c65:	48 8b 45 c8          	mov    -0x38(%rbp),%rax
  408c69:	48 89 c7             	mov    %rax,%rdi
  408c6c:	e8 8b 05 00 00       	callq  4091fc <_ZNKSt6vectorIN5boost10shared_ptrIN5caffe4BlobIfEEEESaIS5_EE8max_sizeEv>
  408c71:	48 3b 45 e0          	cmp    -0x20(%rbp),%rax
  408c75:	73 0e                	jae    408c85 <_ZNKSt6vectorIN5boost10shared_ptrIN5caffe4BlobIfEEEESaIS5_EE12_M_check_lenEmPKc+0xcd>
  408c77:	48 8b 45 c8          	mov    -0x38(%rbp),%rax
  408c7b:	48 89 c7             	mov    %rax,%rdi
  408c7e:	e8 79 05 00 00       	callq  4091fc <_ZNKSt6vectorIN5boost10shared_ptrIN5caffe4BlobIfEEEESaIS5_EE8max_sizeEv>
  408c83:	eb 04                	jmp    408c89 <_ZNKSt6vectorIN5boost10shared_ptrIN5caffe4BlobIfEEEESaIS5_EE12_M_check_lenEmPKc+0xd1>
  408c85:	48 8b 45 e0          	mov    -0x20(%rbp),%rax
  408c89:	48 8b 4d e8          	mov    -0x18(%rbp),%rcx
  408c8d:	64 48 33 0c 25 28 00 	xor    %fs:0x28,%rcx
  408c94:	00 00 
  408c96:	74 05                	je     408c9d <_ZNKSt6vectorIN5boost10shared_ptrIN5caffe4BlobIfEEEESaIS5_EE12_M_check_lenEmPKc+0xe5>
  408c98:	e8 13 b2 ff ff       	callq  403eb0 <__stack_chk_fail@plt>
  408c9d:	48 83 c4 48          	add    $0x48,%rsp
  408ca1:	5b                   	pop    %rbx
  408ca2:	5d                   	pop    %rbp
  408ca3:	c3                   	retq   

0000000000408ca4 <_ZNSt12_Vector_baseIN5boost10shared_ptrIN5caffe4BlobIfEEEESaIS5_EE11_M_allocateEm>:
  408ca4:	55                   	push   %rbp
  408ca5:	48 89 e5             	mov    %rsp,%rbp
  408ca8:	48 83 ec 10          	sub    $0x10,%rsp
  408cac:	48 89 7d f8          	mov    %rdi,-0x8(%rbp)
  408cb0:	48 89 75 f0          	mov    %rsi,-0x10(%rbp)
  408cb4:	48 83 7d f0 00       	cmpq   $0x0,-0x10(%rbp)
  408cb9:	74 15                	je     408cd0 <_ZNSt12_Vector_baseIN5boost10shared_ptrIN5caffe4BlobIfEEEESaIS5_EE11_M_allocateEm+0x2c>
  408cbb:	48 8b 45 f8          	mov    -0x8(%rbp),%rax
  408cbf:	48 8b 55 f0          	mov    -0x10(%rbp),%rdx
  408cc3:	48 89 d6             	mov    %rdx,%rsi
  408cc6:	48 89 c7             	mov    %rax,%rdi
  408cc9:	e8 50 05 00 00       	callq  40921e <_ZNSt16allocator_traitsISaIN5boost10shared_ptrIN5caffe4BlobIfEEEEEE8allocateERS6_m>
  408cce:	eb 05                	jmp    408cd5 <_ZNSt12_Vector_baseIN5boost10shared_ptrIN5caffe4BlobIfEEEESaIS5_EE11_M_allocateEm+0x31>
  408cd0:	b8 00 00 00 00       	mov    $0x0,%eax
  408cd5:	c9                   	leaveq 
  408cd6:	c3                   	retq   

0000000000408cd7 <_ZSt34__uninitialized_move_if_noexcept_aIPN5boost10shared_ptrIN5caffe4BlobIfEEEES6_SaIS5_EET0_T_S9_S8_RT1_>:
  408cd7:	55                   	push   %rbp
  408cd8:	48 89 e5             	mov    %rsp,%rbp
  408cdb:	53                   	push   %rbx
  408cdc:	48 83 ec 28          	sub    $0x28,%rsp
  408ce0:	48 89 7d e8          	mov    %rdi,-0x18(%rbp)
  408ce4:	48 89 75 e0          	mov    %rsi,-0x20(%rbp)
  408ce8:	48 89 55 d8          	mov    %rdx,-0x28(%rbp)
  408cec:	48 89 4d d0          	mov    %rcx,-0x30(%rbp)
  408cf0:	48 8b 45 e0          	mov    -0x20(%rbp),%rax
  408cf4:	48 89 c7             	mov    %rax,%rdi
  408cf7:	e8 4c 05 00 00       	callq  409248 <_ZSt32__make_move_if_noexcept_iteratorIN5boost10shared_ptrIN5caffe4BlobIfEEEESt13move_iteratorIPS5_EET0_PT_>
  408cfc:	48 89 c3             	mov    %rax,%rbx
  408cff:	48 8b 45 e8          	mov    -0x18(%rbp),%rax
  408d03:	48 89 c7             	mov    %rax,%rdi
  408d06:	e8 3d 05 00 00       	callq  409248 <_ZSt32__make_move_if_noexcept_iteratorIN5boost10shared_ptrIN5caffe4BlobIfEEEESt13move_iteratorIPS5_EET0_PT_>
  408d0b:	48 89 c7             	mov    %rax,%rdi
  408d0e:	48 8b 55 d0          	mov    -0x30(%rbp),%rdx
  408d12:	48 8b 45 d8          	mov    -0x28(%rbp),%rax
  408d16:	48 89 d1             	mov    %rdx,%rcx
  408d19:	48 89 c2             	mov    %rax,%rdx
  408d1c:	48 89 de             	mov    %rbx,%rsi
  408d1f:	e8 6c 05 00 00       	callq  409290 <_ZSt22__uninitialized_copy_aISt13move_iteratorIPN5boost10shared_ptrIN5caffe4BlobIfEEEEES7_S6_ET0_T_SA_S9_RSaIT1_E>
  408d24:	48 83 c4 28          	add    $0x28,%rsp
  408d28:	5b                   	pop    %rbx
  408d29:	5d                   	pop    %rbp
  408d2a:	c3                   	retq   

0000000000408d2b <_ZN5boost6detail20sp_pointer_constructIN5caffe4BlobIfEES4_EEvPNS_10shared_ptrIT_EEPT0_RNS0_12shared_countE>:
  408d2b:	55                   	push   %rbp
  408d2c:	48 89 e5             	mov    %rsp,%rbp
  408d2f:	48 83 ec 30          	sub    $0x30,%rsp
  408d33:	48 89 7d e8          	mov    %rdi,-0x18(%rbp)
  408d37:	48 89 75 e0          	mov    %rsi,-0x20(%rbp)
  408d3b:	48 89 55 d8          	mov    %rdx,-0x28(%rbp)
  408d3f:	64 48 8b 04 25 28 00 	mov    %fs:0x28,%rax
  408d46:	00 00 
  408d48:	48 89 45 f8          	mov    %rax,-0x8(%rbp)
  408d4c:	31 c0                	xor    %eax,%eax
  408d4e:	48 8b 55 e0          	mov    -0x20(%rbp),%rdx
  408d52:	48 8d 45 f0          	lea    -0x10(%rbp),%rax
  408d56:	48 89 d6             	mov    %rdx,%rsi
  408d59:	48 89 c7             	mov    %rax,%rdi
  408d5c:	e8 61 05 00 00       	callq  4092c2 <_ZN5boost6detail12shared_countC1IN5caffe4BlobIfEEEEPT_>
  408d61:	48 8b 55 d8          	mov    -0x28(%rbp),%rdx
  408d65:	48 8d 45 f0          	lea    -0x10(%rbp),%rax
  408d69:	48 89 d6             	mov    %rdx,%rsi
  408d6c:	48 89 c7             	mov    %rax,%rdi
  408d6f:	e8 12 b9 ff ff       	callq  404686 <_ZN5boost6detail12shared_count4swapERS1_>
  408d74:	48 8d 45 f0          	lea    -0x10(%rbp),%rax
  408d78:	48 89 c7             	mov    %rax,%rdi
  408d7b:	e8 dc b8 ff ff       	callq  40465c <_ZN5boost6detail12shared_countD1Ev>
  408d80:	48 8b 55 e0          	mov    -0x20(%rbp),%rdx
  408d84:	48 8b 4d e0          	mov    -0x20(%rbp),%rcx
  408d88:	48 8b 45 e8          	mov    -0x18(%rbp),%rax
  408d8c:	48 89 ce             	mov    %rcx,%rsi
  408d8f:	48 89 c7             	mov    %rax,%rdi
  408d92:	b8 00 00 00 00       	mov    $0x0,%eax
  408d97:	e8 1d b9 ff ff       	callq  4046b9 <_ZN5boost6detail26sp_enable_shared_from_thisEz>
  408d9c:	90                   	nop
  408d9d:	48 8b 45 f8          	mov    -0x8(%rbp),%rax
  408da1:	64 48 33 04 25 28 00 	xor    %fs:0x28,%rax
  408da8:	00 00 
  408daa:	74 05                	je     408db1 <_ZN5boost6detail20sp_pointer_constructIN5caffe4BlobIfEES4_EEvPNS_10shared_ptrIT_EEPT0_RNS0_12shared_countE+0x86>
  408dac:	e8 ff b0 ff ff       	callq  403eb0 <__stack_chk_fail@plt>
  408db1:	c9                   	leaveq 
  408db2:	c3                   	retq   

0000000000408db3 <_ZSt4moveIRPN5caffe4BlobIfEEEONSt16remove_referenceIT_E4typeEOS6_>:
  408db3:	55                   	push   %rbp
  408db4:	48 89 e5             	mov    %rsp,%rbp
  408db7:	48 89 7d f8          	mov    %rdi,-0x8(%rbp)
  408dbb:	48 8b 45 f8          	mov    -0x8(%rbp),%rax
  408dbf:	5d                   	pop    %rbp
  408dc0:	c3                   	retq   

0000000000408dc1 <_ZSt4swapIPN5caffe4BlobIfEEENSt9enable_ifIXsrSt6__and_IJSt21is_move_constructibleIT_ESt18is_move_assignableIS7_EEE5valueEvE4typeERS7_SE_>:
  408dc1:	55                   	push   %rbp
  408dc2:	48 89 e5             	mov    %rsp,%rbp
  408dc5:	48 83 ec 20          	sub    $0x20,%rsp
  408dc9:	48 89 7d e8          	mov    %rdi,-0x18(%rbp)
  408dcd:	48 89 75 e0          	mov    %rsi,-0x20(%rbp)
  408dd1:	64 48 8b 04 25 28 00 	mov    %fs:0x28,%rax
  408dd8:	00 00 
  408dda:	48 89 45 f8          	mov    %rax,-0x8(%rbp)
  408dde:	31 c0                	xor    %eax,%eax
  408de0:	48 8b 45 e8          	mov    -0x18(%rbp),%rax
  408de4:	48 89 c7             	mov    %rax,%rdi
  408de7:	e8 c7 ff ff ff       	callq  408db3 <_ZSt4moveIRPN5caffe4BlobIfEEEONSt16remove_referenceIT_E4typeEOS6_>
  408dec:	48 8b 00             	mov    (%rax),%rax
  408def:	48 89 45 f0          	mov    %rax,-0x10(%rbp)
  408df3:	48 8b 45 e0          	mov    -0x20(%rbp),%rax
  408df7:	48 89 c7             	mov    %rax,%rdi
  408dfa:	e8 b4 ff ff ff       	callq  408db3 <_ZSt4moveIRPN5caffe4BlobIfEEEONSt16remove_referenceIT_E4typeEOS6_>
  408dff:	48 8b 10             	mov    (%rax),%rdx
  408e02:	48 8b 45 e8          	mov    -0x18(%rbp),%rax
  408e06:	48 89 10             	mov    %rdx,(%rax)
  408e09:	48 8d 45 f0          	lea    -0x10(%rbp),%rax
  408e0d:	48 89 c7             	mov    %rax,%rdi
  408e10:	e8 9e ff ff ff       	callq  408db3 <_ZSt4moveIRPN5caffe4BlobIfEEEONSt16remove_referenceIT_E4typeEOS6_>
  408e15:	48 8b 10             	mov    (%rax),%rdx
  408e18:	48 8b 45 e0          	mov    -0x20(%rbp),%rax
  408e1c:	48 89 10             	mov    %rdx,(%rax)
  408e1f:	90                   	nop
  408e20:	48 8b 45 f8          	mov    -0x8(%rbp),%rax
  408e24:	64 48 33 04 25 28 00 	xor    %fs:0x28,%rax
  408e2b:	00 00 
  408e2d:	74 05                	je     408e34 <_ZSt4swapIPN5caffe4BlobIfEEENSt9enable_ifIXsrSt6__and_IJSt21is_move_constructibleIT_ESt18is_move_assignableIS7_EEE5valueEvE4typeERS7_SE_+0x73>
  408e2f:	e8 7c b0 ff ff       	callq  403eb0 <__stack_chk_fail@plt>
  408e34:	c9                   	leaveq 
  408e35:	c3                   	retq   

0000000000408e36 <_ZN6google22MakeCheckOpValueStringImEEvPSoRKT_>:
  408e36:	55                   	push   %rbp
  408e37:	48 89 e5             	mov    %rsp,%rbp
  408e3a:	48 83 ec 10          	sub    $0x10,%rsp
  408e3e:	48 89 7d f8          	mov    %rdi,-0x8(%rbp)
  408e42:	48 89 75 f0          	mov    %rsi,-0x10(%rbp)
  408e46:	48 8b 45 f0          	mov    -0x10(%rbp),%rax
  408e4a:	48 8b 10             	mov    (%rax),%rdx
  408e4d:	48 8b 45 f8          	mov    -0x8(%rbp),%rax
  408e51:	48 89 d6             	mov    %rdx,%rsi
  408e54:	48 89 c7             	mov    %rax,%rdi
  408e57:	e8 34 b3 ff ff       	callq  404190 <_ZNSolsEm@plt>
  408e5c:	90                   	nop
  408e5d:	c9                   	leaveq 
  408e5e:	c3                   	retq   
  408e5f:	90                   	nop

0000000000408e60 <_ZNSt6vectorIfSaIfEE3endEv>:
  408e60:	55                   	push   %rbp
  408e61:	48 89 e5             	mov    %rsp,%rbp
  408e64:	48 83 ec 20          	sub    $0x20,%rsp
  408e68:	48 89 7d e8          	mov    %rdi,-0x18(%rbp)
  408e6c:	64 48 8b 04 25 28 00 	mov    %fs:0x28,%rax
  408e73:	00 00 
  408e75:	48 89 45 f8          	mov    %rax,-0x8(%rbp)
  408e79:	31 c0                	xor    %eax,%eax
  408e7b:	48 8b 45 e8          	mov    -0x18(%rbp),%rax
  408e7f:	48 8d 50 08          	lea    0x8(%rax),%rdx
  408e83:	48 8d 45 f0          	lea    -0x10(%rbp),%rax
  408e87:	48 89 d6             	mov    %rdx,%rsi
  408e8a:	48 89 c7             	mov    %rax,%rdi
  408e8d:	e8 a4 04 00 00       	callq  409336 <_ZN9__gnu_cxx17__normal_iteratorIPfSt6vectorIfSaIfEEEC1ERKS1_>
  408e92:	48 8b 45 f0          	mov    -0x10(%rbp),%rax
  408e96:	48 8b 4d f8          	mov    -0x8(%rbp),%rcx
  408e9a:	64 48 33 0c 25 28 00 	xor    %fs:0x28,%rcx
  408ea1:	00 00 
  408ea3:	74 05                	je     408eaa <_ZNSt6vectorIfSaIfEE3endEv+0x4a>
  408ea5:	e8 06 b0 ff ff       	callq  403eb0 <__stack_chk_fail@plt>
  408eaa:	c9                   	leaveq 
  408eab:	c3                   	retq   

0000000000408eac <_ZN9__gnu_cxx17__normal_iteratorIPKfSt6vectorIfSaIfEEEC1IPfEERKNS0_IT_NS_11__enable_ifIXsrSt10__are_sameIS9_S8_E7__valueES5_E6__typeEEE>:
  408eac:	55                   	push   %rbp
  408ead:	48 89 e5             	mov    %rsp,%rbp
  408eb0:	48 83 ec 10          	sub    $0x10,%rsp
  408eb4:	48 89 7d f8          	mov    %rdi,-0x8(%rbp)
  408eb8:	48 89 75 f0          	mov    %rsi,-0x10(%rbp)
  408ebc:	48 8b 45 f0          	mov    -0x10(%rbp),%rax
  408ec0:	48 89 c7             	mov    %rax,%rdi
  408ec3:	e8 8c 04 00 00       	callq  409354 <_ZNK9__gnu_cxx17__normal_iteratorIPfSt6vectorIfSaIfEEE4baseEv>
  408ec8:	48 8b 10             	mov    (%rax),%rdx
  408ecb:	48 8b 45 f8          	mov    -0x8(%rbp),%rax
  408ecf:	48 89 10             	mov    %rdx,(%rax)
  408ed2:	90                   	nop
  408ed3:	c9                   	leaveq 
  408ed4:	c3                   	retq   
  408ed5:	90                   	nop

0000000000408ed6 <_ZNSt6vectorIfSaIfEE6insertEN9__gnu_cxx17__normal_iteratorIPKfS1_EEmRS4_>:
  408ed6:	55                   	push   %rbp
  408ed7:	48 89 e5             	mov    %rsp,%rbp
  408eda:	48 83 ec 40          	sub    $0x40,%rsp
  408ede:	48 89 7d d8          	mov    %rdi,-0x28(%rbp)
  408ee2:	48 89 75 d0          	mov    %rsi,-0x30(%rbp)
  408ee6:	48 89 55 c8          	mov    %rdx,-0x38(%rbp)
  408eea:	48 89 4d c0          	mov    %rcx,-0x40(%rbp)
  408eee:	64 48 8b 04 25 28 00 	mov    %fs:0x28,%rax
  408ef5:	00 00 
  408ef7:	48 89 45 f8          	mov    %rax,-0x8(%rbp)
  408efb:	31 c0                	xor    %eax,%eax
  408efd:	48 8b 45 d8          	mov    -0x28(%rbp),%rax
  408f01:	48 89 c7             	mov    %rax,%rdi
  408f04:	e8 59 04 00 00       	callq  409362 <_ZNKSt6vectorIfSaIfEE6cbeginEv>
  408f09:	48 89 45 e8          	mov    %rax,-0x18(%rbp)
  408f0d:	48 8d 55 e8          	lea    -0x18(%rbp),%rdx
  408f11:	48 8d 45 d0          	lea    -0x30(%rbp),%rax
  408f15:	48 89 d6             	mov    %rdx,%rsi
  408f18:	48 89 c7             	mov    %rax,%rdi
  408f1b:	e8 95 04 00 00       	callq  4093b5 <_ZN9__gnu_cxxmiIPKfSt6vectorIfSaIfEEEENS_17__normal_iteratorIT_T0_E15difference_typeERKS9_SC_>
  408f20:	48 89 45 f0          	mov    %rax,-0x10(%rbp)
  408f24:	48 8b 45 d8          	mov    -0x28(%rbp),%rax
  408f28:	48 89 c7             	mov    %rax,%rdi
  408f2b:	e8 70 09 00 00       	callq  4098a0 <_ZNSt6vectorIfSaIfEE5beginEv>
  408f30:	48 89 45 e8          	mov    %rax,-0x18(%rbp)
  408f34:	48 8b 55 f0          	mov    -0x10(%rbp),%rdx
  408f38:	48 8d 45 e8          	lea    -0x18(%rbp),%rax
  408f3c:	48 89 d6             	mov    %rdx,%rsi
  408f3f:	48 89 c7             	mov    %rax,%rdi
  408f42:	e8 a1 09 00 00       	callq  4098e8 <_ZNK9__gnu_cxx17__normal_iteratorIPfSt6vectorIfSaIfEEEplEl>
  408f47:	48 89 c6             	mov    %rax,%rsi
  408f4a:	48 8b 4d c0          	mov    -0x40(%rbp),%rcx
  408f4e:	48 8b 55 c8          	mov    -0x38(%rbp),%rdx
  408f52:	48 8b 45 d8          	mov    -0x28(%rbp),%rax
  408f56:	48 89 c7             	mov    %rax,%rdi
  408f59:	e8 9a 04 00 00       	callq  4093f8 <_ZNSt6vectorIfSaIfEE14_M_fill_insertEN9__gnu_cxx17__normal_iteratorIPfS1_EEmRKf>
  408f5e:	48 8b 45 d8          	mov    -0x28(%rbp),%rax
  408f62:	48 89 c7             	mov    %rax,%rdi
  408f65:	e8 36 09 00 00       	callq  4098a0 <_ZNSt6vectorIfSaIfEE5beginEv>
  408f6a:	48 89 45 e8          	mov    %rax,-0x18(%rbp)
  408f6e:	48 8b 55 f0          	mov    -0x10(%rbp),%rdx
  408f72:	48 8d 45 e8          	lea    -0x18(%rbp),%rax
  408f76:	48 89 d6             	mov    %rdx,%rsi
  408f79:	48 89 c7             	mov    %rax,%rdi
  408f7c:	e8 67 09 00 00       	callq  4098e8 <_ZNK9__gnu_cxx17__normal_iteratorIPfSt6vectorIfSaIfEEEplEl>
  408f81:	48 8b 4d f8          	mov    -0x8(%rbp),%rcx
  408f85:	64 48 33 0c 25 28 00 	xor    %fs:0x28,%rcx
  408f8c:	00 00 
  408f8e:	74 05                	je     408f95 <_ZNSt6vectorIfSaIfEE6insertEN9__gnu_cxx17__normal_iteratorIPKfS1_EEmRS4_+0xbf>
  408f90:	e8 1b af ff ff       	callq  403eb0 <__stack_chk_fail@plt>
  408f95:	c9                   	leaveq 
  408f96:	c3                   	retq   
  408f97:	90                   	nop

0000000000408f98 <_ZNSt6vectorIfSaIfEE15_M_erase_at_endEPf>:
  408f98:	55                   	push   %rbp
  408f99:	48 89 e5             	mov    %rsp,%rbp
  408f9c:	48 83 ec 10          	sub    $0x10,%rsp
  408fa0:	48 89 7d f8          	mov    %rdi,-0x8(%rbp)
  408fa4:	48 89 75 f0          	mov    %rsi,-0x10(%rbp)
  408fa8:	48 8b 45 f8          	mov    -0x8(%rbp),%rax
  408fac:	48 89 c7             	mov    %rax,%rdi
  408faf:	e8 a2 f1 ff ff       	callq  408156 <_ZNSt12_Vector_baseIfSaIfEE19_M_get_Tp_allocatorEv>
  408fb4:	48 89 c2             	mov    %rax,%rdx
  408fb7:	48 8b 45 f8          	mov    -0x8(%rbp),%rax
  408fbb:	48 8b 48 08          	mov    0x8(%rax),%rcx
  408fbf:	48 8b 45 f0          	mov    -0x10(%rbp),%rax
  408fc3:	48 89 ce             	mov    %rcx,%rsi
  408fc6:	48 89 c7             	mov    %rax,%rdi
  408fc9:	e8 96 f1 ff ff       	callq  408164 <_ZSt8_DestroyIPffEvT_S1_RSaIT0_E>
  408fce:	48 8b 45 f8          	mov    -0x8(%rbp),%rax
  408fd2:	48 8b 55 f0          	mov    -0x10(%rbp),%rdx
  408fd6:	48 89 50 08          	mov    %rdx,0x8(%rax)
  408fda:	90                   	nop
  408fdb:	c9                   	leaveq 
  408fdc:	c3                   	retq   
  408fdd:	90                   	nop

0000000000408fde <_ZN9__gnu_cxx13new_allocatorIiE10deallocateEPim>:
  408fde:	55                   	push   %rbp
  408fdf:	48 89 e5             	mov    %rsp,%rbp
  408fe2:	48 83 ec 20          	sub    $0x20,%rsp
  408fe6:	48 89 7d f8          	mov    %rdi,-0x8(%rbp)
  408fea:	48 89 75 f0          	mov    %rsi,-0x10(%rbp)
  408fee:	48 89 55 e8          	mov    %rdx,-0x18(%rbp)
  408ff2:	48 8b 45 f0          	mov    -0x10(%rbp),%rax
  408ff6:	48 89 c7             	mov    %rax,%rdi
  408ff9:	e8 62 af ff ff       	callq  403f60 <_ZdlPv@plt>
  408ffe:	90                   	nop
  408fff:	c9                   	leaveq 
  409000:	c3                   	retq   
  409001:	90                   	nop

0000000000409002 <_ZNK9__gnu_cxx13new_allocatorIPN5caffe4BlobIfEEE8max_sizeEv>:
  409002:	55                   	push   %rbp
  409003:	48 89 e5             	mov    %rsp,%rbp
  409006:	48 89 7d f8          	mov    %rdi,-0x8(%rbp)
  40900a:	48 b8 ff ff ff ff ff 	movabs $0x1fffffffffffffff,%rax
  409011:	ff ff 1f 
  409014:	5d                   	pop    %rbp
  409015:	c3                   	retq   

0000000000409016 <_ZNSt20__uninitialized_copyILb1EE13__uninit_copyISt13move_iteratorIPPN5caffe4BlobIfEEES7_EET0_T_SA_S9_>:
  409016:	55                   	push   %rbp
  409017:	48 89 e5             	mov    %rsp,%rbp
  40901a:	48 83 ec 20          	sub    $0x20,%rsp
  40901e:	48 89 7d f8          	mov    %rdi,-0x8(%rbp)
  409022:	48 89 75 f0          	mov    %rsi,-0x10(%rbp)
  409026:	48 89 55 e8          	mov    %rdx,-0x18(%rbp)
  40902a:	48 8b 55 e8          	mov    -0x18(%rbp),%rdx
  40902e:	48 8b 4d f0          	mov    -0x10(%rbp),%rcx
  409032:	48 8b 45 f8          	mov    -0x8(%rbp),%rax
  409036:	48 89 ce             	mov    %rcx,%rsi
  409039:	48 89 c7             	mov    %rax,%rdi
  40903c:	e8 09 09 00 00       	callq  40994a <_ZSt4copyISt13move_iteratorIPPN5caffe4BlobIfEEES5_ET0_T_S8_S7_>
  409041:	c9                   	leaveq 
  409042:	c3                   	retq   
  409043:	90                   	nop

0000000000409044 <_ZN9__gnu_cxx13new_allocatorIiEC1Ev>:
  409044:	55                   	push   %rbp
  409045:	48 89 e5             	mov    %rsp,%rbp
  409048:	48 89 7d f8          	mov    %rdi,-0x8(%rbp)
  40904c:	90                   	nop
  40904d:	5d                   	pop    %rbp
  40904e:	c3                   	retq   
  40904f:	90                   	nop

0000000000409050 <_ZNSaIN5boost10shared_ptrIN5caffe4BlobIfEEEEEC1Ev>:
  409050:	55                   	push   %rbp
  409051:	48 89 e5             	mov    %rsp,%rbp
  409054:	48 83 ec 10          	sub    $0x10,%rsp
  409058:	48 89 7d f8          	mov    %rdi,-0x8(%rbp)
  40905c:	48 8b 45 f8          	mov    -0x8(%rbp),%rax
  409060:	48 89 c7             	mov    %rax,%rdi
  409063:	e8 2e 09 00 00       	callq  409996 <_ZN9__gnu_cxx13new_allocatorIN5boost10shared_ptrIN5caffe4BlobIfEEEEEC1Ev>
  409068:	90                   	nop
  409069:	c9                   	leaveq 
  40906a:	c3                   	retq   
  40906b:	90                   	nop

000000000040906c <_ZN9__gnu_cxx13new_allocatorIN5boost10shared_ptrIN5caffe4BlobIfEEEEED1Ev>:
  40906c:	55                   	push   %rbp
  40906d:	48 89 e5             	mov    %rsp,%rbp
  409070:	48 89 7d f8          	mov    %rdi,-0x8(%rbp)
  409074:	90                   	nop
  409075:	5d                   	pop    %rbp
  409076:	c3                   	retq   

0000000000409077 <_ZNSt16allocator_traitsISaIN5boost10shared_ptrIN5caffe4BlobIfEEEEEE10deallocateERS6_PS5_m>:
  409077:	55                   	push   %rbp
  409078:	48 89 e5             	mov    %rsp,%rbp
  40907b:	48 83 ec 20          	sub    $0x20,%rsp
  40907f:	48 89 7d f8          	mov    %rdi,-0x8(%rbp)
  409083:	48 89 75 f0          	mov    %rsi,-0x10(%rbp)
  409087:	48 89 55 e8          	mov    %rdx,-0x18(%rbp)
  40908b:	48 8b 55 e8          	mov    -0x18(%rbp),%rdx
  40908f:	48 8b 4d f0          	mov    -0x10(%rbp),%rcx
  409093:	48 8b 45 f8          	mov    -0x8(%rbp),%rax
  409097:	48 89 ce             	mov    %rcx,%rsi
  40909a:	48 89 c7             	mov    %rax,%rdi
  40909d:	e8 00 09 00 00       	callq  4099a2 <_ZN9__gnu_cxx13new_allocatorIN5boost10shared_ptrIN5caffe4BlobIfEEEEE10deallocateEPS6_m>
  4090a2:	90                   	nop
  4090a3:	c9                   	leaveq 
  4090a4:	c3                   	retq   

00000000004090a5 <_ZNSt12_Destroy_auxILb0EE9__destroyIPN5boost10shared_ptrIN5caffe4BlobIfEEEEEEvT_S9_>:
  4090a5:	55                   	push   %rbp
  4090a6:	48 89 e5             	mov    %rsp,%rbp
  4090a9:	48 83 ec 10          	sub    $0x10,%rsp
  4090ad:	48 89 7d f8          	mov    %rdi,-0x8(%rbp)
  4090b1:	48 89 75 f0          	mov    %rsi,-0x10(%rbp)
  4090b5:	48 8b 45 f8          	mov    -0x8(%rbp),%rax
  4090b9:	48 3b 45 f0          	cmp    -0x10(%rbp),%rax
  4090bd:	74 1b                	je     4090da <_ZNSt12_Destroy_auxILb0EE9__destroyIPN5boost10shared_ptrIN5caffe4BlobIfEEEEEEvT_S9_+0x35>
  4090bf:	48 8b 45 f8          	mov    -0x8(%rbp),%rax
  4090c3:	48 89 c7             	mov    %rax,%rdi
  4090c6:	e8 fa 08 00 00       	callq  4099c5 <_ZSt11__addressofIN5boost10shared_ptrIN5caffe4BlobIfEEEEEPT_RS6_>
  4090cb:	48 89 c7             	mov    %rax,%rdi
  4090ce:	e8 00 09 00 00       	callq  4099d3 <_ZSt8_DestroyIN5boost10shared_ptrIN5caffe4BlobIfEEEEEvPT_>
  4090d3:	48 83 45 f8 10       	addq   $0x10,-0x8(%rbp)
  4090d8:	eb db                	jmp    4090b5 <_ZNSt12_Destroy_auxILb0EE9__destroyIPN5boost10shared_ptrIN5caffe4BlobIfEEEEEEvT_S9_+0x10>
  4090da:	90                   	nop
  4090db:	c9                   	leaveq 
  4090dc:	c3                   	retq   
  4090dd:	90                   	nop

00000000004090de <_ZNSaImEC1Ev>:
  4090de:	55                   	push   %rbp
  4090df:	48 89 e5             	mov    %rsp,%rbp
  4090e2:	48 83 ec 10          	sub    $0x10,%rsp
  4090e6:	48 89 7d f8          	mov    %rdi,-0x8(%rbp)
  4090ea:	48 8b 45 f8          	mov    -0x8(%rbp),%rax
  4090ee:	48 89 c7             	mov    %rax,%rdi
  4090f1:	e8 f8 08 00 00       	callq  4099ee <_ZN9__gnu_cxx13new_allocatorImEC1Ev>
  4090f6:	90                   	nop
  4090f7:	c9                   	leaveq 
  4090f8:	c3                   	retq   
  4090f9:	90                   	nop

00000000004090fa <_ZN9__gnu_cxx13new_allocatorImED1Ev>:
  4090fa:	55                   	push   %rbp
  4090fb:	48 89 e5             	mov    %rsp,%rbp
  4090fe:	48 89 7d f8          	mov    %rdi,-0x8(%rbp)
  409102:	90                   	nop
  409103:	5d                   	pop    %rbp
  409104:	c3                   	retq   
  409105:	90                   	nop

0000000000409106 <_ZNKSt13_Bvector_baseISaIbEE13_Bvector_impl11_M_end_addrEv>:
  409106:	55                   	push   %rbp
  409107:	48 89 e5             	mov    %rsp,%rbp
  40910a:	48 83 ec 10          	sub    $0x10,%rsp
  40910e:	48 89 7d f8          	mov    %rdi,-0x8(%rbp)
  409112:	48 8b 45 f8          	mov    -0x8(%rbp),%rax
  409116:	48 8b 40 20          	mov    0x20(%rax),%rax
  40911a:	48 85 c0             	test   %rax,%rax
  40911d:	74 1a                	je     409139 <_ZNKSt13_Bvector_baseISaIbEE13_Bvector_impl11_M_end_addrEv+0x33>
  40911f:	48 8b 45 f8          	mov    -0x8(%rbp),%rax
  409123:	48 8b 40 20          	mov    0x20(%rax),%rax
  409127:	48 83 e8 08          	sub    $0x8,%rax
  40912b:	48 89 c7             	mov    %rax,%rdi
  40912e:	e8 c6 08 00 00       	callq  4099f9 <_ZSt11__addressofImEPT_RS0_>
  409133:	48 83 c0 08          	add    $0x8,%rax
  409137:	eb 05                	jmp    40913e <_ZNKSt13_Bvector_baseISaIbEE13_Bvector_impl11_M_end_addrEv+0x38>
  409139:	b8 00 00 00 00       	mov    $0x0,%eax
  40913e:	c9                   	leaveq 
  40913f:	c3                   	retq   

0000000000409140 <_ZNSt16allocator_traitsISaImEE10deallocateERS0_Pmm>:
  409140:	55                   	push   %rbp
  409141:	48 89 e5             	mov    %rsp,%rbp
  409144:	48 83 ec 20          	sub    $0x20,%rsp
  409148:	48 89 7d f8          	mov    %rdi,-0x8(%rbp)
  40914c:	48 89 75 f0          	mov    %rsi,-0x10(%rbp)
  409150:	48 89 55 e8          	mov    %rdx,-0x18(%rbp)
  409154:	48 8b 55 e8          	mov    -0x18(%rbp),%rdx
  409158:	48 8b 4d f0          	mov    -0x10(%rbp),%rcx
  40915c:	48 8b 45 f8          	mov    -0x8(%rbp),%rax
  409160:	48 89 ce             	mov    %rcx,%rsi
  409163:	48 89 c7             	mov    %rax,%rdi
  409166:	e8 9d 08 00 00       	callq  409a08 <_ZN9__gnu_cxx13new_allocatorImE10deallocateEPmm>
  40916b:	90                   	nop
  40916c:	c9                   	leaveq 
  40916d:	c3                   	retq   

000000000040916e <_ZNSaIfEC1Ev>:
  40916e:	55                   	push   %rbp
  40916f:	48 89 e5             	mov    %rsp,%rbp
  409172:	48 83 ec 10          	sub    $0x10,%rsp
  409176:	48 89 7d f8          	mov    %rdi,-0x8(%rbp)
  40917a:	48 8b 45 f8          	mov    -0x8(%rbp),%rax
  40917e:	48 89 c7             	mov    %rax,%rdi
  409181:	e8 a6 08 00 00       	callq  409a2c <_ZN9__gnu_cxx13new_allocatorIfEC1Ev>
  409186:	90                   	nop
  409187:	c9                   	leaveq 
  409188:	c3                   	retq   
  409189:	90                   	nop

000000000040918a <_ZN9__gnu_cxx13new_allocatorIfED1Ev>:
  40918a:	55                   	push   %rbp
  40918b:	48 89 e5             	mov    %rsp,%rbp
  40918e:	48 89 7d f8          	mov    %rdi,-0x8(%rbp)
  409192:	90                   	nop
  409193:	5d                   	pop    %rbp
  409194:	c3                   	retq   

0000000000409195 <_ZNSt16allocator_traitsISaIfEE10deallocateERS0_Pfm>:
  409195:	55                   	push   %rbp
  409196:	48 89 e5             	mov    %rsp,%rbp
  409199:	48 83 ec 20          	sub    $0x20,%rsp
  40919d:	48 89 7d f8          	mov    %rdi,-0x8(%rbp)
  4091a1:	48 89 75 f0          	mov    %rsi,-0x10(%rbp)
  4091a5:	48 89 55 e8          	mov    %rdx,-0x18(%rbp)
  4091a9:	48 8b 55 e8          	mov    -0x18(%rbp),%rdx
  4091ad:	48 8b 4d f0          	mov    -0x10(%rbp),%rcx
  4091b1:	48 8b 45 f8          	mov    -0x8(%rbp),%rax
  4091b5:	48 89 ce             	mov    %rcx,%rsi
  4091b8:	48 89 c7             	mov    %rax,%rdi
  4091bb:	e8 78 08 00 00       	callq  409a38 <_ZN9__gnu_cxx13new_allocatorIfE10deallocateEPfm>
  4091c0:	90                   	nop
  4091c1:	c9                   	leaveq 
  4091c2:	c3                   	retq   

00000000004091c3 <_ZNSt12_Destroy_auxILb1EE9__destroyIPfEEvT_S3_>:
  4091c3:	55                   	push   %rbp
  4091c4:	48 89 e5             	mov    %rsp,%rbp
  4091c7:	48 89 7d f8          	mov    %rdi,-0x8(%rbp)
  4091cb:	48 89 75 f0          	mov    %rsi,-0x10(%rbp)
  4091cf:	90                   	nop
  4091d0:	5d                   	pop    %rbp
  4091d1:	c3                   	retq   

00000000004091d2 <_ZSt25__uninitialized_default_nIPN5boost10shared_ptrIN5caffe4BlobIfEEEEmET_S7_T0_>:
  4091d2:	55                   	push   %rbp
  4091d3:	48 89 e5             	mov    %rsp,%rbp
  4091d6:	48 83 ec 20          	sub    $0x20,%rsp
  4091da:	48 89 7d e8          	mov    %rdi,-0x18(%rbp)
  4091de:	48 89 75 e0          	mov    %rsi,-0x20(%rbp)
  4091e2:	c6 45 ff 01          	movb   $0x1,-0x1(%rbp)
  4091e6:	48 8b 55 e0          	mov    -0x20(%rbp),%rdx
  4091ea:	48 8b 45 e8          	mov    -0x18(%rbp),%rax
  4091ee:	48 89 d6             	mov    %rdx,%rsi
  4091f1:	48 89 c7             	mov    %rax,%rdi
  4091f4:	e8 62 08 00 00       	callq  409a5b <_ZNSt27__uninitialized_default_n_1ILb0EE18__uninit_default_nIPN5boost10shared_ptrIN5caffe4BlobIfEEEEmEET_S9_T0_>
  4091f9:	c9                   	leaveq 
  4091fa:	c3                   	retq   
  4091fb:	90                   	nop

00000000004091fc <_ZNKSt6vectorIN5boost10shared_ptrIN5caffe4BlobIfEEEESaIS5_EE8max_sizeEv>:
  4091fc:	55                   	push   %rbp
  4091fd:	48 89 e5             	mov    %rsp,%rbp
  409200:	48 83 ec 10          	sub    $0x10,%rsp
  409204:	48 89 7d f8          	mov    %rdi,-0x8(%rbp)
  409208:	48 8b 45 f8          	mov    -0x8(%rbp),%rax
  40920c:	48 89 c7             	mov    %rax,%rdi
  40920f:	e8 a6 08 00 00       	callq  409aba <_ZNKSt12_Vector_baseIN5boost10shared_ptrIN5caffe4BlobIfEEEESaIS5_EE19_M_get_Tp_allocatorEv>
  409214:	48 89 c7             	mov    %rax,%rdi
  409217:	e8 84 08 00 00       	callq  409aa0 <_ZNSt16allocator_traitsISaIN5boost10shared_ptrIN5caffe4BlobIfEEEEEE8max_sizeERKS6_>
  40921c:	c9                   	leaveq 
  40921d:	c3                   	retq   

000000000040921e <_ZNSt16allocator_traitsISaIN5boost10shared_ptrIN5caffe4BlobIfEEEEEE8allocateERS6_m>:
  40921e:	55                   	push   %rbp
  40921f:	48 89 e5             	mov    %rsp,%rbp
  409222:	48 83 ec 10          	sub    $0x10,%rsp
  409226:	48 89 7d f8          	mov    %rdi,-0x8(%rbp)
  40922a:	48 89 75 f0          	mov    %rsi,-0x10(%rbp)
  40922e:	48 8b 4d f0          	mov    -0x10(%rbp),%rcx
  409232:	48 8b 45 f8          	mov    -0x8(%rbp),%rax
  409236:	ba 00 00 00 00       	mov    $0x0,%edx
  40923b:	48 89 ce             	mov    %rcx,%rsi
  40923e:	48 89 c7             	mov    %rax,%rdi
  409241:	e8 82 08 00 00       	callq  409ac8 <_ZN9__gnu_cxx13new_allocatorIN5boost10shared_ptrIN5caffe4BlobIfEEEEE8allocateEmPKv>
  409246:	c9                   	leaveq 
  409247:	c3                   	retq   

0000000000409248 <_ZSt32__make_move_if_noexcept_iteratorIN5boost10shared_ptrIN5caffe4BlobIfEEEESt13move_iteratorIPS5_EET0_PT_>:
  409248:	55                   	push   %rbp
  409249:	48 89 e5             	mov    %rsp,%rbp
  40924c:	48 83 ec 20          	sub    $0x20,%rsp
  409250:	48 89 7d e8          	mov    %rdi,-0x18(%rbp)
  409254:	64 48 8b 04 25 28 00 	mov    %fs:0x28,%rax
  40925b:	00 00 
  40925d:	48 89 45 f8          	mov    %rax,-0x8(%rbp)
  409261:	31 c0                	xor    %eax,%eax
  409263:	48 8b 55 e8          	mov    -0x18(%rbp),%rdx
  409267:	48 8d 45 f0          	lea    -0x10(%rbp),%rax
  40926b:	48 89 d6             	mov    %rdx,%rsi
  40926e:	48 89 c7             	mov    %rax,%rdi
  409271:	e8 94 08 00 00       	callq  409b0a <_ZNSt13move_iteratorIPN5boost10shared_ptrIN5caffe4BlobIfEEEEEC1ES6_>
  409276:	48 8b 45 f0          	mov    -0x10(%rbp),%rax
  40927a:	48 8b 4d f8          	mov    -0x8(%rbp),%rcx
  40927e:	64 48 33 0c 25 28 00 	xor    %fs:0x28,%rcx
  409285:	00 00 
  409287:	74 05                	je     40928e <_ZSt32__make_move_if_noexcept_iteratorIN5boost10shared_ptrIN5caffe4BlobIfEEEESt13move_iteratorIPS5_EET0_PT_+0x46>
  409289:	e8 22 ac ff ff       	callq  403eb0 <__stack_chk_fail@plt>
  40928e:	c9                   	leaveq 
  40928f:	c3                   	retq   

0000000000409290 <_ZSt22__uninitialized_copy_aISt13move_iteratorIPN5boost10shared_ptrIN5caffe4BlobIfEEEEES7_S6_ET0_T_SA_S9_RSaIT1_E>:
  409290:	55                   	push   %rbp
  409291:	48 89 e5             	mov    %rsp,%rbp
  409294:	48 83 ec 20          	sub    $0x20,%rsp
  409298:	48 89 7d f8          	mov    %rdi,-0x8(%rbp)
  40929c:	48 89 75 f0          	mov    %rsi,-0x10(%rbp)
  4092a0:	48 89 55 e8          	mov    %rdx,-0x18(%rbp)
  4092a4:	48 89 4d e0          	mov    %rcx,-0x20(%rbp)
  4092a8:	48 8b 55 e8          	mov    -0x18(%rbp),%rdx
  4092ac:	48 8b 4d f0          	mov    -0x10(%rbp),%rcx
  4092b0:	48 8b 45 f8          	mov    -0x8(%rbp),%rax
  4092b4:	48 89 ce             	mov    %rcx,%rsi
  4092b7:	48 89 c7             	mov    %rax,%rdi
  4092ba:	e8 65 08 00 00       	callq  409b24 <_ZSt18uninitialized_copyISt13move_iteratorIPN5boost10shared_ptrIN5caffe4BlobIfEEEEES7_ET0_T_SA_S9_>
  4092bf:	c9                   	leaveq 
  4092c0:	c3                   	retq   
  4092c1:	90                   	nop

00000000004092c2 <_ZN5boost6detail12shared_countC1IN5caffe4BlobIfEEEEPT_>:
  4092c2:	55                   	push   %rbp
  4092c3:	48 89 e5             	mov    %rsp,%rbp
  4092c6:	53                   	push   %rbx
  4092c7:	48 83 ec 18          	sub    $0x18,%rsp
  4092cb:	48 89 7d e8          	mov    %rdi,-0x18(%rbp)
  4092cf:	48 89 75 e0          	mov    %rsi,-0x20(%rbp)
  4092d3:	48 8b 45 e8          	mov    -0x18(%rbp),%rax
  4092d7:	48 c7 00 00 00 00 00 	movq   $0x0,(%rax)
  4092de:	bf 18 00 00 00       	mov    $0x18,%edi
  4092e3:	e8 68 ab ff ff       	callq  403e50 <_Znwm@plt>
  4092e8:	48 89 c3             	mov    %rax,%rbx
  4092eb:	48 8b 45 e0          	mov    -0x20(%rbp),%rax
  4092ef:	48 89 c6             	mov    %rax,%rsi
  4092f2:	48 89 df             	mov    %rbx,%rdi
  4092f5:	e8 5c 08 00 00       	callq  409b56 <_ZN5boost6detail17sp_counted_impl_pIN5caffe4BlobIfEEEC1EPS4_>
  4092fa:	48 8b 45 e8          	mov    -0x18(%rbp),%rax
  4092fe:	48 89 18             	mov    %rbx,(%rax)
  409301:	eb 2c                	jmp    40932f <_ZN5boost6detail12shared_countC1IN5caffe4BlobIfEEEEPT_+0x6d>
  409303:	48 89 c7             	mov    %rax,%rdi
  409306:	e8 d5 aa ff ff       	callq  403de0 <__cxa_begin_catch@plt>
  40930b:	48 8b 45 e0          	mov    -0x20(%rbp),%rax
  40930f:	48 89 c7             	mov    %rax,%rdi
  409312:	e8 76 08 00 00       	callq  409b8d <_ZN5boost14checked_deleteIN5caffe4BlobIfEEEEvPT_>
  409317:	e8 74 ad ff ff       	callq  404090 <__cxa_rethrow@plt>
  40931c:	48 89 c3             	mov    %rax,%rbx
  40931f:	e8 3c ad ff ff       	callq  404060 <__cxa_end_catch@plt>
  409324:	48 89 d8             	mov    %rbx,%rax
  409327:	48 89 c7             	mov    %rax,%rdi
  40932a:	e8 c1 ac ff ff       	callq  403ff0 <_Unwind_Resume@plt>
  40932f:	48 83 c4 18          	add    $0x18,%rsp
  409333:	5b                   	pop    %rbx
  409334:	5d                   	pop    %rbp
  409335:	c3                   	retq   

0000000000409336 <_ZN9__gnu_cxx17__normal_iteratorIPfSt6vectorIfSaIfEEEC1ERKS1_>:
  409336:	55                   	push   %rbp
  409337:	48 89 e5             	mov    %rsp,%rbp
  40933a:	48 89 7d f8          	mov    %rdi,-0x8(%rbp)
  40933e:	48 89 75 f0          	mov    %rsi,-0x10(%rbp)
  409342:	48 8b 45 f0          	mov    -0x10(%rbp),%rax
  409346:	48 8b 10             	mov    (%rax),%rdx
  409349:	48 8b 45 f8          	mov    -0x8(%rbp),%rax
  40934d:	48 89 10             	mov    %rdx,(%rax)
  409350:	90                   	nop
  409351:	5d                   	pop    %rbp
  409352:	c3                   	retq   
  409353:	90                   	nop

0000000000409354 <_ZNK9__gnu_cxx17__normal_iteratorIPfSt6vectorIfSaIfEEE4baseEv>:
  409354:	55                   	push   %rbp
  409355:	48 89 e5             	mov    %rsp,%rbp
  409358:	48 89 7d f8          	mov    %rdi,-0x8(%rbp)
  40935c:	48 8b 45 f8          	mov    -0x8(%rbp),%rax
  409360:	5d                   	pop    %rbp
  409361:	c3                   	retq   

0000000000409362 <_ZNKSt6vectorIfSaIfEE6cbeginEv>:
  409362:	55                   	push   %rbp
  409363:	48 89 e5             	mov    %rsp,%rbp
  409366:	48 83 ec 30          	sub    $0x30,%rsp
  40936a:	48 89 7d d8          	mov    %rdi,-0x28(%rbp)
  40936e:	64 48 8b 04 25 28 00 	mov    %fs:0x28,%rax
  409375:	00 00 
  409377:	48 89 45 f8          	mov    %rax,-0x8(%rbp)
  40937b:	31 c0                	xor    %eax,%eax
  40937d:	48 8b 45 d8          	mov    -0x28(%rbp),%rax
  409381:	48 8b 00             	mov    (%rax),%rax
  409384:	48 89 45 e8          	mov    %rax,-0x18(%rbp)
  409388:	48 8d 55 e8          	lea    -0x18(%rbp),%rdx
  40938c:	48 8d 45 f0          	lea    -0x10(%rbp),%rax
  409390:	48 89 d6             	mov    %rdx,%rsi
  409393:	48 89 c7             	mov    %rax,%rdi
  409396:	e8 21 08 00 00       	callq  409bbc <_ZN9__gnu_cxx17__normal_iteratorIPKfSt6vectorIfSaIfEEEC1ERKS2_>
  40939b:	48 8b 45 f0          	mov    -0x10(%rbp),%rax
  40939f:	48 8b 4d f8          	mov    -0x8(%rbp),%rcx
  4093a3:	64 48 33 0c 25 28 00 	xor    %fs:0x28,%rcx
  4093aa:	00 00 
  4093ac:	74 05                	je     4093b3 <_ZNKSt6vectorIfSaIfEE6cbeginEv+0x51>
  4093ae:	e8 fd aa ff ff       	callq  403eb0 <__stack_chk_fail@plt>
  4093b3:	c9                   	leaveq 
  4093b4:	c3                   	retq   

00000000004093b5 <_ZN9__gnu_cxxmiIPKfSt6vectorIfSaIfEEEENS_17__normal_iteratorIT_T0_E15difference_typeERKS9_SC_>:
  4093b5:	55                   	push   %rbp
  4093b6:	48 89 e5             	mov    %rsp,%rbp
  4093b9:	53                   	push   %rbx
  4093ba:	48 83 ec 18          	sub    $0x18,%rsp
  4093be:	48 89 7d e8          	mov    %rdi,-0x18(%rbp)
  4093c2:	48 89 75 e0          	mov    %rsi,-0x20(%rbp)
  4093c6:	48 8b 45 e8          	mov    -0x18(%rbp),%rax
  4093ca:	48 89 c7             	mov    %rax,%rdi
  4093cd:	e8 08 08 00 00       	callq  409bda <_ZNK9__gnu_cxx17__normal_iteratorIPKfSt6vectorIfSaIfEEE4baseEv>
  4093d2:	48 8b 00             	mov    (%rax),%rax
  4093d5:	48 89 c3             	mov    %rax,%rbx
  4093d8:	48 8b 45 e0          	mov    -0x20(%rbp),%rax
  4093dc:	48 89 c7             	mov    %rax,%rdi
  4093df:	e8 f6 07 00 00       	callq  409bda <_ZNK9__gnu_cxx17__normal_iteratorIPKfSt6vectorIfSaIfEEE4baseEv>
  4093e4:	48 8b 00             	mov    (%rax),%rax
  4093e7:	48 29 c3             	sub    %rax,%rbx
  4093ea:	48 89 d8             	mov    %rbx,%rax
  4093ed:	48 c1 f8 02          	sar    $0x2,%rax
  4093f1:	48 83 c4 18          	add    $0x18,%rsp
  4093f5:	5b                   	pop    %rbx
  4093f6:	5d                   	pop    %rbp
  4093f7:	c3                   	retq   

00000000004093f8 <_ZNSt6vectorIfSaIfEE14_M_fill_insertEN9__gnu_cxx17__normal_iteratorIPfS1_EEmRKf>:
  4093f8:	55                   	push   %rbp
  4093f9:	48 89 e5             	mov    %rsp,%rbp
  4093fc:	41 54                	push   %r12
  4093fe:	53                   	push   %rbx
  4093ff:	48 83 ec 70          	sub    $0x70,%rsp
  409403:	48 89 7d 98          	mov    %rdi,-0x68(%rbp)
  409407:	48 89 75 90          	mov    %rsi,-0x70(%rbp)
  40940b:	48 89 55 88          	mov    %rdx,-0x78(%rbp)
  40940f:	48 89 4d 80          	mov    %rcx,-0x80(%rbp)
  409413:	64 48 8b 04 25 28 00 	mov    %fs:0x28,%rax
  40941a:	00 00 
  40941c:	48 89 45 e8          	mov    %rax,-0x18(%rbp)
  409420:	31 c0                	xor    %eax,%eax
  409422:	48 83 7d 88 00       	cmpq   $0x0,-0x78(%rbp)
  409427:	0f 84 55 04 00 00    	je     409882 <_ZNSt6vectorIfSaIfEE14_M_fill_insertEN9__gnu_cxx17__normal_iteratorIPfS1_EEmRKf+0x48a>
  40942d:	48 8b 45 98          	mov    -0x68(%rbp),%rax
  409431:	48 8b 40 10          	mov    0x10(%rax),%rax
  409435:	48 89 c2             	mov    %rax,%rdx
  409438:	48 8b 45 98          	mov    -0x68(%rbp),%rax
  40943c:	48 8b 40 08          	mov    0x8(%rax),%rax
  409440:	48 29 c2             	sub    %rax,%rdx
  409443:	48 89 d0             	mov    %rdx,%rax
  409446:	48 c1 f8 02          	sar    $0x2,%rax
  40944a:	48 3b 45 88          	cmp    -0x78(%rbp),%rax
  40944e:	0f 82 cf 01 00 00    	jb     409623 <_ZNSt6vectorIfSaIfEE14_M_fill_insertEN9__gnu_cxx17__normal_iteratorIPfS1_EEmRKf+0x22b>
  409454:	48 8b 45 80          	mov    -0x80(%rbp),%rax
  409458:	f3 0f 10 00          	movss  (%rax),%xmm0
  40945c:	f3 0f 11 45 ac       	movss  %xmm0,-0x54(%rbp)
  409461:	48 8b 45 98          	mov    -0x68(%rbp),%rax
  409465:	48 89 c7             	mov    %rax,%rdi
  409468:	e8 f3 f9 ff ff       	callq  408e60 <_ZNSt6vectorIfSaIfEE3endEv>
  40946d:	48 89 45 b0          	mov    %rax,-0x50(%rbp)
  409471:	48 8d 55 90          	lea    -0x70(%rbp),%rdx
  409475:	48 8d 45 b0          	lea    -0x50(%rbp),%rax
  409479:	48 89 d6             	mov    %rdx,%rsi
  40947c:	48 89 c7             	mov    %rax,%rdi
  40947f:	e8 64 07 00 00       	callq  409be8 <_ZN9__gnu_cxxmiIPfSt6vectorIfSaIfEEEENS_17__normal_iteratorIT_T0_E15difference_typeERKS8_SB_>
  409484:	48 89 45 c0          	mov    %rax,-0x40(%rbp)
  409488:	48 8b 45 98          	mov    -0x68(%rbp),%rax
  40948c:	48 8b 40 08          	mov    0x8(%rax),%rax
  409490:	48 89 45 c8          	mov    %rax,-0x38(%rbp)
  409494:	48 8b 45 c0          	mov    -0x40(%rbp),%rax
  409498:	48 3b 45 88          	cmp    -0x78(%rbp),%rax
  40949c:	0f 86 ce 00 00 00    	jbe    409570 <_ZNSt6vectorIfSaIfEE14_M_fill_insertEN9__gnu_cxx17__normal_iteratorIPfS1_EEmRKf+0x178>
  4094a2:	48 8b 45 98          	mov    -0x68(%rbp),%rax
  4094a6:	48 89 c7             	mov    %rax,%rdi
  4094a9:	e8 a8 ec ff ff       	callq  408156 <_ZNSt12_Vector_baseIfSaIfEE19_M_get_Tp_allocatorEv>
  4094ae:	49 89 c0             	mov    %rax,%r8
  4094b1:	48 8b 45 98          	mov    -0x68(%rbp),%rax
  4094b5:	48 8b 50 08          	mov    0x8(%rax),%rdx
  4094b9:	48 8b 45 98          	mov    -0x68(%rbp),%rax
  4094bd:	48 8b 40 08          	mov    0x8(%rax),%rax
  4094c1:	48 8b 4d 98          	mov    -0x68(%rbp),%rcx
  4094c5:	48 8b 49 08          	mov    0x8(%rcx),%rcx
  4094c9:	48 8b 75 88          	mov    -0x78(%rbp),%rsi
  4094cd:	48 c1 e6 02          	shl    $0x2,%rsi
  4094d1:	48 f7 de             	neg    %rsi
  4094d4:	48 8d 3c 31          	lea    (%rcx,%rsi,1),%rdi
  4094d8:	4c 89 c1             	mov    %r8,%rcx
  4094db:	48 89 c6             	mov    %rax,%rsi
  4094de:	e8 48 07 00 00       	callq  409c2b <_ZSt22__uninitialized_move_aIPfS0_SaIfEET0_T_S3_S2_RT1_>
  4094e3:	48 8b 45 98          	mov    -0x68(%rbp),%rax
  4094e7:	48 8b 40 08          	mov    0x8(%rax),%rax
  4094eb:	48 8b 55 88          	mov    -0x78(%rbp),%rdx
  4094ef:	48 c1 e2 02          	shl    $0x2,%rdx
  4094f3:	48 01 c2             	add    %rax,%rdx
  4094f6:	48 8b 45 98          	mov    -0x68(%rbp),%rax
  4094fa:	48 89 50 08          	mov    %rdx,0x8(%rax)
  4094fe:	48 8b 45 88          	mov    -0x78(%rbp),%rax
  409502:	48 c1 e0 02          	shl    $0x2,%rax
  409506:	48 f7 d8             	neg    %rax
  409509:	48 89 c2             	mov    %rax,%rdx
  40950c:	48 8b 45 c8          	mov    -0x38(%rbp),%rax
  409510:	48 8d 1c 02          	lea    (%rdx,%rax,1),%rbx
  409514:	48 8d 45 90          	lea    -0x70(%rbp),%rax
  409518:	48 89 c7             	mov    %rax,%rdi
  40951b:	e8 34 fe ff ff       	callq  409354 <_ZNK9__gnu_cxx17__normal_iteratorIPfSt6vectorIfSaIfEEE4baseEv>
  409520:	48 8b 00             	mov    (%rax),%rax
  409523:	48 8b 55 c8          	mov    -0x38(%rbp),%rdx
  409527:	48 89 de             	mov    %rbx,%rsi
  40952a:	48 89 c7             	mov    %rax,%rdi
  40952d:	e8 4d 07 00 00       	callq  409c7f <_ZSt13move_backwardIPfS0_ET0_T_S2_S1_>
  409532:	48 8d 45 90          	lea    -0x70(%rbp),%rax
  409536:	48 89 c7             	mov    %rax,%rdi
  409539:	e8 16 fe ff ff       	callq  409354 <_ZNK9__gnu_cxx17__normal_iteratorIPfSt6vectorIfSaIfEEE4baseEv>
  40953e:	48 8b 00             	mov    (%rax),%rax
  409541:	48 8b 55 88          	mov    -0x78(%rbp),%rdx
  409545:	48 c1 e2 02          	shl    $0x2,%rdx
  409549:	48 8d 1c 10          	lea    (%rax,%rdx,1),%rbx
  40954d:	48 8d 45 90          	lea    -0x70(%rbp),%rax
  409551:	48 89 c7             	mov    %rax,%rdi
  409554:	e8 fb fd ff ff       	callq  409354 <_ZNK9__gnu_cxx17__normal_iteratorIPfSt6vectorIfSaIfEEE4baseEv>
  409559:	48 8b 00             	mov    (%rax),%rax
  40955c:	48 8d 55 ac          	lea    -0x54(%rbp),%rdx
  409560:	48 89 de             	mov    %rbx,%rsi
  409563:	48 89 c7             	mov    %rax,%rdi
  409566:	e8 60 07 00 00       	callq  409ccb <_ZSt4fillIPffEvT_S1_RKT0_>
  40956b:	e9 12 03 00 00       	jmpq   409882 <_ZNSt6vectorIfSaIfEE14_M_fill_insertEN9__gnu_cxx17__normal_iteratorIPfS1_EEmRKf+0x48a>
  409570:	48 8b 45 98          	mov    -0x68(%rbp),%rax
  409574:	48 89 c7             	mov    %rax,%rdi
  409577:	e8 da eb ff ff       	callq  408156 <_ZNSt12_Vector_baseIfSaIfEE19_M_get_Tp_allocatorEv>
  40957c:	48 89 c1             	mov    %rax,%rcx
  40957f:	48 8b 45 88          	mov    -0x78(%rbp),%rax
  409583:	48 2b 45 c0          	sub    -0x40(%rbp),%rax
  409587:	48 89 c6             	mov    %rax,%rsi
  40958a:	48 8b 45 98          	mov    -0x68(%rbp),%rax
  40958e:	48 8b 40 08          	mov    0x8(%rax),%rax
  409592:	48 8d 55 ac          	lea    -0x54(%rbp),%rdx
  409596:	48 89 c7             	mov    %rax,%rdi
  409599:	e8 7a 07 00 00       	callq  409d18 <_ZSt24__uninitialized_fill_n_aIPfmffET_S1_T0_RKT1_RSaIT2_E>
  40959e:	48 89 c2             	mov    %rax,%rdx
  4095a1:	48 8b 45 98          	mov    -0x68(%rbp),%rax
  4095a5:	48 89 50 08          	mov    %rdx,0x8(%rax)
  4095a9:	48 8b 45 98          	mov    -0x68(%rbp),%rax
  4095ad:	48 89 c7             	mov    %rax,%rdi
  4095b0:	e8 a1 eb ff ff       	callq  408156 <_ZNSt12_Vector_baseIfSaIfEE19_M_get_Tp_allocatorEv>
  4095b5:	49 89 c4             	mov    %rax,%r12
  4095b8:	48 8b 45 98          	mov    -0x68(%rbp),%rax
  4095bc:	48 8b 58 08          	mov    0x8(%rax),%rbx
  4095c0:	48 8d 45 90          	lea    -0x70(%rbp),%rax
  4095c4:	48 89 c7             	mov    %rax,%rdi
  4095c7:	e8 88 fd ff ff       	callq  409354 <_ZNK9__gnu_cxx17__normal_iteratorIPfSt6vectorIfSaIfEEE4baseEv>
  4095cc:	48 8b 00             	mov    (%rax),%rax
  4095cf:	48 8b 75 c8          	mov    -0x38(%rbp),%rsi
  4095d3:	4c 89 e1             	mov    %r12,%rcx
  4095d6:	48 89 da             	mov    %rbx,%rdx
  4095d9:	48 89 c7             	mov    %rax,%rdi
  4095dc:	e8 4a 06 00 00       	callq  409c2b <_ZSt22__uninitialized_move_aIPfS0_SaIfEET0_T_S3_S2_RT1_>
  4095e1:	48 8b 45 98          	mov    -0x68(%rbp),%rax
  4095e5:	48 8b 40 08          	mov    0x8(%rax),%rax
  4095e9:	48 8b 55 c0          	mov    -0x40(%rbp),%rdx
  4095ed:	48 c1 e2 02          	shl    $0x2,%rdx
  4095f1:	48 01 c2             	add    %rax,%rdx
  4095f4:	48 8b 45 98          	mov    -0x68(%rbp),%rax
  4095f8:	48 89 50 08          	mov    %rdx,0x8(%rax)
  4095fc:	48 8d 45 90          	lea    -0x70(%rbp),%rax
  409600:	48 89 c7             	mov    %rax,%rdi
  409603:	e8 4c fd ff ff       	callq  409354 <_ZNK9__gnu_cxx17__normal_iteratorIPfSt6vectorIfSaIfEEE4baseEv>
  409608:	48 8b 00             	mov    (%rax),%rax
  40960b:	48 8d 55 ac          	lea    -0x54(%rbp),%rdx
  40960f:	48 8b 4d c8          	mov    -0x38(%rbp),%rcx
  409613:	48 89 ce             	mov    %rcx,%rsi
  409616:	48 89 c7             	mov    %rax,%rdi
  409619:	e8 ad 06 00 00       	callq  409ccb <_ZSt4fillIPffEvT_S1_RKT0_>
  40961e:	e9 5f 02 00 00       	jmpq   409882 <_ZNSt6vectorIfSaIfEE14_M_fill_insertEN9__gnu_cxx17__normal_iteratorIPfS1_EEmRKf+0x48a>
  409623:	48 8b 4d 88          	mov    -0x78(%rbp),%rcx
  409627:	48 8b 45 98          	mov    -0x68(%rbp),%rax
  40962b:	ba ef b3 40 00       	mov    $0x40b3ef,%edx
  409630:	48 89 ce             	mov    %rcx,%rsi
  409633:	48 89 c7             	mov    %rax,%rdi
  409636:	e8 0f 07 00 00       	callq  409d4a <_ZNKSt6vectorIfSaIfEE12_M_check_lenEmPKc>
  40963b:	48 89 45 d0          	mov    %rax,-0x30(%rbp)
  40963f:	48 8b 45 98          	mov    -0x68(%rbp),%rax
  409643:	48 89 c7             	mov    %rax,%rdi
  409646:	e8 55 02 00 00       	callq  4098a0 <_ZNSt6vectorIfSaIfEE5beginEv>
  40964b:	48 89 45 b0          	mov    %rax,-0x50(%rbp)
  40964f:	48 8d 55 b0          	lea    -0x50(%rbp),%rdx
  409653:	48 8d 45 90          	lea    -0x70(%rbp),%rax
  409657:	48 89 d6             	mov    %rdx,%rsi
  40965a:	48 89 c7             	mov    %rax,%rdi
  40965d:	e8 86 05 00 00       	callq  409be8 <_ZN9__gnu_cxxmiIPfSt6vectorIfSaIfEEEENS_17__normal_iteratorIT_T0_E15difference_typeERKS8_SB_>
  409662:	48 89 45 d8          	mov    %rax,-0x28(%rbp)
  409666:	48 8b 45 98          	mov    -0x68(%rbp),%rax
  40966a:	48 8b 55 d0          	mov    -0x30(%rbp),%rdx
  40966e:	48 89 d6             	mov    %rdx,%rsi
  409671:	48 89 c7             	mov    %rax,%rdi
  409674:	e8 bd 07 00 00       	callq  409e36 <_ZNSt12_Vector_baseIfSaIfEE11_M_allocateEm>
  409679:	48 89 45 e0          	mov    %rax,-0x20(%rbp)
  40967d:	48 8b 45 e0          	mov    -0x20(%rbp),%rax
  409681:	48 89 45 b8          	mov    %rax,-0x48(%rbp)
  409685:	48 8b 45 98          	mov    -0x68(%rbp),%rax
  409689:	48 89 c7             	mov    %rax,%rdi
  40968c:	e8 c5 ea ff ff       	callq  408156 <_ZNSt12_Vector_baseIfSaIfEE19_M_get_Tp_allocatorEv>
  409691:	48 89 c1             	mov    %rax,%rcx
  409694:	48 8b 45 d8          	mov    -0x28(%rbp),%rax
  409698:	48 8d 14 85 00 00 00 	lea    0x0(,%rax,4),%rdx
  40969f:	00 
  4096a0:	48 8b 45 e0          	mov    -0x20(%rbp),%rax
  4096a4:	48 8d 3c 02          	lea    (%rdx,%rax,1),%rdi
  4096a8:	48 8b 55 80          	mov    -0x80(%rbp),%rdx
  4096ac:	48 8b 45 88          	mov    -0x78(%rbp),%rax
  4096b0:	48 89 c6             	mov    %rax,%rsi
  4096b3:	e8 60 06 00 00       	callq  409d18 <_ZSt24__uninitialized_fill_n_aIPfmffET_S1_T0_RKT1_RSaIT2_E>
  4096b8:	48 c7 45 b8 00 00 00 	movq   $0x0,-0x48(%rbp)
  4096bf:	00 
  4096c0:	48 8b 45 98          	mov    -0x68(%rbp),%rax
  4096c4:	48 89 c7             	mov    %rax,%rdi
  4096c7:	e8 8a ea ff ff       	callq  408156 <_ZNSt12_Vector_baseIfSaIfEE19_M_get_Tp_allocatorEv>
  4096cc:	48 89 c3             	mov    %rax,%rbx
  4096cf:	48 8d 45 90          	lea    -0x70(%rbp),%rax
  4096d3:	48 89 c7             	mov    %rax,%rdi
  4096d6:	e8 79 fc ff ff       	callq  409354 <_ZNK9__gnu_cxx17__normal_iteratorIPfSt6vectorIfSaIfEEE4baseEv>
  4096db:	48 8b 30             	mov    (%rax),%rsi
  4096de:	48 8b 45 98          	mov    -0x68(%rbp),%rax
  4096e2:	48 8b 00             	mov    (%rax),%rax
  4096e5:	48 8b 55 e0          	mov    -0x20(%rbp),%rdx
  4096e9:	48 89 d9             	mov    %rbx,%rcx
  4096ec:	48 89 c7             	mov    %rax,%rdi
  4096ef:	e8 75 07 00 00       	callq  409e69 <_ZSt34__uninitialized_move_if_noexcept_aIPfS0_SaIfEET0_T_S3_S2_RT1_>
  4096f4:	48 89 45 b8          	mov    %rax,-0x48(%rbp)
  4096f8:	48 8b 45 88          	mov    -0x78(%rbp),%rax
  4096fc:	48 c1 e0 02          	shl    $0x2,%rax
  409700:	48 01 45 b8          	add    %rax,-0x48(%rbp)
  409704:	48 8b 45 98          	mov    -0x68(%rbp),%rax
  409708:	48 89 c7             	mov    %rax,%rdi
  40970b:	e8 46 ea ff ff       	callq  408156 <_ZNSt12_Vector_baseIfSaIfEE19_M_get_Tp_allocatorEv>
  409710:	49 89 c4             	mov    %rax,%r12
  409713:	48 8b 45 98          	mov    -0x68(%rbp),%rax
  409717:	48 8b 58 08          	mov    0x8(%rax),%rbx
  40971b:	48 8d 45 90          	lea    -0x70(%rbp),%rax
  40971f:	48 89 c7             	mov    %rax,%rdi
  409722:	e8 2d fc ff ff       	callq  409354 <_ZNK9__gnu_cxx17__normal_iteratorIPfSt6vectorIfSaIfEEE4baseEv>
  409727:	48 8b 00             	mov    (%rax),%rax
  40972a:	48 8b 55 b8          	mov    -0x48(%rbp),%rdx
  40972e:	4c 89 e1             	mov    %r12,%rcx
  409731:	48 89 de             	mov    %rbx,%rsi
  409734:	48 89 c7             	mov    %rax,%rdi
  409737:	e8 2d 07 00 00       	callq  409e69 <_ZSt34__uninitialized_move_if_noexcept_aIPfS0_SaIfEET0_T_S3_S2_RT1_>
  40973c:	48 89 45 b8          	mov    %rax,-0x48(%rbp)
  409740:	48 8b 45 98          	mov    -0x68(%rbp),%rax
  409744:	48 89 c7             	mov    %rax,%rdi
  409747:	e8 0a ea ff ff       	callq  408156 <_ZNSt12_Vector_baseIfSaIfEE19_M_get_Tp_allocatorEv>
  40974c:	48 89 c2             	mov    %rax,%rdx
  40974f:	48 8b 45 98          	mov    -0x68(%rbp),%rax
  409753:	48 8b 48 08          	mov    0x8(%rax),%rcx
  409757:	48 8b 45 98          	mov    -0x68(%rbp),%rax
  40975b:	48 8b 00             	mov    (%rax),%rax
  40975e:	48 89 ce             	mov    %rcx,%rsi
  409761:	48 89 c7             	mov    %rax,%rdi
  409764:	e8 fb e9 ff ff       	callq  408164 <_ZSt8_DestroyIPffEvT_S1_RSaIT0_E>
  409769:	48 8b 45 98          	mov    -0x68(%rbp),%rax
  40976d:	48 8b 40 10          	mov    0x10(%rax),%rax
  409771:	48 89 c2             	mov    %rax,%rdx
  409774:	48 8b 45 98          	mov    -0x68(%rbp),%rax
  409778:	48 8b 00             	mov    (%rax),%rax
  40977b:	48 29 c2             	sub    %rax,%rdx
  40977e:	48 89 d0             	mov    %rdx,%rax
  409781:	48 c1 f8 02          	sar    $0x2,%rax
  409785:	48 89 c2             	mov    %rax,%rdx
  409788:	48 8b 45 98          	mov    -0x68(%rbp),%rax
  40978c:	48 8b 08             	mov    (%rax),%rcx
  40978f:	48 8b 45 98          	mov    -0x68(%rbp),%rax
  409793:	48 89 ce             	mov    %rcx,%rsi
  409796:	48 89 c7             	mov    %rax,%rdi
  409799:	e8 96 f3 ff ff       	callq  408b34 <_ZNSt12_Vector_baseIfSaIfEE13_M_deallocateEPfm>
  40979e:	48 8b 45 98          	mov    -0x68(%rbp),%rax
  4097a2:	48 8b 55 e0          	mov    -0x20(%rbp),%rdx
  4097a6:	48 89 10             	mov    %rdx,(%rax)
  4097a9:	48 8b 45 98          	mov    -0x68(%rbp),%rax
  4097ad:	48 8b 55 b8          	mov    -0x48(%rbp),%rdx
  4097b1:	48 89 50 08          	mov    %rdx,0x8(%rax)
  4097b5:	48 8b 45 d0          	mov    -0x30(%rbp),%rax
  4097b9:	48 8d 14 85 00 00 00 	lea    0x0(,%rax,4),%rdx
  4097c0:	00 
  4097c1:	48 8b 45 e0          	mov    -0x20(%rbp),%rax
  4097c5:	48 01 c2             	add    %rax,%rdx
  4097c8:	48 8b 45 98          	mov    -0x68(%rbp),%rax
  4097cc:	48 89 50 10          	mov    %rdx,0x10(%rax)
  4097d0:	e9 ad 00 00 00       	jmpq   409882 <_ZNSt6vectorIfSaIfEE14_M_fill_insertEN9__gnu_cxx17__normal_iteratorIPfS1_EEmRKf+0x48a>
  4097d5:	48 89 c7             	mov    %rax,%rdi
  4097d8:	e8 03 a6 ff ff       	callq  403de0 <__cxa_begin_catch@plt>
  4097dd:	48 83 7d b8 00       	cmpq   $0x0,-0x48(%rbp)
  4097e2:	75 4d                	jne    409831 <_ZNSt6vectorIfSaIfEE14_M_fill_insertEN9__gnu_cxx17__normal_iteratorIPfS1_EEmRKf+0x439>
  4097e4:	48 8b 45 98          	mov    -0x68(%rbp),%rax
  4097e8:	48 89 c7             	mov    %rax,%rdi
  4097eb:	e8 66 e9 ff ff       	callq  408156 <_ZNSt12_Vector_baseIfSaIfEE19_M_get_Tp_allocatorEv>
  4097f0:	48 89 c6             	mov    %rax,%rsi
  4097f3:	48 8b 55 d8          	mov    -0x28(%rbp),%rdx
  4097f7:	48 8b 45 88          	mov    -0x78(%rbp),%rax
  4097fb:	48 01 d0             	add    %rdx,%rax
  4097fe:	48 8d 14 85 00 00 00 	lea    0x0(,%rax,4),%rdx
  409805:	00 
  409806:	48 8b 45 e0          	mov    -0x20(%rbp),%rax
  40980a:	48 8d 0c 02          	lea    (%rdx,%rax,1),%rcx
  40980e:	48 8b 45 d8          	mov    -0x28(%rbp),%rax
  409812:	48 8d 14 85 00 00 00 	lea    0x0(,%rax,4),%rdx
  409819:	00 
  40981a:	48 8b 45 e0          	mov    -0x20(%rbp),%rax
  40981e:	48 01 d0             	add    %rdx,%rax
  409821:	48 89 f2             	mov    %rsi,%rdx
  409824:	48 89 ce             	mov    %rcx,%rsi
  409827:	48 89 c7             	mov    %rax,%rdi
  40982a:	e8 35 e9 ff ff       	callq  408164 <_ZSt8_DestroyIPffEvT_S1_RSaIT0_E>
  40982f:	eb 22                	jmp    409853 <_ZNSt6vectorIfSaIfEE14_M_fill_insertEN9__gnu_cxx17__normal_iteratorIPfS1_EEmRKf+0x45b>
  409831:	48 8b 45 98          	mov    -0x68(%rbp),%rax
  409835:	48 89 c7             	mov    %rax,%rdi
  409838:	e8 19 e9 ff ff       	callq  408156 <_ZNSt12_Vector_baseIfSaIfEE19_M_get_Tp_allocatorEv>
  40983d:	48 89 c2             	mov    %rax,%rdx
  409840:	48 8b 4d b8          	mov    -0x48(%rbp),%rcx
  409844:	48 8b 45 e0          	mov    -0x20(%rbp),%rax
  409848:	48 89 ce             	mov    %rcx,%rsi
  40984b:	48 89 c7             	mov    %rax,%rdi
  40984e:	e8 11 e9 ff ff       	callq  408164 <_ZSt8_DestroyIPffEvT_S1_RSaIT0_E>
  409853:	48 8b 45 98          	mov    -0x68(%rbp),%rax
  409857:	48 8b 55 d0          	mov    -0x30(%rbp),%rdx
  40985b:	48 8b 4d e0          	mov    -0x20(%rbp),%rcx
  40985f:	48 89 ce             	mov    %rcx,%rsi
  409862:	48 89 c7             	mov    %rax,%rdi
  409865:	e8 ca f2 ff ff       	callq  408b34 <_ZNSt12_Vector_baseIfSaIfEE13_M_deallocateEPfm>
  40986a:	e8 21 a8 ff ff       	callq  404090 <__cxa_rethrow@plt>
  40986f:	48 89 c3             	mov    %rax,%rbx
  409872:	e8 e9 a7 ff ff       	callq  404060 <__cxa_end_catch@plt>
  409877:	48 89 d8             	mov    %rbx,%rax
  40987a:	48 89 c7             	mov    %rax,%rdi
  40987d:	e8 6e a7 ff ff       	callq  403ff0 <_Unwind_Resume@plt>
  409882:	90                   	nop
  409883:	48 8b 45 e8          	mov    -0x18(%rbp),%rax
  409887:	64 48 33 04 25 28 00 	xor    %fs:0x28,%rax
  40988e:	00 00 
  409890:	74 05                	je     409897 <_ZNSt6vectorIfSaIfEE14_M_fill_insertEN9__gnu_cxx17__normal_iteratorIPfS1_EEmRKf+0x49f>
  409892:	e8 19 a6 ff ff       	callq  403eb0 <__stack_chk_fail@plt>
  409897:	48 83 c4 70          	add    $0x70,%rsp
  40989b:	5b                   	pop    %rbx
  40989c:	41 5c                	pop    %r12
  40989e:	5d                   	pop    %rbp
  40989f:	c3                   	retq   

00000000004098a0 <_ZNSt6vectorIfSaIfEE5beginEv>:
  4098a0:	55                   	push   %rbp
  4098a1:	48 89 e5             	mov    %rsp,%rbp
  4098a4:	48 83 ec 20          	sub    $0x20,%rsp
  4098a8:	48 89 7d e8          	mov    %rdi,-0x18(%rbp)
  4098ac:	64 48 8b 04 25 28 00 	mov    %fs:0x28,%rax
  4098b3:	00 00 
  4098b5:	48 89 45 f8          	mov    %rax,-0x8(%rbp)
  4098b9:	31 c0                	xor    %eax,%eax
  4098bb:	48 8b 55 e8          	mov    -0x18(%rbp),%rdx
  4098bf:	48 8d 45 f0          	lea    -0x10(%rbp),%rax
  4098c3:	48 89 d6             	mov    %rdx,%rsi
  4098c6:	48 89 c7             	mov    %rax,%rdi
  4098c9:	e8 68 fa ff ff       	callq  409336 <_ZN9__gnu_cxx17__normal_iteratorIPfSt6vectorIfSaIfEEEC1ERKS1_>
  4098ce:	48 8b 45 f0          	mov    -0x10(%rbp),%rax
  4098d2:	48 8b 4d f8          	mov    -0x8(%rbp),%rcx
  4098d6:	64 48 33 0c 25 28 00 	xor    %fs:0x28,%rcx
  4098dd:	00 00 
  4098df:	74 05                	je     4098e6 <_ZNSt6vectorIfSaIfEE5beginEv+0x46>
  4098e1:	e8 ca a5 ff ff       	callq  403eb0 <__stack_chk_fail@plt>
  4098e6:	c9                   	leaveq 
  4098e7:	c3                   	retq   

00000000004098e8 <_ZNK9__gnu_cxx17__normal_iteratorIPfSt6vectorIfSaIfEEEplEl>:
  4098e8:	55                   	push   %rbp
  4098e9:	48 89 e5             	mov    %rsp,%rbp
  4098ec:	48 83 ec 30          	sub    $0x30,%rsp
  4098f0:	48 89 7d d8          	mov    %rdi,-0x28(%rbp)
  4098f4:	48 89 75 d0          	mov    %rsi,-0x30(%rbp)
  4098f8:	64 48 8b 04 25 28 00 	mov    %fs:0x28,%rax
  4098ff:	00 00 
  409901:	48 89 45 f8          	mov    %rax,-0x8(%rbp)
  409905:	31 c0                	xor    %eax,%eax
  409907:	48 8b 45 d8          	mov    -0x28(%rbp),%rax
  40990b:	48 8b 00             	mov    (%rax),%rax
  40990e:	48 8b 55 d0          	mov    -0x30(%rbp),%rdx
  409912:	48 c1 e2 02          	shl    $0x2,%rdx
  409916:	48 01 d0             	add    %rdx,%rax
  409919:	48 89 45 e8          	mov    %rax,-0x18(%rbp)
  40991d:	48 8d 55 e8          	lea    -0x18(%rbp),%rdx
  409921:	48 8d 45 f0          	lea    -0x10(%rbp),%rax
  409925:	48 89 d6             	mov    %rdx,%rsi
  409928:	48 89 c7             	mov    %rax,%rdi
  40992b:	e8 06 fa ff ff       	callq  409336 <_ZN9__gnu_cxx17__normal_iteratorIPfSt6vectorIfSaIfEEEC1ERKS1_>
  409930:	48 8b 45 f0          	mov    -0x10(%rbp),%rax
  409934:	48 8b 4d f8          	mov    -0x8(%rbp),%rcx
  409938:	64 48 33 0c 25 28 00 	xor    %fs:0x28,%rcx
  40993f:	00 00 
  409941:	74 05                	je     409948 <_ZNK9__gnu_cxx17__normal_iteratorIPfSt6vectorIfSaIfEEEplEl+0x60>
  409943:	e8 68 a5 ff ff       	callq  403eb0 <__stack_chk_fail@plt>
  409948:	c9                   	leaveq 
  409949:	c3                   	retq   

000000000040994a <_ZSt4copyISt13move_iteratorIPPN5caffe4BlobIfEEES5_ET0_T_S8_S7_>:
  40994a:	55                   	push   %rbp
  40994b:	48 89 e5             	mov    %rsp,%rbp
  40994e:	53                   	push   %rbx
  40994f:	48 83 ec 28          	sub    $0x28,%rsp
  409953:	48 89 7d e8          	mov    %rdi,-0x18(%rbp)
  409957:	48 89 75 e0          	mov    %rsi,-0x20(%rbp)
  40995b:	48 89 55 d8          	mov    %rdx,-0x28(%rbp)
  40995f:	48 8b 45 e0          	mov    -0x20(%rbp),%rax
  409963:	48 89 c7             	mov    %rax,%rdi
  409966:	e8 74 05 00 00       	callq  409edf <_ZSt12__miter_baseIPPN5caffe4BlobIfEEEDTcl12__miter_basecldtfp_4baseEEESt13move_iteratorIT_E>
  40996b:	48 89 c3             	mov    %rax,%rbx
  40996e:	48 8b 45 e8          	mov    -0x18(%rbp),%rax
  409972:	48 89 c7             	mov    %rax,%rdi
  409975:	e8 65 05 00 00       	callq  409edf <_ZSt12__miter_baseIPPN5caffe4BlobIfEEEDTcl12__miter_basecldtfp_4baseEEESt13move_iteratorIT_E>
  40997a:	48 89 c1             	mov    %rax,%rcx
  40997d:	48 8b 45 d8          	mov    -0x28(%rbp),%rax
  409981:	48 89 c2             	mov    %rax,%rdx
  409984:	48 89 de             	mov    %rbx,%rsi
  409987:	48 89 cf             	mov    %rcx,%rdi
  40998a:	e8 72 05 00 00       	callq  409f01 <_ZSt14__copy_move_a2ILb1EPPN5caffe4BlobIfEES4_ET1_T0_S6_S5_>
  40998f:	48 83 c4 28          	add    $0x28,%rsp
  409993:	5b                   	pop    %rbx
  409994:	5d                   	pop    %rbp
  409995:	c3                   	retq   

0000000000409996 <_ZN9__gnu_cxx13new_allocatorIN5boost10shared_ptrIN5caffe4BlobIfEEEEEC1Ev>:
  409996:	55                   	push   %rbp
  409997:	48 89 e5             	mov    %rsp,%rbp
  40999a:	48 89 7d f8          	mov    %rdi,-0x8(%rbp)
  40999e:	90                   	nop
  40999f:	5d                   	pop    %rbp
  4099a0:	c3                   	retq   
  4099a1:	90                   	nop

00000000004099a2 <_ZN9__gnu_cxx13new_allocatorIN5boost10shared_ptrIN5caffe4BlobIfEEEEE10deallocateEPS6_m>:
  4099a2:	55                   	push   %rbp
  4099a3:	48 89 e5             	mov    %rsp,%rbp
  4099a6:	48 83 ec 20          	sub    $0x20,%rsp
  4099aa:	48 89 7d f8          	mov    %rdi,-0x8(%rbp)
  4099ae:	48 89 75 f0          	mov    %rsi,-0x10(%rbp)
  4099b2:	48 89 55 e8          	mov    %rdx,-0x18(%rbp)
  4099b6:	48 8b 45 f0          	mov    -0x10(%rbp),%rax
  4099ba:	48 89 c7             	mov    %rax,%rdi
  4099bd:	e8 9e a5 ff ff       	callq  403f60 <_ZdlPv@plt>
  4099c2:	90                   	nop
  4099c3:	c9                   	leaveq 
  4099c4:	c3                   	retq   

00000000004099c5 <_ZSt11__addressofIN5boost10shared_ptrIN5caffe4BlobIfEEEEEPT_RS6_>:
  4099c5:	55                   	push   %rbp
  4099c6:	48 89 e5             	mov    %rsp,%rbp
  4099c9:	48 89 7d f8          	mov    %rdi,-0x8(%rbp)
  4099cd:	48 8b 45 f8          	mov    -0x8(%rbp),%rax
  4099d1:	5d                   	pop    %rbp
  4099d2:	c3                   	retq   

00000000004099d3 <_ZSt8_DestroyIN5boost10shared_ptrIN5caffe4BlobIfEEEEEvPT_>:
  4099d3:	55                   	push   %rbp
  4099d4:	48 89 e5             	mov    %rsp,%rbp
  4099d7:	48 83 ec 10          	sub    $0x10,%rsp
  4099db:	48 89 7d f8          	mov    %rdi,-0x8(%rbp)
  4099df:	48 8b 45 f8          	mov    -0x8(%rbp),%rax
  4099e3:	48 89 c7             	mov    %rax,%rdi
  4099e6:	e8 89 dd ff ff       	callq  407774 <_ZN5boost10shared_ptrIN5caffe4BlobIfEEED1Ev>
  4099eb:	90                   	nop
  4099ec:	c9                   	leaveq 
  4099ed:	c3                   	retq   

00000000004099ee <_ZN9__gnu_cxx13new_allocatorImEC1Ev>:
  4099ee:	55                   	push   %rbp
  4099ef:	48 89 e5             	mov    %rsp,%rbp
  4099f2:	48 89 7d f8          	mov    %rdi,-0x8(%rbp)
  4099f6:	90                   	nop
  4099f7:	5d                   	pop    %rbp
  4099f8:	c3                   	retq   

00000000004099f9 <_ZSt11__addressofImEPT_RS0_>:
  4099f9:	55                   	push   %rbp
  4099fa:	48 89 e5             	mov    %rsp,%rbp
  4099fd:	48 89 7d f8          	mov    %rdi,-0x8(%rbp)
  409a01:	48 8b 45 f8          	mov    -0x8(%rbp),%rax
  409a05:	5d                   	pop    %rbp
  409a06:	c3                   	retq   
  409a07:	90                   	nop

0000000000409a08 <_ZN9__gnu_cxx13new_allocatorImE10deallocateEPmm>:
  409a08:	55                   	push   %rbp
  409a09:	48 89 e5             	mov    %rsp,%rbp
  409a0c:	48 83 ec 20          	sub    $0x20,%rsp
  409a10:	48 89 7d f8          	mov    %rdi,-0x8(%rbp)
  409a14:	48 89 75 f0          	mov    %rsi,-0x10(%rbp)
  409a18:	48 89 55 e8          	mov    %rdx,-0x18(%rbp)
  409a1c:	48 8b 45 f0          	mov    -0x10(%rbp),%rax
  409a20:	48 89 c7             	mov    %rax,%rdi
  409a23:	e8 38 a5 ff ff       	callq  403f60 <_ZdlPv@plt>
  409a28:	90                   	nop
  409a29:	c9                   	leaveq 
  409a2a:	c3                   	retq   
  409a2b:	90                   	nop

0000000000409a2c <_ZN9__gnu_cxx13new_allocatorIfEC1Ev>:
  409a2c:	55                   	push   %rbp
  409a2d:	48 89 e5             	mov    %rsp,%rbp
  409a30:	48 89 7d f8          	mov    %rdi,-0x8(%rbp)
  409a34:	90                   	nop
  409a35:	5d                   	pop    %rbp
  409a36:	c3                   	retq   
  409a37:	90                   	nop

0000000000409a38 <_ZN9__gnu_cxx13new_allocatorIfE10deallocateEPfm>:
  409a38:	55                   	push   %rbp
  409a39:	48 89 e5             	mov    %rsp,%rbp
  409a3c:	48 83 ec 20          	sub    $0x20,%rsp
  409a40:	48 89 7d f8          	mov    %rdi,-0x8(%rbp)
  409a44:	48 89 75 f0          	mov    %rsi,-0x10(%rbp)
  409a48:	48 89 55 e8          	mov    %rdx,-0x18(%rbp)
  409a4c:	48 8b 45 f0          	mov    -0x10(%rbp),%rax
  409a50:	48 89 c7             	mov    %rax,%rdi
  409a53:	e8 08 a5 ff ff       	callq  403f60 <_ZdlPv@plt>
  409a58:	90                   	nop
  409a59:	c9                   	leaveq 
  409a5a:	c3                   	retq   

0000000000409a5b <_ZNSt27__uninitialized_default_n_1ILb0EE18__uninit_default_nIPN5boost10shared_ptrIN5caffe4BlobIfEEEEmEET_S9_T0_>:
  409a5b:	55                   	push   %rbp
  409a5c:	48 89 e5             	mov    %rsp,%rbp
  409a5f:	48 83 ec 20          	sub    $0x20,%rsp
  409a63:	48 89 7d e8          	mov    %rdi,-0x18(%rbp)
  409a67:	48 89 75 e0          	mov    %rsi,-0x20(%rbp)
  409a6b:	48 8b 45 e8          	mov    -0x18(%rbp),%rax
  409a6f:	48 89 45 f8          	mov    %rax,-0x8(%rbp)
  409a73:	48 83 7d e0 00       	cmpq   $0x0,-0x20(%rbp)
  409a78:	74 20                	je     409a9a <_ZNSt27__uninitialized_default_n_1ILb0EE18__uninit_default_nIPN5boost10shared_ptrIN5caffe4BlobIfEEEEmEET_S9_T0_+0x3f>
  409a7a:	48 8b 45 f8          	mov    -0x8(%rbp),%rax
  409a7e:	48 89 c7             	mov    %rax,%rdi
  409a81:	e8 3f ff ff ff       	callq  4099c5 <_ZSt11__addressofIN5boost10shared_ptrIN5caffe4BlobIfEEEEEPT_RS6_>
  409a86:	48 89 c7             	mov    %rax,%rdi
  409a89:	e8 cb 04 00 00       	callq  409f59 <_ZSt10_ConstructIN5boost10shared_ptrIN5caffe4BlobIfEEEEJEEvPT_DpOT0_>
  409a8e:	48 83 6d e0 01       	subq   $0x1,-0x20(%rbp)
  409a93:	48 83 45 f8 10       	addq   $0x10,-0x8(%rbp)
  409a98:	eb d9                	jmp    409a73 <_ZNSt27__uninitialized_default_n_1ILb0EE18__uninit_default_nIPN5boost10shared_ptrIN5caffe4BlobIfEEEEmEET_S9_T0_+0x18>
  409a9a:	48 8b 45 f8          	mov    -0x8(%rbp),%rax
  409a9e:	c9                   	leaveq 
  409a9f:	c3                   	retq   

0000000000409aa0 <_ZNSt16allocator_traitsISaIN5boost10shared_ptrIN5caffe4BlobIfEEEEEE8max_sizeERKS6_>:
  409aa0:	55                   	push   %rbp
  409aa1:	48 89 e5             	mov    %rsp,%rbp
  409aa4:	48 83 ec 10          	sub    $0x10,%rsp
  409aa8:	48 89 7d f8          	mov    %rdi,-0x8(%rbp)
  409aac:	48 8b 45 f8          	mov    -0x8(%rbp),%rax
  409ab0:	48 89 c7             	mov    %rax,%rdi
  409ab3:	e8 ce 04 00 00       	callq  409f86 <_ZNK9__gnu_cxx13new_allocatorIN5boost10shared_ptrIN5caffe4BlobIfEEEEE8max_sizeEv>
  409ab8:	c9                   	leaveq 
  409ab9:	c3                   	retq   

0000000000409aba <_ZNKSt12_Vector_baseIN5boost10shared_ptrIN5caffe4BlobIfEEEESaIS5_EE19_M_get_Tp_allocatorEv>:
  409aba:	55                   	push   %rbp
  409abb:	48 89 e5             	mov    %rsp,%rbp
  409abe:	48 89 7d f8          	mov    %rdi,-0x8(%rbp)
  409ac2:	48 8b 45 f8          	mov    -0x8(%rbp),%rax
  409ac6:	5d                   	pop    %rbp
  409ac7:	c3                   	retq   

0000000000409ac8 <_ZN9__gnu_cxx13new_allocatorIN5boost10shared_ptrIN5caffe4BlobIfEEEEE8allocateEmPKv>:
  409ac8:	55                   	push   %rbp
  409ac9:	48 89 e5             	mov    %rsp,%rbp
  409acc:	48 83 ec 20          	sub    $0x20,%rsp
  409ad0:	48 89 7d f8          	mov    %rdi,-0x8(%rbp)
  409ad4:	48 89 75 f0          	mov    %rsi,-0x10(%rbp)
  409ad8:	48 89 55 e8          	mov    %rdx,-0x18(%rbp)
  409adc:	48 8b 45 f8          	mov    -0x8(%rbp),%rax
  409ae0:	48 89 c7             	mov    %rax,%rdi
  409ae3:	e8 9e 04 00 00       	callq  409f86 <_ZNK9__gnu_cxx13new_allocatorIN5boost10shared_ptrIN5caffe4BlobIfEEEEE8max_sizeEv>
  409ae8:	48 3b 45 f0          	cmp    -0x10(%rbp),%rax
  409aec:	0f 92 c0             	setb   %al
  409aef:	84 c0                	test   %al,%al
  409af1:	74 05                	je     409af8 <_ZN9__gnu_cxx13new_allocatorIN5boost10shared_ptrIN5caffe4BlobIfEEEEE8allocateEmPKv+0x30>
  409af3:	e8 38 a3 ff ff       	callq  403e30 <_ZSt17__throw_bad_allocv@plt>
  409af8:	48 8b 45 f0          	mov    -0x10(%rbp),%rax
  409afc:	48 c1 e0 04          	shl    $0x4,%rax
  409b00:	48 89 c7             	mov    %rax,%rdi
  409b03:	e8 48 a3 ff ff       	callq  403e50 <_Znwm@plt>
  409b08:	c9                   	leaveq 
  409b09:	c3                   	retq   

0000000000409b0a <_ZNSt13move_iteratorIPN5boost10shared_ptrIN5caffe4BlobIfEEEEEC1ES6_>:
  409b0a:	55                   	push   %rbp
  409b0b:	48 89 e5             	mov    %rsp,%rbp
  409b0e:	48 89 7d f8          	mov    %rdi,-0x8(%rbp)
  409b12:	48 89 75 f0          	mov    %rsi,-0x10(%rbp)
  409b16:	48 8b 45 f8          	mov    -0x8(%rbp),%rax
  409b1a:	48 8b 55 f0          	mov    -0x10(%rbp),%rdx
  409b1e:	48 89 10             	mov    %rdx,(%rax)
  409b21:	90                   	nop
  409b22:	5d                   	pop    %rbp
  409b23:	c3                   	retq   

0000000000409b24 <_ZSt18uninitialized_copyISt13move_iteratorIPN5boost10shared_ptrIN5caffe4BlobIfEEEEES7_ET0_T_SA_S9_>:
  409b24:	55                   	push   %rbp
  409b25:	48 89 e5             	mov    %rsp,%rbp
  409b28:	48 83 ec 30          	sub    $0x30,%rsp
  409b2c:	48 89 7d e8          	mov    %rdi,-0x18(%rbp)
  409b30:	48 89 75 e0          	mov    %rsi,-0x20(%rbp)
  409b34:	48 89 55 d8          	mov    %rdx,-0x28(%rbp)
  409b38:	c6 45 ff 01          	movb   $0x1,-0x1(%rbp)
  409b3c:	48 8b 55 d8          	mov    -0x28(%rbp),%rdx
  409b40:	48 8b 4d e0          	mov    -0x20(%rbp),%rcx
  409b44:	48 8b 45 e8          	mov    -0x18(%rbp),%rax
  409b48:	48 89 ce             	mov    %rcx,%rsi
  409b4b:	48 89 c7             	mov    %rax,%rdi
  409b4e:	e8 47 04 00 00       	callq  409f9a <_ZNSt20__uninitialized_copyILb0EE13__uninit_copyISt13move_iteratorIPN5boost10shared_ptrIN5caffe4BlobIfEEEEES9_EET0_T_SC_SB_>
  409b53:	c9                   	leaveq 
  409b54:	c3                   	retq   
  409b55:	90                   	nop

0000000000409b56 <_ZN5boost6detail17sp_counted_impl_pIN5caffe4BlobIfEEEC1EPS4_>:
  409b56:	55                   	push   %rbp
  409b57:	48 89 e5             	mov    %rsp,%rbp
  409b5a:	48 83 ec 10          	sub    $0x10,%rsp
  409b5e:	48 89 7d f8          	mov    %rdi,-0x8(%rbp)
  409b62:	48 89 75 f0          	mov    %rsi,-0x10(%rbp)
  409b66:	48 8b 45 f8          	mov    -0x8(%rbp),%rax
  409b6a:	48 89 c7             	mov    %rax,%rdi
  409b6d:	e8 a2 a9 ff ff       	callq  404514 <_ZN5boost6detail15sp_counted_baseC1Ev>
  409b72:	ba 58 b6 40 00       	mov    $0x40b658,%edx
  409b77:	48 8b 45 f8          	mov    -0x8(%rbp),%rax
  409b7b:	48 89 10             	mov    %rdx,(%rax)
  409b7e:	48 8b 45 f8          	mov    -0x8(%rbp),%rax
  409b82:	48 8b 55 f0          	mov    -0x10(%rbp),%rdx
  409b86:	48 89 50 10          	mov    %rdx,0x10(%rax)
  409b8a:	90                   	nop
  409b8b:	c9                   	leaveq 
  409b8c:	c3                   	retq   

0000000000409b8d <_ZN5boost14checked_deleteIN5caffe4BlobIfEEEEvPT_>:
  409b8d:	55                   	push   %rbp
  409b8e:	48 89 e5             	mov    %rsp,%rbp
  409b91:	53                   	push   %rbx
  409b92:	48 83 ec 18          	sub    $0x18,%rsp
  409b96:	48 89 7d e8          	mov    %rdi,-0x18(%rbp)
  409b9a:	48 8b 5d e8          	mov    -0x18(%rbp),%rbx
  409b9e:	48 85 db             	test   %rbx,%rbx
  409ba1:	74 10                	je     409bb3 <_ZN5boost14checked_deleteIN5caffe4BlobIfEEEEvPT_+0x26>
  409ba3:	48 89 df             	mov    %rbx,%rdi
  409ba6:	e8 ab b1 ff ff       	callq  404d56 <_ZN5caffe4BlobIfED1Ev>
  409bab:	48 89 df             	mov    %rbx,%rdi
  409bae:	e8 ad a3 ff ff       	callq  403f60 <_ZdlPv@plt>
  409bb3:	90                   	nop
  409bb4:	48 83 c4 18          	add    $0x18,%rsp
  409bb8:	5b                   	pop    %rbx
  409bb9:	5d                   	pop    %rbp
  409bba:	c3                   	retq   
  409bbb:	90                   	nop

0000000000409bbc <_ZN9__gnu_cxx17__normal_iteratorIPKfSt6vectorIfSaIfEEEC1ERKS2_>:
  409bbc:	55                   	push   %rbp
  409bbd:	48 89 e5             	mov    %rsp,%rbp
  409bc0:	48 89 7d f8          	mov    %rdi,-0x8(%rbp)
  409bc4:	48 89 75 f0          	mov    %rsi,-0x10(%rbp)
  409bc8:	48 8b 45 f0          	mov    -0x10(%rbp),%rax
  409bcc:	48 8b 10             	mov    (%rax),%rdx
  409bcf:	48 8b 45 f8          	mov    -0x8(%rbp),%rax
  409bd3:	48 89 10             	mov    %rdx,(%rax)
  409bd6:	90                   	nop
  409bd7:	5d                   	pop    %rbp
  409bd8:	c3                   	retq   
  409bd9:	90                   	nop

0000000000409bda <_ZNK9__gnu_cxx17__normal_iteratorIPKfSt6vectorIfSaIfEEE4baseEv>:
  409bda:	55                   	push   %rbp
  409bdb:	48 89 e5             	mov    %rsp,%rbp
  409bde:	48 89 7d f8          	mov    %rdi,-0x8(%rbp)
  409be2:	48 8b 45 f8          	mov    -0x8(%rbp),%rax
  409be6:	5d                   	pop    %rbp
  409be7:	c3                   	retq   

0000000000409be8 <_ZN9__gnu_cxxmiIPfSt6vectorIfSaIfEEEENS_17__normal_iteratorIT_T0_E15difference_typeERKS8_SB_>:
  409be8:	55                   	push   %rbp
  409be9:	48 89 e5             	mov    %rsp,%rbp
  409bec:	53                   	push   %rbx
  409bed:	48 83 ec 18          	sub    $0x18,%rsp
  409bf1:	48 89 7d e8          	mov    %rdi,-0x18(%rbp)
  409bf5:	48 89 75 e0          	mov    %rsi,-0x20(%rbp)
  409bf9:	48 8b 45 e8          	mov    -0x18(%rbp),%rax
  409bfd:	48 89 c7             	mov    %rax,%rdi
  409c00:	e8 4f f7 ff ff       	callq  409354 <_ZNK9__gnu_cxx17__normal_iteratorIPfSt6vectorIfSaIfEEE4baseEv>
  409c05:	48 8b 00             	mov    (%rax),%rax
  409c08:	48 89 c3             	mov    %rax,%rbx
  409c0b:	48 8b 45 e0          	mov    -0x20(%rbp),%rax
  409c0f:	48 89 c7             	mov    %rax,%rdi
  409c12:	e8 3d f7 ff ff       	callq  409354 <_ZNK9__gnu_cxx17__normal_iteratorIPfSt6vectorIfSaIfEEE4baseEv>
  409c17:	48 8b 00             	mov    (%rax),%rax
  409c1a:	48 29 c3             	sub    %rax,%rbx
  409c1d:	48 89 d8             	mov    %rbx,%rax
  409c20:	48 c1 f8 02          	sar    $0x2,%rax
  409c24:	48 83 c4 18          	add    $0x18,%rsp
  409c28:	5b                   	pop    %rbx
  409c29:	5d                   	pop    %rbp
  409c2a:	c3                   	retq   

0000000000409c2b <_ZSt22__uninitialized_move_aIPfS0_SaIfEET0_T_S3_S2_RT1_>:
  409c2b:	55                   	push   %rbp
  409c2c:	48 89 e5             	mov    %rsp,%rbp
  409c2f:	53                   	push   %rbx
  409c30:	48 83 ec 28          	sub    $0x28,%rsp
  409c34:	48 89 7d e8          	mov    %rdi,-0x18(%rbp)
  409c38:	48 89 75 e0          	mov    %rsi,-0x20(%rbp)
  409c3c:	48 89 55 d8          	mov    %rdx,-0x28(%rbp)
  409c40:	48 89 4d d0          	mov    %rcx,-0x30(%rbp)
  409c44:	48 8b 45 e0          	mov    -0x20(%rbp),%rax
  409c48:	48 89 c7             	mov    %rax,%rdi
  409c4b:	e8 f7 03 00 00       	callq  40a047 <_ZSt18make_move_iteratorIPfESt13move_iteratorIT_ES2_>
  409c50:	48 89 c3             	mov    %rax,%rbx
  409c53:	48 8b 45 e8          	mov    -0x18(%rbp),%rax
  409c57:	48 89 c7             	mov    %rax,%rdi
  409c5a:	e8 e8 03 00 00       	callq  40a047 <_ZSt18make_move_iteratorIPfESt13move_iteratorIT_ES2_>
  409c5f:	48 89 c7             	mov    %rax,%rdi
  409c62:	48 8b 55 d0          	mov    -0x30(%rbp),%rdx
  409c66:	48 8b 45 d8          	mov    -0x28(%rbp),%rax
  409c6a:	48 89 d1             	mov    %rdx,%rcx
  409c6d:	48 89 c2             	mov    %rax,%rdx
  409c70:	48 89 de             	mov    %rbx,%rsi
  409c73:	e8 17 04 00 00       	callq  40a08f <_ZSt22__uninitialized_copy_aISt13move_iteratorIPfES1_fET0_T_S4_S3_RSaIT1_E>
  409c78:	48 83 c4 28          	add    $0x28,%rsp
  409c7c:	5b                   	pop    %rbx
  409c7d:	5d                   	pop    %rbp
  409c7e:	c3                   	retq   

0000000000409c7f <_ZSt13move_backwardIPfS0_ET0_T_S2_S1_>:
  409c7f:	55                   	push   %rbp
  409c80:	48 89 e5             	mov    %rsp,%rbp
  409c83:	53                   	push   %rbx
  409c84:	48 83 ec 28          	sub    $0x28,%rsp
  409c88:	48 89 7d e8          	mov    %rdi,-0x18(%rbp)
  409c8c:	48 89 75 e0          	mov    %rsi,-0x20(%rbp)
  409c90:	48 89 55 d8          	mov    %rdx,-0x28(%rbp)
  409c94:	48 8b 45 e0          	mov    -0x20(%rbp),%rax
  409c98:	48 89 c7             	mov    %rax,%rdi
  409c9b:	e8 20 04 00 00       	callq  40a0c0 <_ZSt12__miter_baseIPfET_S1_>
  409ca0:	48 89 c3             	mov    %rax,%rbx
  409ca3:	48 8b 45 e8          	mov    -0x18(%rbp),%rax
  409ca7:	48 89 c7             	mov    %rax,%rdi
  409caa:	e8 11 04 00 00       	callq  40a0c0 <_ZSt12__miter_baseIPfET_S1_>
  409caf:	48 89 c1             	mov    %rax,%rcx
  409cb2:	48 8b 45 d8          	mov    -0x28(%rbp),%rax
  409cb6:	48 89 c2             	mov    %rax,%rdx
  409cb9:	48 89 de             	mov    %rbx,%rsi
  409cbc:	48 89 cf             	mov    %rcx,%rdi
  409cbf:	e8 0a 04 00 00       	callq  40a0ce <_ZSt23__copy_move_backward_a2ILb1EPfS0_ET1_T0_S2_S1_>
  409cc4:	48 83 c4 28          	add    $0x28,%rsp
  409cc8:	5b                   	pop    %rbx
  409cc9:	5d                   	pop    %rbp
  409cca:	c3                   	retq   

0000000000409ccb <_ZSt4fillIPffEvT_S1_RKT0_>:
  409ccb:	55                   	push   %rbp
  409ccc:	48 89 e5             	mov    %rsp,%rbp
  409ccf:	53                   	push   %rbx
  409cd0:	48 83 ec 28          	sub    $0x28,%rsp
  409cd4:	48 89 7d e8          	mov    %rdi,-0x18(%rbp)
  409cd8:	48 89 75 e0          	mov    %rsi,-0x20(%rbp)
  409cdc:	48 89 55 d8          	mov    %rdx,-0x28(%rbp)
  409ce0:	48 8b 45 e0          	mov    -0x20(%rbp),%rax
  409ce4:	48 89 c7             	mov    %rax,%rdi
  409ce7:	e8 3a 04 00 00       	callq  40a126 <_ZSt12__niter_baseIPfET_S1_>
  409cec:	48 89 c3             	mov    %rax,%rbx
  409cef:	48 8b 45 e8          	mov    -0x18(%rbp),%rax
  409cf3:	48 89 c7             	mov    %rax,%rdi
  409cf6:	e8 2b 04 00 00       	callq  40a126 <_ZSt12__niter_baseIPfET_S1_>
  409cfb:	48 89 c1             	mov    %rax,%rcx
  409cfe:	48 8b 45 d8          	mov    -0x28(%rbp),%rax
  409d02:	48 89 c2             	mov    %rax,%rdx
  409d05:	48 89 de             	mov    %rbx,%rsi
  409d08:	48 89 cf             	mov    %rcx,%rdi
  409d0b:	e8 24 04 00 00       	callq  40a134 <_ZSt8__fill_aIPffEN9__gnu_cxx11__enable_ifIXsrSt11__is_scalarIT0_E7__valueEvE6__typeET_S8_RKS4_>
  409d10:	90                   	nop
  409d11:	48 83 c4 28          	add    $0x28,%rsp
  409d15:	5b                   	pop    %rbx
  409d16:	5d                   	pop    %rbp
  409d17:	c3                   	retq   

0000000000409d18 <_ZSt24__uninitialized_fill_n_aIPfmffET_S1_T0_RKT1_RSaIT2_E>:
  409d18:	55                   	push   %rbp
  409d19:	48 89 e5             	mov    %rsp,%rbp
  409d1c:	48 83 ec 20          	sub    $0x20,%rsp
  409d20:	48 89 7d f8          	mov    %rdi,-0x8(%rbp)
  409d24:	48 89 75 f0          	mov    %rsi,-0x10(%rbp)
  409d28:	48 89 55 e8          	mov    %rdx,-0x18(%rbp)
  409d2c:	48 89 4d e0          	mov    %rcx,-0x20(%rbp)
  409d30:	48 8b 55 e8          	mov    -0x18(%rbp),%rdx
  409d34:	48 8b 4d f0          	mov    -0x10(%rbp),%rcx
  409d38:	48 8b 45 f8          	mov    -0x8(%rbp),%rax
  409d3c:	48 89 ce             	mov    %rcx,%rsi
  409d3f:	48 89 c7             	mov    %rax,%rdi
  409d42:	e8 2b 04 00 00       	callq  40a172 <_ZSt20uninitialized_fill_nIPfmfET_S1_T0_RKT1_>
  409d47:	c9                   	leaveq 
  409d48:	c3                   	retq   
  409d49:	90                   	nop

0000000000409d4a <_ZNKSt6vectorIfSaIfEE12_M_check_lenEmPKc>:
  409d4a:	55                   	push   %rbp
  409d4b:	48 89 e5             	mov    %rsp,%rbp
  409d4e:	53                   	push   %rbx
  409d4f:	48 83 ec 48          	sub    $0x48,%rsp
  409d53:	48 89 7d c8          	mov    %rdi,-0x38(%rbp)
  409d57:	48 89 75 c0          	mov    %rsi,-0x40(%rbp)
  409d5b:	48 89 55 b8          	mov    %rdx,-0x48(%rbp)
  409d5f:	64 48 8b 04 25 28 00 	mov    %fs:0x28,%rax
  409d66:	00 00 
  409d68:	48 89 45 e8          	mov    %rax,-0x18(%rbp)
  409d6c:	31 c0                	xor    %eax,%eax
  409d6e:	48 8b 45 c8          	mov    -0x38(%rbp),%rax
  409d72:	48 89 c7             	mov    %rax,%rdi
  409d75:	e8 2a 04 00 00       	callq  40a1a4 <_ZNKSt6vectorIfSaIfEE8max_sizeEv>
  409d7a:	48 89 c3             	mov    %rax,%rbx
  409d7d:	48 8b 45 c8          	mov    -0x38(%rbp),%rax
  409d81:	48 89 c7             	mov    %rax,%rdi
  409d84:	e8 cf de ff ff       	callq  407c58 <_ZNKSt6vectorIfSaIfEE4sizeEv>
  409d89:	48 29 c3             	sub    %rax,%rbx
  409d8c:	48 89 da             	mov    %rbx,%rdx
  409d8f:	48 8b 45 c0          	mov    -0x40(%rbp),%rax
  409d93:	48 39 c2             	cmp    %rax,%rdx
  409d96:	0f 92 c0             	setb   %al
  409d99:	84 c0                	test   %al,%al
  409d9b:	74 0c                	je     409da9 <_ZNKSt6vectorIfSaIfEE12_M_check_lenEmPKc+0x5f>
  409d9d:	48 8b 45 b8          	mov    -0x48(%rbp),%rax
  409da1:	48 89 c7             	mov    %rax,%rdi
  409da4:	e8 17 a2 ff ff       	callq  403fc0 <_ZSt20__throw_length_errorPKc@plt>
  409da9:	48 8b 45 c8          	mov    -0x38(%rbp),%rax
  409dad:	48 89 c7             	mov    %rax,%rdi
  409db0:	e8 a3 de ff ff       	callq  407c58 <_ZNKSt6vectorIfSaIfEE4sizeEv>
  409db5:	48 89 c3             	mov    %rax,%rbx
  409db8:	48 8b 45 c8          	mov    -0x38(%rbp),%rax
  409dbc:	48 89 c7             	mov    %rax,%rdi
  409dbf:	e8 94 de ff ff       	callq  407c58 <_ZNKSt6vectorIfSaIfEE4sizeEv>
  409dc4:	48 89 45 d8          	mov    %rax,-0x28(%rbp)
  409dc8:	48 8d 55 c0          	lea    -0x40(%rbp),%rdx
  409dcc:	48 8d 45 d8          	lea    -0x28(%rbp),%rax
  409dd0:	48 89 d6             	mov    %rdx,%rsi
  409dd3:	48 89 c7             	mov    %rax,%rdi
  409dd6:	e8 b7 e0 ff ff       	callq  407e92 <_ZSt3maxImERKT_S2_S2_>
  409ddb:	48 8b 00             	mov    (%rax),%rax
  409dde:	48 01 d8             	add    %rbx,%rax
  409de1:	48 89 45 e0          	mov    %rax,-0x20(%rbp)
  409de5:	48 8b 45 c8          	mov    -0x38(%rbp),%rax
  409de9:	48 89 c7             	mov    %rax,%rdi
  409dec:	e8 67 de ff ff       	callq  407c58 <_ZNKSt6vectorIfSaIfEE4sizeEv>
  409df1:	48 3b 45 e0          	cmp    -0x20(%rbp),%rax
  409df5:	77 12                	ja     409e09 <_ZNKSt6vectorIfSaIfEE12_M_check_lenEmPKc+0xbf>
  409df7:	48 8b 45 c8          	mov    -0x38(%rbp),%rax
  409dfb:	48 89 c7             	mov    %rax,%rdi
  409dfe:	e8 a1 03 00 00       	callq  40a1a4 <_ZNKSt6vectorIfSaIfEE8max_sizeEv>
  409e03:	48 3b 45 e0          	cmp    -0x20(%rbp),%rax
  409e07:	73 0e                	jae    409e17 <_ZNKSt6vectorIfSaIfEE12_M_check_lenEmPKc+0xcd>
  409e09:	48 8b 45 c8          	mov    -0x38(%rbp),%rax
  409e0d:	48 89 c7             	mov    %rax,%rdi
  409e10:	e8 8f 03 00 00       	callq  40a1a4 <_ZNKSt6vectorIfSaIfEE8max_sizeEv>
  409e15:	eb 04                	jmp    409e1b <_ZNKSt6vectorIfSaIfEE12_M_check_lenEmPKc+0xd1>
  409e17:	48 8b 45 e0          	mov    -0x20(%rbp),%rax
  409e1b:	48 8b 4d e8          	mov    -0x18(%rbp),%rcx
  409e1f:	64 48 33 0c 25 28 00 	xor    %fs:0x28,%rcx
  409e26:	00 00 
  409e28:	74 05                	je     409e2f <_ZNKSt6vectorIfSaIfEE12_M_check_lenEmPKc+0xe5>
  409e2a:	e8 81 a0 ff ff       	callq  403eb0 <__stack_chk_fail@plt>
  409e2f:	48 83 c4 48          	add    $0x48,%rsp
  409e33:	5b                   	pop    %rbx
  409e34:	5d                   	pop    %rbp
  409e35:	c3                   	retq   

0000000000409e36 <_ZNSt12_Vector_baseIfSaIfEE11_M_allocateEm>:
  409e36:	55                   	push   %rbp
  409e37:	48 89 e5             	mov    %rsp,%rbp
  409e3a:	48 83 ec 10          	sub    $0x10,%rsp
  409e3e:	48 89 7d f8          	mov    %rdi,-0x8(%rbp)
  409e42:	48 89 75 f0          	mov    %rsi,-0x10(%rbp)
  409e46:	48 83 7d f0 00       	cmpq   $0x0,-0x10(%rbp)
  409e4b:	74 15                	je     409e62 <_ZNSt12_Vector_baseIfSaIfEE11_M_allocateEm+0x2c>
  409e4d:	48 8b 45 f8          	mov    -0x8(%rbp),%rax
  409e51:	48 8b 55 f0          	mov    -0x10(%rbp),%rdx
  409e55:	48 89 d6             	mov    %rdx,%rsi
  409e58:	48 89 c7             	mov    %rax,%rdi
  409e5b:	e8 66 03 00 00       	callq  40a1c6 <_ZNSt16allocator_traitsISaIfEE8allocateERS0_m>
  409e60:	eb 05                	jmp    409e67 <_ZNSt12_Vector_baseIfSaIfEE11_M_allocateEm+0x31>
  409e62:	b8 00 00 00 00       	mov    $0x0,%eax
  409e67:	c9                   	leaveq 
  409e68:	c3                   	retq   

0000000000409e69 <_ZSt34__uninitialized_move_if_noexcept_aIPfS0_SaIfEET0_T_S3_S2_RT1_>:
  409e69:	55                   	push   %rbp
  409e6a:	48 89 e5             	mov    %rsp,%rbp
  409e6d:	53                   	push   %rbx
  409e6e:	48 83 ec 28          	sub    $0x28,%rsp
  409e72:	48 89 7d e8          	mov    %rdi,-0x18(%rbp)
  409e76:	48 89 75 e0          	mov    %rsi,-0x20(%rbp)
  409e7a:	48 89 55 d8          	mov    %rdx,-0x28(%rbp)
  409e7e:	48 89 4d d0          	mov    %rcx,-0x30(%rbp)
  409e82:	48 8b 45 e0          	mov    -0x20(%rbp),%rax
  409e86:	48 89 c7             	mov    %rax,%rdi
  409e89:	e8 62 03 00 00       	callq  40a1f0 <_ZSt32__make_move_if_noexcept_iteratorIfSt13move_iteratorIPfEET0_PT_>
  409e8e:	48 89 c3             	mov    %rax,%rbx
  409e91:	48 8b 45 e8          	mov    -0x18(%rbp),%rax
  409e95:	48 89 c7             	mov    %rax,%rdi
  409e98:	e8 53 03 00 00       	callq  40a1f0 <_ZSt32__make_move_if_noexcept_iteratorIfSt13move_iteratorIPfEET0_PT_>
  409e9d:	48 89 c7             	mov    %rax,%rdi
  409ea0:	48 8b 55 d0          	mov    -0x30(%rbp),%rdx
  409ea4:	48 8b 45 d8          	mov    -0x28(%rbp),%rax
  409ea8:	48 89 d1             	mov    %rdx,%rcx
  409eab:	48 89 c2             	mov    %rax,%rdx
  409eae:	48 89 de             	mov    %rbx,%rsi
  409eb1:	e8 d9 01 00 00       	callq  40a08f <_ZSt22__uninitialized_copy_aISt13move_iteratorIPfES1_fET0_T_S4_S3_RSaIT1_E>
  409eb6:	48 83 c4 28          	add    $0x28,%rsp
  409eba:	5b                   	pop    %rbx
  409ebb:	5d                   	pop    %rbp
  409ebc:	c3                   	retq   

0000000000409ebd <_ZN6google8protobuf8internal21arena_destruct_objectIN5caffe9BlobProtoEEEvPv>:
  409ebd:	55                   	push   %rbp
  409ebe:	48 89 e5             	mov    %rsp,%rbp
  409ec1:	48 83 ec 10          	sub    $0x10,%rsp
  409ec5:	48 89 7d f8          	mov    %rdi,-0x8(%rbp)
  409ec9:	48 8b 45 f8          	mov    -0x8(%rbp),%rax
  409ecd:	48 8b 00             	mov    (%rax),%rax
  409ed0:	48 8b 00             	mov    (%rax),%rax
  409ed3:	48 8b 55 f8          	mov    -0x8(%rbp),%rdx
  409ed7:	48 89 d7             	mov    %rdx,%rdi
  409eda:	ff d0                	callq  *%rax
  409edc:	90                   	nop
  409edd:	c9                   	leaveq 
  409ede:	c3                   	retq   

0000000000409edf <_ZSt12__miter_baseIPPN5caffe4BlobIfEEEDTcl12__miter_basecldtfp_4baseEEESt13move_iteratorIT_E>:
  409edf:	55                   	push   %rbp
  409ee0:	48 89 e5             	mov    %rsp,%rbp
  409ee3:	48 83 ec 10          	sub    $0x10,%rsp
  409ee7:	48 89 7d f8          	mov    %rdi,-0x8(%rbp)
  409eeb:	48 8d 45 f8          	lea    -0x8(%rbp),%rax
  409eef:	48 89 c7             	mov    %rax,%rdi
  409ef2:	e8 41 03 00 00       	callq  40a238 <_ZNKSt13move_iteratorIPPN5caffe4BlobIfEEE4baseEv>
  409ef7:	48 89 c7             	mov    %rax,%rdi
  409efa:	e8 4a 03 00 00       	callq  40a249 <_ZSt12__miter_baseIPPN5caffe4BlobIfEEET_S5_>
  409eff:	c9                   	leaveq 
  409f00:	c3                   	retq   

0000000000409f01 <_ZSt14__copy_move_a2ILb1EPPN5caffe4BlobIfEES4_ET1_T0_S6_S5_>:
  409f01:	55                   	push   %rbp
  409f02:	48 89 e5             	mov    %rsp,%rbp
  409f05:	41 54                	push   %r12
  409f07:	53                   	push   %rbx
  409f08:	48 83 ec 20          	sub    $0x20,%rsp
  409f0c:	48 89 7d e8          	mov    %rdi,-0x18(%rbp)
  409f10:	48 89 75 e0          	mov    %rsi,-0x20(%rbp)
  409f14:	48 89 55 d8          	mov    %rdx,-0x28(%rbp)
  409f18:	48 8b 45 d8          	mov    -0x28(%rbp),%rax
  409f1c:	48 89 c7             	mov    %rax,%rdi
  409f1f:	e8 33 03 00 00       	callq  40a257 <_ZSt12__niter_baseIPPN5caffe4BlobIfEEET_S5_>
  409f24:	49 89 c4             	mov    %rax,%r12
  409f27:	48 8b 45 e0          	mov    -0x20(%rbp),%rax
  409f2b:	48 89 c7             	mov    %rax,%rdi
  409f2e:	e8 24 03 00 00       	callq  40a257 <_ZSt12__niter_baseIPPN5caffe4BlobIfEEET_S5_>
  409f33:	48 89 c3             	mov    %rax,%rbx
  409f36:	48 8b 45 e8          	mov    -0x18(%rbp),%rax
  409f3a:	48 89 c7             	mov    %rax,%rdi
  409f3d:	e8 15 03 00 00       	callq  40a257 <_ZSt12__niter_baseIPPN5caffe4BlobIfEEET_S5_>
  409f42:	4c 89 e2             	mov    %r12,%rdx
  409f45:	48 89 de             	mov    %rbx,%rsi
  409f48:	48 89 c7             	mov    %rax,%rdi
  409f4b:	e8 15 03 00 00       	callq  40a265 <_ZSt13__copy_move_aILb1EPPN5caffe4BlobIfEES4_ET1_T0_S6_S5_>
  409f50:	48 83 c4 20          	add    $0x20,%rsp
  409f54:	5b                   	pop    %rbx
  409f55:	41 5c                	pop    %r12
  409f57:	5d                   	pop    %rbp
  409f58:	c3                   	retq   

0000000000409f59 <_ZSt10_ConstructIN5boost10shared_ptrIN5caffe4BlobIfEEEEJEEvPT_DpOT0_>:
  409f59:	55                   	push   %rbp
  409f5a:	48 89 e5             	mov    %rsp,%rbp
  409f5d:	48 83 ec 10          	sub    $0x10,%rsp
  409f61:	48 89 7d f8          	mov    %rdi,-0x8(%rbp)
  409f65:	48 8b 45 f8          	mov    -0x8(%rbp),%rax
  409f69:	48 89 c6             	mov    %rax,%rsi
  409f6c:	bf 10 00 00 00       	mov    $0x10,%edi
  409f71:	e8 f1 a4 ff ff       	callq  404467 <_ZnwmPv>
  409f76:	48 85 c0             	test   %rax,%rax
  409f79:	74 08                	je     409f83 <_ZSt10_ConstructIN5boost10shared_ptrIN5caffe4BlobIfEEEEJEEvPT_DpOT0_+0x2a>
  409f7b:	48 89 c7             	mov    %rax,%rdi
  409f7e:	e8 13 03 00 00       	callq  40a296 <_ZN5boost10shared_ptrIN5caffe4BlobIfEEEC1Ev>
  409f83:	90                   	nop
  409f84:	c9                   	leaveq 
  409f85:	c3                   	retq   

0000000000409f86 <_ZNK9__gnu_cxx13new_allocatorIN5boost10shared_ptrIN5caffe4BlobIfEEEEE8max_sizeEv>:
  409f86:	55                   	push   %rbp
  409f87:	48 89 e5             	mov    %rsp,%rbp
  409f8a:	48 89 7d f8          	mov    %rdi,-0x8(%rbp)
  409f8e:	48 b8 ff ff ff ff ff 	movabs $0xfffffffffffffff,%rax
  409f95:	ff ff 0f 
  409f98:	5d                   	pop    %rbp
  409f99:	c3                   	retq   

0000000000409f9a <_ZNSt20__uninitialized_copyILb0EE13__uninit_copyISt13move_iteratorIPN5boost10shared_ptrIN5caffe4BlobIfEEEEES9_EET0_T_SC_SB_>:
  409f9a:	55                   	push   %rbp
  409f9b:	48 89 e5             	mov    %rsp,%rbp
  409f9e:	53                   	push   %rbx
  409f9f:	48 83 ec 38          	sub    $0x38,%rsp
  409fa3:	48 89 7d d8          	mov    %rdi,-0x28(%rbp)
  409fa7:	48 89 75 d0          	mov    %rsi,-0x30(%rbp)
  409fab:	48 89 55 c8          	mov    %rdx,-0x38(%rbp)
  409faf:	48 8b 45 c8          	mov    -0x38(%rbp),%rax
  409fb3:	48 89 45 e8          	mov    %rax,-0x18(%rbp)
  409fb7:	48 8d 55 d0          	lea    -0x30(%rbp),%rdx
  409fbb:	48 8d 45 d8          	lea    -0x28(%rbp),%rax
  409fbf:	48 89 d6             	mov    %rdx,%rsi
  409fc2:	48 89 c7             	mov    %rax,%rdi
  409fc5:	e8 f6 02 00 00       	callq  40a2c0 <_ZStneIPN5boost10shared_ptrIN5caffe4BlobIfEEEEEbRKSt13move_iteratorIT_ESB_>
  409fca:	84 c0                	test   %al,%al
  409fcc:	74 39                	je     40a007 <_ZNSt20__uninitialized_copyILb0EE13__uninit_copyISt13move_iteratorIPN5boost10shared_ptrIN5caffe4BlobIfEEEEES9_EET0_T_SC_SB_+0x6d>
  409fce:	48 8d 45 d8          	lea    -0x28(%rbp),%rax
  409fd2:	48 89 c7             	mov    %rax,%rdi
  409fd5:	e8 2e 03 00 00       	callq  40a308 <_ZNKSt13move_iteratorIPN5boost10shared_ptrIN5caffe4BlobIfEEEEEdeEv>
  409fda:	48 89 c3             	mov    %rax,%rbx
  409fdd:	48 8b 45 e8          	mov    -0x18(%rbp),%rax
  409fe1:	48 89 c7             	mov    %rax,%rdi
  409fe4:	e8 dc f9 ff ff       	callq  4099c5 <_ZSt11__addressofIN5boost10shared_ptrIN5caffe4BlobIfEEEEEPT_RS6_>
  409fe9:	48 89 de             	mov    %rbx,%rsi
  409fec:	48 89 c7             	mov    %rax,%rdi
  409fef:	e8 33 03 00 00       	callq  40a327 <_ZSt10_ConstructIN5boost10shared_ptrIN5caffe4BlobIfEEEEJS5_EEvPT_DpOT0_>
  409ff4:	48 8d 45 d8          	lea    -0x28(%rbp),%rax
  409ff8:	48 89 c7             	mov    %rax,%rdi
  409ffb:	e8 e8 02 00 00       	callq  40a2e8 <_ZNSt13move_iteratorIPN5boost10shared_ptrIN5caffe4BlobIfEEEEEppEv>
  40a000:	48 83 45 e8 10       	addq   $0x10,-0x18(%rbp)
  40a005:	eb b0                	jmp    409fb7 <_ZNSt20__uninitialized_copyILb0EE13__uninit_copyISt13move_iteratorIPN5boost10shared_ptrIN5caffe4BlobIfEEEEES9_EET0_T_SC_SB_+0x1d>
  40a007:	48 8b 45 e8          	mov    -0x18(%rbp),%rax
  40a00b:	eb 33                	jmp    40a040 <_ZNSt20__uninitialized_copyILb0EE13__uninit_copyISt13move_iteratorIPN5boost10shared_ptrIN5caffe4BlobIfEEEEES9_EET0_T_SC_SB_+0xa6>
  40a00d:	48 89 c7             	mov    %rax,%rdi
  40a010:	e8 cb 9d ff ff       	callq  403de0 <__cxa_begin_catch@plt>
  40a015:	48 8b 55 e8          	mov    -0x18(%rbp),%rdx
  40a019:	48 8b 45 c8          	mov    -0x38(%rbp),%rax
  40a01d:	48 89 d6             	mov    %rdx,%rsi
  40a020:	48 89 c7             	mov    %rax,%rdi
  40a023:	e8 c1 e9 ff ff       	callq  4089e9 <_ZSt8_DestroyIPN5boost10shared_ptrIN5caffe4BlobIfEEEEEvT_S7_>
  40a028:	e8 63 a0 ff ff       	callq  404090 <__cxa_rethrow@plt>
  40a02d:	48 89 c3             	mov    %rax,%rbx
  40a030:	e8 2b a0 ff ff       	callq  404060 <__cxa_end_catch@plt>
  40a035:	48 89 d8             	mov    %rbx,%rax
  40a038:	48 89 c7             	mov    %rax,%rdi
  40a03b:	e8 b0 9f ff ff       	callq  403ff0 <_Unwind_Resume@plt>
  40a040:	48 83 c4 38          	add    $0x38,%rsp
  40a044:	5b                   	pop    %rbx
  40a045:	5d                   	pop    %rbp
  40a046:	c3                   	retq   

000000000040a047 <_ZSt18make_move_iteratorIPfESt13move_iteratorIT_ES2_>:
  40a047:	55                   	push   %rbp
  40a048:	48 89 e5             	mov    %rsp,%rbp
  40a04b:	48 83 ec 20          	sub    $0x20,%rsp
  40a04f:	48 89 7d e8          	mov    %rdi,-0x18(%rbp)
  40a053:	64 48 8b 04 25 28 00 	mov    %fs:0x28,%rax
  40a05a:	00 00 
  40a05c:	48 89 45 f8          	mov    %rax,-0x8(%rbp)
  40a060:	31 c0                	xor    %eax,%eax
  40a062:	48 8b 55 e8          	mov    -0x18(%rbp),%rdx
  40a066:	48 8d 45 f0          	lea    -0x10(%rbp),%rax
  40a06a:	48 89 d6             	mov    %rdx,%rsi
  40a06d:	48 89 c7             	mov    %rax,%rdi
  40a070:	e8 fb 02 00 00       	callq  40a370 <_ZNSt13move_iteratorIPfEC1ES0_>
  40a075:	48 8b 45 f0          	mov    -0x10(%rbp),%rax
  40a079:	48 8b 4d f8          	mov    -0x8(%rbp),%rcx
  40a07d:	64 48 33 0c 25 28 00 	xor    %fs:0x28,%rcx
  40a084:	00 00 
  40a086:	74 05                	je     40a08d <_ZSt18make_move_iteratorIPfESt13move_iteratorIT_ES2_+0x46>
  40a088:	e8 23 9e ff ff       	callq  403eb0 <__stack_chk_fail@plt>
  40a08d:	c9                   	leaveq 
  40a08e:	c3                   	retq   

000000000040a08f <_ZSt22__uninitialized_copy_aISt13move_iteratorIPfES1_fET0_T_S4_S3_RSaIT1_E>:
  40a08f:	55                   	push   %rbp
  40a090:	48 89 e5             	mov    %rsp,%rbp
  40a093:	48 83 ec 20          	sub    $0x20,%rsp
  40a097:	48 89 7d f8          	mov    %rdi,-0x8(%rbp)
  40a09b:	48 89 75 f0          	mov    %rsi,-0x10(%rbp)
  40a09f:	48 89 55 e8          	mov    %rdx,-0x18(%rbp)
  40a0a3:	48 89 4d e0          	mov    %rcx,-0x20(%rbp)
  40a0a7:	48 8b 55 e8          	mov    -0x18(%rbp),%rdx
  40a0ab:	48 8b 4d f0          	mov    -0x10(%rbp),%rcx
  40a0af:	48 8b 45 f8          	mov    -0x8(%rbp),%rax
  40a0b3:	48 89 ce             	mov    %rcx,%rsi
  40a0b6:	48 89 c7             	mov    %rax,%rdi
  40a0b9:	e8 cc 02 00 00       	callq  40a38a <_ZSt18uninitialized_copyISt13move_iteratorIPfES1_ET0_T_S4_S3_>
  40a0be:	c9                   	leaveq 
  40a0bf:	c3                   	retq   

000000000040a0c0 <_ZSt12__miter_baseIPfET_S1_>:
  40a0c0:	55                   	push   %rbp
  40a0c1:	48 89 e5             	mov    %rsp,%rbp
  40a0c4:	48 89 7d f8          	mov    %rdi,-0x8(%rbp)
  40a0c8:	48 8b 45 f8          	mov    -0x8(%rbp),%rax
  40a0cc:	5d                   	pop    %rbp
  40a0cd:	c3                   	retq   

000000000040a0ce <_ZSt23__copy_move_backward_a2ILb1EPfS0_ET1_T0_S2_S1_>:
  40a0ce:	55                   	push   %rbp
  40a0cf:	48 89 e5             	mov    %rsp,%rbp
  40a0d2:	41 54                	push   %r12
  40a0d4:	53                   	push   %rbx
  40a0d5:	48 83 ec 20          	sub    $0x20,%rsp
  40a0d9:	48 89 7d e8          	mov    %rdi,-0x18(%rbp)
  40a0dd:	48 89 75 e0          	mov    %rsi,-0x20(%rbp)
  40a0e1:	48 89 55 d8          	mov    %rdx,-0x28(%rbp)
  40a0e5:	48 8b 45 d8          	mov    -0x28(%rbp),%rax
  40a0e9:	48 89 c7             	mov    %rax,%rdi
  40a0ec:	e8 35 00 00 00       	callq  40a126 <_ZSt12__niter_baseIPfET_S1_>
  40a0f1:	49 89 c4             	mov    %rax,%r12
  40a0f4:	48 8b 45 e0          	mov    -0x20(%rbp),%rax
  40a0f8:	48 89 c7             	mov    %rax,%rdi
  40a0fb:	e8 26 00 00 00       	callq  40a126 <_ZSt12__niter_baseIPfET_S1_>
  40a100:	48 89 c3             	mov    %rax,%rbx
  40a103:	48 8b 45 e8          	mov    -0x18(%rbp),%rax
  40a107:	48 89 c7             	mov    %rax,%rdi
  40a10a:	e8 17 00 00 00       	callq  40a126 <_ZSt12__niter_baseIPfET_S1_>
  40a10f:	4c 89 e2             	mov    %r12,%rdx
  40a112:	48 89 de             	mov    %rbx,%rsi
  40a115:	48 89 c7             	mov    %rax,%rdi
  40a118:	e8 9e 02 00 00       	callq  40a3bb <_ZSt22__copy_move_backward_aILb1EPfS0_ET1_T0_S2_S1_>
  40a11d:	48 83 c4 20          	add    $0x20,%rsp
  40a121:	5b                   	pop    %rbx
  40a122:	41 5c                	pop    %r12
  40a124:	5d                   	pop    %rbp
  40a125:	c3                   	retq   

000000000040a126 <_ZSt12__niter_baseIPfET_S1_>:
  40a126:	55                   	push   %rbp
  40a127:	48 89 e5             	mov    %rsp,%rbp
  40a12a:	48 89 7d f8          	mov    %rdi,-0x8(%rbp)
  40a12e:	48 8b 45 f8          	mov    -0x8(%rbp),%rax
  40a132:	5d                   	pop    %rbp
  40a133:	c3                   	retq   

000000000040a134 <_ZSt8__fill_aIPffEN9__gnu_cxx11__enable_ifIXsrSt11__is_scalarIT0_E7__valueEvE6__typeET_S8_RKS4_>:
  40a134:	55                   	push   %rbp
  40a135:	48 89 e5             	mov    %rsp,%rbp
  40a138:	48 89 7d e8          	mov    %rdi,-0x18(%rbp)
  40a13c:	48 89 75 e0          	mov    %rsi,-0x20(%rbp)
  40a140:	48 89 55 d8          	mov    %rdx,-0x28(%rbp)
  40a144:	48 8b 45 d8          	mov    -0x28(%rbp),%rax
  40a148:	f3 0f 10 00          	movss  (%rax),%xmm0
  40a14c:	f3 0f 11 45 fc       	movss  %xmm0,-0x4(%rbp)
  40a151:	48 8b 45 e8          	mov    -0x18(%rbp),%rax
  40a155:	48 3b 45 e0          	cmp    -0x20(%rbp),%rax
  40a159:	74 14                	je     40a16f <_ZSt8__fill_aIPffEN9__gnu_cxx11__enable_ifIXsrSt11__is_scalarIT0_E7__valueEvE6__typeET_S8_RKS4_+0x3b>
  40a15b:	48 8b 45 e8          	mov    -0x18(%rbp),%rax
  40a15f:	f3 0f 10 45 fc       	movss  -0x4(%rbp),%xmm0
  40a164:	f3 0f 11 00          	movss  %xmm0,(%rax)
  40a168:	48 83 45 e8 04       	addq   $0x4,-0x18(%rbp)
  40a16d:	eb e2                	jmp    40a151 <_ZSt8__fill_aIPffEN9__gnu_cxx11__enable_ifIXsrSt11__is_scalarIT0_E7__valueEvE6__typeET_S8_RKS4_+0x1d>
  40a16f:	90                   	nop
  40a170:	5d                   	pop    %rbp
  40a171:	c3                   	retq   

000000000040a172 <_ZSt20uninitialized_fill_nIPfmfET_S1_T0_RKT1_>:
  40a172:	55                   	push   %rbp
  40a173:	48 89 e5             	mov    %rsp,%rbp
  40a176:	48 83 ec 30          	sub    $0x30,%rsp
  40a17a:	48 89 7d e8          	mov    %rdi,-0x18(%rbp)
  40a17e:	48 89 75 e0          	mov    %rsi,-0x20(%rbp)
  40a182:	48 89 55 d8          	mov    %rdx,-0x28(%rbp)
  40a186:	c6 45 ff 01          	movb   $0x1,-0x1(%rbp)
  40a18a:	48 8b 55 d8          	mov    -0x28(%rbp),%rdx
  40a18e:	48 8b 4d e0          	mov    -0x20(%rbp),%rcx
  40a192:	48 8b 45 e8          	mov    -0x18(%rbp),%rax
  40a196:	48 89 ce             	mov    %rcx,%rsi
  40a199:	48 89 c7             	mov    %rax,%rdi
  40a19c:	e8 4b 02 00 00       	callq  40a3ec <_ZNSt22__uninitialized_fill_nILb1EE15__uninit_fill_nIPfmfEET_S3_T0_RKT1_>
  40a1a1:	c9                   	leaveq 
  40a1a2:	c3                   	retq   
  40a1a3:	90                   	nop

000000000040a1a4 <_ZNKSt6vectorIfSaIfEE8max_sizeEv>:
  40a1a4:	55                   	push   %rbp
  40a1a5:	48 89 e5             	mov    %rsp,%rbp
  40a1a8:	48 83 ec 10          	sub    $0x10,%rsp
  40a1ac:	48 89 7d f8          	mov    %rdi,-0x8(%rbp)
  40a1b0:	48 8b 45 f8          	mov    -0x8(%rbp),%rax
  40a1b4:	48 89 c7             	mov    %rax,%rdi
  40a1b7:	e8 78 02 00 00       	callq  40a434 <_ZNKSt12_Vector_baseIfSaIfEE19_M_get_Tp_allocatorEv>
  40a1bc:	48 89 c7             	mov    %rax,%rdi
  40a1bf:	e8 55 02 00 00       	callq  40a419 <_ZNSt16allocator_traitsISaIfEE8max_sizeERKS0_>
  40a1c4:	c9                   	leaveq 
  40a1c5:	c3                   	retq   

000000000040a1c6 <_ZNSt16allocator_traitsISaIfEE8allocateERS0_m>:
  40a1c6:	55                   	push   %rbp
  40a1c7:	48 89 e5             	mov    %rsp,%rbp
  40a1ca:	48 83 ec 10          	sub    $0x10,%rsp
  40a1ce:	48 89 7d f8          	mov    %rdi,-0x8(%rbp)
  40a1d2:	48 89 75 f0          	mov    %rsi,-0x10(%rbp)
  40a1d6:	48 8b 4d f0          	mov    -0x10(%rbp),%rcx
  40a1da:	48 8b 45 f8          	mov    -0x8(%rbp),%rax
  40a1de:	ba 00 00 00 00       	mov    $0x0,%edx
  40a1e3:	48 89 ce             	mov    %rcx,%rsi
  40a1e6:	48 89 c7             	mov    %rax,%rdi
  40a1e9:	e8 54 02 00 00       	callq  40a442 <_ZN9__gnu_cxx13new_allocatorIfE8allocateEmPKv>
  40a1ee:	c9                   	leaveq 
  40a1ef:	c3                   	retq   

000000000040a1f0 <_ZSt32__make_move_if_noexcept_iteratorIfSt13move_iteratorIPfEET0_PT_>:
  40a1f0:	55                   	push   %rbp
  40a1f1:	48 89 e5             	mov    %rsp,%rbp
  40a1f4:	48 83 ec 20          	sub    $0x20,%rsp
  40a1f8:	48 89 7d e8          	mov    %rdi,-0x18(%rbp)
  40a1fc:	64 48 8b 04 25 28 00 	mov    %fs:0x28,%rax
  40a203:	00 00 
  40a205:	48 89 45 f8          	mov    %rax,-0x8(%rbp)
  40a209:	31 c0                	xor    %eax,%eax
  40a20b:	48 8b 55 e8          	mov    -0x18(%rbp),%rdx
  40a20f:	48 8d 45 f0          	lea    -0x10(%rbp),%rax
  40a213:	48 89 d6             	mov    %rdx,%rsi
  40a216:	48 89 c7             	mov    %rax,%rdi
  40a219:	e8 52 01 00 00       	callq  40a370 <_ZNSt13move_iteratorIPfEC1ES0_>
  40a21e:	48 8b 45 f0          	mov    -0x10(%rbp),%rax
  40a222:	48 8b 4d f8          	mov    -0x8(%rbp),%rcx
  40a226:	64 48 33 0c 25 28 00 	xor    %fs:0x28,%rcx
  40a22d:	00 00 
  40a22f:	74 05                	je     40a236 <_ZSt32__make_move_if_noexcept_iteratorIfSt13move_iteratorIPfEET0_PT_+0x46>
  40a231:	e8 7a 9c ff ff       	callq  403eb0 <__stack_chk_fail@plt>
  40a236:	c9                   	leaveq 
  40a237:	c3                   	retq   

000000000040a238 <_ZNKSt13move_iteratorIPPN5caffe4BlobIfEEE4baseEv>:
  40a238:	55                   	push   %rbp
  40a239:	48 89 e5             	mov    %rsp,%rbp
  40a23c:	48 89 7d f8          	mov    %rdi,-0x8(%rbp)
  40a240:	48 8b 45 f8          	mov    -0x8(%rbp),%rax
  40a244:	48 8b 00             	mov    (%rax),%rax
  40a247:	5d                   	pop    %rbp
  40a248:	c3                   	retq   

000000000040a249 <_ZSt12__miter_baseIPPN5caffe4BlobIfEEET_S5_>:
  40a249:	55                   	push   %rbp
  40a24a:	48 89 e5             	mov    %rsp,%rbp
  40a24d:	48 89 7d f8          	mov    %rdi,-0x8(%rbp)
  40a251:	48 8b 45 f8          	mov    -0x8(%rbp),%rax
  40a255:	5d                   	pop    %rbp
  40a256:	c3                   	retq   

000000000040a257 <_ZSt12__niter_baseIPPN5caffe4BlobIfEEET_S5_>:
  40a257:	55                   	push   %rbp
  40a258:	48 89 e5             	mov    %rsp,%rbp
  40a25b:	48 89 7d f8          	mov    %rdi,-0x8(%rbp)
  40a25f:	48 8b 45 f8          	mov    -0x8(%rbp),%rax
  40a263:	5d                   	pop    %rbp
  40a264:	c3                   	retq   

000000000040a265 <_ZSt13__copy_move_aILb1EPPN5caffe4BlobIfEES4_ET1_T0_S6_S5_>:
  40a265:	55                   	push   %rbp
  40a266:	48 89 e5             	mov    %rsp,%rbp
  40a269:	48 83 ec 30          	sub    $0x30,%rsp
  40a26d:	48 89 7d e8          	mov    %rdi,-0x18(%rbp)
  40a271:	48 89 75 e0          	mov    %rsi,-0x20(%rbp)
  40a275:	48 89 55 d8          	mov    %rdx,-0x28(%rbp)
  40a279:	c6 45 ff 01          	movb   $0x1,-0x1(%rbp)
  40a27d:	48 8b 55 d8          	mov    -0x28(%rbp),%rdx
  40a281:	48 8b 4d e0          	mov    -0x20(%rbp),%rcx
  40a285:	48 8b 45 e8          	mov    -0x18(%rbp),%rax
  40a289:	48 89 ce             	mov    %rcx,%rsi
  40a28c:	48 89 c7             	mov    %rax,%rdi
  40a28f:	e8 f0 01 00 00       	callq  40a484 <_ZNSt11__copy_moveILb1ELb1ESt26random_access_iterator_tagE8__copy_mIPN5caffe4BlobIfEEEEPT_PKS7_SA_S8_>
  40a294:	c9                   	leaveq 
  40a295:	c3                   	retq   

000000000040a296 <_ZN5boost10shared_ptrIN5caffe4BlobIfEEEC1Ev>:
  40a296:	55                   	push   %rbp
  40a297:	48 89 e5             	mov    %rsp,%rbp
  40a29a:	48 83 ec 10          	sub    $0x10,%rsp
  40a29e:	48 89 7d f8          	mov    %rdi,-0x8(%rbp)
  40a2a2:	48 8b 45 f8          	mov    -0x8(%rbp),%rax
  40a2a6:	48 c7 00 00 00 00 00 	movq   $0x0,(%rax)
  40a2ad:	48 8b 45 f8          	mov    -0x8(%rbp),%rax
  40a2b1:	48 83 c0 08          	add    $0x8,%rax
  40a2b5:	48 89 c7             	mov    %rax,%rdi
  40a2b8:	e8 89 a3 ff ff       	callq  404646 <_ZN5boost6detail12shared_countC1Ev>
  40a2bd:	90                   	nop
  40a2be:	c9                   	leaveq 
  40a2bf:	c3                   	retq   

000000000040a2c0 <_ZStneIPN5boost10shared_ptrIN5caffe4BlobIfEEEEEbRKSt13move_iteratorIT_ESB_>:
  40a2c0:	55                   	push   %rbp
  40a2c1:	48 89 e5             	mov    %rsp,%rbp
  40a2c4:	48 83 ec 10          	sub    $0x10,%rsp
  40a2c8:	48 89 7d f8          	mov    %rdi,-0x8(%rbp)
  40a2cc:	48 89 75 f0          	mov    %rsi,-0x10(%rbp)
  40a2d0:	48 8b 55 f0          	mov    -0x10(%rbp),%rdx
  40a2d4:	48 8b 45 f8          	mov    -0x8(%rbp),%rax
  40a2d8:	48 89 d6             	mov    %rdx,%rsi
  40a2db:	48 89 c7             	mov    %rax,%rdi
  40a2de:	e8 06 02 00 00       	callq  40a4e9 <_ZSteqIPN5boost10shared_ptrIN5caffe4BlobIfEEEEEbRKSt13move_iteratorIT_ESB_>
  40a2e3:	83 f0 01             	xor    $0x1,%eax
  40a2e6:	c9                   	leaveq 
  40a2e7:	c3                   	retq   

000000000040a2e8 <_ZNSt13move_iteratorIPN5boost10shared_ptrIN5caffe4BlobIfEEEEEppEv>:
  40a2e8:	55                   	push   %rbp
  40a2e9:	48 89 e5             	mov    %rsp,%rbp
  40a2ec:	48 89 7d f8          	mov    %rdi,-0x8(%rbp)
  40a2f0:	48 8b 45 f8          	mov    -0x8(%rbp),%rax
  40a2f4:	48 8b 00             	mov    (%rax),%rax
  40a2f7:	48 8d 50 10          	lea    0x10(%rax),%rdx
  40a2fb:	48 8b 45 f8          	mov    -0x8(%rbp),%rax
  40a2ff:	48 89 10             	mov    %rdx,(%rax)
  40a302:	48 8b 45 f8          	mov    -0x8(%rbp),%rax
  40a306:	5d                   	pop    %rbp
  40a307:	c3                   	retq   

000000000040a308 <_ZNKSt13move_iteratorIPN5boost10shared_ptrIN5caffe4BlobIfEEEEEdeEv>:
  40a308:	55                   	push   %rbp
  40a309:	48 89 e5             	mov    %rsp,%rbp
  40a30c:	48 89 7d f8          	mov    %rdi,-0x8(%rbp)
  40a310:	48 8b 45 f8          	mov    -0x8(%rbp),%rax
  40a314:	48 8b 00             	mov    (%rax),%rax
  40a317:	5d                   	pop    %rbp
  40a318:	c3                   	retq   

000000000040a319 <_ZSt7forwardIN5boost10shared_ptrIN5caffe4BlobIfEEEEEOT_RNSt16remove_referenceIS6_E4typeE>:
  40a319:	55                   	push   %rbp
  40a31a:	48 89 e5             	mov    %rsp,%rbp
  40a31d:	48 89 7d f8          	mov    %rdi,-0x8(%rbp)
  40a321:	48 8b 45 f8          	mov    -0x8(%rbp),%rax
  40a325:	5d                   	pop    %rbp
  40a326:	c3                   	retq   

000000000040a327 <_ZSt10_ConstructIN5boost10shared_ptrIN5caffe4BlobIfEEEEJS5_EEvPT_DpOT0_>:
  40a327:	55                   	push   %rbp
  40a328:	48 89 e5             	mov    %rsp,%rbp
  40a32b:	53                   	push   %rbx
  40a32c:	48 83 ec 18          	sub    $0x18,%rsp
  40a330:	48 89 7d e8          	mov    %rdi,-0x18(%rbp)
  40a334:	48 89 75 e0          	mov    %rsi,-0x20(%rbp)
  40a338:	48 8b 45 e0          	mov    -0x20(%rbp),%rax
  40a33c:	48 89 c7             	mov    %rax,%rdi
  40a33f:	e8 d5 ff ff ff       	callq  40a319 <_ZSt7forwardIN5boost10shared_ptrIN5caffe4BlobIfEEEEEOT_RNSt16remove_referenceIS6_E4typeE>
  40a344:	48 89 c3             	mov    %rax,%rbx
  40a347:	48 8b 45 e8          	mov    -0x18(%rbp),%rax
  40a34b:	48 89 c6             	mov    %rax,%rsi
  40a34e:	bf 10 00 00 00       	mov    $0x10,%edi
  40a353:	e8 0f a1 ff ff       	callq  404467 <_ZnwmPv>
  40a358:	48 85 c0             	test   %rax,%rax
  40a35b:	74 0b                	je     40a368 <_ZSt10_ConstructIN5boost10shared_ptrIN5caffe4BlobIfEEEEJS5_EEvPT_DpOT0_+0x41>
  40a35d:	48 89 de             	mov    %rbx,%rsi
  40a360:	48 89 c7             	mov    %rax,%rdi
  40a363:	e8 ba 01 00 00       	callq  40a522 <_ZN5boost10shared_ptrIN5caffe4BlobIfEEEC1EOS4_>
  40a368:	90                   	nop
  40a369:	48 83 c4 18          	add    $0x18,%rsp
  40a36d:	5b                   	pop    %rbx
  40a36e:	5d                   	pop    %rbp
  40a36f:	c3                   	retq   

000000000040a370 <_ZNSt13move_iteratorIPfEC1ES0_>:
  40a370:	55                   	push   %rbp
  40a371:	48 89 e5             	mov    %rsp,%rbp
  40a374:	48 89 7d f8          	mov    %rdi,-0x8(%rbp)
  40a378:	48 89 75 f0          	mov    %rsi,-0x10(%rbp)
  40a37c:	48 8b 45 f8          	mov    -0x8(%rbp),%rax
  40a380:	48 8b 55 f0          	mov    -0x10(%rbp),%rdx
  40a384:	48 89 10             	mov    %rdx,(%rax)
  40a387:	90                   	nop
  40a388:	5d                   	pop    %rbp
  40a389:	c3                   	retq   

000000000040a38a <_ZSt18uninitialized_copyISt13move_iteratorIPfES1_ET0_T_S4_S3_>:
  40a38a:	55                   	push   %rbp
  40a38b:	48 89 e5             	mov    %rsp,%rbp
  40a38e:	48 83 ec 30          	sub    $0x30,%rsp
  40a392:	48 89 7d e8          	mov    %rdi,-0x18(%rbp)
  40a396:	48 89 75 e0          	mov    %rsi,-0x20(%rbp)
  40a39a:	48 89 55 d8          	mov    %rdx,-0x28(%rbp)
  40a39e:	c6 45 ff 01          	movb   $0x1,-0x1(%rbp)
  40a3a2:	48 8b 55 d8          	mov    -0x28(%rbp),%rdx
  40a3a6:	48 8b 4d e0          	mov    -0x20(%rbp),%rcx
  40a3aa:	48 8b 45 e8          	mov    -0x18(%rbp),%rax
  40a3ae:	48 89 ce             	mov    %rcx,%rsi
  40a3b1:	48 89 c7             	mov    %rax,%rdi
  40a3b4:	e8 c0 01 00 00       	callq  40a579 <_ZNSt20__uninitialized_copyILb1EE13__uninit_copyISt13move_iteratorIPfES3_EET0_T_S6_S5_>
  40a3b9:	c9                   	leaveq 
  40a3ba:	c3                   	retq   

000000000040a3bb <_ZSt22__copy_move_backward_aILb1EPfS0_ET1_T0_S2_S1_>:
  40a3bb:	55                   	push   %rbp
  40a3bc:	48 89 e5             	mov    %rsp,%rbp
  40a3bf:	48 83 ec 30          	sub    $0x30,%rsp
  40a3c3:	48 89 7d e8          	mov    %rdi,-0x18(%rbp)
  40a3c7:	48 89 75 e0          	mov    %rsi,-0x20(%rbp)
  40a3cb:	48 89 55 d8          	mov    %rdx,-0x28(%rbp)
  40a3cf:	c6 45 ff 01          	movb   $0x1,-0x1(%rbp)
  40a3d3:	48 8b 55 d8          	mov    -0x28(%rbp),%rdx
  40a3d7:	48 8b 4d e0          	mov    -0x20(%rbp),%rcx
  40a3db:	48 8b 45 e8          	mov    -0x18(%rbp),%rax
  40a3df:	48 89 ce             	mov    %rcx,%rsi
  40a3e2:	48 89 c7             	mov    %rax,%rdi
  40a3e5:	e8 bc 01 00 00       	callq  40a5a6 <_ZNSt20__copy_move_backwardILb1ELb1ESt26random_access_iterator_tagE13__copy_move_bIfEEPT_PKS3_S6_S4_>
  40a3ea:	c9                   	leaveq 
  40a3eb:	c3                   	retq   

000000000040a3ec <_ZNSt22__uninitialized_fill_nILb1EE15__uninit_fill_nIPfmfEET_S3_T0_RKT1_>:
  40a3ec:	55                   	push   %rbp
  40a3ed:	48 89 e5             	mov    %rsp,%rbp
  40a3f0:	48 83 ec 20          	sub    $0x20,%rsp
  40a3f4:	48 89 7d f8          	mov    %rdi,-0x8(%rbp)
  40a3f8:	48 89 75 f0          	mov    %rsi,-0x10(%rbp)
  40a3fc:	48 89 55 e8          	mov    %rdx,-0x18(%rbp)
  40a400:	48 8b 55 e8          	mov    -0x18(%rbp),%rdx
  40a404:	48 8b 4d f0          	mov    -0x10(%rbp),%rcx
  40a408:	48 8b 45 f8          	mov    -0x8(%rbp),%rax
  40a40c:	48 89 ce             	mov    %rcx,%rsi
  40a40f:	48 89 c7             	mov    %rax,%rdi
  40a412:	e8 07 02 00 00       	callq  40a61e <_ZSt6fill_nIPfmfET_S1_T0_RKT1_>
  40a417:	c9                   	leaveq 
  40a418:	c3                   	retq   

000000000040a419 <_ZNSt16allocator_traitsISaIfEE8max_sizeERKS0_>:
  40a419:	55                   	push   %rbp
  40a41a:	48 89 e5             	mov    %rsp,%rbp
  40a41d:	48 83 ec 10          	sub    $0x10,%rsp
  40a421:	48 89 7d f8          	mov    %rdi,-0x8(%rbp)
  40a425:	48 8b 45 f8          	mov    -0x8(%rbp),%rax
  40a429:	48 89 c7             	mov    %rax,%rdi
  40a42c:	e8 25 02 00 00       	callq  40a656 <_ZNK9__gnu_cxx13new_allocatorIfE8max_sizeEv>
  40a431:	c9                   	leaveq 
  40a432:	c3                   	retq   
  40a433:	90                   	nop

000000000040a434 <_ZNKSt12_Vector_baseIfSaIfEE19_M_get_Tp_allocatorEv>:
  40a434:	55                   	push   %rbp
  40a435:	48 89 e5             	mov    %rsp,%rbp
  40a438:	48 89 7d f8          	mov    %rdi,-0x8(%rbp)
  40a43c:	48 8b 45 f8          	mov    -0x8(%rbp),%rax
  40a440:	5d                   	pop    %rbp
  40a441:	c3                   	retq   

000000000040a442 <_ZN9__gnu_cxx13new_allocatorIfE8allocateEmPKv>:
  40a442:	55                   	push   %rbp
  40a443:	48 89 e5             	mov    %rsp,%rbp
  40a446:	48 83 ec 20          	sub    $0x20,%rsp
  40a44a:	48 89 7d f8          	mov    %rdi,-0x8(%rbp)
  40a44e:	48 89 75 f0          	mov    %rsi,-0x10(%rbp)
  40a452:	48 89 55 e8          	mov    %rdx,-0x18(%rbp)
  40a456:	48 8b 45 f8          	mov    -0x8(%rbp),%rax
  40a45a:	48 89 c7             	mov    %rax,%rdi
  40a45d:	e8 f4 01 00 00       	callq  40a656 <_ZNK9__gnu_cxx13new_allocatorIfE8max_sizeEv>
  40a462:	48 3b 45 f0          	cmp    -0x10(%rbp),%rax
  40a466:	0f 92 c0             	setb   %al
  40a469:	84 c0                	test   %al,%al
  40a46b:	74 05                	je     40a472 <_ZN9__gnu_cxx13new_allocatorIfE8allocateEmPKv+0x30>
  40a46d:	e8 be 99 ff ff       	callq  403e30 <_ZSt17__throw_bad_allocv@plt>
  40a472:	48 8b 45 f0          	mov    -0x10(%rbp),%rax
  40a476:	48 c1 e0 02          	shl    $0x2,%rax
  40a47a:	48 89 c7             	mov    %rax,%rdi
  40a47d:	e8 ce 99 ff ff       	callq  403e50 <_Znwm@plt>
  40a482:	c9                   	leaveq 
  40a483:	c3                   	retq   

000000000040a484 <_ZNSt11__copy_moveILb1ELb1ESt26random_access_iterator_tagE8__copy_mIPN5caffe4BlobIfEEEEPT_PKS7_SA_S8_>:
  40a484:	55                   	push   %rbp
  40a485:	48 89 e5             	mov    %rsp,%rbp
  40a488:	48 83 ec 30          	sub    $0x30,%rsp
  40a48c:	48 89 7d e8          	mov    %rdi,-0x18(%rbp)
  40a490:	48 89 75 e0          	mov    %rsi,-0x20(%rbp)
  40a494:	48 89 55 d8          	mov    %rdx,-0x28(%rbp)
  40a498:	48 8b 55 e0          	mov    -0x20(%rbp),%rdx
  40a49c:	48 8b 45 e8          	mov    -0x18(%rbp),%rax
  40a4a0:	48 29 c2             	sub    %rax,%rdx
  40a4a3:	48 89 d0             	mov    %rdx,%rax
  40a4a6:	48 c1 f8 03          	sar    $0x3,%rax
  40a4aa:	48 89 45 f8          	mov    %rax,-0x8(%rbp)
  40a4ae:	48 83 7d f8 00       	cmpq   $0x0,-0x8(%rbp)
  40a4b3:	74 1f                	je     40a4d4 <_ZNSt11__copy_moveILb1ELb1ESt26random_access_iterator_tagE8__copy_mIPN5caffe4BlobIfEEEEPT_PKS7_SA_S8_+0x50>
  40a4b5:	48 8b 45 f8          	mov    -0x8(%rbp),%rax
  40a4b9:	48 8d 14 c5 00 00 00 	lea    0x0(,%rax,8),%rdx
  40a4c0:	00 
  40a4c1:	48 8b 4d e8          	mov    -0x18(%rbp),%rcx
  40a4c5:	48 8b 45 d8          	mov    -0x28(%rbp),%rax
  40a4c9:	48 89 ce             	mov    %rcx,%rsi
  40a4cc:	48 89 c7             	mov    %rax,%rdi
  40a4cf:	e8 8c 99 ff ff       	callq  403e60 <memmove@plt>
  40a4d4:	48 8b 45 f8          	mov    -0x8(%rbp),%rax
  40a4d8:	48 8d 14 c5 00 00 00 	lea    0x0(,%rax,8),%rdx
  40a4df:	00 
  40a4e0:	48 8b 45 d8          	mov    -0x28(%rbp),%rax
  40a4e4:	48 01 d0             	add    %rdx,%rax
  40a4e7:	c9                   	leaveq 
  40a4e8:	c3                   	retq   

000000000040a4e9 <_ZSteqIPN5boost10shared_ptrIN5caffe4BlobIfEEEEEbRKSt13move_iteratorIT_ESB_>:
  40a4e9:	55                   	push   %rbp
  40a4ea:	48 89 e5             	mov    %rsp,%rbp
  40a4ed:	53                   	push   %rbx
  40a4ee:	48 83 ec 18          	sub    $0x18,%rsp
  40a4f2:	48 89 7d e8          	mov    %rdi,-0x18(%rbp)
  40a4f6:	48 89 75 e0          	mov    %rsi,-0x20(%rbp)
  40a4fa:	48 8b 45 e8          	mov    -0x18(%rbp),%rax
  40a4fe:	48 89 c7             	mov    %rax,%rdi
  40a501:	e8 64 01 00 00       	callq  40a66a <_ZNKSt13move_iteratorIPN5boost10shared_ptrIN5caffe4BlobIfEEEEE4baseEv>
  40a506:	48 89 c3             	mov    %rax,%rbx
  40a509:	48 8b 45 e0          	mov    -0x20(%rbp),%rax
  40a50d:	48 89 c7             	mov    %rax,%rdi
  40a510:	e8 55 01 00 00       	callq  40a66a <_ZNKSt13move_iteratorIPN5boost10shared_ptrIN5caffe4BlobIfEEEEE4baseEv>
  40a515:	48 39 c3             	cmp    %rax,%rbx
  40a518:	0f 94 c0             	sete   %al
  40a51b:	48 83 c4 18          	add    $0x18,%rsp
  40a51f:	5b                   	pop    %rbx
  40a520:	5d                   	pop    %rbp
  40a521:	c3                   	retq   

000000000040a522 <_ZN5boost10shared_ptrIN5caffe4BlobIfEEEC1EOS4_>:
  40a522:	55                   	push   %rbp
  40a523:	48 89 e5             	mov    %rsp,%rbp
  40a526:	48 83 ec 10          	sub    $0x10,%rsp
  40a52a:	48 89 7d f8          	mov    %rdi,-0x8(%rbp)
  40a52e:	48 89 75 f0          	mov    %rsi,-0x10(%rbp)
  40a532:	48 8b 45 f0          	mov    -0x10(%rbp),%rax
  40a536:	48 8b 10             	mov    (%rax),%rdx
  40a539:	48 8b 45 f8          	mov    -0x8(%rbp),%rax
  40a53d:	48 89 10             	mov    %rdx,(%rax)
  40a540:	48 8b 45 f8          	mov    -0x8(%rbp),%rax
  40a544:	48 83 c0 08          	add    $0x8,%rax
  40a548:	48 89 c7             	mov    %rax,%rdi
  40a54b:	e8 f6 a0 ff ff       	callq  404646 <_ZN5boost6detail12shared_countC1Ev>
  40a550:	48 8b 45 f0          	mov    -0x10(%rbp),%rax
  40a554:	48 8d 50 08          	lea    0x8(%rax),%rdx
  40a558:	48 8b 45 f8          	mov    -0x8(%rbp),%rax
  40a55c:	48 83 c0 08          	add    $0x8,%rax
  40a560:	48 89 d6             	mov    %rdx,%rsi
  40a563:	48 89 c7             	mov    %rax,%rdi
  40a566:	e8 1b a1 ff ff       	callq  404686 <_ZN5boost6detail12shared_count4swapERS1_>
  40a56b:	48 8b 45 f0          	mov    -0x10(%rbp),%rax
  40a56f:	48 c7 00 00 00 00 00 	movq   $0x0,(%rax)
  40a576:	90                   	nop
  40a577:	c9                   	leaveq 
  40a578:	c3                   	retq   

000000000040a579 <_ZNSt20__uninitialized_copyILb1EE13__uninit_copyISt13move_iteratorIPfES3_EET0_T_S6_S5_>:
  40a579:	55                   	push   %rbp
  40a57a:	48 89 e5             	mov    %rsp,%rbp
  40a57d:	48 83 ec 20          	sub    $0x20,%rsp
  40a581:	48 89 7d f8          	mov    %rdi,-0x8(%rbp)
  40a585:	48 89 75 f0          	mov    %rsi,-0x10(%rbp)
  40a589:	48 89 55 e8          	mov    %rdx,-0x18(%rbp)
  40a58d:	48 8b 55 e8          	mov    -0x18(%rbp),%rdx
  40a591:	48 8b 4d f0          	mov    -0x10(%rbp),%rcx
  40a595:	48 8b 45 f8          	mov    -0x8(%rbp),%rax
  40a599:	48 89 ce             	mov    %rcx,%rsi
  40a59c:	48 89 c7             	mov    %rax,%rdi
  40a59f:	e8 d7 00 00 00       	callq  40a67b <_ZSt4copyISt13move_iteratorIPfES1_ET0_T_S4_S3_>
  40a5a4:	c9                   	leaveq 
  40a5a5:	c3                   	retq   

000000000040a5a6 <_ZNSt20__copy_move_backwardILb1ELb1ESt26random_access_iterator_tagE13__copy_move_bIfEEPT_PKS3_S6_S4_>:
  40a5a6:	55                   	push   %rbp
  40a5a7:	48 89 e5             	mov    %rsp,%rbp
  40a5aa:	48 83 ec 30          	sub    $0x30,%rsp
  40a5ae:	48 89 7d e8          	mov    %rdi,-0x18(%rbp)
  40a5b2:	48 89 75 e0          	mov    %rsi,-0x20(%rbp)
  40a5b6:	48 89 55 d8          	mov    %rdx,-0x28(%rbp)
  40a5ba:	48 8b 55 e0          	mov    -0x20(%rbp),%rdx
  40a5be:	48 8b 45 e8          	mov    -0x18(%rbp),%rax
  40a5c2:	48 29 c2             	sub    %rax,%rdx
  40a5c5:	48 89 d0             	mov    %rdx,%rax
  40a5c8:	48 c1 f8 02          	sar    $0x2,%rax
  40a5cc:	48 89 45 f8          	mov    %rax,-0x8(%rbp)
  40a5d0:	48 83 7d f8 00       	cmpq   $0x0,-0x8(%rbp)
  40a5d5:	74 30                	je     40a607 <_ZNSt20__copy_move_backwardILb1ELb1ESt26random_access_iterator_tagE13__copy_move_bIfEEPT_PKS3_S6_S4_+0x61>
  40a5d7:	48 8b 45 f8          	mov    -0x8(%rbp),%rax
  40a5db:	48 8d 14 85 00 00 00 	lea    0x0(,%rax,4),%rdx
  40a5e2:	00 
  40a5e3:	48 8b 45 f8          	mov    -0x8(%rbp),%rax
  40a5e7:	48 c1 e0 02          	shl    $0x2,%rax
  40a5eb:	48 f7 d8             	neg    %rax
  40a5ee:	48 89 c1             	mov    %rax,%rcx
  40a5f1:	48 8b 45 d8          	mov    -0x28(%rbp),%rax
  40a5f5:	48 01 c1             	add    %rax,%rcx
  40a5f8:	48 8b 45 e8          	mov    -0x18(%rbp),%rax
  40a5fc:	48 89 c6             	mov    %rax,%rsi
  40a5ff:	48 89 cf             	mov    %rcx,%rdi
  40a602:	e8 59 98 ff ff       	callq  403e60 <memmove@plt>
  40a607:	48 8b 45 f8          	mov    -0x8(%rbp),%rax
  40a60b:	48 c1 e0 02          	shl    $0x2,%rax
  40a60f:	48 f7 d8             	neg    %rax
  40a612:	48 89 c2             	mov    %rax,%rdx
  40a615:	48 8b 45 d8          	mov    -0x28(%rbp),%rax
  40a619:	48 01 d0             	add    %rdx,%rax
  40a61c:	c9                   	leaveq 
  40a61d:	c3                   	retq   

000000000040a61e <_ZSt6fill_nIPfmfET_S1_T0_RKT1_>:
  40a61e:	55                   	push   %rbp
  40a61f:	48 89 e5             	mov    %rsp,%rbp
  40a622:	48 83 ec 20          	sub    $0x20,%rsp
  40a626:	48 89 7d f8          	mov    %rdi,-0x8(%rbp)
  40a62a:	48 89 75 f0          	mov    %rsi,-0x10(%rbp)
  40a62e:	48 89 55 e8          	mov    %rdx,-0x18(%rbp)
  40a632:	48 8b 45 f8          	mov    -0x8(%rbp),%rax
  40a636:	48 89 c7             	mov    %rax,%rdi
  40a639:	e8 e8 fa ff ff       	callq  40a126 <_ZSt12__niter_baseIPfET_S1_>
  40a63e:	48 89 c1             	mov    %rax,%rcx
  40a641:	48 8b 55 e8          	mov    -0x18(%rbp),%rdx
  40a645:	48 8b 45 f0          	mov    -0x10(%rbp),%rax
  40a649:	48 89 c6             	mov    %rax,%rsi
  40a64c:	48 89 cf             	mov    %rcx,%rdi
  40a64f:	e8 73 00 00 00       	callq  40a6c7 <_ZSt10__fill_n_aIPfmfEN9__gnu_cxx11__enable_ifIXsrSt11__is_scalarIT1_E7__valueET_E6__typeES6_T0_RKS4_>
  40a654:	c9                   	leaveq 
  40a655:	c3                   	retq   

000000000040a656 <_ZNK9__gnu_cxx13new_allocatorIfE8max_sizeEv>:
  40a656:	55                   	push   %rbp
  40a657:	48 89 e5             	mov    %rsp,%rbp
  40a65a:	48 89 7d f8          	mov    %rdi,-0x8(%rbp)
  40a65e:	48 b8 ff ff ff ff ff 	movabs $0x3fffffffffffffff,%rax
  40a665:	ff ff 3f 
  40a668:	5d                   	pop    %rbp
  40a669:	c3                   	retq   

000000000040a66a <_ZNKSt13move_iteratorIPN5boost10shared_ptrIN5caffe4BlobIfEEEEE4baseEv>:
  40a66a:	55                   	push   %rbp
  40a66b:	48 89 e5             	mov    %rsp,%rbp
  40a66e:	48 89 7d f8          	mov    %rdi,-0x8(%rbp)
  40a672:	48 8b 45 f8          	mov    -0x8(%rbp),%rax
  40a676:	48 8b 00             	mov    (%rax),%rax
  40a679:	5d                   	pop    %rbp
  40a67a:	c3                   	retq   

000000000040a67b <_ZSt4copyISt13move_iteratorIPfES1_ET0_T_S4_S3_>:
  40a67b:	55                   	push   %rbp
  40a67c:	48 89 e5             	mov    %rsp,%rbp
  40a67f:	53                   	push   %rbx
  40a680:	48 83 ec 28          	sub    $0x28,%rsp
  40a684:	48 89 7d e8          	mov    %rdi,-0x18(%rbp)
  40a688:	48 89 75 e0          	mov    %rsi,-0x20(%rbp)
  40a68c:	48 89 55 d8          	mov    %rdx,-0x28(%rbp)
  40a690:	48 8b 45 e0          	mov    -0x20(%rbp),%rax
  40a694:	48 89 c7             	mov    %rax,%rdi
  40a697:	e8 76 00 00 00       	callq  40a712 <_ZSt12__miter_baseIPfEDTcl12__miter_basecldtfp_4baseEEESt13move_iteratorIT_E>
  40a69c:	48 89 c3             	mov    %rax,%rbx
  40a69f:	48 8b 45 e8          	mov    -0x18(%rbp),%rax
  40a6a3:	48 89 c7             	mov    %rax,%rdi
  40a6a6:	e8 67 00 00 00       	callq  40a712 <_ZSt12__miter_baseIPfEDTcl12__miter_basecldtfp_4baseEEESt13move_iteratorIT_E>
  40a6ab:	48 89 c1             	mov    %rax,%rcx
  40a6ae:	48 8b 45 d8          	mov    -0x28(%rbp),%rax
  40a6b2:	48 89 c2             	mov    %rax,%rdx
  40a6b5:	48 89 de             	mov    %rbx,%rsi
  40a6b8:	48 89 cf             	mov    %rcx,%rdi
  40a6bb:	e8 74 00 00 00       	callq  40a734 <_ZSt14__copy_move_a2ILb1EPfS0_ET1_T0_S2_S1_>
  40a6c0:	48 83 c4 28          	add    $0x28,%rsp
  40a6c4:	5b                   	pop    %rbx
  40a6c5:	5d                   	pop    %rbp
  40a6c6:	c3                   	retq   

000000000040a6c7 <_ZSt10__fill_n_aIPfmfEN9__gnu_cxx11__enable_ifIXsrSt11__is_scalarIT1_E7__valueET_E6__typeES6_T0_RKS4_>:
  40a6c7:	55                   	push   %rbp
  40a6c8:	48 89 e5             	mov    %rsp,%rbp
  40a6cb:	48 89 7d e8          	mov    %rdi,-0x18(%rbp)
  40a6cf:	48 89 75 e0          	mov    %rsi,-0x20(%rbp)
  40a6d3:	48 89 55 d8          	mov    %rdx,-0x28(%rbp)
  40a6d7:	48 8b 45 d8          	mov    -0x28(%rbp),%rax
  40a6db:	f3 0f 10 00          	movss  (%rax),%xmm0
  40a6df:	f3 0f 11 45 f4       	movss  %xmm0,-0xc(%rbp)
  40a6e4:	48 8b 45 e0          	mov    -0x20(%rbp),%rax
  40a6e8:	48 89 45 f8          	mov    %rax,-0x8(%rbp)
  40a6ec:	48 83 7d f8 00       	cmpq   $0x0,-0x8(%rbp)
  40a6f1:	74 19                	je     40a70c <_ZSt10__fill_n_aIPfmfEN9__gnu_cxx11__enable_ifIXsrSt11__is_scalarIT1_E7__valueET_E6__typeES6_T0_RKS4_+0x45>
  40a6f3:	48 8b 45 e8          	mov    -0x18(%rbp),%rax
  40a6f7:	f3 0f 10 45 f4       	movss  -0xc(%rbp),%xmm0
  40a6fc:	f3 0f 11 00          	movss  %xmm0,(%rax)
  40a700:	48 83 6d f8 01       	subq   $0x1,-0x8(%rbp)
  40a705:	48 83 45 e8 04       	addq   $0x4,-0x18(%rbp)
  40a70a:	eb e0                	jmp    40a6ec <_ZSt10__fill_n_aIPfmfEN9__gnu_cxx11__enable_ifIXsrSt11__is_scalarIT1_E7__valueET_E6__typeES6_T0_RKS4_+0x25>
  40a70c:	48 8b 45 e8          	mov    -0x18(%rbp),%rax
  40a710:	5d                   	pop    %rbp
  40a711:	c3                   	retq   

000000000040a712 <_ZSt12__miter_baseIPfEDTcl12__miter_basecldtfp_4baseEEESt13move_iteratorIT_E>:
  40a712:	55                   	push   %rbp
  40a713:	48 89 e5             	mov    %rsp,%rbp
  40a716:	48 83 ec 10          	sub    $0x10,%rsp
  40a71a:	48 89 7d f8          	mov    %rdi,-0x8(%rbp)
  40a71e:	48 8d 45 f8          	lea    -0x8(%rbp),%rax
  40a722:	48 89 c7             	mov    %rax,%rdi
  40a725:	e8 62 00 00 00       	callq  40a78c <_ZNKSt13move_iteratorIPfE4baseEv>
  40a72a:	48 89 c7             	mov    %rax,%rdi
  40a72d:	e8 8e f9 ff ff       	callq  40a0c0 <_ZSt12__miter_baseIPfET_S1_>
  40a732:	c9                   	leaveq 
  40a733:	c3                   	retq   

000000000040a734 <_ZSt14__copy_move_a2ILb1EPfS0_ET1_T0_S2_S1_>:
  40a734:	55                   	push   %rbp
  40a735:	48 89 e5             	mov    %rsp,%rbp
  40a738:	41 54                	push   %r12
  40a73a:	53                   	push   %rbx
  40a73b:	48 83 ec 20          	sub    $0x20,%rsp
  40a73f:	48 89 7d e8          	mov    %rdi,-0x18(%rbp)
  40a743:	48 89 75 e0          	mov    %rsi,-0x20(%rbp)
  40a747:	48 89 55 d8          	mov    %rdx,-0x28(%rbp)
  40a74b:	48 8b 45 d8          	mov    -0x28(%rbp),%rax
  40a74f:	48 89 c7             	mov    %rax,%rdi
  40a752:	e8 cf f9 ff ff       	callq  40a126 <_ZSt12__niter_baseIPfET_S1_>
  40a757:	49 89 c4             	mov    %rax,%r12
  40a75a:	48 8b 45 e0          	mov    -0x20(%rbp),%rax
  40a75e:	48 89 c7             	mov    %rax,%rdi
  40a761:	e8 c0 f9 ff ff       	callq  40a126 <_ZSt12__niter_baseIPfET_S1_>
  40a766:	48 89 c3             	mov    %rax,%rbx
  40a769:	48 8b 45 e8          	mov    -0x18(%rbp),%rax
  40a76d:	48 89 c7             	mov    %rax,%rdi
  40a770:	e8 b1 f9 ff ff       	callq  40a126 <_ZSt12__niter_baseIPfET_S1_>
  40a775:	4c 89 e2             	mov    %r12,%rdx
  40a778:	48 89 de             	mov    %rbx,%rsi
  40a77b:	48 89 c7             	mov    %rax,%rdi
  40a77e:	e8 1a 00 00 00       	callq  40a79d <_ZSt13__copy_move_aILb1EPfS0_ET1_T0_S2_S1_>
  40a783:	48 83 c4 20          	add    $0x20,%rsp
  40a787:	5b                   	pop    %rbx
  40a788:	41 5c                	pop    %r12
  40a78a:	5d                   	pop    %rbp
  40a78b:	c3                   	retq   

000000000040a78c <_ZNKSt13move_iteratorIPfE4baseEv>:
  40a78c:	55                   	push   %rbp
  40a78d:	48 89 e5             	mov    %rsp,%rbp
  40a790:	48 89 7d f8          	mov    %rdi,-0x8(%rbp)
  40a794:	48 8b 45 f8          	mov    -0x8(%rbp),%rax
  40a798:	48 8b 00             	mov    (%rax),%rax
  40a79b:	5d                   	pop    %rbp
  40a79c:	c3                   	retq   

000000000040a79d <_ZSt13__copy_move_aILb1EPfS0_ET1_T0_S2_S1_>:
  40a79d:	55                   	push   %rbp
  40a79e:	48 89 e5             	mov    %rsp,%rbp
  40a7a1:	48 83 ec 30          	sub    $0x30,%rsp
  40a7a5:	48 89 7d e8          	mov    %rdi,-0x18(%rbp)
  40a7a9:	48 89 75 e0          	mov    %rsi,-0x20(%rbp)
  40a7ad:	48 89 55 d8          	mov    %rdx,-0x28(%rbp)
  40a7b1:	c6 45 ff 01          	movb   $0x1,-0x1(%rbp)
  40a7b5:	48 8b 55 d8          	mov    -0x28(%rbp),%rdx
  40a7b9:	48 8b 4d e0          	mov    -0x20(%rbp),%rcx
  40a7bd:	48 8b 45 e8          	mov    -0x18(%rbp),%rax
  40a7c1:	48 89 ce             	mov    %rcx,%rsi
  40a7c4:	48 89 c7             	mov    %rax,%rdi
  40a7c7:	e8 02 00 00 00       	callq  40a7ce <_ZNSt11__copy_moveILb1ELb1ESt26random_access_iterator_tagE8__copy_mIfEEPT_PKS3_S6_S4_>
  40a7cc:	c9                   	leaveq 
  40a7cd:	c3                   	retq   

000000000040a7ce <_ZNSt11__copy_moveILb1ELb1ESt26random_access_iterator_tagE8__copy_mIfEEPT_PKS3_S6_S4_>:
  40a7ce:	55                   	push   %rbp
  40a7cf:	48 89 e5             	mov    %rsp,%rbp
  40a7d2:	48 83 ec 30          	sub    $0x30,%rsp
  40a7d6:	48 89 7d e8          	mov    %rdi,-0x18(%rbp)
  40a7da:	48 89 75 e0          	mov    %rsi,-0x20(%rbp)
  40a7de:	48 89 55 d8          	mov    %rdx,-0x28(%rbp)
  40a7e2:	48 8b 55 e0          	mov    -0x20(%rbp),%rdx
  40a7e6:	48 8b 45 e8          	mov    -0x18(%rbp),%rax
  40a7ea:	48 29 c2             	sub    %rax,%rdx
  40a7ed:	48 89 d0             	mov    %rdx,%rax
  40a7f0:	48 c1 f8 02          	sar    $0x2,%rax
  40a7f4:	48 89 45 f8          	mov    %rax,-0x8(%rbp)
  40a7f8:	48 83 7d f8 00       	cmpq   $0x0,-0x8(%rbp)
  40a7fd:	74 1f                	je     40a81e <_ZNSt11__copy_moveILb1ELb1ESt26random_access_iterator_tagE8__copy_mIfEEPT_PKS3_S6_S4_+0x50>
  40a7ff:	48 8b 45 f8          	mov    -0x8(%rbp),%rax
  40a803:	48 8d 14 85 00 00 00 	lea    0x0(,%rax,4),%rdx
  40a80a:	00 
  40a80b:	48 8b 4d e8          	mov    -0x18(%rbp),%rcx
  40a80f:	48 8b 45 d8          	mov    -0x28(%rbp),%rax
  40a813:	48 89 ce             	mov    %rcx,%rsi
  40a816:	48 89 c7             	mov    %rax,%rdi
  40a819:	e8 42 96 ff ff       	callq  403e60 <memmove@plt>
  40a81e:	48 8b 45 f8          	mov    -0x8(%rbp),%rax
  40a822:	48 8d 14 85 00 00 00 	lea    0x0(,%rax,4),%rdx
  40a829:	00 
  40a82a:	48 8b 45 d8          	mov    -0x28(%rbp),%rax
  40a82e:	48 01 d0             	add    %rdx,%rax
  40a831:	c9                   	leaveq 
  40a832:	c3                   	retq   
  40a833:	90                   	nop

000000000040a834 <_ZN5boost6detail17sp_counted_impl_pIN5caffe4BlobIfEEED1Ev>:
  40a834:	55                   	push   %rbp
  40a835:	48 89 e5             	mov    %rsp,%rbp
  40a838:	48 83 ec 10          	sub    $0x10,%rsp
  40a83c:	48 89 7d f8          	mov    %rdi,-0x8(%rbp)
  40a840:	ba 58 b6 40 00       	mov    $0x40b658,%edx
  40a845:	48 8b 45 f8          	mov    -0x8(%rbp),%rax
  40a849:	48 89 10             	mov    %rdx,(%rax)
  40a84c:	48 8b 45 f8          	mov    -0x8(%rbp),%rax
  40a850:	48 89 c7             	mov    %rax,%rdi
  40a853:	e8 ea 9c ff ff       	callq  404542 <_ZN5boost6detail15sp_counted_baseD1Ev>
  40a858:	90                   	nop
  40a859:	c9                   	leaveq 
  40a85a:	c3                   	retq   
  40a85b:	90                   	nop

000000000040a85c <_ZN5boost6detail17sp_counted_impl_pIN5caffe4BlobIfEEED0Ev>:
  40a85c:	55                   	push   %rbp
  40a85d:	48 89 e5             	mov    %rsp,%rbp
  40a860:	48 83 ec 10          	sub    $0x10,%rsp
  40a864:	48 89 7d f8          	mov    %rdi,-0x8(%rbp)
  40a868:	48 8b 45 f8          	mov    -0x8(%rbp),%rax
  40a86c:	48 89 c7             	mov    %rax,%rdi
  40a86f:	e8 c0 ff ff ff       	callq  40a834 <_ZN5boost6detail17sp_counted_impl_pIN5caffe4BlobIfEEED1Ev>
  40a874:	48 8b 45 f8          	mov    -0x8(%rbp),%rax
  40a878:	48 89 c7             	mov    %rax,%rdi
  40a87b:	e8 e0 96 ff ff       	callq  403f60 <_ZdlPv@plt>
  40a880:	c9                   	leaveq 
  40a881:	c3                   	retq   

000000000040a882 <_ZN5caffe12SoftmaxLayerIfED1Ev>:
  40a882:	55                   	push   %rbp
  40a883:	48 89 e5             	mov    %rsp,%rbp
  40a886:	48 83 ec 10          	sub    $0x10,%rsp
  40a88a:	48 89 7d f8          	mov    %rdi,-0x8(%rbp)
  40a88e:	ba 98 b6 40 00       	mov    $0x40b698,%edx
  40a893:	48 8b 45 f8          	mov    -0x8(%rbp),%rax
  40a897:	48 89 10             	mov    %rdx,(%rax)
  40a89a:	48 8b 45 f8          	mov    -0x8(%rbp),%rax
  40a89e:	48 05 20 03 00 00    	add    $0x320,%rax
  40a8a4:	48 89 c7             	mov    %rax,%rdi
  40a8a7:	e8 aa a4 ff ff       	callq  404d56 <_ZN5caffe4BlobIfED1Ev>
  40a8ac:	48 8b 45 f8          	mov    -0x8(%rbp),%rax
  40a8b0:	48 05 d0 02 00 00    	add    $0x2d0,%rax
  40a8b6:	48 89 c7             	mov    %rax,%rdi
  40a8b9:	e8 98 a4 ff ff       	callq  404d56 <_ZN5caffe4BlobIfED1Ev>
  40a8be:	48 8b 45 f8          	mov    -0x8(%rbp),%rax
  40a8c2:	48 89 c7             	mov    %rax,%rdi
  40a8c5:	e8 22 bc ff ff       	callq  4064ec <_ZN5caffe5LayerIfED1Ev>
  40a8ca:	90                   	nop
  40a8cb:	c9                   	leaveq 
  40a8cc:	c3                   	retq   
  40a8cd:	90                   	nop

000000000040a8ce <_ZN5caffe12SoftmaxLayerIfED0Ev>:
  40a8ce:	55                   	push   %rbp
  40a8cf:	48 89 e5             	mov    %rsp,%rbp
  40a8d2:	48 83 ec 10          	sub    $0x10,%rsp
  40a8d6:	48 89 7d f8          	mov    %rdi,-0x8(%rbp)
  40a8da:	48 8b 45 f8          	mov    -0x8(%rbp),%rax
  40a8de:	48 89 c7             	mov    %rax,%rdi
  40a8e1:	e8 9c ff ff ff       	callq  40a882 <_ZN5caffe12SoftmaxLayerIfED1Ev>
  40a8e6:	48 8b 45 f8          	mov    -0x8(%rbp),%rax
  40a8ea:	48 89 c7             	mov    %rax,%rdi
  40a8ed:	e8 6e 96 ff ff       	callq  403f60 <_ZdlPv@plt>
  40a8f2:	c9                   	leaveq 
  40a8f3:	c3                   	retq   

000000000040a8f4 <_ZN5boost6detail17sp_counted_impl_pIN5caffe4BlobIfEEE7disposeEv>:
  40a8f4:	55                   	push   %rbp
  40a8f5:	48 89 e5             	mov    %rsp,%rbp
  40a8f8:	48 83 ec 10          	sub    $0x10,%rsp
  40a8fc:	48 89 7d f8          	mov    %rdi,-0x8(%rbp)
  40a900:	48 8b 45 f8          	mov    -0x8(%rbp),%rax
  40a904:	48 8b 40 10          	mov    0x10(%rax),%rax
  40a908:	48 89 c7             	mov    %rax,%rdi
  40a90b:	e8 7d f2 ff ff       	callq  409b8d <_ZN5boost14checked_deleteIN5caffe4BlobIfEEEEvPT_>
  40a910:	90                   	nop
  40a911:	c9                   	leaveq 
  40a912:	c3                   	retq   
  40a913:	90                   	nop

000000000040a914 <_ZN5boost6detail17sp_counted_impl_pIN5caffe4BlobIfEEE11get_deleterERKSt9type_info>:
  40a914:	55                   	push   %rbp
  40a915:	48 89 e5             	mov    %rsp,%rbp
  40a918:	48 89 7d f8          	mov    %rdi,-0x8(%rbp)
  40a91c:	48 89 75 f0          	mov    %rsi,-0x10(%rbp)
  40a920:	b8 00 00 00 00       	mov    $0x0,%eax
  40a925:	5d                   	pop    %rbp
  40a926:	c3                   	retq   
  40a927:	90                   	nop

000000000040a928 <_ZN5boost6detail17sp_counted_impl_pIN5caffe4BlobIfEEE19get_untyped_deleterEv>:
  40a928:	55                   	push   %rbp
  40a929:	48 89 e5             	mov    %rsp,%rbp
  40a92c:	48 89 7d f8          	mov    %rdi,-0x8(%rbp)
  40a930:	b8 00 00 00 00       	mov    $0x0,%eax
  40a935:	5d                   	pop    %rbp
  40a936:	c3                   	retq   
  40a937:	90                   	nop

000000000040a938 <_ZN5caffe5LayerIfE7ToProtoEPNS_14LayerParameterEb>:
  40a938:	55                   	push   %rbp
  40a939:	48 89 e5             	mov    %rsp,%rbp
  40a93c:	41 54                	push   %r12
  40a93e:	53                   	push   %rbx
  40a93f:	48 83 ec 30          	sub    $0x30,%rsp
  40a943:	48 89 7d d8          	mov    %rdi,-0x28(%rbp)
  40a947:	48 89 75 d0          	mov    %rsi,-0x30(%rbp)
  40a94b:	89 d0                	mov    %edx,%eax
  40a94d:	88 45 cc             	mov    %al,-0x34(%rbp)
  40a950:	48 8b 45 d0          	mov    -0x30(%rbp),%rax
  40a954:	48 8b 00             	mov    (%rax),%rax
  40a957:	48 83 c0 38          	add    $0x38,%rax
  40a95b:	48 8b 00             	mov    (%rax),%rax
  40a95e:	48 8b 55 d0          	mov    -0x30(%rbp),%rdx
  40a962:	48 89 d7             	mov    %rdx,%rdi
  40a965:	ff d0                	callq  *%rax
  40a967:	48 8b 45 d8          	mov    -0x28(%rbp),%rax
  40a96b:	48 8d 50 08          	lea    0x8(%rax),%rdx
  40a96f:	48 8b 45 d0          	mov    -0x30(%rbp),%rax
  40a973:	48 89 d6             	mov    %rdx,%rsi
  40a976:	48 89 c7             	mov    %rax,%rdi
  40a979:	e8 02 95 ff ff       	callq  403e80 <_ZN5caffe14LayerParameter8CopyFromERKS0_@plt>
  40a97e:	48 8b 45 d0          	mov    -0x30(%rbp),%rax
  40a982:	48 89 c7             	mov    %rax,%rdi
  40a985:	e8 4e 9e ff ff       	callq  4047d8 <_ZN5caffe14LayerParameter11clear_blobsEv>
  40a98a:	c7 45 ec 00 00 00 00 	movl   $0x0,-0x14(%rbp)
  40a991:	8b 45 ec             	mov    -0x14(%rbp),%eax
  40a994:	48 63 d8             	movslq %eax,%rbx
  40a997:	48 8b 45 d8          	mov    -0x28(%rbp),%rax
  40a99b:	48 05 68 02 00 00    	add    $0x268,%rax
  40a9a1:	48 89 c7             	mov    %rax,%rdi
  40a9a4:	e8 e5 d7 ff ff       	callq  40818e <_ZNKSt6vectorIN5boost10shared_ptrIN5caffe4BlobIfEEEESaIS5_EE4sizeEv>
  40a9a9:	48 39 c3             	cmp    %rax,%rbx
  40a9ac:	0f 92 c0             	setb   %al
  40a9af:	84 c0                	test   %al,%al
  40a9b1:	74 49                	je     40a9fc <_ZN5caffe5LayerIfE7ToProtoEPNS_14LayerParameterEb+0xc4>
  40a9b3:	0f b6 5d cc          	movzbl -0x34(%rbp),%ebx
  40a9b7:	48 8b 45 d0          	mov    -0x30(%rbp),%rax
  40a9bb:	48 89 c7             	mov    %rax,%rdi
  40a9be:	e8 5b 9e ff ff       	callq  40481e <_ZN5caffe14LayerParameter9add_blobsEv>
  40a9c3:	49 89 c4             	mov    %rax,%r12
  40a9c6:	8b 45 ec             	mov    -0x14(%rbp),%eax
  40a9c9:	48 98                	cltq   
  40a9cb:	48 8b 55 d8          	mov    -0x28(%rbp),%rdx
  40a9cf:	48 81 c2 68 02 00 00 	add    $0x268,%rdx
  40a9d6:	48 89 c6             	mov    %rax,%rsi
  40a9d9:	48 89 d7             	mov    %rdx,%rdi
  40a9dc:	e8 73 cd ff ff       	callq  407754 <_ZNSt6vectorIN5boost10shared_ptrIN5caffe4BlobIfEEEESaIS5_EEixEm>
  40a9e1:	48 89 c7             	mov    %rax,%rdi
  40a9e4:	e8 41 ce ff ff       	callq  40782a <_ZNK5boost10shared_ptrIN5caffe4BlobIfEEEptEv>
  40a9e9:	89 da                	mov    %ebx,%edx
  40a9eb:	4c 89 e6             	mov    %r12,%rsi
  40a9ee:	48 89 c7             	mov    %rax,%rdi
  40a9f1:	e8 aa 97 ff ff       	callq  4041a0 <_ZNK5caffe4BlobIfE7ToProtoEPNS_9BlobProtoEb@plt>
  40a9f6:	83 45 ec 01          	addl   $0x1,-0x14(%rbp)
  40a9fa:	eb 95                	jmp    40a991 <_ZN5caffe5LayerIfE7ToProtoEPNS_14LayerParameterEb+0x59>
  40a9fc:	90                   	nop
  40a9fd:	48 83 c4 30          	add    $0x30,%rsp
  40aa01:	5b                   	pop    %rbx
  40aa02:	41 5c                	pop    %r12
  40aa04:	5d                   	pop    %rbp
  40aa05:	c3                   	retq   

000000000040aa06 <_ZNK5caffe12SoftmaxLayerIfE4typeEv>:
  40aa06:	55                   	push   %rbp
  40aa07:	48 89 e5             	mov    %rsp,%rbp
  40aa0a:	48 89 7d f8          	mov    %rdi,-0x8(%rbp)
  40aa0e:	b8 06 b4 40 00       	mov    $0x40b406,%eax
  40aa13:	5d                   	pop    %rbp
  40aa14:	c3                   	retq   
  40aa15:	90                   	nop

000000000040aa16 <_ZNK5caffe12SoftmaxLayerIfE19ExactNumBottomBlobsEv>:
  40aa16:	55                   	push   %rbp
  40aa17:	48 89 e5             	mov    %rsp,%rbp
  40aa1a:	48 89 7d f8          	mov    %rdi,-0x8(%rbp)
  40aa1e:	b8 01 00 00 00       	mov    $0x1,%eax
  40aa23:	5d                   	pop    %rbp
  40aa24:	c3                   	retq   
  40aa25:	90                   	nop

000000000040aa26 <_ZNK5caffe12SoftmaxLayerIfE16ExactNumTopBlobsEv>:
  40aa26:	55                   	push   %rbp
  40aa27:	48 89 e5             	mov    %rsp,%rbp
  40aa2a:	48 89 7d f8          	mov    %rdi,-0x8(%rbp)
  40aa2e:	b8 01 00 00 00       	mov    $0x1,%eax
  40aa33:	5d                   	pop    %rbp
  40aa34:	c3                   	retq   
  40aa35:	90                   	nop

000000000040aa36 <_ZNK5caffe5LayerIfE12AutoTopBlobsEv>:
  40aa36:	55                   	push   %rbp
  40aa37:	48 89 e5             	mov    %rsp,%rbp
  40aa3a:	48 89 7d f8          	mov    %rdi,-0x8(%rbp)
  40aa3e:	b8 00 00 00 00       	mov    $0x0,%eax
  40aa43:	5d                   	pop    %rbp
  40aa44:	c3                   	retq   
  40aa45:	90                   	nop

000000000040aa46 <_ZNK5caffe5LayerIfE18AllowForceBackwardEi>:
  40aa46:	55                   	push   %rbp
  40aa47:	48 89 e5             	mov    %rsp,%rbp
  40aa4a:	48 89 7d f8          	mov    %rdi,-0x8(%rbp)
  40aa4e:	89 75 f4             	mov    %esi,-0xc(%rbp)
  40aa51:	b8 01 00 00 00       	mov    $0x1,%eax
  40aa56:	5d                   	pop    %rbp
  40aa57:	c3                   	retq   

000000000040aa58 <_ZN5caffe5LayerIfE12Backward_gpuERKSt6vectorIPNS_4BlobIfEESaIS5_EERKS2_IbSaIbEES9_>:
  40aa58:	55                   	push   %rbp
  40aa59:	48 89 e5             	mov    %rsp,%rbp
  40aa5c:	48 83 ec 20          	sub    $0x20,%rsp
  40aa60:	48 89 7d f8          	mov    %rdi,-0x8(%rbp)
  40aa64:	48 89 75 f0          	mov    %rsi,-0x10(%rbp)
  40aa68:	48 89 55 e8          	mov    %rdx,-0x18(%rbp)
  40aa6c:	48 89 4d e0          	mov    %rcx,-0x20(%rbp)
  40aa70:	48 8b 45 f8          	mov    -0x8(%rbp),%rax
  40aa74:	48 8b 00             	mov    (%rax),%rax
  40aa77:	48 05 88 00 00 00    	add    $0x88,%rax
  40aa7d:	48 8b 00             	mov    (%rax),%rax
  40aa80:	48 8b 4d e0          	mov    -0x20(%rbp),%rcx
  40aa84:	48 8b 55 e8          	mov    -0x18(%rbp),%rdx
  40aa88:	48 8b 75 f0          	mov    -0x10(%rbp),%rsi
  40aa8c:	48 8b 7d f8          	mov    -0x8(%rbp),%rdi
  40aa90:	ff d0                	callq  *%rax
  40aa92:	90                   	nop
  40aa93:	c9                   	leaveq 
  40aa94:	c3                   	retq   
  40aa95:	66 2e 0f 1f 84 00 00 	nopw   %cs:0x0(%rax,%rax,1)
  40aa9c:	00 00 00 
  40aa9f:	90                   	nop

000000000040aaa0 <__libc_csu_init>:
  40aaa0:	41 57                	push   %r15
  40aaa2:	41 56                	push   %r14
  40aaa4:	41 89 ff             	mov    %edi,%r15d
  40aaa7:	41 55                	push   %r13
  40aaa9:	41 54                	push   %r12
  40aaab:	4c 8d 25 06 53 20 00 	lea    0x205306(%rip),%r12        # 60fdb8 <__frame_dummy_init_array_entry>
  40aab2:	55                   	push   %rbp
  40aab3:	48 8d 2d 0e 53 20 00 	lea    0x20530e(%rip),%rbp        # 60fdc8 <__init_array_end>
  40aaba:	53                   	push   %rbx
  40aabb:	49 89 f6             	mov    %rsi,%r14
  40aabe:	49 89 d5             	mov    %rdx,%r13
  40aac1:	4c 29 e5             	sub    %r12,%rbp
  40aac4:	48 83 ec 08          	sub    $0x8,%rsp
  40aac8:	48 c1 fd 03          	sar    $0x3,%rbp
  40aacc:	e8 a7 92 ff ff       	callq  403d78 <_init>
  40aad1:	48 85 ed             	test   %rbp,%rbp
  40aad4:	74 20                	je     40aaf6 <__libc_csu_init+0x56>
  40aad6:	31 db                	xor    %ebx,%ebx
  40aad8:	0f 1f 84 00 00 00 00 	nopl   0x0(%rax,%rax,1)
  40aadf:	00 
  40aae0:	4c 89 ea             	mov    %r13,%rdx
  40aae3:	4c 89 f6             	mov    %r14,%rsi
  40aae6:	44 89 ff             	mov    %r15d,%edi
  40aae9:	41 ff 14 dc          	callq  *(%r12,%rbx,8)
  40aaed:	48 83 c3 01          	add    $0x1,%rbx
  40aaf1:	48 39 eb             	cmp    %rbp,%rbx
  40aaf4:	75 ea                	jne    40aae0 <__libc_csu_init+0x40>
  40aaf6:	48 83 c4 08          	add    $0x8,%rsp
  40aafa:	5b                   	pop    %rbx
  40aafb:	5d                   	pop    %rbp
  40aafc:	41 5c                	pop    %r12
  40aafe:	41 5d                	pop    %r13
  40ab00:	41 5e                	pop    %r14
  40ab02:	41 5f                	pop    %r15
  40ab04:	c3                   	retq   
  40ab05:	90                   	nop
  40ab06:	66 2e 0f 1f 84 00 00 	nopw   %cs:0x0(%rax,%rax,1)
  40ab0d:	00 00 00 

000000000040ab10 <__libc_csu_fini>:
  40ab10:	f3 c3                	repz retq 

Disassembly of section .fini:

000000000040ab14 <_fini>:
  40ab14:	48 83 ec 08          	sub    $0x8,%rsp
  40ab18:	48 83 c4 08          	add    $0x8,%rsp
  40ab1c:	c3                   	retq   
